ARM GAS  C:\Users\d3bug\AppData\Local\Temp\ccGR5z0o.s 			page 1


   1              		.syntax unified
   2              		.cpu cortex-m3
   3              		.fpu softvfp
   4              		.eabi_attribute 20, 1
   5              		.eabi_attribute 21, 1
   6              		.eabi_attribute 23, 3
   7              		.eabi_attribute 24, 1
   8              		.eabi_attribute 25, 1
   9              		.eabi_attribute 26, 1
  10              		.eabi_attribute 30, 1
  11              		.eabi_attribute 34, 1
  12              		.eabi_attribute 18, 4
  13              		.thumb
  14              		.syntax unified
  15              		.file	"DBG.c"
  16              		.text
  17              	.Ltext0:
  18              		.cfi_sections	.debug_frame
  19              		.section	.text.DBG_clear_screen,"ax",%progbits
  20              		.align	2
  21              		.global	DBG_clear_screen
  22              		.thumb
  23              		.thumb_func
  24              		.type	DBG_clear_screen, %function
  25              	DBG_clear_screen:
  26              	.LFB64:
  27              		.file 1 "..\\DBG\\DBG.c"
   1:..\DBG/DBG.c  **** /*
   2:..\DBG/DBG.c  ****  * DBG.c
   3:..\DBG/DBG.c  ****  *
   4:..\DBG/DBG.c  ****  *  Created on: 08/08/2018
   5:..\DBG/DBG.c  ****  *      Author: Ingenieria6
   6:..\DBG/DBG.c  ****  */
   7:..\DBG/DBG.c  **** 
   8:..\DBG/DBG.c  **** #include <string.h>
   9:..\DBG/DBG.c  **** #include <stdio.h>
  10:..\DBG/DBG.c  **** 
  11:..\DBG/DBG.c  **** #include "project.h"
  12:..\DBG/DBG.c  **** 
  13:..\DBG/DBG.c  **** #include "DBG.h"
  14:..\DBG/DBG.c  **** 
  15:..\DBG/DBG.c  **** char buffer[500] = "";
  16:..\DBG/DBG.c  **** 
  17:..\DBG/DBG.c  **** void DBG_clear_screen(void)
  18:..\DBG/DBG.c  **** {
  28              		.loc 1 18 0
  29              		.cfi_startproc
  30              		@ args = 0, pretend = 0, frame = 0
  31              		@ frame_needed = 0, uses_anonymous_args = 0
  32 0000 08B5     		push	{r3, lr}
  33              		.cfi_def_cfa_offset 8
  34              		.cfi_offset 3, -8
  35              		.cfi_offset 14, -4
  19:..\DBG/DBG.c  ****     UART_Log_PutChar(0x0C);
  36              		.loc 1 19 0
  37 0002 0C20     		movs	r0, #12
  38 0004 FFF7FEFF 		bl	UART_Log_PutChar
ARM GAS  C:\Users\d3bug\AppData\Local\Temp\ccGR5z0o.s 			page 2


  39              	.LVL0:
  40 0008 08BD     		pop	{r3, pc}
  41              		.cfi_endproc
  42              	.LFE64:
  43              		.size	DBG_clear_screen, .-DBG_clear_screen
  44 000a 00BF     		.section	.text.DBG_println,"ax",%progbits
  45              		.align	2
  46              		.global	DBG_println
  47              		.thumb
  48              		.thumb_func
  49              		.type	DBG_println, %function
  50              	DBG_println:
  51              	.LFB65:
  20:..\DBG/DBG.c  **** }
  21:..\DBG/DBG.c  **** 
  22:..\DBG/DBG.c  **** void DBG_println(const char *fmt, ...)
  23:..\DBG/DBG.c  **** {
  52              		.loc 1 23 0
  53              		.cfi_startproc
  54              		@ args = 4, pretend = 16, frame = 8
  55              		@ frame_needed = 0, uses_anonymous_args = 1
  56              	.LVL1:
  57 0000 0FB4     		push	{r0, r1, r2, r3}
  58              		.cfi_def_cfa_offset 16
  59              		.cfi_offset 0, -16
  60              		.cfi_offset 1, -12
  61              		.cfi_offset 2, -8
  62              		.cfi_offset 3, -4
  63 0002 F0B5     		push	{r4, r5, r6, r7, lr}
  64              		.cfi_def_cfa_offset 36
  65              		.cfi_offset 4, -36
  66              		.cfi_offset 5, -32
  67              		.cfi_offset 6, -28
  68              		.cfi_offset 7, -24
  69              		.cfi_offset 14, -20
  70 0004 83B0     		sub	sp, sp, #12
  71              		.cfi_def_cfa_offset 48
  72 0006 08AC     		add	r4, sp, #32
  73 0008 54F8047B 		ldr	r7, [r4], #4
  24:..\DBG/DBG.c  ****     memset(buffer, '\0', sizeof buffer);
  74              		.loc 1 24 0
  75 000c 0C4D     		ldr	r5, .L5
  76 000e 4FF4FA76 		mov	r6, #500
  77 0012 3246     		mov	r2, r6
  78 0014 0021     		movs	r1, #0
  79 0016 2846     		mov	r0, r5
  80 0018 FFF7FEFF 		bl	memset
  81              	.LVL2:
  25:..\DBG/DBG.c  **** 	va_list args;
  26:..\DBG/DBG.c  **** 	va_start(args, fmt);
  82              		.loc 1 26 0
  83 001c 0194     		str	r4, [sp, #4]
  27:..\DBG/DBG.c  **** 	vsnprintf(buffer, sizeof(buffer), fmt, args);
  84              		.loc 1 27 0
  85 001e 2346     		mov	r3, r4
  86 0020 3A46     		mov	r2, r7
  87 0022 3146     		mov	r1, r6
ARM GAS  C:\Users\d3bug\AppData\Local\Temp\ccGR5z0o.s 			page 3


  88 0024 2846     		mov	r0, r5
  89 0026 FFF7FEFF 		bl	vsnprintf
  90              	.LVL3:
  28:..\DBG/DBG.c  **** 	va_end(args);
  29:..\DBG/DBG.c  **** 
  30:..\DBG/DBG.c  ****     UART_Log_PutString(buffer);
  91              		.loc 1 30 0
  92 002a 2846     		mov	r0, r5
  93 002c FFF7FEFF 		bl	UART_Log_PutString
  94              	.LVL4:
  31:..\DBG/DBG.c  ****     UART_Log_PutString("\r\n");
  95              		.loc 1 31 0
  96 0030 0448     		ldr	r0, .L5+4
  97 0032 FFF7FEFF 		bl	UART_Log_PutString
  98              	.LVL5:
  32:..\DBG/DBG.c  **** }
  99              		.loc 1 32 0
 100 0036 03B0     		add	sp, sp, #12
 101              		.cfi_def_cfa_offset 36
 102              		@ sp needed
 103 0038 BDE8F040 		pop	{r4, r5, r6, r7, lr}
 104              		.cfi_restore 14
 105              		.cfi_restore 7
 106              		.cfi_restore 6
 107              		.cfi_restore 5
 108              		.cfi_restore 4
 109              		.cfi_def_cfa_offset 16
 110 003c 04B0     		add	sp, sp, #16
 111              		.cfi_restore 3
 112              		.cfi_restore 2
 113              		.cfi_restore 1
 114              		.cfi_restore 0
 115              		.cfi_def_cfa_offset 0
 116 003e 7047     		bx	lr
 117              	.L6:
 118              		.align	2
 119              	.L5:
 120 0040 00000000 		.word	.LANCHOR0
 121 0044 00000000 		.word	.LC0
 122              		.cfi_endproc
 123              	.LFE65:
 124              		.size	DBG_println, .-DBG_println
 125              		.global	buffer
 126              		.section	.rodata.str1.4,"aMS",%progbits,1
 127              		.align	2
 128              	.LC0:
 129 0000 0D0A00   		.ascii	"\015\012\000"
 130              		.bss
 131              		.align	2
 132              		.set	.LANCHOR0,. + 0
 133              		.type	buffer, %object
 134              		.size	buffer, 500
 135              	buffer:
 136 0000 00000000 		.space	500
 136      00000000 
 136      00000000 
 136      00000000 
ARM GAS  C:\Users\d3bug\AppData\Local\Temp\ccGR5z0o.s 			page 4


 136      00000000 
 137              		.text
 138              	.Letext0:
 139              		.file 2 "c:\\program files (x86)\\cypress\\psoc creator\\4.2\\psoc creator\\import\\gnu\\arm\\5.4.
 140              		.file 3 "c:\\program files (x86)\\cypress\\psoc creator\\4.2\\psoc creator\\import\\gnu\\arm\\5.4.
 141              		.file 4 "c:\\program files (x86)\\cypress\\psoc creator\\4.2\\psoc creator\\import\\gnu\\arm\\5.4.
 142              		.file 5 "Generated_Source\\PSoC5/core_cm3.h"
 143              		.file 6 "Generated_Source\\PSoC5/UART_Log.h"
 144              		.file 7 "c:\\program files (x86)\\cypress\\psoc creator\\4.2\\psoc creator\\import\\gnu\\arm\\5.4.
 145              		.file 8 "<built-in>"