ARM GAS  C:\Users\d3bug\AppData\Local\Temp\cckjyPuZ.s 			page 1


   1              		.syntax unified
   2              		.cpu cortex-m3
   3              		.fpu softvfp
   4              		.eabi_attribute 20, 1
   5              		.eabi_attribute 21, 1
   6              		.eabi_attribute 23, 3
   7              		.eabi_attribute 24, 1
   8              		.eabi_attribute 25, 1
   9              		.eabi_attribute 26, 1
  10              		.eabi_attribute 30, 1
  11              		.eabi_attribute 34, 1
  12              		.eabi_attribute 18, 4
  13              		.thumb
  14              		.syntax unified
  15              		.file	"lv_area.c"
  16              		.text
  17              	.Ltext0:
  18              		.cfi_sections	.debug_frame
  19              		.section	.text.lv_area_set,"ax",%progbits
  20              		.align	2
  21              		.global	lv_area_set
  22              		.thumb
  23              		.thumb_func
  24              		.type	lv_area_set, %function
  25              	lv_area_set:
  26              	.LFB3:
  27              		.file 1 "..\\lvgl\\lv_misc\\lv_area.c"
   1:..\lvgl\lv_misc/lv_area.c **** /**
   2:..\lvgl\lv_misc/lv_area.c ****  * @file lv_area.c
   3:..\lvgl\lv_misc/lv_area.c ****  *
   4:..\lvgl\lv_misc/lv_area.c ****  */
   5:..\lvgl\lv_misc/lv_area.c **** 
   6:..\lvgl\lv_misc/lv_area.c **** /*********************
   7:..\lvgl\lv_misc/lv_area.c ****  *      INCLUDES
   8:..\lvgl\lv_misc/lv_area.c ****  *********************/
   9:..\lvgl\lv_misc/lv_area.c **** #include "lv_area.h"
  10:..\lvgl\lv_misc/lv_area.c **** #include "lv_math.h"
  11:..\lvgl\lv_misc/lv_area.c **** 
  12:..\lvgl\lv_misc/lv_area.c **** /*********************
  13:..\lvgl\lv_misc/lv_area.c ****  *      DEFINES
  14:..\lvgl\lv_misc/lv_area.c ****  *********************/
  15:..\lvgl\lv_misc/lv_area.c **** 
  16:..\lvgl\lv_misc/lv_area.c **** /**********************
  17:..\lvgl\lv_misc/lv_area.c ****  *      TYPEDEFS
  18:..\lvgl\lv_misc/lv_area.c ****  **********************/
  19:..\lvgl\lv_misc/lv_area.c **** 
  20:..\lvgl\lv_misc/lv_area.c **** /**********************
  21:..\lvgl\lv_misc/lv_area.c ****  *  STATIC PROTOTYPES
  22:..\lvgl\lv_misc/lv_area.c ****  **********************/
  23:..\lvgl\lv_misc/lv_area.c **** 
  24:..\lvgl\lv_misc/lv_area.c **** /**********************
  25:..\lvgl\lv_misc/lv_area.c ****  *  STATIC VARIABLES
  26:..\lvgl\lv_misc/lv_area.c ****  **********************/
  27:..\lvgl\lv_misc/lv_area.c **** 
  28:..\lvgl\lv_misc/lv_area.c **** /**********************
  29:..\lvgl\lv_misc/lv_area.c ****  *      MACROS
  30:..\lvgl\lv_misc/lv_area.c ****  **********************/
ARM GAS  C:\Users\d3bug\AppData\Local\Temp\cckjyPuZ.s 			page 2


  31:..\lvgl\lv_misc/lv_area.c **** 
  32:..\lvgl\lv_misc/lv_area.c **** /**********************
  33:..\lvgl\lv_misc/lv_area.c ****  *   GLOBAL FUNCTIONS
  34:..\lvgl\lv_misc/lv_area.c ****  **********************/
  35:..\lvgl\lv_misc/lv_area.c **** 
  36:..\lvgl\lv_misc/lv_area.c **** /**
  37:..\lvgl\lv_misc/lv_area.c ****  * Initialize an area
  38:..\lvgl\lv_misc/lv_area.c ****  * @param area_p pointer to an area
  39:..\lvgl\lv_misc/lv_area.c ****  * @param x1 left coordinate of the area
  40:..\lvgl\lv_misc/lv_area.c ****  * @param y1 top coordinate of the area
  41:..\lvgl\lv_misc/lv_area.c ****  * @param x2 right coordinate of the area
  42:..\lvgl\lv_misc/lv_area.c ****  * @param y2 bottom coordinate of the area
  43:..\lvgl\lv_misc/lv_area.c ****  */
  44:..\lvgl\lv_misc/lv_area.c **** void lv_area_set(lv_area_t * area_p, lv_coord_t x1, lv_coord_t y1, lv_coord_t x2, lv_coord_t y2)
  45:..\lvgl\lv_misc/lv_area.c **** {
  28              		.loc 1 45 0
  29              		.cfi_startproc
  30              		@ args = 4, pretend = 0, frame = 0
  31              		@ frame_needed = 0, uses_anonymous_args = 0
  32              		@ link register save eliminated.
  33              	.LVL0:
  46:..\lvgl\lv_misc/lv_area.c ****     area_p->x1 = x1;
  34              		.loc 1 46 0
  35 0000 0180     		strh	r1, [r0]	@ movhi
  47:..\lvgl\lv_misc/lv_area.c ****     area_p->y1 = y1;
  36              		.loc 1 47 0
  37 0002 4280     		strh	r2, [r0, #2]	@ movhi
  48:..\lvgl\lv_misc/lv_area.c ****     area_p->x2 = x2;
  38              		.loc 1 48 0
  39 0004 8380     		strh	r3, [r0, #4]	@ movhi
  49:..\lvgl\lv_misc/lv_area.c ****     area_p->y2 = y2;
  40              		.loc 1 49 0
  41 0006 BDF90030 		ldrsh	r3, [sp]
  42              	.LVL1:
  43 000a C380     		strh	r3, [r0, #6]	@ movhi
  44 000c 7047     		bx	lr
  45              		.cfi_endproc
  46              	.LFE3:
  47              		.size	lv_area_set, .-lv_area_set
  48 000e 00BF     		.section	.text.lv_area_set_width,"ax",%progbits
  49              		.align	2
  50              		.global	lv_area_set_width
  51              		.thumb
  52              		.thumb_func
  53              		.type	lv_area_set_width, %function
  54              	lv_area_set_width:
  55              	.LFB4:
  50:..\lvgl\lv_misc/lv_area.c **** }
  51:..\lvgl\lv_misc/lv_area.c **** 
  52:..\lvgl\lv_misc/lv_area.c **** /**
  53:..\lvgl\lv_misc/lv_area.c ****  * Set the width of an area
  54:..\lvgl\lv_misc/lv_area.c ****  * @param area_p pointer to an area
  55:..\lvgl\lv_misc/lv_area.c ****  * @param w the new width of the area (w == 1 makes x1 == x2)
  56:..\lvgl\lv_misc/lv_area.c ****  */
  57:..\lvgl\lv_misc/lv_area.c **** void lv_area_set_width(lv_area_t * area_p, lv_coord_t w)
  58:..\lvgl\lv_misc/lv_area.c **** {
  56              		.loc 1 58 0
ARM GAS  C:\Users\d3bug\AppData\Local\Temp\cckjyPuZ.s 			page 3


  57              		.cfi_startproc
  58              		@ args = 0, pretend = 0, frame = 0
  59              		@ frame_needed = 0, uses_anonymous_args = 0
  60              		@ link register save eliminated.
  61              	.LVL2:
  59:..\lvgl\lv_misc/lv_area.c ****     area_p->x2 = area_p->x1 + w - 1;
  62              		.loc 1 59 0
  63 0000 B0F90030 		ldrsh	r3, [r0]
  64 0004 1944     		add	r1, r1, r3
  65              	.LVL3:
  66 0006 0139     		subs	r1, r1, #1
  67 0008 8180     		strh	r1, [r0, #4]	@ movhi
  68 000a 7047     		bx	lr
  69              		.cfi_endproc
  70              	.LFE4:
  71              		.size	lv_area_set_width, .-lv_area_set_width
  72              		.section	.text.lv_area_set_height,"ax",%progbits
  73              		.align	2
  74              		.global	lv_area_set_height
  75              		.thumb
  76              		.thumb_func
  77              		.type	lv_area_set_height, %function
  78              	lv_area_set_height:
  79              	.LFB5:
  60:..\lvgl\lv_misc/lv_area.c **** }
  61:..\lvgl\lv_misc/lv_area.c **** 
  62:..\lvgl\lv_misc/lv_area.c **** /**
  63:..\lvgl\lv_misc/lv_area.c ****  * Set the height of an area
  64:..\lvgl\lv_misc/lv_area.c ****  * @param area_p pointer to an area
  65:..\lvgl\lv_misc/lv_area.c ****  * @param h the new height of the area (h == 1 makes y1 == y2)
  66:..\lvgl\lv_misc/lv_area.c ****  */
  67:..\lvgl\lv_misc/lv_area.c **** void lv_area_set_height(lv_area_t * area_p, lv_coord_t h)
  68:..\lvgl\lv_misc/lv_area.c **** {
  80              		.loc 1 68 0
  81              		.cfi_startproc
  82              		@ args = 0, pretend = 0, frame = 0
  83              		@ frame_needed = 0, uses_anonymous_args = 0
  84              		@ link register save eliminated.
  85              	.LVL4:
  69:..\lvgl\lv_misc/lv_area.c ****     area_p->y2 = area_p->y1 + h - 1;
  86              		.loc 1 69 0
  87 0000 B0F90230 		ldrsh	r3, [r0, #2]
  88 0004 1944     		add	r1, r1, r3
  89              	.LVL5:
  90 0006 0139     		subs	r1, r1, #1
  91 0008 C180     		strh	r1, [r0, #6]	@ movhi
  92 000a 7047     		bx	lr
  93              		.cfi_endproc
  94              	.LFE5:
  95              		.size	lv_area_set_height, .-lv_area_set_height
  96              		.section	.text.lv_area_set_pos,"ax",%progbits
  97              		.align	2
  98              		.global	lv_area_set_pos
  99              		.thumb
 100              		.thumb_func
 101              		.type	lv_area_set_pos, %function
 102              	lv_area_set_pos:
ARM GAS  C:\Users\d3bug\AppData\Local\Temp\cckjyPuZ.s 			page 4


 103              	.LFB6:
  70:..\lvgl\lv_misc/lv_area.c **** }
  71:..\lvgl\lv_misc/lv_area.c **** 
  72:..\lvgl\lv_misc/lv_area.c **** /**
  73:..\lvgl\lv_misc/lv_area.c ****  * Set the position of an area (width and height will be kept)
  74:..\lvgl\lv_misc/lv_area.c ****  * @param area_p pointer to an area
  75:..\lvgl\lv_misc/lv_area.c ****  * @param x the new x coordinate of the area
  76:..\lvgl\lv_misc/lv_area.c ****  * @param y the new y coordinate of the area
  77:..\lvgl\lv_misc/lv_area.c ****  */
  78:..\lvgl\lv_misc/lv_area.c **** void lv_area_set_pos(lv_area_t * area_p, lv_coord_t x, lv_coord_t y)
  79:..\lvgl\lv_misc/lv_area.c **** {
 104              		.loc 1 79 0
 105              		.cfi_startproc
 106              		@ args = 0, pretend = 0, frame = 0
 107              		@ frame_needed = 0, uses_anonymous_args = 0
 108              	.LVL6:
 109 0000 70B5     		push	{r4, r5, r6, lr}
 110              		.cfi_def_cfa_offset 16
 111              		.cfi_offset 4, -16
 112              		.cfi_offset 5, -12
 113              		.cfi_offset 6, -8
 114              		.cfi_offset 14, -4
 115 0002 0446     		mov	r4, r0
 116              	.LVL7:
 117              	.LBB6:
 118              	.LBB7:
 119              		.file 2 "..\\lvgl\\lv_misc\\lv_area.h"
   1:..\lvgl\lv_misc/lv_area.h **** /**
   2:..\lvgl\lv_misc/lv_area.h ****  * @file lv_area.h
   3:..\lvgl\lv_misc/lv_area.h ****  *
   4:..\lvgl\lv_misc/lv_area.h ****  */
   5:..\lvgl\lv_misc/lv_area.h **** 
   6:..\lvgl\lv_misc/lv_area.h **** #ifndef LV_AREA_H
   7:..\lvgl\lv_misc/lv_area.h **** #define LV_AREA_H
   8:..\lvgl\lv_misc/lv_area.h **** 
   9:..\lvgl\lv_misc/lv_area.h **** #ifdef __cplusplus
  10:..\lvgl\lv_misc/lv_area.h **** extern "C" {
  11:..\lvgl\lv_misc/lv_area.h **** #endif
  12:..\lvgl\lv_misc/lv_area.h **** 
  13:..\lvgl\lv_misc/lv_area.h **** 
  14:..\lvgl\lv_misc/lv_area.h **** /*********************
  15:..\lvgl\lv_misc/lv_area.h ****  *      INCLUDES
  16:..\lvgl\lv_misc/lv_area.h ****  *********************/
  17:..\lvgl\lv_misc/lv_area.h **** #include <string.h>
  18:..\lvgl\lv_misc/lv_area.h **** #include <stdbool.h>
  19:..\lvgl\lv_misc/lv_area.h **** #include <stdint.h>
  20:..\lvgl\lv_misc/lv_area.h **** 
  21:..\lvgl\lv_misc/lv_area.h **** /*********************
  22:..\lvgl\lv_misc/lv_area.h ****  *      DEFINES
  23:..\lvgl\lv_misc/lv_area.h ****  *********************/
  24:..\lvgl\lv_misc/lv_area.h **** #define LV_COORD_MAX     (16383)    /*To avoid overflow don't let the max [-32,32k] range */
  25:..\lvgl\lv_misc/lv_area.h **** #define LV_COORD_MIN     (-16384)
  26:..\lvgl\lv_misc/lv_area.h **** 
  27:..\lvgl\lv_misc/lv_area.h **** /**********************
  28:..\lvgl\lv_misc/lv_area.h ****  *      TYPEDEFS
  29:..\lvgl\lv_misc/lv_area.h ****  **********************/
  30:..\lvgl\lv_misc/lv_area.h **** typedef int16_t lv_coord_t;
ARM GAS  C:\Users\d3bug\AppData\Local\Temp\cckjyPuZ.s 			page 5


  31:..\lvgl\lv_misc/lv_area.h **** 
  32:..\lvgl\lv_misc/lv_area.h **** typedef struct
  33:..\lvgl\lv_misc/lv_area.h **** {
  34:..\lvgl\lv_misc/lv_area.h ****     lv_coord_t x;
  35:..\lvgl\lv_misc/lv_area.h ****     lv_coord_t y;
  36:..\lvgl\lv_misc/lv_area.h **** } lv_point_t;
  37:..\lvgl\lv_misc/lv_area.h **** 
  38:..\lvgl\lv_misc/lv_area.h **** typedef struct
  39:..\lvgl\lv_misc/lv_area.h **** {
  40:..\lvgl\lv_misc/lv_area.h ****     lv_coord_t x1;
  41:..\lvgl\lv_misc/lv_area.h ****     lv_coord_t y1;
  42:..\lvgl\lv_misc/lv_area.h ****     lv_coord_t x2;
  43:..\lvgl\lv_misc/lv_area.h ****     lv_coord_t y2;
  44:..\lvgl\lv_misc/lv_area.h **** } lv_area_t;
  45:..\lvgl\lv_misc/lv_area.h **** 
  46:..\lvgl\lv_misc/lv_area.h **** /**********************
  47:..\lvgl\lv_misc/lv_area.h ****  * GLOBAL PROTOTYPES
  48:..\lvgl\lv_misc/lv_area.h ****  **********************/
  49:..\lvgl\lv_misc/lv_area.h **** 
  50:..\lvgl\lv_misc/lv_area.h **** /**
  51:..\lvgl\lv_misc/lv_area.h ****  * Initialize an area
  52:..\lvgl\lv_misc/lv_area.h ****  * @param area_p pointer to an area
  53:..\lvgl\lv_misc/lv_area.h ****  * @param x1 left coordinate of the area
  54:..\lvgl\lv_misc/lv_area.h ****  * @param y1 top coordinate of the area
  55:..\lvgl\lv_misc/lv_area.h ****  * @param x2 right coordinate of the area
  56:..\lvgl\lv_misc/lv_area.h ****  * @param y2 bottom coordinate of the area
  57:..\lvgl\lv_misc/lv_area.h ****  */
  58:..\lvgl\lv_misc/lv_area.h **** void lv_area_set(lv_area_t * area_p, lv_coord_t x1, lv_coord_t y1, lv_coord_t x2, lv_coord_t y2);
  59:..\lvgl\lv_misc/lv_area.h **** 
  60:..\lvgl\lv_misc/lv_area.h **** /**
  61:..\lvgl\lv_misc/lv_area.h ****  * Copy an area
  62:..\lvgl\lv_misc/lv_area.h ****  * @param dest pointer to the destination area
  63:..\lvgl\lv_misc/lv_area.h ****  * @param src pointer to the source area
  64:..\lvgl\lv_misc/lv_area.h ****  */
  65:..\lvgl\lv_misc/lv_area.h **** inline static void lv_area_copy(lv_area_t * dest, const lv_area_t * src)
  66:..\lvgl\lv_misc/lv_area.h **** {
  67:..\lvgl\lv_misc/lv_area.h ****     memcpy(dest, src, sizeof(lv_area_t));
  68:..\lvgl\lv_misc/lv_area.h **** }
  69:..\lvgl\lv_misc/lv_area.h **** 
  70:..\lvgl\lv_misc/lv_area.h **** /**
  71:..\lvgl\lv_misc/lv_area.h ****  * Get the width of an area
  72:..\lvgl\lv_misc/lv_area.h ****  * @param area_p pointer to an area
  73:..\lvgl\lv_misc/lv_area.h ****  * @return the width of the area (if x1 == x2 -> width = 1)
  74:..\lvgl\lv_misc/lv_area.h ****  */
  75:..\lvgl\lv_misc/lv_area.h **** static inline lv_coord_t lv_area_get_width(const lv_area_t * area_p)
  76:..\lvgl\lv_misc/lv_area.h **** {
  77:..\lvgl\lv_misc/lv_area.h ****     return area_p->x2 - area_p->x1 + 1;
 120              		.loc 2 77 0
 121 0004 B0F90430 		ldrsh	r3, [r0, #4]
 122 0008 B0F90060 		ldrsh	r6, [r0]
 123 000c 9E1B     		subs	r6, r3, r6
 124 000e 0136     		adds	r6, r6, #1
 125              	.LVL8:
 126              	.LBE7:
 127              	.LBE6:
 128              	.LBB8:
 129              	.LBB9:
ARM GAS  C:\Users\d3bug\AppData\Local\Temp\cckjyPuZ.s 			page 6


  78:..\lvgl\lv_misc/lv_area.h **** }
  79:..\lvgl\lv_misc/lv_area.h **** 
  80:..\lvgl\lv_misc/lv_area.h **** /**
  81:..\lvgl\lv_misc/lv_area.h ****  * Get the height of an area
  82:..\lvgl\lv_misc/lv_area.h ****  * @param area_p pointer to an area
  83:..\lvgl\lv_misc/lv_area.h ****  * @return the height of the area (if y1 == y2 -> height = 1)
  84:..\lvgl\lv_misc/lv_area.h ****  */
  85:..\lvgl\lv_misc/lv_area.h **** static inline lv_coord_t lv_area_get_height(const lv_area_t * area_p)
  86:..\lvgl\lv_misc/lv_area.h **** {
  87:..\lvgl\lv_misc/lv_area.h ****     return area_p->y2 - area_p->y1 + 1;
 130              		.loc 2 87 0
 131 0010 B0F90630 		ldrsh	r3, [r0, #6]
 132 0014 B0F90250 		ldrsh	r5, [r0, #2]
 133 0018 5D1B     		subs	r5, r3, r5
 134 001a 0135     		adds	r5, r5, #1
 135 001c 2DB2     		sxth	r5, r5
 136              	.LVL9:
 137              	.LBE9:
 138              	.LBE8:
  80:..\lvgl\lv_misc/lv_area.c ****     lv_coord_t w = lv_area_get_width(area_p);
  81:..\lvgl\lv_misc/lv_area.c ****     lv_coord_t h = lv_area_get_height(area_p);
  82:..\lvgl\lv_misc/lv_area.c ****     area_p->x1 = x;
 139              		.loc 1 82 0
 140 001e 0180     		strh	r1, [r0]	@ movhi
  83:..\lvgl\lv_misc/lv_area.c ****     area_p->y1 = y;
 141              		.loc 1 83 0
 142 0020 4280     		strh	r2, [r0, #2]	@ movhi
  84:..\lvgl\lv_misc/lv_area.c ****     lv_area_set_width(area_p, w);
 143              		.loc 1 84 0
 144 0022 31B2     		sxth	r1, r6
 145              	.LVL10:
 146 0024 FFF7FEFF 		bl	lv_area_set_width
 147              	.LVL11:
  85:..\lvgl\lv_misc/lv_area.c ****     lv_area_set_height(area_p, h);
 148              		.loc 1 85 0
 149 0028 2946     		mov	r1, r5
 150 002a 2046     		mov	r0, r4
 151 002c FFF7FEFF 		bl	lv_area_set_height
 152              	.LVL12:
 153 0030 70BD     		pop	{r4, r5, r6, pc}
 154              		.cfi_endproc
 155              	.LFE6:
 156              		.size	lv_area_set_pos, .-lv_area_set_pos
 157 0032 00BF     		.section	.text.lv_area_get_size,"ax",%progbits
 158              		.align	2
 159              		.global	lv_area_get_size
 160              		.thumb
 161              		.thumb_func
 162              		.type	lv_area_get_size, %function
 163              	lv_area_get_size:
 164              	.LFB7:
  86:..\lvgl\lv_misc/lv_area.c **** }
  87:..\lvgl\lv_misc/lv_area.c **** 
  88:..\lvgl\lv_misc/lv_area.c **** /**
  89:..\lvgl\lv_misc/lv_area.c ****  * Return with area of an area (x * y)
  90:..\lvgl\lv_misc/lv_area.c ****  * @param area_p pointer to an area
  91:..\lvgl\lv_misc/lv_area.c ****  * @return size of area
ARM GAS  C:\Users\d3bug\AppData\Local\Temp\cckjyPuZ.s 			page 7


  92:..\lvgl\lv_misc/lv_area.c ****  */
  93:..\lvgl\lv_misc/lv_area.c **** uint32_t lv_area_get_size(const lv_area_t * area_p)
  94:..\lvgl\lv_misc/lv_area.c **** {
 165              		.loc 1 94 0
 166              		.cfi_startproc
 167              		@ args = 0, pretend = 0, frame = 0
 168              		@ frame_needed = 0, uses_anonymous_args = 0
 169              		@ link register save eliminated.
 170              	.LVL13:
  95:..\lvgl\lv_misc/lv_area.c ****     uint32_t size;
  96:..\lvgl\lv_misc/lv_area.c **** 
  97:..\lvgl\lv_misc/lv_area.c ****     size = (uint32_t)(area_p->x2 - area_p->x1 + 1) *
 171              		.loc 1 97 0
 172 0000 B0F90430 		ldrsh	r3, [r0, #4]
 173 0004 B0F90020 		ldrsh	r2, [r0]
 174 0008 9A1A     		subs	r2, r3, r2
  98:..\lvgl\lv_misc/lv_area.c ****            (area_p->y2 - area_p->y1 + 1);
 175              		.loc 1 98 0
 176 000a B0F90630 		ldrsh	r3, [r0, #6]
 177 000e B0F90200 		ldrsh	r0, [r0, #2]
 178              	.LVL14:
 179 0012 181A     		subs	r0, r3, r0
 180 0014 0130     		adds	r0, r0, #1
 181              	.LVL15:
  99:..\lvgl\lv_misc/lv_area.c **** 
 100:..\lvgl\lv_misc/lv_area.c ****     return size;
 101:..\lvgl\lv_misc/lv_area.c **** }
 182              		.loc 1 101 0
 183 0016 02FB0000 		mla	r0, r2, r0, r0
 184              	.LVL16:
 185 001a 7047     		bx	lr
 186              		.cfi_endproc
 187              	.LFE7:
 188              		.size	lv_area_get_size, .-lv_area_get_size
 189              		.section	.text.lv_area_intersect,"ax",%progbits
 190              		.align	2
 191              		.global	lv_area_intersect
 192              		.thumb
 193              		.thumb_func
 194              		.type	lv_area_intersect, %function
 195              	lv_area_intersect:
 196              	.LFB8:
 102:..\lvgl\lv_misc/lv_area.c **** 
 103:..\lvgl\lv_misc/lv_area.c **** /**
 104:..\lvgl\lv_misc/lv_area.c ****  * Get the common parts of two areas
 105:..\lvgl\lv_misc/lv_area.c ****  * @param res_p pointer to an area, the result will be stored here
 106:..\lvgl\lv_misc/lv_area.c ****  * @param a1_p pointer to the first area
 107:..\lvgl\lv_misc/lv_area.c ****  * @param a2_p pointer to the second area
 108:..\lvgl\lv_misc/lv_area.c ****  * @return false: the two area has NO common parts, res_p is invalid
 109:..\lvgl\lv_misc/lv_area.c ****  */
 110:..\lvgl\lv_misc/lv_area.c **** bool lv_area_intersect(lv_area_t * res_p, const lv_area_t * a1_p, const lv_area_t * a2_p)
 111:..\lvgl\lv_misc/lv_area.c **** {
 197              		.loc 1 111 0
 198              		.cfi_startproc
 199              		@ args = 0, pretend = 0, frame = 0
 200              		@ frame_needed = 0, uses_anonymous_args = 0
 201              		@ link register save eliminated.
ARM GAS  C:\Users\d3bug\AppData\Local\Temp\cckjyPuZ.s 			page 8


 202              	.LVL17:
 203 0000 70B4     		push	{r4, r5, r6}
 204              		.cfi_def_cfa_offset 12
 205              		.cfi_offset 4, -12
 206              		.cfi_offset 5, -8
 207              		.cfi_offset 6, -4
 112:..\lvgl\lv_misc/lv_area.c ****     /* Get the smaller area from 'a1_p' and 'a2_p' */
 113:..\lvgl\lv_misc/lv_area.c ****     res_p->x1 = LV_MATH_MAX(a1_p->x1, a2_p->x1);
 208              		.loc 1 113 0
 209 0002 B2F90040 		ldrsh	r4, [r2]
 210 0006 B1F90030 		ldrsh	r3, [r1]
 211 000a 9C42     		cmp	r4, r3
 212 000c B8BF     		it	lt
 213 000e 1C46     		movlt	r4, r3
 214 0010 0480     		strh	r4, [r0]	@ movhi
 114:..\lvgl\lv_misc/lv_area.c ****     res_p->y1 = LV_MATH_MAX(a1_p->y1, a2_p->y1);
 215              		.loc 1 114 0
 216 0012 B2F90250 		ldrsh	r5, [r2, #2]
 217 0016 B1F90230 		ldrsh	r3, [r1, #2]
 218 001a 9D42     		cmp	r5, r3
 219 001c B8BF     		it	lt
 220 001e 1D46     		movlt	r5, r3
 221 0020 4580     		strh	r5, [r0, #2]	@ movhi
 115:..\lvgl\lv_misc/lv_area.c ****     res_p->x2 = LV_MATH_MIN(a1_p->x2, a2_p->x2);
 222              		.loc 1 115 0
 223 0022 B2F90460 		ldrsh	r6, [r2, #4]
 224 0026 B1F90430 		ldrsh	r3, [r1, #4]
 225 002a B342     		cmp	r3, r6
 226 002c A8BF     		it	ge
 227 002e 3346     		movge	r3, r6
 228 0030 8380     		strh	r3, [r0, #4]	@ movhi
 116:..\lvgl\lv_misc/lv_area.c ****     res_p->y2 = LV_MATH_MIN(a1_p->y2, a2_p->y2);
 229              		.loc 1 116 0
 230 0032 B2F90660 		ldrsh	r6, [r2, #6]
 231 0036 B1F90620 		ldrsh	r2, [r1, #6]
 232              	.LVL18:
 233 003a B242     		cmp	r2, r6
 234 003c A8BF     		it	ge
 235 003e 3246     		movge	r2, r6
 236 0040 C280     		strh	r2, [r0, #6]	@ movhi
 237              	.LVL19:
 117:..\lvgl\lv_misc/lv_area.c **** 
 118:..\lvgl\lv_misc/lv_area.c ****     /*If x1 or y1 greater then x2 or y2 then the areas union is empty*/
 119:..\lvgl\lv_misc/lv_area.c ****     bool union_ok = true;
 120:..\lvgl\lv_misc/lv_area.c ****     if((res_p->x1 > res_p->x2) ||
 238              		.loc 1 120 0
 239 0042 9C42     		cmp	r4, r3
 240 0044 03DC     		bgt	.L9
 241              		.loc 1 120 0 is_stmt 0 discriminator 1
 242 0046 9542     		cmp	r5, r2
 243 0048 03DC     		bgt	.L10
 119:..\lvgl\lv_misc/lv_area.c ****     if((res_p->x1 > res_p->x2) ||
 244              		.loc 1 119 0 is_stmt 1
 245 004a 0120     		movs	r0, #1
 246              	.LVL20:
 247 004c 02E0     		b	.L8
 248              	.LVL21:
ARM GAS  C:\Users\d3bug\AppData\Local\Temp\cckjyPuZ.s 			page 9


 249              	.L9:
 121:..\lvgl\lv_misc/lv_area.c ****             (res_p->y1 > res_p->y2)) {
 122:..\lvgl\lv_misc/lv_area.c ****         union_ok = false;
 250              		.loc 1 122 0
 251 004e 0020     		movs	r0, #0
 252              	.LVL22:
 253 0050 00E0     		b	.L8
 254              	.LVL23:
 255              	.L10:
 256 0052 0020     		movs	r0, #0
 257              	.LVL24:
 258              	.L8:
 123:..\lvgl\lv_misc/lv_area.c ****     }
 124:..\lvgl\lv_misc/lv_area.c **** 
 125:..\lvgl\lv_misc/lv_area.c ****     return union_ok;
 126:..\lvgl\lv_misc/lv_area.c **** }
 259              		.loc 1 126 0
 260 0054 70BC     		pop	{r4, r5, r6}
 261              		.cfi_restore 6
 262              		.cfi_restore 5
 263              		.cfi_restore 4
 264              		.cfi_def_cfa_offset 0
 265 0056 7047     		bx	lr
 266              		.cfi_endproc
 267              	.LFE8:
 268              		.size	lv_area_intersect, .-lv_area_intersect
 269              		.section	.text.lv_area_join,"ax",%progbits
 270              		.align	2
 271              		.global	lv_area_join
 272              		.thumb
 273              		.thumb_func
 274              		.type	lv_area_join, %function
 275              	lv_area_join:
 276              	.LFB9:
 127:..\lvgl\lv_misc/lv_area.c **** /**
 128:..\lvgl\lv_misc/lv_area.c ****  * Join two areas into a third which involves the other two
 129:..\lvgl\lv_misc/lv_area.c ****  * @param res_p pointer to an area, the result will be stored here
 130:..\lvgl\lv_misc/lv_area.c ****  * @param a1_p pointer to the first area
 131:..\lvgl\lv_misc/lv_area.c ****  * @param a2_p pointer to the second area
 132:..\lvgl\lv_misc/lv_area.c ****  */
 133:..\lvgl\lv_misc/lv_area.c **** void lv_area_join(lv_area_t * a_res_p, const lv_area_t * a1_p, const lv_area_t * a2_p)
 134:..\lvgl\lv_misc/lv_area.c **** {
 277              		.loc 1 134 0
 278              		.cfi_startproc
 279              		@ args = 0, pretend = 0, frame = 0
 280              		@ frame_needed = 0, uses_anonymous_args = 0
 281              		@ link register save eliminated.
 282              	.LVL25:
 283 0000 10B4     		push	{r4}
 284              		.cfi_def_cfa_offset 4
 285              		.cfi_offset 4, -4
 135:..\lvgl\lv_misc/lv_area.c ****     a_res_p->x1 = LV_MATH_MIN(a1_p->x1, a2_p->x1);
 286              		.loc 1 135 0
 287 0002 B2F90040 		ldrsh	r4, [r2]
 288 0006 B1F90030 		ldrsh	r3, [r1]
 289 000a A342     		cmp	r3, r4
 290 000c A8BF     		it	ge
ARM GAS  C:\Users\d3bug\AppData\Local\Temp\cckjyPuZ.s 			page 10


 291 000e 2346     		movge	r3, r4
 292 0010 0380     		strh	r3, [r0]	@ movhi
 136:..\lvgl\lv_misc/lv_area.c ****     a_res_p->y1 = LV_MATH_MIN(a1_p->y1, a2_p->y1);
 293              		.loc 1 136 0
 294 0012 B2F90240 		ldrsh	r4, [r2, #2]
 295 0016 B1F90230 		ldrsh	r3, [r1, #2]
 296 001a A342     		cmp	r3, r4
 297 001c A8BF     		it	ge
 298 001e 2346     		movge	r3, r4
 299 0020 4380     		strh	r3, [r0, #2]	@ movhi
 137:..\lvgl\lv_misc/lv_area.c ****     a_res_p->x2 = LV_MATH_MAX(a1_p->x2, a2_p->x2);
 300              		.loc 1 137 0
 301 0022 B2F90440 		ldrsh	r4, [r2, #4]
 302 0026 B1F90430 		ldrsh	r3, [r1, #4]
 303 002a A342     		cmp	r3, r4
 304 002c B8BF     		it	lt
 305 002e 2346     		movlt	r3, r4
 306 0030 8380     		strh	r3, [r0, #4]	@ movhi
 138:..\lvgl\lv_misc/lv_area.c ****     a_res_p->y2 = LV_MATH_MAX(a1_p->y2, a2_p->y2);
 307              		.loc 1 138 0
 308 0032 B2F90620 		ldrsh	r2, [r2, #6]
 309              	.LVL26:
 310 0036 B1F90630 		ldrsh	r3, [r1, #6]
 311 003a 9342     		cmp	r3, r2
 312 003c B8BF     		it	lt
 313 003e 1346     		movlt	r3, r2
 314 0040 C380     		strh	r3, [r0, #6]	@ movhi
 139:..\lvgl\lv_misc/lv_area.c **** }
 315              		.loc 1 139 0
 316 0042 10BC     		pop	{r4}
 317              		.cfi_restore 4
 318              		.cfi_def_cfa_offset 0
 319 0044 7047     		bx	lr
 320              		.cfi_endproc
 321              	.LFE9:
 322              		.size	lv_area_join, .-lv_area_join
 323 0046 00BF     		.section	.text.lv_area_is_point_on,"ax",%progbits
 324              		.align	2
 325              		.global	lv_area_is_point_on
 326              		.thumb
 327              		.thumb_func
 328              		.type	lv_area_is_point_on, %function
 329              	lv_area_is_point_on:
 330              	.LFB10:
 140:..\lvgl\lv_misc/lv_area.c **** 
 141:..\lvgl\lv_misc/lv_area.c **** /**
 142:..\lvgl\lv_misc/lv_area.c ****  * Check if a point is on an area
 143:..\lvgl\lv_misc/lv_area.c ****  * @param a_p pointer to an area
 144:..\lvgl\lv_misc/lv_area.c ****  * @param p_p pointer to a point
 145:..\lvgl\lv_misc/lv_area.c ****  * @return false:the point is out of the area
 146:..\lvgl\lv_misc/lv_area.c ****  */
 147:..\lvgl\lv_misc/lv_area.c **** bool lv_area_is_point_on(const lv_area_t * a_p, const lv_point_t * p_p)
 148:..\lvgl\lv_misc/lv_area.c **** {
 331              		.loc 1 148 0
 332              		.cfi_startproc
 333              		@ args = 0, pretend = 0, frame = 0
 334              		@ frame_needed = 0, uses_anonymous_args = 0
ARM GAS  C:\Users\d3bug\AppData\Local\Temp\cckjyPuZ.s 			page 11


 335              		@ link register save eliminated.
 336              	.LVL27:
 149:..\lvgl\lv_misc/lv_area.c ****     bool is_on = false;
 150:..\lvgl\lv_misc/lv_area.c **** 
 151:..\lvgl\lv_misc/lv_area.c ****     if((p_p->x >= a_p->x1 && p_p->x <= a_p->x2) &&
 337              		.loc 1 151 0
 338 0000 B1F90030 		ldrsh	r3, [r1]
 339 0004 B0F90020 		ldrsh	r2, [r0]
 340 0008 9342     		cmp	r3, r2
 341 000a 0FDB     		blt	.L16
 342              		.loc 1 151 0 is_stmt 0 discriminator 1
 343 000c B0F90420 		ldrsh	r2, [r0, #4]
 344 0010 9342     		cmp	r3, r2
 345 0012 0DDC     		bgt	.L17
 152:..\lvgl\lv_misc/lv_area.c ****             ((p_p->y >= a_p->y1 && p_p->y <= a_p->y2))) {
 346              		.loc 1 152 0 is_stmt 1 discriminator 2
 347 0014 B1F90230 		ldrsh	r3, [r1, #2]
 348 0018 B0F90220 		ldrsh	r2, [r0, #2]
 151:..\lvgl\lv_misc/lv_area.c ****             ((p_p->y >= a_p->y1 && p_p->y <= a_p->y2))) {
 349              		.loc 1 151 0 discriminator 2
 350 001c 9342     		cmp	r3, r2
 351 001e 09DB     		blt	.L18
 352              		.loc 1 152 0
 353 0020 B0F90620 		ldrsh	r2, [r0, #6]
 354 0024 9342     		cmp	r3, r2
 355 0026 07DD     		ble	.L19
 149:..\lvgl\lv_misc/lv_area.c ****     bool is_on = false;
 356              		.loc 1 149 0
 357 0028 0020     		movs	r0, #0
 358              	.LVL28:
 359 002a 7047     		bx	lr
 360              	.LVL29:
 361              	.L16:
 362 002c 0020     		movs	r0, #0
 363              	.LVL30:
 364 002e 7047     		bx	lr
 365              	.LVL31:
 366              	.L17:
 367 0030 0020     		movs	r0, #0
 368              	.LVL32:
 369 0032 7047     		bx	lr
 370              	.LVL33:
 371              	.L18:
 372 0034 0020     		movs	r0, #0
 373              	.LVL34:
 374 0036 7047     		bx	lr
 375              	.LVL35:
 376              	.L19:
 153:..\lvgl\lv_misc/lv_area.c ****         is_on = true;
 377              		.loc 1 153 0
 378 0038 0120     		movs	r0, #1
 379              	.LVL36:
 154:..\lvgl\lv_misc/lv_area.c ****     }
 155:..\lvgl\lv_misc/lv_area.c **** 
 156:..\lvgl\lv_misc/lv_area.c ****     return is_on;
 157:..\lvgl\lv_misc/lv_area.c **** }
 380              		.loc 1 157 0
ARM GAS  C:\Users\d3bug\AppData\Local\Temp\cckjyPuZ.s 			page 12


 381 003a 7047     		bx	lr
 382              		.cfi_endproc
 383              	.LFE10:
 384              		.size	lv_area_is_point_on, .-lv_area_is_point_on
 385              		.section	.text.lv_area_is_on,"ax",%progbits
 386              		.align	2
 387              		.global	lv_area_is_on
 388              		.thumb
 389              		.thumb_func
 390              		.type	lv_area_is_on, %function
 391              	lv_area_is_on:
 392              	.LFB11:
 158:..\lvgl\lv_misc/lv_area.c **** 
 159:..\lvgl\lv_misc/lv_area.c **** /**
 160:..\lvgl\lv_misc/lv_area.c ****  * Check if two area has common parts
 161:..\lvgl\lv_misc/lv_area.c ****  * @param a1_p pointer to an area.
 162:..\lvgl\lv_misc/lv_area.c ****  * @param a2_p pointer to an other area
 163:..\lvgl\lv_misc/lv_area.c ****  * @return false: a1_p and a2_p has no common parts
 164:..\lvgl\lv_misc/lv_area.c ****  */
 165:..\lvgl\lv_misc/lv_area.c **** bool lv_area_is_on(const lv_area_t * a1_p, const lv_area_t * a2_p)
 166:..\lvgl\lv_misc/lv_area.c **** {
 393              		.loc 1 166 0
 394              		.cfi_startproc
 395              		@ args = 0, pretend = 0, frame = 0
 396              		@ frame_needed = 0, uses_anonymous_args = 0
 397              		@ link register save eliminated.
 398              	.LVL37:
 167:..\lvgl\lv_misc/lv_area.c ****     if((a1_p->x1 <= a2_p->x2) &&
 399              		.loc 1 167 0
 400 0000 B0F90020 		ldrsh	r2, [r0]
 401 0004 B1F90430 		ldrsh	r3, [r1, #4]
 402 0008 9A42     		cmp	r2, r3
 403 000a 13DC     		bgt	.L22
 168:..\lvgl\lv_misc/lv_area.c ****             (a1_p->x2 >= a2_p->x1) &&
 404              		.loc 1 168 0 discriminator 1
 405 000c B0F90420 		ldrsh	r2, [r0, #4]
 406 0010 B1F90030 		ldrsh	r3, [r1]
 167:..\lvgl\lv_misc/lv_area.c ****     if((a1_p->x1 <= a2_p->x2) &&
 407              		.loc 1 167 0 discriminator 1
 408 0014 9A42     		cmp	r2, r3
 409 0016 0FDB     		blt	.L23
 169:..\lvgl\lv_misc/lv_area.c ****             (a1_p->y1 <= a2_p->y2) &&
 410              		.loc 1 169 0
 411 0018 B0F90220 		ldrsh	r2, [r0, #2]
 412 001c B1F90630 		ldrsh	r3, [r1, #6]
 168:..\lvgl\lv_misc/lv_area.c ****             (a1_p->x2 >= a2_p->x1) &&
 413              		.loc 1 168 0
 414 0020 9A42     		cmp	r2, r3
 415 0022 0BDC     		bgt	.L24
 170:..\lvgl\lv_misc/lv_area.c ****             (a1_p->y2 >= a2_p->y1)) {
 416              		.loc 1 170 0
 417 0024 B0F90620 		ldrsh	r2, [r0, #6]
 418 0028 B1F90230 		ldrsh	r3, [r1, #2]
 169:..\lvgl\lv_misc/lv_area.c ****             (a1_p->y1 <= a2_p->y2) &&
 419              		.loc 1 169 0
 420 002c 9A42     		cmp	r2, r3
 421 002e 07DA     		bge	.L25
ARM GAS  C:\Users\d3bug\AppData\Local\Temp\cckjyPuZ.s 			page 13


 171:..\lvgl\lv_misc/lv_area.c ****         return true;
 172:..\lvgl\lv_misc/lv_area.c ****     } else {
 173:..\lvgl\lv_misc/lv_area.c ****         return false;
 422              		.loc 1 173 0
 423 0030 0020     		movs	r0, #0
 424              	.LVL38:
 425 0032 7047     		bx	lr
 426              	.LVL39:
 427              	.L22:
 428 0034 0020     		movs	r0, #0
 429              	.LVL40:
 430 0036 7047     		bx	lr
 431              	.LVL41:
 432              	.L23:
 433 0038 0020     		movs	r0, #0
 434              	.LVL42:
 435 003a 7047     		bx	lr
 436              	.LVL43:
 437              	.L24:
 438 003c 0020     		movs	r0, #0
 439              	.LVL44:
 440 003e 7047     		bx	lr
 441              	.LVL45:
 442              	.L25:
 171:..\lvgl\lv_misc/lv_area.c ****         return true;
 443              		.loc 1 171 0
 444 0040 0120     		movs	r0, #1
 445              	.LVL46:
 174:..\lvgl\lv_misc/lv_area.c ****     }
 175:..\lvgl\lv_misc/lv_area.c **** 
 176:..\lvgl\lv_misc/lv_area.c **** }
 446              		.loc 1 176 0
 447 0042 7047     		bx	lr
 448              		.cfi_endproc
 449              	.LFE11:
 450              		.size	lv_area_is_on, .-lv_area_is_on
 451              		.section	.text.lv_area_is_in,"ax",%progbits
 452              		.align	2
 453              		.global	lv_area_is_in
 454              		.thumb
 455              		.thumb_func
 456              		.type	lv_area_is_in, %function
 457              	lv_area_is_in:
 458              	.LFB12:
 177:..\lvgl\lv_misc/lv_area.c **** 
 178:..\lvgl\lv_misc/lv_area.c **** /**
 179:..\lvgl\lv_misc/lv_area.c ****  * Check if an area is fully on an other
 180:..\lvgl\lv_misc/lv_area.c ****  * @param ain_p pointer to an area which could be in 'aholder_p'
 181:..\lvgl\lv_misc/lv_area.c ****  * @param aholder pointer to an area which could involve 'ain_p'
 182:..\lvgl\lv_misc/lv_area.c ****  * @return
 183:..\lvgl\lv_misc/lv_area.c ****  */
 184:..\lvgl\lv_misc/lv_area.c **** bool lv_area_is_in(const lv_area_t * ain_p, const lv_area_t * aholder_p)
 185:..\lvgl\lv_misc/lv_area.c **** {
 459              		.loc 1 185 0
 460              		.cfi_startproc
 461              		@ args = 0, pretend = 0, frame = 0
 462              		@ frame_needed = 0, uses_anonymous_args = 0
ARM GAS  C:\Users\d3bug\AppData\Local\Temp\cckjyPuZ.s 			page 14


 463              		@ link register save eliminated.
 464              	.LVL47:
 186:..\lvgl\lv_misc/lv_area.c ****     bool is_in = false;
 187:..\lvgl\lv_misc/lv_area.c **** 
 188:..\lvgl\lv_misc/lv_area.c ****     if(ain_p->x1  >= aholder_p->x1 &&
 465              		.loc 1 188 0
 466 0000 B0F90020 		ldrsh	r2, [r0]
 467 0004 B1F90030 		ldrsh	r3, [r1]
 468 0008 9A42     		cmp	r2, r3
 469 000a 13DB     		blt	.L28
 189:..\lvgl\lv_misc/lv_area.c ****             ain_p->y1  >= aholder_p->y1 &&
 470              		.loc 1 189 0 discriminator 1
 471 000c B0F90220 		ldrsh	r2, [r0, #2]
 472 0010 B1F90230 		ldrsh	r3, [r1, #2]
 188:..\lvgl\lv_misc/lv_area.c ****             ain_p->y1  >= aholder_p->y1 &&
 473              		.loc 1 188 0 discriminator 1
 474 0014 9A42     		cmp	r2, r3
 475 0016 0FDB     		blt	.L29
 190:..\lvgl\lv_misc/lv_area.c ****             ain_p->x2  <= aholder_p->x2 &&
 476              		.loc 1 190 0
 477 0018 B0F90420 		ldrsh	r2, [r0, #4]
 478 001c B1F90430 		ldrsh	r3, [r1, #4]
 189:..\lvgl\lv_misc/lv_area.c ****             ain_p->y1  >= aholder_p->y1 &&
 479              		.loc 1 189 0
 480 0020 9A42     		cmp	r2, r3
 481 0022 0BDC     		bgt	.L30
 191:..\lvgl\lv_misc/lv_area.c ****             ain_p->y2  <= aholder_p->y2) {
 482              		.loc 1 191 0
 483 0024 B0F90620 		ldrsh	r2, [r0, #6]
 484 0028 B1F90630 		ldrsh	r3, [r1, #6]
 190:..\lvgl\lv_misc/lv_area.c ****             ain_p->x2  <= aholder_p->x2 &&
 485              		.loc 1 190 0
 486 002c 9A42     		cmp	r2, r3
 487 002e 07DD     		ble	.L31
 186:..\lvgl\lv_misc/lv_area.c **** 
 488              		.loc 1 186 0
 489 0030 0020     		movs	r0, #0
 490              	.LVL48:
 491 0032 7047     		bx	lr
 492              	.LVL49:
 493              	.L28:
 494 0034 0020     		movs	r0, #0
 495              	.LVL50:
 496 0036 7047     		bx	lr
 497              	.LVL51:
 498              	.L29:
 499 0038 0020     		movs	r0, #0
 500              	.LVL52:
 501 003a 7047     		bx	lr
 502              	.LVL53:
 503              	.L30:
 504 003c 0020     		movs	r0, #0
 505              	.LVL54:
 506 003e 7047     		bx	lr
 507              	.LVL55:
 508              	.L31:
 192:..\lvgl\lv_misc/lv_area.c ****         is_in = true;
ARM GAS  C:\Users\d3bug\AppData\Local\Temp\cckjyPuZ.s 			page 15


 509              		.loc 1 192 0
 510 0040 0120     		movs	r0, #1
 511              	.LVL56:
 193:..\lvgl\lv_misc/lv_area.c ****     }
 194:..\lvgl\lv_misc/lv_area.c **** 
 195:..\lvgl\lv_misc/lv_area.c ****     return is_in;
 196:..\lvgl\lv_misc/lv_area.c **** }
 512              		.loc 1 196 0
 513 0042 7047     		bx	lr
 514              		.cfi_endproc
 515              	.LFE12:
 516              		.size	lv_area_is_in, .-lv_area_is_in
 517              		.text
 518              	.Letext0:
 519              		.file 3 "c:\\program files (x86)\\cypress\\psoc creator\\4.2\\psoc creator\\import\\gnu\\arm\\5.4.
 520              		.file 4 "c:\\program files (x86)\\cypress\\psoc creator\\4.2\\psoc creator\\import\\gnu\\arm\\5.4.