ARM GAS  C:\Users\d3bug\AppData\Local\Temp\ccVxVFSv.s 			page 1


   1              		.syntax unified
   2              		.cpu cortex-m3
   3              		.fpu softvfp
   4              		.eabi_attribute 20, 1
   5              		.eabi_attribute 21, 1
   6              		.eabi_attribute 23, 3
   7              		.eabi_attribute 24, 1
   8              		.eabi_attribute 25, 1
   9              		.eabi_attribute 26, 1
  10              		.eabi_attribute 30, 1
  11              		.eabi_attribute 34, 1
  12              		.eabi_attribute 18, 4
  13              		.thumb
  14              		.syntax unified
  15              		.file	"lv_cont.c"
  16              		.text
  17              	.Ltext0:
  18              		.cfi_sections	.debug_frame
  19              		.section	.text.lv_cont_layout_center,"ax",%progbits
  20              		.align	2
  21              		.thumb
  22              		.thumb_func
  23              		.type	lv_cont_layout_center, %function
  24              	lv_cont_layout_center:
  25              	.LFB26:
  26              		.file 1 "..\\lvgl\\lv_objx\\lv_cont.c"
   1:..\lvgl\lv_objx/lv_cont.c **** /**
   2:..\lvgl\lv_objx/lv_cont.c ****  * @file lv_cont.c
   3:..\lvgl\lv_objx/lv_cont.c ****  *
   4:..\lvgl\lv_objx/lv_cont.c ****  */
   5:..\lvgl\lv_objx/lv_cont.c **** 
   6:..\lvgl\lv_objx/lv_cont.c **** /*********************
   7:..\lvgl\lv_objx/lv_cont.c ****  *      INCLUDES
   8:..\lvgl\lv_objx/lv_cont.c ****  *********************/
   9:..\lvgl\lv_objx/lv_cont.c **** 
  10:..\lvgl\lv_objx/lv_cont.c **** #include "lv_cont.h"
  11:..\lvgl\lv_objx/lv_cont.c **** #if USE_LV_CONT != 0
  12:..\lvgl\lv_objx/lv_cont.c **** 
  13:..\lvgl\lv_objx/lv_cont.c **** #include <stdbool.h>
  14:..\lvgl\lv_objx/lv_cont.c **** #include <stdint.h>
  15:..\lvgl\lv_objx/lv_cont.c **** #include <string.h>
  16:..\lvgl\lv_objx/lv_cont.c **** 
  17:..\lvgl\lv_objx/lv_cont.c **** #include "../lv_draw/lv_draw.h"
  18:..\lvgl\lv_objx/lv_cont.c **** #include "../lv_draw/lv_draw_vbasic.h"
  19:..\lvgl\lv_objx/lv_cont.c **** #include "../lv_themes/lv_theme.h"
  20:..\lvgl\lv_objx/lv_cont.c **** #include "../lv_misc/lv_area.h"
  21:..\lvgl\lv_objx/lv_cont.c **** #include "../lv_misc/lv_color.h"
  22:..\lvgl\lv_objx/lv_cont.c **** #include "../lv_misc/lv_math.h"
  23:..\lvgl\lv_objx/lv_cont.c **** 
  24:..\lvgl\lv_objx/lv_cont.c **** /*********************
  25:..\lvgl\lv_objx/lv_cont.c ****  *      DEFINES
  26:..\lvgl\lv_objx/lv_cont.c ****  *********************/
  27:..\lvgl\lv_objx/lv_cont.c **** 
  28:..\lvgl\lv_objx/lv_cont.c **** /**********************
  29:..\lvgl\lv_objx/lv_cont.c ****  *      TYPEDEFS
  30:..\lvgl\lv_objx/lv_cont.c ****  **********************/
  31:..\lvgl\lv_objx/lv_cont.c **** 
ARM GAS  C:\Users\d3bug\AppData\Local\Temp\ccVxVFSv.s 			page 2


  32:..\lvgl\lv_objx/lv_cont.c **** /**********************
  33:..\lvgl\lv_objx/lv_cont.c ****  *  STATIC PROTOTYPES
  34:..\lvgl\lv_objx/lv_cont.c ****  **********************/
  35:..\lvgl\lv_objx/lv_cont.c **** static lv_res_t lv_cont_signal(lv_obj_t * cont, lv_signal_t sign, void * param);
  36:..\lvgl\lv_objx/lv_cont.c **** static void lv_cont_refr_layout(lv_obj_t * cont);
  37:..\lvgl\lv_objx/lv_cont.c **** static void lv_cont_layout_col(lv_obj_t * cont);
  38:..\lvgl\lv_objx/lv_cont.c **** static void lv_cont_layout_row(lv_obj_t * cont);
  39:..\lvgl\lv_objx/lv_cont.c **** static void lv_cont_layout_center(lv_obj_t * cont);
  40:..\lvgl\lv_objx/lv_cont.c **** static void lv_cont_layout_pretty(lv_obj_t * cont);
  41:..\lvgl\lv_objx/lv_cont.c **** static void lv_cont_layout_grid(lv_obj_t * cont);
  42:..\lvgl\lv_objx/lv_cont.c **** static void lv_cont_refr_autofit(lv_obj_t * cont);
  43:..\lvgl\lv_objx/lv_cont.c **** 
  44:..\lvgl\lv_objx/lv_cont.c **** /**********************
  45:..\lvgl\lv_objx/lv_cont.c ****  *  STATIC VARIABLES
  46:..\lvgl\lv_objx/lv_cont.c ****  **********************/
  47:..\lvgl\lv_objx/lv_cont.c **** static lv_signal_func_t ancestor_signal;
  48:..\lvgl\lv_objx/lv_cont.c **** 
  49:..\lvgl\lv_objx/lv_cont.c **** /**********************
  50:..\lvgl\lv_objx/lv_cont.c ****  *      MACROS
  51:..\lvgl\lv_objx/lv_cont.c ****  **********************/
  52:..\lvgl\lv_objx/lv_cont.c **** 
  53:..\lvgl\lv_objx/lv_cont.c **** /**********************
  54:..\lvgl\lv_objx/lv_cont.c ****  *   GLOBAL FUNCTIONS
  55:..\lvgl\lv_objx/lv_cont.c ****  **********************/
  56:..\lvgl\lv_objx/lv_cont.c **** 
  57:..\lvgl\lv_objx/lv_cont.c **** /**
  58:..\lvgl\lv_objx/lv_cont.c ****  * Create a container objects
  59:..\lvgl\lv_objx/lv_cont.c ****  * @param par pointer to an object, it will be the parent of the new container
  60:..\lvgl\lv_objx/lv_cont.c ****  * @param copy pointer to a container object, if not NULL then the new object will be copied from i
  61:..\lvgl\lv_objx/lv_cont.c ****  * @return pointer to the created container
  62:..\lvgl\lv_objx/lv_cont.c ****  */
  63:..\lvgl\lv_objx/lv_cont.c **** lv_obj_t * lv_cont_create(lv_obj_t * par, const lv_obj_t * copy)
  64:..\lvgl\lv_objx/lv_cont.c **** {
  65:..\lvgl\lv_objx/lv_cont.c **** 
  66:..\lvgl\lv_objx/lv_cont.c **** 
  67:..\lvgl\lv_objx/lv_cont.c ****     LV_LOG_TRACE("container create started");
  68:..\lvgl\lv_objx/lv_cont.c **** 
  69:..\lvgl\lv_objx/lv_cont.c ****     /*Create a basic object*/
  70:..\lvgl\lv_objx/lv_cont.c ****     lv_obj_t * new_cont = lv_obj_create(par, copy);
  71:..\lvgl\lv_objx/lv_cont.c ****     lv_mem_assert(new_cont);
  72:..\lvgl\lv_objx/lv_cont.c ****     if(new_cont == NULL) return NULL;
  73:..\lvgl\lv_objx/lv_cont.c **** 
  74:..\lvgl\lv_objx/lv_cont.c ****     if(ancestor_signal == NULL) ancestor_signal = lv_obj_get_signal_func(new_cont);
  75:..\lvgl\lv_objx/lv_cont.c **** 
  76:..\lvgl\lv_objx/lv_cont.c ****     lv_obj_allocate_ext_attr(new_cont, sizeof(lv_cont_ext_t));
  77:..\lvgl\lv_objx/lv_cont.c ****     lv_cont_ext_t * ext = lv_obj_get_ext_attr(new_cont);
  78:..\lvgl\lv_objx/lv_cont.c ****     if(ext == NULL) return NULL;
  79:..\lvgl\lv_objx/lv_cont.c **** 
  80:..\lvgl\lv_objx/lv_cont.c ****     lv_mem_assert(ext);
  81:..\lvgl\lv_objx/lv_cont.c ****     ext->hor_fit = 0;
  82:..\lvgl\lv_objx/lv_cont.c ****     ext->ver_fit = 0;
  83:..\lvgl\lv_objx/lv_cont.c ****     ext->layout = LV_LAYOUT_OFF;
  84:..\lvgl\lv_objx/lv_cont.c **** 
  85:..\lvgl\lv_objx/lv_cont.c ****     lv_obj_set_signal_func(new_cont, lv_cont_signal);
  86:..\lvgl\lv_objx/lv_cont.c **** 
  87:..\lvgl\lv_objx/lv_cont.c ****     /*Init the new container*/
  88:..\lvgl\lv_objx/lv_cont.c ****     if(copy == NULL) {
ARM GAS  C:\Users\d3bug\AppData\Local\Temp\ccVxVFSv.s 			page 3


  89:..\lvgl\lv_objx/lv_cont.c ****         /*Set the default styles*/
  90:..\lvgl\lv_objx/lv_cont.c ****         lv_theme_t * th = lv_theme_get_current();
  91:..\lvgl\lv_objx/lv_cont.c ****         if(th) {
  92:..\lvgl\lv_objx/lv_cont.c ****             lv_cont_set_style(new_cont, th->cont);
  93:..\lvgl\lv_objx/lv_cont.c ****         } else {
  94:..\lvgl\lv_objx/lv_cont.c ****             lv_cont_set_style(new_cont, &lv_style_pretty);
  95:..\lvgl\lv_objx/lv_cont.c ****         }
  96:..\lvgl\lv_objx/lv_cont.c ****     }
  97:..\lvgl\lv_objx/lv_cont.c ****     /*Copy an existing object*/
  98:..\lvgl\lv_objx/lv_cont.c ****     else {
  99:..\lvgl\lv_objx/lv_cont.c ****         lv_cont_ext_t * copy_ext = lv_obj_get_ext_attr(copy);
 100:..\lvgl\lv_objx/lv_cont.c ****         ext->hor_fit = copy_ext->hor_fit;
 101:..\lvgl\lv_objx/lv_cont.c ****         ext->ver_fit = copy_ext->ver_fit;
 102:..\lvgl\lv_objx/lv_cont.c ****         ext->layout = copy_ext->layout;
 103:..\lvgl\lv_objx/lv_cont.c **** 
 104:..\lvgl\lv_objx/lv_cont.c ****         /*Refresh the style with new signal function*/
 105:..\lvgl\lv_objx/lv_cont.c ****         lv_obj_refresh_style(new_cont);
 106:..\lvgl\lv_objx/lv_cont.c ****     }
 107:..\lvgl\lv_objx/lv_cont.c **** 
 108:..\lvgl\lv_objx/lv_cont.c ****     LV_LOG_INFO("container created");
 109:..\lvgl\lv_objx/lv_cont.c **** 
 110:..\lvgl\lv_objx/lv_cont.c **** 
 111:..\lvgl\lv_objx/lv_cont.c ****     return new_cont;
 112:..\lvgl\lv_objx/lv_cont.c **** }
 113:..\lvgl\lv_objx/lv_cont.c **** 
 114:..\lvgl\lv_objx/lv_cont.c **** /*=====================
 115:..\lvgl\lv_objx/lv_cont.c ****  * Setter functions
 116:..\lvgl\lv_objx/lv_cont.c ****  *====================*/
 117:..\lvgl\lv_objx/lv_cont.c **** 
 118:..\lvgl\lv_objx/lv_cont.c **** /**
 119:..\lvgl\lv_objx/lv_cont.c ****  * Set a layout on a container
 120:..\lvgl\lv_objx/lv_cont.c ****  * @param cont pointer to a container object
 121:..\lvgl\lv_objx/lv_cont.c ****  * @param layout a layout from 'lv_cont_layout_t'
 122:..\lvgl\lv_objx/lv_cont.c ****  */
 123:..\lvgl\lv_objx/lv_cont.c **** void lv_cont_set_layout(lv_obj_t * cont, lv_layout_t layout)
 124:..\lvgl\lv_objx/lv_cont.c **** {
 125:..\lvgl\lv_objx/lv_cont.c ****     lv_cont_ext_t * ext = lv_obj_get_ext_attr(cont);
 126:..\lvgl\lv_objx/lv_cont.c ****     if(ext->layout == layout) return;
 127:..\lvgl\lv_objx/lv_cont.c **** 
 128:..\lvgl\lv_objx/lv_cont.c ****     ext->layout = layout;
 129:..\lvgl\lv_objx/lv_cont.c **** 
 130:..\lvgl\lv_objx/lv_cont.c ****     /*Send a signal to refresh the layout*/
 131:..\lvgl\lv_objx/lv_cont.c ****     cont->signal_func(cont, LV_SIGNAL_CHILD_CHG, NULL);
 132:..\lvgl\lv_objx/lv_cont.c **** }
 133:..\lvgl\lv_objx/lv_cont.c **** 
 134:..\lvgl\lv_objx/lv_cont.c **** 
 135:..\lvgl\lv_objx/lv_cont.c **** /**
 136:..\lvgl\lv_objx/lv_cont.c ****  * Enable the horizontal or vertical fit.
 137:..\lvgl\lv_objx/lv_cont.c ****  * The container size will be set to involve the children horizontally or vertically.
 138:..\lvgl\lv_objx/lv_cont.c ****  * @param cont pointer to a container object
 139:..\lvgl\lv_objx/lv_cont.c ****  * @param hor_en true: enable the horizontal fit
 140:..\lvgl\lv_objx/lv_cont.c ****  * @param ver_en true: enable the vertical fit
 141:..\lvgl\lv_objx/lv_cont.c ****  */
 142:..\lvgl\lv_objx/lv_cont.c **** void lv_cont_set_fit(lv_obj_t * cont, bool hor_en, bool ver_en)
 143:..\lvgl\lv_objx/lv_cont.c **** {
 144:..\lvgl\lv_objx/lv_cont.c ****     lv_obj_invalidate(cont);
 145:..\lvgl\lv_objx/lv_cont.c ****     lv_cont_ext_t * ext = lv_obj_get_ext_attr(cont);
ARM GAS  C:\Users\d3bug\AppData\Local\Temp\ccVxVFSv.s 			page 4


 146:..\lvgl\lv_objx/lv_cont.c ****     if(ext->hor_fit == hor_en && ext->ver_fit == ver_en) return;
 147:..\lvgl\lv_objx/lv_cont.c **** 
 148:..\lvgl\lv_objx/lv_cont.c ****     ext->hor_fit = hor_en == false ? 0 : 1;
 149:..\lvgl\lv_objx/lv_cont.c ****     ext->ver_fit = ver_en == false ? 0 : 1;
 150:..\lvgl\lv_objx/lv_cont.c **** 
 151:..\lvgl\lv_objx/lv_cont.c ****     /*Send a signal to refresh the layout*/
 152:..\lvgl\lv_objx/lv_cont.c ****     cont->signal_func(cont, LV_SIGNAL_CHILD_CHG, NULL);
 153:..\lvgl\lv_objx/lv_cont.c **** }
 154:..\lvgl\lv_objx/lv_cont.c **** 
 155:..\lvgl\lv_objx/lv_cont.c **** /*=====================
 156:..\lvgl\lv_objx/lv_cont.c ****  * Getter functions
 157:..\lvgl\lv_objx/lv_cont.c ****  *====================*/
 158:..\lvgl\lv_objx/lv_cont.c **** 
 159:..\lvgl\lv_objx/lv_cont.c **** /**
 160:..\lvgl\lv_objx/lv_cont.c ****  * Get the layout of a container
 161:..\lvgl\lv_objx/lv_cont.c ****  * @param cont pointer to container object
 162:..\lvgl\lv_objx/lv_cont.c ****  * @return the layout from 'lv_cont_layout_t'
 163:..\lvgl\lv_objx/lv_cont.c ****  */
 164:..\lvgl\lv_objx/lv_cont.c **** lv_layout_t lv_cont_get_layout(const lv_obj_t * cont)
 165:..\lvgl\lv_objx/lv_cont.c **** {
 166:..\lvgl\lv_objx/lv_cont.c ****     lv_cont_ext_t * ext = lv_obj_get_ext_attr(cont);
 167:..\lvgl\lv_objx/lv_cont.c ****     return ext->layout;
 168:..\lvgl\lv_objx/lv_cont.c **** }
 169:..\lvgl\lv_objx/lv_cont.c **** 
 170:..\lvgl\lv_objx/lv_cont.c **** /**
 171:..\lvgl\lv_objx/lv_cont.c ****  * Get horizontal fit enable attribute of a container
 172:..\lvgl\lv_objx/lv_cont.c ****  * @param cont pointer to a container object
 173:..\lvgl\lv_objx/lv_cont.c ****  * @return true: horizontal fit is enabled; false: disabled
 174:..\lvgl\lv_objx/lv_cont.c ****  */
 175:..\lvgl\lv_objx/lv_cont.c **** bool lv_cont_get_hor_fit(const lv_obj_t * cont)
 176:..\lvgl\lv_objx/lv_cont.c **** {
 177:..\lvgl\lv_objx/lv_cont.c ****     lv_cont_ext_t * ext = lv_obj_get_ext_attr(cont);
 178:..\lvgl\lv_objx/lv_cont.c ****     return ext->hor_fit == 0 ? false : true;
 179:..\lvgl\lv_objx/lv_cont.c **** }
 180:..\lvgl\lv_objx/lv_cont.c **** 
 181:..\lvgl\lv_objx/lv_cont.c **** /**
 182:..\lvgl\lv_objx/lv_cont.c ****  * Get vertical fit enable attribute of a container
 183:..\lvgl\lv_objx/lv_cont.c ****  * @param cont pointer to a container object
 184:..\lvgl\lv_objx/lv_cont.c ****  * @return true: vertical fit is enabled; false: disabled
 185:..\lvgl\lv_objx/lv_cont.c ****  */
 186:..\lvgl\lv_objx/lv_cont.c **** bool lv_cont_get_ver_fit(const lv_obj_t * cont)
 187:..\lvgl\lv_objx/lv_cont.c **** {
 188:..\lvgl\lv_objx/lv_cont.c ****     lv_cont_ext_t * ext = lv_obj_get_ext_attr(cont);
 189:..\lvgl\lv_objx/lv_cont.c ****     return ext->ver_fit == 0 ? false : true;
 190:..\lvgl\lv_objx/lv_cont.c **** }
 191:..\lvgl\lv_objx/lv_cont.c **** 
 192:..\lvgl\lv_objx/lv_cont.c **** /**
 193:..\lvgl\lv_objx/lv_cont.c ****  * Get that width reduced by the horizontal padding. Useful if a layout is used.
 194:..\lvgl\lv_objx/lv_cont.c ****  * @param cont pointer to a container object
 195:..\lvgl\lv_objx/lv_cont.c ****  * @return the width which still fits into the container
 196:..\lvgl\lv_objx/lv_cont.c ****  */
 197:..\lvgl\lv_objx/lv_cont.c **** lv_coord_t lv_cont_get_fit_width(lv_obj_t * cont)
 198:..\lvgl\lv_objx/lv_cont.c **** {
 199:..\lvgl\lv_objx/lv_cont.c ****     lv_style_t * style = lv_cont_get_style(cont);
 200:..\lvgl\lv_objx/lv_cont.c **** 
 201:..\lvgl\lv_objx/lv_cont.c ****     return lv_obj_get_width(cont) - 2 * style->body.padding.hor;
 202:..\lvgl\lv_objx/lv_cont.c **** }
ARM GAS  C:\Users\d3bug\AppData\Local\Temp\ccVxVFSv.s 			page 5


 203:..\lvgl\lv_objx/lv_cont.c **** 
 204:..\lvgl\lv_objx/lv_cont.c **** /**
 205:..\lvgl\lv_objx/lv_cont.c ****  * Get that height reduced by the vertical padding. Useful if a layout is used.
 206:..\lvgl\lv_objx/lv_cont.c ****  * @param cont pointer to a container object
 207:..\lvgl\lv_objx/lv_cont.c ****  * @return the height which still fits into the container
 208:..\lvgl\lv_objx/lv_cont.c ****  */
 209:..\lvgl\lv_objx/lv_cont.c **** lv_coord_t lv_cont_get_fit_height(lv_obj_t * cont)
 210:..\lvgl\lv_objx/lv_cont.c **** {
 211:..\lvgl\lv_objx/lv_cont.c ****     lv_style_t * style = lv_cont_get_style(cont);
 212:..\lvgl\lv_objx/lv_cont.c **** 
 213:..\lvgl\lv_objx/lv_cont.c ****     return lv_obj_get_width(cont) - 2 * style->body.padding.hor;
 214:..\lvgl\lv_objx/lv_cont.c **** }
 215:..\lvgl\lv_objx/lv_cont.c **** 
 216:..\lvgl\lv_objx/lv_cont.c **** /**********************
 217:..\lvgl\lv_objx/lv_cont.c ****  *   STATIC FUNCTIONS
 218:..\lvgl\lv_objx/lv_cont.c ****  **********************/
 219:..\lvgl\lv_objx/lv_cont.c **** 
 220:..\lvgl\lv_objx/lv_cont.c **** /**
 221:..\lvgl\lv_objx/lv_cont.c ****  * Signal function of the container
 222:..\lvgl\lv_objx/lv_cont.c ****  * @param cont pointer to a container object
 223:..\lvgl\lv_objx/lv_cont.c ****  * @param sign a signal type from lv_signal_t enum
 224:..\lvgl\lv_objx/lv_cont.c ****  * @param param pointer to a signal specific variable
 225:..\lvgl\lv_objx/lv_cont.c ****  * @return LV_RES_OK: the object is not deleted in the function; LV_RES_INV: the object is deleted
 226:..\lvgl\lv_objx/lv_cont.c ****  */
 227:..\lvgl\lv_objx/lv_cont.c **** static lv_res_t lv_cont_signal(lv_obj_t * cont, lv_signal_t sign, void * param)
 228:..\lvgl\lv_objx/lv_cont.c **** {
 229:..\lvgl\lv_objx/lv_cont.c ****     lv_res_t res;
 230:..\lvgl\lv_objx/lv_cont.c **** 
 231:..\lvgl\lv_objx/lv_cont.c ****     /* Include the ancient signal function */
 232:..\lvgl\lv_objx/lv_cont.c ****     res = ancestor_signal(cont, sign, param);
 233:..\lvgl\lv_objx/lv_cont.c ****     if(res != LV_RES_OK) return res;
 234:..\lvgl\lv_objx/lv_cont.c **** 
 235:..\lvgl\lv_objx/lv_cont.c ****     if(sign == LV_SIGNAL_STYLE_CHG) { /*Recalculate the padding if the style changed*/
 236:..\lvgl\lv_objx/lv_cont.c ****         lv_cont_refr_layout(cont);
 237:..\lvgl\lv_objx/lv_cont.c ****         lv_cont_refr_autofit(cont);
 238:..\lvgl\lv_objx/lv_cont.c ****     } else if(sign == LV_SIGNAL_CHILD_CHG) {
 239:..\lvgl\lv_objx/lv_cont.c ****         lv_cont_refr_layout(cont);
 240:..\lvgl\lv_objx/lv_cont.c ****         lv_cont_refr_autofit(cont);
 241:..\lvgl\lv_objx/lv_cont.c ****     } else if(sign == LV_SIGNAL_CORD_CHG) {
 242:..\lvgl\lv_objx/lv_cont.c ****         if(lv_obj_get_width(cont) != lv_area_get_width(param) ||
 243:..\lvgl\lv_objx/lv_cont.c ****                 lv_obj_get_height(cont) != lv_area_get_height(param)) {
 244:..\lvgl\lv_objx/lv_cont.c ****             lv_cont_refr_layout(cont);
 245:..\lvgl\lv_objx/lv_cont.c ****             lv_cont_refr_autofit(cont);
 246:..\lvgl\lv_objx/lv_cont.c ****         }
 247:..\lvgl\lv_objx/lv_cont.c ****     } else if(sign == LV_SIGNAL_GET_TYPE) {
 248:..\lvgl\lv_objx/lv_cont.c ****         lv_obj_type_t * buf = param;
 249:..\lvgl\lv_objx/lv_cont.c ****         uint8_t i;
 250:..\lvgl\lv_objx/lv_cont.c ****         for(i = 0; i < LV_MAX_ANCESTOR_NUM - 1; i++) {  /*Find the last set data*/
 251:..\lvgl\lv_objx/lv_cont.c ****             if(buf->type[i] == NULL) break;
 252:..\lvgl\lv_objx/lv_cont.c ****         }
 253:..\lvgl\lv_objx/lv_cont.c ****         buf->type[i] = "lv_cont";
 254:..\lvgl\lv_objx/lv_cont.c ****     }
 255:..\lvgl\lv_objx/lv_cont.c **** 
 256:..\lvgl\lv_objx/lv_cont.c ****     return res;
 257:..\lvgl\lv_objx/lv_cont.c **** }
 258:..\lvgl\lv_objx/lv_cont.c **** 
 259:..\lvgl\lv_objx/lv_cont.c **** 
ARM GAS  C:\Users\d3bug\AppData\Local\Temp\ccVxVFSv.s 			page 6


 260:..\lvgl\lv_objx/lv_cont.c **** /**
 261:..\lvgl\lv_objx/lv_cont.c ****  * Refresh the layout of a container
 262:..\lvgl\lv_objx/lv_cont.c ****  * @param cont pointer to an object which layout should be refreshed
 263:..\lvgl\lv_objx/lv_cont.c ****  */
 264:..\lvgl\lv_objx/lv_cont.c **** static void lv_cont_refr_layout(lv_obj_t * cont)
 265:..\lvgl\lv_objx/lv_cont.c **** {
 266:..\lvgl\lv_objx/lv_cont.c ****     lv_layout_t type = lv_cont_get_layout(cont);
 267:..\lvgl\lv_objx/lv_cont.c **** 
 268:..\lvgl\lv_objx/lv_cont.c ****     /*'cont' has to be at least 1 child*/
 269:..\lvgl\lv_objx/lv_cont.c ****     if(lv_obj_get_child(cont, NULL) == NULL) return;
 270:..\lvgl\lv_objx/lv_cont.c **** 
 271:..\lvgl\lv_objx/lv_cont.c ****     if(type == LV_LAYOUT_OFF) return;
 272:..\lvgl\lv_objx/lv_cont.c **** 
 273:..\lvgl\lv_objx/lv_cont.c ****     if(type == LV_LAYOUT_CENTER) {
 274:..\lvgl\lv_objx/lv_cont.c ****         lv_cont_layout_center(cont);
 275:..\lvgl\lv_objx/lv_cont.c ****     } else if(type == LV_LAYOUT_COL_L || type == LV_LAYOUT_COL_M || type == LV_LAYOUT_COL_R) {
 276:..\lvgl\lv_objx/lv_cont.c ****         lv_cont_layout_col(cont);
 277:..\lvgl\lv_objx/lv_cont.c ****     } else if(type == LV_LAYOUT_ROW_T || type == LV_LAYOUT_ROW_M || type == LV_LAYOUT_ROW_B) {
 278:..\lvgl\lv_objx/lv_cont.c ****         lv_cont_layout_row(cont);
 279:..\lvgl\lv_objx/lv_cont.c ****     } else if(type == LV_LAYOUT_PRETTY) {
 280:..\lvgl\lv_objx/lv_cont.c ****         lv_cont_layout_pretty(cont);
 281:..\lvgl\lv_objx/lv_cont.c ****     }  else if(type == LV_LAYOUT_GRID) {
 282:..\lvgl\lv_objx/lv_cont.c ****         lv_cont_layout_grid(cont);
 283:..\lvgl\lv_objx/lv_cont.c ****     }
 284:..\lvgl\lv_objx/lv_cont.c **** }
 285:..\lvgl\lv_objx/lv_cont.c **** 
 286:..\lvgl\lv_objx/lv_cont.c **** /**
 287:..\lvgl\lv_objx/lv_cont.c ****  * Handle column type layouts
 288:..\lvgl\lv_objx/lv_cont.c ****  * @param cont pointer to an object which layout should be handled
 289:..\lvgl\lv_objx/lv_cont.c ****  */
 290:..\lvgl\lv_objx/lv_cont.c **** static void lv_cont_layout_col(lv_obj_t * cont)
 291:..\lvgl\lv_objx/lv_cont.c **** {
 292:..\lvgl\lv_objx/lv_cont.c ****     lv_layout_t type = lv_cont_get_layout(cont);
 293:..\lvgl\lv_objx/lv_cont.c ****     lv_obj_t * child;
 294:..\lvgl\lv_objx/lv_cont.c **** 
 295:..\lvgl\lv_objx/lv_cont.c ****     /*Adjust margin and get the alignment type*/
 296:..\lvgl\lv_objx/lv_cont.c ****     lv_align_t align;
 297:..\lvgl\lv_objx/lv_cont.c ****     lv_style_t * style = lv_obj_get_style(cont);
 298:..\lvgl\lv_objx/lv_cont.c ****     lv_coord_t hpad_corr;
 299:..\lvgl\lv_objx/lv_cont.c **** 
 300:..\lvgl\lv_objx/lv_cont.c ****     switch(type) {
 301:..\lvgl\lv_objx/lv_cont.c ****         case LV_LAYOUT_COL_L:
 302:..\lvgl\lv_objx/lv_cont.c ****             hpad_corr = style->body.padding.hor;
 303:..\lvgl\lv_objx/lv_cont.c ****             align = LV_ALIGN_IN_TOP_LEFT;
 304:..\lvgl\lv_objx/lv_cont.c ****             break;
 305:..\lvgl\lv_objx/lv_cont.c ****         case LV_LAYOUT_COL_M:
 306:..\lvgl\lv_objx/lv_cont.c ****             hpad_corr = 0;
 307:..\lvgl\lv_objx/lv_cont.c ****             align = LV_ALIGN_IN_TOP_MID;
 308:..\lvgl\lv_objx/lv_cont.c ****             break;
 309:..\lvgl\lv_objx/lv_cont.c ****         case LV_LAYOUT_COL_R:
 310:..\lvgl\lv_objx/lv_cont.c ****             hpad_corr = -style->body.padding.hor;
 311:..\lvgl\lv_objx/lv_cont.c ****             align = LV_ALIGN_IN_TOP_RIGHT;
 312:..\lvgl\lv_objx/lv_cont.c ****             break;
 313:..\lvgl\lv_objx/lv_cont.c ****         default:
 314:..\lvgl\lv_objx/lv_cont.c ****             hpad_corr = 0;
 315:..\lvgl\lv_objx/lv_cont.c ****             align = LV_ALIGN_IN_TOP_LEFT;
 316:..\lvgl\lv_objx/lv_cont.c ****             break;
ARM GAS  C:\Users\d3bug\AppData\Local\Temp\ccVxVFSv.s 			page 7


 317:..\lvgl\lv_objx/lv_cont.c ****     }
 318:..\lvgl\lv_objx/lv_cont.c **** 
 319:..\lvgl\lv_objx/lv_cont.c ****     /* Disable child change action because the children will be moved a lot
 320:..\lvgl\lv_objx/lv_cont.c ****      * an unnecessary child change signals could be sent*/
 321:..\lvgl\lv_objx/lv_cont.c ****     lv_obj_set_protect(cont, LV_PROTECT_CHILD_CHG);
 322:..\lvgl\lv_objx/lv_cont.c ****     /* Align the children */
 323:..\lvgl\lv_objx/lv_cont.c ****     lv_coord_t last_cord = style->body.padding.ver;
 324:..\lvgl\lv_objx/lv_cont.c ****     LL_READ_BACK(cont->child_ll, child) {
 325:..\lvgl\lv_objx/lv_cont.c ****         if(lv_obj_get_hidden(child) != false ||
 326:..\lvgl\lv_objx/lv_cont.c ****                 lv_obj_is_protected(child, LV_PROTECT_POS) != false) continue;
 327:..\lvgl\lv_objx/lv_cont.c **** 
 328:..\lvgl\lv_objx/lv_cont.c ****         lv_obj_align(child, cont, align, hpad_corr, last_cord);
 329:..\lvgl\lv_objx/lv_cont.c ****         last_cord += lv_obj_get_height(child) + style->body.padding.inner;
 330:..\lvgl\lv_objx/lv_cont.c ****     }
 331:..\lvgl\lv_objx/lv_cont.c **** 
 332:..\lvgl\lv_objx/lv_cont.c ****     lv_obj_clear_protect(cont, LV_PROTECT_CHILD_CHG);
 333:..\lvgl\lv_objx/lv_cont.c **** }
 334:..\lvgl\lv_objx/lv_cont.c **** 
 335:..\lvgl\lv_objx/lv_cont.c **** /**
 336:..\lvgl\lv_objx/lv_cont.c ****  * Handle row type layouts
 337:..\lvgl\lv_objx/lv_cont.c ****  * @param cont pointer to an object which layout should be handled
 338:..\lvgl\lv_objx/lv_cont.c ****  */
 339:..\lvgl\lv_objx/lv_cont.c **** static void lv_cont_layout_row(lv_obj_t * cont)
 340:..\lvgl\lv_objx/lv_cont.c **** {
 341:..\lvgl\lv_objx/lv_cont.c ****     lv_layout_t type = lv_cont_get_layout(cont);
 342:..\lvgl\lv_objx/lv_cont.c ****     lv_obj_t * child;
 343:..\lvgl\lv_objx/lv_cont.c **** 
 344:..\lvgl\lv_objx/lv_cont.c ****     /*Adjust margin and get the alignment type*/
 345:..\lvgl\lv_objx/lv_cont.c ****     lv_align_t align;
 346:..\lvgl\lv_objx/lv_cont.c ****     lv_style_t * style = lv_obj_get_style(cont);
 347:..\lvgl\lv_objx/lv_cont.c ****     lv_coord_t vpad_corr = style->body.padding.ver;
 348:..\lvgl\lv_objx/lv_cont.c **** 
 349:..\lvgl\lv_objx/lv_cont.c ****     switch(type) {
 350:..\lvgl\lv_objx/lv_cont.c ****         case LV_LAYOUT_ROW_T:
 351:..\lvgl\lv_objx/lv_cont.c ****             vpad_corr = style->body.padding.ver;
 352:..\lvgl\lv_objx/lv_cont.c ****             align = LV_ALIGN_IN_TOP_LEFT;
 353:..\lvgl\lv_objx/lv_cont.c ****             break;
 354:..\lvgl\lv_objx/lv_cont.c ****         case LV_LAYOUT_ROW_M:
 355:..\lvgl\lv_objx/lv_cont.c ****             vpad_corr = 0;
 356:..\lvgl\lv_objx/lv_cont.c ****             align = LV_ALIGN_IN_LEFT_MID;
 357:..\lvgl\lv_objx/lv_cont.c ****             break;
 358:..\lvgl\lv_objx/lv_cont.c ****         case LV_LAYOUT_ROW_B:
 359:..\lvgl\lv_objx/lv_cont.c ****             vpad_corr = -style->body.padding.ver;
 360:..\lvgl\lv_objx/lv_cont.c ****             align = LV_ALIGN_IN_BOTTOM_LEFT;
 361:..\lvgl\lv_objx/lv_cont.c ****             break;
 362:..\lvgl\lv_objx/lv_cont.c ****         default:
 363:..\lvgl\lv_objx/lv_cont.c ****             vpad_corr = 0;
 364:..\lvgl\lv_objx/lv_cont.c ****             align = LV_ALIGN_IN_TOP_LEFT;
 365:..\lvgl\lv_objx/lv_cont.c ****             break;
 366:..\lvgl\lv_objx/lv_cont.c ****     }
 367:..\lvgl\lv_objx/lv_cont.c **** 
 368:..\lvgl\lv_objx/lv_cont.c ****     /* Disable child change action because the children will be moved a lot
 369:..\lvgl\lv_objx/lv_cont.c ****      * an unnecessary child change signals could be sent*/
 370:..\lvgl\lv_objx/lv_cont.c ****     lv_obj_set_protect(cont, LV_PROTECT_CHILD_CHG);
 371:..\lvgl\lv_objx/lv_cont.c **** 
 372:..\lvgl\lv_objx/lv_cont.c ****     /* Align the children */
 373:..\lvgl\lv_objx/lv_cont.c ****     lv_coord_t last_cord = style->body.padding.hor;
ARM GAS  C:\Users\d3bug\AppData\Local\Temp\ccVxVFSv.s 			page 8


 374:..\lvgl\lv_objx/lv_cont.c ****     LL_READ_BACK(cont->child_ll, child) {
 375:..\lvgl\lv_objx/lv_cont.c ****         if(lv_obj_get_hidden(child) != false ||
 376:..\lvgl\lv_objx/lv_cont.c ****                 lv_obj_is_protected(child, LV_PROTECT_POS) != false) continue;
 377:..\lvgl\lv_objx/lv_cont.c **** 
 378:..\lvgl\lv_objx/lv_cont.c ****         lv_obj_align(child, cont, align, last_cord, vpad_corr);
 379:..\lvgl\lv_objx/lv_cont.c ****         last_cord += lv_obj_get_width(child) + style->body.padding.inner;
 380:..\lvgl\lv_objx/lv_cont.c ****     }
 381:..\lvgl\lv_objx/lv_cont.c **** 
 382:..\lvgl\lv_objx/lv_cont.c ****     lv_obj_clear_protect(cont, LV_PROTECT_CHILD_CHG);
 383:..\lvgl\lv_objx/lv_cont.c **** }
 384:..\lvgl\lv_objx/lv_cont.c **** 
 385:..\lvgl\lv_objx/lv_cont.c **** /**
 386:..\lvgl\lv_objx/lv_cont.c ****  * Handle the center layout
 387:..\lvgl\lv_objx/lv_cont.c ****  * @param cont pointer to an object which layout should be handled
 388:..\lvgl\lv_objx/lv_cont.c ****  */
 389:..\lvgl\lv_objx/lv_cont.c **** static void lv_cont_layout_center(lv_obj_t * cont)
 390:..\lvgl\lv_objx/lv_cont.c **** {
  27              		.loc 1 390 0
  28              		.cfi_startproc
  29              		@ args = 0, pretend = 0, frame = 0
  30              		@ frame_needed = 0, uses_anonymous_args = 0
  31              	.LVL0:
  32 0000 2DE9F043 		push	{r4, r5, r6, r7, r8, r9, lr}
  33              		.cfi_def_cfa_offset 28
  34              		.cfi_offset 4, -28
  35              		.cfi_offset 5, -24
  36              		.cfi_offset 6, -20
  37              		.cfi_offset 7, -16
  38              		.cfi_offset 8, -12
  39              		.cfi_offset 9, -8
  40              		.cfi_offset 14, -4
  41 0004 83B0     		sub	sp, sp, #12
  42              		.cfi_def_cfa_offset 40
  43 0006 0746     		mov	r7, r0
 391:..\lvgl\lv_objx/lv_cont.c ****     lv_obj_t * child;
 392:..\lvgl\lv_objx/lv_cont.c ****     lv_style_t * style = lv_obj_get_style(cont);
  44              		.loc 1 392 0
  45 0008 FFF7FEFF 		bl	lv_obj_get_style
  46              	.LVL1:
  47 000c 8046     		mov	r8, r0
  48              	.LVL2:
 393:..\lvgl\lv_objx/lv_cont.c ****     uint32_t obj_num = 0;
 394:..\lvgl\lv_objx/lv_cont.c ****     lv_coord_t h_tot = 0;
 395:..\lvgl\lv_objx/lv_cont.c **** 
 396:..\lvgl\lv_objx/lv_cont.c ****     LL_READ(cont->child_ll, child) {
  49              		.loc 1 396 0
  50 000e 3D1D     		adds	r5, r7, #4
  51 0010 2846     		mov	r0, r5
  52              	.LVL3:
  53 0012 FFF7FEFF 		bl	lv_ll_get_head
  54              	.LVL4:
  55 0016 0446     		mov	r4, r0
  56              	.LVL5:
 394:..\lvgl\lv_objx/lv_cont.c **** 
  57              		.loc 1 394 0
  58 0018 0026     		movs	r6, #0
 393:..\lvgl\lv_objx/lv_cont.c ****     uint32_t obj_num = 0;
ARM GAS  C:\Users\d3bug\AppData\Local\Temp\ccVxVFSv.s 			page 9


  59              		.loc 1 393 0
  60 001a B146     		mov	r9, r6
  61              		.loc 1 396 0
  62 001c 17E0     		b	.L2
  63              	.LVL6:
  64              	.L6:
 397:..\lvgl\lv_objx/lv_cont.c ****         if(lv_obj_get_hidden(child) != false ||
  65              		.loc 1 397 0
  66 001e 2046     		mov	r0, r4
  67              	.LVL7:
  68 0020 FFF7FEFF 		bl	lv_obj_get_hidden
  69              	.LVL8:
  70 0024 70B9     		cbnz	r0, .L5
 398:..\lvgl\lv_objx/lv_cont.c ****                 lv_obj_is_protected(child, LV_PROTECT_POS) != false) continue;
  71              		.loc 1 398 0 discriminator 1
  72 0026 0421     		movs	r1, #4
  73 0028 2046     		mov	r0, r4
  74 002a FFF7FEFF 		bl	lv_obj_is_protected
  75              	.LVL9:
 397:..\lvgl\lv_objx/lv_cont.c ****         if(lv_obj_get_hidden(child) != false ||
  76              		.loc 1 397 0 discriminator 1
  77 002e 48B9     		cbnz	r0, .L5
 399:..\lvgl\lv_objx/lv_cont.c ****         h_tot += lv_obj_get_height(child) + style->body.padding.inner;
  78              		.loc 1 399 0
  79 0030 2046     		mov	r0, r4
  80 0032 FFF7FEFF 		bl	lv_obj_get_height
  81              	.LVL10:
  82 0036 B8F91830 		ldrsh	r3, [r8, #24]
  83 003a 1844     		add	r0, r0, r3
  84 003c 0644     		add	r6, r6, r0
  85              	.LVL11:
  86 003e 36B2     		sxth	r6, r6
  87              	.LVL12:
 400:..\lvgl\lv_objx/lv_cont.c ****         obj_num ++;
  88              		.loc 1 400 0
  89 0040 09F10109 		add	r9, r9, #1
  90              	.LVL13:
  91              	.L5:
 396:..\lvgl\lv_objx/lv_cont.c ****         if(lv_obj_get_hidden(child) != false ||
  92              		.loc 1 396 0 discriminator 2
  93 0044 2146     		mov	r1, r4
  94 0046 2846     		mov	r0, r5
  95 0048 FFF7FEFF 		bl	lv_ll_get_next
  96              	.LVL14:
  97 004c 0446     		mov	r4, r0
  98              	.LVL15:
  99              	.L2:
 396:..\lvgl\lv_objx/lv_cont.c ****         if(lv_obj_get_hidden(child) != false ||
 100              		.loc 1 396 0 is_stmt 0 discriminator 1
 101 004e 002C     		cmp	r4, #0
 102 0050 E5D1     		bne	.L6
 401:..\lvgl\lv_objx/lv_cont.c ****     }
 402:..\lvgl\lv_objx/lv_cont.c **** 
 403:..\lvgl\lv_objx/lv_cont.c ****     if(obj_num == 0) return;
 103              		.loc 1 403 0 is_stmt 1
 104 0052 B9F1000F 		cmp	r9, #0
 105 0056 3DD0     		beq	.L1
ARM GAS  C:\Users\d3bug\AppData\Local\Temp\ccVxVFSv.s 			page 10


 404:..\lvgl\lv_objx/lv_cont.c **** 
 405:..\lvgl\lv_objx/lv_cont.c ****     h_tot -= style->body.padding.inner;
 106              		.loc 1 405 0
 107 0058 B8F91830 		ldrsh	r3, [r8, #24]
 108 005c F61A     		subs	r6, r6, r3
 109              	.LVL16:
 110 005e 36B2     		sxth	r6, r6
 111              	.LVL17:
 406:..\lvgl\lv_objx/lv_cont.c **** 
 407:..\lvgl\lv_objx/lv_cont.c ****     /* Disable child change action because the children will be moved a lot
 408:..\lvgl\lv_objx/lv_cont.c ****      * an unnecessary child change signals could be sent*/
 409:..\lvgl\lv_objx/lv_cont.c ****     lv_obj_set_protect(cont, LV_PROTECT_CHILD_CHG);
 112              		.loc 1 409 0
 113 0060 0121     		movs	r1, #1
 114 0062 3846     		mov	r0, r7
 115              	.LVL18:
 116 0064 FFF7FEFF 		bl	lv_obj_set_protect
 117              	.LVL19:
 410:..\lvgl\lv_objx/lv_cont.c **** 
 411:..\lvgl\lv_objx/lv_cont.c ****     /* Align the children */
 412:..\lvgl\lv_objx/lv_cont.c ****     lv_coord_t last_cord = - (h_tot / 2);
 118              		.loc 1 412 0
 119 0068 06EBD676 		add	r6, r6, r6, lsr #31
 120              	.LVL20:
 121 006c 7610     		asrs	r6, r6, #1
 122 006e 7642     		negs	r6, r6
 123 0070 36B2     		sxth	r6, r6
 124              	.LVL21:
 413:..\lvgl\lv_objx/lv_cont.c ****     LL_READ_BACK(cont->child_ll, child) {
 125              		.loc 1 413 0
 126 0072 2846     		mov	r0, r5
 127 0074 FFF7FEFF 		bl	lv_ll_get_tail
 128              	.LVL22:
 129 0078 0446     		mov	r4, r0
 130              	.LVL23:
 131 007a 25E0     		b	.L8
 132              	.L12:
 414:..\lvgl\lv_objx/lv_cont.c ****         if(lv_obj_get_hidden(child) != false ||
 133              		.loc 1 414 0
 134 007c 2046     		mov	r0, r4
 135              	.LVL24:
 136 007e FFF7FEFF 		bl	lv_obj_get_hidden
 137              	.LVL25:
 138 0082 E0B9     		cbnz	r0, .L11
 415:..\lvgl\lv_objx/lv_cont.c ****                 lv_obj_is_protected(child, LV_PROTECT_POS) != false) continue;
 139              		.loc 1 415 0 discriminator 1
 140 0084 0421     		movs	r1, #4
 141 0086 2046     		mov	r0, r4
 142 0088 FFF7FEFF 		bl	lv_obj_is_protected
 143              	.LVL26:
 414:..\lvgl\lv_objx/lv_cont.c ****         if(lv_obj_get_hidden(child) != false ||
 144              		.loc 1 414 0 discriminator 1
 145 008c B8B9     		cbnz	r0, .L11
 416:..\lvgl\lv_objx/lv_cont.c **** 
 417:..\lvgl\lv_objx/lv_cont.c ****         lv_obj_align(child, cont, LV_ALIGN_CENTER, 0, last_cord + lv_obj_get_height(child) / 2);
 146              		.loc 1 417 0
 147 008e 2046     		mov	r0, r4
ARM GAS  C:\Users\d3bug\AppData\Local\Temp\ccVxVFSv.s 			page 11


 148 0090 FFF7FEFF 		bl	lv_obj_get_height
 149              	.LVL27:
 150 0094 B6B2     		uxth	r6, r6
 151 0096 00EBD070 		add	r0, r0, r0, lsr #31
 152 009a 06EB6003 		add	r3, r6, r0, asr #1
 153 009e 1BB2     		sxth	r3, r3
 154 00a0 0093     		str	r3, [sp]
 155 00a2 0023     		movs	r3, #0
 156 00a4 1A46     		mov	r2, r3
 157 00a6 3946     		mov	r1, r7
 158 00a8 2046     		mov	r0, r4
 159 00aa FFF7FEFF 		bl	lv_obj_align
 160              	.LVL28:
 418:..\lvgl\lv_objx/lv_cont.c ****         last_cord += lv_obj_get_height(child) + style->body.padding.inner;
 161              		.loc 1 418 0
 162 00ae 2046     		mov	r0, r4
 163 00b0 FFF7FEFF 		bl	lv_obj_get_height
 164              	.LVL29:
 165 00b4 B8F91830 		ldrsh	r3, [r8, #24]
 166 00b8 1844     		add	r0, r0, r3
 167 00ba 0644     		add	r6, r6, r0
 168              	.LVL30:
 169 00bc 36B2     		sxth	r6, r6
 170              	.LVL31:
 171              	.L11:
 413:..\lvgl\lv_objx/lv_cont.c ****         if(lv_obj_get_hidden(child) != false ||
 172              		.loc 1 413 0 discriminator 2
 173 00be 2146     		mov	r1, r4
 174 00c0 2846     		mov	r0, r5
 175 00c2 FFF7FEFF 		bl	lv_ll_get_prev
 176              	.LVL32:
 177 00c6 0446     		mov	r4, r0
 178              	.LVL33:
 179              	.L8:
 413:..\lvgl\lv_objx/lv_cont.c ****         if(lv_obj_get_hidden(child) != false ||
 180              		.loc 1 413 0 is_stmt 0 discriminator 1
 181 00c8 002C     		cmp	r4, #0
 182 00ca D7D1     		bne	.L12
 419:..\lvgl\lv_objx/lv_cont.c ****     }
 420:..\lvgl\lv_objx/lv_cont.c **** 
 421:..\lvgl\lv_objx/lv_cont.c ****     lv_obj_clear_protect(cont, LV_PROTECT_CHILD_CHG);
 183              		.loc 1 421 0 is_stmt 1
 184 00cc 0121     		movs	r1, #1
 185 00ce 3846     		mov	r0, r7
 186              	.LVL34:
 187 00d0 FFF7FEFF 		bl	lv_obj_clear_protect
 188              	.LVL35:
 189              	.L1:
 422:..\lvgl\lv_objx/lv_cont.c **** }
 190              		.loc 1 422 0
 191 00d4 03B0     		add	sp, sp, #12
 192              		.cfi_def_cfa_offset 28
 193              		@ sp needed
 194 00d6 BDE8F083 		pop	{r4, r5, r6, r7, r8, r9, pc}
 195              		.cfi_endproc
 196              	.LFE26:
 197              		.size	lv_cont_layout_center, .-lv_cont_layout_center
ARM GAS  C:\Users\d3bug\AppData\Local\Temp\ccVxVFSv.s 			page 12


 198 00da 00BF     		.section	.text.lv_cont_layout_pretty,"ax",%progbits
 199              		.align	2
 200              		.thumb
 201              		.thumb_func
 202              		.type	lv_cont_layout_pretty, %function
 203              	lv_cont_layout_pretty:
 204              	.LFB27:
 423:..\lvgl\lv_objx/lv_cont.c **** 
 424:..\lvgl\lv_objx/lv_cont.c **** /**
 425:..\lvgl\lv_objx/lv_cont.c ****  * Handle the pretty layout. Put as many object as possible in row
 426:..\lvgl\lv_objx/lv_cont.c ****  * then begin a new row
 427:..\lvgl\lv_objx/lv_cont.c ****  * @param cont pointer to an object which layout should be handled
 428:..\lvgl\lv_objx/lv_cont.c ****  */
 429:..\lvgl\lv_objx/lv_cont.c **** static void lv_cont_layout_pretty(lv_obj_t * cont)
 430:..\lvgl\lv_objx/lv_cont.c **** {
 205              		.loc 1 430 0
 206              		.cfi_startproc
 207              		@ args = 0, pretend = 0, frame = 16
 208              		@ frame_needed = 0, uses_anonymous_args = 0
 209              	.LVL36:
 210 0000 2DE9F04F 		push	{r4, r5, r6, r7, r8, r9, r10, fp, lr}
 211              		.cfi_def_cfa_offset 36
 212              		.cfi_offset 4, -36
 213              		.cfi_offset 5, -32
 214              		.cfi_offset 6, -28
 215              		.cfi_offset 7, -24
 216              		.cfi_offset 8, -20
 217              		.cfi_offset 9, -16
 218              		.cfi_offset 10, -12
 219              		.cfi_offset 11, -8
 220              		.cfi_offset 14, -4
 221 0004 87B0     		sub	sp, sp, #28
 222              		.cfi_def_cfa_offset 64
 223 0006 0446     		mov	r4, r0
 224 0008 0390     		str	r0, [sp, #12]
 431:..\lvgl\lv_objx/lv_cont.c ****     lv_obj_t * child_rs;    /* Row starter child */
 432:..\lvgl\lv_objx/lv_cont.c ****     lv_obj_t * child_rc;    /* Row closer child */
 433:..\lvgl\lv_objx/lv_cont.c ****     lv_obj_t * child_tmp;   /* Temporary child */
 434:..\lvgl\lv_objx/lv_cont.c ****     lv_style_t * style = lv_obj_get_style(cont);
 225              		.loc 1 434 0
 226 000a FFF7FEFF 		bl	lv_obj_get_style
 227              	.LVL37:
 228 000e 8246     		mov	r10, r0
 229              	.LVL38:
 435:..\lvgl\lv_objx/lv_cont.c ****     lv_coord_t w_obj = lv_obj_get_width(cont);
 230              		.loc 1 435 0
 231 0010 2046     		mov	r0, r4
 232              	.LVL39:
 233 0012 FFF7FEFF 		bl	lv_obj_get_width
 234              	.LVL40:
 235 0016 8346     		mov	fp, r0
 236              	.LVL41:
 436:..\lvgl\lv_objx/lv_cont.c ****     lv_coord_t act_y = style->body.padding.ver;
 237              		.loc 1 436 0
 238 0018 BAF91420 		ldrsh	r2, [r10, #20]
 239 001c 0292     		str	r2, [sp, #8]
 240              	.LVL42:
ARM GAS  C:\Users\d3bug\AppData\Local\Temp\ccVxVFSv.s 			page 13


 437:..\lvgl\lv_objx/lv_cont.c ****     /* Disable child change action because the children will be moved a lot
 438:..\lvgl\lv_objx/lv_cont.c ****      * an unnecessary child change signals could be sent*/
 439:..\lvgl\lv_objx/lv_cont.c **** 
 440:..\lvgl\lv_objx/lv_cont.c ****     child_rs = lv_ll_get_tail(&cont->child_ll); /*Set the row starter child*/
 241              		.loc 1 440 0
 242 001e 04F10408 		add	r8, r4, #4
 243 0022 4046     		mov	r0, r8
 244 0024 FFF7FEFF 		bl	lv_ll_get_tail
 245              	.LVL43:
 441:..\lvgl\lv_objx/lv_cont.c ****     if(child_rs == NULL) return;    /*Return if no child*/
 246              		.loc 1 441 0
 247 0028 0028     		cmp	r0, #0
 248 002a 00F0EE80 		beq	.L14
 249 002e 0746     		mov	r7, r0
 442:..\lvgl\lv_objx/lv_cont.c **** 
 443:..\lvgl\lv_objx/lv_cont.c ****     lv_obj_set_protect(cont, LV_PROTECT_CHILD_CHG);
 250              		.loc 1 443 0
 251 0030 0121     		movs	r1, #1
 252 0032 2046     		mov	r0, r4
 253              	.LVL44:
 254 0034 FFF7FEFF 		bl	lv_obj_set_protect
 255              	.LVL45:
 444:..\lvgl\lv_objx/lv_cont.c **** 
 445:..\lvgl\lv_objx/lv_cont.c ****     child_rc = child_rs; /*Initially the the row starter and closer is the same*/
 446:..\lvgl\lv_objx/lv_cont.c ****     while(child_rs != NULL) {
 256              		.loc 1 446 0
 257 0038 E0E0     		b	.L16
 258              	.LVL46:
 259              	.L31:
 260              	.LBB20:
 447:..\lvgl\lv_objx/lv_cont.c ****         lv_coord_t h_row = 0;
 448:..\lvgl\lv_objx/lv_cont.c ****         lv_coord_t w_row = style->body.padding.hor * 2; /*The width is at least the left+right hpad
 261              		.loc 1 448 0
 262 003a BAF91660 		ldrsh	r6, [r10, #22]
 263 003e 7600     		lsls	r6, r6, #1
 264 0040 36B2     		sxth	r6, r6
 265              	.LVL47:
 266 0042 3C46     		mov	r4, r7
 449:..\lvgl\lv_objx/lv_cont.c ****         uint32_t obj_num = 0;
 267              		.loc 1 449 0
 268 0044 0025     		movs	r5, #0
 447:..\lvgl\lv_objx/lv_cont.c ****         lv_coord_t h_row = 0;
 269              		.loc 1 447 0
 270 0046 A946     		mov	r9, r5
 271              	.LVL48:
 272              	.L22:
 450:..\lvgl\lv_objx/lv_cont.c **** 
 451:..\lvgl\lv_objx/lv_cont.c ****         /*Find the row closer object and collect some data*/
 452:..\lvgl\lv_objx/lv_cont.c ****         do {
 453:..\lvgl\lv_objx/lv_cont.c ****             if(lv_obj_get_hidden(child_rc) == false &&
 273              		.loc 1 453 0
 274 0048 2046     		mov	r0, r4
 275 004a FFF7FEFF 		bl	lv_obj_get_hidden
 276              	.LVL49:
 277 004e 48BB     		cbnz	r0, .L17
 454:..\lvgl\lv_objx/lv_cont.c ****                     lv_obj_is_protected(child_rc, LV_PROTECT_POS) == false) {
 278              		.loc 1 454 0 discriminator 1
ARM GAS  C:\Users\d3bug\AppData\Local\Temp\ccVxVFSv.s 			page 14


 279 0050 0421     		movs	r1, #4
 280 0052 2046     		mov	r0, r4
 281 0054 FFF7FEFF 		bl	lv_obj_is_protected
 282              	.LVL50:
 453:..\lvgl\lv_objx/lv_cont.c ****                     lv_obj_is_protected(child_rc, LV_PROTECT_POS) == false) {
 283              		.loc 1 453 0 discriminator 1
 284 0058 20BB     		cbnz	r0, .L17
 455:..\lvgl\lv_objx/lv_cont.c ****                 /*If this object is already not fit then break*/
 456:..\lvgl\lv_objx/lv_cont.c ****                 if(w_row + lv_obj_get_width(child_rc) > w_obj) {
 285              		.loc 1 456 0
 286 005a 2046     		mov	r0, r4
 287 005c FFF7FEFF 		bl	lv_obj_get_width
 288              	.LVL51:
 289 0060 3044     		add	r0, r0, r6
 290 0062 5845     		cmp	r0, fp
 291 0064 07DD     		ble	.L18
 457:..\lvgl\lv_objx/lv_cont.c ****                     /*Step back one child because the last already not fit, so the previous is the 
 458:..\lvgl\lv_objx/lv_cont.c ****                     if(child_rc != NULL  && obj_num != 0) {
 292              		.loc 1 458 0
 293 0066 34B3     		cbz	r4, .L19
 294              		.loc 1 458 0 is_stmt 0 discriminator 1
 295 0068 2DB3     		cbz	r5, .L19
 459:..\lvgl\lv_objx/lv_cont.c ****                         child_rc = lv_ll_get_next(&cont->child_ll, child_rc);
 296              		.loc 1 459 0 is_stmt 1
 297 006a 2146     		mov	r1, r4
 298 006c 4046     		mov	r0, r8
 299 006e FFF7FEFF 		bl	lv_ll_get_next
 300              	.LVL52:
 301 0072 0446     		mov	r4, r0
 302              	.LVL53:
 303 0074 1FE0     		b	.L19
 304              	.LVL54:
 305              	.L18:
 460:..\lvgl\lv_objx/lv_cont.c ****                     }
 461:..\lvgl\lv_objx/lv_cont.c ****                     break;
 462:..\lvgl\lv_objx/lv_cont.c ****                 }
 463:..\lvgl\lv_objx/lv_cont.c ****                 w_row += lv_obj_get_width(child_rc) + style->body.padding.inner; /*Add the object w
 306              		.loc 1 463 0
 307 0076 2046     		mov	r0, r4
 308 0078 FFF7FEFF 		bl	lv_obj_get_width
 309              	.LVL55:
 310 007c BAF91830 		ldrsh	r3, [r10, #24]
 311 0080 1844     		add	r0, r0, r3
 312 0082 0644     		add	r6, r6, r0
 313              	.LVL56:
 314 0084 36B2     		sxth	r6, r6
 315              	.LVL57:
 464:..\lvgl\lv_objx/lv_cont.c ****                 h_row = LV_MATH_MAX(h_row, lv_obj_get_height(child_rc)); /*Search the highest objec
 316              		.loc 1 464 0
 317 0086 2046     		mov	r0, r4
 318 0088 FFF7FEFF 		bl	lv_obj_get_height
 319              	.LVL58:
 320 008c 8145     		cmp	r9, r0
 321 008e 03DC     		bgt	.L20
 322              		.loc 1 464 0 is_stmt 0 discriminator 1
 323 0090 2046     		mov	r0, r4
 324 0092 FFF7FEFF 		bl	lv_obj_get_height
ARM GAS  C:\Users\d3bug\AppData\Local\Temp\ccVxVFSv.s 			page 15


 325              	.LVL59:
 326 0096 8146     		mov	r9, r0
 327              	.LVL60:
 328              	.L20:
 465:..\lvgl\lv_objx/lv_cont.c ****                 obj_num ++;
 329              		.loc 1 465 0 is_stmt 1 discriminator 4
 330 0098 0135     		adds	r5, r5, #1
 331              	.LVL61:
 466:..\lvgl\lv_objx/lv_cont.c ****                 if(lv_obj_is_protected(child_rc, LV_PROTECT_FOLLOW)) break; /*If can not be followe
 332              		.loc 1 466 0 discriminator 4
 333 009a 0821     		movs	r1, #8
 334 009c 2046     		mov	r0, r4
 335 009e FFF7FEFF 		bl	lv_obj_is_protected
 336              	.LVL62:
 337 00a2 40B9     		cbnz	r0, .L19
 338              	.L17:
 467:..\lvgl\lv_objx/lv_cont.c **** 
 468:..\lvgl\lv_objx/lv_cont.c ****             }
 469:..\lvgl\lv_objx/lv_cont.c ****             child_rc = lv_ll_get_prev(&cont->child_ll, child_rc); /*Load the next object*/
 339              		.loc 1 469 0
 340 00a4 2146     		mov	r1, r4
 341 00a6 4046     		mov	r0, r8
 342 00a8 FFF7FEFF 		bl	lv_ll_get_prev
 343              	.LVL63:
 344 00ac 0446     		mov	r4, r0
 345              	.LVL64:
 470:..\lvgl\lv_objx/lv_cont.c ****             if(obj_num == 0) child_rs = child_rc; /*If the first object was hidden (or too long) th
 346              		.loc 1 470 0
 347 00ae 05B9     		cbnz	r5, .L21
 348 00b0 0746     		mov	r7, r0
 349              	.LVL65:
 350              	.L21:
 471:..\lvgl\lv_objx/lv_cont.c ****         } while(child_rc != NULL);
 351              		.loc 1 471 0
 352 00b2 002C     		cmp	r4, #0
 353 00b4 C8D1     		bne	.L22
 354              	.LVL66:
 355              	.L19:
 472:..\lvgl\lv_objx/lv_cont.c **** 
 473:..\lvgl\lv_objx/lv_cont.c ****         /*If the object is too long  then align it to the middle*/
 474:..\lvgl\lv_objx/lv_cont.c ****         if(obj_num == 0) {
 356              		.loc 1 474 0
 357 00b6 7DB9     		cbnz	r5, .L23
 475:..\lvgl\lv_objx/lv_cont.c ****             if(child_rc != NULL) {
 358              		.loc 1 475 0
 359 00b8 002C     		cmp	r4, #0
 360 00ba 00F09180 		beq	.L24
 476:..\lvgl\lv_objx/lv_cont.c ****                 lv_obj_align(child_rc, cont, LV_ALIGN_IN_TOP_MID, 0, act_y);
 361              		.loc 1 476 0
 362 00be 029B     		ldr	r3, [sp, #8]
 363 00c0 0093     		str	r3, [sp]
 364 00c2 0023     		movs	r3, #0
 365 00c4 0222     		movs	r2, #2
 366 00c6 0399     		ldr	r1, [sp, #12]
 367 00c8 2046     		mov	r0, r4
 368 00ca FFF7FEFF 		bl	lv_obj_align
 369              	.LVL67:
ARM GAS  C:\Users\d3bug\AppData\Local\Temp\ccVxVFSv.s 			page 16


 477:..\lvgl\lv_objx/lv_cont.c ****                 h_row = lv_obj_get_height(child_rc);    /*Not set previously because of the early b
 370              		.loc 1 477 0
 371 00ce 2046     		mov	r0, r4
 372 00d0 FFF7FEFF 		bl	lv_obj_get_height
 373              	.LVL68:
 374 00d4 8146     		mov	r9, r0
 375              	.LVL69:
 376 00d6 83E0     		b	.L24
 377              	.L23:
 478:..\lvgl\lv_objx/lv_cont.c ****             }
 479:..\lvgl\lv_objx/lv_cont.c ****         }
 480:..\lvgl\lv_objx/lv_cont.c ****         /*If there is only one object in the row then align it to the middle*/
 481:..\lvgl\lv_objx/lv_cont.c ****         else if(obj_num == 1) {
 378              		.loc 1 481 0
 379 00d8 012D     		cmp	r5, #1
 380 00da 08D1     		bne	.L25
 482:..\lvgl\lv_objx/lv_cont.c ****             lv_obj_align(child_rs, cont, LV_ALIGN_IN_TOP_MID, 0, act_y);
 381              		.loc 1 482 0
 382 00dc 029B     		ldr	r3, [sp, #8]
 383 00de 0093     		str	r3, [sp]
 384 00e0 0023     		movs	r3, #0
 385 00e2 0222     		movs	r2, #2
 386 00e4 0399     		ldr	r1, [sp, #12]
 387 00e6 3846     		mov	r0, r7
 388 00e8 FFF7FEFF 		bl	lv_obj_align
 389              	.LVL70:
 390 00ec 78E0     		b	.L24
 391              	.L25:
 483:..\lvgl\lv_objx/lv_cont.c ****         }
 484:..\lvgl\lv_objx/lv_cont.c ****         /*If there are two object in the row then align them proportionally*/
 485:..\lvgl\lv_objx/lv_cont.c ****         else if(obj_num == 2) {
 392              		.loc 1 485 0
 393 00ee 022D     		cmp	r5, #2
 394 00f0 3ED1     		bne	.L26
 395              	.LVL71:
 396              	.LBB21:
 486:..\lvgl\lv_objx/lv_cont.c ****             lv_obj_t * obj1 = child_rs;
 487:..\lvgl\lv_objx/lv_cont.c ****             lv_obj_t * obj2 = lv_ll_get_prev(&cont->child_ll, child_rs);
 397              		.loc 1 487 0
 398 00f2 3946     		mov	r1, r7
 399 00f4 4046     		mov	r0, r8
 400 00f6 FFF7FEFF 		bl	lv_ll_get_prev
 401              	.LVL72:
 402 00fa 0646     		mov	r6, r0
 403              	.LVL73:
 488:..\lvgl\lv_objx/lv_cont.c ****             w_row = lv_obj_get_width(obj1) + lv_obj_get_width(obj2);
 404              		.loc 1 488 0
 405 00fc 3846     		mov	r0, r7
 406              	.LVL74:
 407 00fe FFF7FEFF 		bl	lv_obj_get_width
 408              	.LVL75:
 409 0102 0546     		mov	r5, r0
 410              	.LVL76:
 411 0104 0496     		str	r6, [sp, #16]
 412 0106 3046     		mov	r0, r6
 413 0108 FFF7FEFF 		bl	lv_obj_get_width
 414              	.LVL77:
ARM GAS  C:\Users\d3bug\AppData\Local\Temp\ccVxVFSv.s 			page 17


 415 010c 2844     		add	r0, r0, r5
 416 010e 03B2     		sxth	r3, r0
 417              	.LVL78:
 489:..\lvgl\lv_objx/lv_cont.c ****             lv_coord_t pad = (w_obj - w_row) / 3;
 418              		.loc 1 489 0
 419 0110 C3EB0B03 		rsb	r3, r3, fp
 420              	.LVL79:
 421 0114 3E4A     		ldr	r2, .L36
 422 0116 82FB0312 		smull	r1, r2, r2, r3
 423 011a A2EBE376 		sub	r6, r2, r3, asr #31
 424              	.LVL80:
 425 011e 33B2     		sxth	r3, r6
 426 0120 0593     		str	r3, [sp, #20]
 427              	.LVL81:
 490:..\lvgl\lv_objx/lv_cont.c ****             lv_obj_align(obj1, cont, LV_ALIGN_IN_TOP_LEFT, pad, act_y + (h_row - lv_obj_get_height(
 428              		.loc 1 490 0
 429 0122 3846     		mov	r0, r7
 430              	.LVL82:
 431 0124 FFF7FEFF 		bl	lv_obj_get_height
 432              	.LVL83:
 433 0128 C0EB0900 		rsb	r0, r0, r9
 434 012c 00EBD070 		add	r0, r0, r0, lsr #31
 435 0130 BDF80850 		ldrh	r5, [sp, #8]
 436 0134 05EB6003 		add	r3, r5, r0, asr #1
 437 0138 1BB2     		sxth	r3, r3
 438 013a 0093     		str	r3, [sp]
 439 013c 059B     		ldr	r3, [sp, #20]
 440 013e 0122     		movs	r2, #1
 441 0140 0399     		ldr	r1, [sp, #12]
 442 0142 3846     		mov	r0, r7
 443 0144 FFF7FEFF 		bl	lv_obj_align
 444              	.LVL84:
 491:..\lvgl\lv_objx/lv_cont.c ****             lv_obj_align(obj2, cont, LV_ALIGN_IN_TOP_RIGHT, -pad, act_y + (h_row - lv_obj_get_heigh
 445              		.loc 1 491 0
 446 0148 049F     		ldr	r7, [sp, #16]
 447              	.LVL85:
 448 014a 3846     		mov	r0, r7
 449 014c FFF7FEFF 		bl	lv_obj_get_height
 450              	.LVL86:
 451 0150 C0EB0900 		rsb	r0, r0, r9
 452 0154 00EBD072 		add	r2, r0, r0, lsr #31
 453 0158 7342     		negs	r3, r6
 454 015a 05EB6202 		add	r2, r5, r2, asr #1
 455 015e 12B2     		sxth	r2, r2
 456 0160 0092     		str	r2, [sp]
 457 0162 1BB2     		sxth	r3, r3
 458 0164 0322     		movs	r2, #3
 459 0166 0399     		ldr	r1, [sp, #12]
 460 0168 3846     		mov	r0, r7
 461 016a FFF7FEFF 		bl	lv_obj_align
 462              	.LVL87:
 463              	.LBE21:
 464 016e 37E0     		b	.L24
 465              	.LVL88:
 466              	.L26:
 467              	.LBB22:
 492:..\lvgl\lv_objx/lv_cont.c ****         }
ARM GAS  C:\Users\d3bug\AppData\Local\Temp\ccVxVFSv.s 			page 18


 493:..\lvgl\lv_objx/lv_cont.c ****         /* Align the children (from child_rs to child_rc)*/
 494:..\lvgl\lv_objx/lv_cont.c ****         else {
 495:..\lvgl\lv_objx/lv_cont.c ****             w_row -= style->body.padding.inner * obj_num;
 468              		.loc 1 495 0
 469 0170 BAF91830 		ldrsh	r3, [r10, #24]
 470 0174 03FB1566 		mls	r6, r3, r5, r6
 471              	.LVL89:
 472 0178 36B2     		sxth	r6, r6
 473              	.LVL90:
 496:..\lvgl\lv_objx/lv_cont.c ****             lv_coord_t new_opad = (w_obj -  w_row) / (obj_num  - 1);
 474              		.loc 1 496 0
 475 017a C6EB0B06 		rsb	r6, r6, fp
 476              	.LVL91:
 477 017e 013D     		subs	r5, r5, #1
 478              	.LVL92:
 479 0180 B6FBF5F5 		udiv	r5, r6, r5
 480              	.LVL93:
 481 0184 2EB2     		sxth	r6, r5
 482              	.LVL94:
 497:..\lvgl\lv_objx/lv_cont.c ****             lv_coord_t act_x = style->body.padding.hor; /*x init*/
 483              		.loc 1 497 0
 484 0186 BAF91650 		ldrsh	r5, [r10, #22]
 485              	.LVL95:
 498:..\lvgl\lv_objx/lv_cont.c ****             child_tmp = child_rs;
 499:..\lvgl\lv_objx/lv_cont.c ****             while(child_tmp != NULL) {
 486              		.loc 1 499 0
 487 018a 27E0     		b	.L27
 488              	.LVL96:
 489              	.L29:
 500:..\lvgl\lv_objx/lv_cont.c ****                 if(lv_obj_get_hidden(child_tmp) == false &&
 490              		.loc 1 500 0
 491 018c 3846     		mov	r0, r7
 492 018e FFF7FEFF 		bl	lv_obj_get_hidden
 493              	.LVL97:
 494 0192 E0B9     		cbnz	r0, .L28
 501:..\lvgl\lv_objx/lv_cont.c ****                         lv_obj_is_protected(child_tmp, LV_PROTECT_POS) == false) {
 495              		.loc 1 501 0 discriminator 1
 496 0194 0421     		movs	r1, #4
 497 0196 3846     		mov	r0, r7
 498 0198 FFF7FEFF 		bl	lv_obj_is_protected
 499              	.LVL98:
 500:..\lvgl\lv_objx/lv_cont.c ****                 if(lv_obj_get_hidden(child_tmp) == false &&
 500              		.loc 1 500 0 discriminator 1
 501 019c B8B9     		cbnz	r0, .L28
 502:..\lvgl\lv_objx/lv_cont.c ****                     lv_obj_align(child_tmp, cont, LV_ALIGN_IN_TOP_LEFT, act_x, act_y + (h_row - lv_
 502              		.loc 1 502 0
 503 019e 3846     		mov	r0, r7
 504 01a0 FFF7FEFF 		bl	lv_obj_get_height
 505              	.LVL99:
 506 01a4 C0EB0900 		rsb	r0, r0, r9
 507 01a8 00EBD070 		add	r0, r0, r0, lsr #31
 508 01ac 029B     		ldr	r3, [sp, #8]
 509 01ae 03EB6003 		add	r3, r3, r0, asr #1
 510 01b2 1BB2     		sxth	r3, r3
 511 01b4 0093     		str	r3, [sp]
 512 01b6 2B46     		mov	r3, r5
 513 01b8 0122     		movs	r2, #1
ARM GAS  C:\Users\d3bug\AppData\Local\Temp\ccVxVFSv.s 			page 19


 514 01ba 0399     		ldr	r1, [sp, #12]
 515 01bc 3846     		mov	r0, r7
 516 01be FFF7FEFF 		bl	lv_obj_align
 517              	.LVL100:
 503:..\lvgl\lv_objx/lv_cont.c ****                     act_x += lv_obj_get_width(child_tmp) + new_opad;
 518              		.loc 1 503 0
 519 01c2 3846     		mov	r0, r7
 520 01c4 FFF7FEFF 		bl	lv_obj_get_width
 521              	.LVL101:
 522 01c8 3044     		add	r0, r0, r6
 523 01ca 0544     		add	r5, r5, r0
 524              	.LVL102:
 525 01cc 2DB2     		sxth	r5, r5
 526              	.LVL103:
 527              	.L28:
 504:..\lvgl\lv_objx/lv_cont.c ****                 }
 505:..\lvgl\lv_objx/lv_cont.c ****                 if(child_tmp == child_rc) break;
 528              		.loc 1 505 0
 529 01ce BC42     		cmp	r4, r7
 530 01d0 06D0     		beq	.L24
 506:..\lvgl\lv_objx/lv_cont.c ****                 child_tmp = lv_ll_get_prev(&cont->child_ll, child_tmp);
 531              		.loc 1 506 0
 532 01d2 3946     		mov	r1, r7
 533 01d4 4046     		mov	r0, r8
 534 01d6 FFF7FEFF 		bl	lv_ll_get_prev
 535              	.LVL104:
 536 01da 0746     		mov	r7, r0
 537              	.LVL105:
 538              	.L27:
 499:..\lvgl\lv_objx/lv_cont.c ****                 if(lv_obj_get_hidden(child_tmp) == false &&
 539              		.loc 1 499 0
 540 01dc 002F     		cmp	r7, #0
 541 01de D5D1     		bne	.L29
 542              	.LVL106:
 543              	.L24:
 544              	.LBE22:
 507:..\lvgl\lv_objx/lv_cont.c ****             }
 508:..\lvgl\lv_objx/lv_cont.c **** 
 509:..\lvgl\lv_objx/lv_cont.c ****         }
 510:..\lvgl\lv_objx/lv_cont.c **** 
 511:..\lvgl\lv_objx/lv_cont.c ****         if(child_rc == NULL) break;
 545              		.loc 1 511 0
 546 01e0 7CB1     		cbz	r4, .L30
 512:..\lvgl\lv_objx/lv_cont.c ****         act_y += style->body.padding.inner + h_row; /*y increment*/
 547              		.loc 1 512 0
 548 01e2 BAF91830 		ldrsh	r3, [r10, #24]
 549 01e6 9944     		add	r9, r9, r3
 550              	.LVL107:
 551 01e8 029B     		ldr	r3, [sp, #8]
 552 01ea 9944     		add	r9, r9, r3
 553 01ec 0FFA89F3 		sxth	r3, r9
 554 01f0 0293     		str	r3, [sp, #8]
 555              	.LVL108:
 513:..\lvgl\lv_objx/lv_cont.c ****         child_rs = lv_ll_get_prev(&cont->child_ll, child_rc); /*Go to the next object*/
 556              		.loc 1 513 0
 557 01f2 2146     		mov	r1, r4
 558 01f4 4046     		mov	r0, r8
ARM GAS  C:\Users\d3bug\AppData\Local\Temp\ccVxVFSv.s 			page 20


 559 01f6 FFF7FEFF 		bl	lv_ll_get_prev
 560              	.LVL109:
 561 01fa 0746     		mov	r7, r0
 562              	.LVL110:
 563              	.L16:
 564              	.LBE20:
 446:..\lvgl\lv_objx/lv_cont.c ****         lv_coord_t h_row = 0;
 565              		.loc 1 446 0
 566 01fc 002F     		cmp	r7, #0
 567 01fe 7FF41CAF 		bne	.L31
 568              	.LVL111:
 569              	.L30:
 514:..\lvgl\lv_objx/lv_cont.c ****         child_rc = child_rs;
 515:..\lvgl\lv_objx/lv_cont.c ****     }
 516:..\lvgl\lv_objx/lv_cont.c ****     lv_obj_clear_protect(cont, LV_PROTECT_CHILD_CHG);
 570              		.loc 1 516 0
 571 0202 0121     		movs	r1, #1
 572 0204 0398     		ldr	r0, [sp, #12]
 573 0206 FFF7FEFF 		bl	lv_obj_clear_protect
 574              	.LVL112:
 575              	.L14:
 517:..\lvgl\lv_objx/lv_cont.c **** }
 576              		.loc 1 517 0
 577 020a 07B0     		add	sp, sp, #28
 578              		.cfi_def_cfa_offset 36
 579              		@ sp needed
 580 020c BDE8F08F 		pop	{r4, r5, r6, r7, r8, r9, r10, fp, pc}
 581              	.LVL113:
 582              	.L37:
 583              		.align	2
 584              	.L36:
 585 0210 56555555 		.word	1431655766
 586              		.cfi_endproc
 587              	.LFE27:
 588              		.size	lv_cont_layout_pretty, .-lv_cont_layout_pretty
 589              		.section	.text.lv_cont_layout_grid,"ax",%progbits
 590              		.align	2
 591              		.thumb
 592              		.thumb_func
 593              		.type	lv_cont_layout_grid, %function
 594              	lv_cont_layout_grid:
 595              	.LFB28:
 518:..\lvgl\lv_objx/lv_cont.c **** 
 519:..\lvgl\lv_objx/lv_cont.c **** /**
 520:..\lvgl\lv_objx/lv_cont.c ****  * Handle the grid layout. Align same-sized objects in a grid
 521:..\lvgl\lv_objx/lv_cont.c ****  * @param cont pointer to an object which layout should be handled
 522:..\lvgl\lv_objx/lv_cont.c ****  */
 523:..\lvgl\lv_objx/lv_cont.c **** static void lv_cont_layout_grid(lv_obj_t * cont)
 524:..\lvgl\lv_objx/lv_cont.c **** {
 596              		.loc 1 524 0
 597              		.cfi_startproc
 598              		@ args = 0, pretend = 0, frame = 8
 599              		@ frame_needed = 0, uses_anonymous_args = 0
 600              	.LVL114:
 601 0000 2DE9F04F 		push	{r4, r5, r6, r7, r8, r9, r10, fp, lr}
 602              		.cfi_def_cfa_offset 36
 603              		.cfi_offset 4, -36
ARM GAS  C:\Users\d3bug\AppData\Local\Temp\ccVxVFSv.s 			page 21


 604              		.cfi_offset 5, -32
 605              		.cfi_offset 6, -28
 606              		.cfi_offset 7, -24
 607              		.cfi_offset 8, -20
 608              		.cfi_offset 9, -16
 609              		.cfi_offset 10, -12
 610              		.cfi_offset 11, -8
 611              		.cfi_offset 14, -4
 612 0004 83B0     		sub	sp, sp, #12
 613              		.cfi_def_cfa_offset 48
 614 0006 0646     		mov	r6, r0
 615 0008 0090     		str	r0, [sp]
 525:..\lvgl\lv_objx/lv_cont.c ****     lv_obj_t * child;
 526:..\lvgl\lv_objx/lv_cont.c ****     lv_style_t * style = lv_obj_get_style(cont);
 616              		.loc 1 526 0
 617 000a FFF7FEFF 		bl	lv_obj_get_style
 618              	.LVL115:
 619 000e 8146     		mov	r9, r0
 620              	.LVL116:
 527:..\lvgl\lv_objx/lv_cont.c ****     lv_coord_t w_tot = lv_obj_get_width(cont);
 621              		.loc 1 527 0
 622 0010 3046     		mov	r0, r6
 623              	.LVL117:
 624 0012 FFF7FEFF 		bl	lv_obj_get_width
 625              	.LVL118:
 626 0016 0546     		mov	r5, r0
 627              	.LVL119:
 528:..\lvgl\lv_objx/lv_cont.c ****     lv_coord_t w_obj = lv_obj_get_width(lv_obj_get_child(cont, NULL));
 628              		.loc 1 528 0
 629 0018 0021     		movs	r1, #0
 630 001a 3046     		mov	r0, r6
 631 001c FFF7FEFF 		bl	lv_obj_get_child
 632              	.LVL120:
 633 0020 FFF7FEFF 		bl	lv_obj_get_width
 634              	.LVL121:
 635 0024 0446     		mov	r4, r0
 636              	.LVL122:
 529:..\lvgl\lv_objx/lv_cont.c ****     lv_coord_t h_obj = lv_obj_get_height(lv_obj_get_child(cont, NULL));
 637              		.loc 1 529 0
 638 0026 0021     		movs	r1, #0
 639 0028 3046     		mov	r0, r6
 640 002a FFF7FEFF 		bl	lv_obj_get_child
 641              	.LVL123:
 642 002e FFF7FEFF 		bl	lv_obj_get_height
 643              	.LVL124:
 530:..\lvgl\lv_objx/lv_cont.c ****     uint16_t obj_row = (w_tot - (2 * style->body.padding.hor)) / (w_obj + style->body.padding.inner
 644              		.loc 1 530 0
 645 0032 B9F91630 		ldrsh	r3, [r9, #22]
 646 0036 A5EB4303 		sub	r3, r5, r3, lsl #1
 647 003a B9F91810 		ldrsh	r1, [r9, #24]
 648 003e 0A19     		adds	r2, r1, r4
 649 0040 93FBF2F2 		sdiv	r2, r3, r2
 650 0044 1FFA82FB 		uxth	fp, r2
 651              	.LVL125:
 531:..\lvgl\lv_objx/lv_cont.c ****     lv_coord_t x_ofs;
 532:..\lvgl\lv_objx/lv_cont.c ****     if(obj_row > 1) {
 652              		.loc 1 532 0
ARM GAS  C:\Users\d3bug\AppData\Local\Temp\ccVxVFSv.s 			page 22


 653 0048 BBF1010F 		cmp	fp, #1
 654 004c 09D9     		bls	.L39
 533:..\lvgl\lv_objx/lv_cont.c ****         x_ofs = w_obj + (w_tot - (2 * style->body.padding.hor) - (obj_row * w_obj)) / (obj_row - 1)
 655              		.loc 1 533 0
 656 004e 0BFB1433 		mls	r3, fp, r4, r3
 657 0052 0BF1FF32 		add	r2, fp, #-1
 658 0056 93FBF2F3 		sdiv	r3, r3, r2
 659 005a 2344     		add	r3, r3, r4
 660 005c 0FFA83F8 		sxth	r8, r3
 661              	.LVL126:
 662 0060 08E0     		b	.L40
 663              	.LVL127:
 664              	.L39:
 534:..\lvgl\lv_objx/lv_cont.c ****     } else {
 535:..\lvgl\lv_objx/lv_cont.c ****         x_ofs = w_tot / 2 - w_obj / 2;
 665              		.loc 1 535 0
 666 0062 05EBD575 		add	r5, r5, r5, lsr #31
 667              	.LVL128:
 668 0066 04EBD473 		add	r3, r4, r4, lsr #31
 669 006a 5B10     		asrs	r3, r3, #1
 670 006c C3EB6505 		rsb	r5, r3, r5, asr #1
 671 0070 0FFA85F8 		sxth	r8, r5
 672              	.LVL129:
 673              	.L40:
 536:..\lvgl\lv_objx/lv_cont.c ****     }
 537:..\lvgl\lv_objx/lv_cont.c ****     lv_coord_t y_ofs = h_obj + style->body.padding.inner;
 674              		.loc 1 537 0
 675 0074 0844     		add	r0, r0, r1
 676              	.LVL130:
 677 0076 83B2     		uxth	r3, r0
 678 0078 0193     		str	r3, [sp, #4]
 679              	.LVL131:
 538:..\lvgl\lv_objx/lv_cont.c **** 
 539:..\lvgl\lv_objx/lv_cont.c ****     /* Disable child change action because the children will be moved a lot
 540:..\lvgl\lv_objx/lv_cont.c ****      * an unnecessary child change signals could be sent*/
 541:..\lvgl\lv_objx/lv_cont.c ****     lv_obj_set_protect(cont, LV_PROTECT_CHILD_CHG);
 680              		.loc 1 541 0
 681 007a 0121     		movs	r1, #1
 682 007c 009C     		ldr	r4, [sp]
 683              	.LVL132:
 684 007e 2046     		mov	r0, r4
 685 0080 FFF7FEFF 		bl	lv_obj_set_protect
 686              	.LVL133:
 542:..\lvgl\lv_objx/lv_cont.c **** 
 543:..\lvgl\lv_objx/lv_cont.c ****     /* Align the children */
 544:..\lvgl\lv_objx/lv_cont.c ****     lv_coord_t act_x = style->body.padding.hor;
 687              		.loc 1 544 0
 688 0084 B9F91670 		ldrsh	r7, [r9, #22]
 689              	.LVL134:
 545:..\lvgl\lv_objx/lv_cont.c ****     lv_coord_t act_y = style->body.padding.ver;
 690              		.loc 1 545 0
 691 0088 B9F914A0 		ldrsh	r10, [r9, #20]
 692              	.LVL135:
 546:..\lvgl\lv_objx/lv_cont.c ****     uint16_t obj_cnt = 0;
 547:..\lvgl\lv_objx/lv_cont.c ****     LL_READ_BACK(cont->child_ll, child) {
 693              		.loc 1 547 0
 694 008c 251D     		adds	r5, r4, #4
ARM GAS  C:\Users\d3bug\AppData\Local\Temp\ccVxVFSv.s 			page 23


 695 008e 2846     		mov	r0, r5
 696 0090 FFF7FEFF 		bl	lv_ll_get_tail
 697              	.LVL136:
 698 0094 0446     		mov	r4, r0
 699              	.LVL137:
 546:..\lvgl\lv_objx/lv_cont.c ****     uint16_t obj_cnt = 0;
 700              		.loc 1 546 0
 701 0096 0026     		movs	r6, #0
 702              	.LVL138:
 703              		.loc 1 547 0
 704 0098 28E0     		b	.L41
 705              	.LVL139:
 706              	.L47:
 548:..\lvgl\lv_objx/lv_cont.c ****         if(lv_obj_get_hidden(child) != false ||
 707              		.loc 1 548 0
 708 009a 2046     		mov	r0, r4
 709              	.LVL140:
 710 009c FFF7FEFF 		bl	lv_obj_get_hidden
 711              	.LVL141:
 712 00a0 F8B9     		cbnz	r0, .L44
 549:..\lvgl\lv_objx/lv_cont.c ****                 lv_obj_is_protected(child, LV_PROTECT_POS) != false) continue;
 713              		.loc 1 549 0 discriminator 1
 714 00a2 0421     		movs	r1, #4
 715 00a4 2046     		mov	r0, r4
 716 00a6 FFF7FEFF 		bl	lv_obj_is_protected
 717              	.LVL142:
 548:..\lvgl\lv_objx/lv_cont.c ****         if(lv_obj_get_hidden(child) != false ||
 718              		.loc 1 548 0 discriminator 1
 719 00aa D0B9     		cbnz	r0, .L44
 550:..\lvgl\lv_objx/lv_cont.c **** 
 551:..\lvgl\lv_objx/lv_cont.c ****         if(obj_row > 1) {
 720              		.loc 1 551 0
 721 00ac BBF1010F 		cmp	fp, #1
 722 00b0 07D9     		bls	.L45
 552:..\lvgl\lv_objx/lv_cont.c ****             lv_obj_set_pos(child, act_x, act_y);
 723              		.loc 1 552 0
 724 00b2 5246     		mov	r2, r10
 725 00b4 3946     		mov	r1, r7
 726 00b6 2046     		mov	r0, r4
 727 00b8 FFF7FEFF 		bl	lv_obj_set_pos
 728              	.LVL143:
 553:..\lvgl\lv_objx/lv_cont.c ****             act_x += x_ofs;
 729              		.loc 1 553 0
 730 00bc 4744     		add	r7, r7, r8
 731              	.LVL144:
 732 00be 3FB2     		sxth	r7, r7
 733              	.LVL145:
 734 00c0 04E0     		b	.L46
 735              	.L45:
 554:..\lvgl\lv_objx/lv_cont.c ****         } else {
 555:..\lvgl\lv_objx/lv_cont.c ****             lv_obj_set_pos(child, x_ofs, act_y);
 736              		.loc 1 555 0
 737 00c2 5246     		mov	r2, r10
 738 00c4 4146     		mov	r1, r8
 739 00c6 2046     		mov	r0, r4
 740 00c8 FFF7FEFF 		bl	lv_obj_set_pos
 741              	.LVL146:
ARM GAS  C:\Users\d3bug\AppData\Local\Temp\ccVxVFSv.s 			page 24


 742              	.L46:
 556:..\lvgl\lv_objx/lv_cont.c ****         }
 557:..\lvgl\lv_objx/lv_cont.c ****         obj_cnt ++;
 743              		.loc 1 557 0
 744 00cc 0136     		adds	r6, r6, #1
 745              	.LVL147:
 746 00ce B6B2     		uxth	r6, r6
 747              	.LVL148:
 558:..\lvgl\lv_objx/lv_cont.c **** 
 559:..\lvgl\lv_objx/lv_cont.c ****         if(obj_cnt >= obj_row) {
 748              		.loc 1 559 0
 749 00d0 B345     		cmp	fp, r6
 750 00d2 06D8     		bhi	.L44
 751              	.LVL149:
 560:..\lvgl\lv_objx/lv_cont.c ****             obj_cnt = 0;
 561:..\lvgl\lv_objx/lv_cont.c ****             act_x = style->body.padding.hor;
 752              		.loc 1 561 0
 753 00d4 B9F91670 		ldrsh	r7, [r9, #22]
 754              	.LVL150:
 562:..\lvgl\lv_objx/lv_cont.c ****             act_y += y_ofs;
 755              		.loc 1 562 0
 756 00d8 019B     		ldr	r3, [sp, #4]
 757 00da 9A44     		add	r10, r10, r3
 758              	.LVL151:
 759 00dc 0FFA8AFA 		sxth	r10, r10
 760              	.LVL152:
 560:..\lvgl\lv_objx/lv_cont.c ****             obj_cnt = 0;
 761              		.loc 1 560 0
 762 00e0 0026     		movs	r6, #0
 763              	.LVL153:
 764              	.L44:
 547:..\lvgl\lv_objx/lv_cont.c ****         if(lv_obj_get_hidden(child) != false ||
 765              		.loc 1 547 0 discriminator 2
 766 00e2 2146     		mov	r1, r4
 767 00e4 2846     		mov	r0, r5
 768 00e6 FFF7FEFF 		bl	lv_ll_get_prev
 769              	.LVL154:
 770 00ea 0446     		mov	r4, r0
 771              	.LVL155:
 772              	.L41:
 547:..\lvgl\lv_objx/lv_cont.c ****         if(lv_obj_get_hidden(child) != false ||
 773              		.loc 1 547 0 is_stmt 0 discriminator 1
 774 00ec 002C     		cmp	r4, #0
 775 00ee D4D1     		bne	.L47
 563:..\lvgl\lv_objx/lv_cont.c ****         }
 564:..\lvgl\lv_objx/lv_cont.c ****     }
 565:..\lvgl\lv_objx/lv_cont.c **** 
 566:..\lvgl\lv_objx/lv_cont.c ****     lv_obj_clear_protect(cont, LV_PROTECT_CHILD_CHG);
 776              		.loc 1 566 0 is_stmt 1
 777 00f0 0121     		movs	r1, #1
 778 00f2 0098     		ldr	r0, [sp]
 779              	.LVL156:
 780 00f4 FFF7FEFF 		bl	lv_obj_clear_protect
 781              	.LVL157:
 567:..\lvgl\lv_objx/lv_cont.c **** }
 782              		.loc 1 567 0
 783 00f8 03B0     		add	sp, sp, #12
ARM GAS  C:\Users\d3bug\AppData\Local\Temp\ccVxVFSv.s 			page 25


 784              		.cfi_def_cfa_offset 36
 785              	.LVL158:
 786              		@ sp needed
 787 00fa BDE8F08F 		pop	{r4, r5, r6, r7, r8, r9, r10, fp, pc}
 788              		.cfi_endproc
 789              	.LFE28:
 790              		.size	lv_cont_layout_grid, .-lv_cont_layout_grid
 791 00fe 00BF     		.section	.text.lv_cont_refr_autofit,"ax",%progbits
 792              		.align	2
 793              		.thumb
 794              		.thumb_func
 795              		.type	lv_cont_refr_autofit, %function
 796              	lv_cont_refr_autofit:
 797              	.LFB29:
 568:..\lvgl\lv_objx/lv_cont.c **** 
 569:..\lvgl\lv_objx/lv_cont.c **** /**
 570:..\lvgl\lv_objx/lv_cont.c ****  * Handle auto fit. Set the size of the object to involve all children.
 571:..\lvgl\lv_objx/lv_cont.c ****  * @param cont pointer to an object which size will be modified
 572:..\lvgl\lv_objx/lv_cont.c ****  */
 573:..\lvgl\lv_objx/lv_cont.c **** static void lv_cont_refr_autofit(lv_obj_t * cont)
 574:..\lvgl\lv_objx/lv_cont.c **** {
 798              		.loc 1 574 0
 799              		.cfi_startproc
 800              		@ args = 0, pretend = 0, frame = 16
 801              		@ frame_needed = 0, uses_anonymous_args = 0
 802              	.LVL159:
 803 0000 2DE9F043 		push	{r4, r5, r6, r7, r8, r9, lr}
 804              		.cfi_def_cfa_offset 28
 805              		.cfi_offset 4, -28
 806              		.cfi_offset 5, -24
 807              		.cfi_offset 6, -20
 808              		.cfi_offset 7, -16
 809              		.cfi_offset 8, -12
 810              		.cfi_offset 9, -8
 811              		.cfi_offset 14, -4
 812 0004 85B0     		sub	sp, sp, #20
 813              		.cfi_def_cfa_offset 48
 814 0006 0546     		mov	r5, r0
 575:..\lvgl\lv_objx/lv_cont.c ****     lv_cont_ext_t * ext = lv_obj_get_ext_attr(cont);
 815              		.loc 1 575 0
 816 0008 FFF7FEFF 		bl	lv_obj_get_ext_attr
 817              	.LVL160:
 576:..\lvgl\lv_objx/lv_cont.c **** 
 577:..\lvgl\lv_objx/lv_cont.c ****     if(ext->hor_fit == 0 &&
 818              		.loc 1 577 0
 819 000c 0378     		ldrb	r3, [r0]	@ zero_extendqisi2
 820 000e 13F0300F 		tst	r3, #48
 821 0012 00F0B780 		beq	.L49
 822 0016 0746     		mov	r7, r0
 578:..\lvgl\lv_objx/lv_cont.c ****             ext->ver_fit == 0) {
 579:..\lvgl\lv_objx/lv_cont.c ****         return;
 580:..\lvgl\lv_objx/lv_cont.c ****     }
 581:..\lvgl\lv_objx/lv_cont.c **** 
 582:..\lvgl\lv_objx/lv_cont.c ****     lv_area_t new_cords;
 583:..\lvgl\lv_objx/lv_cont.c ****     lv_area_t ori;
 584:..\lvgl\lv_objx/lv_cont.c ****     lv_style_t * style = lv_obj_get_style(cont);
 823              		.loc 1 584 0
ARM GAS  C:\Users\d3bug\AppData\Local\Temp\ccVxVFSv.s 			page 26


 824 0018 2846     		mov	r0, r5
 825              	.LVL161:
 826 001a FFF7FEFF 		bl	lv_obj_get_style
 827              	.LVL162:
 585:..\lvgl\lv_objx/lv_cont.c ****     lv_obj_t * i;
 586:..\lvgl\lv_objx/lv_cont.c ****     lv_coord_t hpad = style->body.padding.hor;
 828              		.loc 1 586 0
 829 001e B0F91690 		ldrsh	r9, [r0, #22]
 830              	.LVL163:
 587:..\lvgl\lv_objx/lv_cont.c ****     lv_coord_t vpad = style->body.padding.ver;
 831              		.loc 1 587 0
 832 0022 B0F91480 		ldrsh	r8, [r0, #20]
 833              	.LVL164:
 588:..\lvgl\lv_objx/lv_cont.c **** 
 589:..\lvgl\lv_objx/lv_cont.c ****     /*Search the side coordinates of the children*/
 590:..\lvgl\lv_objx/lv_cont.c ****     lv_obj_get_coords(cont, &ori);
 834              		.loc 1 590 0
 835 0026 6946     		mov	r1, sp
 836 0028 2846     		mov	r0, r5
 837              	.LVL165:
 838 002a FFF7FEFF 		bl	lv_obj_get_coords
 839              	.LVL166:
 591:..\lvgl\lv_objx/lv_cont.c ****     lv_obj_get_coords(cont, &new_cords);
 840              		.loc 1 591 0
 841 002e 02A9     		add	r1, sp, #8
 842 0030 2846     		mov	r0, r5
 843 0032 FFF7FEFF 		bl	lv_obj_get_coords
 844              	.LVL167:
 592:..\lvgl\lv_objx/lv_cont.c **** 
 593:..\lvgl\lv_objx/lv_cont.c ****     new_cords.x1 = LV_COORD_MAX;
 845              		.loc 1 593 0
 846 0036 43F6FF73 		movw	r3, #16383
 847 003a ADF80830 		strh	r3, [sp, #8]	@ movhi
 594:..\lvgl\lv_objx/lv_cont.c ****     new_cords.y1 = LV_COORD_MAX;
 848              		.loc 1 594 0
 849 003e ADF80A30 		strh	r3, [sp, #10]	@ movhi
 595:..\lvgl\lv_objx/lv_cont.c ****     new_cords.x2 = LV_COORD_MIN;
 850              		.loc 1 595 0
 851 0042 4FF44043 		mov	r3, #49152
 852 0046 ADF80C30 		strh	r3, [sp, #12]	@ movhi
 596:..\lvgl\lv_objx/lv_cont.c ****     new_cords.y2 = LV_COORD_MIN;
 853              		.loc 1 596 0
 854 004a ADF80E30 		strh	r3, [sp, #14]	@ movhi
 597:..\lvgl\lv_objx/lv_cont.c **** 
 598:..\lvgl\lv_objx/lv_cont.c ****     LL_READ(cont->child_ll, i) {
 855              		.loc 1 598 0
 856 004e 2E1D     		adds	r6, r5, #4
 857 0050 3046     		mov	r0, r6
 858 0052 FFF7FEFF 		bl	lv_ll_get_head
 859              	.LVL168:
 860 0056 0446     		mov	r4, r0
 861              	.LVL169:
 862 0058 2CE0     		b	.L51
 863              	.L53:
 599:..\lvgl\lv_objx/lv_cont.c ****         if(lv_obj_get_hidden(i) != false) continue;
 864              		.loc 1 599 0
 865 005a 2046     		mov	r0, r4
ARM GAS  C:\Users\d3bug\AppData\Local\Temp\ccVxVFSv.s 			page 27


 866              	.LVL170:
 867 005c FFF7FEFF 		bl	lv_obj_get_hidden
 868              	.LVL171:
 869 0060 18BB     		cbnz	r0, .L52
 600:..\lvgl\lv_objx/lv_cont.c ****         new_cords.x1 = LV_MATH_MIN(new_cords.x1, i->coords.x1);
 870              		.loc 1 600 0
 871 0062 B4F91020 		ldrsh	r2, [r4, #16]
 872 0066 BDF90830 		ldrsh	r3, [sp, #8]
 873 006a 9342     		cmp	r3, r2
 874 006c A8BF     		it	ge
 875 006e 1346     		movge	r3, r2
 876 0070 ADF80830 		strh	r3, [sp, #8]	@ movhi
 601:..\lvgl\lv_objx/lv_cont.c ****         new_cords.y1 = LV_MATH_MIN(new_cords.y1, i->coords.y1);
 877              		.loc 1 601 0
 878 0074 B4F91220 		ldrsh	r2, [r4, #18]
 879 0078 BDF90A30 		ldrsh	r3, [sp, #10]
 880 007c 9342     		cmp	r3, r2
 881 007e A8BF     		it	ge
 882 0080 1346     		movge	r3, r2
 883 0082 ADF80A30 		strh	r3, [sp, #10]	@ movhi
 602:..\lvgl\lv_objx/lv_cont.c ****         new_cords.x2 = LV_MATH_MAX(new_cords.x2, i->coords.x2);
 884              		.loc 1 602 0
 885 0086 B4F91420 		ldrsh	r2, [r4, #20]
 886 008a BDF90C30 		ldrsh	r3, [sp, #12]
 887 008e 9342     		cmp	r3, r2
 888 0090 B8BF     		it	lt
 889 0092 1346     		movlt	r3, r2
 890 0094 ADF80C30 		strh	r3, [sp, #12]	@ movhi
 603:..\lvgl\lv_objx/lv_cont.c ****         new_cords.y2 = LV_MATH_MAX(new_cords.y2, i->coords.y2);
 891              		.loc 1 603 0
 892 0098 B4F91620 		ldrsh	r2, [r4, #22]
 893 009c BDF90E30 		ldrsh	r3, [sp, #14]
 894 00a0 9342     		cmp	r3, r2
 895 00a2 B8BF     		it	lt
 896 00a4 1346     		movlt	r3, r2
 897 00a6 ADF80E30 		strh	r3, [sp, #14]	@ movhi
 898              	.L52:
 598:..\lvgl\lv_objx/lv_cont.c ****         if(lv_obj_get_hidden(i) != false) continue;
 899              		.loc 1 598 0 discriminator 2
 900 00aa 2146     		mov	r1, r4
 901 00ac 3046     		mov	r0, r6
 902 00ae FFF7FEFF 		bl	lv_ll_get_next
 903              	.LVL172:
 904 00b2 0446     		mov	r4, r0
 905              	.LVL173:
 906              	.L51:
 598:..\lvgl\lv_objx/lv_cont.c ****         if(lv_obj_get_hidden(i) != false) continue;
 907              		.loc 1 598 0 is_stmt 0 discriminator 1
 908 00b4 002C     		cmp	r4, #0
 909 00b6 D0D1     		bne	.L53
 604:..\lvgl\lv_objx/lv_cont.c ****     }
 605:..\lvgl\lv_objx/lv_cont.c **** 
 606:..\lvgl\lv_objx/lv_cont.c ****     /*If the value is not the init value then the page has >=1 child.*/
 607:..\lvgl\lv_objx/lv_cont.c ****     if(new_cords.x1 != LV_COORD_MAX) {
 910              		.loc 1 607 0 is_stmt 1
 911 00b8 BDF90830 		ldrsh	r3, [sp, #8]
 912 00bc 43F6FF72 		movw	r2, #16383
ARM GAS  C:\Users\d3bug\AppData\Local\Temp\ccVxVFSv.s 			page 28


 913 00c0 9342     		cmp	r3, r2
 914 00c2 5FD0     		beq	.L49
 608:..\lvgl\lv_objx/lv_cont.c ****         if(ext->hor_fit != 0) {
 915              		.loc 1 608 0
 916 00c4 3A78     		ldrb	r2, [r7]	@ zero_extendqisi2
 917 00c6 12F0100F 		tst	r2, #16
 918 00ca 0BD0     		beq	.L55
 609:..\lvgl\lv_objx/lv_cont.c ****             new_cords.x1 -= hpad;
 919              		.loc 1 609 0
 920 00cc 1FFA89F9 		uxth	r9, r9
 921 00d0 C9EB0303 		rsb	r3, r9, r3
 922 00d4 ADF80830 		strh	r3, [sp, #8]	@ movhi
 610:..\lvgl\lv_objx/lv_cont.c ****             new_cords.x2 += hpad;
 923              		.loc 1 610 0
 924 00d8 BDF80C30 		ldrh	r3, [sp, #12]
 925 00dc 9944     		add	r9, r9, r3
 926              	.LVL174:
 927 00de ADF80C90 		strh	r9, [sp, #12]	@ movhi
 928 00e2 07E0     		b	.L56
 929              	.LVL175:
 930              	.L55:
 611:..\lvgl\lv_objx/lv_cont.c ****         } else {
 612:..\lvgl\lv_objx/lv_cont.c ****             new_cords.x1 = cont->coords.x1;
 931              		.loc 1 612 0
 932 00e4 B5F91030 		ldrsh	r3, [r5, #16]
 933 00e8 ADF80830 		strh	r3, [sp, #8]	@ movhi
 613:..\lvgl\lv_objx/lv_cont.c ****             new_cords.x2 = cont->coords.x2;
 934              		.loc 1 613 0
 935 00ec B5F91430 		ldrsh	r3, [r5, #20]
 936 00f0 ADF80C30 		strh	r3, [sp, #12]	@ movhi
 937              	.LVL176:
 938              	.L56:
 614:..\lvgl\lv_objx/lv_cont.c ****         }
 615:..\lvgl\lv_objx/lv_cont.c ****         if(ext->ver_fit != 0) {
 939              		.loc 1 615 0
 940 00f4 3B78     		ldrb	r3, [r7]	@ zero_extendqisi2
 941 00f6 13F0200F 		tst	r3, #32
 942 00fa 0DD0     		beq	.L57
 616:..\lvgl\lv_objx/lv_cont.c ****             new_cords.y1 -= vpad;
 943              		.loc 1 616 0
 944 00fc 1FFA88F8 		uxth	r8, r8
 945 0100 BDF80A30 		ldrh	r3, [sp, #10]
 946 0104 C8EB0303 		rsb	r3, r8, r3
 947 0108 ADF80A30 		strh	r3, [sp, #10]	@ movhi
 617:..\lvgl\lv_objx/lv_cont.c ****             new_cords.y2 += vpad;
 948              		.loc 1 617 0
 949 010c BDF80E30 		ldrh	r3, [sp, #14]
 950 0110 9844     		add	r8, r8, r3
 951              	.LVL177:
 952 0112 ADF80E80 		strh	r8, [sp, #14]	@ movhi
 953 0116 07E0     		b	.L58
 954              	.LVL178:
 955              	.L57:
 618:..\lvgl\lv_objx/lv_cont.c ****         } else {
 619:..\lvgl\lv_objx/lv_cont.c ****             new_cords.y1 = cont->coords.y1;
 956              		.loc 1 619 0
 957 0118 B5F91230 		ldrsh	r3, [r5, #18]
ARM GAS  C:\Users\d3bug\AppData\Local\Temp\ccVxVFSv.s 			page 29


 958 011c ADF80A30 		strh	r3, [sp, #10]	@ movhi
 620:..\lvgl\lv_objx/lv_cont.c ****             new_cords.y2 = cont->coords.y2;
 959              		.loc 1 620 0
 960 0120 B5F91630 		ldrsh	r3, [r5, #22]
 961 0124 ADF80E30 		strh	r3, [sp, #14]	@ movhi
 962              	.LVL179:
 963              	.L58:
 621:..\lvgl\lv_objx/lv_cont.c ****         }
 622:..\lvgl\lv_objx/lv_cont.c **** 
 623:..\lvgl\lv_objx/lv_cont.c ****         /*Do nothing if the coordinates are not changed*/
 624:..\lvgl\lv_objx/lv_cont.c ****         if(cont->coords.x1 != new_cords.x1 ||
 964              		.loc 1 624 0
 965 0128 B5F91020 		ldrsh	r2, [r5, #16]
 966 012c BDF90830 		ldrsh	r3, [sp, #8]
 967 0130 9A42     		cmp	r2, r3
 968 0132 11D1     		bne	.L59
 625:..\lvgl\lv_objx/lv_cont.c ****                 cont->coords.y1 != new_cords.y1 ||
 969              		.loc 1 625 0 discriminator 1
 970 0134 B5F91220 		ldrsh	r2, [r5, #18]
 971 0138 BDF90A30 		ldrsh	r3, [sp, #10]
 624:..\lvgl\lv_objx/lv_cont.c ****                 cont->coords.y1 != new_cords.y1 ||
 972              		.loc 1 624 0 discriminator 1
 973 013c 9A42     		cmp	r2, r3
 974 013e 0BD1     		bne	.L59
 626:..\lvgl\lv_objx/lv_cont.c ****                 cont->coords.x2 != new_cords.x2 ||
 975              		.loc 1 626 0
 976 0140 B5F91420 		ldrsh	r2, [r5, #20]
 977 0144 BDF90C30 		ldrsh	r3, [sp, #12]
 625:..\lvgl\lv_objx/lv_cont.c ****                 cont->coords.y1 != new_cords.y1 ||
 978              		.loc 1 625 0
 979 0148 9A42     		cmp	r2, r3
 980 014a 05D1     		bne	.L59
 627:..\lvgl\lv_objx/lv_cont.c ****                 cont->coords.y2 != new_cords.y2) {
 981              		.loc 1 627 0
 982 014c B5F91620 		ldrsh	r2, [r5, #22]
 983 0150 BDF90E30 		ldrsh	r3, [sp, #14]
 626:..\lvgl\lv_objx/lv_cont.c ****                 cont->coords.x2 != new_cords.x2 ||
 984              		.loc 1 626 0
 985 0154 9A42     		cmp	r2, r3
 986 0156 15D0     		beq	.L49
 987              	.L59:
 988              	.LBB23:
 628:..\lvgl\lv_objx/lv_cont.c **** 
 629:..\lvgl\lv_objx/lv_cont.c ****             lv_obj_invalidate(cont);
 989              		.loc 1 629 0
 990 0158 2846     		mov	r0, r5
 991              	.LVL180:
 992 015a FFF7FEFF 		bl	lv_obj_invalidate
 993              	.LVL181:
 994              	.LBB24:
 995              	.LBB25:
 996              		.file 2 "..\\lvgl\\lv_objx\\../lv_core/../lv_misc/lv_area.h"
   1:..\lvgl\lv_objx\../lv_core/../lv_misc/lv_area.h **** /**
   2:..\lvgl\lv_objx\../lv_core/../lv_misc/lv_area.h ****  * @file lv_area.h
   3:..\lvgl\lv_objx\../lv_core/../lv_misc/lv_area.h ****  *
   4:..\lvgl\lv_objx\../lv_core/../lv_misc/lv_area.h ****  */
   5:..\lvgl\lv_objx\../lv_core/../lv_misc/lv_area.h **** 
ARM GAS  C:\Users\d3bug\AppData\Local\Temp\ccVxVFSv.s 			page 30


   6:..\lvgl\lv_objx\../lv_core/../lv_misc/lv_area.h **** #ifndef LV_AREA_H
   7:..\lvgl\lv_objx\../lv_core/../lv_misc/lv_area.h **** #define LV_AREA_H
   8:..\lvgl\lv_objx\../lv_core/../lv_misc/lv_area.h **** 
   9:..\lvgl\lv_objx\../lv_core/../lv_misc/lv_area.h **** #ifdef __cplusplus
  10:..\lvgl\lv_objx\../lv_core/../lv_misc/lv_area.h **** extern "C" {
  11:..\lvgl\lv_objx\../lv_core/../lv_misc/lv_area.h **** #endif
  12:..\lvgl\lv_objx\../lv_core/../lv_misc/lv_area.h **** 
  13:..\lvgl\lv_objx\../lv_core/../lv_misc/lv_area.h **** 
  14:..\lvgl\lv_objx\../lv_core/../lv_misc/lv_area.h **** /*********************
  15:..\lvgl\lv_objx\../lv_core/../lv_misc/lv_area.h ****  *      INCLUDES
  16:..\lvgl\lv_objx\../lv_core/../lv_misc/lv_area.h ****  *********************/
  17:..\lvgl\lv_objx\../lv_core/../lv_misc/lv_area.h **** #include <string.h>
  18:..\lvgl\lv_objx\../lv_core/../lv_misc/lv_area.h **** #include <stdbool.h>
  19:..\lvgl\lv_objx\../lv_core/../lv_misc/lv_area.h **** #include <stdint.h>
  20:..\lvgl\lv_objx\../lv_core/../lv_misc/lv_area.h **** 
  21:..\lvgl\lv_objx\../lv_core/../lv_misc/lv_area.h **** /*********************
  22:..\lvgl\lv_objx\../lv_core/../lv_misc/lv_area.h ****  *      DEFINES
  23:..\lvgl\lv_objx\../lv_core/../lv_misc/lv_area.h ****  *********************/
  24:..\lvgl\lv_objx\../lv_core/../lv_misc/lv_area.h **** #define LV_COORD_MAX     (16383)    /*To avoid overflow don't let the max [-32,32k] range */
  25:..\lvgl\lv_objx\../lv_core/../lv_misc/lv_area.h **** #define LV_COORD_MIN     (-16384)
  26:..\lvgl\lv_objx\../lv_core/../lv_misc/lv_area.h **** 
  27:..\lvgl\lv_objx\../lv_core/../lv_misc/lv_area.h **** /**********************
  28:..\lvgl\lv_objx\../lv_core/../lv_misc/lv_area.h ****  *      TYPEDEFS
  29:..\lvgl\lv_objx\../lv_core/../lv_misc/lv_area.h ****  **********************/
  30:..\lvgl\lv_objx\../lv_core/../lv_misc/lv_area.h **** typedef int16_t lv_coord_t;
  31:..\lvgl\lv_objx\../lv_core/../lv_misc/lv_area.h **** 
  32:..\lvgl\lv_objx\../lv_core/../lv_misc/lv_area.h **** typedef struct
  33:..\lvgl\lv_objx\../lv_core/../lv_misc/lv_area.h **** {
  34:..\lvgl\lv_objx\../lv_core/../lv_misc/lv_area.h ****     lv_coord_t x;
  35:..\lvgl\lv_objx\../lv_core/../lv_misc/lv_area.h ****     lv_coord_t y;
  36:..\lvgl\lv_objx\../lv_core/../lv_misc/lv_area.h **** } lv_point_t;
  37:..\lvgl\lv_objx\../lv_core/../lv_misc/lv_area.h **** 
  38:..\lvgl\lv_objx\../lv_core/../lv_misc/lv_area.h **** typedef struct
  39:..\lvgl\lv_objx\../lv_core/../lv_misc/lv_area.h **** {
  40:..\lvgl\lv_objx\../lv_core/../lv_misc/lv_area.h ****     lv_coord_t x1;
  41:..\lvgl\lv_objx\../lv_core/../lv_misc/lv_area.h ****     lv_coord_t y1;
  42:..\lvgl\lv_objx\../lv_core/../lv_misc/lv_area.h ****     lv_coord_t x2;
  43:..\lvgl\lv_objx\../lv_core/../lv_misc/lv_area.h ****     lv_coord_t y2;
  44:..\lvgl\lv_objx\../lv_core/../lv_misc/lv_area.h **** } lv_area_t;
  45:..\lvgl\lv_objx\../lv_core/../lv_misc/lv_area.h **** 
  46:..\lvgl\lv_objx\../lv_core/../lv_misc/lv_area.h **** /**********************
  47:..\lvgl\lv_objx\../lv_core/../lv_misc/lv_area.h ****  * GLOBAL PROTOTYPES
  48:..\lvgl\lv_objx\../lv_core/../lv_misc/lv_area.h ****  **********************/
  49:..\lvgl\lv_objx\../lv_core/../lv_misc/lv_area.h **** 
  50:..\lvgl\lv_objx\../lv_core/../lv_misc/lv_area.h **** /**
  51:..\lvgl\lv_objx\../lv_core/../lv_misc/lv_area.h ****  * Initialize an area
  52:..\lvgl\lv_objx\../lv_core/../lv_misc/lv_area.h ****  * @param area_p pointer to an area
  53:..\lvgl\lv_objx\../lv_core/../lv_misc/lv_area.h ****  * @param x1 left coordinate of the area
  54:..\lvgl\lv_objx\../lv_core/../lv_misc/lv_area.h ****  * @param y1 top coordinate of the area
  55:..\lvgl\lv_objx\../lv_core/../lv_misc/lv_area.h ****  * @param x2 right coordinate of the area
  56:..\lvgl\lv_objx\../lv_core/../lv_misc/lv_area.h ****  * @param y2 bottom coordinate of the area
  57:..\lvgl\lv_objx\../lv_core/../lv_misc/lv_area.h ****  */
  58:..\lvgl\lv_objx\../lv_core/../lv_misc/lv_area.h **** void lv_area_set(lv_area_t * area_p, lv_coord_t x1, lv_coord_t y1, lv_coord_t x2, lv_coord_t y2);
  59:..\lvgl\lv_objx\../lv_core/../lv_misc/lv_area.h **** 
  60:..\lvgl\lv_objx\../lv_core/../lv_misc/lv_area.h **** /**
  61:..\lvgl\lv_objx\../lv_core/../lv_misc/lv_area.h ****  * Copy an area
  62:..\lvgl\lv_objx\../lv_core/../lv_misc/lv_area.h ****  * @param dest pointer to the destination area
ARM GAS  C:\Users\d3bug\AppData\Local\Temp\ccVxVFSv.s 			page 31


  63:..\lvgl\lv_objx\../lv_core/../lv_misc/lv_area.h ****  * @param src pointer to the source area
  64:..\lvgl\lv_objx\../lv_core/../lv_misc/lv_area.h ****  */
  65:..\lvgl\lv_objx\../lv_core/../lv_misc/lv_area.h **** inline static void lv_area_copy(lv_area_t * dest, const lv_area_t * src)
  66:..\lvgl\lv_objx\../lv_core/../lv_misc/lv_area.h **** {
  67:..\lvgl\lv_objx\../lv_core/../lv_misc/lv_area.h ****     memcpy(dest, src, sizeof(lv_area_t));
 997              		.loc 2 67 0
 998 015e 02AB     		add	r3, sp, #8
 999              	.LVL182:
 1000 0160 03CB     		ldmia	r3!, {r0, r1}
 1001              	.LVL183:
 1002 0162 2861     		str	r0, [r5, #16]	@ unaligned
 1003 0164 6961     		str	r1, [r5, #20]	@ unaligned
 1004              	.LVL184:
 1005              	.LBE25:
 1006              	.LBE24:
 630:..\lvgl\lv_objx/lv_cont.c ****             lv_area_copy(&cont->coords, &new_cords);
 631:..\lvgl\lv_objx/lv_cont.c ****             lv_obj_invalidate(cont);
 1007              		.loc 1 631 0
 1008 0166 2846     		mov	r0, r5
 1009 0168 FFF7FEFF 		bl	lv_obj_invalidate
 1010              	.LVL185:
 632:..\lvgl\lv_objx/lv_cont.c **** 
 633:..\lvgl\lv_objx/lv_cont.c ****             /*Notify the object about its new coordinates*/
 634:..\lvgl\lv_objx/lv_cont.c ****             cont->signal_func(cont, LV_SIGNAL_CORD_CHG, &ori);
 1011              		.loc 1 634 0
 1012 016c AB69     		ldr	r3, [r5, #24]
 1013 016e 6A46     		mov	r2, sp
 1014 0170 0221     		movs	r1, #2
 1015 0172 2846     		mov	r0, r5
 1016 0174 9847     		blx	r3
 1017              	.LVL186:
 635:..\lvgl\lv_objx/lv_cont.c **** 
 636:..\lvgl\lv_objx/lv_cont.c ****             /*Inform the parent about the new coordinates*/
 637:..\lvgl\lv_objx/lv_cont.c ****             lv_obj_t * par = lv_obj_get_parent(cont);
 1018              		.loc 1 637 0
 1019 0176 2846     		mov	r0, r5
 1020 0178 FFF7FEFF 		bl	lv_obj_get_parent
 1021              	.LVL187:
 638:..\lvgl\lv_objx/lv_cont.c ****             par->signal_func(par, LV_SIGNAL_CHILD_CHG, cont);
 1022              		.loc 1 638 0
 1023 017c 8369     		ldr	r3, [r0, #24]
 1024 017e 2A46     		mov	r2, r5
 1025 0180 0121     		movs	r1, #1
 1026 0182 9847     		blx	r3
 1027              	.LVL188:
 1028              	.L49:
 1029              	.LBE23:
 639:..\lvgl\lv_objx/lv_cont.c ****         }
 640:..\lvgl\lv_objx/lv_cont.c ****     }
 641:..\lvgl\lv_objx/lv_cont.c **** }
 1030              		.loc 1 641 0
 1031 0184 05B0     		add	sp, sp, #20
 1032              		.cfi_def_cfa_offset 28
 1033              		@ sp needed
 1034 0186 BDE8F083 		pop	{r4, r5, r6, r7, r8, r9, pc}
 1035              		.cfi_endproc
 1036              	.LFE29:
ARM GAS  C:\Users\d3bug\AppData\Local\Temp\ccVxVFSv.s 			page 32


 1037              		.size	lv_cont_refr_autofit, .-lv_cont_refr_autofit
 1038 018a 00BF     		.section	.text.lv_cont_create,"ax",%progbits
 1039              		.align	2
 1040              		.global	lv_cont_create
 1041              		.thumb
 1042              		.thumb_func
 1043              		.type	lv_cont_create, %function
 1044              	lv_cont_create:
 1045              	.LFB14:
  64:..\lvgl\lv_objx/lv_cont.c **** 
 1046              		.loc 1 64 0
 1047              		.cfi_startproc
 1048              		@ args = 0, pretend = 0, frame = 0
 1049              		@ frame_needed = 0, uses_anonymous_args = 0
 1050              	.LVL189:
 1051 0000 70B5     		push	{r4, r5, r6, lr}
 1052              		.cfi_def_cfa_offset 16
 1053              		.cfi_offset 4, -16
 1054              		.cfi_offset 5, -12
 1055              		.cfi_offset 6, -8
 1056              		.cfi_offset 14, -4
 1057 0002 0446     		mov	r4, r0
 1058 0004 0E46     		mov	r6, r1
  67:..\lvgl\lv_objx/lv_cont.c **** 
 1059              		.loc 1 67 0
 1060 0006 354B     		ldr	r3, .L75
 1061 0008 4322     		movs	r2, #67
 1062 000a 3549     		ldr	r1, .L75+4
 1063              	.LVL190:
 1064 000c 0020     		movs	r0, #0
 1065              	.LVL191:
 1066 000e FFF7FEFF 		bl	lv_log_add
 1067              	.LVL192:
  70:..\lvgl\lv_objx/lv_cont.c ****     lv_mem_assert(new_cont);
 1068              		.loc 1 70 0
 1069 0012 3146     		mov	r1, r6
 1070 0014 2046     		mov	r0, r4
 1071 0016 FFF7FEFF 		bl	lv_obj_create
 1072              	.LVL193:
  71:..\lvgl\lv_objx/lv_cont.c ****     if(new_cont == NULL) return NULL;
 1073              		.loc 1 71 0
 1074 001a 30B9     		cbnz	r0, .L63
  71:..\lvgl\lv_objx/lv_cont.c ****     if(new_cont == NULL) return NULL;
 1075              		.loc 1 71 0 is_stmt 0 discriminator 1
 1076 001c 314B     		ldr	r3, .L75+8
 1077 001e 4722     		movs	r2, #71
 1078 0020 2F49     		ldr	r1, .L75+4
 1079 0022 0320     		movs	r0, #3
 1080              	.LVL194:
 1081 0024 FFF7FEFF 		bl	lv_log_add
 1082              	.LVL195:
 1083              	.L64:
 1084 0028 FEE7     		b	.L64
 1085              	.LVL196:
 1086              	.L63:
 1087 002a 0446     		mov	r4, r0
 1088              	.LVL197:
ARM GAS  C:\Users\d3bug\AppData\Local\Temp\ccVxVFSv.s 			page 33


  72:..\lvgl\lv_objx/lv_cont.c **** 
 1089              		.loc 1 72 0 is_stmt 1
 1090 002c 0028     		cmp	r0, #0
 1091 002e 51D0     		beq	.L72
  74:..\lvgl\lv_objx/lv_cont.c **** 
 1092              		.loc 1 74 0
 1093 0030 2D4B     		ldr	r3, .L75+12
 1094 0032 1B68     		ldr	r3, [r3]
 1095 0034 1BB9     		cbnz	r3, .L66
  74:..\lvgl\lv_objx/lv_cont.c **** 
 1096              		.loc 1 74 0 is_stmt 0 discriminator 1
 1097 0036 FFF7FEFF 		bl	lv_obj_get_signal_func
 1098              	.LVL198:
 1099 003a 2B4B     		ldr	r3, .L75+12
 1100 003c 1860     		str	r0, [r3]
 1101              	.L66:
  76:..\lvgl\lv_objx/lv_cont.c ****     lv_cont_ext_t * ext = lv_obj_get_ext_attr(new_cont);
 1102              		.loc 1 76 0 is_stmt 1
 1103 003e 0121     		movs	r1, #1
 1104 0040 2046     		mov	r0, r4
 1105 0042 FFF7FEFF 		bl	lv_obj_allocate_ext_attr
 1106              	.LVL199:
  77:..\lvgl\lv_objx/lv_cont.c ****     if(ext == NULL) return NULL;
 1107              		.loc 1 77 0
 1108 0046 2046     		mov	r0, r4
 1109 0048 FFF7FEFF 		bl	lv_obj_get_ext_attr
 1110              	.LVL200:
  78:..\lvgl\lv_objx/lv_cont.c **** 
 1111              		.loc 1 78 0
 1112 004c 0546     		mov	r5, r0
 1113 004e 0028     		cmp	r0, #0
 1114 0050 42D0     		beq	.L73
  80:..\lvgl\lv_objx/lv_cont.c ****     ext->hor_fit = 0;
 1115              		.loc 1 80 0
 1116 0052 30B9     		cbnz	r0, .L67
  80:..\lvgl\lv_objx/lv_cont.c ****     ext->hor_fit = 0;
 1117              		.loc 1 80 0 is_stmt 0 discriminator 1
 1118 0054 234B     		ldr	r3, .L75+8
 1119 0056 5022     		movs	r2, #80
 1120 0058 2149     		ldr	r1, .L75+4
 1121 005a 0320     		movs	r0, #3
 1122              	.LVL201:
 1123 005c FFF7FEFF 		bl	lv_log_add
 1124              	.LVL202:
 1125              	.L68:
 1126 0060 FEE7     		b	.L68
 1127              	.LVL203:
 1128              	.L67:
  81:..\lvgl\lv_objx/lv_cont.c ****     ext->ver_fit = 0;
 1129              		.loc 1 81 0 is_stmt 1
 1130 0062 0378     		ldrb	r3, [r0]	@ zero_extendqisi2
  83:..\lvgl\lv_objx/lv_cont.c **** 
 1131              		.loc 1 83 0
 1132 0064 03F0CF03 		and	r3, r3, #207
 1133 0068 6FF30303 		bfc	r3, #0, #4
 1134 006c 0370     		strb	r3, [r0]
  85:..\lvgl\lv_objx/lv_cont.c **** 
ARM GAS  C:\Users\d3bug\AppData\Local\Temp\ccVxVFSv.s 			page 34


 1135              		.loc 1 85 0
 1136 006e 1F49     		ldr	r1, .L75+16
 1137 0070 2046     		mov	r0, r4
 1138              	.LVL204:
 1139 0072 FFF7FEFF 		bl	lv_obj_set_signal_func
 1140              	.LVL205:
  88:..\lvgl\lv_objx/lv_cont.c ****         /*Set the default styles*/
 1141              		.loc 1 88 0
 1142 0076 66B9     		cbnz	r6, .L69
 1143              	.LBB26:
  90:..\lvgl\lv_objx/lv_cont.c ****         if(th) {
 1144              		.loc 1 90 0
 1145 0078 FFF7FEFF 		bl	lv_theme_get_current
 1146              	.LVL206:
  91:..\lvgl\lv_objx/lv_cont.c ****             lv_cont_set_style(new_cont, th->cont);
 1147              		.loc 1 91 0
 1148 007c 20B1     		cbz	r0, .L70
 1149              	.LVL207:
 1150              	.LBB27:
 1151              	.LBB28:
 1152              		.file 3 "..\\lvgl\\lv_objx\\lv_cont.h"
   1:..\lvgl\lv_objx/lv_cont.h **** /**
   2:..\lvgl\lv_objx/lv_cont.h ****  * @file lv_cont.h
   3:..\lvgl\lv_objx/lv_cont.h ****  *
   4:..\lvgl\lv_objx/lv_cont.h ****  */
   5:..\lvgl\lv_objx/lv_cont.h **** 
   6:..\lvgl\lv_objx/lv_cont.h **** #ifndef LV_CONT_H
   7:..\lvgl\lv_objx/lv_cont.h **** #define LV_CONT_H
   8:..\lvgl\lv_objx/lv_cont.h **** 
   9:..\lvgl\lv_objx/lv_cont.h **** #ifdef __cplusplus
  10:..\lvgl\lv_objx/lv_cont.h **** extern "C" {
  11:..\lvgl\lv_objx/lv_cont.h **** #endif
  12:..\lvgl\lv_objx/lv_cont.h **** 
  13:..\lvgl\lv_objx/lv_cont.h **** /*********************
  14:..\lvgl\lv_objx/lv_cont.h ****  *      INCLUDES
  15:..\lvgl\lv_objx/lv_cont.h ****  *********************/
  16:..\lvgl\lv_objx/lv_cont.h **** #ifdef LV_CONF_INCLUDE_SIMPLE
  17:..\lvgl\lv_objx/lv_cont.h **** #include "lv_conf.h"
  18:..\lvgl\lv_objx/lv_cont.h **** #else
  19:..\lvgl\lv_objx/lv_cont.h **** #include "../../lv_conf.h"
  20:..\lvgl\lv_objx/lv_cont.h **** #endif
  21:..\lvgl\lv_objx/lv_cont.h **** 
  22:..\lvgl\lv_objx/lv_cont.h **** #if USE_LV_CONT != 0
  23:..\lvgl\lv_objx/lv_cont.h **** 
  24:..\lvgl\lv_objx/lv_cont.h **** #include "../lv_core/lv_obj.h"
  25:..\lvgl\lv_objx/lv_cont.h **** 
  26:..\lvgl\lv_objx/lv_cont.h **** /*********************
  27:..\lvgl\lv_objx/lv_cont.h ****  *      DEFINES
  28:..\lvgl\lv_objx/lv_cont.h ****  *********************/
  29:..\lvgl\lv_objx/lv_cont.h **** 
  30:..\lvgl\lv_objx/lv_cont.h **** /**********************
  31:..\lvgl\lv_objx/lv_cont.h ****  *      TYPEDEFS
  32:..\lvgl\lv_objx/lv_cont.h ****  **********************/
  33:..\lvgl\lv_objx/lv_cont.h **** 
  34:..\lvgl\lv_objx/lv_cont.h **** /*Layout options*/
  35:..\lvgl\lv_objx/lv_cont.h **** enum
  36:..\lvgl\lv_objx/lv_cont.h **** {
ARM GAS  C:\Users\d3bug\AppData\Local\Temp\ccVxVFSv.s 			page 35


  37:..\lvgl\lv_objx/lv_cont.h ****     LV_LAYOUT_OFF = 0,
  38:..\lvgl\lv_objx/lv_cont.h ****     LV_LAYOUT_CENTER,
  39:..\lvgl\lv_objx/lv_cont.h ****     LV_LAYOUT_COL_L,    /*Column left align*/
  40:..\lvgl\lv_objx/lv_cont.h ****     LV_LAYOUT_COL_M,    /*Column middle align*/
  41:..\lvgl\lv_objx/lv_cont.h ****     LV_LAYOUT_COL_R,    /*Column right align*/
  42:..\lvgl\lv_objx/lv_cont.h ****     LV_LAYOUT_ROW_T,    /*Row top align*/
  43:..\lvgl\lv_objx/lv_cont.h ****     LV_LAYOUT_ROW_M,    /*Row middle align*/
  44:..\lvgl\lv_objx/lv_cont.h ****     LV_LAYOUT_ROW_B,    /*Row bottom align*/
  45:..\lvgl\lv_objx/lv_cont.h ****     LV_LAYOUT_PRETTY,   /*Put as many object as possible in row and begin a new row*/
  46:..\lvgl\lv_objx/lv_cont.h ****     LV_LAYOUT_GRID,     /*Align same-sized object into a grid*/
  47:..\lvgl\lv_objx/lv_cont.h **** };
  48:..\lvgl\lv_objx/lv_cont.h **** typedef uint8_t lv_layout_t;
  49:..\lvgl\lv_objx/lv_cont.h **** 
  50:..\lvgl\lv_objx/lv_cont.h **** typedef struct
  51:..\lvgl\lv_objx/lv_cont.h **** {
  52:..\lvgl\lv_objx/lv_cont.h ****     /*Inherited from 'base_obj' so no inherited ext. */ /*Ext. of ancestor*/
  53:..\lvgl\lv_objx/lv_cont.h ****     /*New data for this type */
  54:..\lvgl\lv_objx/lv_cont.h ****     uint8_t layout  :4;     /*A layout from 'lv_cont_layout_t' enum*/
  55:..\lvgl\lv_objx/lv_cont.h ****     uint8_t hor_fit :1;     /*1: Enable horizontal fit to involve all children*/
  56:..\lvgl\lv_objx/lv_cont.h ****     uint8_t ver_fit :1;     /*1: Enable horizontal fit to involve all children*/
  57:..\lvgl\lv_objx/lv_cont.h **** } lv_cont_ext_t;
  58:..\lvgl\lv_objx/lv_cont.h **** 
  59:..\lvgl\lv_objx/lv_cont.h **** 
  60:..\lvgl\lv_objx/lv_cont.h **** /**********************
  61:..\lvgl\lv_objx/lv_cont.h ****  * GLOBAL PROTOTYPES
  62:..\lvgl\lv_objx/lv_cont.h ****  **********************/
  63:..\lvgl\lv_objx/lv_cont.h **** 
  64:..\lvgl\lv_objx/lv_cont.h **** /**
  65:..\lvgl\lv_objx/lv_cont.h ****  * Create a container objects
  66:..\lvgl\lv_objx/lv_cont.h ****  * @param par pointer to an object, it will be the parent of the new container
  67:..\lvgl\lv_objx/lv_cont.h ****  * @param copy pointer to a container object, if not NULL then the new object will be copied from i
  68:..\lvgl\lv_objx/lv_cont.h ****  * @return pointer to the created container
  69:..\lvgl\lv_objx/lv_cont.h ****  */
  70:..\lvgl\lv_objx/lv_cont.h **** lv_obj_t * lv_cont_create(lv_obj_t * par, const lv_obj_t * copy);
  71:..\lvgl\lv_objx/lv_cont.h **** 
  72:..\lvgl\lv_objx/lv_cont.h **** /*=====================
  73:..\lvgl\lv_objx/lv_cont.h ****  * Setter functions
  74:..\lvgl\lv_objx/lv_cont.h ****  *====================*/
  75:..\lvgl\lv_objx/lv_cont.h **** 
  76:..\lvgl\lv_objx/lv_cont.h **** /**
  77:..\lvgl\lv_objx/lv_cont.h ****  * Set a layout on a container
  78:..\lvgl\lv_objx/lv_cont.h ****  * @param cont pointer to a container object
  79:..\lvgl\lv_objx/lv_cont.h ****  * @param layout a layout from 'lv_cont_layout_t'
  80:..\lvgl\lv_objx/lv_cont.h ****  */
  81:..\lvgl\lv_objx/lv_cont.h **** void lv_cont_set_layout(lv_obj_t * cont, lv_layout_t layout);
  82:..\lvgl\lv_objx/lv_cont.h **** 
  83:..\lvgl\lv_objx/lv_cont.h **** 
  84:..\lvgl\lv_objx/lv_cont.h **** /**
  85:..\lvgl\lv_objx/lv_cont.h ****  * Enable the horizontal or vertical fit.
  86:..\lvgl\lv_objx/lv_cont.h ****  * The container size will be set to involve the children horizontally or vertically.
  87:..\lvgl\lv_objx/lv_cont.h ****  * @param cont pointer to a container object
  88:..\lvgl\lv_objx/lv_cont.h ****  * @param hor_en true: enable the horizontal fit
  89:..\lvgl\lv_objx/lv_cont.h ****  * @param ver_en true: enable the vertical fit
  90:..\lvgl\lv_objx/lv_cont.h ****  */
  91:..\lvgl\lv_objx/lv_cont.h **** void lv_cont_set_fit(lv_obj_t * cont, bool hor_en, bool ver_en);
  92:..\lvgl\lv_objx/lv_cont.h **** 
  93:..\lvgl\lv_objx/lv_cont.h **** /**
ARM GAS  C:\Users\d3bug\AppData\Local\Temp\ccVxVFSv.s 			page 36


  94:..\lvgl\lv_objx/lv_cont.h ****  * Set the style of a container
  95:..\lvgl\lv_objx/lv_cont.h ****  * @param cont pointer to a container object
  96:..\lvgl\lv_objx/lv_cont.h ****  * @param style pointer to the new style
  97:..\lvgl\lv_objx/lv_cont.h ****  */
  98:..\lvgl\lv_objx/lv_cont.h **** static inline void lv_cont_set_style(lv_obj_t *cont, lv_style_t * style)
  99:..\lvgl\lv_objx/lv_cont.h **** {
 100:..\lvgl\lv_objx/lv_cont.h ****     lv_obj_set_style(cont, style);
 1153              		.loc 3 100 0
 1154 007e 8168     		ldr	r1, [r0, #8]
 1155 0080 2046     		mov	r0, r4
 1156              	.LVL208:
 1157 0082 FFF7FEFF 		bl	lv_obj_set_style
 1158              	.LVL209:
 1159 0086 1DE0     		b	.L71
 1160              	.LVL210:
 1161              	.L70:
 1162              	.LBE28:
 1163              	.LBE27:
 1164              	.LBB29:
 1165              	.LBB30:
 1166 0088 1949     		ldr	r1, .L75+20
 1167 008a 2046     		mov	r0, r4
 1168              	.LVL211:
 1169 008c FFF7FEFF 		bl	lv_obj_set_style
 1170              	.LVL212:
 1171 0090 18E0     		b	.L71
 1172              	.LVL213:
 1173              	.L69:
 1174              	.LBE30:
 1175              	.LBE29:
 1176              	.LBE26:
 1177              	.LBB31:
  99:..\lvgl\lv_objx/lv_cont.c ****         ext->hor_fit = copy_ext->hor_fit;
 1178              		.loc 1 99 0
 1179 0092 3046     		mov	r0, r6
 1180 0094 FFF7FEFF 		bl	lv_obj_get_ext_attr
 1181              	.LVL214:
 100:..\lvgl\lv_objx/lv_cont.c ****         ext->ver_fit = copy_ext->ver_fit;
 1182              		.loc 1 100 0
 1183 0098 0378     		ldrb	r3, [r0]	@ zero_extendqisi2
 1184 009a C3F30013 		ubfx	r3, r3, #4, #1
 1185 009e 2A78     		ldrb	r2, [r5]	@ zero_extendqisi2
 1186 00a0 63F30412 		bfi	r2, r3, #4, #1
 1187 00a4 2A70     		strb	r2, [r5]
 101:..\lvgl\lv_objx/lv_cont.c ****         ext->layout = copy_ext->layout;
 1188              		.loc 1 101 0
 1189 00a6 0378     		ldrb	r3, [r0]	@ zero_extendqisi2
 1190 00a8 C3F34013 		ubfx	r3, r3, #5, #1
 1191 00ac D2B2     		uxtb	r2, r2
 1192 00ae 63F34512 		bfi	r2, r3, #5, #1
 1193 00b2 2A70     		strb	r2, [r5]
 102:..\lvgl\lv_objx/lv_cont.c **** 
 1194              		.loc 1 102 0
 1195 00b4 0278     		ldrb	r2, [r0]	@ zero_extendqisi2
 1196 00b6 2B78     		ldrb	r3, [r5]	@ zero_extendqisi2
 1197 00b8 62F30303 		bfi	r3, r2, #0, #4
 1198 00bc 2B70     		strb	r3, [r5]
ARM GAS  C:\Users\d3bug\AppData\Local\Temp\ccVxVFSv.s 			page 37


 105:..\lvgl\lv_objx/lv_cont.c ****     }
 1199              		.loc 1 105 0
 1200 00be 2046     		mov	r0, r4
 1201              	.LVL215:
 1202 00c0 FFF7FEFF 		bl	lv_obj_refresh_style
 1203              	.LVL216:
 1204              	.L71:
 1205              	.LBE31:
 108:..\lvgl\lv_objx/lv_cont.c **** 
 1206              		.loc 1 108 0
 1207 00c4 0B4B     		ldr	r3, .L75+24
 1208 00c6 6C22     		movs	r2, #108
 1209 00c8 0549     		ldr	r1, .L75+4
 1210 00ca 0120     		movs	r0, #1
 1211 00cc FFF7FEFF 		bl	lv_log_add
 1212              	.LVL217:
 111:..\lvgl\lv_objx/lv_cont.c **** }
 1213              		.loc 1 111 0
 1214 00d0 2046     		mov	r0, r4
 1215 00d2 70BD     		pop	{r4, r5, r6, pc}
 1216              	.LVL218:
 1217              	.L72:
  72:..\lvgl\lv_objx/lv_cont.c **** 
 1218              		.loc 1 72 0
 1219 00d4 0020     		movs	r0, #0
 1220              	.LVL219:
 1221 00d6 70BD     		pop	{r4, r5, r6, pc}
 1222              	.LVL220:
 1223              	.L73:
  78:..\lvgl\lv_objx/lv_cont.c **** 
 1224              		.loc 1 78 0
 1225 00d8 0020     		movs	r0, #0
 1226              	.LVL221:
 112:..\lvgl\lv_objx/lv_cont.c **** 
 1227              		.loc 1 112 0
 1228 00da 70BD     		pop	{r4, r5, r6, pc}
 1229              	.LVL222:
 1230              	.L76:
 1231              		.align	2
 1232              	.L75:
 1233 00dc 00000000 		.word	.LC0
 1234 00e0 1C000000 		.word	.LC1
 1235 00e4 38000000 		.word	.LC2
 1236 00e8 00000000 		.word	.LANCHOR0
 1237 00ec 00000000 		.word	lv_cont_signal
 1238 00f0 00000000 		.word	lv_style_pretty
 1239 00f4 48000000 		.word	.LC3
 1240              		.cfi_endproc
 1241              	.LFE14:
 1242              		.size	lv_cont_create, .-lv_cont_create
 1243              		.section	.text.lv_cont_set_layout,"ax",%progbits
 1244              		.align	2
 1245              		.global	lv_cont_set_layout
 1246              		.thumb
 1247              		.thumb_func
 1248              		.type	lv_cont_set_layout, %function
 1249              	lv_cont_set_layout:
ARM GAS  C:\Users\d3bug\AppData\Local\Temp\ccVxVFSv.s 			page 38


 1250              	.LFB15:
 124:..\lvgl\lv_objx/lv_cont.c ****     lv_cont_ext_t * ext = lv_obj_get_ext_attr(cont);
 1251              		.loc 1 124 0
 1252              		.cfi_startproc
 1253              		@ args = 0, pretend = 0, frame = 0
 1254              		@ frame_needed = 0, uses_anonymous_args = 0
 1255              	.LVL223:
 1256 0000 38B5     		push	{r3, r4, r5, lr}
 1257              		.cfi_def_cfa_offset 16
 1258              		.cfi_offset 3, -16
 1259              		.cfi_offset 4, -12
 1260              		.cfi_offset 5, -8
 1261              		.cfi_offset 14, -4
 1262 0002 0546     		mov	r5, r0
 1263 0004 0C46     		mov	r4, r1
 125:..\lvgl\lv_objx/lv_cont.c ****     if(ext->layout == layout) return;
 1264              		.loc 1 125 0
 1265 0006 FFF7FEFF 		bl	lv_obj_get_ext_attr
 1266              	.LVL224:
 126:..\lvgl\lv_objx/lv_cont.c **** 
 1267              		.loc 1 126 0
 1268 000a 0378     		ldrb	r3, [r0]	@ zero_extendqisi2
 1269 000c 03F00F03 		and	r3, r3, #15
 1270 0010 A342     		cmp	r3, r4
 1271 0012 08D0     		beq	.L77
 128:..\lvgl\lv_objx/lv_cont.c **** 
 1272              		.loc 1 128 0
 1273 0014 0378     		ldrb	r3, [r0]	@ zero_extendqisi2
 1274 0016 64F30303 		bfi	r3, r4, #0, #4
 1275 001a 0370     		strb	r3, [r0]
 131:..\lvgl\lv_objx/lv_cont.c **** }
 1276              		.loc 1 131 0
 1277 001c AB69     		ldr	r3, [r5, #24]
 1278 001e 0022     		movs	r2, #0
 1279 0020 0121     		movs	r1, #1
 1280 0022 2846     		mov	r0, r5
 1281              	.LVL225:
 1282 0024 9847     		blx	r3
 1283              	.LVL226:
 1284              	.L77:
 1285 0026 38BD     		pop	{r3, r4, r5, pc}
 1286              		.cfi_endproc
 1287              	.LFE15:
 1288              		.size	lv_cont_set_layout, .-lv_cont_set_layout
 1289              		.section	.text.lv_cont_set_fit,"ax",%progbits
 1290              		.align	2
 1291              		.global	lv_cont_set_fit
 1292              		.thumb
 1293              		.thumb_func
 1294              		.type	lv_cont_set_fit, %function
 1295              	lv_cont_set_fit:
 1296              	.LFB16:
 143:..\lvgl\lv_objx/lv_cont.c ****     lv_obj_invalidate(cont);
 1297              		.loc 1 143 0
 1298              		.cfi_startproc
 1299              		@ args = 0, pretend = 0, frame = 0
 1300              		@ frame_needed = 0, uses_anonymous_args = 0
ARM GAS  C:\Users\d3bug\AppData\Local\Temp\ccVxVFSv.s 			page 39


 1301              	.LVL227:
 1302 0000 70B5     		push	{r4, r5, r6, lr}
 1303              		.cfi_def_cfa_offset 16
 1304              		.cfi_offset 4, -16
 1305              		.cfi_offset 5, -12
 1306              		.cfi_offset 6, -8
 1307              		.cfi_offset 14, -4
 1308 0002 0446     		mov	r4, r0
 1309 0004 0D46     		mov	r5, r1
 1310 0006 1646     		mov	r6, r2
 144:..\lvgl\lv_objx/lv_cont.c ****     lv_cont_ext_t * ext = lv_obj_get_ext_attr(cont);
 1311              		.loc 1 144 0
 1312 0008 FFF7FEFF 		bl	lv_obj_invalidate
 1313              	.LVL228:
 145:..\lvgl\lv_objx/lv_cont.c ****     if(ext->hor_fit == hor_en && ext->ver_fit == ver_en) return;
 1314              		.loc 1 145 0
 1315 000c 2046     		mov	r0, r4
 1316 000e FFF7FEFF 		bl	lv_obj_get_ext_attr
 1317              	.LVL229:
 146:..\lvgl\lv_objx/lv_cont.c **** 
 1318              		.loc 1 146 0
 1319 0012 0378     		ldrb	r3, [r0]	@ zero_extendqisi2
 1320 0014 C3F30013 		ubfx	r3, r3, #4, #1
 1321 0018 AB42     		cmp	r3, r5
 1322 001a 04D1     		bne	.L81
 146:..\lvgl\lv_objx/lv_cont.c **** 
 1323              		.loc 1 146 0 is_stmt 0 discriminator 1
 1324 001c 0378     		ldrb	r3, [r0]	@ zero_extendqisi2
 1325 001e C3F34013 		ubfx	r3, r3, #5, #1
 1326 0022 B342     		cmp	r3, r6
 1327 0024 14D0     		beq	.L80
 1328              	.L81:
 148:..\lvgl\lv_objx/lv_cont.c ****     ext->ver_fit = ver_en == false ? 0 : 1;
 1329              		.loc 1 148 0 is_stmt 1
 1330 0026 0DB9     		cbnz	r5, .L85
 1331 0028 0022     		movs	r2, #0
 1332 002a 00E0     		b	.L83
 1333              	.L85:
 1334 002c 0122     		movs	r2, #1
 1335              	.L83:
 148:..\lvgl\lv_objx/lv_cont.c ****     ext->ver_fit = ver_en == false ? 0 : 1;
 1336              		.loc 1 148 0 is_stmt 0 discriminator 4
 1337 002e 0378     		ldrb	r3, [r0]	@ zero_extendqisi2
 1338 0030 62F30413 		bfi	r3, r2, #4, #1
 1339 0034 0370     		strb	r3, [r0]
 149:..\lvgl\lv_objx/lv_cont.c **** 
 1340              		.loc 1 149 0 is_stmt 1 discriminator 4
 1341 0036 0EB9     		cbnz	r6, .L86
 149:..\lvgl\lv_objx/lv_cont.c **** 
 1342              		.loc 1 149 0 is_stmt 0
 1343 0038 0022     		movs	r2, #0
 1344 003a 00E0     		b	.L84
 1345              	.L86:
 1346 003c 0122     		movs	r2, #1
 1347              	.L84:
 149:..\lvgl\lv_objx/lv_cont.c **** 
 1348              		.loc 1 149 0 discriminator 4
ARM GAS  C:\Users\d3bug\AppData\Local\Temp\ccVxVFSv.s 			page 40


 1349 003e 0378     		ldrb	r3, [r0]	@ zero_extendqisi2
 1350 0040 62F34513 		bfi	r3, r2, #5, #1
 1351 0044 0370     		strb	r3, [r0]
 152:..\lvgl\lv_objx/lv_cont.c **** }
 1352              		.loc 1 152 0 is_stmt 1 discriminator 4
 1353 0046 A369     		ldr	r3, [r4, #24]
 1354 0048 0022     		movs	r2, #0
 1355 004a 0121     		movs	r1, #1
 1356 004c 2046     		mov	r0, r4
 1357              	.LVL230:
 1358 004e 9847     		blx	r3
 1359              	.LVL231:
 1360              	.L80:
 1361 0050 70BD     		pop	{r4, r5, r6, pc}
 1362              		.cfi_endproc
 1363              	.LFE16:
 1364              		.size	lv_cont_set_fit, .-lv_cont_set_fit
 1365 0052 00BF     		.section	.text.lv_cont_get_layout,"ax",%progbits
 1366              		.align	2
 1367              		.global	lv_cont_get_layout
 1368              		.thumb
 1369              		.thumb_func
 1370              		.type	lv_cont_get_layout, %function
 1371              	lv_cont_get_layout:
 1372              	.LFB17:
 165:..\lvgl\lv_objx/lv_cont.c ****     lv_cont_ext_t * ext = lv_obj_get_ext_attr(cont);
 1373              		.loc 1 165 0
 1374              		.cfi_startproc
 1375              		@ args = 0, pretend = 0, frame = 0
 1376              		@ frame_needed = 0, uses_anonymous_args = 0
 1377              	.LVL232:
 1378 0000 08B5     		push	{r3, lr}
 1379              		.cfi_def_cfa_offset 8
 1380              		.cfi_offset 3, -8
 1381              		.cfi_offset 14, -4
 166:..\lvgl\lv_objx/lv_cont.c ****     return ext->layout;
 1382              		.loc 1 166 0
 1383 0002 FFF7FEFF 		bl	lv_obj_get_ext_attr
 1384              	.LVL233:
 167:..\lvgl\lv_objx/lv_cont.c **** }
 1385              		.loc 1 167 0
 1386 0006 0078     		ldrb	r0, [r0]	@ zero_extendqisi2
 1387              	.LVL234:
 168:..\lvgl\lv_objx/lv_cont.c **** 
 1388              		.loc 1 168 0
 1389 0008 00F00F00 		and	r0, r0, #15
 1390 000c 08BD     		pop	{r3, pc}
 1391              		.cfi_endproc
 1392              	.LFE17:
 1393              		.size	lv_cont_get_layout, .-lv_cont_get_layout
 1394 000e 00BF     		.section	.text.lv_cont_layout_col,"ax",%progbits
 1395              		.align	2
 1396              		.thumb
 1397              		.thumb_func
 1398              		.type	lv_cont_layout_col, %function
 1399              	lv_cont_layout_col:
 1400              	.LFB24:
ARM GAS  C:\Users\d3bug\AppData\Local\Temp\ccVxVFSv.s 			page 41


 291:..\lvgl\lv_objx/lv_cont.c ****     lv_layout_t type = lv_cont_get_layout(cont);
 1401              		.loc 1 291 0
 1402              		.cfi_startproc
 1403              		@ args = 0, pretend = 0, frame = 0
 1404              		@ frame_needed = 0, uses_anonymous_args = 0
 1405              	.LVL235:
 1406 0000 2DE9F047 		push	{r4, r5, r6, r7, r8, r9, r10, lr}
 1407              		.cfi_def_cfa_offset 32
 1408              		.cfi_offset 4, -32
 1409              		.cfi_offset 5, -28
 1410              		.cfi_offset 6, -24
 1411              		.cfi_offset 7, -20
 1412              		.cfi_offset 8, -16
 1413              		.cfi_offset 9, -12
 1414              		.cfi_offset 10, -8
 1415              		.cfi_offset 14, -4
 1416 0004 82B0     		sub	sp, sp, #8
 1417              		.cfi_def_cfa_offset 40
 1418 0006 0646     		mov	r6, r0
 292:..\lvgl\lv_objx/lv_cont.c ****     lv_obj_t * child;
 1419              		.loc 1 292 0
 1420 0008 FFF7FEFF 		bl	lv_cont_get_layout
 1421              	.LVL236:
 1422 000c 0446     		mov	r4, r0
 1423              	.LVL237:
 297:..\lvgl\lv_objx/lv_cont.c ****     lv_coord_t hpad_corr;
 1424              		.loc 1 297 0
 1425 000e 3046     		mov	r0, r6
 1426 0010 FFF7FEFF 		bl	lv_obj_get_style
 1427              	.LVL238:
 1428 0014 0746     		mov	r7, r0
 1429              	.LVL239:
 300:..\lvgl\lv_objx/lv_cont.c ****         case LV_LAYOUT_COL_L:
 1430              		.loc 1 300 0
 1431 0016 032C     		cmp	r4, #3
 1432 0018 04D0     		beq	.L92
 1433 001a 042C     		cmp	r4, #4
 1434 001c 0CD0     		beq	.L93
 1435 001e 022C     		cmp	r4, #2
 1436 0020 13D1     		bne	.L101
 1437 0022 04E0     		b	.L94
 1438              	.L92:
 306:..\lvgl\lv_objx/lv_cont.c ****             align = LV_ALIGN_IN_TOP_MID;
 1439              		.loc 1 306 0
 1440 0024 4FF00008 		mov	r8, #0
 307:..\lvgl\lv_objx/lv_cont.c ****             break;
 1441              		.loc 1 307 0
 1442 0028 4FF00209 		mov	r9, #2
 1443 002c 11E0     		b	.L91
 1444              	.L94:
 302:..\lvgl\lv_objx/lv_cont.c ****             align = LV_ALIGN_IN_TOP_LEFT;
 1445              		.loc 1 302 0
 1446 002e B0F91680 		ldrsh	r8, [r0, #22]
 1447              	.LVL240:
 303:..\lvgl\lv_objx/lv_cont.c ****             break;
 1448              		.loc 1 303 0
 1449 0032 4FF00109 		mov	r9, #1
ARM GAS  C:\Users\d3bug\AppData\Local\Temp\ccVxVFSv.s 			page 42


 304:..\lvgl\lv_objx/lv_cont.c ****         case LV_LAYOUT_COL_M:
 1450              		.loc 1 304 0
 1451 0036 0CE0     		b	.L91
 1452              	.LVL241:
 1453              	.L93:
 310:..\lvgl\lv_objx/lv_cont.c ****             align = LV_ALIGN_IN_TOP_RIGHT;
 1454              		.loc 1 310 0
 1455 0038 B0F91680 		ldrsh	r8, [r0, #22]
 1456 003c C8F10008 		rsb	r8, r8, #0
 1457 0040 0FFA88F8 		sxth	r8, r8
 1458              	.LVL242:
 311:..\lvgl\lv_objx/lv_cont.c ****             break;
 1459              		.loc 1 311 0
 1460 0044 4FF00309 		mov	r9, #3
 312:..\lvgl\lv_objx/lv_cont.c ****         default:
 1461              		.loc 1 312 0
 1462 0048 03E0     		b	.L91
 1463              	.LVL243:
 1464              	.L101:
 314:..\lvgl\lv_objx/lv_cont.c ****             align = LV_ALIGN_IN_TOP_LEFT;
 1465              		.loc 1 314 0
 1466 004a 4FF00008 		mov	r8, #0
 315:..\lvgl\lv_objx/lv_cont.c ****             break;
 1467              		.loc 1 315 0
 1468 004e 4FF00109 		mov	r9, #1
 1469              	.L91:
 1470              	.LVL244:
 321:..\lvgl\lv_objx/lv_cont.c ****     /* Align the children */
 1471              		.loc 1 321 0
 1472 0052 0121     		movs	r1, #1
 1473 0054 3046     		mov	r0, r6
 1474              	.LVL245:
 1475 0056 FFF7FEFF 		bl	lv_obj_set_protect
 1476              	.LVL246:
 323:..\lvgl\lv_objx/lv_cont.c ****     LL_READ_BACK(cont->child_ll, child) {
 1477              		.loc 1 323 0
 1478 005a B7F914A0 		ldrsh	r10, [r7, #20]
 1479              	.LVL247:
 324:..\lvgl\lv_objx/lv_cont.c ****         if(lv_obj_get_hidden(child) != false ||
 1480              		.loc 1 324 0
 1481 005e 351D     		adds	r5, r6, #4
 1482 0060 2846     		mov	r0, r5
 1483 0062 FFF7FEFF 		bl	lv_ll_get_tail
 1484              	.LVL248:
 1485 0066 0446     		mov	r4, r0
 1486              	.LVL249:
 1487 0068 1EE0     		b	.L95
 1488              	.L99:
 325:..\lvgl\lv_objx/lv_cont.c ****                 lv_obj_is_protected(child, LV_PROTECT_POS) != false) continue;
 1489              		.loc 1 325 0
 1490 006a 2046     		mov	r0, r4
 1491              	.LVL250:
 1492 006c FFF7FEFF 		bl	lv_obj_get_hidden
 1493              	.LVL251:
 1494 0070 A8B9     		cbnz	r0, .L98
 326:..\lvgl\lv_objx/lv_cont.c **** 
 1495              		.loc 1 326 0 discriminator 1
ARM GAS  C:\Users\d3bug\AppData\Local\Temp\ccVxVFSv.s 			page 43


 1496 0072 0421     		movs	r1, #4
 1497 0074 2046     		mov	r0, r4
 1498 0076 FFF7FEFF 		bl	lv_obj_is_protected
 1499              	.LVL252:
 325:..\lvgl\lv_objx/lv_cont.c ****                 lv_obj_is_protected(child, LV_PROTECT_POS) != false) continue;
 1500              		.loc 1 325 0 discriminator 1
 1501 007a 80B9     		cbnz	r0, .L98
 328:..\lvgl\lv_objx/lv_cont.c ****         last_cord += lv_obj_get_height(child) + style->body.padding.inner;
 1502              		.loc 1 328 0
 1503 007c CDF800A0 		str	r10, [sp]
 1504 0080 4346     		mov	r3, r8
 1505 0082 4A46     		mov	r2, r9
 1506 0084 3146     		mov	r1, r6
 1507 0086 2046     		mov	r0, r4
 1508 0088 FFF7FEFF 		bl	lv_obj_align
 1509              	.LVL253:
 329:..\lvgl\lv_objx/lv_cont.c ****     }
 1510              		.loc 1 329 0
 1511 008c 2046     		mov	r0, r4
 1512 008e FFF7FEFF 		bl	lv_obj_get_height
 1513              	.LVL254:
 1514 0092 B7F91830 		ldrsh	r3, [r7, #24]
 1515 0096 1844     		add	r0, r0, r3
 1516 0098 5044     		add	r0, r0, r10
 1517 009a 0FFA80FA 		sxth	r10, r0
 1518              	.LVL255:
 1519              	.L98:
 324:..\lvgl\lv_objx/lv_cont.c ****         if(lv_obj_get_hidden(child) != false ||
 1520              		.loc 1 324 0 discriminator 2
 1521 009e 2146     		mov	r1, r4
 1522 00a0 2846     		mov	r0, r5
 1523 00a2 FFF7FEFF 		bl	lv_ll_get_prev
 1524              	.LVL256:
 1525 00a6 0446     		mov	r4, r0
 1526              	.LVL257:
 1527              	.L95:
 324:..\lvgl\lv_objx/lv_cont.c ****         if(lv_obj_get_hidden(child) != false ||
 1528              		.loc 1 324 0 is_stmt 0 discriminator 1
 1529 00a8 002C     		cmp	r4, #0
 1530 00aa DED1     		bne	.L99
 332:..\lvgl\lv_objx/lv_cont.c **** }
 1531              		.loc 1 332 0 is_stmt 1
 1532 00ac 0121     		movs	r1, #1
 1533 00ae 3046     		mov	r0, r6
 1534              	.LVL258:
 1535 00b0 FFF7FEFF 		bl	lv_obj_clear_protect
 1536              	.LVL259:
 333:..\lvgl\lv_objx/lv_cont.c **** 
 1537              		.loc 1 333 0
 1538 00b4 02B0     		add	sp, sp, #8
 1539              		.cfi_def_cfa_offset 32
 1540              		@ sp needed
 1541 00b6 BDE8F087 		pop	{r4, r5, r6, r7, r8, r9, r10, pc}
 1542              		.cfi_endproc
 1543              	.LFE24:
 1544              		.size	lv_cont_layout_col, .-lv_cont_layout_col
 1545 00ba 00BF     		.section	.text.lv_cont_layout_row,"ax",%progbits
ARM GAS  C:\Users\d3bug\AppData\Local\Temp\ccVxVFSv.s 			page 44


 1546              		.align	2
 1547              		.thumb
 1548              		.thumb_func
 1549              		.type	lv_cont_layout_row, %function
 1550              	lv_cont_layout_row:
 1551              	.LFB25:
 340:..\lvgl\lv_objx/lv_cont.c ****     lv_layout_t type = lv_cont_get_layout(cont);
 1552              		.loc 1 340 0
 1553              		.cfi_startproc
 1554              		@ args = 0, pretend = 0, frame = 0
 1555              		@ frame_needed = 0, uses_anonymous_args = 0
 1556              	.LVL260:
 1557 0000 2DE9F047 		push	{r4, r5, r6, r7, r8, r9, r10, lr}
 1558              		.cfi_def_cfa_offset 32
 1559              		.cfi_offset 4, -32
 1560              		.cfi_offset 5, -28
 1561              		.cfi_offset 6, -24
 1562              		.cfi_offset 7, -20
 1563              		.cfi_offset 8, -16
 1564              		.cfi_offset 9, -12
 1565              		.cfi_offset 10, -8
 1566              		.cfi_offset 14, -4
 1567 0004 82B0     		sub	sp, sp, #8
 1568              		.cfi_def_cfa_offset 40
 1569 0006 0646     		mov	r6, r0
 341:..\lvgl\lv_objx/lv_cont.c ****     lv_obj_t * child;
 1570              		.loc 1 341 0
 1571 0008 FFF7FEFF 		bl	lv_cont_get_layout
 1572              	.LVL261:
 1573 000c 0446     		mov	r4, r0
 1574              	.LVL262:
 346:..\lvgl\lv_objx/lv_cont.c ****     lv_coord_t vpad_corr = style->body.padding.ver;
 1575              		.loc 1 346 0
 1576 000e 3046     		mov	r0, r6
 1577 0010 FFF7FEFF 		bl	lv_obj_get_style
 1578              	.LVL263:
 1579 0014 0746     		mov	r7, r0
 1580              	.LVL264:
 349:..\lvgl\lv_objx/lv_cont.c ****         case LV_LAYOUT_ROW_T:
 1581              		.loc 1 349 0
 1582 0016 062C     		cmp	r4, #6
 1583 0018 04D0     		beq	.L105
 1584 001a 072C     		cmp	r4, #7
 1585 001c 0CD0     		beq	.L106
 1586 001e 052C     		cmp	r4, #5
 1587 0020 13D1     		bne	.L114
 1588 0022 04E0     		b	.L107
 1589              	.L105:
 355:..\lvgl\lv_objx/lv_cont.c ****             align = LV_ALIGN_IN_LEFT_MID;
 1590              		.loc 1 355 0
 1591 0024 4FF00008 		mov	r8, #0
 356:..\lvgl\lv_objx/lv_cont.c ****             break;
 1592              		.loc 1 356 0
 1593 0028 4FF00709 		mov	r9, #7
 1594 002c 11E0     		b	.L104
 1595              	.L107:
 351:..\lvgl\lv_objx/lv_cont.c ****             align = LV_ALIGN_IN_TOP_LEFT;
ARM GAS  C:\Users\d3bug\AppData\Local\Temp\ccVxVFSv.s 			page 45


 1596              		.loc 1 351 0
 1597 002e B0F91480 		ldrsh	r8, [r0, #20]
 1598              	.LVL265:
 352:..\lvgl\lv_objx/lv_cont.c ****             break;
 1599              		.loc 1 352 0
 1600 0032 4FF00109 		mov	r9, #1
 353:..\lvgl\lv_objx/lv_cont.c ****         case LV_LAYOUT_ROW_M:
 1601              		.loc 1 353 0
 1602 0036 0CE0     		b	.L104
 1603              	.LVL266:
 1604              	.L106:
 359:..\lvgl\lv_objx/lv_cont.c ****             align = LV_ALIGN_IN_BOTTOM_LEFT;
 1605              		.loc 1 359 0
 1606 0038 B0F91480 		ldrsh	r8, [r0, #20]
 1607 003c C8F10008 		rsb	r8, r8, #0
 1608 0040 0FFA88F8 		sxth	r8, r8
 1609              	.LVL267:
 360:..\lvgl\lv_objx/lv_cont.c ****             break;
 1610              		.loc 1 360 0
 1611 0044 4FF00409 		mov	r9, #4
 361:..\lvgl\lv_objx/lv_cont.c ****         default:
 1612              		.loc 1 361 0
 1613 0048 03E0     		b	.L104
 1614              	.LVL268:
 1615              	.L114:
 363:..\lvgl\lv_objx/lv_cont.c ****             align = LV_ALIGN_IN_TOP_LEFT;
 1616              		.loc 1 363 0
 1617 004a 4FF00008 		mov	r8, #0
 364:..\lvgl\lv_objx/lv_cont.c ****             break;
 1618              		.loc 1 364 0
 1619 004e 4FF00109 		mov	r9, #1
 1620              	.LVL269:
 1621              	.L104:
 370:..\lvgl\lv_objx/lv_cont.c **** 
 1622              		.loc 1 370 0
 1623 0052 0121     		movs	r1, #1
 1624 0054 3046     		mov	r0, r6
 1625              	.LVL270:
 1626 0056 FFF7FEFF 		bl	lv_obj_set_protect
 1627              	.LVL271:
 373:..\lvgl\lv_objx/lv_cont.c ****     LL_READ_BACK(cont->child_ll, child) {
 1628              		.loc 1 373 0
 1629 005a B7F916A0 		ldrsh	r10, [r7, #22]
 1630              	.LVL272:
 374:..\lvgl\lv_objx/lv_cont.c ****         if(lv_obj_get_hidden(child) != false ||
 1631              		.loc 1 374 0
 1632 005e 351D     		adds	r5, r6, #4
 1633 0060 2846     		mov	r0, r5
 1634 0062 FFF7FEFF 		bl	lv_ll_get_tail
 1635              	.LVL273:
 1636 0066 0446     		mov	r4, r0
 1637              	.LVL274:
 1638 0068 1FE0     		b	.L108
 1639              	.L112:
 375:..\lvgl\lv_objx/lv_cont.c ****                 lv_obj_is_protected(child, LV_PROTECT_POS) != false) continue;
 1640              		.loc 1 375 0
 1641 006a 2046     		mov	r0, r4
ARM GAS  C:\Users\d3bug\AppData\Local\Temp\ccVxVFSv.s 			page 46


 1642              	.LVL275:
 1643 006c FFF7FEFF 		bl	lv_obj_get_hidden
 1644              	.LVL276:
 1645 0070 B0B9     		cbnz	r0, .L111
 376:..\lvgl\lv_objx/lv_cont.c **** 
 1646              		.loc 1 376 0 discriminator 1
 1647 0072 0421     		movs	r1, #4
 1648 0074 2046     		mov	r0, r4
 1649 0076 FFF7FEFF 		bl	lv_obj_is_protected
 1650              	.LVL277:
 375:..\lvgl\lv_objx/lv_cont.c ****                 lv_obj_is_protected(child, LV_PROTECT_POS) != false) continue;
 1651              		.loc 1 375 0 discriminator 1
 1652 007a 88B9     		cbnz	r0, .L111
 378:..\lvgl\lv_objx/lv_cont.c ****         last_cord += lv_obj_get_width(child) + style->body.padding.inner;
 1653              		.loc 1 378 0
 1654 007c CDF80080 		str	r8, [sp]
 1655 0080 5346     		mov	r3, r10
 1656 0082 4A46     		mov	r2, r9
 1657 0084 3146     		mov	r1, r6
 1658 0086 2046     		mov	r0, r4
 1659 0088 FFF7FEFF 		bl	lv_obj_align
 1660              	.LVL278:
 379:..\lvgl\lv_objx/lv_cont.c ****     }
 1661              		.loc 1 379 0
 1662 008c 2046     		mov	r0, r4
 1663 008e FFF7FEFF 		bl	lv_obj_get_width
 1664              	.LVL279:
 1665 0092 B7F91830 		ldrsh	r3, [r7, #24]
 1666 0096 1844     		add	r0, r0, r3
 1667 0098 00EB0A03 		add	r3, r0, r10
 1668 009c 0FFA83FA 		sxth	r10, r3
 1669              	.LVL280:
 1670              	.L111:
 374:..\lvgl\lv_objx/lv_cont.c ****         if(lv_obj_get_hidden(child) != false ||
 1671              		.loc 1 374 0 discriminator 2
 1672 00a0 2146     		mov	r1, r4
 1673 00a2 2846     		mov	r0, r5
 1674 00a4 FFF7FEFF 		bl	lv_ll_get_prev
 1675              	.LVL281:
 1676 00a8 0446     		mov	r4, r0
 1677              	.LVL282:
 1678              	.L108:
 374:..\lvgl\lv_objx/lv_cont.c ****         if(lv_obj_get_hidden(child) != false ||
 1679              		.loc 1 374 0 is_stmt 0 discriminator 1
 1680 00aa 002C     		cmp	r4, #0
 1681 00ac DDD1     		bne	.L112
 382:..\lvgl\lv_objx/lv_cont.c **** }
 1682              		.loc 1 382 0 is_stmt 1
 1683 00ae 0121     		movs	r1, #1
 1684 00b0 3046     		mov	r0, r6
 1685              	.LVL283:
 1686 00b2 FFF7FEFF 		bl	lv_obj_clear_protect
 1687              	.LVL284:
 383:..\lvgl\lv_objx/lv_cont.c **** 
 1688              		.loc 1 383 0
 1689 00b6 02B0     		add	sp, sp, #8
 1690              		.cfi_def_cfa_offset 32
ARM GAS  C:\Users\d3bug\AppData\Local\Temp\ccVxVFSv.s 			page 47


 1691              		@ sp needed
 1692 00b8 BDE8F087 		pop	{r4, r5, r6, r7, r8, r9, r10, pc}
 1693              		.cfi_endproc
 1694              	.LFE25:
 1695              		.size	lv_cont_layout_row, .-lv_cont_layout_row
 1696              		.section	.text.lv_cont_refr_layout,"ax",%progbits
 1697              		.align	2
 1698              		.thumb
 1699              		.thumb_func
 1700              		.type	lv_cont_refr_layout, %function
 1701              	lv_cont_refr_layout:
 1702              	.LFB23:
 265:..\lvgl\lv_objx/lv_cont.c ****     lv_layout_t type = lv_cont_get_layout(cont);
 1703              		.loc 1 265 0
 1704              		.cfi_startproc
 1705              		@ args = 0, pretend = 0, frame = 0
 1706              		@ frame_needed = 0, uses_anonymous_args = 0
 1707              	.LVL285:
 1708 0000 38B5     		push	{r3, r4, r5, lr}
 1709              		.cfi_def_cfa_offset 16
 1710              		.cfi_offset 3, -16
 1711              		.cfi_offset 4, -12
 1712              		.cfi_offset 5, -8
 1713              		.cfi_offset 14, -4
 1714 0002 0546     		mov	r5, r0
 266:..\lvgl\lv_objx/lv_cont.c **** 
 1715              		.loc 1 266 0
 1716 0004 FFF7FEFF 		bl	lv_cont_get_layout
 1717              	.LVL286:
 1718 0008 0446     		mov	r4, r0
 1719              	.LVL287:
 269:..\lvgl\lv_objx/lv_cont.c **** 
 1720              		.loc 1 269 0
 1721 000a 0021     		movs	r1, #0
 1722 000c 2846     		mov	r0, r5
 1723 000e FFF7FEFF 		bl	lv_obj_get_child
 1724              	.LVL288:
 1725 0012 08B3     		cbz	r0, .L116
 271:..\lvgl\lv_objx/lv_cont.c **** 
 1726              		.loc 1 271 0
 1727 0014 04B3     		cbz	r4, .L116
 273:..\lvgl\lv_objx/lv_cont.c ****         lv_cont_layout_center(cont);
 1728              		.loc 1 273 0
 1729 0016 012C     		cmp	r4, #1
 1730 0018 03D1     		bne	.L118
 274:..\lvgl\lv_objx/lv_cont.c ****     } else if(type == LV_LAYOUT_COL_L || type == LV_LAYOUT_COL_M || type == LV_LAYOUT_COL_R) {
 1731              		.loc 1 274 0
 1732 001a 2846     		mov	r0, r5
 1733 001c FFF7FEFF 		bl	lv_cont_layout_center
 1734              	.LVL289:
 1735 0020 38BD     		pop	{r3, r4, r5, pc}
 1736              	.LVL290:
 1737              	.L118:
 275:..\lvgl\lv_objx/lv_cont.c ****         lv_cont_layout_col(cont);
 1738              		.loc 1 275 0
 1739 0022 A31E     		subs	r3, r4, #2
 1740 0024 DBB2     		uxtb	r3, r3
ARM GAS  C:\Users\d3bug\AppData\Local\Temp\ccVxVFSv.s 			page 48


 1741 0026 022B     		cmp	r3, #2
 1742 0028 03D8     		bhi	.L119
 276:..\lvgl\lv_objx/lv_cont.c ****     } else if(type == LV_LAYOUT_ROW_T || type == LV_LAYOUT_ROW_M || type == LV_LAYOUT_ROW_B) {
 1743              		.loc 1 276 0
 1744 002a 2846     		mov	r0, r5
 1745 002c FFF7FEFF 		bl	lv_cont_layout_col
 1746              	.LVL291:
 1747 0030 38BD     		pop	{r3, r4, r5, pc}
 1748              	.LVL292:
 1749              	.L119:
 277:..\lvgl\lv_objx/lv_cont.c ****         lv_cont_layout_row(cont);
 1750              		.loc 1 277 0
 1751 0032 631F     		subs	r3, r4, #5
 1752 0034 DBB2     		uxtb	r3, r3
 1753 0036 022B     		cmp	r3, #2
 1754 0038 03D8     		bhi	.L120
 278:..\lvgl\lv_objx/lv_cont.c ****     } else if(type == LV_LAYOUT_PRETTY) {
 1755              		.loc 1 278 0
 1756 003a 2846     		mov	r0, r5
 1757 003c FFF7FEFF 		bl	lv_cont_layout_row
 1758              	.LVL293:
 1759 0040 38BD     		pop	{r3, r4, r5, pc}
 1760              	.LVL294:
 1761              	.L120:
 279:..\lvgl\lv_objx/lv_cont.c ****         lv_cont_layout_pretty(cont);
 1762              		.loc 1 279 0
 1763 0042 082C     		cmp	r4, #8
 1764 0044 03D1     		bne	.L121
 280:..\lvgl\lv_objx/lv_cont.c ****     }  else if(type == LV_LAYOUT_GRID) {
 1765              		.loc 1 280 0
 1766 0046 2846     		mov	r0, r5
 1767 0048 FFF7FEFF 		bl	lv_cont_layout_pretty
 1768              	.LVL295:
 1769 004c 38BD     		pop	{r3, r4, r5, pc}
 1770              	.LVL296:
 1771              	.L121:
 281:..\lvgl\lv_objx/lv_cont.c ****         lv_cont_layout_grid(cont);
 1772              		.loc 1 281 0
 1773 004e 092C     		cmp	r4, #9
 1774 0050 02D1     		bne	.L116
 282:..\lvgl\lv_objx/lv_cont.c ****     }
 1775              		.loc 1 282 0
 1776 0052 2846     		mov	r0, r5
 1777 0054 FFF7FEFF 		bl	lv_cont_layout_grid
 1778              	.LVL297:
 1779              	.L116:
 1780 0058 38BD     		pop	{r3, r4, r5, pc}
 1781              		.cfi_endproc
 1782              	.LFE23:
 1783              		.size	lv_cont_refr_layout, .-lv_cont_refr_layout
 1784 005a 00BF     		.section	.text.lv_cont_signal,"ax",%progbits
 1785              		.align	2
 1786              		.thumb
 1787              		.thumb_func
 1788              		.type	lv_cont_signal, %function
 1789              	lv_cont_signal:
 1790              	.LFB22:
ARM GAS  C:\Users\d3bug\AppData\Local\Temp\ccVxVFSv.s 			page 49


 228:..\lvgl\lv_objx/lv_cont.c ****     lv_res_t res;
 1791              		.loc 1 228 0
 1792              		.cfi_startproc
 1793              		@ args = 0, pretend = 0, frame = 0
 1794              		@ frame_needed = 0, uses_anonymous_args = 0
 1795              	.LVL298:
 1796 0000 F8B5     		push	{r3, r4, r5, r6, r7, lr}
 1797              		.cfi_def_cfa_offset 24
 1798              		.cfi_offset 3, -24
 1799              		.cfi_offset 4, -20
 1800              		.cfi_offset 5, -16
 1801              		.cfi_offset 6, -12
 1802              		.cfi_offset 7, -8
 1803              		.cfi_offset 14, -4
 1804 0002 0746     		mov	r7, r0
 1805 0004 0D46     		mov	r5, r1
 1806 0006 1646     		mov	r6, r2
 232:..\lvgl\lv_objx/lv_cont.c ****     if(res != LV_RES_OK) return res;
 1807              		.loc 1 232 0
 1808 0008 244B     		ldr	r3, .L134
 1809 000a 1B68     		ldr	r3, [r3]
 1810 000c 9847     		blx	r3
 1811              	.LVL299:
 1812 000e 0446     		mov	r4, r0
 1813              	.LVL300:
 233:..\lvgl\lv_objx/lv_cont.c **** 
 1814              		.loc 1 233 0
 1815 0010 0128     		cmp	r0, #1
 1816 0012 41D1     		bne	.L124
 235:..\lvgl\lv_objx/lv_cont.c ****         lv_cont_refr_layout(cont);
 1817              		.loc 1 235 0
 1818 0014 032D     		cmp	r5, #3
 1819 0016 06D1     		bne	.L125
 236:..\lvgl\lv_objx/lv_cont.c ****         lv_cont_refr_autofit(cont);
 1820              		.loc 1 236 0
 1821 0018 3846     		mov	r0, r7
 1822              	.LVL301:
 1823 001a FFF7FEFF 		bl	lv_cont_refr_layout
 1824              	.LVL302:
 237:..\lvgl\lv_objx/lv_cont.c ****     } else if(sign == LV_SIGNAL_CHILD_CHG) {
 1825              		.loc 1 237 0
 1826 001e 3846     		mov	r0, r7
 1827 0020 FFF7FEFF 		bl	lv_cont_refr_autofit
 1828              	.LVL303:
 1829 0024 38E0     		b	.L124
 1830              	.LVL304:
 1831              	.L125:
 238:..\lvgl\lv_objx/lv_cont.c ****         lv_cont_refr_layout(cont);
 1832              		.loc 1 238 0
 1833 0026 012D     		cmp	r5, #1
 1834 0028 06D1     		bne	.L126
 239:..\lvgl\lv_objx/lv_cont.c ****         lv_cont_refr_autofit(cont);
 1835              		.loc 1 239 0
 1836 002a 3846     		mov	r0, r7
 1837              	.LVL305:
 1838 002c FFF7FEFF 		bl	lv_cont_refr_layout
 1839              	.LVL306:
ARM GAS  C:\Users\d3bug\AppData\Local\Temp\ccVxVFSv.s 			page 50


 240:..\lvgl\lv_objx/lv_cont.c ****     } else if(sign == LV_SIGNAL_CORD_CHG) {
 1840              		.loc 1 240 0
 1841 0030 3846     		mov	r0, r7
 1842 0032 FFF7FEFF 		bl	lv_cont_refr_autofit
 1843              	.LVL307:
 1844 0036 2FE0     		b	.L124
 1845              	.LVL308:
 1846              	.L126:
 241:..\lvgl\lv_objx/lv_cont.c ****         if(lv_obj_get_width(cont) != lv_area_get_width(param) ||
 1847              		.loc 1 241 0
 1848 0038 022D     		cmp	r5, #2
 1849 003a 1ED1     		bne	.L127
 242:..\lvgl\lv_objx/lv_cont.c ****                 lv_obj_get_height(cont) != lv_area_get_height(param)) {
 1850              		.loc 1 242 0
 1851 003c 3846     		mov	r0, r7
 1852              	.LVL309:
 1853 003e FFF7FEFF 		bl	lv_obj_get_width
 1854              	.LVL310:
 1855              	.LBB32:
 1856              	.LBB33:
  68:..\lvgl\lv_objx\../lv_core/../lv_misc/lv_area.h **** }
  69:..\lvgl\lv_objx\../lv_core/../lv_misc/lv_area.h **** 
  70:..\lvgl\lv_objx\../lv_core/../lv_misc/lv_area.h **** /**
  71:..\lvgl\lv_objx\../lv_core/../lv_misc/lv_area.h ****  * Get the width of an area
  72:..\lvgl\lv_objx\../lv_core/../lv_misc/lv_area.h ****  * @param area_p pointer to an area
  73:..\lvgl\lv_objx\../lv_core/../lv_misc/lv_area.h ****  * @return the width of the area (if x1 == x2 -> width = 1)
  74:..\lvgl\lv_objx\../lv_core/../lv_misc/lv_area.h ****  */
  75:..\lvgl\lv_objx\../lv_core/../lv_misc/lv_area.h **** static inline lv_coord_t lv_area_get_width(const lv_area_t * area_p)
  76:..\lvgl\lv_objx\../lv_core/../lv_misc/lv_area.h **** {
  77:..\lvgl\lv_objx\../lv_core/../lv_misc/lv_area.h ****     return area_p->x2 - area_p->x1 + 1;
 1857              		.loc 2 77 0
 1858 0042 B6F90430 		ldrsh	r3, [r6, #4]
 1859 0046 B6F90020 		ldrsh	r2, [r6]
 1860 004a 9B1A     		subs	r3, r3, r2
 1861 004c 0133     		adds	r3, r3, #1
 1862 004e 1BB2     		sxth	r3, r3
 1863              	.LVL311:
 1864              	.LBE33:
 1865              	.LBE32:
 242:..\lvgl\lv_objx/lv_cont.c ****                 lv_obj_get_height(cont) != lv_area_get_height(param)) {
 1866              		.loc 1 242 0
 1867 0050 9842     		cmp	r0, r3
 1868 0052 0BD1     		bne	.L128
 243:..\lvgl\lv_objx/lv_cont.c ****             lv_cont_refr_layout(cont);
 1869              		.loc 1 243 0 discriminator 1
 1870 0054 3846     		mov	r0, r7
 1871 0056 FFF7FEFF 		bl	lv_obj_get_height
 1872              	.LVL312:
 1873              	.LBB34:
 1874              	.LBB35:
  78:..\lvgl\lv_objx\../lv_core/../lv_misc/lv_area.h **** }
  79:..\lvgl\lv_objx\../lv_core/../lv_misc/lv_area.h **** 
  80:..\lvgl\lv_objx\../lv_core/../lv_misc/lv_area.h **** /**
  81:..\lvgl\lv_objx\../lv_core/../lv_misc/lv_area.h ****  * Get the height of an area
  82:..\lvgl\lv_objx\../lv_core/../lv_misc/lv_area.h ****  * @param area_p pointer to an area
  83:..\lvgl\lv_objx\../lv_core/../lv_misc/lv_area.h ****  * @return the height of the area (if y1 == y2 -> height = 1)
  84:..\lvgl\lv_objx\../lv_core/../lv_misc/lv_area.h ****  */
ARM GAS  C:\Users\d3bug\AppData\Local\Temp\ccVxVFSv.s 			page 51


  85:..\lvgl\lv_objx\../lv_core/../lv_misc/lv_area.h **** static inline lv_coord_t lv_area_get_height(const lv_area_t * area_p)
  86:..\lvgl\lv_objx\../lv_core/../lv_misc/lv_area.h **** {
  87:..\lvgl\lv_objx\../lv_core/../lv_misc/lv_area.h ****     return area_p->y2 - area_p->y1 + 1;
 1875              		.loc 2 87 0 discriminator 1
 1876 005a B6F90630 		ldrsh	r3, [r6, #6]
 1877 005e B6F90220 		ldrsh	r2, [r6, #2]
 1878 0062 9B1A     		subs	r3, r3, r2
 1879 0064 0133     		adds	r3, r3, #1
 1880 0066 1BB2     		sxth	r3, r3
 1881              	.LVL313:
 1882              	.LBE35:
 1883              	.LBE34:
 242:..\lvgl\lv_objx/lv_cont.c ****                 lv_obj_get_height(cont) != lv_area_get_height(param)) {
 1884              		.loc 1 242 0 discriminator 1
 1885 0068 9842     		cmp	r0, r3
 1886 006a 15D0     		beq	.L124
 1887              	.L128:
 244:..\lvgl\lv_objx/lv_cont.c ****             lv_cont_refr_autofit(cont);
 1888              		.loc 1 244 0
 1889 006c 3846     		mov	r0, r7
 1890 006e FFF7FEFF 		bl	lv_cont_refr_layout
 1891              	.LVL314:
 245:..\lvgl\lv_objx/lv_cont.c ****         }
 1892              		.loc 1 245 0
 1893 0072 3846     		mov	r0, r7
 1894 0074 FFF7FEFF 		bl	lv_cont_refr_autofit
 1895              	.LVL315:
 1896 0078 0EE0     		b	.L124
 1897              	.LVL316:
 1898              	.L127:
 247:..\lvgl\lv_objx/lv_cont.c ****         lv_obj_type_t * buf = param;
 1899              		.loc 1 247 0
 1900 007a 062D     		cmp	r5, #6
 1901 007c 0CD1     		bne	.L124
 1902 007e 05E0     		b	.L132
 1903              	.LVL317:
 1904              	.L131:
 1905              	.LBB36:
 251:..\lvgl\lv_objx/lv_cont.c ****         }
 1906              		.loc 1 251 0
 1907 0080 56F82320 		ldr	r2, [r6, r3, lsl #2]
 1908 0084 2AB1     		cbz	r2, .L130
 250:..\lvgl\lv_objx/lv_cont.c ****             if(buf->type[i] == NULL) break;
 1909              		.loc 1 250 0 discriminator 2
 1910 0086 0133     		adds	r3, r3, #1
 1911              	.LVL318:
 1912 0088 DBB2     		uxtb	r3, r3
 1913              	.LVL319:
 1914 008a 00E0     		b	.L129
 1915              	.LVL320:
 1916              	.L132:
 1917              	.LBE36:
 1918 008c 0023     		movs	r3, #0
 1919              	.L129:
 1920              	.LVL321:
 1921              	.LBB37:
 250:..\lvgl\lv_objx/lv_cont.c ****             if(buf->type[i] == NULL) break;
ARM GAS  C:\Users\d3bug\AppData\Local\Temp\ccVxVFSv.s 			page 52


 1922              		.loc 1 250 0 is_stmt 0 discriminator 1
 1923 008e 062B     		cmp	r3, #6
 1924 0090 F6D9     		bls	.L131
 1925              	.L130:
 253:..\lvgl\lv_objx/lv_cont.c ****     }
 1926              		.loc 1 253 0 is_stmt 1
 1927 0092 034A     		ldr	r2, .L134+4
 1928 0094 46F82320 		str	r2, [r6, r3, lsl #2]
 1929              	.LVL322:
 1930              	.L124:
 1931              	.LBE37:
 257:..\lvgl\lv_objx/lv_cont.c **** 
 1932              		.loc 1 257 0
 1933 0098 2046     		mov	r0, r4
 1934 009a F8BD     		pop	{r3, r4, r5, r6, r7, pc}
 1935              	.LVL323:
 1936              	.L135:
 1937              		.align	2
 1938              	.L134:
 1939 009c 00000000 		.word	.LANCHOR0
 1940 00a0 5C000000 		.word	.LC4
 1941              		.cfi_endproc
 1942              	.LFE22:
 1943              		.size	lv_cont_signal, .-lv_cont_signal
 1944              		.section	.text.lv_cont_get_hor_fit,"ax",%progbits
 1945              		.align	2
 1946              		.global	lv_cont_get_hor_fit
 1947              		.thumb
 1948              		.thumb_func
 1949              		.type	lv_cont_get_hor_fit, %function
 1950              	lv_cont_get_hor_fit:
 1951              	.LFB18:
 176:..\lvgl\lv_objx/lv_cont.c ****     lv_cont_ext_t * ext = lv_obj_get_ext_attr(cont);
 1952              		.loc 1 176 0
 1953              		.cfi_startproc
 1954              		@ args = 0, pretend = 0, frame = 0
 1955              		@ frame_needed = 0, uses_anonymous_args = 0
 1956              	.LVL324:
 1957 0000 08B5     		push	{r3, lr}
 1958              		.cfi_def_cfa_offset 8
 1959              		.cfi_offset 3, -8
 1960              		.cfi_offset 14, -4
 177:..\lvgl\lv_objx/lv_cont.c ****     return ext->hor_fit == 0 ? false : true;
 1961              		.loc 1 177 0
 1962 0002 FFF7FEFF 		bl	lv_obj_get_ext_attr
 1963              	.LVL325:
 178:..\lvgl\lv_objx/lv_cont.c **** }
 1964              		.loc 1 178 0
 1965 0006 0078     		ldrb	r0, [r0]	@ zero_extendqisi2
 1966              	.LVL326:
 179:..\lvgl\lv_objx/lv_cont.c **** 
 1967              		.loc 1 179 0
 1968 0008 C0F30010 		ubfx	r0, r0, #4, #1
 1969 000c 08BD     		pop	{r3, pc}
 1970              		.cfi_endproc
 1971              	.LFE18:
 1972              		.size	lv_cont_get_hor_fit, .-lv_cont_get_hor_fit
ARM GAS  C:\Users\d3bug\AppData\Local\Temp\ccVxVFSv.s 			page 53


 1973 000e 00BF     		.section	.text.lv_cont_get_ver_fit,"ax",%progbits
 1974              		.align	2
 1975              		.global	lv_cont_get_ver_fit
 1976              		.thumb
 1977              		.thumb_func
 1978              		.type	lv_cont_get_ver_fit, %function
 1979              	lv_cont_get_ver_fit:
 1980              	.LFB19:
 187:..\lvgl\lv_objx/lv_cont.c ****     lv_cont_ext_t * ext = lv_obj_get_ext_attr(cont);
 1981              		.loc 1 187 0
 1982              		.cfi_startproc
 1983              		@ args = 0, pretend = 0, frame = 0
 1984              		@ frame_needed = 0, uses_anonymous_args = 0
 1985              	.LVL327:
 1986 0000 08B5     		push	{r3, lr}
 1987              		.cfi_def_cfa_offset 8
 1988              		.cfi_offset 3, -8
 1989              		.cfi_offset 14, -4
 188:..\lvgl\lv_objx/lv_cont.c ****     return ext->ver_fit == 0 ? false : true;
 1990              		.loc 1 188 0
 1991 0002 FFF7FEFF 		bl	lv_obj_get_ext_attr
 1992              	.LVL328:
 189:..\lvgl\lv_objx/lv_cont.c **** }
 1993              		.loc 1 189 0
 1994 0006 0078     		ldrb	r0, [r0]	@ zero_extendqisi2
 1995              	.LVL329:
 190:..\lvgl\lv_objx/lv_cont.c **** 
 1996              		.loc 1 190 0
 1997 0008 C0F34010 		ubfx	r0, r0, #5, #1
 1998 000c 08BD     		pop	{r3, pc}
 1999              		.cfi_endproc
 2000              	.LFE19:
 2001              		.size	lv_cont_get_ver_fit, .-lv_cont_get_ver_fit
 2002 000e 00BF     		.section	.text.lv_cont_get_fit_width,"ax",%progbits
 2003              		.align	2
 2004              		.global	lv_cont_get_fit_width
 2005              		.thumb
 2006              		.thumb_func
 2007              		.type	lv_cont_get_fit_width, %function
 2008              	lv_cont_get_fit_width:
 2009              	.LFB20:
 198:..\lvgl\lv_objx/lv_cont.c ****     lv_style_t * style = lv_cont_get_style(cont);
 2010              		.loc 1 198 0
 2011              		.cfi_startproc
 2012              		@ args = 0, pretend = 0, frame = 0
 2013              		@ frame_needed = 0, uses_anonymous_args = 0
 2014              	.LVL330:
 2015 0000 38B5     		push	{r3, r4, r5, lr}
 2016              		.cfi_def_cfa_offset 16
 2017              		.cfi_offset 3, -16
 2018              		.cfi_offset 4, -12
 2019              		.cfi_offset 5, -8
 2020              		.cfi_offset 14, -4
 2021 0002 0546     		mov	r5, r0
 2022              	.LVL331:
 2023              	.LBB38:
 2024              	.LBB39:
ARM GAS  C:\Users\d3bug\AppData\Local\Temp\ccVxVFSv.s 			page 54


 101:..\lvgl\lv_objx/lv_cont.h **** }
 102:..\lvgl\lv_objx/lv_cont.h **** 
 103:..\lvgl\lv_objx/lv_cont.h **** /*=====================
 104:..\lvgl\lv_objx/lv_cont.h ****  * Getter functions
 105:..\lvgl\lv_objx/lv_cont.h ****  *====================*/
 106:..\lvgl\lv_objx/lv_cont.h **** 
 107:..\lvgl\lv_objx/lv_cont.h **** /**
 108:..\lvgl\lv_objx/lv_cont.h ****  * Get the layout of a container
 109:..\lvgl\lv_objx/lv_cont.h ****  * @param cont pointer to container object
 110:..\lvgl\lv_objx/lv_cont.h ****  * @return the layout from 'lv_cont_layout_t'
 111:..\lvgl\lv_objx/lv_cont.h ****  */
 112:..\lvgl\lv_objx/lv_cont.h **** lv_layout_t lv_cont_get_layout(const lv_obj_t * cont);
 113:..\lvgl\lv_objx/lv_cont.h **** 
 114:..\lvgl\lv_objx/lv_cont.h **** /**
 115:..\lvgl\lv_objx/lv_cont.h ****  * Get horizontal fit enable attribute of a container
 116:..\lvgl\lv_objx/lv_cont.h ****  * @param cont pointer to a container object
 117:..\lvgl\lv_objx/lv_cont.h ****  * @return true: horizontal fit is enabled; false: disabled
 118:..\lvgl\lv_objx/lv_cont.h ****  */
 119:..\lvgl\lv_objx/lv_cont.h **** bool lv_cont_get_hor_fit(const lv_obj_t * cont);
 120:..\lvgl\lv_objx/lv_cont.h **** 
 121:..\lvgl\lv_objx/lv_cont.h **** /**
 122:..\lvgl\lv_objx/lv_cont.h ****  * Get vertical fit enable attribute of a container
 123:..\lvgl\lv_objx/lv_cont.h ****  * @param cont pointer to a container object
 124:..\lvgl\lv_objx/lv_cont.h ****  * @return true: vertical fit is enabled; false: disabled
 125:..\lvgl\lv_objx/lv_cont.h ****  */
 126:..\lvgl\lv_objx/lv_cont.h **** bool lv_cont_get_ver_fit(const lv_obj_t * cont);
 127:..\lvgl\lv_objx/lv_cont.h **** 
 128:..\lvgl\lv_objx/lv_cont.h **** 
 129:..\lvgl\lv_objx/lv_cont.h **** /**
 130:..\lvgl\lv_objx/lv_cont.h ****  * Get that width reduced by the horizontal padding. Useful if a layout is used.
 131:..\lvgl\lv_objx/lv_cont.h ****  * @param cont pointer to a container object
 132:..\lvgl\lv_objx/lv_cont.h ****  * @return the width which still fits into the container
 133:..\lvgl\lv_objx/lv_cont.h ****  */
 134:..\lvgl\lv_objx/lv_cont.h **** lv_coord_t lv_cont_get_fit_width(lv_obj_t * cont);
 135:..\lvgl\lv_objx/lv_cont.h **** 
 136:..\lvgl\lv_objx/lv_cont.h **** /**
 137:..\lvgl\lv_objx/lv_cont.h ****  * Get that height reduced by the vertical padding. Useful if a layout is used.
 138:..\lvgl\lv_objx/lv_cont.h ****  * @param cont pointer to a container object
 139:..\lvgl\lv_objx/lv_cont.h ****  * @return the height which still fits into the container
 140:..\lvgl\lv_objx/lv_cont.h ****  */
 141:..\lvgl\lv_objx/lv_cont.h **** lv_coord_t lv_cont_get_fit_height(lv_obj_t * cont);
 142:..\lvgl\lv_objx/lv_cont.h **** 
 143:..\lvgl\lv_objx/lv_cont.h **** /**
 144:..\lvgl\lv_objx/lv_cont.h ****  * Get the style of a container
 145:..\lvgl\lv_objx/lv_cont.h ****  * @param cont pointer to a container object
 146:..\lvgl\lv_objx/lv_cont.h ****  * @return pointer to the container's style
 147:..\lvgl\lv_objx/lv_cont.h ****  */
 148:..\lvgl\lv_objx/lv_cont.h **** static inline lv_style_t * lv_cont_get_style(const lv_obj_t *cont)
 149:..\lvgl\lv_objx/lv_cont.h **** {
 150:..\lvgl\lv_objx/lv_cont.h ****     return lv_obj_get_style(cont);
 2025              		.loc 3 150 0
 2026 0004 FFF7FEFF 		bl	lv_obj_get_style
 2027              	.LVL332:
 2028 0008 0446     		mov	r4, r0
 2029              	.LVL333:
 2030              	.LBE39:
 2031              	.LBE38:
ARM GAS  C:\Users\d3bug\AppData\Local\Temp\ccVxVFSv.s 			page 55


 201:..\lvgl\lv_objx/lv_cont.c **** }
 2032              		.loc 1 201 0
 2033 000a 2846     		mov	r0, r5
 2034 000c FFF7FEFF 		bl	lv_obj_get_width
 2035              	.LVL334:
 2036 0010 B4F91630 		ldrsh	r3, [r4, #22]
 2037 0014 A0EB4300 		sub	r0, r0, r3, lsl #1
 202:..\lvgl\lv_objx/lv_cont.c **** 
 2038              		.loc 1 202 0
 2039 0018 00B2     		sxth	r0, r0
 2040 001a 38BD     		pop	{r3, r4, r5, pc}
 2041              		.cfi_endproc
 2042              	.LFE20:
 2043              		.size	lv_cont_get_fit_width, .-lv_cont_get_fit_width
 2044              		.section	.text.lv_cont_get_fit_height,"ax",%progbits
 2045              		.align	2
 2046              		.global	lv_cont_get_fit_height
 2047              		.thumb
 2048              		.thumb_func
 2049              		.type	lv_cont_get_fit_height, %function
 2050              	lv_cont_get_fit_height:
 2051              	.LFB21:
 210:..\lvgl\lv_objx/lv_cont.c ****     lv_style_t * style = lv_cont_get_style(cont);
 2052              		.loc 1 210 0
 2053              		.cfi_startproc
 2054              		@ args = 0, pretend = 0, frame = 0
 2055              		@ frame_needed = 0, uses_anonymous_args = 0
 2056              	.LVL335:
 2057 0000 38B5     		push	{r3, r4, r5, lr}
 2058              		.cfi_def_cfa_offset 16
 2059              		.cfi_offset 3, -16
 2060              		.cfi_offset 4, -12
 2061              		.cfi_offset 5, -8
 2062              		.cfi_offset 14, -4
 2063 0002 0546     		mov	r5, r0
 2064              	.LVL336:
 2065              	.LBB40:
 2066              	.LBB41:
 2067              		.loc 3 150 0
 2068 0004 FFF7FEFF 		bl	lv_obj_get_style
 2069              	.LVL337:
 2070 0008 0446     		mov	r4, r0
 2071              	.LVL338:
 2072              	.LBE41:
 2073              	.LBE40:
 213:..\lvgl\lv_objx/lv_cont.c **** }
 2074              		.loc 1 213 0
 2075 000a 2846     		mov	r0, r5
 2076 000c FFF7FEFF 		bl	lv_obj_get_width
 2077              	.LVL339:
 2078 0010 B4F91630 		ldrsh	r3, [r4, #22]
 2079 0014 A0EB4300 		sub	r0, r0, r3, lsl #1
 214:..\lvgl\lv_objx/lv_cont.c **** 
 2080              		.loc 1 214 0
 2081 0018 00B2     		sxth	r0, r0
 2082 001a 38BD     		pop	{r3, r4, r5, pc}
 2083              		.cfi_endproc
ARM GAS  C:\Users\d3bug\AppData\Local\Temp\ccVxVFSv.s 			page 56


 2084              	.LFE21:
 2085              		.size	lv_cont_get_fit_height, .-lv_cont_get_fit_height
 2086              		.section	.rodata.str1.4,"aMS",%progbits,1
 2087              		.align	2
 2088              	.LC0:
 2089 0000 636F6E74 		.ascii	"container create started\000"
 2089      61696E65 
 2089      72206372 
 2089      65617465 
 2089      20737461 
 2090 0019 000000   		.space	3
 2091              	.LC1:
 2092 001c 2E2E5C6C 		.ascii	"..\\lvgl\\lv_objx\\lv_cont.c\000"
 2092      76676C5C 
 2092      6C765F6F 
 2092      626A785C 
 2092      6C765F63 
 2093 0036 0000     		.space	2
 2094              	.LC2:
 2095 0038 4F757420 		.ascii	"Out of memory!\000"
 2095      6F66206D 
 2095      656D6F72 
 2095      792100
 2096 0047 00       		.space	1
 2097              	.LC3:
 2098 0048 636F6E74 		.ascii	"container created\000"
 2098      61696E65 
 2098      72206372 
 2098      65617465 
 2098      6400
 2099 005a 0000     		.space	2
 2100              	.LC4:
 2101 005c 6C765F63 		.ascii	"lv_cont\000"
 2101      6F6E7400 
 2102              		.bss
 2103              		.align	2
 2104              		.set	.LANCHOR0,. + 0
 2105              		.type	ancestor_signal, %object
 2106              		.size	ancestor_signal, 4
 2107              	ancestor_signal:
 2108 0000 00000000 		.space	4
 2109              		.text
 2110              	.Letext0:
 2111              		.file 4 "c:\\program files (x86)\\cypress\\psoc creator\\4.2\\psoc creator\\import\\gnu\\arm\\5.4.
 2112              		.file 5 "c:\\program files (x86)\\cypress\\psoc creator\\4.2\\psoc creator\\import\\gnu\\arm\\5.4.
 2113              		.file 6 "..\\lvgl\\lv_objx\\../lv_core/../lv_misc/lv_color.h"
 2114              		.file 7 "..\\lvgl\\lv_objx\\../lv_core/../lv_misc/lv_font.h"
 2115              		.file 8 "..\\lvgl\\lv_objx\\../lv_core/lv_style.h"
 2116              		.file 9 "..\\lvgl\\lv_objx\\../lv_core/../lv_misc/lv_ll.h"
 2117              		.file 10 "..\\lvgl\\lv_objx\\../lv_core/lv_obj.h"
 2118              		.file 11 "..\\lvgl\\lv_objx\\../lv_themes/lv_theme.h"
 2119              		.file 12 "..\\lvgl\\lv_objx\\../lv_core/../lv_misc/lv_log.h"