ARM GAS  C:\Users\d3bug\AppData\Local\Temp\ccyFL1o4.s 			page 1


   1              		.syntax unified
   2              		.cpu cortex-m3
   3              		.fpu softvfp
   4              		.eabi_attribute 20, 1
   5              		.eabi_attribute 21, 1
   6              		.eabi_attribute 23, 3
   7              		.eabi_attribute 24, 1
   8              		.eabi_attribute 25, 1
   9              		.eabi_attribute 26, 1
  10              		.eabi_attribute 30, 1
  11              		.eabi_attribute 34, 1
  12              		.eabi_attribute 18, 4
  13              		.thumb
  14              		.syntax unified
  15              		.file	"lv_circ.c"
  16              		.text
  17              	.Ltext0:
  18              		.cfi_sections	.debug_frame
  19              		.section	.text.lv_circ_init,"ax",%progbits
  20              		.align	2
  21              		.global	lv_circ_init
  22              		.thumb
  23              		.thumb_func
  24              		.type	lv_circ_init, %function
  25              	lv_circ_init:
  26              	.LFB3:
  27              		.file 1 "..\\lvgl\\lv_misc\\lv_circ.c"
   1:..\lvgl\lv_misc/lv_circ.c **** /**
   2:..\lvgl\lv_misc/lv_circ.c ****  * @file lv_circ.c
   3:..\lvgl\lv_misc/lv_circ.c ****  * Circle drawing algorithm (with Bresenham)
   4:..\lvgl\lv_misc/lv_circ.c ****  * Only a 1/8 circle is calculated. Use CIRC_OCT1_X, CIRC_OCT1_Y macros to get
   5:..\lvgl\lv_misc/lv_circ.c ****  * the other octets.
   6:..\lvgl\lv_misc/lv_circ.c ****  */
   7:..\lvgl\lv_misc/lv_circ.c **** 
   8:..\lvgl\lv_misc/lv_circ.c **** /*********************
   9:..\lvgl\lv_misc/lv_circ.c ****  *      INCLUDES
  10:..\lvgl\lv_misc/lv_circ.c ****  *********************/
  11:..\lvgl\lv_misc/lv_circ.c **** #include "lv_circ.h"
  12:..\lvgl\lv_misc/lv_circ.c **** 
  13:..\lvgl\lv_misc/lv_circ.c **** /*********************
  14:..\lvgl\lv_misc/lv_circ.c ****  *      DEFINES
  15:..\lvgl\lv_misc/lv_circ.c ****  *********************/
  16:..\lvgl\lv_misc/lv_circ.c **** 
  17:..\lvgl\lv_misc/lv_circ.c **** /**********************
  18:..\lvgl\lv_misc/lv_circ.c ****  *      TYPEDEFS
  19:..\lvgl\lv_misc/lv_circ.c ****  **********************/
  20:..\lvgl\lv_misc/lv_circ.c **** 
  21:..\lvgl\lv_misc/lv_circ.c **** /**********************
  22:..\lvgl\lv_misc/lv_circ.c ****  *  STATIC PROTOTYPES
  23:..\lvgl\lv_misc/lv_circ.c ****  **********************/
  24:..\lvgl\lv_misc/lv_circ.c **** 
  25:..\lvgl\lv_misc/lv_circ.c **** /**********************
  26:..\lvgl\lv_misc/lv_circ.c ****  *  STATIC VARIABLES
  27:..\lvgl\lv_misc/lv_circ.c ****  **********************/
  28:..\lvgl\lv_misc/lv_circ.c **** 
  29:..\lvgl\lv_misc/lv_circ.c **** /**********************
  30:..\lvgl\lv_misc/lv_circ.c ****  *      MACROS
ARM GAS  C:\Users\d3bug\AppData\Local\Temp\ccyFL1o4.s 			page 2


  31:..\lvgl\lv_misc/lv_circ.c ****  **********************/
  32:..\lvgl\lv_misc/lv_circ.c **** 
  33:..\lvgl\lv_misc/lv_circ.c **** /**********************
  34:..\lvgl\lv_misc/lv_circ.c ****  *   GLOBAL FUNCTIONS
  35:..\lvgl\lv_misc/lv_circ.c ****  **********************/
  36:..\lvgl\lv_misc/lv_circ.c **** 
  37:..\lvgl\lv_misc/lv_circ.c **** /**
  38:..\lvgl\lv_misc/lv_circ.c ****  * Initialize the circle drawing
  39:..\lvgl\lv_misc/lv_circ.c ****  * @param c pointer to a point. The coordinates will be calculated here
  40:..\lvgl\lv_misc/lv_circ.c ****  * @param tmp point to a variable. It will store temporary data
  41:..\lvgl\lv_misc/lv_circ.c ****  * @param radius radius of the circle
  42:..\lvgl\lv_misc/lv_circ.c ****  */
  43:..\lvgl\lv_misc/lv_circ.c **** void lv_circ_init(lv_point_t * c, lv_coord_t * tmp, lv_coord_t radius)
  44:..\lvgl\lv_misc/lv_circ.c **** {
  28              		.loc 1 44 0
  29              		.cfi_startproc
  30              		@ args = 0, pretend = 0, frame = 0
  31              		@ frame_needed = 0, uses_anonymous_args = 0
  32              		@ link register save eliminated.
  33              	.LVL0:
  45:..\lvgl\lv_misc/lv_circ.c ****     c->x = radius;
  34              		.loc 1 45 0
  35 0000 0280     		strh	r2, [r0]	@ movhi
  46:..\lvgl\lv_misc/lv_circ.c ****     c->y = 0;
  36              		.loc 1 46 0
  37 0002 0023     		movs	r3, #0
  38 0004 4380     		strh	r3, [r0, #2]	@ movhi
  47:..\lvgl\lv_misc/lv_circ.c ****     *tmp = 1 - radius;
  39              		.loc 1 47 0
  40 0006 C2F10102 		rsb	r2, r2, #1
  41              	.LVL1:
  42 000a 0A80     		strh	r2, [r1]	@ movhi
  43              	.LVL2:
  44 000c 7047     		bx	lr
  45              		.cfi_endproc
  46              	.LFE3:
  47              		.size	lv_circ_init, .-lv_circ_init
  48 000e 00BF     		.section	.text.lv_circ_cont,"ax",%progbits
  49              		.align	2
  50              		.global	lv_circ_cont
  51              		.thumb
  52              		.thumb_func
  53              		.type	lv_circ_cont, %function
  54              	lv_circ_cont:
  55              	.LFB4:
  48:..\lvgl\lv_misc/lv_circ.c **** }
  49:..\lvgl\lv_misc/lv_circ.c **** 
  50:..\lvgl\lv_misc/lv_circ.c **** /**
  51:..\lvgl\lv_misc/lv_circ.c ****  * Test the circle drawing is ready or not
  52:..\lvgl\lv_misc/lv_circ.c ****  * @param c same as in circ_init
  53:..\lvgl\lv_misc/lv_circ.c ****  * @return true if the circle is not ready yet
  54:..\lvgl\lv_misc/lv_circ.c ****  */
  55:..\lvgl\lv_misc/lv_circ.c **** bool lv_circ_cont(lv_point_t * c)
  56:..\lvgl\lv_misc/lv_circ.c **** {
  56              		.loc 1 56 0
  57              		.cfi_startproc
  58              		@ args = 0, pretend = 0, frame = 0
ARM GAS  C:\Users\d3bug\AppData\Local\Temp\ccyFL1o4.s 			page 3


  59              		@ frame_needed = 0, uses_anonymous_args = 0
  60              		@ link register save eliminated.
  61              	.LVL3:
  57:..\lvgl\lv_misc/lv_circ.c ****     return c->y <= c->x ? true : false;
  62              		.loc 1 57 0
  63 0000 B0F90220 		ldrsh	r2, [r0, #2]
  64 0004 B0F90000 		ldrsh	r0, [r0]
  65              	.LVL4:
  58:..\lvgl\lv_misc/lv_circ.c **** }
  66              		.loc 1 58 0
  67 0008 8242     		cmp	r2, r0
  68 000a CCBF     		ite	gt
  69 000c 0020     		movgt	r0, #0
  70 000e 0120     		movle	r0, #1
  71 0010 7047     		bx	lr
  72              		.cfi_endproc
  73              	.LFE4:
  74              		.size	lv_circ_cont, .-lv_circ_cont
  75 0012 00BF     		.section	.text.lv_circ_next,"ax",%progbits
  76              		.align	2
  77              		.global	lv_circ_next
  78              		.thumb
  79              		.thumb_func
  80              		.type	lv_circ_next, %function
  81              	lv_circ_next:
  82              	.LFB5:
  59:..\lvgl\lv_misc/lv_circ.c **** 
  60:..\lvgl\lv_misc/lv_circ.c **** /**
  61:..\lvgl\lv_misc/lv_circ.c ****  * Get the next point from the circle
  62:..\lvgl\lv_misc/lv_circ.c ****  * @param c same as in circ_init. The next point stored here.
  63:..\lvgl\lv_misc/lv_circ.c ****  * @param tmp same as in circ_init.
  64:..\lvgl\lv_misc/lv_circ.c ****  */
  65:..\lvgl\lv_misc/lv_circ.c **** void lv_circ_next(lv_point_t * c, lv_coord_t * tmp)
  66:..\lvgl\lv_misc/lv_circ.c **** {
  83              		.loc 1 66 0
  84              		.cfi_startproc
  85              		@ args = 0, pretend = 0, frame = 0
  86              		@ frame_needed = 0, uses_anonymous_args = 0
  87              		@ link register save eliminated.
  88              	.LVL5:
  89 0000 10B4     		push	{r4}
  90              		.cfi_def_cfa_offset 4
  91              		.cfi_offset 4, -4
  67:..\lvgl\lv_misc/lv_circ.c ****     c->y++;
  92              		.loc 1 67 0
  93 0002 B0F90230 		ldrsh	r3, [r0, #2]
  94 0006 0133     		adds	r3, r3, #1
  95 0008 9BB2     		uxth	r3, r3
  96 000a 1AB2     		sxth	r2, r3
  97 000c 4280     		strh	r2, [r0, #2]	@ movhi
  68:..\lvgl\lv_misc/lv_circ.c **** 
  69:..\lvgl\lv_misc/lv_circ.c ****     if(*tmp <= 0) {
  98              		.loc 1 69 0
  99 000e B1F90040 		ldrsh	r4, [r1]
 100 0012 002C     		cmp	r4, #0
 101 0014 04DC     		bgt	.L4
  70:..\lvgl\lv_misc/lv_circ.c ****         (*tmp) += 2 * c->y + 1;   // Change in decision criterion for y -> y+1
ARM GAS  C:\Users\d3bug\AppData\Local\Temp\ccyFL1o4.s 			page 4


 102              		.loc 1 70 0
 103 0016 04EB4303 		add	r3, r4, r3, lsl #1
 104 001a 0133     		adds	r3, r3, #1
 105 001c 0B80     		strh	r3, [r1]	@ movhi
 106 001e 0AE0     		b	.L3
 107              	.L4:
  71:..\lvgl\lv_misc/lv_circ.c ****     } else {
  72:..\lvgl\lv_misc/lv_circ.c ****         c->x--;
 108              		.loc 1 72 0
 109 0020 B0F90030 		ldrsh	r3, [r0]
 110 0024 013B     		subs	r3, r3, #1
 111 0026 1BB2     		sxth	r3, r3
 112 0028 0380     		strh	r3, [r0]	@ movhi
  73:..\lvgl\lv_misc/lv_circ.c ****         (*tmp) += 2 * (c->y - c->x) + 1;   // Change for y -> y+1, x -> x-1
 113              		.loc 1 73 0
 114 002a D31A     		subs	r3, r2, r3
 115 002c 0A88     		ldrh	r2, [r1]
 116 002e 02EB4303 		add	r3, r2, r3, lsl #1
 117 0032 0133     		adds	r3, r3, #1
 118 0034 0B80     		strh	r3, [r1]	@ movhi
 119              	.L3:
  74:..\lvgl\lv_misc/lv_circ.c ****     }
  75:..\lvgl\lv_misc/lv_circ.c **** }
 120              		.loc 1 75 0
 121 0036 10BC     		pop	{r4}
 122              		.cfi_restore 4
 123              		.cfi_def_cfa_offset 0
 124 0038 7047     		bx	lr
 125              		.cfi_endproc
 126              	.LFE5:
 127              		.size	lv_circ_next, .-lv_circ_next
 128 003a 00BF     		.text
 129              	.Letext0:
 130              		.file 2 "c:\\program files (x86)\\cypress\\psoc creator\\4.2\\psoc creator\\import\\gnu\\arm\\5.4.
 131              		.file 3 "c:\\program files (x86)\\cypress\\psoc creator\\4.2\\psoc creator\\import\\gnu\\arm\\5.4.
 132              		.file 4 "..\\lvgl\\lv_misc\\lv_area.h"