ARM GAS  C:\Users\d3bug\AppData\Local\Temp\ccVxVFSv.s 			page 1


   1              		.syntax unified
   2              		.cpu cortex-m3
   3              		.fpu softvfp
   4              		.eabi_attribute 20, 1
   5              		.eabi_attribute 21, 1
   6              		.eabi_attribute 23, 3
   7              		.eabi_attribute 24, 1
   8              		.eabi_attribute 25, 1
   9              		.eabi_attribute 26, 1
  10              		.eabi_attribute 30, 1
  11              		.eabi_attribute 34, 1
  12              		.eabi_attribute 18, 4
  13              		.thumb
  14              		.syntax unified
  15              		.file	"lv_cont.c"
  16              		.text
  17              	.Ltext0:
  18              		.cfi_sections	.debug_frame
  19              		.section	.text.lv_cont_layout_center,"ax",%progbits
  20              		.align	2
  21              		.thumb
  22              		.thumb_func
  23              		.type	lv_cont_layout_center, %function
  24              	lv_cont_layout_center:
  25              	.LFB26:
  26              		.file 1 "..\\lvgl\\lv_objx\\lv_cont.c"
   1:..\lvgl\lv_objx/lv_cont.c **** /**
   2:..\lvgl\lv_objx/lv_cont.c ****  * @file lv_cont.c
   3:..\lvgl\lv_objx/lv_cont.c ****  *
   4:..\lvgl\lv_objx/lv_cont.c ****  */
   5:..\lvgl\lv_objx/lv_cont.c **** 
   6:..\lvgl\lv_objx/lv_cont.c **** /*********************
   7:..\lvgl\lv_objx/lv_cont.c ****  *      INCLUDES
   8:..\lvgl\lv_objx/lv_cont.c ****  *********************/
   9:..\lvgl\lv_objx/lv_cont.c **** 
  10:..\lvgl\lv_objx/lv_cont.c **** #include "lv_cont.h"
  11:..\lvgl\lv_objx/lv_cont.c **** #if USE_LV_CONT != 0
  12:..\lvgl\lv_objx/lv_cont.c **** 
  13:..\lvgl\lv_objx/lv_cont.c **** #include <stdbool.h>
  14:..\lvgl\lv_objx/lv_cont.c **** #include <stdint.h>
  15:..\lvgl\lv_objx/lv_cont.c **** #include <string.h>
  16:..\lvgl\lv_objx/lv_cont.c **** 
  17:..\lvgl\lv_objx/lv_cont.c **** #include "../lv_draw/lv_draw.h"
  18:..\lvgl\lv_objx/lv_cont.c **** #include "../lv_draw/lv_draw_vbasic.h"
  19:..\lvgl\lv_objx/lv_cont.c **** #include "../lv_themes/lv_theme.h"
  20:..\lvgl\lv_objx/lv_cont.c **** #include "../lv_misc/lv_area.h"
  21:..\lvgl\lv_objx/lv_cont.c **** #include "../lv_misc/lv_color.h"
  22:..\lvgl\lv_objx/lv_cont.c **** #include "../lv_misc/lv_math.h"
  23:..\lvgl\lv_objx/lv_cont.c **** 
  24:..\lvgl\lv_objx/lv_cont.c **** /*********************
  25:..\lvgl\lv_objx/lv_cont.c ****  *      DEFINES
  26:..\lvgl\lv_objx/lv_cont.c ****  *********************/
  27:..\lvgl\lv_objx/lv_cont.c **** 
  28:..\lvgl\lv_objx/lv_cont.c **** /**********************
  29:..\lvgl\lv_objx/lv_cont.c ****  *      TYPEDEFS
  30:..\lvgl\lv_objx/lv_cont.c ****  **********************/
  31:..\lvgl\lv_objx/lv_cont.c **** 
ARM GAS  C:\Users\d3bug\AppData\Local\Temp\ccVxVFSv.s 			page 2


  32:..\lvgl\lv_objx/lv_cont.c **** /**********************
  33:..\lvgl\lv_objx/lv_cont.c ****  *  STATIC PROTOTYPES
  34:..\lvgl\lv_objx/lv_cont.c ****  **********************/
  35:..\lvgl\lv_objx/lv_cont.c **** static lv_res_t lv_cont_signal(lv_obj_t * cont, lv_signal_t sign, void * param);
  36:..\lvgl\lv_objx/lv_cont.c **** static void lv_cont_refr_layout(lv_obj_t * cont);
  37:..\lvgl\lv_objx/lv_cont.c **** static void lv_cont_layout_col(lv_obj_t * cont);
  38:..\lvgl\lv_objx/lv_cont.c **** static void lv_cont_layout_row(lv_obj_t * cont);
  39:..\lvgl\lv_objx/lv_cont.c **** static void lv_cont_layout_center(lv_obj_t * cont);
  40:..\lvgl\lv_objx/lv_cont.c **** static void lv_cont_layout_pretty(lv_obj_t * cont);
  41:..\lvgl\lv_objx/lv_cont.c **** static void lv_cont_layout_grid(lv_obj_t * cont);
  42:..\lvgl\lv_objx/lv_cont.c **** static void lv_cont_refr_autofit(lv_obj_t * cont);
  43:..\lvgl\lv_objx/lv_cont.c **** 
  44:..\lvgl\lv_objx/lv_cont.c **** /**********************
  45:..\lvgl\lv_objx/lv_cont.c ****  *  STATIC VARIABLES
  46:..\lvgl\lv_objx/lv_cont.c ****  **********************/
  47:..\lvgl\lv_objx/lv_cont.c **** static lv_signal_func_t ancestor_signal;
  48:..\lvgl\lv_objx/lv_cont.c **** 
  49:..\lvgl\lv_objx/lv_cont.c **** /**********************
  50:..\lvgl\lv_objx/lv_cont.c ****  *      MACROS
  51:..\lvgl\lv_objx/lv_cont.c ****  **********************/
  52:..\lvgl\lv_objx/lv_cont.c **** 
  53:..\lvgl\lv_objx/lv_cont.c **** /**********************
  54:..\lvgl\lv_objx/lv_cont.c ****  *   GLOBAL FUNCTIONS
  55:..\lvgl\lv_objx/lv_cont.c ****  **********************/
  56:..\lvgl\lv_objx/lv_cont.c **** 
  57:..\lvgl\lv_objx/lv_cont.c **** /**
  58:..\lvgl\lv_objx/lv_cont.c ****  * Create a container objects
  59:..\lvgl\lv_objx/lv_cont.c ****  * @param par pointer to an object, it will be the parent of the new container
  60:..\lvgl\lv_objx/lv_cont.c ****  * @param copy pointer to a container object, if not NULL then the new object will be copied from i
  61:..\lvgl\lv_objx/lv_cont.c ****  * @return pointer to the created container
  62:..\lvgl\lv_objx/lv_cont.c ****  */
  63:..\lvgl\lv_objx/lv_cont.c **** lv_obj_t * lv_cont_create(lv_obj_t * par, const lv_obj_t * copy)
  64:..\lvgl\lv_objx/lv_cont.c **** {
  65:..\lvgl\lv_objx/lv_cont.c **** 
  66:..\lvgl\lv_objx/lv_cont.c **** 
  67:..\lvgl\lv_objx/lv_cont.c ****     LV_LOG_TRACE("container create started");
  68:..\lvgl\lv_objx/lv_cont.c **** 
  69:..\lvgl\lv_objx/lv_cont.c ****     /*Create a basic object*/
  70:..\lvgl\lv_objx/lv_cont.c ****     lv_obj_t * new_cont = lv_obj_create(par, copy);
  71:..\lvgl\lv_objx/lv_cont.c ****     lv_mem_assert(new_cont);
  72:..\lvgl\lv_objx/lv_cont.c ****     if(new_cont == NULL) return NULL;
  73:..\lvgl\lv_objx/lv_cont.c **** 
  74:..\lvgl\lv_objx/lv_cont.c ****     if(ancestor_signal == NULL) ancestor_signal = lv_obj_get_signal_func(new_cont);
  75:..\lvgl\lv_objx/lv_cont.c **** 
  76:..\lvgl\lv_objx/lv_cont.c ****     lv_obj_allocate_ext_attr(new_cont, sizeof(lv_cont_ext_t));
  77:..\lvgl\lv_objx/lv_cont.c ****     lv_cont_ext_t * ext = lv_obj_get_ext_attr(new_cont);
  78:..\lvgl\lv_objx/lv_cont.c ****     if(ext == NULL) return NULL;
  79:..\lvgl\lv_objx/lv_cont.c **** 
  80:..\lvgl\lv_objx/lv_cont.c ****     lv_mem_assert(ext);
  81:..\lvgl\lv_objx/lv_cont.c ****     ext->hor_fit = 0;
  82:..\lvgl\lv_objx/lv_cont.c ****     ext->ver_fit = 0;
  83:..\lvgl\lv_objx/lv_cont.c ****     ext->layout = LV_LAYOUT_OFF;
  84:..\lvgl\lv_objx/lv_cont.c **** 
  85:..\lvgl\lv_objx/lv_cont.c ****     lv_obj_set_signal_func(new_cont, lv_cont_signal);
  86:..\lvgl\lv_objx/lv_cont.c **** 
  87:..\lvgl\lv_objx/lv_cont.c ****     /*Init the new container*/
  88:..\lvgl\lv_objx/lv_cont.c ****     if(copy == NULL) {
ARM GAS  C:\Users\d3bug\AppData\Local\Temp\ccVxVFSv.s 			page 3


  89:..\lvgl\lv_objx/lv_cont.c ****         /*Set the default styles*/
  90:..\lvgl\lv_objx/lv_cont.c ****         lv_theme_t * th = lv_theme_get_current();
  91:..\lvgl\lv_objx/lv_cont.c ****         if(th) {
  92:..\lvgl\lv_objx/lv_cont.c ****             lv_cont_set_style(new_cont, th->cont);
  93:..\lvgl\lv_objx/lv_cont.c ****         } else {
  94:..\lvgl\lv_objx/lv_cont.c ****             lv_cont_set_style(new_cont, &lv_style_pretty);
  95:..\lvgl\lv_objx/lv_cont.c ****         }
  96:..\lvgl\lv_objx/lv_cont.c ****     }
  97:..\lvgl\lv_objx/lv_cont.c ****     /*Copy an existing object*/
  98:..\lvgl\lv_objx/lv_cont.c ****     else {
  99:..\lvgl\lv_objx/lv_cont.c ****         lv_cont_ext_t * copy_ext = lv_obj_get_ext_attr(copy);
 100:..\lvgl\lv_objx/lv_cont.c ****         ext->hor_fit = copy_ext->hor_fit;
 101:..\lvgl\lv_objx/lv_cont.c ****         ext->ver_fit = copy_ext->ver_fit;
 102:..\lvgl\lv_objx/lv_cont.c ****         ext->layout = copy_ext->layout;
 103:..\lvgl\lv_objx/lv_cont.c **** 
 104:..\lvgl\lv_objx/lv_cont.c ****         /*Refresh the style with new signal function*/
 105:..\lvgl\lv_objx/lv_cont.c ****         lv_obj_refresh_style(new_cont);
 106:..\lvgl\lv_objx/lv_cont.c ****     }
 107:..\lvgl\lv_objx/lv_cont.c **** 
 108:..\lvgl\lv_objx/lv_cont.c ****     LV_LOG_INFO("container created");
 109:..\lvgl\lv_objx/lv_cont.c **** 
 110:..\lvgl\lv_objx/lv_cont.c **** 
 111:..\lvgl\lv_objx/lv_cont.c ****     return new_cont;
 112:..\lvgl\lv_objx/lv_cont.c **** }
 113:..\lvgl\lv_objx/lv_cont.c **** 
 114:..\lvgl\lv_objx/lv_cont.c **** /*=====================
 115:..\lvgl\lv_objx/lv_cont.c ****  * Setter functions
 116:..\lvgl\lv_objx/lv_cont.c ****  *====================*/
 117:..\lvgl\lv_objx/lv_cont.c **** 
 118:..\lvgl\lv_objx/lv_cont.c **** /**
 119:..\lvgl\lv_objx/lv_cont.c ****  * Set a layout on a container
 120:..\lvgl\lv_objx/lv_cont.c ****  * @param cont pointer to a container object
 121:..\lvgl\lv_objx/lv_cont.c ****  * @param layout a layout from 'lv_cont_layout_t'
 122:..\lvgl\lv_objx/lv_cont.c ****  */
 123:..\lvgl\lv_objx/lv_cont.c **** void lv_cont_set_layout(lv_obj_t * cont, lv_layout_t layout)
 124:..\lvgl\lv_objx/lv_cont.c **** {
 125:..\lvgl\lv_objx/lv_cont.c ****     lv_cont_ext_t * ext = lv_obj_get_ext_attr(cont);
 126:..\lvgl\lv_objx/lv_cont.c ****     if(ext->layout == layout) return;
 127:..\lvgl\lv_objx/lv_cont.c **** 
 128:..\lvgl\lv_objx/lv_cont.c ****     ext->layout = layout;
 129:..\lvgl\lv_objx/lv_cont.c **** 
 130:..\lvgl\lv_objx/lv_cont.c ****     /*Send a signal to refresh the layout*/
 131:..\lvgl\lv_objx/lv_cont.c ****     cont->signal_func(cont, LV_SIGNAL_CHILD_CHG, NULL);
 132:..\lvgl\lv_objx/lv_cont.c **** }
 133:..\lvgl\lv_objx/lv_cont.c **** 
 134:..\lvgl\lv_objx/lv_cont.c **** 
 135:..\lvgl\lv_objx/lv_cont.c **** /**
 136:..\lvgl\lv_objx/lv_cont.c ****  * Enable the horizontal or vertical fit.
 137:..\lvgl\lv_objx/lv_cont.c ****  * The container size will be set to involve the children horizontally or vertically.
 138:..\lvgl\lv_objx/lv_cont.c ****  * @param cont pointer to a container object
 139:..\lvgl\lv_objx/lv_cont.c ****  * @param hor_en true: enable the horizontal fit
 140:..\lvgl\lv_objx/lv_cont.c ****  * @param ver_en true: enable the vertical fit
 141:..\lvgl\lv_objx/lv_cont.c ****  */
 142:..\lvgl\lv_objx/lv_cont.c **** void lv_cont_set_fit(lv_obj_t * cont, bool hor_en, bool ver_en)
 143:..\lvgl\lv_objx/lv_cont.c **** {
 144:..\lvgl\lv_objx/lv_cont.c ****     lv_obj_invalidate(cont);
 145:..\lvgl\lv_objx/lv_cont.c ****     lv_cont_ext_t * ext = lv_obj_get_ext_attr(cont);
ARM GAS  C:\Users\d3bug\AppData\Local\Temp\ccVxVFSv.s 			page 4


 146:..\lvgl\lv_objx/lv_cont.c ****     if(ext->hor_fit == hor_en && ext->ver_fit == ver_en) return;
 147:..\lvgl\lv_objx/lv_cont.c **** 
 148:..\lvgl\lv_objx/lv_cont.c ****     ext->hor_fit = hor_en == false ? 0 : 1;
 149:..\lvgl\lv_objx/lv_cont.c ****     ext->ver_fit = ver_en == false ? 0 : 1;
 150:..\lvgl\lv_objx/lv_cont.c **** 
 151:..\lvgl\lv_objx/lv_cont.c ****     /*Send a signal to refresh the layout*/
 152:..\lvgl\lv_objx/lv_cont.c ****     cont->signal_func(cont, LV_SIGNAL_CHILD_CHG, NULL);
 153:..\lvgl\lv_objx/lv_cont.c **** }
 154:..\lvgl\lv_objx/lv_cont.c **** 
 155:..\lvgl\lv_objx/lv_cont.c **** /*=====================
 156:..\lvgl\lv_objx/lv_cont.c ****  * Getter functions
 157:..\lvgl\lv_objx/lv_cont.c ****  *====================*/
 158:..\lvgl\lv_objx/lv_cont.c **** 
 159:..\lvgl\lv_objx/lv_cont.c **** /**
 160:..\lvgl\lv_objx/lv_cont.c ****  * Get the layout of a container
 161:..\lvgl\lv_objx/lv_cont.c ****  * @param cont pointer to container object
 162:..\lvgl\lv_objx/lv_cont.c ****  * @return the layout from 'lv_cont_layout_t'
 163:..\lvgl\lv_objx/lv_cont.c ****  */
 164:..\lvgl\lv_objx/lv_cont.c **** lv_layout_t lv_cont_get_layout(const lv_obj_t * cont)
 165:..\lvgl\lv_objx/lv_cont.c **** {
 166:..\lvgl\lv_objx/lv_cont.c ****     lv_cont_ext_t * ext = lv_obj_get_ext_attr(cont);
 167:..\lvgl\lv_objx/lv_cont.c ****     return ext->layout;
 168:..\lvgl\lv_objx/lv_cont.c **** }
 169:..\lvgl\lv_objx/lv_cont.c **** 
 170:..\lvgl\lv_objx/lv_cont.c **** /**
 171:..\lvgl\lv_objx/lv_cont.c ****  * Get horizontal fit enable attribute of a container
 172:..\lvgl\lv_objx/lv_cont.c ****  * @param cont pointer to a container object
 173:..\lvgl\lv_objx/lv_cont.c ****  * @return true: horizontal fit is enabled; false: disabled
 174:..\lvgl\lv_objx/lv_cont.c ****  */
 175:..\lvgl\lv_objx/lv_cont.c **** bool lv_cont_get_hor_fit(const lv_obj_t * cont)
 176:..\lvgl\lv_objx/lv_cont.c **** {
 177:..\lvgl\lv_objx/lv_cont.c ****     lv_cont_ext_t * ext = lv_obj_get_ext_attr(cont);
 178:..\lvgl\lv_objx/lv_cont.c ****     return ext->hor_fit == 0 ? false : true;
 179:..\lvgl\lv_objx/lv_cont.c **** }
 180:..\lvgl\lv_objx/lv_cont.c **** 
 181:..\lvgl\lv_objx/lv_cont.c **** /**
 182:..\lvgl\lv_objx/lv_cont.c ****  * Get vertical fit enable attribute of a container
 183:..\lvgl\lv_objx/lv_cont.c ****  * @param cont pointer to a container object
 184:..\lvgl\lv_objx/lv_cont.c ****  * @return true: vertical fit is enabled; false: disabled
 185:..\lvgl\lv_objx/lv_cont.c ****  */
 186:..\lvgl\lv_objx/lv_cont.c **** bool lv_cont_get_ver_fit(const lv_obj_t * cont)
 187:..\lvgl\lv_objx/lv_cont.c **** {
 188:..\lvgl\lv_objx/lv_cont.c ****     lv_cont_ext_t * ext = lv_obj_get_ext_attr(cont);
 189:..\lvgl\lv_objx/lv_cont.c ****     return ext->ver_fit == 0 ? false : true;
 190:..\lvgl\lv_objx/lv_cont.c **** }
 191:..\lvgl\lv_objx/lv_cont.c **** 
 192:..\lvgl\lv_objx/lv_cont.c **** /**
 193:..\lvgl\lv_objx/lv_cont.c ****  * Get that width reduced by the horizontal padding. Useful if a layout is used.
 194:..\lvgl\lv_objx/lv_cont.c ****  * @param cont pointer to a container object
 195:..\lvgl\lv_objx/lv_cont.c ****  * @return the width which still fits into the container
 196:..\lvgl\lv_objx/lv_cont.c ****  */
 197:..\lvgl\lv_objx/lv_cont.c **** lv_coord_t lv_cont_get_fit_width(lv_obj_t * cont)
 198:..\lvgl\lv_objx/lv_cont.c **** {
 199:..\lvgl\lv_objx/lv_cont.c ****     lv_style_t * style = lv_cont_get_style(cont);
 200:..\lvgl\lv_objx/lv_cont.c **** 
 201:..\lvgl\lv_objx/lv_cont.c ****     return lv_obj_get_width(cont) - 2 * style->body.padding.hor;
 202:..\lvgl\lv_objx/lv_cont.c **** }
ARM GAS  C:\Users\d3bug\AppData\Local\Temp\ccVxVFSv.s 			page 5


 203:..\lvgl\lv_objx/lv_cont.c **** 
 204:..\lvgl\lv_objx/lv_cont.c **** /**
 205:..\lvgl\lv_objx/lv_cont.c ****  * Get that height reduced by the vertical padding. Useful if a layout is used.
 206:..\lvgl\lv_objx/lv_cont.c ****  * @param cont pointer to a container object
 207:..\lvgl\lv_objx/lv_cont.c ****  * @return the height which still fits into the container
 208:..\lvgl\lv_objx/lv_cont.c ****  */
 209:..\lvgl\lv_objx/lv_cont.c **** lv_coord_t lv_cont_get_fit_height(lv_obj_t * cont)
 210:..\lvgl\lv_objx/lv_cont.c **** {
 211:..\lvgl\lv_objx/lv_cont.c ****     lv_style_t * style = lv_cont_get_style(cont);
 212:..\lvgl\lv_objx/lv_cont.c **** 
 213:..\lvgl\lv_objx/lv_cont.c ****     return lv_obj_get_width(cont) - 2 * style->body.padding.hor;
 214:..\lvgl\lv_objx/lv_cont.c **** }
 215:..\lvgl\lv_objx/lv_cont.c **** 
 216:..\lvgl\lv_objx/lv_cont.c **** /**********************
 217:..\lvgl\lv_objx/lv_cont.c ****  *   STATIC FUNCTIONS
 218:..\lvgl\lv_objx/lv_cont.c ****  **********************/
 219:..\lvgl\lv_objx/lv_cont.c **** 
 220:..\lvgl\lv_objx/lv_cont.c **** /**
 221:..\lvgl\lv_objx/lv_cont.c ****  * Signal function of the container
 222:..\lvgl\lv_objx/lv_cont.c ****  * @param cont pointer to a container object
 223:..\lvgl\lv_objx/lv_cont.c ****  * @param sign a signal type from lv_signal_t enum
 224:..\lvgl\lv_objx/lv_cont.c ****  * @param param pointer to a signal specific variable
 225:..\lvgl\lv_objx/lv_cont.c ****  * @return LV_RES_OK: the object is not deleted in the function; LV_RES_INV: the object is deleted
 226:..\lvgl\lv_objx/lv_cont.c ****  */
 227:..\lvgl\lv_objx/lv_cont.c **** static lv_res_t lv_cont_signal(lv_obj_t * cont, lv_signal_t sign, void * param)
 228:..\lvgl\lv_objx/lv_cont.c **** {
 229:..\lvgl\lv_objx/lv_cont.c ****     lv_res_t res;
 230:..\lvgl\lv_objx/lv_cont.c **** 
 231:..\lvgl\lv_objx/lv_cont.c ****     /* Include the ancient signal function */
 232:..\lvgl\lv_objx/lv_cont.c ****     res = ancestor_signal(cont, sign, param);
 233:..\lvgl\lv_objx/lv_cont.c ****     if(res != LV_RES_OK) return res;
 234:..\lvgl\lv_objx/lv_cont.c **** 
 235:..\lvgl\lv_objx/lv_cont.c ****     if(sign == LV_SIGNAL_STYLE_CHG) { /*Recalculate the padding if the style changed*/
 236:..\lvgl\lv_objx/lv_cont.c ****         lv_cont_refr_layout(cont);
 237:..\lvgl\lv_objx/lv_cont.c ****         lv_cont_refr_autofit(cont);
 238:..\lvgl\lv_objx/lv_cont.c ****     } else if(sign == LV_SIGNAL_CHILD_CHG) {
 239:..\lvgl\lv_objx/lv_cont.c ****         lv_cont_refr_layout(cont);
 240:..\lvgl\lv_objx/lv_cont.c ****         lv_cont_refr_autofit(cont);
 241:..\lvgl\lv_objx/lv_cont.c ****     } else if(sign == LV_SIGNAL_CORD_CHG) {
 242:..\lvgl\lv_objx/lv_cont.c ****         if(lv_obj_get_width(cont) != lv_area_get_width(param) ||
 243:..\lvgl\lv_objx/lv_cont.c ****                 lv_obj_get_height(cont) != lv_area_get_height(param)) {
 244:..\lvgl\lv_objx/lv_cont.c ****             lv_cont_refr_layout(cont);
 245:..\lvgl\lv_objx/lv_cont.c ****             lv_cont_refr_autofit(cont);
 246:..\lvgl\lv_objx/lv_cont.c ****         }
 247:..\lvgl\lv_objx/lv_cont.c ****     } else if(sign == LV_SIGNAL_GET_TYPE) {
 248:..\lvgl\lv_objx/lv_cont.c ****         lv_obj_type_t * buf = param;
 249:..\lvgl\lv_objx/lv_cont.c ****         uint8_t i;
 250:..\lvgl\lv_objx/lv_cont.c ****         for(i = 0; i < LV_MAX_ANCESTOR_NUM - 1; i++) {  /*Find the last set data*/
 251:..\lvgl\lv_objx/lv_cont.c ****             if(buf->type[i] == NULL) break;
 252:..\lvgl\lv_objx/lv_cont.c ****         }
 253:..\lvgl\lv_objx/lv_cont.c ****         buf->type[i] = "lv_cont";
 254:..\lvgl\lv_objx/lv_cont.c ****     }
 255:..\lvgl\lv_objx/lv_cont.c **** 
 256:..\lvgl\lv_objx/lv_cont.c ****     return res;
 257:..\lvgl\lv_objx/lv_cont.c **** }
 258:..\lvgl\lv_objx/lv_cont.c **** 
 259:..\lvgl\lv_objx/lv_cont.c **** 
ARM GAS  C:\Users\d3bug\AppData\Local\Temp\ccVxVFSv.s 			page 6


 260:..\lvgl\lv_objx/lv_cont.c **** /**
 261:..\lvgl\lv_objx/lv_cont.c ****  * Refresh the layout of a container
 262:..\lvgl\lv_objx/lv_cont.c ****  * @param cont pointer to an object which layout should be refreshed
 263:..\lvgl\lv_objx/lv_cont.c ****  */
 264:..\lvgl\lv_objx/lv_cont.c **** static void lv_cont_refr_layout(lv_obj_t * cont)
 265:..\lvgl\lv_objx/lv_cont.c **** {
 266:..\lvgl\lv_objx/lv_cont.c ****     lv_layout_t type = lv_cont_get_layout(cont);
 267:..\lvgl\lv_objx/lv_cont.c **** 
 268:..\lvgl\lv_objx/lv_cont.c ****     /*'cont' has to be at least 1 child*/
 269:..\lvgl\lv_objx/lv_cont.c ****     if(lv_obj_get_child(cont, NULL) == NULL) return;
 270:..\lvgl\lv_objx/lv_cont.c **** 
 271:..\lvgl\lv_objx/lv_cont.c ****     if(type == LV_LAYOUT_OFF) return;
 272:..\lvgl\lv_objx/lv_cont.c **** 
 273:..\lvgl\lv_objx/lv_cont.c ****     if(type == LV_LAYOUT_CENTER) {
 274:..\lvgl\lv_objx/lv_cont.c ****         lv_cont_layout_center(cont);
 275:..\lvgl\lv_objx/lv_cont.c ****     } else if(type == LV_LAYOUT_COL_L || type == LV_LAYOUT_COL_M || type == LV_LAYOUT_COL_R) {
 276:..\lvgl\lv_objx/lv_cont.c ****         lv_cont_layout_col(cont);
 277:..\lvgl\lv_objx/lv_cont.c ****     } else if(type == LV_LAYOUT_ROW_T || type == LV_LAYOUT_ROW_M || type == LV_LAYOUT_ROW_B) {
 278:..\lvgl\lv_objx/lv_cont.c ****         lv_cont_layout_row(cont);
 279:..\lvgl\lv_objx/lv_cont.c ****     } else if(type == LV_LAYOUT_PRETTY) {
 280:..\lvgl\lv_objx/lv_cont.c ****         lv_cont_layout_pretty(cont);
 281:..\lvgl\lv_objx/lv_cont.c ****     }  else if(type == LV_LAYOUT_GRID) {
 282:..\lvgl\lv_objx/lv_cont.c ****         lv_cont_layout_grid(cont);
 283:..\lvgl\lv_objx/lv_cont.c ****     }
 284:..\lvgl\lv_objx/lv_cont.c **** }
 285:..\lvgl\lv_objx/lv_cont.c **** 
 286:..\lvgl\lv_objx/lv_cont.c **** /**
 287:..\lvgl\lv_objx/lv_cont.c ****  * Handle column type layouts
 288:..\lvgl\lv_objx/lv_cont.c ****  * @param cont pointer to an object which layout should be handled
 289:..\lvgl\lv_objx/lv_cont.c ****  */
 290:..\lvgl\lv_objx/lv_cont.c **** static void lv_cont_layout_col(lv_obj_t * cont)
 291:..\lvgl\lv_objx/lv_cont.c **** {
 292:..\lvgl\lv_objx/lv_cont.c ****     lv_layout_t type = lv_cont_get_layout(cont);
 293:..\lvgl\lv_objx/lv_cont.c ****     lv_obj_t * child;
 294:..\lvgl\lv_objx/lv_cont.c **** 
 295:..\lvgl\lv_objx/lv_cont.c ****     /*Adjust margin and get the alignment type*/
 296:..\lvgl\lv_objx/lv_cont.c ****     lv_align_t align;
 297:..\lvgl\lv_objx/lv_cont.c ****     lv_style_t * style = lv_obj_get_style(cont);
 298:..\lvgl\lv_objx/lv_cont.c ****     lv_coord_t hpad_corr;
 299:..\lvgl\lv_objx/lv_cont.c **** 
 300:..\lvgl\lv_objx/lv_cont.c ****     switch(type) {
 301:..\lvgl\lv_objx/lv_cont.c ****         case LV_LAYOUT_COL_L:
 302:..\lvgl\lv_objx/lv_cont.c ****             hpad_corr = style->body.padding.hor;
 303:..\lvgl\lv_objx/lv_cont.c ****             align = LV_ALIGN_IN_TOP_LEFT;
 304:..\lvgl\lv_objx/lv_cont.c ****             break;
 305:..\lvgl\lv_objx/lv_cont.c ****         case LV_LAYOUT_COL_M:
 306:..\lvgl\lv_objx/lv_cont.c ****             hpad_corr = 0;
 307:..\lvgl\lv_objx/lv_cont.c ****             align = LV_ALIGN_IN_TOP_MID;
 308:..\lvgl\lv_objx/lv_cont.c ****             break;
 309:..\lvgl\lv_objx/lv_cont.c ****         case LV_LAYOUT_COL_R:
 310:..\lvgl\lv_objx/lv_cont.c ****             hpad_corr = -style->body.padding.hor;
 311:..\lvgl\lv_objx/lv_cont.c ****             align = LV_ALIGN_IN_TOP_RIGHT;
 312:..\lvgl\lv_objx/lv_cont.c ****             break;
 313:..\lvgl\lv_objx/lv_cont.c ****         default:
 314:..\lvgl\lv_objx/lv_cont.c ****             hpad_corr = 0;
 315:..\lvgl\lv_objx/lv_cont.c ****             align = LV_ALIGN_IN_TOP_LEFT;
 316:..\lvgl\lv_objx/lv_cont.c ****             break;
ARM GAS  C:\Users\d3bug\AppData\Local\Temp\ccVxVFSv.s 			page 7


 317:..\lvgl\lv_objx/lv_cont.c ****     }
 318:..\lvgl\lv_objx/lv_cont.c **** 
 319:..\lvgl\lv_objx/lv_cont.c ****     /* Disable child change action because the children will be moved a lot
 320:..\lvgl\lv_objx/lv_cont.c ****      * an unnecessary child change signals could be sent*/
 321:..\lvgl\lv_objx/lv_cont.c ****     lv_obj_set_protect(cont, LV_PROTECT_CHILD_CHG);
 322:..\lvgl\lv_objx/lv_cont.c ****     /* Align the children */
 323:..\lvgl\lv_objx/lv_cont.c ****     lv_coord_t last_cord = style->body.padding.ver;
 324:..\lvgl\lv_objx/lv_cont.c ****     LL_READ_BACK(cont->child_ll, child) {
 325:..\lvgl\lv_objx/lv_cont.c ****         if(lv_obj_get_hidden(child) != false ||
 326:..\lvgl\lv_objx/lv_cont.c ****                 lv_obj_is_protected(child, LV_PROTECT_POS) != false) continue;
 327:..\lvgl\lv_objx/lv_cont.c **** 
 328:..\lvgl\lv_objx/lv_cont.c ****         lv_obj_align(child, cont, align, hpad_corr, last_cord);
 329:..\lvgl\lv_objx/lv_cont.c ****         last_cord += lv_obj_get_height(child) + style->body.padding.inner;
 330:..\lvgl\lv_objx/lv_cont.c ****     }
 331:..\lvgl\lv_objx/lv_cont.c **** 
 332:..\lvgl\lv_objx/lv_cont.c ****     lv_obj_clear_protect(cont, LV_PROTECT_CHILD_CHG);
 333:..\lvgl\lv_objx/lv_cont.c **** }
 334:..\lvgl\lv_objx/lv_cont.c **** 
 335:..\lvgl\lv_objx/lv_cont.c **** /**
 336:..\lvgl\lv_objx/lv_cont.c ****  * Handle row type layouts
 337:..\lvgl\lv_objx/lv_cont.c ****  * @param cont pointer to an object which layout should be handled
 338:..\lvgl\lv_objx/lv_cont.c ****  */
 339:..\lvgl\lv_objx/lv_cont.c **** static void lv_cont_layout_row(lv_obj_t * cont)
 340:..\lvgl\lv_objx/lv_cont.c **** {
 341:..\lvgl\lv_objx/lv_cont.c ****     lv_layout_t type = lv_cont_get_layout(cont);
 342:..\lvgl\lv_objx/lv_cont.c ****     lv_obj_t * child;
 343:..\lvgl\lv_objx/lv_cont.c **** 
 344:..\lvgl\lv_objx/lv_cont.c ****     /*Adjust margin and get the alignment type*/
 345:..\lvgl\lv_objx/lv_cont.c ****     lv_align_t align;
 346:..\lvgl\lv_objx/lv_cont.c ****     lv_style_t * style = lv_obj_get_style(cont);
 347:..\lvgl\lv_objx/lv_cont.c ****     lv_coord_t vpad_corr = style->body.padding.ver;
 348:..\lvgl\lv_objx/lv_cont.c **** 
 349:..\lvgl\lv_objx/lv_cont.c ****     switch(type) {
 350:..\lvgl\lv_objx/lv_cont.c ****         case LV_LAYOUT_ROW_T:
 351:..\lvgl\lv_objx/lv_cont.c ****             vpad_corr = style->body.padding.ver;
 352:..\lvgl\lv_objx/lv_cont.c ****             align = LV_ALIGN_IN_TOP_LEFT;
 353:..\lvgl\lv_objx/lv_cont.c ****             break;
 354:..\lvgl\lv_objx/lv_cont.c ****         case LV_LAYOUT_ROW_M:
 355:..\lvgl\lv_objx/lv_cont.c ****             vpad_corr = 0;
 356:..\lvgl\lv_objx/lv_cont.c ****             align = LV_ALIGN_IN_LEFT_MID;
 357:..\lvgl\lv_objx/lv_cont.c ****             break;
 358:..\lvgl\lv_objx/lv_cont.c ****         case LV_LAYOUT_ROW_B:
 359:..\lvgl\lv_objx/lv_cont.c ****             vpad_corr = -style->body.padding.ver;
 360:..\lvgl\lv_objx/lv_cont.c ****             align = LV_ALIGN_IN_BOTTOM_LEFT;
 361:..\lvgl\lv_objx/lv_cont.c ****             break;
 362:..\lvgl\lv_objx/lv_cont.c ****         default:
 363:..\lvgl\lv_objx/lv_cont.c ****             vpad_corr = 0;
 364:..\lvgl\lv_objx/lv_cont.c ****             align = LV_ALIGN_IN_TOP_LEFT;
 365:..\lvgl\lv_objx/lv_cont.c ****             break;
 366:..\lvgl\lv_objx/lv_cont.c ****     }
 367:..\lvgl\lv_objx/lv_cont.c **** 
 368:..\lvgl\lv_objx/lv_cont.c ****     /* Disable child change action because the children will be moved a lot
 369:..\lvgl\lv_objx/lv_cont.c ****      * an unnecessary child change signals could be sent*/
 370:..\lvgl\lv_objx/lv_cont.c ****     lv_obj_set_protect(cont, LV_PROTECT_CHILD_CHG);
 371:..\lvgl\lv_objx/lv_cont.c **** 
 372:..\lvgl\lv_objx/lv_cont.c ****     /* Align the children */
 373:..\lvgl\lv_objx/lv_cont.c ****     lv_coord_t last_cord = style->body.padding.hor;
ARM GAS  C:\Users\d3bug\AppData\Local\Temp\ccVxVFSv.s 			page 8


 374:..\lvgl\lv_objx/lv_cont.c ****     LL_READ_BACK(cont->child_ll, child) {
 375:..\lvgl\lv_objx/lv_cont.c ****         if(lv_obj_get_hidden(child) != false ||
 376:..\lvgl\lv_objx/lv_cont.c ****                 lv_obj_is_protected(child, LV_PROTECT_POS) != false) continue;
 377:..\lvgl\lv_objx/lv_cont.c **** 
 378:..\lvgl\lv_objx/lv_cont.c ****         lv_obj_align(child, cont, align, last_cord, vpad_corr);
 379:..\lvgl\lv_objx/lv_cont.c ****         last_cord += lv_obj_get_width(child) + style->body.padding.inner;
 380:..\lvgl\lv_objx/lv_cont.c ****     }
 381:..\lvgl\lv_objx/lv_cont.c **** 
 382:..\lvgl\lv_objx/lv_cont.c ****     lv_obj_clear_protect(cont, LV_PROTECT_CHILD_CHG);
 383:..\lvgl\lv_objx/lv_cont.c **** }
 384:..\lvgl\lv_objx/lv_cont.c **** 
 385:..\lvgl\lv_objx/lv_cont.c **** /**
 386:..\lvgl\lv_objx/lv_cont.c ****  * Handle the center layout
 387:..\lvgl\lv_objx/lv_cont.c ****  * @param cont pointer to an object which layout should be handled
 388:..\lvgl\lv_objx/lv_cont.c ****  */
 389:..\lvgl\lv_objx/lv_cont.c **** static void lv_cont_layout_center(lv_obj_t * cont)
 390:..\lvgl\lv_objx/lv_cont.c **** {
  27              		.loc 1 390 0
  28              		.cfi_startproc
  29              		@ args = 0, pretend = 0, frame = 0
  30              		@ frame_needed = 0, uses_anonymous_args = 0
  31              	.LVL0:
  32 0000 2DE9F043 		push	{r4, r5, r6, r7, r8, r9, lr}
  33              		.cfi_def_cfa_offset 28
  34              		.cfi_offset 4, -28
  35              		.cfi_offset 5, -24
  36              		.cfi_offset 6, -20
  37              		.cfi_offset 7, -16
  38              		.cfi_offset 8, -12
  39              		.cfi_offset 9, -8
  40              		.cfi_offset 14, -4
  41 0004 83B0     		sub	sp, sp, #12
  42              		.cfi_def_cfa_offset 40
  43 0006 0746     		mov	r7, r0
 391:..\lvgl\lv_objx/lv_cont.c ****     lv_obj_t * child;
 392:..\lvgl\lv_objx/lv_cont.c ****     lv_style_t * style = lv_obj_get_style(cont);
  44              		.loc 1 392 0
  45 0008 FFF7FEFF 		bl	lv_obj_get_style
  46              	.LVL1:
  47 000c 8046     		mov	r8, r0
  48              	.LVL2:
 393:..\lvgl\lv_objx/lv_cont.c ****     uint32_t obj_num = 0;
 394:..\lvgl\lv_objx/lv_cont.c ****     lv_coord_t h_tot = 0;
 395:..\lvgl\lv_objx/lv_cont.c **** 
 396:..\lvgl\lv_objx/lv_cont.c ****     LL_READ(cont->child_ll, child) {
  49              		.loc 1 396 0
  50 000e 3D1D     		adds	r5, r7, #4
  51 0010 2846     		mov	r0, r5
  52              	.LVL3:
  53 0012 FFF7FEFF 		bl	lv_ll_get_head
  54              	.LVL4:
  55 0016 0446     		mov	r4, r0
  56              	.LVL5:
 394:..\lvgl\lv_objx/lv_cont.c **** 
  57              		.loc 1 394 0
  58 0018 0026     		movs	r6, #0
 393:..\lvgl\lv_objx/lv_cont.c ****     uint32_t obj_num = 0;
ARM GAS  C:\Users\d3bug\AppData\Local\Temp\ccVxVFSv.s 			page 9


  59              		.loc 1 393 0
  60 001a B146     		mov	r9, r6
  61              		.loc 1 396 0
  62 001c 17E0     		b	.L2
  63              	.LVL6:
  64              	.L6:
 397:..\lvgl\lv_objx/lv_cont.c ****         if(lv_obj_get_hidden(child) != false ||
  65              		.loc 1 397 0
  66 001e 2046     		mov	r0, r4
  67              	.LVL7:
  68 0020 FFF7FEFF 		bl	lv_obj_get_hidden
  69              	.LVL8:
  70 0024 70B9     		cbnz	r0, .L5
 398:..\lvgl\lv_objx/lv_cont.c ****                 lv_obj_is_protected(child, LV_PROTECT_POS) != false) continue;
  71              		.loc 1 398 0 discriminator 1
  72 0026 0421     		movs	r1, #4
  73 0028 2046     		mov	r0, r4
  74 002a FFF7FEFF 		bl	lv_obj_is_protected
  75              	.LVL9:
 397:..\lvgl\lv_objx/lv_cont.c ****         if(lv_obj_get_hidden(child) != false ||
  76              		.loc 1 397 0 discriminator 1
  77 002e 48B9     		cbnz	r0, .L5
 399:..\lvgl\lv_objx/lv_cont.c ****         h_tot += lv_obj_get_height(child) + style->body.padding.inner;
  78              		.loc 1 399 0
  79 0030 2046     		mov	r0, r4
  80 0032 FFF7FEFF 		bl	lv_obj_get_height
  81              	.LVL10:
  82 0036 B8F91830 		ldrsh	r3, [r8, #24]
  83 003a 1844     		add	r0, r0, r3
  84 003c 0644     		add	r6, r6, r0
  85              	.LVL11:
  86 003e 36B2     		sxth	r6, r6
  87              	.LVL12:
 400:..\lvgl\lv_objx/lv_cont.c ****         obj_num ++;
  88              		.loc 1 400 0
  89 0040 09F10109 		add	r9, r9, #1
  90              	.LVL13:
  91              	.L5:
 396:..\lvgl\lv_objx/lv_cont.c ****         if(lv_obj_get_hidden(child) != false ||
  92              		.loc 1 396 0 discriminator 2
  93 0044 2146     		mov	r1, r4
  94 0046 2846     		mov	r0, r5
  95 0048 FFF7FEFF 		bl	lv_ll_get_next
  96              	.LVL14:
  97 004c 0446     		mov	r4, r0
  98              	.LVL15:
  99              	.L2:
 396:..\lvgl\lv_objx/lv_cont.c ****         if(lv_obj_get_hidden(child) != false ||
 100              		.loc 1 396 0 is_stmt 0 discriminator 1
 101 004e 002C     		cmp	r4, #0
 102 0050 E5D1     		bne	.L6
 401:..\lvgl\lv_objx/lv_cont.c ****     }
 402:..\lvgl\lv_objx/lv_cont.c **** 
 403:..\lvgl\lv_objx/lv_cont.c ****     if(obj_num == 0) return;
 103              		.loc 1 403 0 is_stmt 1
 104 0052 B9F1000F 		cmp	r9, #0
 105 0056 3DD0     		beq	.L1
ARM GAS  C:\Users\d3bug\AppData\Local\Temp\ccVxVFSv.s 			page 10


 404:..\lvgl\lv_objx/lv_cont.c **** 
 405:..\lvgl\lv_objx/lv_cont.c ****     h_tot -= style->body.padding.inner;
 106              		.loc 1 405 0
 107 0058 B8F91830 		ldrsh	r3, [r8, #24]
 108 005c F61A     		subs	r6, r6, r3
 109              	.LVL16:
 110 005e 36B2     		sxth	r6, r6
 111              	.LVL17:
 406:..\lvgl\lv_objx/lv_cont.c **** 
 407:..\lvgl\lv_objx/lv_cont.c ****     /* Disable child change action because the children will be moved a lot
 408:..\lvgl\lv_objx/lv_cont.c ****      * an unnecessary child change signals could be sent*/
 409:..\lvgl\lv_objx/lv_cont.c ****     lv_obj_set_protect(cont, LV_PROTECT_CHILD_CHG);
 112              		.loc 1 409 0
 113 0060 0121     		movs	r1, #1
 114 0062 3846     		mov	r0, r7
 115              	.LVL18:
 116 0064 FFF7FEFF 		bl	lv_obj_set_protect
 117              	.LVL19:
 410:..\lvgl\lv_objx/lv_cont.c **** 
 411:..\lvgl\lv_objx/lv_cont.c ****     /* Align the children */
 412:..\lvgl\lv_objx/lv_cont.c ****     lv_coord_t last_cord = - (h_tot / 2);
 118              		.loc 1 412 0
 119 0068 06EBD676 		add	r6, r6, r6, lsr #31
 120              	.LVL20:
 121 006c 7610     		asrs	r6, r6, #1
 122 006e 7642     		negs	r6, r6
 123 0070 36B2     		sxth	r6, r6
 124              	.LVL21:
 413:..\lvgl\lv_objx/lv_cont.c ****     LL_READ_BACK(cont->child_ll, child) {
 125              		.loc 1 413 0
 126 0072 2846     		mov	r0, r5
 127 0074 FFF7FEFF 		bl	lv_ll_get_tail
 128              	.LVL22:
 129 0078 0446     		mov	r4, r0
 130              	.LVL23:
 131 007a 25E0     		b	.L8
 132              	.L12:
 414:..\lvgl\lv_objx/lv_cont.c ****         if(lv_obj_get_hidden(child) != false ||
 133              		.loc 1 414 0
 134 007c 2046     		mov	r0, r4
 135              	.LVL24:
 136 007e FFF7FEFF 		bl	lv_obj_get_hidden
 137              	.LVL25:
 138 0082 E0B9     		cbnz	r0, .L11
 415:..\lvgl\lv_objx/lv_cont.c ****                 lv_obj_is_protected(child, LV_PROTECT_POS) != false) continue;
 139              		.loc 1 415 0 discriminator 1
 140 0084 0421     		movs	r1, #4
 141 0086 2046     		mov	r0, r4
 142 0088 FFF7FEFF 		bl	lv_obj_is_protected
 143              	.LVL26:
 414:..\lvgl\lv_objx/lv_cont.c ****         if(lv_obj_get_hidden(child) != false ||
 144              		.loc 1 414 0 discriminator 1
 145 008c B8B9     		cbnz	r0, .L11
 416:..\lvgl\lv_objx/lv_cont.c **** 
 417:..\lvgl\lv_objx/lv_cont.c ****         lv_obj_align(child, cont, LV_ALIGN_CENTER, 0, last_cord + lv_obj_get_height(child) / 2);
 146              		.loc 1 417 0
 147 008e 2046     		mov	r0, r4
ARM GAS  C:\Users\d3bug\AppData\Local\Temp\ccVxVFSv.s 			page 11


 148 0090 FFF7FEFF 		bl	lv_obj_get_height
 149              	.LVL27:
 150 0094 B6B2     		uxth	r6, r6
 151 0096 00EBD070 		add	r0, r0, r0, lsr #31
 152 009a 06EB6003 		add	r3, r6, r0, asr #1
 153 009e 1BB2     		sxth	r3, r3
 154 00a0 0093     		str	r3, [sp]
 155 00a2 0023     		movs	r3, #0
 156 00a4 1A46     		mov	r2, r3
 157 00a6 3946     		mov	r1, r7
 158 00a8 2046     		mov	r0, r4
 159 00aa FFF7FEFF 		bl	lv_obj_align
 160              	.LVL28:
 418:..\lvgl\lv_objx/lv_cont.c ****         last_cord += lv_obj_get_height(child) + style->body.padding.inner;
 161              		.loc 1 418 0
 162 00ae 2046     		mov	r0, r4
 163 00b0 FFF7FEFF 		bl	lv_obj_get_height
 164              	.LVL29:
 165 00b4 B8F91830 		ldrsh	r3, [r8, #24]
 166 00b8 1844     		add	r0, r0, r3
 167 00ba 0644     		add	r6, r6, r0
 168              	.LVL30:
 169 00bc 36B2     		sxth	r6, r6
 170              	.LVL31:
 171              	.L11:
 413:..\lvgl\lv_objx/lv_cont.c ****         if(lv_obj_get_hidden(child) != false ||
 172              		.loc 1 413 0 discriminator 2
 173 00be 2146     		mov	r1, r4
 174 00c0 2846     		mov	r0, r5
 175 00c2 FFF7FEFF 		bl	lv_ll_get_prev
 176              	.LVL32:
 177 00c6 0446     		mov	r4, r0
 178              	.LVL33:
 179              	.L8:
 413:..\lvgl\lv_objx/lv_cont.c ****         if(lv_obj_get_hidden(child) != false ||
 180              		.loc 1 413 0 is_stmt 0 discriminator 1
 181 00c8 002C     		cmp	r4, #0
 182 00ca D7D1     		bne	.L12
 419:..\lvgl\lv_objx/lv_cont.c ****     }
 420:..\lvgl\lv_objx/lv_cont.c **** 
 421:..\lvgl\lv_objx/lv_cont.c ****     lv_obj_clear_protect(cont, LV_PROTECT_CHILD_CHG);
 183              		.loc 1 421 0 is_stmt 1
 184 00cc 0121     		movs	r1, #1
 185 00ce 3846     		mov	r0, r7
 186              	.LVL34:
 187 00d0 FFF7FEFF 		bl	lv_obj_clear_protect
 188              	.LVL35:
 189              	.L1:
 422:..\lvgl\lv_objx/lv_cont.c **** }
 190              		.loc 1 422 0
 191 00d4 03B0     		add	sp, sp, #12
 192              		.cfi_def_cfa_offset 28
 193              		@ sp needed
 194 00d6 BDE8F083 		pop	{r4, r5, r6, r7, r8, r9, pc}
 195              		.cfi_endproc
 196              	.LFE26:
 197              		.size	lv_cont_layout_center, .-lv_cont_layout_center
ARM GAS  C:\Users\d3bug\AppData\Local\Temp\ccVxVFSv.s 			page 12


 198 00da 00BF     		.section	.text.lv_cont_layout_pretty,"ax",%progbits
 199              		.align	2
 200              		.thumb
 201              		.thumb_func
 202              		.type	lv_cont_layout_pretty, %function
 203              	lv_cont_layout_pretty:
 204              	.LFB27:
 423:..\lvgl\lv_objx/lv_cont.c **** 
 424:..\lvgl\lv_objx/lv_cont.c **** /**
 425:..\lvgl\lv_objx/lv_cont.c ****  * Handle the pretty layout. Put as many object as possible in row
 426:..\lvgl\lv_objx/lv_cont.c ****  * then begin a new row
 427:..\lvgl\lv_objx/lv_cont.c ****  * @param cont pointer to an object which layout should be handled
 428:..\lvgl\lv_objx/lv_cont.c ****  */
 429:..\lvgl\lv_objx/lv_cont.c **** static void lv_cont_layout_pretty(lv_obj_t * cont)
 430:..\lvgl\lv_objx/lv_cont.c **** {
 205              		.loc 1 430 0
 206              		.cfi_startproc
 207              		@ args = 0, pretend = 0, frame = 16
 208              		@ frame_needed = 0, uses_anonymous_args = 0
 209              	.LVL36:
 210 0000 2DE9F04F 		push	{r4, r5, r6, r7, r8, r9, r10, fp, lr}
 211              		.cfi_def_cfa_offset 36
 212              		.cfi_offset 4, -36
 213              		.cfi_offset 5, -32
 214              		.cfi_offset 6, -28
 215              		.cfi_offset 7, -24
 216              		.cfi_offset 8, -20
 217              		.cfi_offset 9, -16
 218              		.cfi_offset 10, -12
 219              		.cfi_offset 11, -8
 220              		.cfi_offset 14, -4
 221 0004 87B0     		sub	sp, sp, #28
 222              		.cfi_def_cfa_offset 64
 223 0006 0446     		mov	r4, r0
 224 0008 0390     		str	r0, [sp, #12]
 431:..\lvgl\lv_objx/lv_cont.c ****     lv_obj_t * child_rs;    /* Row starter child */
 432:..\lvgl\lv_objx/lv_cont.c ****     lv_obj_t * child_rc;    /* Row closer child */
 433:..\lvgl\lv_objx/lv_cont.c ****     lv_obj_t * child_tmp;   /* Temporary child */
 434:..\lvgl\lv_objx/lv_cont.c ****     lv_style_t * style = lv_obj_get_style(cont);
 225              		.loc 1 434 0
 226 000a FFF7FEFF 		bl	lv_obj_get_style
 227              	.LVL37:
 228 000e 8246     		mov	r10, r0
 229              	.LVL38:
 435:..\lvgl\lv_objx/lv_cont.c ****     lv_coord_t w_obj = lv_obj_get_width(cont);
 230              		.loc 1 435 0
 231 0010 2046     		mov	r0, r4
 232              	.LVL39:
 233 0012 FFF7FEFF 		bl	lv_obj_get_width
 234              	.LVL40:
 235 0016 8346     		mov	fp, r0
 236              	.LVL41:
 436:..\lvgl\lv_objx/lv_cont.c ****     lv_coord_t act_y = style->body.padding.ver;
 237              		.loc 1 436 0
 238 0018 BAF91420 		ldrsh	r2, [r10, #20]
 239 001c 0292     		str	r2, [sp, #8]
 240              	.LVL42:
ARM GAS  C:\Users\d3bug\AppData\Local\Temp\ccVxVFSv.s 			page 13


 437:..\lvgl\lv_objx/lv_cont.c ****     /* Disable child change action because the children will be moved a lot
 438:..\lvgl\lv_objx/lv_cont.c ****      * an unnecessary child change signals could be sent*/
 439:..\lvgl\lv_objx/lv_cont.c **** 
 440:..\lvgl\lv_objx/lv_cont.c ****     child_rs = lv_ll_get_tail(&cont->child_ll); /*Set the row starter child*/
 241              		.loc 1 440 0
 242 001e 04F10408 		add	r8, r4, #4
 243 0022 4046     		mov	r0, r8
 244 0024 FFF7FEFF 		bl	lv_ll_get_tail
 245              	.LVL43:
 441:..\lvgl\lv_objx/lv_cont.c ****     if(child_rs == NULL) return;    /*Return if no child*/
 246              		.loc 1 441 0
 247 0028 0028     		cmp	r0, #0
 248 002a 00F0EE80 		beq	.L14
 249 002e 0746     		mov	r7, r0
 442:..\lvgl\lv_objx/lv_cont.c **** 
 443:..\lvgl\lv_objx/lv_cont.c ****     lv_obj_set_protect(cont, LV_PROTECT_CHILD_CHG);
 250              		.loc 1 443 0
 251 0030 0121     		movs	r1, #1
 252 0032 2046     		mov	r0, r4
 253              	.LVL44:
 254 0034 FFF7FEFF 		bl	lv_obj_set_protect
 255              	.LVL45:
 444:..\lvgl\lv_objx/lv_cont.c **** 
 445:..\lvgl\lv_objx/lv_cont.c ****     child_rc = child_rs; /*Initially the the row starter and closer is the same*/
 446:..\lvgl\lv_objx/lv_cont.c ****     while(child_rs != NULL) {
 256              		.loc 1 446 0
 257 0038 E0E0     		b	.L16
 258              	.LVL46:
 259              	.L31:
 260              	.LBB20:
 447:..\lvgl\lv_objx/lv_cont.c ****         lv_coord_t h_row = 0;
 448:..\lvgl\lv_objx/lv_cont.c ****         lv_coord_t w_row = style->body.padding.hor * 2; /*The width is at least the left+right hpad
 261              		.loc 1 448 0
 262 003a BAF91660 		ldrsh	r6, [r10, #22]
 263 003e 7600     		lsls	r6, r6, #1
 264 0040 36B2     		sxth	r6, r6
 265              	.LVL47:
 266 0042 3C46     		mov	r4, r7
 449:..\lvgl\lv_objx/lv_cont.c ****         uint32_t obj_num = 0;
 267              		.loc 1 449 0
 268 0044 0025     		movs	r5, #0
 447:..\lvgl\lv_objx/lv_cont.c ****         lv_coord_t h_row = 0;
 269              		.loc 1 447 0
 270 0046 A946     		mov	r9, r5
 271              	.LVL48:
 272              	.L22:
 450:..\lvgl\lv_objx/lv_cont.c **** 
 451:..\lvgl\lv_objx/lv_cont.c ****         /*Find the row closer object and collect some data*/
 452:..\lvgl\lv_objx/lv_cont.c ****         do {
 453:..\lvgl\lv_objx/lv_cont.c ****             if(lv_obj_get_hidden(child_rc) == false &&
 273              		.loc 1 453 0
 274 0048 2046     		mov	r0, r4
 275 004a FFF7FEFF 		bl	lv_obj_get_hidden
 276              	.LVL49:
 277 004e 48BB     		cbnz	r0, .L17
 454:..\lvgl\lv_objx/lv_cont.c ****                     lv_obj_is_protected(child_rc, LV_PROTECT_POS) == false) {
 278              		.loc 1 454 0 discriminator 1
ARM GAS  C:\Users\d3bug\AppData\Local\Temp\ccVxVFSv.s 			page 14


 279 0050 0421     		movs	r1, #4
 280 0052 2046     		mov	r0, r4
 281 0054 FFF7FEFF 		bl	lv_obj_is_protected
 282              	.LVL50:
 453:..\lvgl\lv_objx/lv_cont.c ****                     lv_obj_is_protected(child_rc, LV_PROTECT_POS) == false) {
 283              		.loc 1 453 0 discriminator 1
 284 0058 20BB     		cbnz	r0, .L17
 455:..\lvgl\lv_objx/lv_cont.c ****                 /*If this object is already not fit then break*/
 456:..\lvgl\lv_objx/lv_cont.c ****                 if(w_row + lv_obj_get_width(child_rc) > w_obj) {
 285              		.loc 1 456 0
 286 005a 2046     		mov	r0, r4
 287 005c FFF7FEFF 		bl	lv_obj_get_width
 288              	.LVL51:
 289 0060 3044     		add	r0, r0, r6
 290 0062 5845     		cmp	r0, fp
 291 0064 07DD     		ble	.L18
 457:..\lvgl\lv_objx/lv_cont.c ****                     /*Step back one child because the last already not fit, so the previous is the 
 458:..\lvgl\lv_objx/lv_cont.c ****                     if(child_rc != NULL  && obj_num != 0) {
 292              		.loc 1 458 0
 293 0066 34B3     		cbz	r4, .L19
 294              		.loc 1 458 0 is_stmt 0 discriminator 1
 295 0068 2DB3     		cbz	r5, .L19
 459:..\lvgl\lv_objx/lv_cont.c ****                         child_rc = lv_ll_get_next(&cont->child_ll, child_rc);
 296              		.loc 1 459 0 is_stmt 1
 297 006a 2146     		mov	r1, r4
 298 006c 4046     		mov	r0, r8
 299 006e FFF7FEFF 		bl	lv_ll_get_next
 300              	.LVL52:
 301 0072 0446     		mov	r4, r0
 302              	.LVL53:
 303 0074 1FE0     		b	.L19
 304              	.LVL54:
 305              	.L18:
 460:..\lvgl\lv_objx/lv_cont.c ****                     }
 461:..\lvgl\lv_objx/lv_cont.c ****                     break;
 462:..\lvgl\lv_objx/lv_cont.c ****                 }
 463:..\lvgl\lv_objx/lv_cont.c ****                 w_row += lv_obj_get_width(child_rc) + style->body.padding.inner; /*Add the object w
 306              		.loc 1 463 0
 307 0076 2046     		mov	r0, r4
 308 0078 FFF7FEFF 		bl	lv_obj_get_width
 309              	.LVL55:
 310 007c BAF91830 		ldrsh	r3, [r10, #24]
 311 0080 1844     		add	r0, r0, r3
 312 0082 0644     		add	r6, r6, r0
 313              	.LVL56:
 314 0084 36B2     		sxth	r6, r6
 315              	.LVL57:
 464:..\lvgl\lv_objx/lv_cont.c ****                 h_row = LV_MATH_MAX(h_row, lv_obj_get_height(child_rc)); /*Search the highest objec
 316              		.loc 1 464 0
 317 0086 2046     		mov	r0, r4
 318 0088 FFF7FEFF 		bl	lv_obj_get_height
 319              	.LVL58:
 320 008c 8145     		cmp	r9, r0
 321 008e 03DC     		bgt	.L20
 322              		.loc 1 464 0 is_stmt 0 discriminator 1
 323 0090 2046     		mov	r0, r4
 324 0092 FFF7FEFF 		bl	lv_obj_get_height
ARM GAS  C:\Users\d3bug\AppData\Local\Temp\ccVxVFSv.s 			page 15


 325              	.LVL59:
 326 0096 8146     		mov	r9, r0
 327              	.LVL60:
 328              	.L20:
 465:..\lvgl\lv_objx/lv_cont.c ****                 obj_num ++;
 329              		.loc 1 465 0 is_stmt 1 discriminator 4
 330 0098 0135     		adds	r5, r5, #1
 331              	.LVL61:
 466:..\lvgl\lv_objx/lv_cont.c ****                 if(lv_obj_is_protected(child_rc, LV_PROTECT_FOLLOW)) break; /*If can not be followe
 332              		.loc 1 466 0 discriminator 4
 333 009a 0821     		movs	r1, #8
 334 009c 2046     		mov	r0, r4
 335 009e FFF7FEFF 		bl	lv_obj_is_protected
 336              	.LVL62:
 337 00a2 40B9     		cbnz	r0, .L19
 338              	.L17:
 467:..\lvgl\lv_objx/lv_cont.c **** 
 468:..\lvgl\lv_objx/lv_cont.c ****             }
 469:..\lvgl\lv_objx/lv_cont.c ****             child_rc = lv_ll_get_prev(&cont->child_ll, child_rc); /*Load the next object*/
 339              		.loc 1 469 0
 340 00a4 2146     		mov	r1, r4
 341 00a6 4046     		mov	r0, r8
 342 00a8 FFF7FEFF 		bl	lv_ll_get_prev
 343              	.LVL63:
 344 00ac 0446     		mov	r4, r0
 345              	.LVL64:
 470:..\lvgl\lv_objx/lv_cont.c ****             if(obj_num == 0) child_rs = child_rc; /*If the first object was hidden (or too long) th
 346              		.loc 1 470 0
 347 00ae 05B9     		cbnz	r5, .L21
 348 00b0 0746     		mov	r7, r0
 349              	.LVL65:
 350              	.L21:
 471:..\lvgl\lv_objx/lv_cont.c ****         } while(child_rc != NULL);
 351              		.loc 1 471 0
 352 00b2 002C     		cmp	r4, #0
 353 00b4 C8D1     		bne	.L22
 354              	.LVL66:
 355              	.L19:
 472:..\lvgl\lv_objx/lv_cont.c **** 
 473:..\lvgl\lv_objx/lv_cont.c ****         /*If the object is too long  then align it to the middle*/
 474:..\lvgl\lv_objx/lv_cont.c ****         if(obj_num == 0) {
 356              		.loc 1 474 0
 357 00b6 7DB9     		cbnz	r5, .L23
 475:..\lvgl\lv_objx/lv_cont.c ****             if(child_rc != NULL) {
 358              		.loc 1 475 0
 359 00b8 002C     		cmp	r4, #0
 360 00ba 00F09180 		beq	.L24
 476:..\lvgl\lv_objx/lv_cont.c ****                 lv_obj_align(child_rc, cont, LV_ALIGN_IN_TOP_MID, 0, act_y);
 361              		.loc 1 476 0
 362 00be 029B     		ldr	r3, [sp, #8]
 363 00c0 0093     		str	r3, [sp]
 364 00c2 0023     		movs	r3, #0
 365 00c4 0222     		movs	r2, #2
 366 00c6 0399     		ldr	r1, [sp, #12]
 367 00c8 2046     		mov	r0, r4
 368 00ca FFF7FEFF 		bl	lv_obj_align
 369              	.LVL67:
ARM GAS  C:\Users\d3bug\AppData\Local\Temp\ccVxVFSv.s 			page 16


 477:..\lvgl\lv_objx/lv_cont.c ****                 h_row = lv_obj_get_height(child_rc);    /*Not set previously because of the early b
 370              		.loc 1 477 0
 371 00ce 2046     		mov	r0, r4
 372 00d0 FFF7FEFF 		bl	lv_obj_get_height
 373              	.LVL68:
 374 00d4 8146     		mov	r9, r0
 375              	.LVL69:
 376 00d6 83E0     		b	.L24
 377              	.L23:
 478:..\lvgl\lv_objx/lv_cont.c ****             }
 479:..\lvgl\lv_objx/lv_cont.c ****         }
 480:..\lvgl\lv_objx/lv_cont.c ****         /*If there is only one object in the row then align it to the middle*/
 481:..\lvgl\lv_objx/lv_cont.c ****         else if(obj_num == 1) {
 378              		.loc 1 481 0
 379 00d8 012D     		cmp	r5, #1
 380 00da 08D1     		bne	.L25
 482:..\lvgl\lv_objx/lv_cont.c ****             lv_obj_align(child_rs, cont, LV_ALIGN_IN_TOP_MID, 0, act_y);
 381              		.loc 1 482 0
 382 00dc 029B     		ldr	r3, [sp, #8]
 383 00de 0093     		str	r3, [sp]
 384 00e0 0023     		movs	r3, #0
 385 00e2 0222     		movs	r2, #2
 386 00e4 0399     		ldr	r1, [sp, #12]
 387 00e6 3846     		mov	r0, r7
 388 00e8 FFF7FEFF 		bl	lv_obj_align
 389              	.LVL70:
 390 00ec 78E0     		b	.L24
 391              	.L25:
 483:..\lvgl\lv_objx/lv_cont.c ****         }
 484:..\lvgl\lv_objx/lv_cont.c ****         /*If there are two object in the row then align them proportionally*/
 485:..\lvgl\lv_objx/lv_cont.c ****         else if(obj_num == 2) {
 392              		.loc 1 485 0
 393 00ee 022D     		cmp	r5, #2
 394 00f0 3ED1     		bne	.L26
 395              	.LVL71:
 396              	.LBB21:
 486:..\lvgl\lv_objx/lv_cont.c ****             lv_obj_t * obj1 = child_rs;
 487:..\lvgl\lv_objx/lv_cont.c ****             lv_obj_t * obj2 = lv_ll_get_prev(&cont->child_ll, child_rs);
 397              		.loc 1 487 0
 398 00f2 3946     		mov	r1, r7
 399 00f4 4046     		mov	r0, r8
 400 00f6 FFF7FEFF 		bl	lv_ll_get_prev
 401              	.LVL72:
 402 00fa 0646     		mov	r6, r0
 403              	.LVL73:
 488:..\lvgl\lv_objx/lv_cont.c ****             w_row = lv_obj_get_width(obj1) + lv_obj_get_width(obj2);
 404              		.loc 1 488 0
 405 00fc 3846     		mov	r0, r7
 406              	.LVL74:
 407 00fe FFF7FEFF 		bl	lv_obj_get_width
 408              	.LVL75:
 409 0102 0546     		mov	r5, r0
 410              	.LVL76:
 411 0104 0496     		str	r6, [sp, #16]
 412 0106 3046     		mov	r0, r6
 413 0108 FFF7FEFF 		bl	lv_obj_get_width
 414              	.LVL77:
ARM GAS  C:\Users\d3bug\AppData\Local\Temp\ccVxVFSv.s 			page 17


 415 010c 2844     		add	r0, r0, r5
 416 010e 03B2     		sxth	r3, r0
 417              	.LVL78:
 489:..\lvgl\lv_objx/lv_cont.c ****             lv_coord_t pad = (w_obj - w_row) / 3;
 418              		.loc 1 489 0
 419 0110 C3EB0B03 		rsb	r3, r3, fp
 420              	.LVL79:
 421 0114 3E4A     		ldr	r2, .L36
 422 0116 82FB0312 		smull	r1, r2, r2, r3
 423 011a A2EBE376 		sub	r6, r2, r3, asr #31
 424              	.LVL80:
 425 011e 33B2     		sxth	r3, r6
 426 0120 0593     		str	r3, [sp, #20]
 427              	.LVL81:
 490:..\lvgl\lv_objx/lv_cont.c ****             lv_obj_align(obj1, cont, LV_ALIGN_IN_TOP_LEFT, pad, act_y + (h_row - lv_obj_get_height(
 428              		.loc 1 490 0
 429 0122 3846     		mov	r0, r7
 430              	.LVL82:
 431 0124 FFF7FEFF 		bl	lv_obj_get_height
 432              	.LVL83:
 433 0128 C0EB0900 		rsb	r0, r0, r9
 434 012c 00EBD070 		add	r0, r0, r0, lsr #31
 435 0130 BDF80850 		ldrh	r5, [sp, #8]
 436 0134 05EB6003 		add	r3, r5, r0, asr #1
 437 0138 1BB2     		sxth	r3, r3
 438 013a 0093     		str	r3, [sp]
 439 013c 059B     		ldr	r3, [sp, #20]
 440 013e 0122     		movs	r2, #1
 441 0140 0399     		ldr	r1, [sp, #12]
 442 0142 3846     		mov	r0, r7
 443 0144 FFF7FEFF 		bl	lv_obj_align
 444              	.LVL84:
 491:..\lvgl\lv_objx/lv_cont.c ****             lv_obj_align(obj2, cont, LV_ALIGN_IN_TOP_RIGHT, -pad, act_y + (h_row - lv_obj_get_heigh
 445              		.loc 1 491 0
 446 0148 049F     		ldr	r7, [sp, #16]
 447              	.LVL85:
 448 014a 3846     		mov	r0, r7
 449 014c FFF7FEFF 		bl	lv_obj_get_height
 450              	.LVL86:
 451 0150 C0EB0900 		rsb	r0, r0, r9
 452 0154 00EBD072 		add	r2, r0, r0, lsr #31
 453 0158 7342     		negs	r3, r6
 454 015a 05EB6202 		add	r2, r5, r2, asr #1
 455 015e 12B2     		sxth	r2, r2
 456 0160 0092     		str	r2, [sp]
 457 0162 1BB2     		sxth	r3, r3
 458 0164 0322     		movs	r2, #3
 459 0166 0399     		ldr	r1, [sp, #12]
 460 0168 3846     		mov	r0, r7
 461 016a FFF7FEFF 		bl	lv_obj_align
 462              	.LVL87:
 463              	.LBE21:
 464 016e 37E0     		b	.L24
 465              	.LVL88:
 466              	.L26:
 467              	.LBB22:
 492:..\lvgl\lv_objx/lv_cont.c ****         }
ARM GAS  C:\Users\d3bug\AppData\Local\Temp\ccVxVFSv.s 			page 18


 493:..\lvgl\lv_objx/lv_cont.c ****         /* Align the children (from child_rs to child_rc)*/
 494:..\lvgl\lv_objx/lv_cont.c ****         else {
 495:..\lvgl\lv_objx/lv_cont.c ****             w_row -= style->body.padding.inner * obj_num;
 468              		.loc 1 495 0
 469 0170 BAF91830 		ldrsh	r3, [r10, #24]
 470 0174 03FB1566 		mls	r6, r3, r5, r6
 471              	.LVL89:
 472 0178 36B2     		sxth	r6, r6
 473              	.LVL90:
 496:..\lvgl\lv_objx/lv_cont.c ****             lv_coord_t new_opad = (w_obj -  w_row) / (obj_num  - 1);
 474              		.loc 1 496 0
 475 017a C6EB0B06 		rsb	r6, r6, fp
 476              	.LVL91:
 477 017e 013D     		subs	r5, r5, #1
 478              	.LVL92:
 479 0180 B6FBF5F5 		udiv	r5, r6, r5
 480              	.LVL93:
 481 0184 2EB2     		sxth	r6, r5
 482              	.LVL94:
 497:..\lvgl\lv_objx/lv_cont.c ****             lv_coord_t act_x = style->body.padding.hor; /*x init*/
 483              		.loc 1 497 0
 484 0186 BAF91650 		ldrsh	r5, [r10, #22]
 485              	.LVL95:
 498:..\lvgl\lv_objx/lv_cont.c ****             child_tmp = child_rs;
 499:..\lvgl\lv_objx/lv_cont.c ****             while(child_tmp != NULL) {
 486              		.loc 1 499 0
 487 018a 27E0     		b	.L27
 488              	.LVL96:
 489              	.L29:
 500:..\lvgl\lv_objx/lv_cont.c ****                 if(lv_obj_get_hidden(child_tmp) == false &&
 490              		.loc 1 500 0
 491 018c 3846     		mov	r0, r7
 492 018e FFF7FEFF 		bl	lv_obj_get_hidden
 493              	.LVL97:
 494 0192 E0B9     		cbnz	r0, .L28
 501:..\lvgl\lv_objx/lv_cont.c ****                         lv_obj_is_protected(child_tmp, LV_PROTECT_POS) == false) {
 495              		.loc 1 501 0 discriminator 1
 496 0194 0421     		movs	r1, #4
 497 0196 3846     		mov	r0, r7
 498 0198 FFF7FEFF 		bl	lv_obj_is_protected
 499              	.LVL98:
 500:..\lvgl\lv_objx/lv_cont.c ****                 if(lv_obj_get_hidden(child_tmp) == false &&
 500              		.loc 1 500 0 discriminator 1
 501 019c B8B9     		cbnz	r0, .L28
 502:..\lvgl\lv_objx/lv_cont.c ****                     lv_obj_align(child_tmp, cont, LV_ALIGN_IN_TOP_LEFT, act_x, act_y + (h_row - lv_
 502              		.loc 1 502 0
 503 019e 3846     		mov	r0, r7
 504 01a0 FFF7FEFF 		bl	lv_obj_get_height
 505              	.LVL99:
 506 01a4 C0EB0900 		rsb	r0, r0, r9
 507 01a8 00EBD070 		add	r0, r0, r0, lsr #31
 508 01ac 029B     		ldr	r3, [sp, #8]
 509 01ae 03EB6003 		add	r3, r3, r0, asr #1
 510 01b2 1BB2     		sxth	r3, r3
 511 01b4 0093     		str	r3, [sp]
 512 01b6 2B46     		mov	r3, r5
 513 01b8 0122     		movs	r2, #1
ARM GAS  C:\Users\d3bug\AppData\Local\Temp\ccVxVFSv.s 			page 19


 514 01ba 0399     		ldr	r1, [sp, #12]
 515 01bc 3846     		mov	r0, r7
 516 01be FFF7FEFF 		bl	lv_obj_align
 517              	.LVL100:
 503:..\lvgl\lv_objx/lv_cont.c ****                     act_x += lv_obj_get_width(child_tmp) + new_opad;
 518              		.loc 1 503 0
 519 01c2 3846     		mov	r0, r7
 520 01c4 FFF7FEFF 		bl	lv_obj_get_width
 521              	.LVL101:
 522 01c8 3044     		add	r0, r0, r6
 523 01ca 0544     		add	r5, r5, r0
 524              	.LVL102:
 525 01cc 2DB2     		sxth	r5, r5
 526              	.LVL103:
 527              	.L28:
 504:..\lvgl\lv_objx/lv_cont.c ****                 }
 505:..\lvgl\lv_objx/lv_cont.c ****                 if(child_tmp == child_rc) break;
 528              		.loc 1 505 0
 529 01ce BC42     		cmp	r4, r7
 530 01d0 06D0     		beq	.L24
 506:..\lvgl\lv_objx/lv_cont.c ****                 child_tmp = lv_ll_get_prev(&cont->child_ll, child_tmp);
 531              		.loc 1 506 0
 532 01d2 3946     		mov	r1, r7
 533 01d4 4046     		mov	r0, r8
 534 01d6 FFF7FEFF 		bl	lv_ll_get_prev
 535              	.LVL104:
 536 01da 0746     		mov	r7, r0
 537              	.LVL105:
 538              	.L27:
 499:..\lvgl\lv_objx/lv_cont.c ****                 if(lv_obj_get_hidden(child_tmp) == false &&
 539              		.loc 1 499 0
 540 01dc 002F     		cmp	r7, #0
 541 01de D5D1     		bne	.L29
 542              	.LVL106:
 543              	.L24:
 544              	.LBE22:
 507:..\lvgl\lv_objx/lv_cont.c ****             }
 508:..\lvgl\lv_objx/lv_cont.c **** 
 509:..\lvgl\lv_objx/lv_cont.c ****         }
 510:..\lvgl\lv_objx/lv_cont.c **** 
 511:..\lvgl\lv_objx/lv_cont.c ****         if(child_rc == NULL) break;
 545              		.loc 1 511 0
 546 01e0 7CB1     		cbz	r4, .L30
 512:..\lvgl\lv_objx/lv_cont.c ****         act_y += style->body.padding.inner + h_row; /*y increment*/
 547              		.loc 1 512 0
 548 01e2 BAF91830 		ldrsh	r3, [r10, #24]
 549 01e6 9944     		add	r9, r9, r3
 550              	.LVL107:
 551 01e8 029B     		ldr	r3, [sp, #8]
 552 01ea 9944     		add	r9, r9, r3
 553 01ec 0FFA89F3 		sxth	r3, r9
 554 01f0 0293     		str	r3, [sp, #8]
 555              	.LVL108:
 513:..\lvgl\lv_objx/lv_cont.c ****         child_rs = lv_ll_get_prev(&cont->child_ll, child_rc); /*Go to the next object*/
 556              		.loc 1 513 0
 557 01f2 2146     		mov	r1, r4
 558 01f4 4046     		mov	r0, r8
ARM GAS  C:\Users\d3bug\AppData\Local\Temp\ccVxVFSv.s 			page 20


 559 01f6 FFF7FEFF 		bl	lv_ll_get_prev
 560              	.LVL109:
 561 01fa 0746     		mov	r7, r0
 562              	.LVL110:
 563              	.L16:
 564              	.LBE20:
 446:..\lvgl\lv_objx/lv_cont.c ****         lv_coord_t h_row = 0;
 565              		.loc 1 446 0
 566 01fc 002F     		cmp	r7, #0
 567 01fe 7FF41CAF 		bne	.L31
 568              	.LVL111:
 569              	.L30:
 514:..\lvgl\lv_objx/lv_cont.c ****         child_rc = child_rs;
 515:..\lvgl\lv_objx/lv_cont.c ****     }
 516:..\lvgl\lv_objx/lv_cont.c ****     lv_obj_clear_protect(cont, LV_PROTECT_CHILD_CHG);
 570              		.loc 1 516 0
 571 0202 0121     		movs	r1, #1
 572 0204 0398     		ldr	r0, [sp, #12]
 573 0206 FFF7FEFF 		bl	lv_obj_clear_protect
 574              	.LVL112:
 575              	.L14:
 517:..\lvgl\lv_objx/lv_cont.c **** }
 576              		.loc 1 517 0
 577 020a 07B0     		add	sp, sp, #28
 578              		.cfi_def_cfa_offset 36
 579              		@ sp needed
 580 020c BDE8F08F 		pop	{r4, r5, r6, r7, r8, r9, r10, fp, pc}
 581              	.LVL113:
 582              	.L37:
 583              		.align	2
 584              	.L36:
 585 0210 56555555 		.word	1431655766
 586              		.cfi_endproc
 587              	.LFE27:
 588              		.size	lv_cont_layout_pretty, .-lv_cont_layout_pretty
 589              		.section	.text.lv_cont_layout_grid,"ax",%progbits
 590              		.align	2
 591              		.thumb
 592              		.thumb_func
 593              		.type	lv_cont_layout_grid, %function
 594              	lv_cont_layout_grid:
 595              	.LFB28:
 518:..\lvgl\lv_objx/lv_cont.c **** 
 519:..\lvgl\lv_objx/lv_cont.c **** /**
 520:..\lvgl\lv_objx/lv_cont.c ****  * Handle the grid layout. Align same-sized objects in a grid
 521:..\lvgl\lv_objx/lv_cont.c ****  * @param cont pointer to an object which layout should be handled
 522:..\lvgl\lv_objx/lv_cont.c ****  */
 523:..\lvgl\lv_objx/lv_cont.c **** static void lv_cont_layout_grid(lv_obj_t * cont)
 524:..\lvgl\lv_objx/lv_cont.c **** {
 596              		.loc 1 524 0
 597              		.cfi_startproc
 598              		@ args = 0, pretend = 0, frame = 8
 599              		@ frame_needed = 0, uses_anonymous_args = 0
 600              	.LVL114:
 601 0000 2DE9F04F 		push	{r4, r5, r6, r7, r8, r9, r10, fp, lr}
 602              		.cfi_def_cfa_offset 36
 603              		.cfi_offset 4, -36
ARM GAS  C:\Users\d3bug\AppData\Local\Temp\ccVxVFSv.s 			page 21


 604              		.cfi_offset 5, -32
 605              		.cfi_offset 6, -28
 606              		.cfi_offset 7, -24
 607              		.cfi_offset 8, -20
 608              		.cfi_offset 9, -16
 609              		.cfi_offset 10, -12
 610              		.cfi_offset 11, -8
 611              		.cfi_offset 14, -4
 612 0004 83B0     		sub	sp, sp, #12
 613              		.cfi_def_cfa_offset 48
 614 0006 0646     		mov	r6, r0
 615 0008 0090     		str	r0, [sp]
 525:..\lvgl\lv_objx/lv_cont.c ****     lv_obj_t * child;
 526:..\lvgl\lv_objx/lv_cont.c ****     lv_style_t * style = lv_obj_get_style(cont);
 616              		.loc 1 526 0
 617 000a FFF7FEFF 		bl	lv_obj_get_style
 618              	.LVL115:
 619 000e 8146     		mov	r9, r0
 620              	.LVL116:
 527:..\lvgl\lv_objx/lv_cont.c ****     lv_coord_t w_tot = lv_obj_get_width(cont);
 621              		.loc 1 527 0
 622 0010 3046     		mov	r0, r6
 623              	.LVL117:
 624 0012 FFF7FEFF 		bl	lv_obj_get_width
 625              	.LVL118:
 626 0016 0546     		mov	r5, r0
 627              	.LVL119:
 528:..\lvgl\lv_objx/lv_cont.c ****     lv_coord_t w_obj = lv_obj_get_width(lv_obj_get_child(cont, NULL));
 628              		.loc 1 528 0
 629 0018 0021     		movs	r1, #0
 630 001a 3046     		mov	r0, r6
 631 001c FFF7FEFF 		bl	lv_obj_get_child
 632              	.LVL120:
 633 0020 FFF7FEFF 		bl	lv_obj_get_width
 634              	.LVL121:
 635 0024 0446     		mov	r4, r0
 636              	.LVL122:
 529:..\lvgl\lv_objx/lv_cont.c ****     lv_coord_t h_obj = lv_obj_get_height(lv_obj_get_child(cont, NULL));
 637              		.loc 1 529 0
 638 0026 0021     		movs	r1, #0
 639 0028 3046     		mov	r0, r6
 640 002a FFF7FEFF 		bl	lv_obj_get_child
 641              	.LVL123:
 642 002e FFF7FEFF 		bl	lv_obj_get_height
 643              	.LVL124:
 530:..\lvgl\lv_objx/lv_cont.c ****     uint16_t obj_row = (w_tot - (2 * style->body.padding.hor)) / (w_obj + style->body.padding.inner
 644              		.loc 1 530 0
 645 0032 B9F91630 		ldrsh	r3, [r9, #22]
 646 0036 A5EB4303 		sub	r3, r5, r3, lsl #1
 647 003a B9F91810 		ldrsh	r1, [r9, #24]
 648 003e 0A19     		adds	r2, r1, r4
 649 0040 93FBF2F2 		sdiv	r2, r3, r2
 650 0044 1FFA82FB 		uxth	fp, r2
 651              	.LVL125:
 531:..\lvgl\lv_objx/lv_cont.c ****     lv_coord_t x_ofs;
 532:..\lvgl\lv_objx/lv_cont.c ****     if(obj_row > 1) {
 652              		.loc 1 532 0
ARM GAS  C:\Users\d3bug\AppData\Local\Temp\ccVxVFSv.s 			page 22


 653 0048 BBF1010F 		cmp	fp, #1
 654 004c 09D9     		bls	.L39
 533:..\lvgl\lv_objx/lv_cont.c ****         x_ofs = w_obj + (w_tot - (2 * style->body.padding.hor) - (obj_row * w_obj)) / (obj_row - 1)
 655              		.loc 1 533 0
 656 004e 0BFB1433 		mls	r3, fp, r4, r3
 657 0052 0BF1FF32 		add	r2, fp, #-1
 658 0056 93FBF2F3 		sdiv	r3, r3, r2
 659 005a 2344     		add	r3, r3, r4
 660 005c 0FFA83F8 		sxth	r8, r3
 661              	.LVL126:
 662 0060 08E0     		b	.L40
 663              	.LVL127:
 664              	.L39:
 534:..\lvgl\lv_objx/lv_cont.c ****     } else {
 535:..\lvgl\lv_objx/lv_cont.c ****         x_ofs = w_tot / 2 - w_obj / 2;
 665              		.loc 1 535 0
 666 0062 05EBD575 		add	r5, r5, r5, lsr #31
 667              	.LVL128:
 668 0066 04EBD473 		add	r3, r4, r4, lsr #31
 669 006a 5B10     		asrs	r3, r3, #1
 670 006c C3EB6505 		rsb	r5, r3, r5, asr #1
 671 0070 0FFA85F8 		sxth	r8, r5
 672              	.LVL129:
 673              	.L40:
 536:..\lvgl\lv_objx/lv_cont.c ****     }
 537:..\lvgl\lv_objx/lv_cont.c ****     lv_coord_t y_ofs = h_obj + style->body.padding.inner;
 674              		.loc 1 537 0
 675 0074 0844     		add	r0, r0, r1
 676              	.LVL130:
 677 0076 83B2     		uxth	r3, r0
 678 0078 0193     		str	r3, [sp, #4]
 679              	.LVL131:
 538:..\lvgl\lv_objx/lv_cont.c **** 
 539:..\lvgl\lv_objx/lv_cont.c ****     /* Disable child change action because the children will be moved a lot
 540:..\lvgl\lv_objx/lv_cont.c ****      * an unnecessary child change signals could be sent*/
 541:..\lvgl\lv_objx/lv_cont.c ****     lv_obj_set_protect(cont, LV_PROTECT_CHILD_CHG);
 680              		.loc 1 541 0
 681 007a 0121     		movs	r1, #1
 682 007c 009C     		ldr	r4, [sp]
 683              	.LVL132:
 684 007e 2046     		mov	r0, r4
 685 0080 FFF7FEFF 		bl	lv_obj_set_protect
 686              	.LVL133:
 542:..\lvgl\lv_objx/lv_cont.c **** 
 543:..\lvgl\lv_objx/lv_cont.c ****     /* Align the children */
 544:..\lvgl\lv_objx/lv_cont.c ****     lv_coord_t act_x = style->body.padding.hor;
 687              		.loc 1 544 0
 688 0084 B9F91670 		ldrsh	r7, [r9, #22]
 689              	.LVL134:
 545:..\lvgl\lv_objx/lv_cont.c ****     lv_coord_t act_y = style->body.padding.ver;
 690              		.loc 1 545 0
 691 0088 B9F914A0 		ldrsh	r10, [r9, #20]
 692              	.LVL135:
 546:..\lvgl\lv_objx/lv_cont.c ****     uint16_t obj_cnt = 0;
 547:..\lvgl\lv_objx/lv_cont.c ****     LL_READ_BACK(cont->child_ll, child) {
 693              		.loc 1 547 0
 694 008c 251D     		adds	r5, r4, #4
ARM GAS  C:\Users\d3bug\AppData\Local\Temp\ccVxVFSv.s 			page 23


 695 008e 2846     		mov	r0, r5
 696 0090 FFF7FEFF 		bl	lv_ll_get_tail
 697              	.LVL136:
 698 0094 0446     		mov	r4, r0
 699              	.LVL137:
 546:..\lvgl\lv_objx/lv_cont.c ****     uint16_t obj_cnt = 0;
 700              		.loc 1 546 0
 701 0096 0026     		movs	r6, #0
 702              	.LVL138:
 703              		.loc 1 547 0
 704 0098 28E0     		b	.L41
 705              	.LVL139:
 706              	.L47:
 548:..\lvgl\lv_objx/lv_cont.c ****         if(lv_obj_get_hidden(child) != false ||
 707              		.loc 1 548 0
 708 009a 2046     		mov	r0, r4
 709              	.LVL140:
 710 009c FFF7FEFF 		bl	lv_obj_get_hidden
 711              	.LVL141:
 712 00a0 F8B9     		cbnz	r0, .L44
 549:..\lvgl\lv_objx/lv_cont.c ****                 lv_obj_is_protected(child, LV_PROTECT_POS) != false) continue;
 713              		.loc 1 549 0 discriminator 1
 714 00a2 0421     		movs	r1, #4
 715 00a4 2046     		mov	r0, r4
 716 00a6 FFF7FEFF 		bl	lv_obj_is_protected
 717              	.LVL142:
 548:..\lvgl\lv_objx/lv_cont.c ****         if(lv_obj_get_hidden(child) != false ||
 718              		.loc 1 548 0 discriminator 1
 719 00aa D0B9     		cbnz	r0, .L44
 550:..\lvgl\lv_objx/lv_cont.c **** 
 551:..\lvgl\lv_objx/lv_cont.c ****         if(obj_row > 1) {
 720              		.loc 1 551 0
 721 00ac BBF1010F 		cmp	fp, #1
 722 00b0 07D9     		bls	.L45
 552:..\lvgl\lv_objx/lv_cont.c ****             lv_obj_set_pos(child, act_x, act_y);
 723              		.loc 1 552 0
 724 00b2 5246     		mov	r2, r10
 725 00b4 3946     		mov	r1, r7
 726 00b6 2046     		mov	r0, r4
 727 00b8 FFF7FEFF 		bl	lv_obj_set_pos
 728              	.LVL143:
 553:..\lvgl\lv_objx/lv_cont.c ****             act_x += x_ofs;
 729              		.loc 1 553 0
 730 00bc 4744     		add	r7, r7, r8
 731              	.LVL144:
 732 00be 3FB2     		sxth	r7, r7
 733              	.LVL145:
 734 00c0 04E0     		b	.L46
 735              	.L45:
 554:..\lvgl\lv_objx/lv_cont.c ****         } else {
 555:..\lvgl\lv_objx/lv_cont.c ****             lv_obj_set_pos(child, x_ofs, act_y);
 736              		.loc 1 555 0
 737 00c2 5246     		mov	r2, r10
 738 00c4 4146     		mov	r1, r8
 739 00c6 2046     		mov	r0, r4
 740 00c8 FFF7FEFF 		bl	lv_obj_set_pos
 741              	.LVL146:
ARM GAS  C:\Users\d3bug\AppData\Local\Temp\ccVxVFSv.s 			page 24


 742              	.L46:
 556:..\lvgl\lv_objx/lv_cont.c ****         }
 557:..\lvgl\lv_objx/lv_cont.c ****         obj_cnt ++;
 743              		.loc 1 557 0
 744 00cc 0136     		adds	r6, r6, #1
 745              	.LVL147:
 746 00ce B6B2     		uxth	r6, r6
 747              	.LVL148:
 558:..\lvgl\lv_objx/lv_cont.c **** 
 559:..\lvgl\lv_objx/lv_cont.c ****         if(obj_cnt >= obj_row) {
 748              		.loc 1 559 0
 749 00d0 B345     		cmp	fp, r6
 750 00d2 06D8     		bhi	.L44
 751              	.LVL149:
 560:..\lvgl\lv_objx/lv_cont.c ****             obj_cnt = 0;
 561:..\lvgl\lv_objx/lv_cont.c ****             act_x = style->body.padding.hor;
 752              		.loc 1 561 0
 753 00d4 B9F91670 		ldrsh	r7, [r9, #22]
 754              	.LVL150:
 562:..\lvgl\lv_objx/lv_cont.c ****             act_y += y_ofs;
 755              		.loc 1 562 0
 756 00d8 019B     		ldr	r3, [sp, #4]
 757 00da 9A44     		add	r10, r10, r3
 758              	.LVL151:
 759 00dc 0FFA8AFA 		sxth	r10, r10
 760              	.LVL152:
 560:..\lvgl\lv_objx/lv_cont.c ****             obj_cnt = 0;
 761              		.loc 1 560 0
 762 00e0 0026     		movs	r6, #0
 763              	.LVL153:
 764              	.L44:
 547:..\lvgl\lv_objx/lv_cont.c ****         if(lv_obj_get_hidden(child) != false ||
 765              		.loc 1 547 0 discriminator 2
 766 00e2 2146     		mov	r1, r4
 767 00e4 2846     		mov	r0, r5
 768 00e6 FFF7FEFF 		bl	lv_ll_get_prev
 769              	.LVL154:
 770 00ea 0446     		mov	r4, r0
 771              	.LVL155:
 772              	.L41:
 547:..\lvgl\lv_objx/lv_cont.c ****         if(lv_obj_get_hidden(child) != false ||
 773              		.loc 1 547 0 is_stmt 0 discriminator 1
 774 00ec 002C     		cmp	r4, #0
 775 00ee D4D1     		bne	.L47
 563:..\lvgl\lv_objx/lv_cont.c ****         }
 564:..\lvgl\lv_objx/lv_cont.c ****     }
 565:..\lvgl\lv_objx/lv_cont.c **** 
 566:..\lvgl\lv_objx/lv_cont.c ****     lv_obj_clear_protect(cont, LV_PROTECT_CHILD_CHG);
 776              		.loc 1 566 0 is_stmt 1
 777 00f0 0121     		movs	r1, #1
 778 00f2 0098     		ldr	r0, [sp]
 779              	.LVL156:
 780 00f4 FFF7FEFF 		bl	lv_obj_clear_protect
 781              	.LVL157:
 567:..\lvgl\lv_objx/lv_cont.c **** }
 782              		.loc 1 567 0
 783 00f8 03B0     		add	sp, sp, #12
ARM GAS  C:\Users\d3bug\AppData\Local\Temp\ccVxVFSv.s 			page 25


 784              		.cfi_def_cfa_offset 36
 785              	.LVL158:
 786              		@ sp needed
 787 00fa BDE8F08F 		pop	{r4, r5, r6, r7, r8, r9, r10, fp, pc}
 788              		.cfi_endproc
 789              	.LFE28:
 790              		.size	lv_cont_layout_grid, .-lv_cont_layout_grid
 791 00fe 00BF     		.section	.text.lv_cont_refr_autofit,"ax",%progbits
 792              		.align	2
 793              		.thumb
 794              		.thumb_func
 795              		.type	lv_cont_refr_autofit, %function
 796              	lv_cont_refr_autofit:
 797              	.LFB29:
 568:..\lvgl\lv_objx/lv_cont.c **** 
 569:..\lvgl\lv_objx/lv_cont.c **** /**
 570:..\lvgl\lv_objx/lv_cont.c ****  * Handle auto fit. Set the size of the object to involve all children.
 571:..\lvgl\lv_objx/lv_cont.c ****  * @param cont pointer to an object which size will be modified
 572:..\lvgl\lv_objx/lv_cont.c ****  */
 573:..\lvgl\lv_objx/lv_cont.c **** static void lv_cont_refr_autofit(lv_obj_t * cont)
 574:..\lvgl\lv_objx/lv_cont.c **** {
 798              		.loc 1 574 0
 799              		.cfi_startproc
 800              		@ args = 0, pretend = 0, frame = 16
 801              		@ frame_needed = 0, uses_anonymous_args = 0
 802              	.LVL159:
 803 0000 2DE9F043 		push	{r4, r5, r6, r7, r8, r9, lr}
 804              		.cfi_def_cfa_offset 28
 805              		.cfi_offset 4, -28
 806              		.cfi_offset 5, -24
 807              		.cfi_offset 6, -20
 808              		.cfi_offset 7, -16
 809              		.cfi_offset 8, -12
 810              		.cfi_offset 9, -8
 811              		.cfi_offset 14, -4
 812 0004 85B0     		sub	sp, sp, #20
 813              		.cfi_def_cfa_offset 48
 814 0006 0546     		mov	r5, r0
 575:..\lvgl\lv_objx/lv_cont.c ****     lv_cont_ext_t * ext = lv_obj_get_ext_attr(cont);
 815              		.loc 1 575 0
 816 0008 FFF7FEFF 		bl	lv_obj_get_ext_attr
 817              	.LVL160:
 576:..\lvgl\lv_objx/lv_cont.c **** 
 577:..\lvgl\lv_objx/lv_cont.c ****     if(ext->hor_fit == 0 &&
 818              		.loc 1 577 0
 819 000c 0378     		ldrb	r3, [r0]	@ zero_extendqisi2
 820 000e 13F0300F 		tst	r3, #48
 821 0012 00F0B780 		beq	.L49
 822 0016 0746     		mov	r7, r0
 578:..\lvgl\lv_objx/lv_cont.c ****             ext->ver_fit == 0) {
 579:..\lvgl\lv_objx/lv_cont.c ****         return;
 580:..\lvgl\lv_objx/lv_cont.c ****     }
 581:..\lvgl\lv_objx/lv_cont.c **** 
 582:..\lvgl\lv_objx/lv_cont.c ****     lv_area_t new_cords;
 583:..\lvgl\lv_objx/lv_cont.c ****     lv_area_t ori;
 584:..\lvgl\lv_objx/lv_cont.c ****     lv_style_t * style = lv_obj_get_style(cont);
 823              		.loc 1 584 0
ARM GAS  C:\Users\d3bug\AppData\Local\Temp\ccVxVFSv.s 			page 26


 824 0018 2846     		mov	r0, r5
 825              	.LVL161:
 826 001a FFF7FEFF 		bl	lv_obj_get_style
 827              	.LVL162:
 585:..\lvgl\lv_objx/lv_cont.c ****     lv_obj_t * i;
 586:..\lvgl\lv_objx/lv_cont.c ****     lv_coord_t hpad = style->body.padding.hor;
 828              		.loc 1 586 0
 829 001e B0F91690 		ldrsh	r9, [r0, #22]
 830              	.LVL163:
 587:..\lvgl\lv_objx/lv_cont.c ****     lv_coord_t vpad = style->body.padding.ver;
 831              		.loc 1 587 0
 832 0022 B0F91480 		ldrsh	r8, [r0, #20]
 833              	.LVL164:
 588:..\lvgl\lv_objx/lv_cont.c **** 
 589:..\lvgl\lv_objx/lv_cont.c ****     /*Search the side coordinates of the children*/
 590:..\lvgl\lv_objx/lv_cont.c ****     lv_obj_get_coords(cont, &ori);
 834              		.loc 1 590 0
 835 0026 6946     		mov	r1, sp
 836 0028 2846     		mov	r0, r5
 837              	.LVL165:
 838 002a FFF7FEFF 		bl	lv_obj_get_coords
 839              	.LVL166:
 591:..\lvgl\lv_objx/lv_cont.c ****     lv_obj_get_coords(cont, &new_cords);
 840              		.loc 1 591 0
 841 002e 02A9     		add	r1, sp, #8
 842 0030 2846     		mov	r0, r5
 843 0032 FFF7FEFF 		bl	lv_obj_get_coords
 844              	.LVL167:
 592:..\lvgl\lv_objx/lv_cont.c **** 
 593:..\lvgl\lv_objx/lv_cont.c ****     new_cords.x1 = LV_COORD_MAX;
 845              		.loc 1 593 0
 846 0036 43F6FF73 		movw	r3, #16383
 847 003a ADF80830 		strh	r3, [sp, #8]	@ movhi
 594:..\lvgl\lv_objx/lv_cont.c ****     new_cords.y1 = LV_COORD_MAX;
 848              		.loc 1 594 0
 849 003e ADF80A30 		strh	r3, [sp, #10]	@ movhi
 595:..\lvgl\lv_objx/lv_cont.c ****     new_cords.x2 = LV_COORD_MIN;
 850              		.loc 1 595 0
 851 0042 4FF44043 		mov	r3, #49152
 852 0046 ADF80C30 		strh	r3, [sp, #12]	@ movhi
 596:..\lvgl\lv_objx/lv_cont.c ****     new_cords.y2 = LV_COORD_MIN;
 853              		.loc 1 596 0
 854 004a ADF80E30 		strh	r3, [sp, #14]	@ movhi
 597:..\lvgl\lv_objx/lv_cont.c **** 
 598:..\lvgl\lv_objx/lv_cont.c ****     LL_READ(cont->child_ll, i) {
 855              		.loc 1 598 0
 856 004e 2E1D     		adds	r6, r5, #4
 857 0050 3046     		mov	r0, r6
 858 0052 FFF7FEFF 		bl	lv_ll_get_head
 859              	.LVL168:
 860 0056 0446     		mov	r4, r0
 861              	.LVL169:
 862 0058 2CE0     		b	.L51
 863              	.L53:
 599:..\lvgl\lv_objx/lv_cont.c ****         if(lv_obj_get_hidden(i) != false) continue;
 864              		.loc 1 599 0
 865 005a 2046     		mov	r0, r4
ARM GAS  C:\Users\d3bug\AppData\Local\Temp\ccVxVFSv.s 			page 27


 866              	.LVL170:
 867 005c FFF7FEFF 		bl	lv_obj_get_hidden
 868              	.LVL171:
 869 0060 18BB     		cbnz	r0, .L52
 600:..\lvgl\lv_objx/lv_cont.c ****         new_cords.x1 = LV_MATH_MIN(new_cords.x1, i->coords.x1);
 870              		.loc 1 600 0
 871 0062 B4F91020 		ldrsh	r2, [r4, #16]
 872 0066 BDF90830 		ldrsh	r3, [sp, #8]
 873 006a 9342     		cmp	r3, r2
 874 006c A8BF     		it	ge
 875 006e 1346     		movge	r3, r2
 876 0070 ADF80830 		strh	r3, [sp, #8]	@ movhi
 601:..\lvgl\lv_objx/lv_cont.c ****         new_cords.y1 = LV_MATH_MIN(new_cords.y1, i->coords.y1);
 877              		.loc 1 601 0
 878 0074 B4F91220 		ldrsh	r2, [r4, #18]
 879 0078 BDF90A30 		ldrsh	r3, [sp, #10]
 880 007c 9342     		cmp	r3, r2
 881 007e A8BF     		it	ge
 882 0080 1346     		movge	r3, r2
 883 0082 ADF80A30 		strh	r3, [sp, #10]	@ movhi
 602:..\lvgl\lv_objx/lv_cont.c ****         new_cords.x2 = LV_MATH_MAX(new_cords.x2, i->coords.x2);
 884              		.loc 1 602 0
 885 0086 B4F91420 		ldrsh	r2, [r4, #20]
 886 008a BDF90C30 		ldrsh	r3, [sp, #12]
 887 008e 9342     		cmp	r3, r2
 888 0090 B8BF     		it	lt
 889 0092 1346     		movlt	r3, r2
 890 0094 ADF80C30 		strh	r3, [sp, #12]	@ movhi
 603:..\lvgl\lv_objx/lv_cont.c ****         new_cords.y2 = LV_MATH_MAX(new_cords.y2, i->coords.y2);
 891              		.loc 1 603 0
 892 0098 B4F91620 		ldrsh	r2, [r4, #22]
 893 009c BDF90E30 		ldrsh	r3, [sp, #14]
 894 00a0 9342     		cmp	r3, r2
 895 00a2 B8BF     		it	lt
 896 00a4 1346     		movlt	r3, r2
 897 00a6 ADF80E30 		strh	r3, [sp, #14]	@ movhi
 898              	.L52:
 598:..\lvgl\lv_objx/lv_cont.c ****         if(lv_obj_get_hidden(i) != false) continue;
 899              		.loc 1 598 0 discriminator 2
 900 00aa 2146     		mov	r1, r4
 901 00ac 3046     		mov	r0, r6
 902 00ae FFF7FEFF 		bl	lv_ll_get_next
 903              	.LVL172:
 904 00b2 0446     		mov	r4, r0
 905              	.LVL173:
 906              	.L51:
 598:..\lvgl\lv_objx/lv_cont.c ****         if(lv_obj_get_hidden(i) != false) continue;
 907              		.loc 1 598 0 is_stmt 0 discriminator 1
 908 00b4 002C     		cmp	r4, #0
 909 00b6 D0D1     		bne	.L53
 604:..\lvgl\lv_objx/lv_cont.c ****     }
 605:..\lvgl\lv_objx/lv_cont.c **** 
 606:..\lvgl\lv_objx/lv_cont.c ****     /*If the value is not the init value then the page has >=1 child.*/
 607:..\lvgl\lv_objx/lv_cont.c ****     if(new_cords.x1 != LV_COORD_MAX) {
 910              		.loc 1 607 0 is_stmt 1
 911 00b8 BDF90830 		ldrsh	r3, [sp, #8]
 912 00bc 43F6FF72 		movw	r2, #16383
ARM GAS  C:\Users\d3bug\AppData\Local\Temp\ccVxVFSv.s 			page 28


 913 00c0 9342     		cmp	r3, r2
 914 00c2 5FD0     		beq	.L49
 608:..\lvgl\lv_objx/lv_cont.c ****         if(ext->hor_fit != 0) {
 915              		.loc 1 608 0
 916 00c4 3A78     		ldrb	r2, [r7]	@ zero_extendqisi2
 917 00c6 12F0100F 		tst	r2, #16
 918 00ca 0BD0     		beq	.L55
 609:..\lvgl\lv_objx/lv_cont.c ****             new_cords.x1 -= hpad;
 919              		.loc 1 609 0
 920 00cc 1FFA89F9 		uxth	r9, r9
 921 00d0 C9EB0303 		rsb	r3, r9, r3
 922 00d4 ADF80830 		strh	r3, [sp, #8]	@ movhi
 610:..\lvgl\lv_objx/lv_cont.c ****             new_cords.x2 += hpad;
 923              		.loc 1 610 0
 924 00d8 BDF80C30 		ldrh	r3, [sp, #12]
 925 00dc 9944     		add	r9, r9, r3
 926              	.LVL174:
 927 00de ADF80C90 		strh	r9, [sp, #12]	@ movhi
 928 00e2 07E0     		b	.L56
 929              	.LVL175:
 930              	.L55:
 611:..\lvgl\lv_objx/lv_cont.c ****         } else {
 612:..\lvgl\lv_objx/lv_cont.c ****             new_cords.x1 = cont->coords.x1;
 931              		.loc 1 612 0
 932 00e4 B5F91030 		ldrsh	r3, [r5, #16]
 933 00e8 ADF80830 		strh	r3, [sp, #8]	@ movhi
 613:..\lvgl\lv_objx/lv_cont.c ****             new_cords.x2 = cont->coords.x2;
 934              		.loc 1 613 0
 935 00ec B5F91430 		ldrsh	r3, [r5, #20]
 936 00f0 ADF80C30 		strh	r3, [sp, #12]	@ movhi
 937              	.LVL176:
 938              	.L56:
 614:..\lvgl\lv_objx/lv_cont.c ****         }
 615:..\lvgl\lv_objx/lv_cont.c ****         if(ext->ver_fit != 0) {
 939              		.loc 1 615 0
 940 00f4 3B78     		ldrb	r3, [r7]	@ zero_extendqisi2
 941 00f6 13F0200F 		tst	r3, #32
 942 00fa 0DD0     		beq	.L57
 616:..\lvgl\lv_objx/lv_cont.c ****             new_cords.y1 -= vpad;
 943              		.loc 1 616 0
 944 00fc 1FFA88F8 		uxth	r8, r8
 945 0100 BDF80A30 		ldrh	r3, [sp, #10]
 946 0104 C8EB0303 		rsb	r3, r8, r3
 947 0108 ADF80A30 		strh	r3, [sp, #10]	@ movhi
 617:..\lvgl\lv_objx/lv_cont.c ****             new_cords.y2 += vpad;
 948              		.loc 1 617 0
 949 010c BDF80E30 		ldrh	r3, [sp, #14]
 950 0110 9844     		add	r8, r8, r3
 951              	.LVL177:
 952 0112 ADF80E80 		strh	r8, [sp, #14]	@ movhi
 953 0116 07E0     		b	.L58
 954              	.LVL178:
 955              	.L57:
 618:..\lvgl\lv_objx/lv_cont.c ****         } else {
 619:..\lvgl\lv_objx/lv_cont.c ****             new_cords.y1 = cont->coords.y1;
 956              		.loc 1 619 0
 957 0118 B5F91230 		ldrsh	r3, [r5, #18]
ARM GAS  C:\Users\d3bug\AppData\Local\Temp\ccVxVFSv.s 			page 29


 958 011c ADF80A30 		strh	r3, [sp, #10]	@ movhi
 620:..\lvgl\lv_objx/lv_cont.c ****             new_cords.y2 = cont->coords.y2;
 959              		.loc 1 620 0
 960 0120 B5F91630 		ldrsh	r3, [r5, #22]
 961 0124 ADF80E30 		strh	r3, [sp, #14]	@ movhi
 962              	.LVL179:
 963              	.L58:
 621:..\lvgl\lv_objx/lv_cont.c ****         }
 622:..\lvgl\lv_objx/lv_cont.c **** 
 623:..\lvgl\lv_objx/lv_cont.c ****         /*Do nothing if the coordinates are not changed*/
 624:..\lvgl\lv_objx/lv_cont.c ****         if(cont->coords.x1 != new_cords.x1 ||
 964              		.loc 1 624 0
 965 0128 B5F91020 		ldrsh	r2, [r5, #16]
 966 012c BDF90830 		ldrsh	r3, [sp, #8]
 967 0130 9A42     		cmp	r2, r3
 968 0132 11D1     		bne	.L59
 625:..\lvgl\lv_objx/lv_cont.c ****                 cont->coords.y1 != new_cords.y1 ||
 969              		.loc 1 625 0 discriminator 1
 970 0134 B5F91220 		ldrsh	r2, [r5, #18]
 971 0138 BDF90A30 		ldrsh	r3, [sp, #10]
 624:..\lvgl\lv_objx/lv_cont.c ****                 cont->coords.y1 != new_cords.y1 ||
 972              		.loc 1 624 0 discriminator 1
 973 013c 9A42     		cmp	r2, r3
 974 013e 0BD1     		bne	.L59
 626:..\lvgl\lv_objx/lv_cont.c ****                 cont->coords.x2 != new_cords.x2 ||
 975              		.loc 1 626 0
 976 0140 B5F91420 		ldrsh	r2, [r5, #20]
 977 0144 BDF90C30 		ldrsh	r3, [sp, #12]
 625:..\lvgl\lv_objx/lv_cont.c ****                 cont->coords.y1 != new_cords.y1 ||
 978              		.loc 1 625 0
 979 0148 9A42     		cmp	r2, r3
 980 014a 05D1     		bne	.L59
 627:..\lvgl\lv_objx/lv_cont.c ****                 cont->coords.y2 != new_cords.y2) {
 981              		.loc 1 627 0
 982 014c B5F91620 		ldrsh	r2, [r5, #22]
 983 0150 BDF90E30 		ldrsh	r3, [sp, #14]
 626:..\lvgl\lv_objx/lv_cont.c ****                 cont->coords.x2 != new_cords.x2 ||
 984              		.loc 1 626 0
 985 0154 9A42     		cmp	r2, r3
 986 0156 15D0     		beq	.L49
 987              	.L59:
 988              	.LBB23:
 628:..\lvgl\lv_objx/lv_cont.c **** 
 629:..\lvgl\lv_objx/lv_cont.c ****             lv_obj_invalidate(cont);
 989              		.loc 1 629 0
 990 0158 2846     		mov	r0, r5
 991              	.LVL180:
 992 015a FFF7FEFF 		bl	lv_obj_invalidate
 993              	.LVL181:
 994              	.LBB24:
 995              	.LBB25:
 996              		.file 2 "..\\lvgl\\lv_objx\\../lv_core/../lv_misc/lv_area.h"
   1:..\lvgl\lv_objx\../lv_core/../lv_misc/lv_area.h **** /**
   2:..\lvgl\lv_objx\../lv_core/../lv_misc/lv_area.h ****  * @file lv_area.h
   3:..\lvgl\lv_objx\../lv_core/../lv_misc/lv_area.h ****  *
   4:..\lvgl\lv_objx\../lv_core/../lv_misc/lv_area.h ****  */
   5:..\lvgl\lv_objx\../lv_core/../lv_misc/lv_area.h **** 
ARM GAS  C:\Users\d3bug\AppData\Local\Temp\ccVxVFSv.s 			page 30


   6:..\lvgl\lv_objx\../lv_core/../lv_misc/lv_area.h **** #ifndef LV_AREA_H
   7:..\lvgl\lv_objx\../lv_core/../lv_misc/lv_area.h **** #define LV_AREA_H
   8:..\lvgl\lv_objx\../lv_core/../lv_misc/lv_area.h **** 
   9:..\lvgl\lv_objx\../lv_core/../lv_misc/lv_area.h **** #ifdef __cplusplus
  10:..\lvgl\lv_objx\../lv_core/../lv_misc/lv_area.h **** extern "C" {
  11:..\lvgl\lv_objx\../lv_core/../lv_misc/lv_area.h **** #endif
  12:..\lvgl\lv_objx\../lv_core/../lv_misc/lv_area.h **** 
  13:..\lvgl\lv_objx\../lv_core/../lv_misc/lv_area.h **** 
  14:..\lvgl\lv_objx\../lv_core/../lv_misc/lv_area.h **** /*********************
  15:..\lvgl\lv_objx\../lv_core/../lv_misc/lv_area.h ****  *      INCLUDES
  16:..\lvgl\lv_objx\../lv_core/../lv_misc/lv_area.h ****  *********************/
  17:..\lvgl\lv_objx\../lv_core/../lv_misc/lv_area.h **** #include <string.h>
  18:..\lvgl\lv_objx\../lv_core/../lv_misc/lv_area.h **** #include <stdbool.h>
  19:..\lvgl\lv_objx\../lv_core/../lv_misc/lv_area.h **** #include <stdint.h>
  20:..\lvgl\lv_objx\../lv_core/../lv_misc/lv_area.h **** 
  21:..\lvgl\lv_objx\../lv_core/../lv_misc/lv_area.h **** /*********************
  22:..\lvgl\lv_objx\../lv_core/../lv_misc/lv_area.h ****  *      DEFINES
  23:..\lvgl\lv_objx\../lv_core/../lv_misc/lv_area.h ****  *********************/
  24:..\lvgl\lv_objx\../lv_core/../lv_misc/lv_area.h **** #define LV_COORD_MAX     (16383)    /*To avoid overflow don't let the max [-32,32k] range */
  25:..\lvgl\lv_objx\../lv_core/../lv_misc/lv_area.h **** #define LV_COORD_MIN     (-16384)
  26:..\lvgl\lv_objx\../lv_core/../lv_misc/lv_area.h **** 
  27:..\lvgl\lv_objx\../lv_core/../lv_misc/lv_area.h **** /**********************
  28:..\lvgl\lv_objx\../lv_core/../lv_misc/lv_area.h ****  *      TYPEDEFS
  29:..\lvgl\lv_objx\../lv_core/../lv_misc/lv_area.h ****  **********************/
  30:..\lvgl\lv_objx\../lv_core/../lv_misc/lv_area.h **** typedef int16_t lv_coord_t;
  31:..\lvgl\lv_objx\../lv_core/../lv_misc/lv_area.h **** 
  32:..\lvgl\lv_objx\../lv_core/../lv_misc/lv_area.h **** typedef struct
  33:..\lvgl\lv_objx\../lv_core/../lv_misc/lv_area.h **** {
  34:..\lvgl\lv_objx\../lv_core/../lv_misc/lv_area.h ****     lv_coord_t x;
  35:..\lvgl\lv_objx\../lv_core/../lv_misc/lv_area.h ****     lv_coord_t y;
  36:..\lvgl\lv_objx\../lv_core/../lv_misc/lv_area.h **** } lv_point_t;
  37:..\lvgl\lv_objx\../lv_core/../lv_misc/lv_area.h **** 
  38:..\lvgl\lv_objx\../lv_core/../lv_misc/lv_area.h **** typedef struct
  39:..\lvgl\lv_objx\../lv_core/../lv_misc/lv_area.h **** {
  40:..\lvgl\lv_objx\../lv_core/../lv_misc/lv_area.h ****     lv_coord_t x1;
  41:..\lvgl\lv_objx\../lv_core/../lv_misc/lv_area.h ****     lv_coord_t y1;
  42:..\lvgl\lv_objx\../lv_core/../lv_misc/lv_area.h ****     lv_coord_t x2;
  43:..\lvgl\lv_objx\../lv_core/../lv_misc/lv_area.h ****     lv_coord_t y2;
  44:..\lvgl\lv_objx\../lv_core/../lv_misc/lv_area.h **** } lv_area_t;
  45:..\lvgl\lv_objx\../lv_core/../lv_misc/lv_area.h **** 
  46:..\lvgl\lv_objx\../lv_core/../lv_misc/lv_area.h **** /**********************
  47:..\lvgl\lv_objx\../lv_core/../lv_misc/lv_area.h ****  * GLOBAL PROTOTYPES
  48:..\lvgl\lv_objx\../lv_core/../lv_misc/lv_area.h ****  **********************/
  49:..\lvgl\lv_objx\../lv_core/../lv_misc/lv_area.h **** 
  50:..\lvgl\lv_objx\../lv_core/../lv_misc/lv_area.h **** /**
  51:..\lvgl\lv_objx\../lv_core/../lv_misc/lv_area.h ****  * Initialize an area
  52:..\lvgl\lv_objx\../lv_core/../lv_misc/lv_area.h ****  * @param area_p pointer to an area
  53:..\lvgl\lv_objx\../lv_core/../lv_misc/lv_area.h ****  * @param x1 left coordinate of the area
  54:..\lvgl\lv_objx\../lv_core/../lv_misc/lv_area.h ****  * @param y1 top coordinate of the area
  55:..\lvgl\lv_objx\../lv_core/../lv_misc/lv_area.h ****  * @param x2 right coordinate of the area
  56:..\lvgl\lv_objx\../lv_core/../lv_misc/lv_area.h ****  * @param y2 bottom coordinate of the area
  57:..\lvgl\lv_objx\../lv_core/../lv_misc/lv_area.h ****  */
  58:..\lvgl\lv_objx\../lv_core/../lv_misc/lv_area.h **** void lv_area_set(lv_area_t * area_p, lv_coord_t x1, lv_coord_t y1, lv_coord_t x2, lv_coord_t y2);
  59:..\lvgl\lv_objx\../lv_core/../lv_misc/lv_area.h **** 
  60:..\lvgl\lv_objx\../lv_core/../lv_misc/lv_area.h **** /**
  61:..\lvgl\lv_objx\../lv_core/../lv_misc/lv_area.h ****  * Copy an area
  62:..\lvgl\lv_objx\../lv_core/../lv_misc/lv_area.h ****  * @param dest pointer to the destination area
ARM GAS  C:\Users\d3bug\AppData\Local\Temp\ccVxVFSv.s 			page 31


  63:..\lvgl\lv_objx\../lv_core/../lv_misc/lv_area.h ****  * @param src pointer to the source area
  64:..\lvgl\lv_objx\../lv_core/../lv_misc/lv_area.h ****  */
  65:..\lvgl\lv_objx\../lv_core/../lv_misc/lv_area.h **** inline static void lv_area_copy(lv_area_t * dest, const lv_area_t * src)
  66:..\lvgl\lv_objx\../lv_core/../lv_misc/lv_area.h **** {
  67:..\lvgl\lv_objx\../lv_core/../lv_misc/lv_area.h ****     memcpy(dest, src, sizeof(lv_area_t));
 997              		.loc 2 67 0
 998 015e 02AB     		add	r3, sp, #8
 999              	.LVL182:
 1000 0160 03CB     		ldmia	r3!, {r0, r1}
 1001              	.LVL183:
 1002 0162 2861     		str	r0, [r5, #16]	@ unaligned
 1003 0164 6961     		str	r1, [r5, #20]	@ unaligned
 1004              	.LVL184:
 1005              	.LBE25:
 1006              	.LBE24:
 630:..\lvgl\lv_objx/lv_cont.c ****             lv_area_copy(&cont->coords, &new_cords);
 631:..\lvgl\lv_objx/lv_cont.c ****             lv_obj_invalidate(cont);
 1007              		.loc 1 631 0
 1008 0166 2846     		mov	r0, r5
 1009 0168 FFF7FEFF 		bl	lv_obj_invalidate
 1010              	.LVL185:
 632:..\lvgl\lv_objx/lv_cont.c **** 
 633:..\lvgl\lv_objx/lv_cont.c ****             /*Notify the object about its new coordinates*/
 634:..\lvgl\lv_objx/lv_cont.c ****             cont->signal_func(cont, LV_SIGNAL_CORD_CHG, &ori);
 1011              		.loc 1 634 0
 1012 016c AB69     		ldr	r3, [r5, #24]
 1013 016e 6A46     		mov	r2, sp
 1014 0170 0221     		movs	r1, #2
 1015 0172 2846     		mov	r0, r5
 1016 0174 9847     		blx	r3
 1017              	.LVL186:
 635:..\lvgl\lv_objx/lv_cont.c **** 
 636:..\lvgl\lv_objx/lv_cont.c ****             /*Inform the parent about the new coordinates*/
 637:..\lvgl\lv_objx/lv_cont.c ****             lv_obj_t * par = lv_obj_get_parent(cont);
 1018              		.loc 1 637 0
 1019 0176 2846     		mov	r0, r5
 1020 0178 FFF7FEFF 		bl	lv_obj_get_parent
 1021              	.LVL187:
 638:..\lvgl\lv_objx/lv_cont.c ****             par->signal_func(par, LV_SIGNAL_CHILD_CHG, cont);
 1022              		.loc 1 638 0
 1023 017c 8369     		ldr	r3, [r0, #24]
 1024 017e 2A46     		mov	r2, r5
 1025 0180 0121     		movs	r1, #1
 1026 0182 9847     		blx	r3
 1027              	.LVL188:
 1028              	.L49:
 1029              	.LBE23:
 639:..\lvgl\lv_objx/lv_cont.c ****         }
 640:..\lvgl\lv_objx/lv_cont.c ****     }
 641:..\lvgl\lv_objx/lv_cont.c **** }
 1030              		.loc 1 641 0
 1031 0184 05B0     		add	sp, sp, #20
 1032              		.cfi_def_cfa_offset 28
 1033              		@ sp needed
 1034 0186 BDE8F083 		pop	{r4, r5, r6, r7, r8, r9, pc}
 1035              		.cfi_endproc
 1036              	.LFE29:
ARM GAS  C:\Users\d3bug\AppData\Local\Temp\ccVxVFSv.s 			page 32


 1037              		.size	lv_cont_refr_autofit, .-lv_cont_refr_autofit
 1038 018a 00BF     		.section	.text.lv_cont_create,"ax",%progbits
 1039              		.align	2
 1040              		.global	lv_cont_create
 1041              		.thumb
 1042              		.thumb_func
 1043              		.type	lv_cont_create, %function
 1044              	lv_cont_create:
 1045              	.LFB14:
  64:..\lvgl\lv_objx/lv_cont.c **** 
 1046              		.loc 1 64 0
 1047              		.cfi_startproc
 1048              		@ args = 0, pretend = 0, frame = 0
 1049              		@ frame_needed = 0, uses_anonymous_args = 0
 1050              	.LVL189:
 1051 0000 70B5     		push	{r4, r5, r6, lr}
 1052              		.cfi_def_cfa_offset 16
 1053              		.cfi_offset 4, -16
 1054              		.cfi_offset 5, -12
 1055              		.cfi_offset 6, -8
 1056              		.cfi_offset 14, -4
 1057 0002 0446     		mov	r4, r0
 1058 0004 0E46     		mov	r6, r1
  67:..\lvgl\lv_objx/lv_cont.c **** 
 1059              		.loc 1 67 0
 1060 0006 354B     		ldr	r3, .L75
 1061 0008 4322     		movs	r2, #67
 1062 000a 3549     		ldr	r1, .L75+4
 1063              	.LVL190:
 1064 000c 0020     		movs	r0, #0
 1065              	.LVL191:
 1066 000e FFF7FEFF 		bl	lv_log_add
 1067              	.LVL192:
  70:..\lvgl\lv_objx/lv_cont.c ****     lv_mem_assert(new_cont);
 1068              		.loc 1 70 0
 1069 0012 3146     		mov	r1, r6
 1070 0014 2046     		mov	r0, r4
 1071 0016 FFF7FEFF 		bl	lv_obj_create
 1072              	.LVL193:
  71:..\lvgl\lv_objx/lv_cont.c ****     if(new_cont == NULL) return NULL;
 1073              		.loc 1 71 0
 1074 001a 30B9     		cbnz	r0, .L63
  71:..\lvgl\lv_objx/lv_cont.c ****     if(new_cont == NULL) return NULL;
 1075              		.loc 1 71 0 is_stmt 0 discriminator 1
 1076 001c 314B     		ldr	r3, .L75+8
 1077 001e 4722     		movs	r2, #71
 1078 0020 2F49     		ldr	r1, .L75+4
 1079 0022 0320     		movs	r0, #3
 1080              	.LVL194:
 1081 0024 FFF7FEFF 		bl	lv_log_add
 1082              	.LVL195:
 1083              	.L64:
 1084 0028 FEE7     		b	.L64
 1085              	.LVL196:
 1086              	.L63:
 1087 002a 0446     		mov	r4, r0
 1088              	.LVL197:
ARM GAS  C:\Users\d3bug\AppData\Local\Temp\ccVxVFSv.s 			page 33


  72:..\lvgl\lv_objx/lv_cont.c **** 
 1089              		.loc 1 72 0 is_stmt 1
 1090 002c 0028     		cmp	r0, #0
 1091 002e 51D0     		beq	.L72
  74:..\lvgl\lv_objx/lv_cont.c **** 
 1092              		.loc 1 74 0
 1093 0030 2D4B     		ldr	r3, .L75+12
 1094 0032 1B68     		ldr	r3, [r3]
 1095 0034 1BB9     		cbnz	r3, .L66
  74:..\lvgl\lv_objx/lv_cont.c **** 
 1096              		.loc 1 74 0 is_stmt 0 discriminator 1
 1097 0036 FFF7FEFF 		bl	lv_obj_get_signal_func
 1098              	.LVL198:
 1099 003a 2B4B     		ldr	r3, .L75+12
 1100 003c 1860     		str	r0, [r3]
 1101              	.L66:
  76:..\lvgl\lv_objx/lv_cont.c ****     lv_cont_ext_t * ext = lv_obj_get_ext_attr(new_cont);
 1102              		.loc 1 76 0 is_stmt 1
 1103 003e 0121     		movs	r1, #1
 1104 0040 2046     		mov	r0, r4
 1105 0042 FFF7FEFF 		bl	lv_obj_allocate_ext_attr
 1106              	.LVL199:
  77:..\lvgl\lv_objx/lv_cont.c ****     if(ext == NULL) return NULL;
 1107              		.loc 1 77 0
 1108 0046 2046     		mov	r0, r4
 1109 0048 FFF7FEFF 		bl	lv_obj_get_ext_attr
 1110              	.LVL200:
  78:..\lvgl\lv_objx/lv_cont.c **** 
 1111              		.loc 1 78 0
 1112 004c 0546     		mov	r5, r0
 1113 004e 0028     		cmp	r0, #0
 1114 0050 42D0     		beq	.L73
  80:..\lvgl\lv_objx/lv_cont.c ****     ext->hor_fit = 0;
 1115              		.loc 1 80 0
 1116 0052 30B9     		cbnz	r0, .L67
  80:..\lvgl\lv_objx/lv_cont.c ****     ext->hor_fit = 0;
 1117              		.loc 1 80 0 is_stmt 0 discriminator 1
 1118 0054 234B     		ldr	r3, .L75+8
 1119 0056 5022     		movs	r2, #80
 1120 0058 2149     		ldr	r1, .L75+4
 1121 005a 0320     		movs	r0, #3
 1122              	.LVL201:
 1123 005c FFF7FEFF 		bl	lv_log_add
 1124              	.LVL202:
 1125              	.L68:
 1126 0060 FEE7     		b	.L68
 1127              	.LVL203:
 1128              	.L67:
  81:..\lvgl\lv_objx/lv_cont.c ****     ext->ver_fit = 0;
 1129              		.loc 1 81 0 is_stmt 1
 1130 0062 0378     		ldrb	r3, [r0]	@ zero_extendqisi2
  83:..\lvgl\lv_objx/lv_cont.c **** 
 1131              		.loc 1 83 0
 1132 0064 03F0CF03 		and	r3, r3, #207
 1133 0068 6FF30303 		bfc	r3, #0, #4
 1134 006c 0370     		strb	r3, [r0]
  85:..\lvgl\lv_objx/lv_cont.c **** 
ARM GAS  C:\Users\d3bug\AppData\Local\Temp\ccVxVFSv.s 			page 34


 1135              		.loc 1 85 0
 1136 006e 1F49     		ldr	r1, .L75+16
 1137 0070 2046     		mov	r0, r4
 1138              	.LVL204:
 1139 0072 FFF7FEFF 		bl	lv_obj_set_signal_func
 1140              	.LVL205:
  88:..\lvgl\lv_objx/lv_cont.c ****         /*Set the default styles*/
 1141              		.loc 1 88 0
 1142 0076 66B9     		cbnz	r6, .L69
 1143              	.LBB26:
  90:..\lvgl\lv_objx/lv_cont.c ****         if(th) {
 1144              		.loc 1 90 0
 1145 0078 FFF7FEFF 		bl	lv_theme_get_current
 1146              	.LVL206:
  91:..\lvgl\lv_objx/lv_cont.c ****             lv_cont_set_style(new_cont, th->cont);
 1147              		.loc 1 91 0
 1148 007c 20B1     		cbz	r0, .L70
 1149              	.LVL207:
 1150              	.LBB27:
 1151              	.LBB28:
 1152              		.file 3 "..\\lvgl\\lv_objx\\lv_cont.h"
   1:..\lvgl\lv_objx/lv_cont.h **** /**
   2:..\lvgl\lv_objx/lv_cont.h ****  * @file lv_cont.h
   3:..\lvgl\lv_objx/lv_cont.h ****  *
   4:..\lvgl\lv_objx/lv_cont.h ****  */
   5:..\lvgl\lv_objx/lv_cont.h **** 
   6:..\lvgl\lv_objx/lv_cont.h **** #ifndef LV_CONT_H
   7:..\lvgl\lv_objx/lv_cont.h **** #define LV_CONT_H
   8:..\lvgl\lv_objx/lv_cont.h **** 
   9:..\lvgl\lv_objx/lv_cont.h **** #ifdef __cplusplus
  10:..\lvgl\lv_objx/lv_cont.h **** extern "C" {
  11:..\lvgl\lv_objx/lv_cont.h **** #endif
  12:..\lvgl\lv_objx/lv_cont.h **** 
  13:..\lvgl\lv_objx/lv_cont.h **** /*********************
  14:..\lvgl\lv_objx/lv_cont.h ****  *      INCLUDES
  15:..\lvgl\lv_objx/lv_cont.h ****  *********************/
  16:..\lvgl\lv_objx/lv_cont.h **** #ifdef LV_CONF_INCLUDE_SIMPLE
  17:..\lvgl\lv_objx/lv_cont.h **** #include "lv_conf.h"
  18:..\lvgl\lv_objx/lv_cont.h **** #else
  19:..\lvgl\lv_objx/lv_cont.h **** #include "../../lv_conf.h"
  20:..\lvgl\lv_objx/lv_cont.h **** #endif
  21:..\lvgl\lv_objx/lv_cont.h **** 
  22:..\lvgl\lv_objx/lv_cont.h **** #if USE_LV_CONT != 0
  23:..\lvgl\lv_objx/lv_cont.h **** 
  24:..\lvgl\lv_objx/lv_cont.h **** #include "../lv_core/lv_obj.h"
  25:..\lvgl\lv_objx/lv_cont.h **** 
  26:..\lvgl\lv_objx/lv_cont.h **** /*********************
  27:..\lvgl\lv_objx/lv_cont.h ****  *      DEFINES
  28:..\lvgl\lv_objx/lv_cont.h ****  *********************/
  29:..\lvgl\lv_objx/lv_cont.h **** 
  30:..\lvgl\lv_objx/lv_cont.h **** /**********************
  31:..\lvgl\lv_objx/lv_cont.h ****  *      TYPEDEFS
  32:..\lvgl\lv_objx/lv_cont.h ****  **********************/
  33:..\lvgl\lv_objx/lv_cont.h **** 
  34:..\lvgl\lv_objx/lv_cont.h **** /*Layout options*/
  35:..\lvgl\lv_objx/lv_cont.h **** enum
  36:..\lvgl\lv_objx/lv_cont.h **** {
ARM GAS  C:\Users\d3bug\AppData\Local\Temp\ccVxVFSv.s 			page 35


  37:..\lvgl\lv_objx/lv_cont.h ****     LV_LAYOUT_OFF = 0,
  38:..\lvgl\lv_objx/lv_cont.h ****     LV_LAYOUT_CENTER,
  39:..\lvgl\lv_objx/lv_cont.h ****     LV_LAYOUT_COL_L,    /*Column left align*/
  40:..\lvgl\lv_objx/lv_cont.h ****     LV_LAYOUT_COL_M,    /*Column middle align*/
  41:..\lvgl\lv_objx/lv_cont.h ****     LV_LAYOUT_COL_R,    /*Column right align*/
  42:..\lvgl\lv_objx/lv_cont.h ****     LV_LAYOUT_ROW_T,    /*Row top align*/
  43:..\lvgl\lv_objx/lv_cont.h ****     LV_LAYOUT_ROW_M,    /*Row middle align*/
  44:..\lvgl\lv_objx/lv_cont.h ****     LV_LAYOUT_ROW_B,    /*Row bottom align*/
  45:..\lvgl\lv_objx/lv_cont.h ****     LV_LAYOUT_PRETTY,   /*Put as many object as possible in row and begin a new row*/
  46:..\lvgl\lv_objx/lv_cont.h ****     LV_LAYOUT_GRID,     /*Align same-sized object into a grid*/
  47:..\lvgl\lv_objx/lv_cont.h **** };
  48:..\lvgl\lv_objx/lv_cont.h **** typedef uint8_t lv_layout_t;
  49:..\lvgl\lv_objx/lv_cont.h **** 
  50:..\lvgl\lv_objx/lv_cont.h **** typedef struct
  51:..\lvgl\lv_objx/lv_cont.h **** {
  52:..\lvgl\lv_objx/lv_cont.h ****     /*Inherited from 'base_obj' so no inherited ext. */ /*Ext. of ancestor*/
  53:..\lvgl\lv_objx/lv_cont.h ****     /*New data for this type */
  54:..\lvgl\lv_objx/lv_cont.h ****     uint8_t layout  :4;     /*A layout from 'lv_cont_layout_t' enum*/
  55:..\lvgl\lv_objx/lv_cont.h ****     uint8_t hor_fit :1;     /*1: Enable horizontal fit to involve all children*/
  56:..\lvgl\lv_objx/lv_cont.h ****     uint8_t ver_fit :1;     /*1: Enable horizontal fit to involve all children*/
  57:..\lvgl\lv_objx/lv_cont.h **** } lv_cont_ext_t;
  58:..\lvgl\lv_objx/lv_cont.h **** 
  59:..\lvgl\lv_objx/lv_cont.h **** 
  60:..\lvgl\lv_objx/lv_cont.h **** /**********************
  61:..\lvgl\lv_objx/lv_cont.h ****  * GLOBAL PROTOTYPES
  62:..\lvgl\lv_objx/lv_cont.h ****  **********************/
  63:..\lvgl\lv_objx/lv_cont.h **** 
  64:..\lvgl\lv_objx/lv_cont.h **** /**
  65:..\lvgl\lv_objx/lv_cont.h ****  * Create a container objects
  66:..\lvgl\lv_objx/lv_cont.h ****  * @param par pointer to an object, it will be the parent of the new container
  67:..\lvgl\lv_objx/lv_cont.h ****  * @param copy pointer to a container object, if not NULL then the new object will be copied from i
  68:..\lvgl\lv_objx/lv_cont.h ****  * @return pointer to the created container
  69:..\lvgl\lv_objx/lv_cont.h ****  */
  70:..\lvgl\lv_objx/lv_cont.h **** lv_obj_t * lv_cont_create(lv_obj_t * par, const lv_obj_t * copy);
  71:..\lvgl\lv_objx/lv_cont.h **** 
  72:..\lvgl\lv_objx/lv_cont.h **** /*=====================
  73:..\lvgl\lv_objx/lv_cont.h ****  * Setter functions
  74:..\lvgl\lv_objx/lv_cont.h ****  *====================*/
  75:..\lvgl\lv_objx/lv_cont.h **** 
  76:..\lvgl\lv_objx/lv_cont.h **** /**
  77:..\lvgl\lv_objx/lv_cont.h ****  * Set a layout on a container
  78:..\lvgl\lv_objx/lv_cont.h ****  * @param cont pointer to a container object
  79:..\lvgl\lv_objx/lv_cont.h ****  * @param layout a layout from 'lv_cont_layout_t'
  80:..\lvgl\lv_objx/lv_cont.h ****  */
  81:..\lvgl\lv_objx/lv_cont.h **** void lv_cont_set_layout(lv_obj_t * cont, lv_layout_t layout);
  82:..\lvgl\lv_objx/lv_cont.h **** 
  83:..\lvgl\lv_objx/lv_cont.h **** 
  84:..\lvgl\lv_objx/lv_cont.h **** /**
  85:..\lvgl\lv_objx/lv_cont.h ****  * Enable the horizontal or vertical fit.
  86:..\lvgl\lv_objx/lv_cont.h ****  * The container size will be set to involve the children horizontally or vertically.
  87:..\lvgl\lv_objx/lv_cont.h ****  * @param cont pointer to a container object
  88:..\lvgl\lv_objx/lv_cont.h ****  * @param hor_en true: enable the horizontal fit
  89:..\lvgl\lv_objx/lv_cont.h ****  * @param ver_en true: enable the vertical fit
  90:..\lvgl\lv_objx/lv_cont.h ****  */
  91:..\lvgl\lv_objx/lv_cont.h **** void lv_cont_set_fit(lv_obj_t * cont, bool hor_en, bool ver_en);
  92:..\lvgl\lv_objx/lv_cont.h **** 
  93:..\lvgl\lv_objx/lv_cont.h **** /**
ARM GAS  C:\Users\d3bug\AppData\Local\Temp\ccVxVFSv.s 			page 36


  94:..\lvgl\lv_objx/lv_cont.h ****  * Set the style of a container
  95:..\lvgl\lv_objx/lv_cont.h ****  * @param cont pointer to a container object
  96:..\lvgl\lv_objx/lv_cont.h ****  * @param style pointer to the new style
  97:..\lvgl\lv_objx/lv_cont.h ****  */
  98:..\lvgl\lv_objx/lv_cont.h **** static inline void lv_cont_set_style(lv_obj_t *cont, lv_style_t * style)
  99:..\lvgl\lv_objx/lv_cont.h **** {
 100:..\lvgl\lv_objx/lv_cont.h ****     lv_obj_set_style(cont, style);
 1153              		.loc 3 100 0
 1154 007e 8168     		ldr	r1, [r0, #8]
 1155 0080 2046     		mov	r0, r4
 1156              	.LVL208:
 1157 0082 FFF7FEFF 		bl	lv_obj_set_style
 1158              	.LVL209:
 1159 0086 1DE0     		b	.L71
 1160              	.LVL210:
 1161              	.L70:
 1162              	.LBE28:
 1163              	.LBE27:
 1164              	.LBB29:
 1165              	.LBB30:
 1166 0088 1949     		ldr	r1, .L75+20
 1167 008a 2046     		mov	r0, r4
 1168              	.LVL211:
 1169 008c FFF7FEFF 		bl	lv_obj_set_style
 1170              	.LVL212:
 1171 0090 18E0     		b	.L71
 1172              	.LVL213:
 1173              	.L69:
 1174              	.LBE30:
 1175              	.LBE29:
 1176              	.LBE26:
 1177              	.LBB31:
  99:..\lvgl\lv_objx/lv_cont.c ****         ext->hor_fit = copy_ext->hor_fit;
 1178              		.loc 1 99 0
 1179 0092 3046     		mov	r0, r6
 1180 0094 FFF7FEFF 		bl	lv_obj_get_ext_attr
 1181              	.LVL214:
 100:..\lvgl\lv_objx/lv_cont.c ****         ext->ver_fit = copy_ext->ver_fit;
 1182              		.loc 1 100 0
 1183 0098 0378     		ldrb	r3, [r0]	@ zero_extendqisi2
 1184 009a C3F30013 		ubfx	r3, r3, #4, #1
 1185 009e 2A78     		ldrb	r2, [r5]	@ zero_extendqisi2
 1186 00a0 63F30412 		bfi	r2, r3, #4, #1
 1187 00a4 2A70     		strb	r2, [r5]
 101:..\lvgl\lv_objx/lv_cont.c ****         ext->layout = copy_ext->layout;
 1188              		.loc 1 101 0
 1189 00a6 0378     		ldrb	r3, [r0]	@ zero_extendqisi2
 1190 00a8 C3F34013 		ubfx	r3, r3, #5, #1
 1191 00ac D2B2     		uxtb	r2, r2
 1192 00ae 63F34512 		bfi	r2, r3, #5, #1
 1193 00b2 2A70     		strb	r2, [r5]
 102:..\lvgl\lv_objx/lv_cont.c **** 
 1194              		.loc 1 102 0
 1195 00b4 0278     		ldrb	r2, [r0]	@ zero_extendqisi2
 1196 00b6 2B78     		ldrb	r3, [r5]	@ zero_extendqisi2
 1197 00b8 62F30303 		bfi	r3, r2, #0, #4
 1198 00bc 2B70     		strb	r3, [r5]
ARM GAS  C:\Users\d3bug\AppData\Local\Temp\ccVxVFSv.s 			page 37


 105:..\lvgl\lv_objx/lv_cont.c ****     }
 1199              		.loc 1 105 0
 1200 00be 2046     		mov	r0, r4
 1201              	.LVL215:
 1202 00c0 FFF7FEFF 		bl	lv_obj_refresh_style
 1203              	.LVL216:
 1204              	.L71:
 1205              	.LBE31:
 108:..\lvgl\lv_objx/lv_cont.c **** 
 1206              		.loc 1 108 0
 1207 00c4 0B4B     		ldr	r3, .L75+24
 1208 00c6 6C22     		movs	r2, #108
 1209 00c8 0549     		ldr	r1, .L75+4
 1210 00ca 0120     		movs	r0, #1
 1211 00cc FFF7FEFF 		bl	lv_log_add
 1212              	.LVL217:
 111:..\lvgl\lv_objx/lv_cont.c **** }
 1213              		.loc 1 111 0
 1214 00d0 2046     		mov	r0, r4
 1215 00d2 70BD     		pop	{r4, r5, r6, pc}
 1216              	.LVL218:
 1217              	.L72:
  72:..\lvgl\lv_objx/lv_cont.c **** 
 1218              		.loc 1 72 0
 1219 00d4 0020     		movs	r0, #0
 1220              	.LVL219:
 1221 00d6 70BD     		pop	{r4, r5, r6, pc}
 1222              	.LVL220:
 1223              	.L73:
  78:..\lvgl\lv_objx/lv_cont.c **** 
 1224              		.loc 1 78 0
 1225 00d8 0020     		movs	r0, #0
 1226              	.LVL221:
 112:..\lvgl\lv_objx/lv_cont.c **** 
 1227              		.loc 1 112 0
 1228 00da 70BD     		pop	{r4, r5, r6, pc}
 1229              	.LVL222:
 1230              	.L76:
 1231              		.align	2
 1232              	.L75:
 1233 00dc 00000000 		.word	.LC0
 1234 00e0 1C000000 		.word	.LC1
 1235 00e4 38000000 		.word	.LC2
 1236 00e8 00000000 		.word	.LANCHOR0
 1237 00ec 00000000 		.word	lv_cont_signal
 1238 00f0 00000000 		.word	lv_style_pretty
 1239 00f4 48000000 		.word	.LC3
 1240              		.cfi_endproc
 1241              	.LFE14:
 1242              		.size	lv_cont_create, .-lv_cont_create
 1243              		.section	.text.lv_cont_set_layout,"ax",%progbits
 1244              		.align	2
 1245              		.global	lv_cont_set_layout
 1246              		.thumb
 1247              		.thumb_func
 1248              		.type	lv_cont_set_layout, %function
 1249              	lv_cont_set_layout:
ARM GAS  C:\Users\d3bug\AppData\Local\Temp\ccVxVFSv.s 			page 38


 1250              	.LFB15:
 124:..\lvgl\lv_objx/lv_cont.c ****     lv_cont_ext_t * ext = lv_obj_get_ext_attr(cont);
 1251              		.loc 1 124 0
 1252              		.cfi_startproc
 1253              		@ args = 0, pretend = 0, frame = 0
 1254              		@ frame_needed = 0, uses_anonymous_args = 0
 1255              	.LVL223:
 1256 0000 38B5     		push	{r3, r4, r5, lr}
 1257              		.cfi_def_cfa_offset 16
 1258              		.cfi_offset 3, -16
 1259              		.cfi_offset 4, -12
 1260              		.cfi_offset 5, -8
 1261              		.cfi_offset 14, -4
 1262 0002 0546     		mov	r5, r0
 1263 0004 0C46     		mov	r4, r1
 125:..\lvgl\lv_objx/lv_cont.c ****     if(ext->layout == layout) return;
 1264              		.loc 1 125 0
 1265 0006 FFF7FEFF 		bl	lv_obj_get_ext_attr
 1266              	.LVL224:
 126:..\lvgl\lv_objx/lv_cont.c **** 
 1267              		.loc 1 126 0
 1268 000a 0378     		ldrb	r3, [r0]	@ zero_extendqisi2
 1269 000c 03F00F03 		and	r3, r3, #15
 1270 0010 A342     		cmp	r3, r4
 1271 0012 08D0     		beq	.L77
 128:..\lvgl\lv_objx/lv_cont.c **** 
 1272              		.loc 1 128 0
 1273 0014 0378     		ldrb	r3, [r0]	@ zero_extendqisi2
 1274 0016 64F30303 		bfi	r3, r4, #0, #4
 1275 001a 0370     		strb	r3, [r0]
 131:..\lvgl\lv_objx/lv_cont.c **** }
 1276              		.loc 1 131 0
 1277 001c AB69     		ldr	r3, [r5, #24]
 1278 001e 0022     		movs	r2, #0
 1279 0020 0121     		movs	r1, #1
 1280 0022 2846     		mov	r0, r5
 1281              	.LVL225:
 1282 0024 9847     		blx	r3
 1283              	.LVL226:
 1284              	.L77:
 1285 0026 38BD     		pop	{r3, r4, r5, pc}
 1286              		.cfi_endproc
 1287              	.LFE15:
 1288              		.size	lv_cont_set_layout, .-lv_cont_set_layout
 1289              		.section	.text.lv_cont_set_fit,"ax",%progbits
 1290              		.align	2
 1291              		.global	lv_cont_set_fit
 1292              		.thumb
 1293              		.thumb_func
 1294              		.type	lv_cont_set_fit, %function
 1295              	lv_cont_set_fit:
 1296              	.LFB16:
 143:..\lvgl\lv_objx/lv_cont.c ****     lv_obj_invalidate(cont);
 1297              		.loc 1 143 0
 1298              		.cfi_startproc
 1299              		@ args = 0, pretend = 0, frame = 0
 1300              		@ frame_needed = 0, uses_anonymous_args = 0
ARM GAS  C:\Users\d3bug\AppData\Local\Temp\ccVxVFSv.s 			page 39


 1301              	.LVL227:
 1302 0000 70B5     		push	{r4, r5, r6, lr}
 1303              		.cfi_def_cfa_offset 16
 1304              		.cfi_offset 4, -16
 1305              		.cfi_offset 5, -12
 1306              		.cfi_offset 6, -8
 1307              		.cfi_offset 14, -4
 1308 0002 0446     		mov	r4, r0
 1309 0004 0D46     		mov	r5, r1
 1310 0006 1646     		mov	r6, r2
 144:..\lvgl\lv_objx/lv_cont.c ****     lv_cont_ext_t * ext = lv_obj_get_ext_attr(cont);
 1311              		.loc 1 144 0
 1312 0008 FFF7FEFF 		bl	lv_obj_invalidate
 1313              	.LVL228:
 145:..\lvgl\lv_objx/lv_cont.c ****     if(ext->hor_fit == hor_en && ext->ver_fit == ver_en) return;
 1314              		.loc 1 145 0
 1315 000c 2046     		mov	r0, r4
 1316 000e FFF7FEFF 		bl	lv_obj_get_ext_attr
 1317              	.LVL229:
 146:..\lvgl\lv_objx/lv_cont.c **** 
 1318              		.loc 1 146 0
 1319 0012 0378     		ldrb	r3, [r0]	@ zero_extendqisi2
 1320 0014 C3F30013 		ubfx	r3, r3, #4, #1
 1321 0018 AB42     		cmp	r3, r5
 1322 001a 04D1     		bne	.L81
 146:..\lvgl\lv_objx/lv_cont.c **** 
 1323              		.loc 1 146 0 is_stmt 0 discriminator 1
 1324 001c 0378     		ldrb	r3, [r0]	@ zero_extendqisi2
 1325 001e C3F34013 		ubfx	r3, r3, #5, #1
 1326 0022 B342     		cmp	r3, r6
 1327 0024 14D0     		beq	.L80
 1328              	.L81:
 148:..\lvgl\lv_objx/lv_cont.c ****     ext->ver_fit = ver_en == false ? 0 : 1;
 1329              		.loc 1 148 0 is_stmt 1
 1330 0026 0DB9     		cbnz	r5, .L85
 1331 0028 0022     		movs	r2, #0
 1332 002a 00E0     		b	.L83
 1333              	.L85:
 1334 002c 0122     		movs	r2, #1
 1335              	.L83:
 148:..\lvgl\lv_objx/lv_cont.c ****     ext->ver_fit = ver_en == false ? 0 : 1;
 1336              		.loc 1 148 0 is_stmt 0 discriminator 4
 1337 002e 0378     		ldrb	r3, [r0]	@ zero_extendqisi2
 1338 0030 62F30413 		bfi	r3, r2, #4, #1
 1339 0034 0370     		strb	r3, [r0]
 149:..\lvgl\lv_objx/lv_cont.c **** 
 1340              		.loc 1 149 0 is_stmt 1 discriminator 4
 1341 0036 0EB9     		cbnz	r6, .L86
 149:..\lvgl\lv_objx/lv_cont.c **** 
 1342              		.loc 1 149 0 is_stmt 0
 1343 0038 0022     		movs	r2, #0
 1344 003a 00E0     		b	.L84
 1345              	.L86:
 1346 003c 0122     		movs	r2, #1
 1347              	.L84:
 149:..\lvgl\lv_objx/lv_cont.c **** 
 1348              		.loc 1 149 0 discriminator 4
ARM GAS  C:\Users\d3bug\AppData\Local\Temp\ccVxVFSv.s 			page 40


 1349 003e 0378     		ldrb	r3, [r0]	@ zero_extendqisi2
 1350 0040 62F34513 		bfi	r3, r2, #5, #1
 1351 0044 0370     		strb	r3, [r0]
 152:..\lvgl\lv_objx/lv_cont.c **** }
 1352              		.loc 1 152 0 is_stmt 1 discriminator 4
 1353 0046 A369     		ldr	r3, [r4, #24]
 1354 0048 0022     		movs	r2, #0
 1355 004a 0121     		movs	r1, #1
 1356 004c 2046     		mov	r0, r4
 1357              	.LVL230:
 1358 004e 9847     		blx	r3
 1359              	.LVL231:
 1360              	.L80:
 1361 0050 70BD     		pop	{r4, r5, r6, pc}
 1362              		.cfi_endproc
 1363              	.LFE16:
 1364              		.size	lv_cont_set_fit, .-lv_cont_set_fit
 1365 0052 00BF     		.section	.text.lv_cont_get_layout,"ax",%progbits
 1366              		.align	2
 1367              		.global	lv_cont_get_layout
 1368              		.thumb
 1369              		.thumb_func
 1370              		.type	lv_cont_get_layout, %function
 1371              	lv_cont_get_layout:
 1372              	.LFB17:
 165:..\lvgl\lv_objx/lv_cont.c ****     lv_cont_ext_t * ext = lv_obj_get_ext_attr(cont);
 1373              		.loc 1 165 0
 1374              		.cfi_startproc
 1375              		@ args = 0, pretend = 0, frame = 0
 1376              		@ frame_needed = 0, uses_anonymous_args = 0
 1377              	.LVL232:
 1378 0000 08B5     		push	{r3, lr}
 1379              		.cfi_def_cfa_offset 8
 1380              		.cfi_offset 3, -8
 1381              		.cfi_offset 14, -4
 166:..\lvgl\lv_objx/lv_cont.c ****     return ext->layout;
 1382              		.loc 1 166 0
 1383 0002 FFF7FEFF 		bl	lv_obj_get_ext_attr
 1384              	.LVL233:
 167:..\lvgl\lv_objx/lv_cont.c **** }
 1385              		.loc 1 167 0
 1386 0006 0078     		ldrb	r0, [r0]	@ zero_extendqisi2
 1387              	.LVL234:
 168:..\lvgl\lv_objx/lv_cont.c **** 
 1388              		.loc 1 168 0
 1389 0008 00F00F00 		and	r0, r0, #15
 1390 000c 08BD     		pop	{r3, pc}
 1391              		.cfi_endproc
 1392              	.LFE17:
 1393              		.size	lv_cont_get_layout, .-lv_cont_get_layout
 1394 000e 00BF     		.section	.text.lv_cont_layout_col,"ax",%progbits
 1395              		.align	2
 1396              		.thumb
 1397              		.thumb_func
 1398              		.type	lv_cont_layout_col, %function
 1399              	lv_cont_layout_col:
 1400              	.LFB24:
ARM GAS  C:\Users\d3bug\AppData\Local\Temp\ccVxVFSv.s 			page 41


 291:..\lvgl\lv_objx/lv_cont.c ****     lv_layout_t type = lv_cont_get_layout(cont);
 1401              		.loc 1 291 0
 1402              		.cfi_startproc
 1403              		@ args = 0, pretend = 0, frame = 0
 1404              		@ frame_needed = 0, uses_anonymous_args = 0
 1405              	.LVL235:
 1406 0000 2DE9F047 		push	{r4, r5, r6, r7, r8, r9, r10, lr}
 1407              		.cfi_def_cfa_offset 32
 1408              		.cfi_offset 4, -32
 1409              		.cfi_offset 5, -28
 1410              		.cfi_offset 6, -24
 1411              		.cfi_offset 7, -20
 1412              		.cfi_offset 8, -16
 1413              		.cfi_offset 9, -12
 1414              		.cfi_offset 10, -8
 1415              		.cfi_offset 14, -4
 1416 0004 82B0     		sub	sp, sp, #8
 1417              		.cfi_def_cfa_offset 40
 1418 0006 0646     		mov	r6, r0
 292:..\lvgl\lv_objx/lv_cont.c ****     lv_obj_t * child;
 1419              		.loc 1 292 0
 1420 0008 FFF7FEFF 		bl	lv_cont_get_layout
 1421              	.LVL236:
 1422 000c 0446     		mov	r4, r0
 1423              	.LVL237:
 297:..\lvgl\lv_objx/lv_cont.c ****     lv_coord_t hpad_corr;
 1424              		.loc 1 297 0
 1425 000e 3046     		mov	r0, r6
 1426 0010 FFF7FEFF 		bl	lv_obj_get_style
 1427              	.LVL238:
 1428 0014 0746     		mov	r7, r0
 1429              	.LVL239:
 300:..\lvgl\lv_objx/lv_cont.c ****         case LV_LAYOUT_COL_L:
 1430              		.loc 1 300 0
 1431 0016 032C     		cmp	r4, #3
 1432 0018 04D0     		beq	.L92
 1433 001a 042C     		cmp	r4, #4
 1434 001c 0CD0     		beq	.L93
 1435 001e 022C     		cmp	r4, #2
 1436 0020 13D1     		bne	.L101
 1437 0022 04E0     		b	.L94
 1438              	.L92:
 306:..\lvgl\lv_objx/lv_cont.c ****             align = LV_ALIGN_IN_TOP_MID;
 1439              		.loc 1 306 0
 1440 0024 4FF00008 		mov	r8, #0
 307:..\lvgl\lv_objx/lv_cont.c ****             break;
 1441              		.loc 1 307 0
 1442 0028 4FF00209 		mov	r9, #2
 1443 002c 11E0     		b	.L91
 1444              	.L94:
 302:..\lvgl\lv_objx/lv_cont.c ****             align = LV_ALIGN_IN_TOP_LEFT;
 1445              		.loc 1 302 0
 1446 002e B0F91680 		ldrsh	r8, [r0, #22]
 1447              	.LVL240:
 303:..\lvgl\lv_objx/lv_cont.c ****             break;
 1448              		.loc 1 303 0
 1449 0032 4FF00109 		mov	r9, #1
ARM GAS  C:\Users\d3bug\AppData\Local\Temp\ccVxVFSv.s 			page 42


 304:..\lvgl\lv_objx/lv_cont.c ****         case LV_LAYOUT_COL_M:
 1450              		.loc 1 304 0
 1451 0036 0CE0     		b	.L91
 1452              	.LVL241:
 1453              	.L93:
 310:..\lvgl\lv_objx/lv_cont.c ****             align = LV_ALIGN_IN_TOP_RIGHT;
 1454              		.loc 1 310 0
 1455 0038 B0F91680 		ldrsh	r8, [r0, #22]
 1456 003c C8F10008 		rsb	r8, r8, #0
 1457 0040 0FFA88F8 		sxth	r8, r8
 1458              	.LVL242:
 311:..\lvgl\lv_objx/lv_cont.c ****             break;
 1459              		.loc 1 311 0
 1460 0044 4FF00309 		mov	r9, #3
 312:..\lvgl\lv_objx/lv_cont.c ****         default:
 1461              		.loc 1 312 0
 1462 0048 03E0     		b	.L91
 1463              	.LVL243:
 1464              	.L101:
 314:..\lvgl\lv_objx/lv_cont.c ****             align = LV_ALIGN_IN_TOP_LEFT;
 1465              		.loc 1 314 0
 1466 004a 4FF00008 		mov	r8, #0
 315:..\lvgl\lv_objx/lv_cont.c ****             break;
 1467              		.loc 1 315 0
 1468 004e 4FF00109 		mov	r9, #1
 1469              	.L91:
 1470              	.LVL244:
 321:..\lvgl\lv_objx/lv_cont.c ****     /* Align the children */
 1471              		.loc 1 321 0
 1472 0052 0121     		movs	r1, #1
 1473 0054 3046     		mov	r0, r6
 1474              	.LVL245:
 1475 0056 FFF7FEFF 		bl	lv_obj_set_protect
 1476              	.LVL246:
 323:..\lvgl\lv_objx/lv_cont.c ****     LL_READ_BACK(cont->child_ll, child) {
 1477              		.loc 1 323 0
 1478 005a B7F914A0 		ldrsh	r10, [r7, #20]
 1479              	.LVL247:
 324:..\lvgl\lv_objx/lv_cont.c ****         if(lv_obj_get_hidden(child) != false ||
 1480              		.loc 1 324 0
 1481 005e 351D     		adds	r5, r6, #4
 1482 0060 2846     		mov	r0, r5
 1483 0062 FFF7FEFF 		bl	lv_ll_get_tail
 1484              	.LVL248:
 1485 0066 0446     		mov	r4, r0
 1486              	.LVL249:
 1487 0068 1EE0     		b	.L95
 1488              	.L99:
 325:..\lvgl\lv_objx/lv_cont.c ****                 lv_obj_is_protected(child, LV_PROTECT_POS) != false) continue;
 1489              		.loc 1 325 0
 1490 006a 2046     		mov	r0, r4
 1491              	.LVL250:
 1492 006c FFF7FEFF 		bl	lv_obj_get_hidden
 1493              	.LVL251:
 1494 0070 A8B9     		cbnz	r0, .L98
 326:..\lvgl\lv_objx/lv_cont.c **** 
 1495              		.loc 1 326 0 discriminator 1
ARM GAS  C:\Users\d3bug\AppData\Local\Temp\ccVxVFSv.s 			page 43


 1496 0072 0421     		movs	r1, #4
 1497 0074 2046     		mov	r0, r4
 1498 0076 FFF7FEFF 		bl	lv_obj_is_protected
 1499              	.LVL252:
 325:..\lvgl\lv_objx/lv_cont.c ****                 lv_obj_is_protected(child, LV_PROTECT_POS) != false) continue;
 1500              		.loc 1 325 0 discriminator 1
 1501 007a 80B9     		cbnz	r0, .L98
 328:..\lvgl\lv_objx/lv_cont.c ****         last_cord += lv_obj_get_height(child) + style->body.padding.inner;
 1502              		.loc 1 328 0
 1503 007c CDF800A0 		str	r10, [sp]
 1504 0080 4346     		mov	r3, r8
 1505 0082 4A46     		mov	r2, r9
 1506 0084 3146     		mov	r1, r6
 1507 0086 2046     		mov	r0, r4
 1508 0088 FFF7FEFF 		bl	lv_obj_align
 1509              	.LVL253:
 329:..\lvgl\lv_objx/lv_cont.c ****     }
 1510              		.loc 1 329 0
 1511 008c 2046     		mov	r0, r4
 1512 008e FFF7FEFF 		bl	lv_obj_get_height
 1513              	.LVL254:
 1514 0092 B7F91830 		ldrsh	r3, [r7, #24]
 1515 0096 1844     		add	r0, r0, r3
 1516 0098 5044     		add	r0, r0, r10
 1517 009a 0FFA80FA 		sxth	r10, r0
 1518              	.LVL255:
 1519              	.L98:
 324:..\lvgl\lv_objx/lv_cont.c ****         if(lv_obj_get_hidden(child) != false ||
 1520              		.loc 1 324 0 discriminator 2
 1521 009e 2146     		mov	r1, r4
 1522 00a0 2846     		mov	r0, r5
 1523 00a2 FFF7FEFF 		bl	lv_ll_get_prev
 1524              	.LVL256:
 1525 00a6 0446     		mov	r4, r0
 1526              	.LVL257:
 1527              	.L95:
 324:..\lvgl\lv_objx/lv_cont.c ****         if(lv_obj_get_hidden(child) != false ||
 1528              		.loc 1 324 0 is_stmt 0 discriminator 1
 1529 00a8 002C     		cmp	r4, #0
 1530 00aa DED1     		bne	.L99
 332:..\lvgl\lv_objx/lv_cont.c **** }
 1531              		.loc 1 332 0 is_stmt 1
 1532 00ac 0121     		movs	r1, #1
 1533 00ae 3046     		mov	r0, r6
 1534              	.LVL258:
 1535 00b0 FFF7FEFF 		bl	lv_obj_clear_protect
 1536              	.LVL259:
 333:..\lvgl\lv_objx/lv_cont.c **** 
 1537              		.loc 1 333 0
 1538 00b4 02B0     		add	sp, sp, #8
 1539              		.cfi_def_cfa_offset 32
 1540              		@ sp needed
 1541 00b6 BDE8F087 		pop	{r4, r5, r6, r7, r8, r9, r10, pc}
 1542              		.cfi_endproc
 1543              	.LFE24:
 1544              		.size	lv_cont_layout_col, .-lv_cont_layout_col
 1545 00ba 00BF     		.section	.text.lv_cont_layout_row,"ax",%progbits
ARM GAS  C:\Users\d3bug\AppData\Local\Temp\ccVxVFSv.s 			page 44


 1546              		.align	2
 1547              		.thumb
 1548              		.thumb_func
 1549              		.type	lv_cont_layout_row, %function
 1550              	lv_cont_layout_row:
 1551              	.LFB25:
 340:..\lvgl\lv_objx/lv_cont.c ****     lv_layout_t type = lv_cont_get_layout(cont);
 1552              		.loc 1 340 0
 1553              		.cfi_startproc
 1554              		@ args = 0, pretend = 0, frame = 0
 1555              		@ frame_needed = 0, uses_anonymous_args = 0
 1556              	.LVL260:
 1557 0000 2DE9F047 		push	{r4, r5, r6, r7, r8, r9, r10, lr}
 1558              		.cfi_def_cfa_offset 32
 1559              		.cfi_offset 4, -32
 1560              		.cfi_offset 5, -28
 1561              		.cfi_offset 6, -24
 1562              		.cfi_offset 7, -20
 1563              		.cfi_offset 8, -16
 1564              		.cfi_offset 9, -12
 1565              		.cfi_offset 10, -8
 1566              		.cfi_offset 14, -4
 1567 0004 82B0     		sub	sp, sp, #8
 1568              		.cfi_def_cfa_offset 40
 1569 0006 0646     		mov	r6, r0
 341:..\lvgl\lv_objx/lv_cont.c ****     lv_obj_t * child;
 1570              		.loc 1 341 0
 1571 0008 FFF7FEFF 		bl	lv_cont_get_layout
 1572              	.LVL261:
 1573 000c 0446     		mov	r4, r0
 1574              	.LVL262:
 346:..\lvgl\lv_objx/lv_cont.c ****     lv_coord_t vpad_corr = style->body.padding.ver;
 1575              		.loc 1 346 0
 1576 000e 3046     		mov	r0, r6
 1577 0010 FFF7FEFF 		bl	lv_obj_get_style
 1578              	.LVL263:
 1579 0014 0746     		mov	r7, r0
 1580              	.LVL264:
 349:..\lvgl\lv_objx/lv_cont.c ****         case LV_LAYOUT_ROW_T:
 1581              		.loc 1 349 0
 1582 0016 062C     		cmp	r4, #6
 1583 0018 04D0     		beq	.L105
 1584 001a 072C     		cmp	r4, #7
 1585 001c 0CD0     		beq	.L106
 1586 001e 052C     		cmp	r4, #5
 1587 0020 13D1     		bne	.L114
 1588 0022 04E0     		b	.L107
 1589              	.L105:
 355:..\lvgl\lv_objx/lv_cont.c ****             align = LV_ALIGN_IN_LEFT_MID;
 1590              		.loc 1 355 0
 1591 0024 4FF00008 		mov	r8, #0
 356:..\lvgl\lv_objx/lv_cont.c ****             break;
 1592              		.loc 1 356 0
 1593 0028 4FF00709 		mov	r9, #7
 1594 002c 11E0     		b	.L104
 1595              	.L107:
 351:..\lvgl\lv_objx/lv_cont.c ****             align = LV_ALIGN_IN_TOP_LEFT;
ARM GAS  C:\Users\d3bug\AppData\Local\Temp\ccVxVFSv.s 			page 45


 1596              		.loc 1 351 0
 1597 002e B0F91480 		ldrsh	r8, [r0, #20]
 1598              	.LVL265:
 352:..\lvgl\lv_objx/lv_cont.c ****             break;
 1599              		.loc 1 352 0
 1600 0032 4FF00109 		mov	r9, #1
 353:..\lvgl\lv_objx/lv_cont.c ****         case LV_LAYOUT_ROW_M:
 1601              		.loc 1 353 0
 1602 0036 0CE0     		b	.L104
 1603              	.LVL266:
 1604              	.L106:
 359:..\lvgl\lv_objx/lv_cont.c ****             align = LV_ALIGN_IN_BOTTOM_LEFT;
 1605              		.loc 1 359 0
 1606 0038 B0F91480 		ldrsh	r8, [r0, #20]
 1607 003c C8F10008 		rsb	r8, r8, #0
 1608 0040 0FFA88F8 		sxth	r8, r8
 1609              	.LVL267:
 360:..\lvgl\lv_objx/lv_cont.c ****             break;
 1610              		.loc 1 360 0
 1611 0044 4FF00409 		mov	r9, #4
 361:..\lvgl\lv_objx/lv_cont.c ****         default:
 1612              		.loc 1 361 0
 1613 0048 03E0     		b	.L104
 1614              	.LVL268:
 1615              	.L114:
 363:..\lvgl\lv_objx/lv_cont.c ****             align = LV_ALIGN_IN_TOP_LEFT;
 1616              		.loc 1 363 0
 1617 004a 4FF00008 		mov	r8, #0
 364:..\lvgl\lv_objx/lv_cont.c ****             break;
 1618              		.loc 1 364 0
 1619 004e 4FF00109 		mov	r9, #1
 1620              	.LVL269:
 1621              	.L104:
 370:..\lvgl\lv_objx/lv_cont.c **** 
 1622              		.loc 1 370 0
 1623 0052 0121     		movs	r1, #1
 1624 0054 3046     		mov	r0, r6
 1625              	.LVL270:
 1626 0056 FFF7FEFF 		bl	lv_obj_set_protect
 1627              	.LVL271:
 373:..\lvgl\lv_objx/lv_cont.c ****     LL_READ_BACK(cont->child_ll, child) {
 1628              		.loc 1 373 0
 1629 005a B7F916A0 		ldrsh	r10, [r7, #22]
 1630              	.LVL272:
 374:..\lvgl\lv_objx/lv_cont.c ****         if(lv_obj_get_hidden(child) != false ||
 1631              		.loc 1 374 0
 1632 005e 351D     		adds	r5, r6, #4
 1633 0060 2846     		mov	r0, r5
 1634 0062 FFF7FEFF 		bl	lv_ll_get_tail
 1635              	.LVL273:
 1636 0066 0446     		mov	r4, r0
 1637              	.LVL274:
 1638 0068 1FE0     		b	.L108
 1639              	.L112:
 375:..\lvgl\lv_objx/lv_cont.c ****                 lv_obj_is_protected(child, LV_PROTECT_POS) != false) continue;
 1640              		.loc 1 375 0
 1641 006a 2046     		mov	r0, r4
ARM GAS  C:\Users\d3bug\AppData\Local\Temp\ccVxVFSv.s 			page 46


 1642              	.LVL275:
 1643 006c FFF7FEFF 		bl	lv_obj_get_hidden
 1644              	.LVL276:
 1645 0070 B0B9     		cbnz	r0, .L111
 376:..\lvgl\lv_objx/lv_cont.c **** 
 1646              		.loc 1 376 0 discriminator 1
 1647 0072 0421     		movs	r1, #4
 1648 0074 2046     		mov	r0, r4
 1649 0076 FFF7FEFF 		bl	lv_obj_is_protected
 1650              	.LVL277:
 375:..\lvgl\lv_objx/lv_cont.c ****                 lv_obj_is_protected(child, LV_PROTECT_POS) != false) continue;
 1651              		.loc 1 375 0 discriminator 1
 1652 007a 88B9     		cbnz	r0, .L111
 378:..\lvgl\lv_objx/lv_cont.c ****         last_cord += lv_obj_get_width(child) + style->body.padding.inner;
 1653              		.loc 1 378 0
 1654 007c CDF80080 		str	r8, [sp]
 1655 0080 5346     		mov	r3, r10
 1656 0082 4A46     		mov	r2, r9
 1657 0084 3146     		mov	r1, r6
 1658 0086 2046     		mov	r0, r4
 1659 0088 FFF7FEFF 		bl	lv_obj_align
 1660              	.LVL278:
 379:..\lvgl\lv_objx/lv_cont.c ****     }
 1661              		.loc 1 379 0
 1662 008c 2046     		mov	r0, r4
 1663 008e FFF7FEFF 		bl	lv_obj_get_width
 1664              	.LVL279:
 1665 0092 B7F91830 		ldrsh	r3, [r7, #24]
 1666 0096 1844     		add	r0, r0, r3
 1667 0098 00EB0A03 		add	r3, r0, r10
 1668 009c 0FFA83FA 		sxth	r10, r3
 1669              	.LVL280:
 1670              	.L111:
 374:..\lvgl\lv_objx/lv_cont.c ****         if(lv_obj_get_hidden(child) != false ||
 1671              		.loc 1 374 0 discriminator 2
 1672 00a0 2146     		mov	r1, r4
 1673 00a2 2846     		mov	r0, r5
 1674 00a4 FFF7FEFF 		bl	lv_ll_get_prev
 1675              	.LVL281:
 1676 00a8 0446     		mov	r4, r0
 1677              	.LVL282:
 1678              	.L108:
 374:..\lvgl\lv_objx/lv_cont.c ****         if(lv_obj_get_hidden(child) != false ||
 1679              		.loc 1 374 0 is_stmt 0 discriminator 1
 1680 00aa 002C     		cmp	r4, #0
 1681 00ac DDD1     		bne	.L112
 382:..\lvgl\lv_objx/lv_cont.c **** }
 1682              		.loc 1 382 0 is_stmt 1
 1683 00ae 0121     		movs	r1, #1
 1684 00b0 3046     		mov	r0, r6
 1685              	.LVL283:
 1686 00b2 FFF7FEFF 		bl	lv_obj_clear_protect
 1687              	.LVL284:
 383:..\lvgl\lv_objx/lv_cont.c **** 
 1688              		.loc 1 383 0
 1689 00b6 02B0     		add	sp, sp, #8
 1690              		.cfi_def_cfa_offset 32
ARM GAS  C:\Users\d3bug\AppData\Local\Temp\ccVxVFSv.s 			page 47


 1691              		@ sp needed
 1692 00b8 BDE8F087 		pop	{r4, r5, r6, r7, r8, r9, r10, pc}
 1693              		.cfi_endproc
 1694              	.LFE25:
 1695              		.size	lv_cont_layout_row, .-lv_cont_layout_row
 1696              		.section	.text.lv_cont_refr_layout,"ax",%progbits
 1697              		.align	2
 1698              		.thumb
 1699              		.thumb_func
 1700              		.type	lv_cont_refr_layout, %function
 1701              	lv_cont_refr_layout:
 1702              	.LFB23:
 265:..\lvgl\lv_objx/lv_cont.c ****     lv_layout_t type = lv_cont_get_layout(cont);
 1703              		.loc 1 265 0
 1704              		.cfi_startproc
 1705              		@ args = 0, pretend = 0, frame = 0
 1706              		@ frame_needed = 0, uses_anonymous_args = 0
 1707              	.LVL285:
 1708 0000 38B5     		push	{r3, r4, r5, lr}
 1709              		.cfi_def_cfa_offset 16
 1710              		.cfi_offset 3, -16
 1711              		.cfi_offset 4, -12
 1712              		.cfi_offset 5, -8
 1713              		.cfi_offset 14, -4
 1714 0002 0546     		mov	r5, r0
 266:..\lvgl\lv_objx/lv_cont.c **** 
 1715              		.loc 1 266 0
 1716 0004 FFF7FEFF 		bl	lv_cont_get_layout
 1717              	.LVL286:
 1718 0008 0446     		mov	r4, r0
 1719              	.LVL287:
 269:..\lvgl\lv_objx/lv_cont.c **** 
 1720              		.loc 1 269 0
 1721 000a 0021     		movs	r1, #0
 1722 000c 2846     		mov	r0, r5
 1723 000e FFF7FEFF 		bl	lv_obj_get_child
 1724              	.LVL288:
 1725 0012 08B3     		cbz	r0, .L116
 271:..\lvgl\lv_objx/lv_cont.c **** 
 1726              		.loc 1 271 0
 1727 0014 04B3     		cbz	r4, .L116
 273:..\lvgl\lv_objx/lv_cont.c ****         lv_cont_layout_center(cont);
 1728              		.loc 1 273 0
 1729 0016 012C     		cmp	r4, #1
 1730 0018 03D1     		bne	.L118
 274:..\lvgl\lv_objx/lv_cont.c ****     } else if(type == LV_LAYOUT_COL_L || type == LV_LAYOUT_COL_M || type == LV_LAYOUT_COL_R) {
 1731              		.loc 1 274 0
 1732 001a 2846     		mov	r0, r5
 1733 001c FFF7FEFF 		bl	lv_cont_layout_center
 1734              	.LVL289:
 1735 0020 38BD     		pop	{r3, r4, r5, pc}
 1736              	.LVL290:
 1737              	.L118:
 275:..\lvgl\lv_objx/lv_cont.c ****         lv_cont_layout_col(cont);
 1738              		.loc 1 275 0
 1739 0022 A31E     		subs	r3, r4, #2
 1740 0024 DBB2     		uxtb	r3, r3
ARM GAS  C:\Users\d3bug\AppData\Local\Temp\ccVxVFSv.s 			page 48


 1741 0026 022B     		cmp	r3, #2
 1742 0028 03D8     		bhi	.L119
 276:..\lvgl\lv_objx/lv_cont.c ****     } else if(type == LV_LAYOUT_ROW_T || type == LV_LAYOUT_ROW_M || type == LV_LAYOUT_ROW_B) {
 1743              		.loc 1 276 0
 1744 002a 2846     		mov	r0, r5
 1745 002c FFF7FEFF 		bl	lv_cont_layout_col
 1746              	.LVL291:
 1747 0030 38BD     		pop	{r3, r4, r5, pc}
 1748              	.LVL292:
 1749              	.L119:
 277:..\lvgl\lv_objx/lv_cont.c ****         lv_cont_layout_row(cont);
 1750              		.loc 1 277 0
 1751 0032 631F     		subs	r3, r4, #5
 1752 0034 DBB2     		uxtb	r3, r3
 1753 0036 022B     		cmp	r3, #2
 1754 0038 03D8     		bhi	.L120
 278:..\lvgl\lv_objx/lv_cont.c ****     } else if(type == LV_LAYOUT_PRETTY) {
 1755              		.loc 1 278 0
 1756 003a 2846     		mov	r0, r5
 1757 003c FFF7FEFF 		bl	lv_cont_layout_row
 1758              	.LVL293:
 1759 0040 38BD     		pop	{r3, r4, r5, pc}
 1760              	.LVL294:
 1761              	.L120:
 279:..\lvgl\lv_objx/lv_cont.c ****         lv_cont_layout_pretty(cont);
 1762              		.loc 1 279 0
 1763 0042 082C     		cmp	r4, #8
 1764 0044 03D1     		bne	.L121
 280:..\lvgl\lv_objx/lv_cont.c ****     }  else if(type == LV_LAYOUT_GRID) {
 1765              		.loc 1 280 0
 1766 0046 2846     		mov	r0, r5
 1767 0048 FFF7FEFF 		bl	lv_cont_layout_pretty
 1768              	.LVL295:
 1769 004c 38BD     		pop	{r3, r4, r5, pc}
 1770              	.LVL296:
 1771              	.L121:
 281:..\lvgl\lv_objx/lv_cont.c ****         lv_cont_layout_grid(cont);
 1772              		.loc 1 281 0
 1773 004e 092C     		cmp	r4, #9
 1774 0050 02D1     		bne	.L116
 282:..\lvgl\lv_objx/lv_cont.c ****     }
 1775              		.loc 1 282 0
 1776 0052 2846     		mov	r0, r5
 1777 0054 FFF7FEFF 		bl	lv_cont_layout_grid
 1778              	.LVL297:
 1779              	.L116:
 1780 0058 38BD     		pop	{r3, r4, r5, pc}
 1781              		.cfi_endproc
 1782              	.LFE23:
 1783              		.size	lv_cont_refr_layout, .-lv_cont_refr_layout
 1784 005a 00BF     		.section	.text.lv_cont_signal,"ax",%progbits
 1785              		.align	2
 1786              		.thumb
 1787              		.thumb_func
 1788              		.type	lv_cont_signal, %function
 1789              	lv_cont_signal:
 1790              	.LFB22:
ARM GAS  C:\Users\d3bug\AppData\Local\Temp\ccVxVFSv.s 			page 49


 228:..\lvgl\lv_objx/lv_cont.c ****     lv_res_t res;
 1791              		.loc 1 228 0
 1792              		.cfi_startproc
 1793              		@ args = 0, pretend = 0, frame = 0
 1794              		@ frame_needed = 0, uses_anonymous_args = 0
 1795              	.LVL298:
 1796 0000 F8B5     		push	{r3, r4, r5, r6, r7, lr}
 1797              		.cfi_def_cfa_offset 24
 1798              		.cfi_offset 3, -24
 1799              		.cfi_offset 4, -20
 1800              		.cfi_offset 5, -16
 1801              		.cfi_offset 6, -12
 1802              		.cfi_offset 7, -8
 1803              		.cfi_offset 14, -4
 1804 0002 0746     		mov	r7, r0
 1805 0004 0D46     		mov	r5, r1
 1806 0006 1646     		mov	r6, r2
 232:..\lvgl\lv_objx/lv_cont.c ****     if(res != LV_RES_OK) return res;
 1807              		.loc 1 232 0
 1808 0008 244B     		ldr	r3, .L134
 1809 000a 1B68     		ldr	r3, [r3]
 1810 000c 9847     		blx	r3
 1811              	.LVL299:
 1812 000e 0446     		mov	r4, r0
 1813              	.LVL300:
 233:..\lvgl\lv_objx/lv_cont.c **** 
 1814              		.loc 1 233 0
 1815 0010 0128     		cmp	r0, #1
 1816 0012 41D1     		bne	.L124
 235:..\lvgl\lv_objx/lv_cont.c ****         lv_cont_refr_layout(cont);
 1817              		.loc 1 235 0
 1818 0014 032D     		cmp	r5, #3
 1819 0016 06D1     		bne	.L125
 236:..\lvgl\lv_objx/lv_cont.c ****         lv_cont_refr_autofit(cont);
 1820              		.loc 1 236 0
 1821 0018 3846     		mov	r0, r7
 1822              	.LVL301:
 1823 001a FFF7FEFF 		bl	lv_cont_refr_layout
 1824              	.LVL302:
 237:..\lvgl\lv_objx/lv_cont.c ****     } else if(sign == LV_SIGNAL_CHILD_CHG) {
 1825              		.loc 1 237 0
 1826 001e 3846     		mov	r0, r7
 1827 0020 FFF7FEFF 		bl	lv_cont_refr_autofit
 1828              	.LVL303:
 1829 0024 38E0     		b	.L124
 1830              	.LVL304:
 1831              	.L125:
 238:..\lvgl\lv_objx/lv_cont.c ****         lv_cont_refr_layout(cont);
 1832              		.loc 1 238 0
 1833 0026 012D     		cmp	r5, #1
 1834 0028 06D1     		bne	.L126
 239:..\lvgl\lv_objx/lv_cont.c ****         lv_cont_refr_autofit(cont);
 1835              		.loc 1 239 0
 1836 002a 3846     		mov	r0, r7
 1837              	.LVL305:
 1838 002c FFF7FEFF 		bl	lv_cont_refr_layout
 1839              	.LVL306:
ARM GAS  C:\Users\d3bug\AppData\Local\Temp\ccVxVFSv.s 			page 50


 240:..\lvgl\lv_objx/lv_cont.c ****     } else if(sign == LV_SIGNAL_CORD_CHG) {
 1840              		.loc 1 240 0
 1841 0030 3846     		mov	r0, r7
 1842 0032 FFF7FEFF 		bl	lv_cont_refr_autofit
 1843              	.LVL307:
 1844 0036 2FE0     		b	.L124
 1845              	.LVL308:
 1846              	.L126:
 241:..\lvgl\lv_objx/lv_cont.c ****         if(lv_obj_get_width(cont) != lv_area_get_width(param) ||
 1847              		.loc 1 241 0
 1848 0038 022D     		cmp	r5, #2
 1849 003a 1ED1     		bne	.L127
 242:..\lvgl\lv_objx/lv_cont.c ****                 lv_obj_get_height(cont) != lv_area_get_height(param)) {
 1850              		.loc 1 242 0
 1851 003c 3846     		mov	r0, r7
 1852              	.LVL309:
 1853 003e FFF7FEFF 		bl	lv_obj_get_width
 1854              	.LVL310:
 1855              	.LBB32:
 1856              	.LBB33:
  68:..\lvgl\lv_objx\../lv_core/../lv_misc/lv_area.h **** }
  69:..\lvgl\lv_objx\../lv_core/../lv_misc/lv_area.h **** 
  70:..\lvgl\lv_objx\../lv_core/../lv_misc/lv_area.h **** /**
  71:..\lvgl\lv_objx\../lv_core/../lv_misc/lv_area.h ****  * Get the width of an area
  72:..\lvgl\lv_objx\../lv_core/../lv_misc/lv_area.h ****  * @param area_p pointer to an area
  73:..\lvgl\lv_objx\../lv_core/../lv_misc/lv_area.h ****  * @return the width of the area (if x1 == x2 -> width = 1)
  74:..\lvgl\lv_objx\../lv_core/../lv_misc/lv_area.h ****  */
  75:..\lvgl\lv_objx\../lv_core/../lv_misc/lv_area.h **** static inline lv_coord_t lv_area_get_width(const lv_area_t * area_p)
  76:..\lvgl\lv_objx\../lv_core/../lv_misc/lv_area.h **** {
  77:..\lvgl\lv_objx\../lv_core/../lv_misc/lv_area.h ****     return area_p->x2 - area_p->x1 + 1;
 1857              		.loc 2 77 0
 1858 0042 B6F90430 		ldrsh	r3, [r6, #4]
 1859 0046 B6F90020 		ldrsh	r2, [r6]
 1860 004a 9B1A     		subs	r3, r3, r2
 1861 004c 0133     		adds	r3, r3, #1
 1862 004e 1BB2     		sxth	r3, r3
 1863              	.LVL311:
 1864              	.LBE33:
 1865              	.LBE32:
 242:..\lvgl\lv_objx/lv_cont.c ****                 lv_obj_get_height(cont) != lv_area_get_height(param)) {
 1866              		.loc 1 242 0
 1867 0050 9842     		cmp	r0, r3
 1868 0052 0BD1     		bne	.L128
 243:..\lvgl\lv_objx/lv_cont.c ****             lv_cont_refr_layout(cont);
 1869              		.loc 1 243 0 discriminator 1
 1870 0054 3846     		mov	r0, r7
 1871 0056 FFF7FEFF 		bl	lv_obj_get_height
 1872              	.LVL312:
 1873              	.LBB34:
 1874              	.LBB35:
  78:..\lvgl\lv_objx\../lv_core/../lv_misc/lv_area.h **** }
  79:..\lvgl\lv_objx\../lv_core/../lv_misc/lv_area.h **** 
  80:..\lvgl\lv_objx\../lv_core/../lv_misc/lv_area.h **** /**
  81:..\lvgl\lv_objx\../lv_core/../lv_misc/lv_area.h ****  * Get the height of an area
  82:..\lvgl\lv_objx\../lv_core/../lv_misc/lv_area.h ****  * @param area_p pointer to an area
  83:..\lvgl\lv_objx\../lv_core/../lv_misc/lv_area.h ****  * @return the height of the area (if y1 == y2 -> height = 1)
  84:..\lvgl\lv_objx\../lv_core/../lv_misc/lv_area.h ****  */
ARM GAS  C:\Users\d3bug\AppData\Local\Temp\ccVxVFSv.s 			page 51


  85:..\lvgl\lv_objx\../lv_core/../lv_misc/lv_area.h **** static inline lv_coord_t lv_area_get_height(const lv_area_t * area_p)
  86:..\lvgl\lv_objx\../lv_core/../lv_misc/lv_area.h **** {
  87:..\lvgl\lv_objx\../lv_core/../lv_misc/lv_area.h ****     return area_p->y2 - area_p->y1 + 1;
 1875              		.loc 2 87 0 discriminator 1
 1876 005a B6F90630 		ldrsh	r3, [r6, #6]
 1877 005e B6F90220 		ldrsh	r2, [r6, #2]
 1878 0062 9B1A     		subs	r3, r3, r2
 1879 0064 0133     		adds	r3, r3, #1
 1880 0066 1BB2     		sxth	r3, r3
 1881              	.LVL313:
 1882              	.LBE35:
 1883              	.LBE34:
 242:..\lvgl\lv_objx/lv_cont.c ****                 lv_obj_get_height(cont) != lv_area_get_height(param)) {
 1884              		.loc 1 242 0 discriminator 1
 1885 0068 9842     		cmp	r0, r3
 1886 006a 15D0     		beq	.L124
 1887              	.L128:
 244:..\lvgl\lv_objx/lv_cont.c ****             lv_cont_refr_autofit(cont);
 1888              		.loc 1 244 0
 1889 006c 3846     		mov	r0, r7
 1890 006e FFF7FEFF 		bl	lv_cont_refr_layout
 1891              	.LVL314:
 245:..\lvgl\lv_objx/lv_cont.c ****         }
 1892              		.loc 1 245 0
 1893 0072 3846     		mov	r0, r7
 1894 0074 FFF7FEFF 		bl	lv_cont_refr_autofit
 1895              	.LVL315:
 1896 0078 0EE0     		b	.L124
 1897              	.LVL316:
 1898              	.L127:
 247:..\lvgl\lv_objx/lv_cont.c ****         lv_obj_type_t * buf = param;
 1899              		.loc 1 247 0
 1900 007a 062D     		cmp	r5, #6
 1901 007c 0CD1     		bne	.L124
 1902 007e 05E0     		b	.L132
 1903              	.LVL317:
 1904              	.L131:
 1905              	.LBB36:
 251:..\lvgl\lv_objx/lv_cont.c ****         }
 1906              		.loc 1 251 0
 1907 0080 56F82320 		ldr	r2, [r6, r3, lsl #2]
 1908 0084 2AB1     		cbz	r2, .L130
 250:..\lvgl\lv_objx/lv_cont.c ****             if(buf->type[i] == NULL) break;
 1909              		.loc 1 250 0 discriminator 2
 1910 0086 0133     		adds	r3, r3, #1
 1911              	.LVL318:
 1912 0088 DBB2     		uxtb	r3, r3
 1913              	.LVL319:
 1914 008a 00E0     		b	.L129
 1915              	.LVL320:
 1916              	.L132:
 1917              	.LBE36:
 1918 008c 0023     		movs	r3, #0
 1919              	.L129:
 1920              	.LVL321:
 1921              	.LBB37:
 250:..\lvgl\lv_objx/lv_cont.c ****             if(buf->type[i] == NULL) break;
ARM GAS  C:\Users\d3bug\AppData\Local\Temp\ccVxVFSv.s 			page 52


 1922              		.loc 1 250 0 is_stmt 0 discriminator 1
 1923 008e 062B     		cmp	r3, #6
 1924 0090 F6D9     		bls	.L131
 1925              	.L130:
 253:..\lvgl\lv_objx/lv_cont.c ****     }
 1926              		.loc 1 253 0 is_stmt 1
 1927 0092 034A     		ldr	r2, .L134+4
 1928 0094 46F82320 		str	r2, [r6, r3, lsl #2]
 1929              	.LVL322:
 1930              	.L124:
 1931              	.LBE37:
 257:..\lvgl\lv_objx/lv_cont.c **** 
 1932              		.loc 1 257 0
 1933 0098 2046     		mov	r0, r4
 1934 009a F8BD     		pop	{r3, r4, r5, r6, r7, pc}
 1935              	.LVL323:
 1936              	.L135:
 1937              		.align	2
 1938              	.L134:
 1939 009c 00000000 		.word	.LANCHOR0
 1940 00a0 5C000000 		.word	.LC4
 1941              		.cfi_endproc
 1942              	.LFE22:
 1943              		.size	lv_cont_signal, .-lv_cont_signal
 1944              		.section	.text.lv_cont_get_hor_fit,"ax",%progbits
 1945              		.align	2
 1946              		.global	lv_cont_get_hor_fit
 1947              		.thumb
 1948              		.thumb_func
 1949              		.type	lv_cont_get_hor_fit, %function
 1950              	lv_cont_get_hor_fit:
 1951              	.LFB18:
 176:..\lvgl\lv_objx/lv_cont.c ****     lv_cont_ext_t * ext = lv_obj_get_ext_attr(cont);
 1952              		.loc 1 176 0
 1953              		.cfi_startproc
 1954              		@ args = 0, pretend = 0, frame = 0
 1955              		@ frame_needed = 0, uses_anonymous_args = 0
 1956              	.LVL324:
 1957 0000 08B5     		push	{r3, lr}
 1958              		.cfi_def_cfa_offset 8
 1959              		.cfi_offset 3, -8
 1960              		.cfi_offset 14, -4
 177:..\lvgl\lv_objx/lv_cont.c ****     return ext->hor_fit == 0 ? false : true;
 1961              		.loc 1 177 0
 1962 0002 FFF7FEFF 		bl	lv_obj_get_ext_attr
 1963              	.LVL325:
 178:..\lvgl\lv_objx/lv_cont.c **** }
 1964              		.loc 1 178 0
 1965 0006 0078     		ldrb	r0, [r0]	@ zero_extendqisi2
 1966              	.LVL326:
 179:..\lvgl\lv_objx/lv_cont.c **** 
 1967              		.loc 1 179 0
 1968 0008 C0F30010 		ubfx	r0, r0, #4, #1
 1969 000c 08BD     		pop	{r3, pc}
 1970              		.cfi_endproc
 1971              	.LFE18:
 1972              		.size	lv_cont_get_hor_fit, .-lv_cont_get_hor_fit
ARM GAS  C:\Users\d3bug\AppData\Local\Temp\ccVxVFSv.s 			page 53


 1973 000e 00BF     		.section	.text.lv_cont_get_ver_fit,"ax",%progbits
 1974              		.align	2
 1975              		.global	lv_cont_get_ver_fit
 1976              		.thumb
 1977              		.thumb_func
 1978              		.type	lv_cont_get_ver_fit, %function
 1979              	lv_cont_get_ver_fit:
 1980              	.LFB19:
 187:..\lvgl\lv_objx/lv_cont.c ****     lv_cont_ext_t * ext = lv_obj_get_ext_attr(cont);
 1981              		.loc 1 187 0
 1982              		.cfi_startproc
 1983              		@ args = 0, pretend = 0, frame = 0
 1984              		@ frame_needed = 0, uses_anonymous_args = 0
 1985              	.LVL327:
 1986 0000 08B5     		push	{r3, lr}
 1987              		.cfi_def_cfa_offset 8
 1988              		.cfi_offset 3, -8
 1989              		.cfi_offset 14, -4
 188:..\lvgl\lv_objx/lv_cont.c ****     return ext->ver_fit == 0 ? false : true;
 1990              		.loc 1 188 0
 1991 0002 FFF7FEFF 		bl	lv_obj_get_ext_attr
 1992              	.LVL328:
 189:..\lvgl\lv_objx/lv_cont.c **** }
 1993              		.loc 1 189 0
 1994 0006 0078     		ldrb	r0, [r0]	@ zero_extendqisi2
 1995              	.LVL329:
 190:..\lvgl\lv_objx/lv_cont.c **** 
 1996              		.loc 1 190 0
 1997 0008 C0F34010 		ubfx	r0, r0, #5, #1
 1998 000c 08BD     		pop	{r3, pc}
 1999              		.cfi_endproc
 2000              	.LFE19:
 2001              		.size	lv_cont_get_ver_fit, .-lv_cont_get_ver_fit
 2002 000e 00BF     		.section	.text.lv_cont_get_fit_width,"ax",%progbits
 2003              		.align	2
 2004              		.global	lv_cont_get_fit_width
 2005              		.thumb
 2006              		.thumb_func
 2007              		.type	lv_cont_get_fit_width, %function
 2008              	lv_cont_get_fit_width:
 2009              	.LFB20:
 198:..\lvgl\lv_objx/lv_cont.c ****     lv_style_t * style = lv_cont_get_style(cont);
 2010              		.loc 1 198 0
 2011              		.cfi_startproc
 2012              		@ args = 0, pretend = 0, frame = 0
 2013              		@ frame_needed = 0, uses_anonymous_args = 0
 2014              	.LVL330:
 2015 0000 38B5     		push	{r3, r4, r5, lr}
 2016              		.cfi_def_cfa_offset 16
 2017              		.cfi_offset 3, -16
 2018              		.cfi_offset 4, -12
 2019              		.cfi_offset 5, -8
 2020              		.cfi_offset 14, -4
 2021 0002 0546     		mov	r5, r0
 2022              	.LVL331:
 2023              	.LBB38:
 2024              	.LBB39:
ARM GAS  C:\Users\d3bug\AppData\Local\Temp\ccVxVFSv.s 			page 54


 101:..\lvgl\lv_objx/lv_cont.h **** }
 102:..\lvgl\lv_objx/lv_cont.h **** 
 103:..\lvgl\lv_objx/lv_cont.h **** /*=====================
 104:..\lvgl\lv_objx/lv_cont.h ****  * Getter functions
 105:..\lvgl\lv_objx/lv_cont.h ****  *====================*/
 106:..\lvgl\lv_objx/lv_cont.h **** 
 107:..\lvgl\lv_objx/lv_cont.h **** /**
 108:..\lvgl\lv_objx/lv_cont.h ****  * Get the layout of a container
 109:..\lvgl\lv_objx/lv_cont.h ****  * @param cont pointer to container object
 110:..\lvgl\lv_objx/lv_cont.h ****  * @return the layout from 'lv_cont_layout_t'
 111:..\lvgl\lv_objx/lv_cont.h ****  */
 112:..\lvgl\lv_objx/lv_cont.h **** lv_layout_t lv_cont_get_layout(const lv_obj_t * cont);
 113:..\lvgl\lv_objx/lv_cont.h **** 
 114:..\lvgl\lv_objx/lv_cont.h **** /**
 115:..\lvgl\lv_objx/lv_cont.h ****  * Get horizontal fit enable attribute of a container
 116:..\lvgl\lv_objx/lv_cont.h ****  * @param cont pointer to a container object
 117:..\lvgl\lv_objx/lv_cont.h ****  * @return true: horizontal fit is enabled; false: disabled
 118:..\lvgl\lv_objx/lv_cont.h ****  */
 119:..\lvgl\lv_objx/lv_cont.h **** bool lv_cont_get_hor_fit(const lv_obj_t * cont);
 120:..\lvgl\lv_objx/lv_cont.h **** 
 121:..\lvgl\lv_objx/lv_cont.h **** /**
 122:..\lvgl\lv_objx/lv_cont.h ****  * Get vertical fit enable attribute of a container
 123:..\lvgl\lv_objx/lv_cont.h ****  * @param cont pointer to a container object
 124:..\lvgl\lv_objx/lv_cont.h ****  * @return true: vertical fit is enabled; false: disabled
 125:..\lvgl\lv_objx/lv_cont.h ****  */
 126:..\lvgl\lv_objx/lv_cont.h **** bool lv_cont_get_ver_fit(const lv_obj_t * cont);
 127:..\lvgl\lv_objx/lv_cont.h **** 
 128:..\lvgl\lv_objx/lv_cont.h **** 
 129:..\lvgl\lv_objx/lv_cont.h **** /**
 130:..\lvgl\lv_objx/lv_cont.h ****  * Get that width reduced by the horizontal padding. Useful if a layout is used.
 131:..\lvgl\lv_objx/lv_cont.h ****  * @param cont pointer to a container object
 132:..\lvgl\lv_objx/lv_cont.h ****  * @return the width which still fits into the container
 133:..\lvgl\lv_objx/lv_cont.h ****  */
 134:..\lvgl\lv_objx/lv_cont.h **** lv_coord_t lv_cont_get_fit_width(lv_obj_t * cont);
 135:..\lvgl\lv_objx/lv_cont.h **** 
 136:..\lvgl\lv_objx/lv_cont.h **** /**
 137:..\lvgl\lv_objx/lv_cont.h ****  * Get that height reduced by the vertical padding. Useful if a layout is used.
 138:..\lvgl\lv_objx/lv_cont.h ****  * @param cont pointer to a container object
 139:..\lvgl\lv_objx/lv_cont.h ****  * @return the height which still fits into the container
 140:..\lvgl\lv_objx/lv_cont.h ****  */
 141:..\lvgl\lv_objx/lv_cont.h **** lv_coord_t lv_cont_get_fit_height(lv_obj_t * cont);
 142:..\lvgl\lv_objx/lv_cont.h **** 
 143:..\lvgl\lv_objx/lv_cont.h **** /**
 144:..\lvgl\lv_objx/lv_cont.h ****  * Get the style of a container
 145:..\lvgl\lv_objx/lv_cont.h ****  * @param cont pointer to a container object
 146:..\lvgl\lv_objx/lv_cont.h ****  * @return pointer to the container's style
 147:..\lvgl\lv_objx/lv_cont.h ****  */
 148:..\lvgl\lv_objx/lv_cont.h **** static inline lv_style_t * lv_cont_get_style(const lv_obj_t *cont)
 149:..\lvgl\lv_objx/lv_cont.h **** {
 150:..\lvgl\lv_objx/lv_cont.h ****     return lv_obj_get_style(cont);
 2025              		.loc 3 150 0
 2026 0004 FFF7FEFF 		bl	lv_obj_get_style
 2027              	.LVL332:
 2028 0008 0446     		mov	r4, r0
 2029              	.LVL333:
 2030              	.LBE39:
 2031              	.LBE38:
ARM GAS  C:\Users\d3bug\AppData\Local\Temp\ccVxVFSv.s 			page 55


 201:..\lvgl\lv_objx/lv_cont.c **** }
 2032              		.loc 1 201 0
 2033 000a 2846     		mov	r0, r5
 2034 000c FFF7FEFF 		bl	lv_obj_get_width
 2035              	.LVL334:
 2036 0010 B4F91630 		ldrsh	r3, [r4, #22]
 2037 0014 A0EB4300 		sub	r0, r0, r3, lsl #1
 202:..\lvgl\lv_objx/lv_cont.c **** 
 2038              		.loc 1 202 0
 2039 0018 00B2     		sxth	r0, r0
 2040 001a 38BD     		pop	{r3, r4, r5, pc}
 2041              		.cfi_endproc
 2042              	.LFE20:
 2043              		.size	lv_cont_get_fit_width, .-lv_cont_get_fit_width
 2044              		.section	.text.lv_cont_get_fit_height,"ax",%progbits
 2045              		.align	2
 2046              		.global	lv_cont_get_fit_height
 2047              		.thumb
 2048              		.thumb_func
 2049              		.type	lv_cont_get_fit_height, %function
 2050              	lv_cont_get_fit_height:
 2051              	.LFB21:
 210:..\lvgl\lv_objx/lv_cont.c ****     lv_style_t * style = lv_cont_get_style(cont);
 2052              		.loc 1 210 0
 2053              		.cfi_startproc
 2054              		@ args = 0, pretend = 0, frame = 0
 2055              		@ frame_needed = 0, uses_anonymous_args = 0
 2056              	.LVL335:
 2057 0000 38B5     		push	{r3, r4, r5, lr}
 2058              		.cfi_def_cfa_offset 16
 2059              		.cfi_offset 3, -16
 2060              		.cfi_offset 4, -12
 2061              		.cfi_offset 5, -8
 2062              		.cfi_offset 14, -4
 2063 0002 0546     		mov	r5, r0
 2064              	.LVL336:
 2065              	.LBB40:
 2066              	.LBB41:
 2067              		.loc 3 150 0
 2068 0004 FFF7FEFF 		bl	lv_obj_get_style
 2069              	.LVL337:
 2070 0008 0446     		mov	r4, r0
 2071              	.LVL338:
 2072              	.LBE41:
 2073              	.LBE40:
 213:..\lvgl\lv_objx/lv_cont.c **** }
 2074              		.loc 1 213 0
 2075 000a 2846     		mov	r0, r5
 2076 000c FFF7FEFF 		bl	lv_obj_get_width
 2077              	.LVL339:
 2078 0010 B4F91630 		ldrsh	r3, [r4, #22]
 2079 0014 A0EB4300 		sub	r0, r0, r3, lsl #1
 214:..\lvgl\lv_objx/lv_cont.c **** 
 2080              		.loc 1 214 0
 2081 0018 00B2     		sxth	r0, r0
 2082 001a 38BD     		pop	{r3, r4, r5, pc}
 2083              		.cfi_endproc
ARM GAS  C:\Users\d3bug\AppData\Local\Temp\ccVxVFSv.s 			page 56


 2084              	.LFE21:
 2085              		.size	lv_cont_get_fit_height, .-lv_cont_get_fit_height
 2086              		.section	.rodata.str1.4,"aMS",%progbits,1
 2087              		.align	2
 2088              	.LC0:
 2089 0000 636F6E74 		.ascii	"container create started\000"
 2089      61696E65 
 2089      72206372 
 2089      65617465 
 2089      20737461 
 2090 0019 000000   		.space	3
 2091              	.LC1:
 2092 001c 2E2E5C6C 		.ascii	"..\\lvgl\\lv_objx\\lv_cont.c\000"
 2092      76676C5C 
 2092      6C765F6F 
 2092      626A785C 
 2092      6C765F63 
 2093 0036 0000     		.space	2
 2094              	.LC2:
 2095 0038 4F757420 		.ascii	"Out of memory!\000"
 2095      6F66206D 
 2095      656D6F72 
 2095      792100
 2096 0047 00       		.space	1
 2097              	.LC3:
 2098 0048 636F6E74 		.ascii	"container created\000"
 2098      61696E65 
 2098      72206372 
 2098      65617465 
 2098      6400
 2099 005a 0000     		.space	2
 2100              	.LC4:
 2101 005c 6C765F63 		.ascii	"lv_cont\000"
 2101      6F6E7400 
 2102              		.bss
 2103              		.align	2
 2104              		.set	.LANCHOR0,. + 0
 2105              		.type	ancestor_signal, %object
 2106              		.size	ancestor_signal, 4
 2107              	ancestor_signal:
 2108 0000 00000000 		.space	4
 2109              		.text
 2110              	.Letext0:
 2111              		.file 4 "c:\\program files (x86)\\cypress\\psoc creator\\4.2\\psoc creator\\import\\gnu\\arm\\5.4.
 2112              		.file 5 "c:\\program files (x86)\\cypress\\psoc creator\\4.2\\psoc creator\\import\\gnu\\arm\\5.4.
 2113              		.file 6 "..\\lvgl\\lv_objx\\../lv_core/../lv_misc/lv_color.h"
 2114              		.file 7 "..\\lvgl\\lv_objx\\../lv_core/../lv_misc/lv_font.h"
 2115              		.file 8 "..\\lvgl\\lv_objx\\../lv_core/lv_style.h"
 2116              		.file 9 "..\\lvgl\\lv_objx\\../lv_core/../lv_misc/lv_ll.h"
 2117              		.file 10 "..\\lvgl\\lv_objx\\../lv_core/lv_obj.h"
 2118              		.file 11 "..\\lvgl\\lv_objx\\../lv_themes/lv_theme.h"
 2119              		.file 12 "..\\lvgl\\lv_objx\\../lv_core/../lv_misc/lv_log.h"
 2120              		.section	.debug_info,"",%progbits
 2121              	.Ldebug_info0:
 2122 0000 64200000 		.4byte	0x2064
 2123 0004 0400     		.2byte	0x4
 2124 0006 00000000 		.4byte	.Ldebug_abbrev0
ARM GAS  C:\Users\d3bug\AppData\Local\Temp\ccVxVFSv.s 			page 57


 2125 000a 04       		.byte	0x4
 2126 000b 01       		.uleb128 0x1
 2127 000c 46040000 		.4byte	.LASF266
 2128 0010 0C       		.byte	0xc
 2129 0011 E90C0000 		.4byte	.LASF267
 2130 0015 1F060000 		.4byte	.LASF268
 2131 0019 18000000 		.4byte	.Ldebug_ranges0+0x18
 2132 001d 00000000 		.4byte	0
 2133 0021 00000000 		.4byte	.Ldebug_line0
 2134 0025 02       		.uleb128 0x2
 2135 0026 04       		.byte	0x4
 2136 0027 05       		.byte	0x5
 2137 0028 696E7400 		.ascii	"int\000"
 2138 002c 03       		.uleb128 0x3
 2139 002d 04       		.byte	0x4
 2140 002e 07       		.byte	0x7
 2141 002f A8000000 		.4byte	.LASF0
 2142 0033 03       		.uleb128 0x3
 2143 0034 08       		.byte	0x8
 2144 0035 05       		.byte	0x5
 2145 0036 6D070000 		.4byte	.LASF1
 2146 003a 03       		.uleb128 0x3
 2147 003b 08       		.byte	0x8
 2148 003c 04       		.byte	0x4
 2149 003d 8B090000 		.4byte	.LASF2
 2150 0041 03       		.uleb128 0x3
 2151 0042 01       		.byte	0x1
 2152 0043 06       		.byte	0x6
 2153 0044 2D0D0000 		.4byte	.LASF3
 2154 0048 04       		.uleb128 0x4
 2155 0049 110B0000 		.4byte	.LASF5
 2156 004d 04       		.byte	0x4
 2157 004e 1D       		.byte	0x1d
 2158 004f 53000000 		.4byte	0x53
 2159 0053 03       		.uleb128 0x3
 2160 0054 01       		.byte	0x1
 2161 0055 08       		.byte	0x8
 2162 0056 100C0000 		.4byte	.LASF4
 2163 005a 04       		.uleb128 0x4
 2164 005b F4070000 		.4byte	.LASF6
 2165 005f 04       		.byte	0x4
 2166 0060 29       		.byte	0x29
 2167 0061 65000000 		.4byte	0x65
 2168 0065 03       		.uleb128 0x3
 2169 0066 02       		.byte	0x2
 2170 0067 05       		.byte	0x5
 2171 0068 410A0000 		.4byte	.LASF7
 2172 006c 04       		.uleb128 0x4
 2173 006d CE030000 		.4byte	.LASF8
 2174 0071 04       		.byte	0x4
 2175 0072 2B       		.byte	0x2b
 2176 0073 77000000 		.4byte	0x77
 2177 0077 03       		.uleb128 0x3
 2178 0078 02       		.byte	0x2
 2179 0079 07       		.byte	0x7
 2180 007a 670D0000 		.4byte	.LASF9
 2181 007e 03       		.uleb128 0x3
ARM GAS  C:\Users\d3bug\AppData\Local\Temp\ccVxVFSv.s 			page 58


 2182 007f 04       		.byte	0x4
 2183 0080 05       		.byte	0x5
 2184 0081 950A0000 		.4byte	.LASF10
 2185 0085 04       		.uleb128 0x4
 2186 0086 2C0C0000 		.4byte	.LASF11
 2187 008a 04       		.byte	0x4
 2188 008b 41       		.byte	0x41
 2189 008c 90000000 		.4byte	0x90
 2190 0090 03       		.uleb128 0x3
 2191 0091 04       		.byte	0x4
 2192 0092 07       		.byte	0x7
 2193 0093 430B0000 		.4byte	.LASF12
 2194 0097 03       		.uleb128 0x3
 2195 0098 08       		.byte	0x8
 2196 0099 07       		.byte	0x7
 2197 009a 40030000 		.4byte	.LASF13
 2198 009e 04       		.uleb128 0x4
 2199 009f 0F070000 		.4byte	.LASF14
 2200 00a3 05       		.byte	0x5
 2201 00a4 18       		.byte	0x18
 2202 00a5 48000000 		.4byte	0x48
 2203 00a9 04       		.uleb128 0x4
 2204 00aa 26030000 		.4byte	.LASF15
 2205 00ae 05       		.byte	0x5
 2206 00af 20       		.byte	0x20
 2207 00b0 5A000000 		.4byte	0x5a
 2208 00b4 04       		.uleb128 0x4
 2209 00b5 97090000 		.4byte	.LASF16
 2210 00b9 05       		.byte	0x5
 2211 00ba 24       		.byte	0x24
 2212 00bb 6C000000 		.4byte	0x6c
 2213 00bf 04       		.uleb128 0x4
 2214 00c0 BF020000 		.4byte	.LASF17
 2215 00c4 05       		.byte	0x5
 2216 00c5 30       		.byte	0x30
 2217 00c6 85000000 		.4byte	0x85
 2218 00ca 05       		.uleb128 0x5
 2219 00cb 01       		.byte	0x1
 2220 00cc 06       		.byte	0x6
 2221 00cd 5F       		.byte	0x5f
 2222 00ce 0B010000 		.4byte	0x10b
 2223 00d2 06       		.uleb128 0x6
 2224 00d3 C10A0000 		.4byte	.LASF18
 2225 00d7 06       		.byte	0x6
 2226 00d8 61       		.byte	0x61
 2227 00d9 9E000000 		.4byte	0x9e
 2228 00dd 01       		.byte	0x1
 2229 00de 01       		.byte	0x1
 2230 00df 07       		.byte	0x7
 2231 00e0 06       		.uleb128 0x6
 2232 00e1 7F090000 		.4byte	.LASF19
 2233 00e5 06       		.byte	0x6
 2234 00e6 62       		.byte	0x62
 2235 00e7 9E000000 		.4byte	0x9e
 2236 00eb 01       		.byte	0x1
 2237 00ec 01       		.byte	0x1
 2238 00ed 07       		.byte	0x7
ARM GAS  C:\Users\d3bug\AppData\Local\Temp\ccVxVFSv.s 			page 59


 2239 00ee 07       		.uleb128 0x7
 2240 00ef 72656400 		.ascii	"red\000"
 2241 00f3 06       		.byte	0x6
 2242 00f4 63       		.byte	0x63
 2243 00f5 9E000000 		.4byte	0x9e
 2244 00f9 01       		.byte	0x1
 2245 00fa 01       		.byte	0x1
 2246 00fb 07       		.byte	0x7
 2247 00fc 06       		.uleb128 0x6
 2248 00fd 1F000000 		.4byte	.LASF20
 2249 0101 06       		.byte	0x6
 2250 0102 64       		.byte	0x64
 2251 0103 9E000000 		.4byte	0x9e
 2252 0107 01       		.byte	0x1
 2253 0108 01       		.byte	0x1
 2254 0109 07       		.byte	0x7
 2255 010a 00       		.byte	0
 2256 010b 04       		.uleb128 0x4
 2257 010c B0060000 		.4byte	.LASF21
 2258 0110 06       		.byte	0x6
 2259 0111 65       		.byte	0x65
 2260 0112 CA000000 		.4byte	0xca
 2261 0116 04       		.uleb128 0x4
 2262 0117 34090000 		.4byte	.LASF22
 2263 011b 06       		.byte	0x6
 2264 011c 92       		.byte	0x92
 2265 011d 0B010000 		.4byte	0x10b
 2266 0121 04       		.uleb128 0x4
 2267 0122 8C0A0000 		.4byte	.LASF23
 2268 0126 06       		.byte	0x6
 2269 0127 A0       		.byte	0xa0
 2270 0128 9E000000 		.4byte	0x9e
 2271 012c 03       		.uleb128 0x3
 2272 012d 04       		.byte	0x4
 2273 012e 07       		.byte	0x7
 2274 012f 3A0B0000 		.4byte	.LASF24
 2275 0133 08       		.uleb128 0x8
 2276 0134 04       		.byte	0x4
 2277 0135 03       		.uleb128 0x3
 2278 0136 01       		.byte	0x1
 2279 0137 08       		.byte	0x8
 2280 0138 FA050000 		.4byte	.LASF25
 2281 013c 09       		.uleb128 0x9
 2282 013d 04       		.byte	0x4
 2283 013e 42010000 		.4byte	0x142
 2284 0142 0A       		.uleb128 0xa
 2285 0143 35010000 		.4byte	0x135
 2286 0147 04       		.uleb128 0x4
 2287 0148 EB0A0000 		.4byte	.LASF26
 2288 014c 02       		.byte	0x2
 2289 014d 1E       		.byte	0x1e
 2290 014e A9000000 		.4byte	0xa9
 2291 0152 0B       		.uleb128 0xb
 2292 0153 08       		.byte	0x8
 2293 0154 02       		.byte	0x2
 2294 0155 26       		.byte	0x26
 2295 0156 87010000 		.4byte	0x187
ARM GAS  C:\Users\d3bug\AppData\Local\Temp\ccVxVFSv.s 			page 60


 2296 015a 0C       		.uleb128 0xc
 2297 015b 783100   		.ascii	"x1\000"
 2298 015e 02       		.byte	0x2
 2299 015f 28       		.byte	0x28
 2300 0160 47010000 		.4byte	0x147
 2301 0164 00       		.byte	0
 2302 0165 0C       		.uleb128 0xc
 2303 0166 793100   		.ascii	"y1\000"
 2304 0169 02       		.byte	0x2
 2305 016a 29       		.byte	0x29
 2306 016b 47010000 		.4byte	0x147
 2307 016f 02       		.byte	0x2
 2308 0170 0C       		.uleb128 0xc
 2309 0171 783200   		.ascii	"x2\000"
 2310 0174 02       		.byte	0x2
 2311 0175 2A       		.byte	0x2a
 2312 0176 47010000 		.4byte	0x147
 2313 017a 04       		.byte	0x4
 2314 017b 0C       		.uleb128 0xc
 2315 017c 793200   		.ascii	"y2\000"
 2316 017f 02       		.byte	0x2
 2317 0180 2B       		.byte	0x2b
 2318 0181 47010000 		.4byte	0x147
 2319 0185 06       		.byte	0x6
 2320 0186 00       		.byte	0
 2321 0187 04       		.uleb128 0x4
 2322 0188 230D0000 		.4byte	.LASF27
 2323 018c 02       		.byte	0x2
 2324 018d 2C       		.byte	0x2c
 2325 018e 52010000 		.4byte	0x152
 2326 0192 0B       		.uleb128 0xb
 2327 0193 04       		.byte	0x4
 2328 0194 07       		.byte	0x7
 2329 0195 25       		.byte	0x25
 2330 0196 B9010000 		.4byte	0x1b9
 2331 019a 0D       		.uleb128 0xd
 2332 019b B8030000 		.4byte	.LASF28
 2333 019f 07       		.byte	0x7
 2334 01a0 27       		.byte	0x27
 2335 01a1 BF000000 		.4byte	0xbf
 2336 01a5 04       		.byte	0x4
 2337 01a6 08       		.byte	0x8
 2338 01a7 18       		.byte	0x18
 2339 01a8 00       		.byte	0
 2340 01a9 0D       		.uleb128 0xd
 2341 01aa A80B0000 		.4byte	.LASF29
 2342 01ae 07       		.byte	0x7
 2343 01af 28       		.byte	0x28
 2344 01b0 BF000000 		.4byte	0xbf
 2345 01b4 04       		.byte	0x4
 2346 01b5 18       		.byte	0x18
 2347 01b6 00       		.byte	0
 2348 01b7 00       		.byte	0
 2349 01b8 00       		.byte	0
 2350 01b9 04       		.uleb128 0x4
 2351 01ba 9C060000 		.4byte	.LASF30
 2352 01be 07       		.byte	0x7
ARM GAS  C:\Users\d3bug\AppData\Local\Temp\ccVxVFSv.s 			page 61


 2353 01bf 29       		.byte	0x29
 2354 01c0 92010000 		.4byte	0x192
 2355 01c4 0E       		.uleb128 0xe
 2356 01c5 70050000 		.4byte	.LASF76
 2357 01c9 28       		.byte	0x28
 2358 01ca 07       		.byte	0x7
 2359 01cb 31       		.byte	0x31
 2360 01cc 6A020000 		.4byte	0x26a
 2361 01d0 0F       		.uleb128 0xf
 2362 01d1 010E0000 		.4byte	.LASF31
 2363 01d5 07       		.byte	0x7
 2364 01d6 33       		.byte	0x33
 2365 01d7 BF000000 		.4byte	0xbf
 2366 01db 00       		.byte	0
 2367 01dc 0F       		.uleb128 0xf
 2368 01dd 380E0000 		.4byte	.LASF32
 2369 01e1 07       		.byte	0x7
 2370 01e2 34       		.byte	0x34
 2371 01e3 BF000000 		.4byte	0xbf
 2372 01e7 04       		.byte	0x4
 2373 01e8 0F       		.uleb128 0xf
 2374 01e9 9C080000 		.4byte	.LASF33
 2375 01ed 07       		.byte	0x7
 2376 01ee 35       		.byte	0x35
 2377 01ef 6A020000 		.4byte	0x26a
 2378 01f3 08       		.byte	0x8
 2379 01f4 0F       		.uleb128 0xf
 2380 01f5 DB0D0000 		.4byte	.LASF34
 2381 01f9 07       		.byte	0x7
 2382 01fa 36       		.byte	0x36
 2383 01fb 75020000 		.4byte	0x275
 2384 01ff 0C       		.byte	0xc
 2385 0200 0F       		.uleb128 0xf
 2386 0201 B7010000 		.4byte	.LASF35
 2387 0205 07       		.byte	0x7
 2388 0206 37       		.byte	0x37
 2389 0207 80020000 		.4byte	0x280
 2390 020b 10       		.byte	0x10
 2391 020c 0F       		.uleb128 0xf
 2392 020d C0000000 		.4byte	.LASF36
 2393 0211 07       		.byte	0x7
 2394 0212 38       		.byte	0x38
 2395 0213 AA020000 		.4byte	0x2aa
 2396 0217 14       		.byte	0x14
 2397 0218 0F       		.uleb128 0xf
 2398 0219 C90C0000 		.4byte	.LASF37
 2399 021d 07       		.byte	0x7
 2400 021e 39       		.byte	0x39
 2401 021f C4020000 		.4byte	0x2c4
 2402 0223 18       		.byte	0x18
 2403 0224 0F       		.uleb128 0xf
 2404 0225 11040000 		.4byte	.LASF38
 2405 0229 07       		.byte	0x7
 2406 022a 3A       		.byte	0x3a
 2407 022b CA020000 		.4byte	0x2ca
 2408 022f 1C       		.byte	0x1c
 2409 0230 0D       		.uleb128 0xd
ARM GAS  C:\Users\d3bug\AppData\Local\Temp\ccVxVFSv.s 			page 62


 2410 0231 AE0A0000 		.4byte	.LASF39
 2411 0235 07       		.byte	0x7
 2412 0236 3B       		.byte	0x3b
 2413 0237 BF000000 		.4byte	0xbf
 2414 023b 04       		.byte	0x4
 2415 023c 08       		.byte	0x8
 2416 023d 18       		.byte	0x18
 2417 023e 20       		.byte	0x20
 2418 023f 10       		.uleb128 0x10
 2419 0240 62707000 		.ascii	"bpp\000"
 2420 0244 07       		.byte	0x7
 2421 0245 3C       		.byte	0x3c
 2422 0246 BF000000 		.4byte	0xbf
 2423 024a 04       		.byte	0x4
 2424 024b 04       		.byte	0x4
 2425 024c 14       		.byte	0x14
 2426 024d 20       		.byte	0x20
 2427 024e 0D       		.uleb128 0xd
 2428 024f 5B0B0000 		.4byte	.LASF40
 2429 0253 07       		.byte	0x7
 2430 0254 3D       		.byte	0x3d
 2431 0255 BF000000 		.4byte	0xbf
 2432 0259 04       		.byte	0x4
 2433 025a 08       		.byte	0x8
 2434 025b 0C       		.byte	0xc
 2435 025c 20       		.byte	0x20
 2436 025d 0F       		.uleb128 0xf
 2437 025e 36030000 		.4byte	.LASF41
 2438 0262 07       		.byte	0x7
 2439 0263 3E       		.byte	0x3e
 2440 0264 B4000000 		.4byte	0xb4
 2441 0268 24       		.byte	0x24
 2442 0269 00       		.byte	0
 2443 026a 09       		.uleb128 0x9
 2444 026b 04       		.byte	0x4
 2445 026c 70020000 		.4byte	0x270
 2446 0270 0A       		.uleb128 0xa
 2447 0271 9E000000 		.4byte	0x9e
 2448 0275 09       		.uleb128 0x9
 2449 0276 04       		.byte	0x4
 2450 0277 7B020000 		.4byte	0x27b
 2451 027b 0A       		.uleb128 0xa
 2452 027c B9010000 		.4byte	0x1b9
 2453 0280 09       		.uleb128 0x9
 2454 0281 04       		.byte	0x4
 2455 0282 86020000 		.4byte	0x286
 2456 0286 0A       		.uleb128 0xa
 2457 0287 BF000000 		.4byte	0xbf
 2458 028b 11       		.uleb128 0x11
 2459 028c 6A020000 		.4byte	0x26a
 2460 0290 9F020000 		.4byte	0x29f
 2461 0294 12       		.uleb128 0x12
 2462 0295 9F020000 		.4byte	0x29f
 2463 0299 12       		.uleb128 0x12
 2464 029a BF000000 		.4byte	0xbf
 2465 029e 00       		.byte	0
 2466 029f 09       		.uleb128 0x9
ARM GAS  C:\Users\d3bug\AppData\Local\Temp\ccVxVFSv.s 			page 63


 2467 02a0 04       		.byte	0x4
 2468 02a1 A5020000 		.4byte	0x2a5
 2469 02a5 0A       		.uleb128 0xa
 2470 02a6 C4010000 		.4byte	0x1c4
 2471 02aa 09       		.uleb128 0x9
 2472 02ab 04       		.byte	0x4
 2473 02ac 8B020000 		.4byte	0x28b
 2474 02b0 11       		.uleb128 0x11
 2475 02b1 A9000000 		.4byte	0xa9
 2476 02b5 C4020000 		.4byte	0x2c4
 2477 02b9 12       		.uleb128 0x12
 2478 02ba 9F020000 		.4byte	0x29f
 2479 02be 12       		.uleb128 0x12
 2480 02bf BF000000 		.4byte	0xbf
 2481 02c3 00       		.byte	0
 2482 02c4 09       		.uleb128 0x9
 2483 02c5 04       		.byte	0x4
 2484 02c6 B0020000 		.4byte	0x2b0
 2485 02ca 09       		.uleb128 0x9
 2486 02cb 04       		.byte	0x4
 2487 02cc C4010000 		.4byte	0x1c4
 2488 02d0 04       		.uleb128 0x4
 2489 02d1 E9090000 		.4byte	.LASF42
 2490 02d5 07       		.byte	0x7
 2491 02d6 3F       		.byte	0x3f
 2492 02d7 C4010000 		.4byte	0x1c4
 2493 02db 04       		.uleb128 0x4
 2494 02dc 270E0000 		.4byte	.LASF43
 2495 02e0 08       		.byte	0x8
 2496 02e1 2A       		.byte	0x2a
 2497 02e2 9E000000 		.4byte	0x9e
 2498 02e6 04       		.uleb128 0x4
 2499 02e7 43070000 		.4byte	.LASF44
 2500 02eb 08       		.byte	0x8
 2501 02ec 32       		.byte	0x32
 2502 02ed 9E000000 		.4byte	0x9e
 2503 02f1 0B       		.uleb128 0xb
 2504 02f2 06       		.byte	0x6
 2505 02f3 08       		.byte	0x8
 2506 02f4 3E       		.byte	0x3e
 2507 02f5 2A030000 		.4byte	0x32a
 2508 02f9 0F       		.uleb128 0xf
 2509 02fa 40040000 		.4byte	.LASF45
 2510 02fe 08       		.byte	0x8
 2511 02ff 3F       		.byte	0x3f
 2512 0300 16010000 		.4byte	0x116
 2513 0304 00       		.byte	0
 2514 0305 0F       		.uleb128 0xf
 2515 0306 24050000 		.4byte	.LASF46
 2516 030a 08       		.byte	0x8
 2517 030b 40       		.byte	0x40
 2518 030c 47010000 		.4byte	0x147
 2519 0310 02       		.byte	0x2
 2520 0311 0F       		.uleb128 0xf
 2521 0312 8C030000 		.4byte	.LASF47
 2522 0316 08       		.byte	0x8
 2523 0317 41       		.byte	0x41
ARM GAS  C:\Users\d3bug\AppData\Local\Temp\ccVxVFSv.s 			page 64


 2524 0318 DB020000 		.4byte	0x2db
 2525 031c 04       		.byte	0x4
 2526 031d 0C       		.uleb128 0xc
 2527 031e 6F706100 		.ascii	"opa\000"
 2528 0322 08       		.byte	0x8
 2529 0323 42       		.byte	0x42
 2530 0324 21010000 		.4byte	0x121
 2531 0328 05       		.byte	0x5
 2532 0329 00       		.byte	0
 2533 032a 0B       		.uleb128 0xb
 2534 032b 06       		.byte	0x6
 2535 032c 08       		.byte	0x8
 2536 032d 45       		.byte	0x45
 2537 032e 57030000 		.4byte	0x357
 2538 0332 0F       		.uleb128 0xf
 2539 0333 40040000 		.4byte	.LASF45
 2540 0337 08       		.byte	0x8
 2541 0338 46       		.byte	0x46
 2542 0339 16010000 		.4byte	0x116
 2543 033d 00       		.byte	0
 2544 033e 0F       		.uleb128 0xf
 2545 033f 24050000 		.4byte	.LASF46
 2546 0343 08       		.byte	0x8
 2547 0344 47       		.byte	0x47
 2548 0345 47010000 		.4byte	0x147
 2549 0349 02       		.byte	0x2
 2550 034a 0F       		.uleb128 0xf
 2551 034b 020C0000 		.4byte	.LASF48
 2552 034f 08       		.byte	0x8
 2553 0350 48       		.byte	0x48
 2554 0351 E6020000 		.4byte	0x2e6
 2555 0355 04       		.byte	0x4
 2556 0356 00       		.byte	0
 2557 0357 0B       		.uleb128 0xb
 2558 0358 06       		.byte	0x6
 2559 0359 08       		.byte	0x8
 2560 035a 4B       		.byte	0x4b
 2561 035b 84030000 		.4byte	0x384
 2562 035f 0C       		.uleb128 0xc
 2563 0360 76657200 		.ascii	"ver\000"
 2564 0364 08       		.byte	0x8
 2565 0365 4C       		.byte	0x4c
 2566 0366 47010000 		.4byte	0x147
 2567 036a 00       		.byte	0
 2568 036b 0C       		.uleb128 0xc
 2569 036c 686F7200 		.ascii	"hor\000"
 2570 0370 08       		.byte	0x8
 2571 0371 4D       		.byte	0x4d
 2572 0372 47010000 		.4byte	0x147
 2573 0376 02       		.byte	0x2
 2574 0377 0F       		.uleb128 0xf
 2575 0378 8F020000 		.4byte	.LASF49
 2576 037c 08       		.byte	0x8
 2577 037d 4E       		.byte	0x4e
 2578 037e 47010000 		.4byte	0x147
 2579 0382 04       		.byte	0x4
 2580 0383 00       		.byte	0
ARM GAS  C:\Users\d3bug\AppData\Local\Temp\ccVxVFSv.s 			page 65


 2581 0384 0B       		.uleb128 0xb
 2582 0385 1A       		.byte	0x1a
 2583 0386 08       		.byte	0x8
 2584 0387 38       		.byte	0x38
 2585 0388 F0030000 		.4byte	0x3f0
 2586 038c 0F       		.uleb128 0xf
 2587 038d 220A0000 		.4byte	.LASF50
 2588 0391 08       		.byte	0x8
 2589 0392 39       		.byte	0x39
 2590 0393 16010000 		.4byte	0x116
 2591 0397 00       		.byte	0
 2592 0398 0F       		.uleb128 0xf
 2593 0399 B7090000 		.4byte	.LASF51
 2594 039d 08       		.byte	0x8
 2595 039e 3A       		.byte	0x3a
 2596 039f 16010000 		.4byte	0x116
 2597 03a3 01       		.byte	0x1
 2598 03a4 0F       		.uleb128 0xf
 2599 03a5 D60B0000 		.4byte	.LASF52
 2600 03a9 08       		.byte	0x8
 2601 03aa 3B       		.byte	0x3b
 2602 03ab 47010000 		.4byte	0x147
 2603 03af 02       		.byte	0x2
 2604 03b0 0C       		.uleb128 0xc
 2605 03b1 6F706100 		.ascii	"opa\000"
 2606 03b5 08       		.byte	0x8
 2607 03b6 3C       		.byte	0x3c
 2608 03b7 21010000 		.4byte	0x121
 2609 03bb 04       		.byte	0x4
 2610 03bc 0F       		.uleb128 0xf
 2611 03bd E2030000 		.4byte	.LASF53
 2612 03c1 08       		.byte	0x8
 2613 03c2 43       		.byte	0x43
 2614 03c3 F1020000 		.4byte	0x2f1
 2615 03c7 06       		.byte	0x6
 2616 03c8 0F       		.uleb128 0xf
 2617 03c9 1C0D0000 		.4byte	.LASF54
 2618 03cd 08       		.byte	0x8
 2619 03ce 49       		.byte	0x49
 2620 03cf 2A030000 		.4byte	0x32a
 2621 03d3 0C       		.byte	0xc
 2622 03d4 0F       		.uleb128 0xf
 2623 03d5 AA070000 		.4byte	.LASF55
 2624 03d9 08       		.byte	0x8
 2625 03da 4F       		.byte	0x4f
 2626 03db 57030000 		.4byte	0x357
 2627 03df 12       		.byte	0x12
 2628 03e0 0D       		.uleb128 0xd
 2629 03e1 550B0000 		.4byte	.LASF56
 2630 03e5 08       		.byte	0x8
 2631 03e6 51       		.byte	0x51
 2632 03e7 9E000000 		.4byte	0x9e
 2633 03eb 01       		.byte	0x1
 2634 03ec 01       		.byte	0x1
 2635 03ed 07       		.byte	0x7
 2636 03ee 18       		.byte	0x18
 2637 03ef 00       		.byte	0
ARM GAS  C:\Users\d3bug\AppData\Local\Temp\ccVxVFSv.s 			page 66


 2638 03f0 0B       		.uleb128 0xb
 2639 03f1 10       		.byte	0x10
 2640 03f2 08       		.byte	0x8
 2641 03f3 55       		.byte	0x55
 2642 03f4 35040000 		.4byte	0x435
 2643 03f8 0F       		.uleb128 0xf
 2644 03f9 40040000 		.4byte	.LASF45
 2645 03fd 08       		.byte	0x8
 2646 03fe 56       		.byte	0x56
 2647 03ff 16010000 		.4byte	0x116
 2648 0403 00       		.byte	0
 2649 0404 0F       		.uleb128 0xf
 2650 0405 350B0000 		.4byte	.LASF57
 2651 0409 08       		.byte	0x8
 2652 040a 57       		.byte	0x57
 2653 040b 35040000 		.4byte	0x435
 2654 040f 04       		.byte	0x4
 2655 0410 0F       		.uleb128 0xf
 2656 0411 F3090000 		.4byte	.LASF58
 2657 0415 08       		.byte	0x8
 2658 0416 58       		.byte	0x58
 2659 0417 47010000 		.4byte	0x147
 2660 041b 08       		.byte	0x8
 2661 041c 0F       		.uleb128 0xf
 2662 041d 95050000 		.4byte	.LASF59
 2663 0421 08       		.byte	0x8
 2664 0422 59       		.byte	0x59
 2665 0423 47010000 		.4byte	0x147
 2666 0427 0A       		.byte	0xa
 2667 0428 0C       		.uleb128 0xc
 2668 0429 6F706100 		.ascii	"opa\000"
 2669 042d 08       		.byte	0x8
 2670 042e 5A       		.byte	0x5a
 2671 042f 21010000 		.4byte	0x121
 2672 0433 0C       		.byte	0xc
 2673 0434 00       		.byte	0
 2674 0435 09       		.uleb128 0x9
 2675 0436 04       		.byte	0x4
 2676 0437 3B040000 		.4byte	0x43b
 2677 043b 0A       		.uleb128 0xa
 2678 043c D0020000 		.4byte	0x2d0
 2679 0440 0B       		.uleb128 0xb
 2680 0441 03       		.byte	0x3
 2681 0442 08       		.byte	0x8
 2682 0443 5D       		.byte	0x5d
 2683 0444 6D040000 		.4byte	0x46d
 2684 0448 0F       		.uleb128 0xf
 2685 0449 40040000 		.4byte	.LASF45
 2686 044d 08       		.byte	0x8
 2687 044e 5E       		.byte	0x5e
 2688 044f 16010000 		.4byte	0x116
 2689 0453 00       		.byte	0
 2690 0454 0F       		.uleb128 0xf
 2691 0455 090B0000 		.4byte	.LASF60
 2692 0459 08       		.byte	0x8
 2693 045a 5F       		.byte	0x5f
 2694 045b 21010000 		.4byte	0x121
ARM GAS  C:\Users\d3bug\AppData\Local\Temp\ccVxVFSv.s 			page 67


 2695 045f 01       		.byte	0x1
 2696 0460 0C       		.uleb128 0xc
 2697 0461 6F706100 		.ascii	"opa\000"
 2698 0465 08       		.byte	0x8
 2699 0466 60       		.byte	0x60
 2700 0467 21010000 		.4byte	0x121
 2701 046b 02       		.byte	0x2
 2702 046c 00       		.byte	0
 2703 046d 0B       		.uleb128 0xb
 2704 046e 06       		.byte	0x6
 2705 046f 08       		.byte	0x8
 2706 0470 63       		.byte	0x63
 2707 0471 A9040000 		.4byte	0x4a9
 2708 0475 0F       		.uleb128 0xf
 2709 0476 40040000 		.4byte	.LASF45
 2710 047a 08       		.byte	0x8
 2711 047b 64       		.byte	0x64
 2712 047c 16010000 		.4byte	0x116
 2713 0480 00       		.byte	0
 2714 0481 0F       		.uleb128 0xf
 2715 0482 24050000 		.4byte	.LASF46
 2716 0486 08       		.byte	0x8
 2717 0487 65       		.byte	0x65
 2718 0488 47010000 		.4byte	0x147
 2719 048c 02       		.byte	0x2
 2720 048d 0C       		.uleb128 0xc
 2721 048e 6F706100 		.ascii	"opa\000"
 2722 0492 08       		.byte	0x8
 2723 0493 66       		.byte	0x66
 2724 0494 21010000 		.4byte	0x121
 2725 0498 04       		.byte	0x4
 2726 0499 0D       		.uleb128 0xd
 2727 049a F2040000 		.4byte	.LASF61
 2728 049e 08       		.byte	0x8
 2729 049f 67       		.byte	0x67
 2730 04a0 9E000000 		.4byte	0x9e
 2731 04a4 01       		.byte	0x1
 2732 04a5 01       		.byte	0x1
 2733 04a6 07       		.byte	0x7
 2734 04a7 05       		.byte	0x5
 2735 04a8 00       		.byte	0
 2736 04a9 0B       		.uleb128 0xb
 2737 04aa 38       		.byte	0x38
 2738 04ab 08       		.byte	0x8
 2739 04ac 34       		.byte	0x34
 2740 04ad F1040000 		.4byte	0x4f1
 2741 04b1 0D       		.uleb128 0xd
 2742 04b2 7B070000 		.4byte	.LASF62
 2743 04b6 08       		.byte	0x8
 2744 04b7 36       		.byte	0x36
 2745 04b8 9E000000 		.4byte	0x9e
 2746 04bc 01       		.byte	0x1
 2747 04bd 01       		.byte	0x1
 2748 04be 07       		.byte	0x7
 2749 04bf 00       		.byte	0
 2750 04c0 0F       		.uleb128 0xf
 2751 04c1 E70B0000 		.4byte	.LASF63
ARM GAS  C:\Users\d3bug\AppData\Local\Temp\ccVxVFSv.s 			page 68


 2752 04c5 08       		.byte	0x8
 2753 04c6 52       		.byte	0x52
 2754 04c7 84030000 		.4byte	0x384
 2755 04cb 02       		.byte	0x2
 2756 04cc 0F       		.uleb128 0xf
 2757 04cd 86060000 		.4byte	.LASF64
 2758 04d1 08       		.byte	0x8
 2759 04d2 5B       		.byte	0x5b
 2760 04d3 F0030000 		.4byte	0x3f0
 2761 04d7 1C       		.byte	0x1c
 2762 04d8 0F       		.uleb128 0xf
 2763 04d9 B7080000 		.4byte	.LASF65
 2764 04dd 08       		.byte	0x8
 2765 04de 61       		.byte	0x61
 2766 04df 40040000 		.4byte	0x440
 2767 04e3 2C       		.byte	0x2c
 2768 04e4 0F       		.uleb128 0xf
 2769 04e5 370C0000 		.4byte	.LASF66
 2770 04e9 08       		.byte	0x8
 2771 04ea 68       		.byte	0x68
 2772 04eb 6D040000 		.4byte	0x46d
 2773 04ef 30       		.byte	0x30
 2774 04f0 00       		.byte	0
 2775 04f1 04       		.uleb128 0x4
 2776 04f2 B5000000 		.4byte	.LASF67
 2777 04f6 08       		.byte	0x8
 2778 04f7 69       		.byte	0x69
 2779 04f8 A9040000 		.4byte	0x4a9
 2780 04fc 04       		.uleb128 0x4
 2781 04fd 3E050000 		.4byte	.LASF68
 2782 0501 09       		.byte	0x9
 2783 0502 1E       		.byte	0x1e
 2784 0503 9E000000 		.4byte	0x9e
 2785 0507 0B       		.uleb128 0xb
 2786 0508 0C       		.byte	0xc
 2787 0509 09       		.byte	0x9
 2788 050a 21       		.byte	0x21
 2789 050b 34050000 		.4byte	0x534
 2790 050f 0F       		.uleb128 0xf
 2791 0510 94010000 		.4byte	.LASF69
 2792 0514 09       		.byte	0x9
 2793 0515 23       		.byte	0x23
 2794 0516 BF000000 		.4byte	0xbf
 2795 051a 00       		.byte	0
 2796 051b 0F       		.uleb128 0xf
 2797 051c CB000000 		.4byte	.LASF70
 2798 0520 09       		.byte	0x9
 2799 0521 24       		.byte	0x24
 2800 0522 34050000 		.4byte	0x534
 2801 0526 04       		.byte	0x4
 2802 0527 0F       		.uleb128 0xf
 2803 0528 700C0000 		.4byte	.LASF71
 2804 052c 09       		.byte	0x9
 2805 052d 25       		.byte	0x25
 2806 052e 34050000 		.4byte	0x534
 2807 0532 08       		.byte	0x8
 2808 0533 00       		.byte	0
ARM GAS  C:\Users\d3bug\AppData\Local\Temp\ccVxVFSv.s 			page 69


 2809 0534 09       		.uleb128 0x9
 2810 0535 04       		.byte	0x4
 2811 0536 FC040000 		.4byte	0x4fc
 2812 053a 04       		.uleb128 0x4
 2813 053b 81070000 		.4byte	.LASF72
 2814 053f 09       		.byte	0x9
 2815 0540 26       		.byte	0x26
 2816 0541 07050000 		.4byte	0x507
 2817 0545 04       		.uleb128 0x4
 2818 0546 B20C0000 		.4byte	.LASF73
 2819 054a 0A       		.byte	0xa
 2820 054b 4B       		.byte	0x4b
 2821 054c 9E000000 		.4byte	0x9e
 2822 0550 04       		.uleb128 0x4
 2823 0551 89070000 		.4byte	.LASF74
 2824 0555 0A       		.byte	0xa
 2825 0556 4D       		.byte	0x4d
 2826 0557 5B050000 		.4byte	0x55b
 2827 055b 09       		.uleb128 0x9
 2828 055c 04       		.byte	0x4
 2829 055d 61050000 		.4byte	0x561
 2830 0561 11       		.uleb128 0x11
 2831 0562 7A050000 		.4byte	0x57a
 2832 0566 7A050000 		.4byte	0x57a
 2833 056a 12       		.uleb128 0x12
 2834 056b 81050000 		.4byte	0x581
 2835 056f 12       		.uleb128 0x12
 2836 0570 99060000 		.4byte	0x699
 2837 0574 12       		.uleb128 0x12
 2838 0575 45050000 		.4byte	0x545
 2839 0579 00       		.byte	0
 2840 057a 03       		.uleb128 0x3
 2841 057b 01       		.byte	0x1
 2842 057c 02       		.byte	0x2
 2843 057d 55050000 		.4byte	.LASF75
 2844 0581 09       		.uleb128 0x9
 2845 0582 04       		.byte	0x4
 2846 0583 87050000 		.4byte	0x587
 2847 0587 0E       		.uleb128 0xe
 2848 0588 06000000 		.4byte	.LASF77
 2849 058c 44       		.byte	0x44
 2850 058d 0A       		.byte	0xa
 2851 058e 9D       		.byte	0x9d
 2852 058f 99060000 		.4byte	0x699
 2853 0593 0C       		.uleb128 0xc
 2854 0594 70617200 		.ascii	"par\000"
 2855 0598 0A       		.byte	0xa
 2856 0599 9F       		.byte	0x9f
 2857 059a 81050000 		.4byte	0x581
 2858 059e 00       		.byte	0
 2859 059f 0F       		.uleb128 0xf
 2860 05a0 8A0C0000 		.4byte	.LASF78
 2861 05a4 0A       		.byte	0xa
 2862 05a5 A0       		.byte	0xa0
 2863 05a6 3A050000 		.4byte	0x53a
 2864 05aa 04       		.byte	0x4
 2865 05ab 0F       		.uleb128 0xf
ARM GAS  C:\Users\d3bug\AppData\Local\Temp\ccVxVFSv.s 			page 70


 2866 05ac 5D0A0000 		.4byte	.LASF79
 2867 05b0 0A       		.byte	0xa
 2868 05b1 A2       		.byte	0xa2
 2869 05b2 87010000 		.4byte	0x187
 2870 05b6 10       		.byte	0x10
 2871 05b7 0F       		.uleb128 0xf
 2872 05b8 D5020000 		.4byte	.LASF80
 2873 05bc 0A       		.byte	0xa
 2874 05bd A4       		.byte	0xa4
 2875 05be 5E070000 		.4byte	0x75e
 2876 05c2 18       		.byte	0x18
 2877 05c3 0F       		.uleb128 0xf
 2878 05c4 91000000 		.4byte	.LASF81
 2879 05c8 0A       		.byte	0xa
 2880 05c9 A5       		.byte	0xa5
 2881 05ca 50050000 		.4byte	0x550
 2882 05ce 1C       		.byte	0x1c
 2883 05cf 0F       		.uleb128 0xf
 2884 05d0 9B010000 		.4byte	.LASF82
 2885 05d4 0A       		.byte	0xa
 2886 05d5 A7       		.byte	0xa7
 2887 05d6 33010000 		.4byte	0x133
 2888 05da 20       		.byte	0x20
 2889 05db 0F       		.uleb128 0xf
 2890 05dc 1C050000 		.4byte	.LASF83
 2891 05e0 0A       		.byte	0xa
 2892 05e1 A8       		.byte	0xa8
 2893 05e2 8B080000 		.4byte	0x88b
 2894 05e6 24       		.byte	0x24
 2895 05e7 0F       		.uleb128 0xf
 2896 05e8 10000000 		.4byte	.LASF84
 2897 05ec 0A       		.byte	0xa
 2898 05ed AB       		.byte	0xab
 2899 05ee 33010000 		.4byte	0x133
 2900 05f2 28       		.byte	0x28
 2901 05f3 0D       		.uleb128 0xd
 2902 05f4 00000000 		.4byte	.LASF85
 2903 05f8 0A       		.byte	0xa
 2904 05f9 B2       		.byte	0xb2
 2905 05fa 9E000000 		.4byte	0x9e
 2906 05fe 01       		.byte	0x1
 2907 05ff 01       		.byte	0x1
 2908 0600 07       		.byte	0x7
 2909 0601 2C       		.byte	0x2c
 2910 0602 0D       		.uleb128 0xd
 2911 0603 CE0D0000 		.4byte	.LASF86
 2912 0607 0A       		.byte	0xa
 2913 0608 B3       		.byte	0xb3
 2914 0609 9E000000 		.4byte	0x9e
 2915 060d 01       		.byte	0x1
 2916 060e 01       		.byte	0x1
 2917 060f 06       		.byte	0x6
 2918 0610 2C       		.byte	0x2c
 2919 0611 0D       		.uleb128 0xd
 2920 0612 9D000000 		.4byte	.LASF87
 2921 0616 0A       		.byte	0xa
 2922 0617 B4       		.byte	0xb4
ARM GAS  C:\Users\d3bug\AppData\Local\Temp\ccVxVFSv.s 			page 71


 2923 0618 9E000000 		.4byte	0x9e
 2924 061c 01       		.byte	0x1
 2925 061d 01       		.byte	0x1
 2926 061e 05       		.byte	0x5
 2927 061f 2C       		.byte	0x2c
 2928 0620 0D       		.uleb128 0xd
 2929 0621 930C0000 		.4byte	.LASF88
 2930 0625 0A       		.byte	0xa
 2931 0626 B5       		.byte	0xb5
 2932 0627 9E000000 		.4byte	0x9e
 2933 062b 01       		.byte	0x1
 2934 062c 01       		.byte	0x1
 2935 062d 04       		.byte	0x4
 2936 062e 2C       		.byte	0x2c
 2937 062f 0D       		.uleb128 0xd
 2938 0630 4C0D0000 		.4byte	.LASF89
 2939 0634 0A       		.byte	0xa
 2940 0635 B6       		.byte	0xb6
 2941 0636 9E000000 		.4byte	0x9e
 2942 063a 01       		.byte	0x1
 2943 063b 01       		.byte	0x1
 2944 063c 03       		.byte	0x3
 2945 063d 2C       		.byte	0x2c
 2946 063e 10       		.uleb128 0x10
 2947 063f 746F7000 		.ascii	"top\000"
 2948 0643 0A       		.byte	0xa
 2949 0644 B7       		.byte	0xb7
 2950 0645 9E000000 		.4byte	0x9e
 2951 0649 01       		.byte	0x1
 2952 064a 01       		.byte	0x1
 2953 064b 02       		.byte	0x2
 2954 064c 2C       		.byte	0x2c
 2955 064d 0D       		.uleb128 0xd
 2956 064e F60A0000 		.4byte	.LASF90
 2957 0652 0A       		.byte	0xa
 2958 0653 B8       		.byte	0xb8
 2959 0654 9E000000 		.4byte	0x9e
 2960 0658 01       		.byte	0x1
 2961 0659 01       		.byte	0x1
 2962 065a 01       		.byte	0x1
 2963 065b 2C       		.byte	0x2c
 2964 065c 0F       		.uleb128 0xf
 2965 065d BD080000 		.4byte	.LASF91
 2966 0661 0A       		.byte	0xa
 2967 0662 B9       		.byte	0xb9
 2968 0663 9E000000 		.4byte	0x9e
 2969 0667 2D       		.byte	0x2d
 2970 0668 0F       		.uleb128 0xf
 2971 0669 DD0B0000 		.4byte	.LASF92
 2972 066d 0A       		.byte	0xa
 2973 066e BA       		.byte	0xba
 2974 066f 21010000 		.4byte	0x121
 2975 0673 2E       		.byte	0x2e
 2976 0674 0F       		.uleb128 0xf
 2977 0675 D4040000 		.4byte	.LASF93
 2978 0679 0A       		.byte	0xa
 2979 067a BC       		.byte	0xbc
ARM GAS  C:\Users\d3bug\AppData\Local\Temp\ccVxVFSv.s 			page 72


 2980 067b 47010000 		.4byte	0x147
 2981 067f 30       		.byte	0x30
 2982 0680 0F       		.uleb128 0xf
 2983 0681 87020000 		.4byte	.LASF94
 2984 0685 0A       		.byte	0xa
 2985 0686 BE       		.byte	0xbe
 2986 0687 80080000 		.4byte	0x880
 2987 068b 34       		.byte	0x34
 2988 068c 0F       		.uleb128 0xf
 2989 068d D9030000 		.4byte	.LASF95
 2990 0691 0A       		.byte	0xa
 2991 0692 C2       		.byte	0xc2
 2992 0693 BF000000 		.4byte	0xbf
 2993 0697 40       		.byte	0x40
 2994 0698 00       		.byte	0
 2995 0699 09       		.uleb128 0x9
 2996 069a 04       		.byte	0x4
 2997 069b 9F060000 		.4byte	0x69f
 2998 069f 0A       		.uleb128 0xa
 2999 06a0 87010000 		.4byte	0x187
 3000 06a4 13       		.uleb128 0x13
 3001 06a5 01       		.byte	0x1
 3002 06a6 53000000 		.4byte	0x53
 3003 06aa 0A       		.byte	0xa
 3004 06ab 50       		.byte	0x50
 3005 06ac BD060000 		.4byte	0x6bd
 3006 06b0 14       		.uleb128 0x14
 3007 06b1 450E0000 		.4byte	.LASF96
 3008 06b5 00       		.byte	0
 3009 06b6 14       		.uleb128 0x14
 3010 06b7 BD070000 		.4byte	.LASF97
 3011 06bb 01       		.byte	0x1
 3012 06bc 00       		.byte	0
 3013 06bd 04       		.uleb128 0x4
 3014 06be 7D060000 		.4byte	.LASF98
 3015 06c2 0A       		.byte	0xa
 3016 06c3 54       		.byte	0x54
 3017 06c4 9E000000 		.4byte	0x9e
 3018 06c8 13       		.uleb128 0x13
 3019 06c9 01       		.byte	0x1
 3020 06ca 53000000 		.4byte	0x53
 3021 06ce 0A       		.byte	0xa
 3022 06cf 57       		.byte	0x57
 3023 06d0 53070000 		.4byte	0x753
 3024 06d4 14       		.uleb128 0x14
 3025 06d5 D90A0000 		.4byte	.LASF99
 3026 06d9 00       		.byte	0
 3027 06da 14       		.uleb128 0x14
 3028 06db 1C070000 		.4byte	.LASF100
 3029 06df 01       		.byte	0x1
 3030 06e0 14       		.uleb128 0x14
 3031 06e1 BB0D0000 		.4byte	.LASF101
 3032 06e5 02       		.byte	0x2
 3033 06e6 14       		.uleb128 0x14
 3034 06e7 24000000 		.4byte	.LASF102
 3035 06eb 03       		.byte	0x3
 3036 06ec 14       		.uleb128 0x14
ARM GAS  C:\Users\d3bug\AppData\Local\Temp\ccVxVFSv.s 			page 73


 3037 06ed 74000000 		.4byte	.LASF103
 3038 06f1 04       		.byte	0x4
 3039 06f2 14       		.uleb128 0x14
 3040 06f3 390D0000 		.4byte	.LASF104
 3041 06f7 05       		.byte	0x5
 3042 06f8 14       		.uleb128 0x14
 3043 06f9 BC060000 		.4byte	.LASF105
 3044 06fd 06       		.byte	0x6
 3045 06fe 14       		.uleb128 0x14
 3046 06ff 000A0000 		.4byte	.LASF106
 3047 0703 07       		.byte	0x7
 3048 0704 14       		.uleb128 0x14
 3049 0705 750E0000 		.4byte	.LASF107
 3050 0709 08       		.byte	0x8
 3051 070a 14       		.uleb128 0x14
 3052 070b 4F000000 		.4byte	.LASF108
 3053 070f 09       		.byte	0x9
 3054 0710 14       		.uleb128 0x14
 3055 0711 CC010000 		.4byte	.LASF109
 3056 0715 0A       		.byte	0xa
 3057 0716 14       		.uleb128 0x14
 3058 0717 640A0000 		.4byte	.LASF110
 3059 071b 0B       		.byte	0xb
 3060 071c 14       		.uleb128 0x14
 3061 071d DD040000 		.4byte	.LASF111
 3062 0721 0C       		.byte	0xc
 3063 0722 14       		.uleb128 0x14
 3064 0723 030D0000 		.4byte	.LASF112
 3065 0727 0D       		.byte	0xd
 3066 0728 14       		.uleb128 0x14
 3067 0729 D0000000 		.4byte	.LASF113
 3068 072d 0E       		.byte	0xe
 3069 072e 14       		.uleb128 0x14
 3070 072f C30B0000 		.4byte	.LASF114
 3071 0733 0F       		.byte	0xf
 3072 0734 14       		.uleb128 0x14
 3073 0735 9A070000 		.4byte	.LASF115
 3074 0739 10       		.byte	0x10
 3075 073a 14       		.uleb128 0x14
 3076 073b D2050000 		.4byte	.LASF116
 3077 073f 11       		.byte	0x11
 3078 0740 14       		.uleb128 0x14
 3079 0741 6A060000 		.4byte	.LASF117
 3080 0745 12       		.byte	0x12
 3081 0746 14       		.uleb128 0x14
 3082 0747 07020000 		.4byte	.LASF118
 3083 074b 13       		.byte	0x13
 3084 074c 14       		.uleb128 0x14
 3085 074d D7080000 		.4byte	.LASF119
 3086 0751 14       		.byte	0x14
 3087 0752 00       		.byte	0
 3088 0753 04       		.uleb128 0x4
 3089 0754 EC0B0000 		.4byte	.LASF120
 3090 0758 0A       		.byte	0xa
 3091 0759 73       		.byte	0x73
 3092 075a 9E000000 		.4byte	0x9e
 3093 075e 04       		.uleb128 0x4
ARM GAS  C:\Users\d3bug\AppData\Local\Temp\ccVxVFSv.s 			page 74


 3094 075f 60010000 		.4byte	.LASF121
 3095 0763 0A       		.byte	0xa
 3096 0764 75       		.byte	0x75
 3097 0765 69070000 		.4byte	0x769
 3098 0769 09       		.uleb128 0x9
 3099 076a 04       		.byte	0x4
 3100 076b 6F070000 		.4byte	0x76f
 3101 076f 11       		.uleb128 0x11
 3102 0770 BD060000 		.4byte	0x6bd
 3103 0774 88070000 		.4byte	0x788
 3104 0778 12       		.uleb128 0x12
 3105 0779 81050000 		.4byte	0x581
 3106 077d 12       		.uleb128 0x12
 3107 077e 53070000 		.4byte	0x753
 3108 0782 12       		.uleb128 0x12
 3109 0783 33010000 		.4byte	0x133
 3110 0787 00       		.byte	0
 3111 0788 13       		.uleb128 0x13
 3112 0789 01       		.byte	0x1
 3113 078a 53000000 		.4byte	0x53
 3114 078e 0A       		.byte	0xa
 3115 078f 78       		.byte	0x78
 3116 0790 13080000 		.4byte	0x813
 3117 0794 14       		.uleb128 0x14
 3118 0795 970E0000 		.4byte	.LASF122
 3119 0799 00       		.byte	0
 3120 079a 14       		.uleb128 0x14
 3121 079b CF060000 		.4byte	.LASF123
 3122 079f 01       		.byte	0x1
 3123 07a0 14       		.uleb128 0x14
 3124 07a1 2D0A0000 		.4byte	.LASF124
 3125 07a5 02       		.byte	0x2
 3126 07a6 14       		.uleb128 0x14
 3127 07a7 920B0000 		.4byte	.LASF125
 3128 07ab 03       		.byte	0x3
 3129 07ac 14       		.uleb128 0x14
 3130 07ad 7A0B0000 		.4byte	.LASF126
 3131 07b1 04       		.byte	0x4
 3132 07b2 14       		.uleb128 0x14
 3133 07b3 7F080000 		.4byte	.LASF127
 3134 07b7 05       		.byte	0x5
 3135 07b8 14       		.uleb128 0x14
 3136 07b9 F6060000 		.4byte	.LASF128
 3137 07bd 06       		.byte	0x6
 3138 07be 14       		.uleb128 0x14
 3139 07bf EB000000 		.4byte	.LASF129
 3140 07c3 07       		.byte	0x7
 3141 07c4 14       		.uleb128 0x14
 3142 07c5 F4080000 		.4byte	.LASF130
 3143 07c9 08       		.byte	0x8
 3144 07ca 14       		.uleb128 0x14
 3145 07cb C2090000 		.4byte	.LASF131
 3146 07cf 09       		.byte	0x9
 3147 07d0 14       		.uleb128 0x14
 3148 07d1 770A0000 		.4byte	.LASF132
 3149 07d5 0A       		.byte	0xa
 3150 07d6 14       		.uleb128 0x14
ARM GAS  C:\Users\d3bug\AppData\Local\Temp\ccVxVFSv.s 			page 75


 3151 07d7 530C0000 		.4byte	.LASF133
 3152 07db 0B       		.byte	0xb
 3153 07dc 14       		.uleb128 0x14
 3154 07dd 15010000 		.4byte	.LASF134
 3155 07e1 0C       		.byte	0xc
 3156 07e2 14       		.uleb128 0x14
 3157 07e3 F9030000 		.4byte	.LASF135
 3158 07e7 0D       		.byte	0xd
 3159 07e8 14       		.uleb128 0x14
 3160 07e9 07030000 		.4byte	.LASF136
 3161 07ed 0E       		.byte	0xe
 3162 07ee 14       		.uleb128 0x14
 3163 07ef C7070000 		.4byte	.LASF137
 3164 07f3 0F       		.byte	0xf
 3165 07f4 14       		.uleb128 0x14
 3166 07f5 01050000 		.4byte	.LASF138
 3167 07f9 10       		.byte	0x10
 3168 07fa 14       		.uleb128 0x14
 3169 07fb A20D0000 		.4byte	.LASF139
 3170 07ff 11       		.byte	0x11
 3171 0800 14       		.uleb128 0x14
 3172 0801 A8020000 		.4byte	.LASF140
 3173 0805 12       		.byte	0x12
 3174 0806 14       		.uleb128 0x14
 3175 0807 A0090000 		.4byte	.LASF141
 3176 080b 13       		.byte	0x13
 3177 080c 14       		.uleb128 0x14
 3178 080d 3F090000 		.4byte	.LASF142
 3179 0811 14       		.byte	0x14
 3180 0812 00       		.byte	0
 3181 0813 04       		.uleb128 0x4
 3182 0814 B2070000 		.4byte	.LASF143
 3183 0818 0A       		.byte	0xa
 3184 0819 8F       		.byte	0x8f
 3185 081a 9E000000 		.4byte	0x9e
 3186 081e 0B       		.uleb128 0xb
 3187 081f 0C       		.byte	0xc
 3188 0820 0A       		.byte	0xa
 3189 0821 92       		.byte	0x92
 3190 0822 75080000 		.4byte	0x875
 3191 0826 0F       		.uleb128 0xf
 3192 0827 21030000 		.4byte	.LASF144
 3193 082b 0A       		.byte	0xa
 3194 082c 93       		.byte	0x93
 3195 082d 75080000 		.4byte	0x875
 3196 0831 00       		.byte	0
 3197 0832 0F       		.uleb128 0xf
 3198 0833 EF070000 		.4byte	.LASF145
 3199 0837 0A       		.byte	0xa
 3200 0838 94       		.byte	0x94
 3201 0839 47010000 		.4byte	0x147
 3202 083d 04       		.byte	0x4
 3203 083e 0F       		.uleb128 0xf
 3204 083f 00010000 		.4byte	.LASF146
 3205 0843 0A       		.byte	0xa
 3206 0844 95       		.byte	0x95
 3207 0845 47010000 		.4byte	0x147
ARM GAS  C:\Users\d3bug\AppData\Local\Temp\ccVxVFSv.s 			page 76


 3208 0849 06       		.byte	0x6
 3209 084a 0F       		.uleb128 0xf
 3210 084b 96080000 		.4byte	.LASF147
 3211 084f 0A       		.byte	0xa
 3212 0850 96       		.byte	0x96
 3213 0851 13080000 		.4byte	0x813
 3214 0855 08       		.byte	0x8
 3215 0856 0D       		.uleb128 0xd
 3216 0857 9F0C0000 		.4byte	.LASF148
 3217 085b 0A       		.byte	0xa
 3218 085c 97       		.byte	0x97
 3219 085d 9E000000 		.4byte	0x9e
 3220 0861 01       		.byte	0x1
 3221 0862 01       		.byte	0x1
 3222 0863 07       		.byte	0x7
 3223 0864 09       		.byte	0x9
 3224 0865 0D       		.uleb128 0xd
 3225 0866 25080000 		.4byte	.LASF149
 3226 086a 0A       		.byte	0xa
 3227 086b 98       		.byte	0x98
 3228 086c 9E000000 		.4byte	0x9e
 3229 0870 01       		.byte	0x1
 3230 0871 01       		.byte	0x1
 3231 0872 06       		.byte	0x6
 3232 0873 09       		.byte	0x9
 3233 0874 00       		.byte	0
 3234 0875 09       		.uleb128 0x9
 3235 0876 04       		.byte	0x4
 3236 0877 7B080000 		.4byte	0x87b
 3237 087b 0A       		.uleb128 0xa
 3238 087c 87050000 		.4byte	0x587
 3239 0880 04       		.uleb128 0x4
 3240 0881 950D0000 		.4byte	.LASF150
 3241 0885 0A       		.byte	0xa
 3242 0886 99       		.byte	0x99
 3243 0887 1E080000 		.4byte	0x81e
 3244 088b 09       		.uleb128 0x9
 3245 088c 04       		.byte	0x4
 3246 088d F1040000 		.4byte	0x4f1
 3247 0891 04       		.uleb128 0x4
 3248 0892 67020000 		.4byte	.LASF151
 3249 0896 0A       		.byte	0xa
 3250 0897 C4       		.byte	0xc4
 3251 0898 87050000 		.4byte	0x587
 3252 089c 13       		.uleb128 0x13
 3253 089d 01       		.byte	0x1
 3254 089e 53000000 		.4byte	0x53
 3255 08a2 0A       		.byte	0xa
 3256 08a3 CA       		.byte	0xca
 3257 08a4 D3080000 		.4byte	0x8d3
 3258 08a8 14       		.uleb128 0x14
 3259 08a9 E9030000 		.4byte	.LASF152
 3260 08ad 00       		.byte	0
 3261 08ae 14       		.uleb128 0x14
 3262 08af 6A080000 		.4byte	.LASF153
 3263 08b3 01       		.byte	0x1
 3264 08b4 14       		.uleb128 0x14
ARM GAS  C:\Users\d3bug\AppData\Local\Temp\ccVxVFSv.s 			page 77


 3265 08b5 0A090000 		.4byte	.LASF154
 3266 08b9 02       		.byte	0x2
 3267 08ba 14       		.uleb128 0x14
 3268 08bb 27020000 		.4byte	.LASF155
 3269 08bf 04       		.byte	0x4
 3270 08c0 14       		.uleb128 0x14
 3271 08c1 62000000 		.4byte	.LASF156
 3272 08c5 08       		.byte	0x8
 3273 08c6 14       		.uleb128 0x14
 3274 08c7 2E010000 		.4byte	.LASF157
 3275 08cb 10       		.byte	0x10
 3276 08cc 14       		.uleb128 0x14
 3277 08cd 46020000 		.4byte	.LASF158
 3278 08d1 20       		.byte	0x20
 3279 08d2 00       		.byte	0
 3280 08d3 0B       		.uleb128 0xb
 3281 08d4 20       		.byte	0x20
 3282 08d5 0A       		.byte	0xa
 3283 08d6 D7       		.byte	0xd7
 3284 08d7 E8080000 		.4byte	0x8e8
 3285 08db 0F       		.uleb128 0xf
 3286 08dc 020C0000 		.4byte	.LASF48
 3287 08e0 0A       		.byte	0xa
 3288 08e1 D8       		.byte	0xd8
 3289 08e2 E8080000 		.4byte	0x8e8
 3290 08e6 00       		.byte	0
 3291 08e7 00       		.byte	0
 3292 08e8 15       		.uleb128 0x15
 3293 08e9 3C010000 		.4byte	0x13c
 3294 08ed F8080000 		.4byte	0x8f8
 3295 08f1 16       		.uleb128 0x16
 3296 08f2 2C010000 		.4byte	0x12c
 3297 08f6 07       		.byte	0x7
 3298 08f7 00       		.byte	0
 3299 08f8 04       		.uleb128 0x4
 3300 08f9 1E0C0000 		.4byte	.LASF159
 3301 08fd 0A       		.byte	0xa
 3302 08fe D9       		.byte	0xd9
 3303 08ff D3080000 		.4byte	0x8d3
 3304 0903 13       		.uleb128 0x13
 3305 0904 01       		.byte	0x1
 3306 0905 53000000 		.4byte	0x53
 3307 0909 03       		.byte	0x3
 3308 090a 24       		.byte	0x24
 3309 090b 4C090000 		.4byte	0x94c
 3310 090f 14       		.uleb128 0x14
 3311 0910 B30A0000 		.4byte	.LASF160
 3312 0914 00       		.byte	0
 3313 0915 14       		.uleb128 0x14
 3314 0916 1B040000 		.4byte	.LASF161
 3315 091a 01       		.byte	0x1
 3316 091b 14       		.uleb128 0x14
 3317 091c 550E0000 		.4byte	.LASF162
 3318 0920 02       		.byte	0x2
 3319 0921 14       		.uleb128 0x14
 3320 0922 650E0000 		.4byte	.LASF163
 3321 0926 03       		.byte	0x3
ARM GAS  C:\Users\d3bug\AppData\Local\Temp\ccVxVFSv.s 			page 78


 3322 0927 14       		.uleb128 0x14
 3323 0928 870E0000 		.4byte	.LASF164
 3324 092c 04       		.byte	0x4
 3325 092d 14       		.uleb128 0x14
 3326 092e 71010000 		.4byte	.LASF165
 3327 0932 05       		.byte	0x5
 3328 0933 14       		.uleb128 0x14
 3329 0934 50010000 		.4byte	.LASF166
 3330 0938 06       		.byte	0x6
 3331 0939 14       		.uleb128 0x14
 3332 093a 05010000 		.4byte	.LASF167
 3333 093e 07       		.byte	0x7
 3334 093f 14       		.uleb128 0x14
 3335 0940 8B060000 		.4byte	.LASF168
 3336 0944 08       		.byte	0x8
 3337 0945 14       		.uleb128 0x14
 3338 0946 B40B0000 		.4byte	.LASF169
 3339 094a 09       		.byte	0x9
 3340 094b 00       		.byte	0
 3341 094c 04       		.uleb128 0x4
 3342 094d 44010000 		.4byte	.LASF170
 3343 0951 03       		.byte	0x3
 3344 0952 30       		.byte	0x30
 3345 0953 9E000000 		.4byte	0x9e
 3346 0957 0B       		.uleb128 0xb
 3347 0958 01       		.byte	0x1
 3348 0959 03       		.byte	0x3
 3349 095a 32       		.byte	0x32
 3350 095b 8D090000 		.4byte	0x98d
 3351 095f 0D       		.uleb128 0xd
 3352 0960 9E0A0000 		.4byte	.LASF171
 3353 0964 03       		.byte	0x3
 3354 0965 36       		.byte	0x36
 3355 0966 9E000000 		.4byte	0x9e
 3356 096a 01       		.byte	0x1
 3357 096b 04       		.byte	0x4
 3358 096c 04       		.byte	0x4
 3359 096d 00       		.byte	0
 3360 096e 0D       		.uleb128 0xd
 3361 096f 2E030000 		.4byte	.LASF172
 3362 0973 03       		.byte	0x3
 3363 0974 37       		.byte	0x37
 3364 0975 9E000000 		.4byte	0x9e
 3365 0979 01       		.byte	0x1
 3366 097a 01       		.byte	0x1
 3367 097b 03       		.byte	0x3
 3368 097c 00       		.byte	0
 3369 097d 0D       		.uleb128 0xd
 3370 097e 0F0E0000 		.4byte	.LASF173
 3371 0982 03       		.byte	0x3
 3372 0983 38       		.byte	0x38
 3373 0984 9E000000 		.4byte	0x9e
 3374 0988 01       		.byte	0x1
 3375 0989 01       		.byte	0x1
 3376 098a 02       		.byte	0x2
 3377 098b 00       		.byte	0
 3378 098c 00       		.byte	0
ARM GAS  C:\Users\d3bug\AppData\Local\Temp\ccVxVFSv.s 			page 79


 3379 098d 04       		.uleb128 0x4
 3380 098e A9080000 		.4byte	.LASF174
 3381 0992 03       		.byte	0x3
 3382 0993 39       		.byte	0x39
 3383 0994 57090000 		.4byte	0x957
 3384 0998 0B       		.uleb128 0xb
 3385 0999 14       		.byte	0x14
 3386 099a 0B       		.byte	0xb
 3387 099b 29       		.byte	0x29
 3388 099c DC090000 		.4byte	0x9dc
 3389 09a0 0C       		.uleb128 0xc
 3390 09a1 72656C00 		.ascii	"rel\000"
 3391 09a5 0B       		.byte	0xb
 3392 09a6 2A       		.byte	0x2a
 3393 09a7 8B080000 		.4byte	0x88b
 3394 09ab 00       		.byte	0
 3395 09ac 0C       		.uleb128 0xc
 3396 09ad 707200   		.ascii	"pr\000"
 3397 09b0 0B       		.byte	0xb
 3398 09b1 2B       		.byte	0x2b
 3399 09b2 8B080000 		.4byte	0x88b
 3400 09b6 04       		.byte	0x4
 3401 09b7 0F       		.uleb128 0xf
 3402 09b8 C4010000 		.4byte	.LASF175
 3403 09bc 0B       		.byte	0xb
 3404 09bd 2C       		.byte	0x2c
 3405 09be 8B080000 		.4byte	0x88b
 3406 09c2 08       		.byte	0x8
 3407 09c3 0F       		.uleb128 0xf
 3408 09c4 FA040000 		.4byte	.LASF176
 3409 09c8 0B       		.byte	0xb
 3410 09c9 2D       		.byte	0x2d
 3411 09ca 8B080000 		.4byte	0x88b
 3412 09ce 0C       		.byte	0xc
 3413 09cf 0C       		.uleb128 0xc
 3414 09d0 696E6100 		.ascii	"ina\000"
 3415 09d4 0B       		.byte	0xb
 3416 09d5 2E       		.byte	0x2e
 3417 09d6 8B080000 		.4byte	0x88b
 3418 09da 10       		.byte	0x10
 3419 09db 00       		.byte	0
 3420 09dc 0B       		.uleb128 0xb
 3421 09dd 0C       		.byte	0xc
 3422 09de 0B       		.byte	0xb
 3423 09df 3E       		.byte	0x3e
 3424 09e0 090A0000 		.4byte	0xa09
 3425 09e4 0F       		.uleb128 0xf
 3426 09e5 59090000 		.4byte	.LASF177
 3427 09e9 0B       		.byte	0xb
 3428 09ea 3F       		.byte	0x3f
 3429 09eb 8B080000 		.4byte	0x88b
 3430 09ef 00       		.byte	0
 3431 09f0 0C       		.uleb128 0xc
 3432 09f1 73656300 		.ascii	"sec\000"
 3433 09f5 0B       		.byte	0xb
 3434 09f6 40       		.byte	0x40
 3435 09f7 8B080000 		.4byte	0x88b
ARM GAS  C:\Users\d3bug\AppData\Local\Temp\ccVxVFSv.s 			page 80


 3436 09fb 04       		.byte	0x4
 3437 09fc 0F       		.uleb128 0xf
 3438 09fd 20080000 		.4byte	.LASF178
 3439 0a01 0B       		.byte	0xb
 3440 0a02 41       		.byte	0x41
 3441 0a03 8B080000 		.4byte	0x88b
 3442 0a07 08       		.byte	0x8
 3443 0a08 00       		.byte	0
 3444 0a09 0B       		.uleb128 0xb
 3445 0a0a 2C       		.byte	0x2c
 3446 0a0b 0B       		.byte	0xb
 3447 0a0c 20       		.byte	0x20
 3448 0a0d 4D0A0000 		.4byte	0xa4d
 3449 0a11 0C       		.uleb128 0xc
 3450 0a12 626700   		.ascii	"bg\000"
 3451 0a15 0B       		.byte	0xb
 3452 0a16 21       		.byte	0x21
 3453 0a17 8B080000 		.4byte	0x88b
 3454 0a1b 00       		.byte	0
 3455 0a1c 0F       		.uleb128 0xf
 3456 0a1d 6A0C0000 		.4byte	.LASF179
 3457 0a21 0B       		.byte	0xb
 3458 0a22 22       		.byte	0x22
 3459 0a23 8B080000 		.4byte	0x88b
 3460 0a27 04       		.byte	0x4
 3461 0a28 0F       		.uleb128 0xf
 3462 0a29 8C000000 		.4byte	.LASF180
 3463 0a2d 0B       		.byte	0xb
 3464 0a2e 25       		.byte	0x25
 3465 0a2f 8B080000 		.4byte	0x88b
 3466 0a33 08       		.byte	0x8
 3467 0a34 0C       		.uleb128 0xc
 3468 0a35 62746E00 		.ascii	"btn\000"
 3469 0a39 0B       		.byte	0xb
 3470 0a3a 2F       		.byte	0x2f
 3471 0a3b 98090000 		.4byte	0x998
 3472 0a3f 0C       		.byte	0xc
 3473 0a40 0F       		.uleb128 0xf
 3474 0a41 C30C0000 		.4byte	.LASF181
 3475 0a45 0B       		.byte	0xb
 3476 0a46 42       		.byte	0x42
 3477 0a47 DC090000 		.4byte	0x9dc
 3478 0a4b 20       		.byte	0x20
 3479 0a4c 00       		.byte	0
 3480 0a4d 17       		.uleb128 0x17
 3481 0a4e F60D0000 		.4byte	.LASF182
 3482 0a52 0B       		.byte	0xb
 3483 0a53 2401     		.2byte	0x124
 3484 0a55 090A0000 		.4byte	0xa09
 3485 0a59 18       		.uleb128 0x18
 3486 0a5a 5A0D0000 		.4byte	.LASF184
 3487 0a5e 02       		.byte	0x2
 3488 0a5f 41       		.byte	0x41
 3489 0a60 03       		.byte	0x3
 3490 0a61 7C0A0000 		.4byte	0xa7c
 3491 0a65 19       		.uleb128 0x19
 3492 0a66 500E0000 		.4byte	.LASF183
ARM GAS  C:\Users\d3bug\AppData\Local\Temp\ccVxVFSv.s 			page 81


 3493 0a6a 02       		.byte	0x2
 3494 0a6b 41       		.byte	0x41
 3495 0a6c 7C0A0000 		.4byte	0xa7c
 3496 0a70 1A       		.uleb128 0x1a
 3497 0a71 73726300 		.ascii	"src\000"
 3498 0a75 02       		.byte	0x2
 3499 0a76 41       		.byte	0x41
 3500 0a77 99060000 		.4byte	0x699
 3501 0a7b 00       		.byte	0
 3502 0a7c 09       		.uleb128 0x9
 3503 0a7d 04       		.byte	0x4
 3504 0a7e 87010000 		.4byte	0x187
 3505 0a82 18       		.uleb128 0x18
 3506 0a83 A6030000 		.4byte	.LASF185
 3507 0a87 03       		.byte	0x3
 3508 0a88 62       		.byte	0x62
 3509 0a89 03       		.byte	0x3
 3510 0a8a A50A0000 		.4byte	0xaa5
 3511 0a8e 19       		.uleb128 0x19
 3512 0a8f 8C000000 		.4byte	.LASF180
 3513 0a93 03       		.byte	0x3
 3514 0a94 62       		.byte	0x62
 3515 0a95 A50A0000 		.4byte	0xaa5
 3516 0a99 19       		.uleb128 0x19
 3517 0a9a 19000000 		.4byte	.LASF186
 3518 0a9e 03       		.byte	0x3
 3519 0a9f 62       		.byte	0x62
 3520 0aa0 8B080000 		.4byte	0x88b
 3521 0aa4 00       		.byte	0
 3522 0aa5 09       		.uleb128 0x9
 3523 0aa6 04       		.byte	0x4
 3524 0aa7 91080000 		.4byte	0x891
 3525 0aab 1B       		.uleb128 0x1b
 3526 0aac DD070000 		.4byte	.LASF188
 3527 0ab0 02       		.byte	0x2
 3528 0ab1 4B       		.byte	0x4b
 3529 0ab2 47010000 		.4byte	0x147
 3530 0ab6 03       		.byte	0x3
 3531 0ab7 C70A0000 		.4byte	0xac7
 3532 0abb 19       		.uleb128 0x19
 3533 0abc 78090000 		.4byte	.LASF187
 3534 0ac0 02       		.byte	0x2
 3535 0ac1 4B       		.byte	0x4b
 3536 0ac2 99060000 		.4byte	0x699
 3537 0ac6 00       		.byte	0
 3538 0ac7 1B       		.uleb128 0x1b
 3539 0ac8 95020000 		.4byte	.LASF189
 3540 0acc 02       		.byte	0x2
 3541 0acd 55       		.byte	0x55
 3542 0ace 47010000 		.4byte	0x147
 3543 0ad2 03       		.byte	0x3
 3544 0ad3 E30A0000 		.4byte	0xae3
 3545 0ad7 19       		.uleb128 0x19
 3546 0ad8 78090000 		.4byte	.LASF187
 3547 0adc 02       		.byte	0x2
 3548 0add 55       		.byte	0x55
 3549 0ade 99060000 		.4byte	0x699
ARM GAS  C:\Users\d3bug\AppData\Local\Temp\ccVxVFSv.s 			page 82


 3550 0ae2 00       		.byte	0
 3551 0ae3 1B       		.uleb128 0x1b
 3552 0ae4 E4060000 		.4byte	.LASF190
 3553 0ae8 03       		.byte	0x3
 3554 0ae9 94       		.byte	0x94
 3555 0aea 8B080000 		.4byte	0x88b
 3556 0aee 03       		.byte	0x3
 3557 0aef FF0A0000 		.4byte	0xaff
 3558 0af3 19       		.uleb128 0x19
 3559 0af4 8C000000 		.4byte	.LASF180
 3560 0af8 03       		.byte	0x3
 3561 0af9 94       		.byte	0x94
 3562 0afa FF0A0000 		.4byte	0xaff
 3563 0afe 00       		.byte	0
 3564 0aff 09       		.uleb128 0x9
 3565 0b00 04       		.byte	0x4
 3566 0b01 050B0000 		.4byte	0xb05
 3567 0b05 0A       		.uleb128 0xa
 3568 0b06 91080000 		.4byte	0x891
 3569 0b0a 1C       		.uleb128 0x1c
 3570 0b0b E4050000 		.4byte	.LASF195
 3571 0b0f 01       		.byte	0x1
 3572 0b10 8501     		.2byte	0x185
 3573 0b12 00000000 		.4byte	.LFB26
 3574 0b16 DA000000 		.4byte	.LFE26-.LFB26
 3575 0b1a 01       		.uleb128 0x1
 3576 0b1b 9C       		.byte	0x9c
 3577 0b1c D90C0000 		.4byte	0xcd9
 3578 0b20 1D       		.uleb128 0x1d
 3579 0b21 8C000000 		.4byte	.LASF180
 3580 0b25 01       		.byte	0x1
 3581 0b26 8501     		.2byte	0x185
 3582 0b28 A50A0000 		.4byte	0xaa5
 3583 0b2c 00000000 		.4byte	.LLST0
 3584 0b30 1E       		.uleb128 0x1e
 3585 0b31 6A050000 		.4byte	.LASF191
 3586 0b35 01       		.byte	0x1
 3587 0b36 8701     		.2byte	0x187
 3588 0b38 A50A0000 		.4byte	0xaa5
 3589 0b3c 1E000000 		.4byte	.LLST1
 3590 0b40 1E       		.uleb128 0x1e
 3591 0b41 19000000 		.4byte	.LASF186
 3592 0b45 01       		.byte	0x1
 3593 0b46 8801     		.2byte	0x188
 3594 0b48 8B080000 		.4byte	0x88b
 3595 0b4c 7E000000 		.4byte	.LLST2
 3596 0b50 1E       		.uleb128 0x1e
 3597 0b51 D30D0000 		.4byte	.LASF192
 3598 0b55 01       		.byte	0x1
 3599 0b56 8901     		.2byte	0x189
 3600 0b58 BF000000 		.4byte	0xbf
 3601 0b5c 9C000000 		.4byte	.LLST3
 3602 0b60 1E       		.uleb128 0x1e
 3603 0b61 01030000 		.4byte	.LASF193
 3604 0b65 01       		.byte	0x1
 3605 0b66 8A01     		.2byte	0x18a
 3606 0b68 47010000 		.4byte	0x147
ARM GAS  C:\Users\d3bug\AppData\Local\Temp\ccVxVFSv.s 			page 83


 3607 0b6c BB000000 		.4byte	.LLST4
 3608 0b70 1E       		.uleb128 0x1e
 3609 0b71 5D020000 		.4byte	.LASF194
 3610 0b75 01       		.byte	0x1
 3611 0b76 9C01     		.2byte	0x19c
 3612 0b78 47010000 		.4byte	0x147
 3613 0b7c F0000000 		.4byte	.LLST5
 3614 0b80 1F       		.uleb128 0x1f
 3615 0b81 0C000000 		.4byte	.LVL1
 3616 0b85 351F0000 		.4byte	0x1f35
 3617 0b89 940B0000 		.4byte	0xb94
 3618 0b8d 20       		.uleb128 0x20
 3619 0b8e 01       		.uleb128 0x1
 3620 0b8f 50       		.byte	0x50
 3621 0b90 02       		.uleb128 0x2
 3622 0b91 77       		.byte	0x77
 3623 0b92 00       		.sleb128 0
 3624 0b93 00       		.byte	0
 3625 0b94 1F       		.uleb128 0x1f
 3626 0b95 16000000 		.4byte	.LVL4
 3627 0b99 411F0000 		.4byte	0x1f41
 3628 0b9d A80B0000 		.4byte	0xba8
 3629 0ba1 20       		.uleb128 0x20
 3630 0ba2 01       		.uleb128 0x1
 3631 0ba3 50       		.byte	0x50
 3632 0ba4 02       		.uleb128 0x2
 3633 0ba5 75       		.byte	0x75
 3634 0ba6 00       		.sleb128 0
 3635 0ba7 00       		.byte	0
 3636 0ba8 1F       		.uleb128 0x1f
 3637 0ba9 24000000 		.4byte	.LVL8
 3638 0bad 4C1F0000 		.4byte	0x1f4c
 3639 0bb1 BC0B0000 		.4byte	0xbbc
 3640 0bb5 20       		.uleb128 0x20
 3641 0bb6 01       		.uleb128 0x1
 3642 0bb7 50       		.byte	0x50
 3643 0bb8 02       		.uleb128 0x2
 3644 0bb9 74       		.byte	0x74
 3645 0bba 00       		.sleb128 0
 3646 0bbb 00       		.byte	0
 3647 0bbc 1F       		.uleb128 0x1f
 3648 0bbd 2E000000 		.4byte	.LVL9
 3649 0bc1 581F0000 		.4byte	0x1f58
 3650 0bc5 D50B0000 		.4byte	0xbd5
 3651 0bc9 20       		.uleb128 0x20
 3652 0bca 01       		.uleb128 0x1
 3653 0bcb 50       		.byte	0x50
 3654 0bcc 02       		.uleb128 0x2
 3655 0bcd 74       		.byte	0x74
 3656 0bce 00       		.sleb128 0
 3657 0bcf 20       		.uleb128 0x20
 3658 0bd0 01       		.uleb128 0x1
 3659 0bd1 51       		.byte	0x51
 3660 0bd2 01       		.uleb128 0x1
 3661 0bd3 34       		.byte	0x34
 3662 0bd4 00       		.byte	0
 3663 0bd5 1F       		.uleb128 0x1f
ARM GAS  C:\Users\d3bug\AppData\Local\Temp\ccVxVFSv.s 			page 84


 3664 0bd6 36000000 		.4byte	.LVL10
 3665 0bda 641F0000 		.4byte	0x1f64
 3666 0bde E90B0000 		.4byte	0xbe9
 3667 0be2 20       		.uleb128 0x20
 3668 0be3 01       		.uleb128 0x1
 3669 0be4 50       		.byte	0x50
 3670 0be5 02       		.uleb128 0x2
 3671 0be6 74       		.byte	0x74
 3672 0be7 00       		.sleb128 0
 3673 0be8 00       		.byte	0
 3674 0be9 1F       		.uleb128 0x1f
 3675 0bea 4C000000 		.4byte	.LVL14
 3676 0bee 701F0000 		.4byte	0x1f70
 3677 0bf2 030C0000 		.4byte	0xc03
 3678 0bf6 20       		.uleb128 0x20
 3679 0bf7 01       		.uleb128 0x1
 3680 0bf8 50       		.byte	0x50
 3681 0bf9 02       		.uleb128 0x2
 3682 0bfa 75       		.byte	0x75
 3683 0bfb 00       		.sleb128 0
 3684 0bfc 20       		.uleb128 0x20
 3685 0bfd 01       		.uleb128 0x1
 3686 0bfe 51       		.byte	0x51
 3687 0bff 02       		.uleb128 0x2
 3688 0c00 74       		.byte	0x74
 3689 0c01 00       		.sleb128 0
 3690 0c02 00       		.byte	0
 3691 0c03 1F       		.uleb128 0x1f
 3692 0c04 68000000 		.4byte	.LVL19
 3693 0c08 7B1F0000 		.4byte	0x1f7b
 3694 0c0c 1C0C0000 		.4byte	0xc1c
 3695 0c10 20       		.uleb128 0x20
 3696 0c11 01       		.uleb128 0x1
 3697 0c12 50       		.byte	0x50
 3698 0c13 02       		.uleb128 0x2
 3699 0c14 77       		.byte	0x77
 3700 0c15 00       		.sleb128 0
 3701 0c16 20       		.uleb128 0x20
 3702 0c17 01       		.uleb128 0x1
 3703 0c18 51       		.byte	0x51
 3704 0c19 01       		.uleb128 0x1
 3705 0c1a 31       		.byte	0x31
 3706 0c1b 00       		.byte	0
 3707 0c1c 1F       		.uleb128 0x1f
 3708 0c1d 78000000 		.4byte	.LVL22
 3709 0c21 871F0000 		.4byte	0x1f87
 3710 0c25 300C0000 		.4byte	0xc30
 3711 0c29 20       		.uleb128 0x20
 3712 0c2a 01       		.uleb128 0x1
 3713 0c2b 50       		.byte	0x50
 3714 0c2c 02       		.uleb128 0x2
 3715 0c2d 75       		.byte	0x75
 3716 0c2e 00       		.sleb128 0
 3717 0c2f 00       		.byte	0
 3718 0c30 1F       		.uleb128 0x1f
 3719 0c31 82000000 		.4byte	.LVL25
 3720 0c35 4C1F0000 		.4byte	0x1f4c
ARM GAS  C:\Users\d3bug\AppData\Local\Temp\ccVxVFSv.s 			page 85


 3721 0c39 440C0000 		.4byte	0xc44
 3722 0c3d 20       		.uleb128 0x20
 3723 0c3e 01       		.uleb128 0x1
 3724 0c3f 50       		.byte	0x50
 3725 0c40 02       		.uleb128 0x2
 3726 0c41 74       		.byte	0x74
 3727 0c42 00       		.sleb128 0
 3728 0c43 00       		.byte	0
 3729 0c44 1F       		.uleb128 0x1f
 3730 0c45 8C000000 		.4byte	.LVL26
 3731 0c49 581F0000 		.4byte	0x1f58
 3732 0c4d 5D0C0000 		.4byte	0xc5d
 3733 0c51 20       		.uleb128 0x20
 3734 0c52 01       		.uleb128 0x1
 3735 0c53 50       		.byte	0x50
 3736 0c54 02       		.uleb128 0x2
 3737 0c55 74       		.byte	0x74
 3738 0c56 00       		.sleb128 0
 3739 0c57 20       		.uleb128 0x20
 3740 0c58 01       		.uleb128 0x1
 3741 0c59 51       		.byte	0x51
 3742 0c5a 01       		.uleb128 0x1
 3743 0c5b 34       		.byte	0x34
 3744 0c5c 00       		.byte	0
 3745 0c5d 1F       		.uleb128 0x1f
 3746 0c5e 94000000 		.4byte	.LVL27
 3747 0c62 641F0000 		.4byte	0x1f64
 3748 0c66 710C0000 		.4byte	0xc71
 3749 0c6a 20       		.uleb128 0x20
 3750 0c6b 01       		.uleb128 0x1
 3751 0c6c 50       		.byte	0x50
 3752 0c6d 02       		.uleb128 0x2
 3753 0c6e 74       		.byte	0x74
 3754 0c6f 00       		.sleb128 0
 3755 0c70 00       		.byte	0
 3756 0c71 1F       		.uleb128 0x1f
 3757 0c72 AE000000 		.4byte	.LVL28
 3758 0c76 921F0000 		.4byte	0x1f92
 3759 0c7a 950C0000 		.4byte	0xc95
 3760 0c7e 20       		.uleb128 0x20
 3761 0c7f 01       		.uleb128 0x1
 3762 0c80 50       		.byte	0x50
 3763 0c81 02       		.uleb128 0x2
 3764 0c82 74       		.byte	0x74
 3765 0c83 00       		.sleb128 0
 3766 0c84 20       		.uleb128 0x20
 3767 0c85 01       		.uleb128 0x1
 3768 0c86 51       		.byte	0x51
 3769 0c87 02       		.uleb128 0x2
 3770 0c88 77       		.byte	0x77
 3771 0c89 00       		.sleb128 0
 3772 0c8a 20       		.uleb128 0x20
 3773 0c8b 01       		.uleb128 0x1
 3774 0c8c 52       		.byte	0x52
 3775 0c8d 01       		.uleb128 0x1
 3776 0c8e 30       		.byte	0x30
 3777 0c8f 20       		.uleb128 0x20
ARM GAS  C:\Users\d3bug\AppData\Local\Temp\ccVxVFSv.s 			page 86


 3778 0c90 01       		.uleb128 0x1
 3779 0c91 53       		.byte	0x53
 3780 0c92 01       		.uleb128 0x1
 3781 0c93 30       		.byte	0x30
 3782 0c94 00       		.byte	0
 3783 0c95 1F       		.uleb128 0x1f
 3784 0c96 B4000000 		.4byte	.LVL29
 3785 0c9a 641F0000 		.4byte	0x1f64
 3786 0c9e A90C0000 		.4byte	0xca9
 3787 0ca2 20       		.uleb128 0x20
 3788 0ca3 01       		.uleb128 0x1
 3789 0ca4 50       		.byte	0x50
 3790 0ca5 02       		.uleb128 0x2
 3791 0ca6 74       		.byte	0x74
 3792 0ca7 00       		.sleb128 0
 3793 0ca8 00       		.byte	0
 3794 0ca9 1F       		.uleb128 0x1f
 3795 0caa C6000000 		.4byte	.LVL32
 3796 0cae 9E1F0000 		.4byte	0x1f9e
 3797 0cb2 C30C0000 		.4byte	0xcc3
 3798 0cb6 20       		.uleb128 0x20
 3799 0cb7 01       		.uleb128 0x1
 3800 0cb8 50       		.byte	0x50
 3801 0cb9 02       		.uleb128 0x2
 3802 0cba 75       		.byte	0x75
 3803 0cbb 00       		.sleb128 0
 3804 0cbc 20       		.uleb128 0x20
 3805 0cbd 01       		.uleb128 0x1
 3806 0cbe 51       		.byte	0x51
 3807 0cbf 02       		.uleb128 0x2
 3808 0cc0 74       		.byte	0x74
 3809 0cc1 00       		.sleb128 0
 3810 0cc2 00       		.byte	0
 3811 0cc3 21       		.uleb128 0x21
 3812 0cc4 D4000000 		.4byte	.LVL35
 3813 0cc8 A91F0000 		.4byte	0x1fa9
 3814 0ccc 20       		.uleb128 0x20
 3815 0ccd 01       		.uleb128 0x1
 3816 0cce 50       		.byte	0x50
 3817 0ccf 02       		.uleb128 0x2
 3818 0cd0 77       		.byte	0x77
 3819 0cd1 00       		.sleb128 0
 3820 0cd2 20       		.uleb128 0x20
 3821 0cd3 01       		.uleb128 0x1
 3822 0cd4 51       		.byte	0x51
 3823 0cd5 01       		.uleb128 0x1
 3824 0cd6 31       		.byte	0x31
 3825 0cd7 00       		.byte	0
 3826 0cd8 00       		.byte	0
 3827 0cd9 1C       		.uleb128 0x1c
 3828 0cda 40080000 		.4byte	.LASF196
 3829 0cde 01       		.byte	0x1
 3830 0cdf AD01     		.2byte	0x1ad
 3831 0ce1 00000000 		.4byte	.LFB27
 3832 0ce5 14020000 		.4byte	.LFE27-.LFB27
 3833 0ce9 01       		.uleb128 0x1
 3834 0cea 9C       		.byte	0x9c
ARM GAS  C:\Users\d3bug\AppData\Local\Temp\ccVxVFSv.s 			page 87


 3835 0ceb 0B110000 		.4byte	0x110b
 3836 0cef 1D       		.uleb128 0x1d
 3837 0cf0 8C000000 		.4byte	.LASF180
 3838 0cf4 01       		.byte	0x1
 3839 0cf5 AD01     		.2byte	0x1ad
 3840 0cf7 A50A0000 		.4byte	0xaa5
 3841 0cfb 0E010000 		.4byte	.LLST6
 3842 0cff 1E       		.uleb128 0x1e
 3843 0d00 A50A0000 		.4byte	.LASF197
 3844 0d04 01       		.byte	0x1
 3845 0d05 AF01     		.2byte	0x1af
 3846 0d07 A50A0000 		.4byte	0xaa5
 3847 0d0b 44010000 		.4byte	.LLST7
 3848 0d0f 1E       		.uleb128 0x1e
 3849 0d10 57030000 		.4byte	.LASF198
 3850 0d14 01       		.byte	0x1
 3851 0d15 B001     		.2byte	0x1b0
 3852 0d17 A50A0000 		.4byte	0xaa5
 3853 0d1b 78010000 		.4byte	.LLST8
 3854 0d1f 1E       		.uleb128 0x1e
 3855 0d20 B7050000 		.4byte	.LASF199
 3856 0d24 01       		.byte	0x1
 3857 0d25 B101     		.2byte	0x1b1
 3858 0d27 A50A0000 		.4byte	0xaa5
 3859 0d2b CD010000 		.4byte	.LLST9
 3860 0d2f 1E       		.uleb128 0x1e
 3861 0d30 19000000 		.4byte	.LASF186
 3862 0d34 01       		.byte	0x1
 3863 0d35 B201     		.2byte	0x1b2
 3864 0d37 8B080000 		.4byte	0x88b
 3865 0d3b E0010000 		.4byte	.LLST10
 3866 0d3f 1E       		.uleb128 0x1e
 3867 0d40 030B0000 		.4byte	.LASF200
 3868 0d44 01       		.byte	0x1
 3869 0d45 B301     		.2byte	0x1b3
 3870 0d47 47010000 		.4byte	0x147
 3871 0d4b FE010000 		.4byte	.LLST11
 3872 0d4f 1E       		.uleb128 0x1e
 3873 0d50 2F0B0000 		.4byte	.LASF201
 3874 0d54 01       		.byte	0x1
 3875 0d55 B401     		.2byte	0x1b4
 3876 0d57 47010000 		.4byte	0x147
 3877 0d5b 11020000 		.4byte	.LLST12
 3878 0d5f 22       		.uleb128 0x22
 3879 0d60 3A000000 		.4byte	.LBB20
 3880 0d64 C2010000 		.4byte	.LBE20-.LBB20
 3881 0d68 9F100000 		.4byte	0x109f
 3882 0d6c 1E       		.uleb128 0x1e
 3883 0d6d 5E090000 		.4byte	.LASF202
 3884 0d71 01       		.byte	0x1
 3885 0d72 BF01     		.2byte	0x1bf
 3886 0d74 47010000 		.4byte	0x147
 3887 0d78 31020000 		.4byte	.LLST13
 3888 0d7c 1E       		.uleb128 0x1e
 3889 0d7d 650B0000 		.4byte	.LASF203
 3890 0d81 01       		.byte	0x1
 3891 0d82 C001     		.2byte	0x1c0
ARM GAS  C:\Users\d3bug\AppData\Local\Temp\ccVxVFSv.s 			page 88


 3892 0d84 47010000 		.4byte	0x147
 3893 0d88 50020000 		.4byte	.LLST14
 3894 0d8c 1E       		.uleb128 0x1e
 3895 0d8d D30D0000 		.4byte	.LASF192
 3896 0d91 01       		.byte	0x1
 3897 0d92 C101     		.2byte	0x1c1
 3898 0d94 BF000000 		.4byte	0xbf
 3899 0d98 9A020000 		.4byte	.LLST15
 3900 0d9c 22       		.uleb128 0x22
 3901 0d9d F2000000 		.4byte	.LBB21
 3902 0da1 7C000000 		.4byte	.LBE21-.LBB21
 3903 0da5 8F0E0000 		.4byte	0xe8f
 3904 0da9 1E       		.uleb128 0x1e
 3905 0daa 54070000 		.4byte	.LASF204
 3906 0dae 01       		.byte	0x1
 3907 0daf E601     		.2byte	0x1e6
 3908 0db1 A50A0000 		.4byte	0xaa5
 3909 0db5 D1020000 		.4byte	.LLST16
 3910 0db9 1E       		.uleb128 0x1e
 3911 0dba 59070000 		.4byte	.LASF205
 3912 0dbe 01       		.byte	0x1
 3913 0dbf E701     		.2byte	0x1e7
 3914 0dc1 A50A0000 		.4byte	0xaa5
 3915 0dc5 E4020000 		.4byte	.LLST17
 3916 0dc9 23       		.uleb128 0x23
 3917 0dca 70616400 		.ascii	"pad\000"
 3918 0dce 01       		.byte	0x1
 3919 0dcf E901     		.2byte	0x1e9
 3920 0dd1 47010000 		.4byte	0x147
 3921 0dd5 0E030000 		.4byte	.LLST18
 3922 0dd9 1F       		.uleb128 0x1f
 3923 0dda FA000000 		.4byte	.LVL72
 3924 0dde 9E1F0000 		.4byte	0x1f9e
 3925 0de2 F30D0000 		.4byte	0xdf3
 3926 0de6 20       		.uleb128 0x20
 3927 0de7 01       		.uleb128 0x1
 3928 0de8 50       		.byte	0x50
 3929 0de9 02       		.uleb128 0x2
 3930 0dea 78       		.byte	0x78
 3931 0deb 00       		.sleb128 0
 3932 0dec 20       		.uleb128 0x20
 3933 0ded 01       		.uleb128 0x1
 3934 0dee 51       		.byte	0x51
 3935 0def 02       		.uleb128 0x2
 3936 0df0 77       		.byte	0x77
 3937 0df1 00       		.sleb128 0
 3938 0df2 00       		.byte	0
 3939 0df3 1F       		.uleb128 0x1f
 3940 0df4 02010000 		.4byte	.LVL75
 3941 0df8 B51F0000 		.4byte	0x1fb5
 3942 0dfc 070E0000 		.4byte	0xe07
 3943 0e00 20       		.uleb128 0x20
 3944 0e01 01       		.uleb128 0x1
 3945 0e02 50       		.byte	0x50
 3946 0e03 02       		.uleb128 0x2
 3947 0e04 77       		.byte	0x77
 3948 0e05 00       		.sleb128 0
ARM GAS  C:\Users\d3bug\AppData\Local\Temp\ccVxVFSv.s 			page 89


 3949 0e06 00       		.byte	0
 3950 0e07 1F       		.uleb128 0x1f
 3951 0e08 0C010000 		.4byte	.LVL77
 3952 0e0c B51F0000 		.4byte	0x1fb5
 3953 0e10 1B0E0000 		.4byte	0xe1b
 3954 0e14 20       		.uleb128 0x20
 3955 0e15 01       		.uleb128 0x1
 3956 0e16 50       		.byte	0x50
 3957 0e17 02       		.uleb128 0x2
 3958 0e18 76       		.byte	0x76
 3959 0e19 00       		.sleb128 0
 3960 0e1a 00       		.byte	0
 3961 0e1b 1F       		.uleb128 0x1f
 3962 0e1c 28010000 		.4byte	.LVL83
 3963 0e20 641F0000 		.4byte	0x1f64
 3964 0e24 2F0E0000 		.4byte	0xe2f
 3965 0e28 20       		.uleb128 0x20
 3966 0e29 01       		.uleb128 0x1
 3967 0e2a 50       		.byte	0x50
 3968 0e2b 02       		.uleb128 0x2
 3969 0e2c 77       		.byte	0x77
 3970 0e2d 00       		.sleb128 0
 3971 0e2e 00       		.byte	0
 3972 0e2f 1F       		.uleb128 0x1f
 3973 0e30 48010000 		.4byte	.LVL84
 3974 0e34 921F0000 		.4byte	0x1f92
 3975 0e38 570E0000 		.4byte	0xe57
 3976 0e3c 20       		.uleb128 0x20
 3977 0e3d 01       		.uleb128 0x1
 3978 0e3e 50       		.byte	0x50
 3979 0e3f 02       		.uleb128 0x2
 3980 0e40 77       		.byte	0x77
 3981 0e41 00       		.sleb128 0
 3982 0e42 20       		.uleb128 0x20
 3983 0e43 01       		.uleb128 0x1
 3984 0e44 51       		.byte	0x51
 3985 0e45 03       		.uleb128 0x3
 3986 0e46 91       		.byte	0x91
 3987 0e47 4C       		.sleb128 -52
 3988 0e48 06       		.byte	0x6
 3989 0e49 20       		.uleb128 0x20
 3990 0e4a 01       		.uleb128 0x1
 3991 0e4b 52       		.byte	0x52
 3992 0e4c 01       		.uleb128 0x1
 3993 0e4d 31       		.byte	0x31
 3994 0e4e 20       		.uleb128 0x20
 3995 0e4f 01       		.uleb128 0x1
 3996 0e50 53       		.byte	0x53
 3997 0e51 04       		.uleb128 0x4
 3998 0e52 91       		.byte	0x91
 3999 0e53 54       		.sleb128 -44
 4000 0e54 94       		.byte	0x94
 4001 0e55 02       		.byte	0x2
 4002 0e56 00       		.byte	0
 4003 0e57 1F       		.uleb128 0x1f
 4004 0e58 50010000 		.4byte	.LVL86
 4005 0e5c 641F0000 		.4byte	0x1f64
ARM GAS  C:\Users\d3bug\AppData\Local\Temp\ccVxVFSv.s 			page 90


 4006 0e60 6B0E0000 		.4byte	0xe6b
 4007 0e64 20       		.uleb128 0x20
 4008 0e65 01       		.uleb128 0x1
 4009 0e66 50       		.byte	0x50
 4010 0e67 02       		.uleb128 0x2
 4011 0e68 77       		.byte	0x77
 4012 0e69 00       		.sleb128 0
 4013 0e6a 00       		.byte	0
 4014 0e6b 21       		.uleb128 0x21
 4015 0e6c 6E010000 		.4byte	.LVL87
 4016 0e70 921F0000 		.4byte	0x1f92
 4017 0e74 20       		.uleb128 0x20
 4018 0e75 01       		.uleb128 0x1
 4019 0e76 50       		.byte	0x50
 4020 0e77 02       		.uleb128 0x2
 4021 0e78 77       		.byte	0x77
 4022 0e79 00       		.sleb128 0
 4023 0e7a 20       		.uleb128 0x20
 4024 0e7b 01       		.uleb128 0x1
 4025 0e7c 51       		.byte	0x51
 4026 0e7d 03       		.uleb128 0x3
 4027 0e7e 91       		.byte	0x91
 4028 0e7f 4C       		.sleb128 -52
 4029 0e80 06       		.byte	0x6
 4030 0e81 20       		.uleb128 0x20
 4031 0e82 01       		.uleb128 0x1
 4032 0e83 52       		.byte	0x52
 4033 0e84 01       		.uleb128 0x1
 4034 0e85 33       		.byte	0x33
 4035 0e86 20       		.uleb128 0x20
 4036 0e87 01       		.uleb128 0x1
 4037 0e88 53       		.byte	0x53
 4038 0e89 03       		.uleb128 0x3
 4039 0e8a 76       		.byte	0x76
 4040 0e8b 00       		.sleb128 0
 4041 0e8c 1F       		.byte	0x1f
 4042 0e8d 00       		.byte	0
 4043 0e8e 00       		.byte	0
 4044 0e8f 22       		.uleb128 0x22
 4045 0e90 70010000 		.4byte	.LBB22
 4046 0e94 70000000 		.4byte	.LBE22-.LBB22
 4047 0e98 4E0F0000 		.4byte	0xf4e
 4048 0e9c 1E       		.uleb128 0x1e
 4049 0e9d 1C090000 		.4byte	.LASF206
 4050 0ea1 01       		.byte	0x1
 4051 0ea2 F001     		.2byte	0x1f0
 4052 0ea4 47010000 		.4byte	0x147
 4053 0ea8 22030000 		.4byte	.LLST19
 4054 0eac 1E       		.uleb128 0x1e
 4055 0ead 85090000 		.4byte	.LASF207
 4056 0eb1 01       		.byte	0x1
 4057 0eb2 F101     		.2byte	0x1f1
 4058 0eb4 47010000 		.4byte	0x147
 4059 0eb8 35030000 		.4byte	.LLST20
 4060 0ebc 1F       		.uleb128 0x1f
 4061 0ebd 92010000 		.4byte	.LVL97
 4062 0ec1 4C1F0000 		.4byte	0x1f4c
ARM GAS  C:\Users\d3bug\AppData\Local\Temp\ccVxVFSv.s 			page 91


 4063 0ec5 D00E0000 		.4byte	0xed0
 4064 0ec9 20       		.uleb128 0x20
 4065 0eca 01       		.uleb128 0x1
 4066 0ecb 50       		.byte	0x50
 4067 0ecc 02       		.uleb128 0x2
 4068 0ecd 77       		.byte	0x77
 4069 0ece 00       		.sleb128 0
 4070 0ecf 00       		.byte	0
 4071 0ed0 1F       		.uleb128 0x1f
 4072 0ed1 9C010000 		.4byte	.LVL98
 4073 0ed5 581F0000 		.4byte	0x1f58
 4074 0ed9 E90E0000 		.4byte	0xee9
 4075 0edd 20       		.uleb128 0x20
 4076 0ede 01       		.uleb128 0x1
 4077 0edf 50       		.byte	0x50
 4078 0ee0 02       		.uleb128 0x2
 4079 0ee1 77       		.byte	0x77
 4080 0ee2 00       		.sleb128 0
 4081 0ee3 20       		.uleb128 0x20
 4082 0ee4 01       		.uleb128 0x1
 4083 0ee5 51       		.byte	0x51
 4084 0ee6 01       		.uleb128 0x1
 4085 0ee7 34       		.byte	0x34
 4086 0ee8 00       		.byte	0
 4087 0ee9 1F       		.uleb128 0x1f
 4088 0eea A4010000 		.4byte	.LVL99
 4089 0eee 641F0000 		.4byte	0x1f64
 4090 0ef2 FD0E0000 		.4byte	0xefd
 4091 0ef6 20       		.uleb128 0x20
 4092 0ef7 01       		.uleb128 0x1
 4093 0ef8 50       		.byte	0x50
 4094 0ef9 02       		.uleb128 0x2
 4095 0efa 77       		.byte	0x77
 4096 0efb 00       		.sleb128 0
 4097 0efc 00       		.byte	0
 4098 0efd 1F       		.uleb128 0x1f
 4099 0efe C2010000 		.4byte	.LVL100
 4100 0f02 921F0000 		.4byte	0x1f92
 4101 0f06 230F0000 		.4byte	0xf23
 4102 0f0a 20       		.uleb128 0x20
 4103 0f0b 01       		.uleb128 0x1
 4104 0f0c 50       		.byte	0x50
 4105 0f0d 02       		.uleb128 0x2
 4106 0f0e 77       		.byte	0x77
 4107 0f0f 00       		.sleb128 0
 4108 0f10 20       		.uleb128 0x20
 4109 0f11 01       		.uleb128 0x1
 4110 0f12 51       		.byte	0x51
 4111 0f13 03       		.uleb128 0x3
 4112 0f14 91       		.byte	0x91
 4113 0f15 4C       		.sleb128 -52
 4114 0f16 06       		.byte	0x6
 4115 0f17 20       		.uleb128 0x20
 4116 0f18 01       		.uleb128 0x1
 4117 0f19 52       		.byte	0x52
 4118 0f1a 01       		.uleb128 0x1
 4119 0f1b 31       		.byte	0x31
ARM GAS  C:\Users\d3bug\AppData\Local\Temp\ccVxVFSv.s 			page 92


 4120 0f1c 20       		.uleb128 0x20
 4121 0f1d 01       		.uleb128 0x1
 4122 0f1e 53       		.byte	0x53
 4123 0f1f 02       		.uleb128 0x2
 4124 0f20 75       		.byte	0x75
 4125 0f21 00       		.sleb128 0
 4126 0f22 00       		.byte	0
 4127 0f23 1F       		.uleb128 0x1f
 4128 0f24 C8010000 		.4byte	.LVL101
 4129 0f28 B51F0000 		.4byte	0x1fb5
 4130 0f2c 370F0000 		.4byte	0xf37
 4131 0f30 20       		.uleb128 0x20
 4132 0f31 01       		.uleb128 0x1
 4133 0f32 50       		.byte	0x50
 4134 0f33 02       		.uleb128 0x2
 4135 0f34 77       		.byte	0x77
 4136 0f35 00       		.sleb128 0
 4137 0f36 00       		.byte	0
 4138 0f37 21       		.uleb128 0x21
 4139 0f38 DA010000 		.4byte	.LVL104
 4140 0f3c 9E1F0000 		.4byte	0x1f9e
 4141 0f40 20       		.uleb128 0x20
 4142 0f41 01       		.uleb128 0x1
 4143 0f42 50       		.byte	0x50
 4144 0f43 02       		.uleb128 0x2
 4145 0f44 78       		.byte	0x78
 4146 0f45 00       		.sleb128 0
 4147 0f46 20       		.uleb128 0x20
 4148 0f47 01       		.uleb128 0x1
 4149 0f48 51       		.byte	0x51
 4150 0f49 02       		.uleb128 0x2
 4151 0f4a 77       		.byte	0x77
 4152 0f4b 00       		.sleb128 0
 4153 0f4c 00       		.byte	0
 4154 0f4d 00       		.byte	0
 4155 0f4e 1F       		.uleb128 0x1f
 4156 0f4f 4E000000 		.4byte	.LVL49
 4157 0f53 4C1F0000 		.4byte	0x1f4c
 4158 0f57 620F0000 		.4byte	0xf62
 4159 0f5b 20       		.uleb128 0x20
 4160 0f5c 01       		.uleb128 0x1
 4161 0f5d 50       		.byte	0x50
 4162 0f5e 02       		.uleb128 0x2
 4163 0f5f 74       		.byte	0x74
 4164 0f60 00       		.sleb128 0
 4165 0f61 00       		.byte	0
 4166 0f62 1F       		.uleb128 0x1f
 4167 0f63 58000000 		.4byte	.LVL50
 4168 0f67 581F0000 		.4byte	0x1f58
 4169 0f6b 7B0F0000 		.4byte	0xf7b
 4170 0f6f 20       		.uleb128 0x20
 4171 0f70 01       		.uleb128 0x1
 4172 0f71 50       		.byte	0x50
 4173 0f72 02       		.uleb128 0x2
 4174 0f73 74       		.byte	0x74
 4175 0f74 00       		.sleb128 0
 4176 0f75 20       		.uleb128 0x20
ARM GAS  C:\Users\d3bug\AppData\Local\Temp\ccVxVFSv.s 			page 93


 4177 0f76 01       		.uleb128 0x1
 4178 0f77 51       		.byte	0x51
 4179 0f78 01       		.uleb128 0x1
 4180 0f79 34       		.byte	0x34
 4181 0f7a 00       		.byte	0
 4182 0f7b 1F       		.uleb128 0x1f
 4183 0f7c 60000000 		.4byte	.LVL51
 4184 0f80 B51F0000 		.4byte	0x1fb5
 4185 0f84 8F0F0000 		.4byte	0xf8f
 4186 0f88 20       		.uleb128 0x20
 4187 0f89 01       		.uleb128 0x1
 4188 0f8a 50       		.byte	0x50
 4189 0f8b 02       		.uleb128 0x2
 4190 0f8c 74       		.byte	0x74
 4191 0f8d 00       		.sleb128 0
 4192 0f8e 00       		.byte	0
 4193 0f8f 1F       		.uleb128 0x1f
 4194 0f90 72000000 		.4byte	.LVL52
 4195 0f94 701F0000 		.4byte	0x1f70
 4196 0f98 A90F0000 		.4byte	0xfa9
 4197 0f9c 20       		.uleb128 0x20
 4198 0f9d 01       		.uleb128 0x1
 4199 0f9e 50       		.byte	0x50
 4200 0f9f 02       		.uleb128 0x2
 4201 0fa0 78       		.byte	0x78
 4202 0fa1 00       		.sleb128 0
 4203 0fa2 20       		.uleb128 0x20
 4204 0fa3 01       		.uleb128 0x1
 4205 0fa4 51       		.byte	0x51
 4206 0fa5 02       		.uleb128 0x2
 4207 0fa6 74       		.byte	0x74
 4208 0fa7 00       		.sleb128 0
 4209 0fa8 00       		.byte	0
 4210 0fa9 1F       		.uleb128 0x1f
 4211 0faa 7C000000 		.4byte	.LVL55
 4212 0fae B51F0000 		.4byte	0x1fb5
 4213 0fb2 BD0F0000 		.4byte	0xfbd
 4214 0fb6 20       		.uleb128 0x20
 4215 0fb7 01       		.uleb128 0x1
 4216 0fb8 50       		.byte	0x50
 4217 0fb9 02       		.uleb128 0x2
 4218 0fba 74       		.byte	0x74
 4219 0fbb 00       		.sleb128 0
 4220 0fbc 00       		.byte	0
 4221 0fbd 1F       		.uleb128 0x1f
 4222 0fbe 8C000000 		.4byte	.LVL58
 4223 0fc2 641F0000 		.4byte	0x1f64
 4224 0fc6 D10F0000 		.4byte	0xfd1
 4225 0fca 20       		.uleb128 0x20
 4226 0fcb 01       		.uleb128 0x1
 4227 0fcc 50       		.byte	0x50
 4228 0fcd 02       		.uleb128 0x2
 4229 0fce 74       		.byte	0x74
 4230 0fcf 00       		.sleb128 0
 4231 0fd0 00       		.byte	0
 4232 0fd1 1F       		.uleb128 0x1f
 4233 0fd2 96000000 		.4byte	.LVL59
ARM GAS  C:\Users\d3bug\AppData\Local\Temp\ccVxVFSv.s 			page 94


 4234 0fd6 641F0000 		.4byte	0x1f64
 4235 0fda E50F0000 		.4byte	0xfe5
 4236 0fde 20       		.uleb128 0x20
 4237 0fdf 01       		.uleb128 0x1
 4238 0fe0 50       		.byte	0x50
 4239 0fe1 02       		.uleb128 0x2
 4240 0fe2 74       		.byte	0x74
 4241 0fe3 00       		.sleb128 0
 4242 0fe4 00       		.byte	0
 4243 0fe5 1F       		.uleb128 0x1f
 4244 0fe6 A2000000 		.4byte	.LVL62
 4245 0fea 581F0000 		.4byte	0x1f58
 4246 0fee FE0F0000 		.4byte	0xffe
 4247 0ff2 20       		.uleb128 0x20
 4248 0ff3 01       		.uleb128 0x1
 4249 0ff4 50       		.byte	0x50
 4250 0ff5 02       		.uleb128 0x2
 4251 0ff6 74       		.byte	0x74
 4252 0ff7 00       		.sleb128 0
 4253 0ff8 20       		.uleb128 0x20
 4254 0ff9 01       		.uleb128 0x1
 4255 0ffa 51       		.byte	0x51
 4256 0ffb 01       		.uleb128 0x1
 4257 0ffc 38       		.byte	0x38
 4258 0ffd 00       		.byte	0
 4259 0ffe 1F       		.uleb128 0x1f
 4260 0fff AC000000 		.4byte	.LVL63
 4261 1003 9E1F0000 		.4byte	0x1f9e
 4262 1007 18100000 		.4byte	0x1018
 4263 100b 20       		.uleb128 0x20
 4264 100c 01       		.uleb128 0x1
 4265 100d 50       		.byte	0x50
 4266 100e 02       		.uleb128 0x2
 4267 100f 78       		.byte	0x78
 4268 1010 00       		.sleb128 0
 4269 1011 20       		.uleb128 0x20
 4270 1012 01       		.uleb128 0x1
 4271 1013 51       		.byte	0x51
 4272 1014 02       		.uleb128 0x2
 4273 1015 74       		.byte	0x74
 4274 1016 00       		.sleb128 0
 4275 1017 00       		.byte	0
 4276 1018 1F       		.uleb128 0x1f
 4277 1019 CE000000 		.4byte	.LVL67
 4278 101d 921F0000 		.4byte	0x1f92
 4279 1021 46100000 		.4byte	0x1046
 4280 1025 20       		.uleb128 0x20
 4281 1026 01       		.uleb128 0x1
 4282 1027 50       		.byte	0x50
 4283 1028 02       		.uleb128 0x2
 4284 1029 74       		.byte	0x74
 4285 102a 00       		.sleb128 0
 4286 102b 20       		.uleb128 0x20
 4287 102c 01       		.uleb128 0x1
 4288 102d 51       		.byte	0x51
 4289 102e 03       		.uleb128 0x3
 4290 102f 91       		.byte	0x91
ARM GAS  C:\Users\d3bug\AppData\Local\Temp\ccVxVFSv.s 			page 95


 4291 1030 4C       		.sleb128 -52
 4292 1031 06       		.byte	0x6
 4293 1032 20       		.uleb128 0x20
 4294 1033 01       		.uleb128 0x1
 4295 1034 52       		.byte	0x52
 4296 1035 01       		.uleb128 0x1
 4297 1036 32       		.byte	0x32
 4298 1037 20       		.uleb128 0x20
 4299 1038 01       		.uleb128 0x1
 4300 1039 53       		.byte	0x53
 4301 103a 01       		.uleb128 0x1
 4302 103b 30       		.byte	0x30
 4303 103c 20       		.uleb128 0x20
 4304 103d 02       		.uleb128 0x2
 4305 103e 7D       		.byte	0x7d
 4306 103f 00       		.sleb128 0
 4307 1040 04       		.uleb128 0x4
 4308 1041 91       		.byte	0x91
 4309 1042 48       		.sleb128 -56
 4310 1043 94       		.byte	0x94
 4311 1044 02       		.byte	0x2
 4312 1045 00       		.byte	0
 4313 1046 1F       		.uleb128 0x1f
 4314 1047 D4000000 		.4byte	.LVL68
 4315 104b 641F0000 		.4byte	0x1f64
 4316 104f 5A100000 		.4byte	0x105a
 4317 1053 20       		.uleb128 0x20
 4318 1054 01       		.uleb128 0x1
 4319 1055 50       		.byte	0x50
 4320 1056 02       		.uleb128 0x2
 4321 1057 74       		.byte	0x74
 4322 1058 00       		.sleb128 0
 4323 1059 00       		.byte	0
 4324 105a 1F       		.uleb128 0x1f
 4325 105b EC000000 		.4byte	.LVL70
 4326 105f 921F0000 		.4byte	0x1f92
 4327 1063 88100000 		.4byte	0x1088
 4328 1067 20       		.uleb128 0x20
 4329 1068 01       		.uleb128 0x1
 4330 1069 50       		.byte	0x50
 4331 106a 02       		.uleb128 0x2
 4332 106b 77       		.byte	0x77
 4333 106c 00       		.sleb128 0
 4334 106d 20       		.uleb128 0x20
 4335 106e 01       		.uleb128 0x1
 4336 106f 51       		.byte	0x51
 4337 1070 03       		.uleb128 0x3
 4338 1071 91       		.byte	0x91
 4339 1072 4C       		.sleb128 -52
 4340 1073 06       		.byte	0x6
 4341 1074 20       		.uleb128 0x20
 4342 1075 01       		.uleb128 0x1
 4343 1076 52       		.byte	0x52
 4344 1077 01       		.uleb128 0x1
 4345 1078 32       		.byte	0x32
 4346 1079 20       		.uleb128 0x20
 4347 107a 01       		.uleb128 0x1
ARM GAS  C:\Users\d3bug\AppData\Local\Temp\ccVxVFSv.s 			page 96


 4348 107b 53       		.byte	0x53
 4349 107c 01       		.uleb128 0x1
 4350 107d 30       		.byte	0x30
 4351 107e 20       		.uleb128 0x20
 4352 107f 02       		.uleb128 0x2
 4353 1080 7D       		.byte	0x7d
 4354 1081 00       		.sleb128 0
 4355 1082 04       		.uleb128 0x4
 4356 1083 91       		.byte	0x91
 4357 1084 48       		.sleb128 -56
 4358 1085 94       		.byte	0x94
 4359 1086 02       		.byte	0x2
 4360 1087 00       		.byte	0
 4361 1088 21       		.uleb128 0x21
 4362 1089 FA010000 		.4byte	.LVL109
 4363 108d 9E1F0000 		.4byte	0x1f9e
 4364 1091 20       		.uleb128 0x20
 4365 1092 01       		.uleb128 0x1
 4366 1093 50       		.byte	0x50
 4367 1094 02       		.uleb128 0x2
 4368 1095 78       		.byte	0x78
 4369 1096 00       		.sleb128 0
 4370 1097 20       		.uleb128 0x20
 4371 1098 01       		.uleb128 0x1
 4372 1099 51       		.byte	0x51
 4373 109a 02       		.uleb128 0x2
 4374 109b 74       		.byte	0x74
 4375 109c 00       		.sleb128 0
 4376 109d 00       		.byte	0
 4377 109e 00       		.byte	0
 4378 109f 1F       		.uleb128 0x1f
 4379 10a0 0E000000 		.4byte	.LVL37
 4380 10a4 351F0000 		.4byte	0x1f35
 4381 10a8 B3100000 		.4byte	0x10b3
 4382 10ac 20       		.uleb128 0x20
 4383 10ad 01       		.uleb128 0x1
 4384 10ae 50       		.byte	0x50
 4385 10af 02       		.uleb128 0x2
 4386 10b0 74       		.byte	0x74
 4387 10b1 00       		.sleb128 0
 4388 10b2 00       		.byte	0
 4389 10b3 1F       		.uleb128 0x1f
 4390 10b4 16000000 		.4byte	.LVL40
 4391 10b8 B51F0000 		.4byte	0x1fb5
 4392 10bc C7100000 		.4byte	0x10c7
 4393 10c0 20       		.uleb128 0x20
 4394 10c1 01       		.uleb128 0x1
 4395 10c2 50       		.byte	0x50
 4396 10c3 02       		.uleb128 0x2
 4397 10c4 74       		.byte	0x74
 4398 10c5 00       		.sleb128 0
 4399 10c6 00       		.byte	0
 4400 10c7 1F       		.uleb128 0x1f
 4401 10c8 28000000 		.4byte	.LVL43
 4402 10cc 871F0000 		.4byte	0x1f87
 4403 10d0 DB100000 		.4byte	0x10db
 4404 10d4 20       		.uleb128 0x20
ARM GAS  C:\Users\d3bug\AppData\Local\Temp\ccVxVFSv.s 			page 97


 4405 10d5 01       		.uleb128 0x1
 4406 10d6 50       		.byte	0x50
 4407 10d7 02       		.uleb128 0x2
 4408 10d8 78       		.byte	0x78
 4409 10d9 00       		.sleb128 0
 4410 10da 00       		.byte	0
 4411 10db 1F       		.uleb128 0x1f
 4412 10dc 38000000 		.4byte	.LVL45
 4413 10e0 7B1F0000 		.4byte	0x1f7b
 4414 10e4 F4100000 		.4byte	0x10f4
 4415 10e8 20       		.uleb128 0x20
 4416 10e9 01       		.uleb128 0x1
 4417 10ea 50       		.byte	0x50
 4418 10eb 02       		.uleb128 0x2
 4419 10ec 74       		.byte	0x74
 4420 10ed 00       		.sleb128 0
 4421 10ee 20       		.uleb128 0x20
 4422 10ef 01       		.uleb128 0x1
 4423 10f0 51       		.byte	0x51
 4424 10f1 01       		.uleb128 0x1
 4425 10f2 31       		.byte	0x31
 4426 10f3 00       		.byte	0
 4427 10f4 21       		.uleb128 0x21
 4428 10f5 0A020000 		.4byte	.LVL112
 4429 10f9 A91F0000 		.4byte	0x1fa9
 4430 10fd 20       		.uleb128 0x20
 4431 10fe 01       		.uleb128 0x1
 4432 10ff 50       		.byte	0x50
 4433 1100 03       		.uleb128 0x3
 4434 1101 91       		.byte	0x91
 4435 1102 4C       		.sleb128 -52
 4436 1103 06       		.byte	0x6
 4437 1104 20       		.uleb128 0x20
 4438 1105 01       		.uleb128 0x1
 4439 1106 51       		.byte	0x51
 4440 1107 01       		.uleb128 0x1
 4441 1108 31       		.byte	0x31
 4442 1109 00       		.byte	0
 4443 110a 00       		.byte	0
 4444 110b 1C       		.uleb128 0x1c
 4445 110c 2C040000 		.4byte	.LASF208
 4446 1110 01       		.byte	0x1
 4447 1111 0B02     		.2byte	0x20b
 4448 1113 00000000 		.4byte	.LFB28
 4449 1117 FE000000 		.4byte	.LFE28-.LFB28
 4450 111b 01       		.uleb128 0x1
 4451 111c 9C       		.byte	0x9c
 4452 111d 15130000 		.4byte	0x1315
 4453 1121 1D       		.uleb128 0x1d
 4454 1122 8C000000 		.4byte	.LASF180
 4455 1126 01       		.byte	0x1
 4456 1127 0B02     		.2byte	0x20b
 4457 1129 A50A0000 		.4byte	0xaa5
 4458 112d 53030000 		.4byte	.LLST21
 4459 1131 1E       		.uleb128 0x1e
 4460 1132 6A050000 		.4byte	.LASF191
 4461 1136 01       		.byte	0x1
ARM GAS  C:\Users\d3bug\AppData\Local\Temp\ccVxVFSv.s 			page 98


 4462 1137 0D02     		.2byte	0x20d
 4463 1139 A50A0000 		.4byte	0xaa5
 4464 113d 89030000 		.4byte	.LLST22
 4465 1141 1E       		.uleb128 0x1e
 4466 1142 19000000 		.4byte	.LASF186
 4467 1146 01       		.byte	0x1
 4468 1147 0E02     		.2byte	0x20e
 4469 1149 8B080000 		.4byte	0x88b
 4470 114d BD030000 		.4byte	.LLST23
 4471 1151 1E       		.uleb128 0x1e
 4472 1152 EE080000 		.4byte	.LASF209
 4473 1156 01       		.byte	0x1
 4474 1157 0F02     		.2byte	0x20f
 4475 1159 47010000 		.4byte	0x147
 4476 115d DB030000 		.4byte	.LLST24
 4477 1161 1E       		.uleb128 0x1e
 4478 1162 030B0000 		.4byte	.LASF200
 4479 1166 01       		.byte	0x1
 4480 1167 1002     		.2byte	0x210
 4481 1169 47010000 		.4byte	0x147
 4482 116d EE030000 		.4byte	.LLST25
 4483 1171 1E       		.uleb128 0x1e
 4484 1172 AC0C0000 		.4byte	.LASF210
 4485 1176 01       		.byte	0x1
 4486 1177 1102     		.2byte	0x211
 4487 1179 47010000 		.4byte	0x147
 4488 117d 01040000 		.4byte	.LLST26
 4489 1181 24       		.uleb128 0x24
 4490 1182 EA010000 		.4byte	.LASF211
 4491 1186 01       		.byte	0x1
 4492 1187 1202     		.2byte	0x212
 4493 1189 B4000000 		.4byte	0xb4
 4494 118d 01       		.uleb128 0x1
 4495 118e 5B       		.byte	0x5b
 4496 118f 1E       		.uleb128 0x1e
 4497 1190 E3090000 		.4byte	.LASF212
 4498 1194 01       		.byte	0x1
 4499 1195 1302     		.2byte	0x213
 4500 1197 47010000 		.4byte	0x147
 4501 119b 14040000 		.4byte	.LLST27
 4502 119f 24       		.uleb128 0x24
 4503 11a0 E5000000 		.4byte	.LASF213
 4504 11a4 01       		.byte	0x1
 4505 11a5 1902     		.2byte	0x219
 4506 11a7 47010000 		.4byte	0x147
 4507 11ab 02       		.uleb128 0x2
 4508 11ac 91       		.byte	0x91
 4509 11ad 54       		.sleb128 -44
 4510 11ae 1E       		.uleb128 0x1e
 4511 11af 85090000 		.4byte	.LASF207
 4512 11b3 01       		.byte	0x1
 4513 11b4 2002     		.2byte	0x220
 4514 11b6 47010000 		.4byte	0x147
 4515 11ba 32040000 		.4byte	.LLST28
 4516 11be 1E       		.uleb128 0x1e
 4517 11bf 2F0B0000 		.4byte	.LASF201
 4518 11c3 01       		.byte	0x1
ARM GAS  C:\Users\d3bug\AppData\Local\Temp\ccVxVFSv.s 			page 99


 4519 11c4 2102     		.2byte	0x221
 4520 11c6 47010000 		.4byte	0x147
 4521 11ca 50040000 		.4byte	.LLST29
 4522 11ce 1E       		.uleb128 0x1e
 4523 11cf AF050000 		.4byte	.LASF214
 4524 11d3 01       		.byte	0x1
 4525 11d4 2202     		.2byte	0x222
 4526 11d6 B4000000 		.4byte	0xb4
 4527 11da 6E040000 		.4byte	.LLST30
 4528 11de 1F       		.uleb128 0x1f
 4529 11df 0E000000 		.4byte	.LVL115
 4530 11e3 351F0000 		.4byte	0x1f35
 4531 11e7 F2110000 		.4byte	0x11f2
 4532 11eb 20       		.uleb128 0x20
 4533 11ec 01       		.uleb128 0x1
 4534 11ed 50       		.byte	0x50
 4535 11ee 02       		.uleb128 0x2
 4536 11ef 76       		.byte	0x76
 4537 11f0 00       		.sleb128 0
 4538 11f1 00       		.byte	0
 4539 11f2 1F       		.uleb128 0x1f
 4540 11f3 16000000 		.4byte	.LVL118
 4541 11f7 B51F0000 		.4byte	0x1fb5
 4542 11fb 06120000 		.4byte	0x1206
 4543 11ff 20       		.uleb128 0x20
 4544 1200 01       		.uleb128 0x1
 4545 1201 50       		.byte	0x50
 4546 1202 02       		.uleb128 0x2
 4547 1203 76       		.byte	0x76
 4548 1204 00       		.sleb128 0
 4549 1205 00       		.byte	0
 4550 1206 1F       		.uleb128 0x1f
 4551 1207 20000000 		.4byte	.LVL120
 4552 120b C11F0000 		.4byte	0x1fc1
 4553 120f 1F120000 		.4byte	0x121f
 4554 1213 20       		.uleb128 0x20
 4555 1214 01       		.uleb128 0x1
 4556 1215 50       		.byte	0x50
 4557 1216 02       		.uleb128 0x2
 4558 1217 76       		.byte	0x76
 4559 1218 00       		.sleb128 0
 4560 1219 20       		.uleb128 0x20
 4561 121a 01       		.uleb128 0x1
 4562 121b 51       		.byte	0x51
 4563 121c 01       		.uleb128 0x1
 4564 121d 30       		.byte	0x30
 4565 121e 00       		.byte	0
 4566 121f 25       		.uleb128 0x25
 4567 1220 24000000 		.4byte	.LVL121
 4568 1224 B51F0000 		.4byte	0x1fb5
 4569 1228 1F       		.uleb128 0x1f
 4570 1229 2E000000 		.4byte	.LVL123
 4571 122d C11F0000 		.4byte	0x1fc1
 4572 1231 41120000 		.4byte	0x1241
 4573 1235 20       		.uleb128 0x20
 4574 1236 01       		.uleb128 0x1
 4575 1237 50       		.byte	0x50
ARM GAS  C:\Users\d3bug\AppData\Local\Temp\ccVxVFSv.s 			page 100


 4576 1238 02       		.uleb128 0x2
 4577 1239 76       		.byte	0x76
 4578 123a 00       		.sleb128 0
 4579 123b 20       		.uleb128 0x20
 4580 123c 01       		.uleb128 0x1
 4581 123d 51       		.byte	0x51
 4582 123e 01       		.uleb128 0x1
 4583 123f 30       		.byte	0x30
 4584 1240 00       		.byte	0
 4585 1241 25       		.uleb128 0x25
 4586 1242 32000000 		.4byte	.LVL124
 4587 1246 641F0000 		.4byte	0x1f64
 4588 124a 1F       		.uleb128 0x1f
 4589 124b 84000000 		.4byte	.LVL133
 4590 124f 7B1F0000 		.4byte	0x1f7b
 4591 1253 63120000 		.4byte	0x1263
 4592 1257 20       		.uleb128 0x20
 4593 1258 01       		.uleb128 0x1
 4594 1259 50       		.byte	0x50
 4595 125a 02       		.uleb128 0x2
 4596 125b 74       		.byte	0x74
 4597 125c 00       		.sleb128 0
 4598 125d 20       		.uleb128 0x20
 4599 125e 01       		.uleb128 0x1
 4600 125f 51       		.byte	0x51
 4601 1260 01       		.uleb128 0x1
 4602 1261 31       		.byte	0x31
 4603 1262 00       		.byte	0
 4604 1263 1F       		.uleb128 0x1f
 4605 1264 94000000 		.4byte	.LVL136
 4606 1268 871F0000 		.4byte	0x1f87
 4607 126c 77120000 		.4byte	0x1277
 4608 1270 20       		.uleb128 0x20
 4609 1271 01       		.uleb128 0x1
 4610 1272 50       		.byte	0x50
 4611 1273 02       		.uleb128 0x2
 4612 1274 75       		.byte	0x75
 4613 1275 00       		.sleb128 0
 4614 1276 00       		.byte	0
 4615 1277 1F       		.uleb128 0x1f
 4616 1278 A0000000 		.4byte	.LVL141
 4617 127c 4C1F0000 		.4byte	0x1f4c
 4618 1280 8B120000 		.4byte	0x128b
 4619 1284 20       		.uleb128 0x20
 4620 1285 01       		.uleb128 0x1
 4621 1286 50       		.byte	0x50
 4622 1287 02       		.uleb128 0x2
 4623 1288 74       		.byte	0x74
 4624 1289 00       		.sleb128 0
 4625 128a 00       		.byte	0
 4626 128b 1F       		.uleb128 0x1f
 4627 128c AA000000 		.4byte	.LVL142
 4628 1290 581F0000 		.4byte	0x1f58
 4629 1294 A4120000 		.4byte	0x12a4
 4630 1298 20       		.uleb128 0x20
 4631 1299 01       		.uleb128 0x1
 4632 129a 50       		.byte	0x50
ARM GAS  C:\Users\d3bug\AppData\Local\Temp\ccVxVFSv.s 			page 101


 4633 129b 02       		.uleb128 0x2
 4634 129c 74       		.byte	0x74
 4635 129d 00       		.sleb128 0
 4636 129e 20       		.uleb128 0x20
 4637 129f 01       		.uleb128 0x1
 4638 12a0 51       		.byte	0x51
 4639 12a1 01       		.uleb128 0x1
 4640 12a2 34       		.byte	0x34
 4641 12a3 00       		.byte	0
 4642 12a4 1F       		.uleb128 0x1f
 4643 12a5 BC000000 		.4byte	.LVL143
 4644 12a9 CD1F0000 		.4byte	0x1fcd
 4645 12ad C4120000 		.4byte	0x12c4
 4646 12b1 20       		.uleb128 0x20
 4647 12b2 01       		.uleb128 0x1
 4648 12b3 50       		.byte	0x50
 4649 12b4 02       		.uleb128 0x2
 4650 12b5 74       		.byte	0x74
 4651 12b6 00       		.sleb128 0
 4652 12b7 20       		.uleb128 0x20
 4653 12b8 01       		.uleb128 0x1
 4654 12b9 51       		.byte	0x51
 4655 12ba 02       		.uleb128 0x2
 4656 12bb 77       		.byte	0x77
 4657 12bc 00       		.sleb128 0
 4658 12bd 20       		.uleb128 0x20
 4659 12be 01       		.uleb128 0x1
 4660 12bf 52       		.byte	0x52
 4661 12c0 02       		.uleb128 0x2
 4662 12c1 7A       		.byte	0x7a
 4663 12c2 00       		.sleb128 0
 4664 12c3 00       		.byte	0
 4665 12c4 1F       		.uleb128 0x1f
 4666 12c5 CC000000 		.4byte	.LVL146
 4667 12c9 CD1F0000 		.4byte	0x1fcd
 4668 12cd E4120000 		.4byte	0x12e4
 4669 12d1 20       		.uleb128 0x20
 4670 12d2 01       		.uleb128 0x1
 4671 12d3 50       		.byte	0x50
 4672 12d4 02       		.uleb128 0x2
 4673 12d5 74       		.byte	0x74
 4674 12d6 00       		.sleb128 0
 4675 12d7 20       		.uleb128 0x20
 4676 12d8 01       		.uleb128 0x1
 4677 12d9 51       		.byte	0x51
 4678 12da 02       		.uleb128 0x2
 4679 12db 78       		.byte	0x78
 4680 12dc 00       		.sleb128 0
 4681 12dd 20       		.uleb128 0x20
 4682 12de 01       		.uleb128 0x1
 4683 12df 52       		.byte	0x52
 4684 12e0 02       		.uleb128 0x2
 4685 12e1 7A       		.byte	0x7a
 4686 12e2 00       		.sleb128 0
 4687 12e3 00       		.byte	0
 4688 12e4 1F       		.uleb128 0x1f
 4689 12e5 EA000000 		.4byte	.LVL154
ARM GAS  C:\Users\d3bug\AppData\Local\Temp\ccVxVFSv.s 			page 102


 4690 12e9 9E1F0000 		.4byte	0x1f9e
 4691 12ed FE120000 		.4byte	0x12fe
 4692 12f1 20       		.uleb128 0x20
 4693 12f2 01       		.uleb128 0x1
 4694 12f3 50       		.byte	0x50
 4695 12f4 02       		.uleb128 0x2
 4696 12f5 75       		.byte	0x75
 4697 12f6 00       		.sleb128 0
 4698 12f7 20       		.uleb128 0x20
 4699 12f8 01       		.uleb128 0x1
 4700 12f9 51       		.byte	0x51
 4701 12fa 02       		.uleb128 0x2
 4702 12fb 74       		.byte	0x74
 4703 12fc 00       		.sleb128 0
 4704 12fd 00       		.byte	0
 4705 12fe 21       		.uleb128 0x21
 4706 12ff F8000000 		.4byte	.LVL157
 4707 1303 A91F0000 		.4byte	0x1fa9
 4708 1307 20       		.uleb128 0x20
 4709 1308 01       		.uleb128 0x1
 4710 1309 50       		.byte	0x50
 4711 130a 03       		.uleb128 0x3
 4712 130b 7D       		.byte	0x7d
 4713 130c 00       		.sleb128 0
 4714 130d 06       		.byte	0x6
 4715 130e 20       		.uleb128 0x20
 4716 130f 01       		.uleb128 0x1
 4717 1310 51       		.byte	0x51
 4718 1311 01       		.uleb128 0x1
 4719 1312 31       		.byte	0x31
 4720 1313 00       		.byte	0
 4721 1314 00       		.byte	0
 4722 1315 1C       		.uleb128 0x1c
 4723 1316 80050000 		.4byte	.LASF215
 4724 131a 01       		.byte	0x1
 4725 131b 3D02     		.2byte	0x23d
 4726 131d 00000000 		.4byte	.LFB29
 4727 1321 8A010000 		.4byte	.LFE29-.LFB29
 4728 1325 01       		.uleb128 0x1
 4729 1326 9C       		.byte	0x9c
 4730 1327 EF140000 		.4byte	0x14ef
 4731 132b 1D       		.uleb128 0x1d
 4732 132c 8C000000 		.4byte	.LASF180
 4733 1330 01       		.byte	0x1
 4734 1331 3D02     		.2byte	0x23d
 4735 1333 A50A0000 		.4byte	0xaa5
 4736 1337 AF040000 		.4byte	.LLST31
 4737 133b 23       		.uleb128 0x23
 4738 133c 65787400 		.ascii	"ext\000"
 4739 1340 01       		.byte	0x1
 4740 1341 3F02     		.2byte	0x23f
 4741 1343 EF140000 		.4byte	0x14ef
 4742 1347 CD040000 		.4byte	.LLST32
 4743 134b 24       		.uleb128 0x24
 4744 134c 16080000 		.4byte	.LASF216
 4745 1350 01       		.byte	0x1
 4746 1351 4602     		.2byte	0x246
ARM GAS  C:\Users\d3bug\AppData\Local\Temp\ccVxVFSv.s 			page 103


 4747 1353 87010000 		.4byte	0x187
 4748 1357 02       		.uleb128 0x2
 4749 1358 91       		.byte	0x91
 4750 1359 58       		.sleb128 -40
 4751 135a 26       		.uleb128 0x26
 4752 135b 6F726900 		.ascii	"ori\000"
 4753 135f 01       		.byte	0x1
 4754 1360 4702     		.2byte	0x247
 4755 1362 87010000 		.4byte	0x187
 4756 1366 02       		.uleb128 0x2
 4757 1367 91       		.byte	0x91
 4758 1368 50       		.sleb128 -48
 4759 1369 1E       		.uleb128 0x1e
 4760 136a 19000000 		.4byte	.LASF186
 4761 136e 01       		.byte	0x1
 4762 136f 4802     		.2byte	0x248
 4763 1371 8B080000 		.4byte	0x88b
 4764 1375 EB040000 		.4byte	.LLST33
 4765 1379 23       		.uleb128 0x23
 4766 137a 6900     		.ascii	"i\000"
 4767 137c 01       		.byte	0x1
 4768 137d 4902     		.2byte	0x249
 4769 137f A50A0000 		.4byte	0xaa5
 4770 1383 FE040000 		.4byte	.LLST34
 4771 1387 1E       		.uleb128 0x1e
 4772 1388 17070000 		.4byte	.LASF217
 4773 138c 01       		.byte	0x1
 4774 138d 4A02     		.2byte	0x24a
 4775 138f 47010000 		.4byte	0x147
 4776 1393 32050000 		.4byte	.LLST35
 4777 1397 1E       		.uleb128 0x1e
 4778 1398 65060000 		.4byte	.LASF218
 4779 139c 01       		.byte	0x1
 4780 139d 4B02     		.2byte	0x24b
 4781 139f 47010000 		.4byte	0x147
 4782 13a3 50050000 		.4byte	.LLST36
 4783 13a7 22       		.uleb128 0x22
 4784 13a8 58010000 		.4byte	.LBB23
 4785 13ac 2C000000 		.4byte	.LBE23-.LBB23
 4786 13b0 54140000 		.4byte	0x1454
 4787 13b4 23       		.uleb128 0x23
 4788 13b5 70617200 		.ascii	"par\000"
 4789 13b9 01       		.byte	0x1
 4790 13ba 7D02     		.2byte	0x27d
 4791 13bc A50A0000 		.4byte	0xaa5
 4792 13c0 6E050000 		.4byte	.LLST37
 4793 13c4 27       		.uleb128 0x27
 4794 13c5 590A0000 		.4byte	0xa59
 4795 13c9 5E010000 		.4byte	.LBB24
 4796 13cd 08000000 		.4byte	.LBE24-.LBB24
 4797 13d1 01       		.byte	0x1
 4798 13d2 7602     		.2byte	0x276
 4799 13d4 EB130000 		.4byte	0x13eb
 4800 13d8 28       		.uleb128 0x28
 4801 13d9 700A0000 		.4byte	0xa70
 4802 13dd 81050000 		.4byte	.LLST38
 4803 13e1 28       		.uleb128 0x28
ARM GAS  C:\Users\d3bug\AppData\Local\Temp\ccVxVFSv.s 			page 104


 4804 13e2 650A0000 		.4byte	0xa65
 4805 13e6 AE050000 		.4byte	.LLST39
 4806 13ea 00       		.byte	0
 4807 13eb 1F       		.uleb128 0x1f
 4808 13ec 5E010000 		.4byte	.LVL181
 4809 13f0 D91F0000 		.4byte	0x1fd9
 4810 13f4 FF130000 		.4byte	0x13ff
 4811 13f8 20       		.uleb128 0x20
 4812 13f9 01       		.uleb128 0x1
 4813 13fa 50       		.byte	0x50
 4814 13fb 02       		.uleb128 0x2
 4815 13fc 75       		.byte	0x75
 4816 13fd 00       		.sleb128 0
 4817 13fe 00       		.byte	0
 4818 13ff 1F       		.uleb128 0x1f
 4819 1400 6C010000 		.4byte	.LVL185
 4820 1404 D91F0000 		.4byte	0x1fd9
 4821 1408 13140000 		.4byte	0x1413
 4822 140c 20       		.uleb128 0x20
 4823 140d 01       		.uleb128 0x1
 4824 140e 50       		.byte	0x50
 4825 140f 02       		.uleb128 0x2
 4826 1410 75       		.byte	0x75
 4827 1411 00       		.sleb128 0
 4828 1412 00       		.byte	0
 4829 1413 29       		.uleb128 0x29
 4830 1414 76010000 		.4byte	.LVL186
 4831 1418 2E140000 		.4byte	0x142e
 4832 141c 20       		.uleb128 0x20
 4833 141d 01       		.uleb128 0x1
 4834 141e 50       		.byte	0x50
 4835 141f 02       		.uleb128 0x2
 4836 1420 75       		.byte	0x75
 4837 1421 00       		.sleb128 0
 4838 1422 20       		.uleb128 0x20
 4839 1423 01       		.uleb128 0x1
 4840 1424 51       		.byte	0x51
 4841 1425 01       		.uleb128 0x1
 4842 1426 32       		.byte	0x32
 4843 1427 20       		.uleb128 0x20
 4844 1428 01       		.uleb128 0x1
 4845 1429 52       		.byte	0x52
 4846 142a 02       		.uleb128 0x2
 4847 142b 7D       		.byte	0x7d
 4848 142c 00       		.sleb128 0
 4849 142d 00       		.byte	0
 4850 142e 1F       		.uleb128 0x1f
 4851 142f 7C010000 		.4byte	.LVL187
 4852 1433 E51F0000 		.4byte	0x1fe5
 4853 1437 42140000 		.4byte	0x1442
 4854 143b 20       		.uleb128 0x20
 4855 143c 01       		.uleb128 0x1
 4856 143d 50       		.byte	0x50
 4857 143e 02       		.uleb128 0x2
 4858 143f 75       		.byte	0x75
 4859 1440 00       		.sleb128 0
 4860 1441 00       		.byte	0
ARM GAS  C:\Users\d3bug\AppData\Local\Temp\ccVxVFSv.s 			page 105


 4861 1442 2A       		.uleb128 0x2a
 4862 1443 84010000 		.4byte	.LVL188
 4863 1447 20       		.uleb128 0x20
 4864 1448 01       		.uleb128 0x1
 4865 1449 51       		.byte	0x51
 4866 144a 01       		.uleb128 0x1
 4867 144b 31       		.byte	0x31
 4868 144c 20       		.uleb128 0x20
 4869 144d 01       		.uleb128 0x1
 4870 144e 52       		.byte	0x52
 4871 144f 02       		.uleb128 0x2
 4872 1450 75       		.byte	0x75
 4873 1451 00       		.sleb128 0
 4874 1452 00       		.byte	0
 4875 1453 00       		.byte	0
 4876 1454 1F       		.uleb128 0x1f
 4877 1455 0C000000 		.4byte	.LVL160
 4878 1459 F11F0000 		.4byte	0x1ff1
 4879 145d 68140000 		.4byte	0x1468
 4880 1461 20       		.uleb128 0x20
 4881 1462 01       		.uleb128 0x1
 4882 1463 50       		.byte	0x50
 4883 1464 02       		.uleb128 0x2
 4884 1465 75       		.byte	0x75
 4885 1466 00       		.sleb128 0
 4886 1467 00       		.byte	0
 4887 1468 1F       		.uleb128 0x1f
 4888 1469 1E000000 		.4byte	.LVL162
 4889 146d 351F0000 		.4byte	0x1f35
 4890 1471 7C140000 		.4byte	0x147c
 4891 1475 20       		.uleb128 0x20
 4892 1476 01       		.uleb128 0x1
 4893 1477 50       		.byte	0x50
 4894 1478 02       		.uleb128 0x2
 4895 1479 75       		.byte	0x75
 4896 147a 00       		.sleb128 0
 4897 147b 00       		.byte	0
 4898 147c 1F       		.uleb128 0x1f
 4899 147d 2E000000 		.4byte	.LVL166
 4900 1481 FD1F0000 		.4byte	0x1ffd
 4901 1485 96140000 		.4byte	0x1496
 4902 1489 20       		.uleb128 0x20
 4903 148a 01       		.uleb128 0x1
 4904 148b 50       		.byte	0x50
 4905 148c 02       		.uleb128 0x2
 4906 148d 75       		.byte	0x75
 4907 148e 00       		.sleb128 0
 4908 148f 20       		.uleb128 0x20
 4909 1490 01       		.uleb128 0x1
 4910 1491 51       		.byte	0x51
 4911 1492 02       		.uleb128 0x2
 4912 1493 7D       		.byte	0x7d
 4913 1494 00       		.sleb128 0
 4914 1495 00       		.byte	0
 4915 1496 1F       		.uleb128 0x1f
 4916 1497 36000000 		.4byte	.LVL167
 4917 149b FD1F0000 		.4byte	0x1ffd
ARM GAS  C:\Users\d3bug\AppData\Local\Temp\ccVxVFSv.s 			page 106


 4918 149f B0140000 		.4byte	0x14b0
 4919 14a3 20       		.uleb128 0x20
 4920 14a4 01       		.uleb128 0x1
 4921 14a5 50       		.byte	0x50
 4922 14a6 02       		.uleb128 0x2
 4923 14a7 75       		.byte	0x75
 4924 14a8 00       		.sleb128 0
 4925 14a9 20       		.uleb128 0x20
 4926 14aa 01       		.uleb128 0x1
 4927 14ab 51       		.byte	0x51
 4928 14ac 02       		.uleb128 0x2
 4929 14ad 91       		.byte	0x91
 4930 14ae 58       		.sleb128 -40
 4931 14af 00       		.byte	0
 4932 14b0 1F       		.uleb128 0x1f
 4933 14b1 56000000 		.4byte	.LVL168
 4934 14b5 411F0000 		.4byte	0x1f41
 4935 14b9 C4140000 		.4byte	0x14c4
 4936 14bd 20       		.uleb128 0x20
 4937 14be 01       		.uleb128 0x1
 4938 14bf 50       		.byte	0x50
 4939 14c0 02       		.uleb128 0x2
 4940 14c1 76       		.byte	0x76
 4941 14c2 00       		.sleb128 0
 4942 14c3 00       		.byte	0
 4943 14c4 1F       		.uleb128 0x1f
 4944 14c5 60000000 		.4byte	.LVL171
 4945 14c9 4C1F0000 		.4byte	0x1f4c
 4946 14cd D8140000 		.4byte	0x14d8
 4947 14d1 20       		.uleb128 0x20
 4948 14d2 01       		.uleb128 0x1
 4949 14d3 50       		.byte	0x50
 4950 14d4 02       		.uleb128 0x2
 4951 14d5 74       		.byte	0x74
 4952 14d6 00       		.sleb128 0
 4953 14d7 00       		.byte	0
 4954 14d8 21       		.uleb128 0x21
 4955 14d9 B2000000 		.4byte	.LVL172
 4956 14dd 701F0000 		.4byte	0x1f70
 4957 14e1 20       		.uleb128 0x20
 4958 14e2 01       		.uleb128 0x1
 4959 14e3 50       		.byte	0x50
 4960 14e4 02       		.uleb128 0x2
 4961 14e5 76       		.byte	0x76
 4962 14e6 00       		.sleb128 0
 4963 14e7 20       		.uleb128 0x20
 4964 14e8 01       		.uleb128 0x1
 4965 14e9 51       		.byte	0x51
 4966 14ea 02       		.uleb128 0x2
 4967 14eb 74       		.byte	0x74
 4968 14ec 00       		.sleb128 0
 4969 14ed 00       		.byte	0
 4970 14ee 00       		.byte	0
 4971 14ef 09       		.uleb128 0x9
 4972 14f0 04       		.byte	0x4
 4973 14f1 8D090000 		.4byte	0x98d
 4974 14f5 2B       		.uleb128 0x2b
ARM GAS  C:\Users\d3bug\AppData\Local\Temp\ccVxVFSv.s 			page 107


 4975 14f6 5E070000 		.4byte	.LASF226
 4976 14fa 01       		.byte	0x1
 4977 14fb 3F       		.byte	0x3f
 4978 14fc A50A0000 		.4byte	0xaa5
 4979 1500 00000000 		.4byte	.LFB14
 4980 1504 F8000000 		.4byte	.LFE14-.LFB14
 4981 1508 01       		.uleb128 0x1
 4982 1509 9C       		.byte	0x9c
 4983 150a 39170000 		.4byte	0x1739
 4984 150e 2C       		.uleb128 0x2c
 4985 150f 70617200 		.ascii	"par\000"
 4986 1513 01       		.byte	0x1
 4987 1514 3F       		.byte	0x3f
 4988 1515 A50A0000 		.4byte	0xaa5
 4989 1519 C3050000 		.4byte	.LLST40
 4990 151d 2D       		.uleb128 0x2d
 4991 151e 70020000 		.4byte	.LASF219
 4992 1522 01       		.byte	0x1
 4993 1523 3F       		.byte	0x3f
 4994 1524 FF0A0000 		.4byte	0xaff
 4995 1528 EF050000 		.4byte	.LLST41
 4996 152c 2E       		.uleb128 0x2e
 4997 152d E1010000 		.4byte	.LASF220
 4998 1531 01       		.byte	0x1
 4999 1532 46       		.byte	0x46
 5000 1533 A50A0000 		.4byte	0xaa5
 5001 1537 1B060000 		.4byte	.LLST42
 5002 153b 2F       		.uleb128 0x2f
 5003 153c 65787400 		.ascii	"ext\000"
 5004 1540 01       		.byte	0x1
 5005 1541 4D       		.byte	0x4d
 5006 1542 EF140000 		.4byte	0x14ef
 5007 1546 5A060000 		.4byte	.LLST43
 5008 154a 22       		.uleb128 0x22
 5009 154b 78000000 		.4byte	.LBB26
 5010 154f 1A000000 		.4byte	.LBE26-.LBB26
 5011 1553 D7150000 		.4byte	0x15d7
 5012 1557 2F       		.uleb128 0x2f
 5013 1558 746800   		.ascii	"th\000"
 5014 155b 01       		.byte	0x1
 5015 155c 5A       		.byte	0x5a
 5016 155d 39170000 		.4byte	0x1739
 5017 1561 A4060000 		.4byte	.LLST44
 5018 1565 30       		.uleb128 0x30
 5019 1566 820A0000 		.4byte	0xa82
 5020 156a 7E000000 		.4byte	.LBB27
 5021 156e 0A000000 		.4byte	.LBE27-.LBB27
 5022 1572 01       		.byte	0x1
 5023 1573 5C       		.byte	0x5c
 5024 1574 9B150000 		.4byte	0x159b
 5025 1578 28       		.uleb128 0x28
 5026 1579 990A0000 		.4byte	0xa99
 5027 157d C2060000 		.4byte	.LLST45
 5028 1581 28       		.uleb128 0x28
 5029 1582 8E0A0000 		.4byte	0xa8e
 5030 1586 E1060000 		.4byte	.LLST46
 5031 158a 21       		.uleb128 0x21
ARM GAS  C:\Users\d3bug\AppData\Local\Temp\ccVxVFSv.s 			page 108


 5032 158b 86000000 		.4byte	.LVL209
 5033 158f 09200000 		.4byte	0x2009
 5034 1593 20       		.uleb128 0x20
 5035 1594 01       		.uleb128 0x1
 5036 1595 50       		.byte	0x50
 5037 1596 02       		.uleb128 0x2
 5038 1597 74       		.byte	0x74
 5039 1598 00       		.sleb128 0
 5040 1599 00       		.byte	0
 5041 159a 00       		.byte	0
 5042 159b 30       		.uleb128 0x30
 5043 159c 820A0000 		.4byte	0xa82
 5044 15a0 88000000 		.4byte	.LBB29
 5045 15a4 0A000000 		.4byte	.LBE29-.LBB29
 5046 15a8 01       		.byte	0x1
 5047 15a9 5E       		.byte	0x5e
 5048 15aa CD150000 		.4byte	0x15cd
 5049 15ae 31       		.uleb128 0x31
 5050 15af 990A0000 		.4byte	0xa99
 5051 15b3 28       		.uleb128 0x28
 5052 15b4 8E0A0000 		.4byte	0xa8e
 5053 15b8 F4060000 		.4byte	.LLST47
 5054 15bc 21       		.uleb128 0x21
 5055 15bd 90000000 		.4byte	.LVL212
 5056 15c1 09200000 		.4byte	0x2009
 5057 15c5 20       		.uleb128 0x20
 5058 15c6 01       		.uleb128 0x1
 5059 15c7 50       		.byte	0x50
 5060 15c8 02       		.uleb128 0x2
 5061 15c9 74       		.byte	0x74
 5062 15ca 00       		.sleb128 0
 5063 15cb 00       		.byte	0
 5064 15cc 00       		.byte	0
 5065 15cd 25       		.uleb128 0x25
 5066 15ce 7C000000 		.4byte	.LVL206
 5067 15d2 15200000 		.4byte	0x2015
 5068 15d6 00       		.byte	0
 5069 15d7 22       		.uleb128 0x22
 5070 15d8 92000000 		.4byte	.LBB31
 5071 15dc 32000000 		.4byte	.LBE31-.LBB31
 5072 15e0 18160000 		.4byte	0x1618
 5073 15e4 2E       		.uleb128 0x2e
 5074 15e5 070C0000 		.4byte	.LASF221
 5075 15e9 01       		.byte	0x1
 5076 15ea 63       		.byte	0x63
 5077 15eb EF140000 		.4byte	0x14ef
 5078 15ef 07070000 		.4byte	.LLST48
 5079 15f3 1F       		.uleb128 0x1f
 5080 15f4 98000000 		.4byte	.LVL214
 5081 15f8 F11F0000 		.4byte	0x1ff1
 5082 15fc 07160000 		.4byte	0x1607
 5083 1600 20       		.uleb128 0x20
 5084 1601 01       		.uleb128 0x1
 5085 1602 50       		.byte	0x50
 5086 1603 02       		.uleb128 0x2
 5087 1604 76       		.byte	0x76
 5088 1605 00       		.sleb128 0
ARM GAS  C:\Users\d3bug\AppData\Local\Temp\ccVxVFSv.s 			page 109


 5089 1606 00       		.byte	0
 5090 1607 21       		.uleb128 0x21
 5091 1608 C4000000 		.4byte	.LVL216
 5092 160c 21200000 		.4byte	0x2021
 5093 1610 20       		.uleb128 0x20
 5094 1611 01       		.uleb128 0x1
 5095 1612 50       		.byte	0x50
 5096 1613 02       		.uleb128 0x2
 5097 1614 74       		.byte	0x74
 5098 1615 00       		.sleb128 0
 5099 1616 00       		.byte	0
 5100 1617 00       		.byte	0
 5101 1618 1F       		.uleb128 0x1f
 5102 1619 12000000 		.4byte	.LVL192
 5103 161d 2D200000 		.4byte	0x202d
 5104 1621 43160000 		.4byte	0x1643
 5105 1625 20       		.uleb128 0x20
 5106 1626 01       		.uleb128 0x1
 5107 1627 50       		.byte	0x50
 5108 1628 01       		.uleb128 0x1
 5109 1629 30       		.byte	0x30
 5110 162a 20       		.uleb128 0x20
 5111 162b 01       		.uleb128 0x1
 5112 162c 51       		.byte	0x51
 5113 162d 05       		.uleb128 0x5
 5114 162e 03       		.byte	0x3
 5115 162f 1C000000 		.4byte	.LC1
 5116 1633 20       		.uleb128 0x20
 5117 1634 01       		.uleb128 0x1
 5118 1635 52       		.byte	0x52
 5119 1636 02       		.uleb128 0x2
 5120 1637 08       		.byte	0x8
 5121 1638 43       		.byte	0x43
 5122 1639 20       		.uleb128 0x20
 5123 163a 01       		.uleb128 0x1
 5124 163b 53       		.byte	0x53
 5125 163c 05       		.uleb128 0x5
 5126 163d 03       		.byte	0x3
 5127 163e 00000000 		.4byte	.LC0
 5128 1642 00       		.byte	0
 5129 1643 1F       		.uleb128 0x1f
 5130 1644 1A000000 		.4byte	.LVL193
 5131 1648 38200000 		.4byte	0x2038
 5132 164c 5D160000 		.4byte	0x165d
 5133 1650 20       		.uleb128 0x20
 5134 1651 01       		.uleb128 0x1
 5135 1652 50       		.byte	0x50
 5136 1653 02       		.uleb128 0x2
 5137 1654 74       		.byte	0x74
 5138 1655 00       		.sleb128 0
 5139 1656 20       		.uleb128 0x20
 5140 1657 01       		.uleb128 0x1
 5141 1658 51       		.byte	0x51
 5142 1659 02       		.uleb128 0x2
 5143 165a 76       		.byte	0x76
 5144 165b 00       		.sleb128 0
 5145 165c 00       		.byte	0
ARM GAS  C:\Users\d3bug\AppData\Local\Temp\ccVxVFSv.s 			page 110


 5146 165d 1F       		.uleb128 0x1f
 5147 165e 28000000 		.4byte	.LVL195
 5148 1662 2D200000 		.4byte	0x202d
 5149 1666 88160000 		.4byte	0x1688
 5150 166a 20       		.uleb128 0x20
 5151 166b 01       		.uleb128 0x1
 5152 166c 50       		.byte	0x50
 5153 166d 01       		.uleb128 0x1
 5154 166e 33       		.byte	0x33
 5155 166f 20       		.uleb128 0x20
 5156 1670 01       		.uleb128 0x1
 5157 1671 51       		.byte	0x51
 5158 1672 05       		.uleb128 0x5
 5159 1673 03       		.byte	0x3
 5160 1674 1C000000 		.4byte	.LC1
 5161 1678 20       		.uleb128 0x20
 5162 1679 01       		.uleb128 0x1
 5163 167a 52       		.byte	0x52
 5164 167b 02       		.uleb128 0x2
 5165 167c 08       		.byte	0x8
 5166 167d 47       		.byte	0x47
 5167 167e 20       		.uleb128 0x20
 5168 167f 01       		.uleb128 0x1
 5169 1680 53       		.byte	0x53
 5170 1681 05       		.uleb128 0x5
 5171 1682 03       		.byte	0x3
 5172 1683 38000000 		.4byte	.LC2
 5173 1687 00       		.byte	0
 5174 1688 1F       		.uleb128 0x1f
 5175 1689 3A000000 		.4byte	.LVL198
 5176 168d 43200000 		.4byte	0x2043
 5177 1691 9C160000 		.4byte	0x169c
 5178 1695 20       		.uleb128 0x20
 5179 1696 01       		.uleb128 0x1
 5180 1697 50       		.byte	0x50
 5181 1698 02       		.uleb128 0x2
 5182 1699 74       		.byte	0x74
 5183 169a 00       		.sleb128 0
 5184 169b 00       		.byte	0
 5185 169c 1F       		.uleb128 0x1f
 5186 169d 46000000 		.4byte	.LVL199
 5187 16a1 4F200000 		.4byte	0x204f
 5188 16a5 B5160000 		.4byte	0x16b5
 5189 16a9 20       		.uleb128 0x20
 5190 16aa 01       		.uleb128 0x1
 5191 16ab 50       		.byte	0x50
 5192 16ac 02       		.uleb128 0x2
 5193 16ad 74       		.byte	0x74
 5194 16ae 00       		.sleb128 0
 5195 16af 20       		.uleb128 0x20
 5196 16b0 01       		.uleb128 0x1
 5197 16b1 51       		.byte	0x51
 5198 16b2 01       		.uleb128 0x1
 5199 16b3 31       		.byte	0x31
 5200 16b4 00       		.byte	0
 5201 16b5 1F       		.uleb128 0x1f
 5202 16b6 4C000000 		.4byte	.LVL200
ARM GAS  C:\Users\d3bug\AppData\Local\Temp\ccVxVFSv.s 			page 111


 5203 16ba F11F0000 		.4byte	0x1ff1
 5204 16be C9160000 		.4byte	0x16c9
 5205 16c2 20       		.uleb128 0x20
 5206 16c3 01       		.uleb128 0x1
 5207 16c4 50       		.byte	0x50
 5208 16c5 02       		.uleb128 0x2
 5209 16c6 74       		.byte	0x74
 5210 16c7 00       		.sleb128 0
 5211 16c8 00       		.byte	0
 5212 16c9 1F       		.uleb128 0x1f
 5213 16ca 60000000 		.4byte	.LVL202
 5214 16ce 2D200000 		.4byte	0x202d
 5215 16d2 F4160000 		.4byte	0x16f4
 5216 16d6 20       		.uleb128 0x20
 5217 16d7 01       		.uleb128 0x1
 5218 16d8 50       		.byte	0x50
 5219 16d9 01       		.uleb128 0x1
 5220 16da 33       		.byte	0x33
 5221 16db 20       		.uleb128 0x20
 5222 16dc 01       		.uleb128 0x1
 5223 16dd 51       		.byte	0x51
 5224 16de 05       		.uleb128 0x5
 5225 16df 03       		.byte	0x3
 5226 16e0 1C000000 		.4byte	.LC1
 5227 16e4 20       		.uleb128 0x20
 5228 16e5 01       		.uleb128 0x1
 5229 16e6 52       		.byte	0x52
 5230 16e7 02       		.uleb128 0x2
 5231 16e8 08       		.byte	0x8
 5232 16e9 50       		.byte	0x50
 5233 16ea 20       		.uleb128 0x20
 5234 16eb 01       		.uleb128 0x1
 5235 16ec 53       		.byte	0x53
 5236 16ed 05       		.uleb128 0x5
 5237 16ee 03       		.byte	0x3
 5238 16ef 38000000 		.4byte	.LC2
 5239 16f3 00       		.byte	0
 5240 16f4 1F       		.uleb128 0x1f
 5241 16f5 76000000 		.4byte	.LVL205
 5242 16f9 5B200000 		.4byte	0x205b
 5243 16fd 11170000 		.4byte	0x1711
 5244 1701 20       		.uleb128 0x20
 5245 1702 01       		.uleb128 0x1
 5246 1703 50       		.byte	0x50
 5247 1704 02       		.uleb128 0x2
 5248 1705 74       		.byte	0x74
 5249 1706 00       		.sleb128 0
 5250 1707 20       		.uleb128 0x20
 5251 1708 01       		.uleb128 0x1
 5252 1709 51       		.byte	0x51
 5253 170a 05       		.uleb128 0x5
 5254 170b 03       		.byte	0x3
 5255 170c 00000000 		.4byte	lv_cont_signal
 5256 1710 00       		.byte	0
 5257 1711 21       		.uleb128 0x21
 5258 1712 D0000000 		.4byte	.LVL217
 5259 1716 2D200000 		.4byte	0x202d
ARM GAS  C:\Users\d3bug\AppData\Local\Temp\ccVxVFSv.s 			page 112


 5260 171a 20       		.uleb128 0x20
 5261 171b 01       		.uleb128 0x1
 5262 171c 50       		.byte	0x50
 5263 171d 01       		.uleb128 0x1
 5264 171e 31       		.byte	0x31
 5265 171f 20       		.uleb128 0x20
 5266 1720 01       		.uleb128 0x1
 5267 1721 51       		.byte	0x51
 5268 1722 05       		.uleb128 0x5
 5269 1723 03       		.byte	0x3
 5270 1724 1C000000 		.4byte	.LC1
 5271 1728 20       		.uleb128 0x20
 5272 1729 01       		.uleb128 0x1
 5273 172a 52       		.byte	0x52
 5274 172b 02       		.uleb128 0x2
 5275 172c 08       		.byte	0x8
 5276 172d 6C       		.byte	0x6c
 5277 172e 20       		.uleb128 0x20
 5278 172f 01       		.uleb128 0x1
 5279 1730 53       		.byte	0x53
 5280 1731 05       		.uleb128 0x5
 5281 1732 03       		.byte	0x3
 5282 1733 48000000 		.4byte	.LC3
 5283 1737 00       		.byte	0
 5284 1738 00       		.byte	0
 5285 1739 09       		.uleb128 0x9
 5286 173a 04       		.byte	0x4
 5287 173b 4D0A0000 		.4byte	0xa4d
 5288 173f 32       		.uleb128 0x32
 5289 1740 81010000 		.4byte	.LASF222
 5290 1744 01       		.byte	0x1
 5291 1745 7B       		.byte	0x7b
 5292 1746 00000000 		.4byte	.LFB15
 5293 174a 28000000 		.4byte	.LFE15-.LFB15
 5294 174e 01       		.uleb128 0x1
 5295 174f 9C       		.byte	0x9c
 5296 1750 AC170000 		.4byte	0x17ac
 5297 1754 2D       		.uleb128 0x2d
 5298 1755 8C000000 		.4byte	.LASF180
 5299 1759 01       		.byte	0x1
 5300 175a 7B       		.byte	0x7b
 5301 175b A50A0000 		.4byte	0xaa5
 5302 175f 1A070000 		.4byte	.LLST49
 5303 1763 2D       		.uleb128 0x2d
 5304 1764 9E0A0000 		.4byte	.LASF171
 5305 1768 01       		.byte	0x1
 5306 1769 7B       		.byte	0x7b
 5307 176a 4C090000 		.4byte	0x94c
 5308 176e 38070000 		.4byte	.LLST50
 5309 1772 2F       		.uleb128 0x2f
 5310 1773 65787400 		.ascii	"ext\000"
 5311 1777 01       		.byte	0x1
 5312 1778 7D       		.byte	0x7d
 5313 1779 EF140000 		.4byte	0x14ef
 5314 177d 59070000 		.4byte	.LLST51
 5315 1781 1F       		.uleb128 0x1f
 5316 1782 0A000000 		.4byte	.LVL224
ARM GAS  C:\Users\d3bug\AppData\Local\Temp\ccVxVFSv.s 			page 113


 5317 1786 F11F0000 		.4byte	0x1ff1
 5318 178a 95170000 		.4byte	0x1795
 5319 178e 20       		.uleb128 0x20
 5320 178f 01       		.uleb128 0x1
 5321 1790 50       		.byte	0x50
 5322 1791 02       		.uleb128 0x2
 5323 1792 75       		.byte	0x75
 5324 1793 00       		.sleb128 0
 5325 1794 00       		.byte	0
 5326 1795 2A       		.uleb128 0x2a
 5327 1796 26000000 		.4byte	.LVL226
 5328 179a 20       		.uleb128 0x20
 5329 179b 01       		.uleb128 0x1
 5330 179c 50       		.byte	0x50
 5331 179d 02       		.uleb128 0x2
 5332 179e 75       		.byte	0x75
 5333 179f 00       		.sleb128 0
 5334 17a0 20       		.uleb128 0x20
 5335 17a1 01       		.uleb128 0x1
 5336 17a2 51       		.byte	0x51
 5337 17a3 01       		.uleb128 0x1
 5338 17a4 31       		.byte	0x31
 5339 17a5 20       		.uleb128 0x20
 5340 17a6 01       		.uleb128 0x1
 5341 17a7 52       		.byte	0x52
 5342 17a8 01       		.uleb128 0x1
 5343 17a9 30       		.byte	0x30
 5344 17aa 00       		.byte	0
 5345 17ab 00       		.byte	0
 5346 17ac 32       		.uleb128 0x32
 5347 17ad 170E0000 		.4byte	.LASF223
 5348 17b1 01       		.byte	0x1
 5349 17b2 8E       		.byte	0x8e
 5350 17b3 00000000 		.4byte	.LFB16
 5351 17b7 52000000 		.4byte	.LFE16-.LFB16
 5352 17bb 01       		.uleb128 0x1
 5353 17bc 9C       		.byte	0x9c
 5354 17bd 3C180000 		.4byte	0x183c
 5355 17c1 2D       		.uleb128 0x2d
 5356 17c2 8C000000 		.4byte	.LASF180
 5357 17c6 01       		.byte	0x1
 5358 17c7 8E       		.byte	0x8e
 5359 17c8 A50A0000 		.4byte	0xaa5
 5360 17cc 6C070000 		.4byte	.LLST52
 5361 17d0 2D       		.uleb128 0x2d
 5362 17d1 530D0000 		.4byte	.LASF224
 5363 17d5 01       		.byte	0x1
 5364 17d6 8E       		.byte	0x8e
 5365 17d7 7A050000 		.4byte	0x57a
 5366 17db 8A070000 		.4byte	.LLST53
 5367 17df 2D       		.uleb128 0x2d
 5368 17e0 7A0D0000 		.4byte	.LASF225
 5369 17e4 01       		.byte	0x1
 5370 17e5 8E       		.byte	0x8e
 5371 17e6 7A050000 		.4byte	0x57a
 5372 17ea AB070000 		.4byte	.LLST54
 5373 17ee 2F       		.uleb128 0x2f
ARM GAS  C:\Users\d3bug\AppData\Local\Temp\ccVxVFSv.s 			page 114


 5374 17ef 65787400 		.ascii	"ext\000"
 5375 17f3 01       		.byte	0x1
 5376 17f4 91       		.byte	0x91
 5377 17f5 EF140000 		.4byte	0x14ef
 5378 17f9 CC070000 		.4byte	.LLST55
 5379 17fd 1F       		.uleb128 0x1f
 5380 17fe 0C000000 		.4byte	.LVL228
 5381 1802 D91F0000 		.4byte	0x1fd9
 5382 1806 11180000 		.4byte	0x1811
 5383 180a 20       		.uleb128 0x20
 5384 180b 01       		.uleb128 0x1
 5385 180c 50       		.byte	0x50
 5386 180d 02       		.uleb128 0x2
 5387 180e 74       		.byte	0x74
 5388 180f 00       		.sleb128 0
 5389 1810 00       		.byte	0
 5390 1811 1F       		.uleb128 0x1f
 5391 1812 12000000 		.4byte	.LVL229
 5392 1816 F11F0000 		.4byte	0x1ff1
 5393 181a 25180000 		.4byte	0x1825
 5394 181e 20       		.uleb128 0x20
 5395 181f 01       		.uleb128 0x1
 5396 1820 50       		.byte	0x50
 5397 1821 02       		.uleb128 0x2
 5398 1822 74       		.byte	0x74
 5399 1823 00       		.sleb128 0
 5400 1824 00       		.byte	0
 5401 1825 2A       		.uleb128 0x2a
 5402 1826 50000000 		.4byte	.LVL231
 5403 182a 20       		.uleb128 0x20
 5404 182b 01       		.uleb128 0x1
 5405 182c 50       		.byte	0x50
 5406 182d 02       		.uleb128 0x2
 5407 182e 74       		.byte	0x74
 5408 182f 00       		.sleb128 0
 5409 1830 20       		.uleb128 0x20
 5410 1831 01       		.uleb128 0x1
 5411 1832 51       		.byte	0x51
 5412 1833 01       		.uleb128 0x1
 5413 1834 31       		.byte	0x31
 5414 1835 20       		.uleb128 0x20
 5415 1836 01       		.uleb128 0x1
 5416 1837 52       		.byte	0x52
 5417 1838 01       		.uleb128 0x1
 5418 1839 30       		.byte	0x30
 5419 183a 00       		.byte	0
 5420 183b 00       		.byte	0
 5421 183c 2B       		.uleb128 0x2b
 5422 183d A4010000 		.4byte	.LASF227
 5423 1841 01       		.byte	0x1
 5424 1842 A4       		.byte	0xa4
 5425 1843 4C090000 		.4byte	0x94c
 5426 1847 00000000 		.4byte	.LFB17
 5427 184b 0E000000 		.4byte	.LFE17-.LFB17
 5428 184f 01       		.uleb128 0x1
 5429 1850 9C       		.byte	0x9c
 5430 1851 85180000 		.4byte	0x1885
ARM GAS  C:\Users\d3bug\AppData\Local\Temp\ccVxVFSv.s 			page 115


 5431 1855 2D       		.uleb128 0x2d
 5432 1856 8C000000 		.4byte	.LASF180
 5433 185a 01       		.byte	0x1
 5434 185b A4       		.byte	0xa4
 5435 185c FF0A0000 		.4byte	0xaff
 5436 1860 DF070000 		.4byte	.LLST56
 5437 1864 2F       		.uleb128 0x2f
 5438 1865 65787400 		.ascii	"ext\000"
 5439 1869 01       		.byte	0x1
 5440 186a A6       		.byte	0xa6
 5441 186b EF140000 		.4byte	0x14ef
 5442 186f 00080000 		.4byte	.LLST57
 5443 1873 21       		.uleb128 0x21
 5444 1874 06000000 		.4byte	.LVL233
 5445 1878 F11F0000 		.4byte	0x1ff1
 5446 187c 20       		.uleb128 0x20
 5447 187d 01       		.uleb128 0x1
 5448 187e 50       		.byte	0x50
 5449 187f 03       		.uleb128 0x3
 5450 1880 F3       		.byte	0xf3
 5451 1881 01       		.uleb128 0x1
 5452 1882 50       		.byte	0x50
 5453 1883 00       		.byte	0
 5454 1884 00       		.byte	0
 5455 1885 1C       		.uleb128 0x1c
 5456 1886 C60A0000 		.4byte	.LASF228
 5457 188a 01       		.byte	0x1
 5458 188b 2201     		.2byte	0x122
 5459 188d 00000000 		.4byte	.LFB24
 5460 1891 BA000000 		.4byte	.LFE24-.LFB24
 5461 1895 01       		.uleb128 0x1
 5462 1896 9C       		.byte	0x9c
 5463 1897 FC190000 		.4byte	0x19fc
 5464 189b 1D       		.uleb128 0x1d
 5465 189c 8C000000 		.4byte	.LASF180
 5466 18a0 01       		.byte	0x1
 5467 18a1 2201     		.2byte	0x122
 5468 18a3 A50A0000 		.4byte	0xaa5
 5469 18a7 13080000 		.4byte	.LLST58
 5470 18ab 1E       		.uleb128 0x1e
 5471 18ac 020C0000 		.4byte	.LASF48
 5472 18b0 01       		.byte	0x1
 5473 18b1 2401     		.2byte	0x124
 5474 18b3 4C090000 		.4byte	0x94c
 5475 18b7 31080000 		.4byte	.LLST59
 5476 18bb 1E       		.uleb128 0x1e
 5477 18bc 6A050000 		.4byte	.LASF191
 5478 18c0 01       		.byte	0x1
 5479 18c1 2501     		.2byte	0x125
 5480 18c3 A50A0000 		.4byte	0xaa5
 5481 18c7 44080000 		.4byte	.LLST60
 5482 18cb 1E       		.uleb128 0x1e
 5483 18cc 96080000 		.4byte	.LASF147
 5484 18d0 01       		.byte	0x1
 5485 18d1 2801     		.2byte	0x128
 5486 18d3 13080000 		.4byte	0x813
 5487 18d7 78080000 		.4byte	.LLST61
ARM GAS  C:\Users\d3bug\AppData\Local\Temp\ccVxVFSv.s 			page 116


 5488 18db 1E       		.uleb128 0x1e
 5489 18dc 19000000 		.4byte	.LASF186
 5490 18e0 01       		.byte	0x1
 5491 18e1 2901     		.2byte	0x129
 5492 18e3 8B080000 		.4byte	0x88b
 5493 18e7 A3080000 		.4byte	.LLST62
 5494 18eb 1E       		.uleb128 0x1e
 5495 18ec F80B0000 		.4byte	.LASF229
 5496 18f0 01       		.byte	0x1
 5497 18f1 2A01     		.2byte	0x12a
 5498 18f3 47010000 		.4byte	0x147
 5499 18f7 C1080000 		.4byte	.LLST63
 5500 18fb 24       		.uleb128 0x24
 5501 18fc 5D020000 		.4byte	.LASF194
 5502 1900 01       		.byte	0x1
 5503 1901 4301     		.2byte	0x143
 5504 1903 47010000 		.4byte	0x147
 5505 1907 01       		.uleb128 0x1
 5506 1908 5A       		.byte	0x5a
 5507 1909 1F       		.uleb128 0x1f
 5508 190a 0C000000 		.4byte	.LVL236
 5509 190e 3C180000 		.4byte	0x183c
 5510 1912 1D190000 		.4byte	0x191d
 5511 1916 20       		.uleb128 0x20
 5512 1917 01       		.uleb128 0x1
 5513 1918 50       		.byte	0x50
 5514 1919 02       		.uleb128 0x2
 5515 191a 76       		.byte	0x76
 5516 191b 00       		.sleb128 0
 5517 191c 00       		.byte	0
 5518 191d 1F       		.uleb128 0x1f
 5519 191e 14000000 		.4byte	.LVL238
 5520 1922 351F0000 		.4byte	0x1f35
 5521 1926 31190000 		.4byte	0x1931
 5522 192a 20       		.uleb128 0x20
 5523 192b 01       		.uleb128 0x1
 5524 192c 50       		.byte	0x50
 5525 192d 02       		.uleb128 0x2
 5526 192e 76       		.byte	0x76
 5527 192f 00       		.sleb128 0
 5528 1930 00       		.byte	0
 5529 1931 1F       		.uleb128 0x1f
 5530 1932 5A000000 		.4byte	.LVL246
 5531 1936 7B1F0000 		.4byte	0x1f7b
 5532 193a 4A190000 		.4byte	0x194a
 5533 193e 20       		.uleb128 0x20
 5534 193f 01       		.uleb128 0x1
 5535 1940 50       		.byte	0x50
 5536 1941 02       		.uleb128 0x2
 5537 1942 76       		.byte	0x76
 5538 1943 00       		.sleb128 0
 5539 1944 20       		.uleb128 0x20
 5540 1945 01       		.uleb128 0x1
 5541 1946 51       		.byte	0x51
 5542 1947 01       		.uleb128 0x1
 5543 1948 31       		.byte	0x31
 5544 1949 00       		.byte	0
ARM GAS  C:\Users\d3bug\AppData\Local\Temp\ccVxVFSv.s 			page 117


 5545 194a 1F       		.uleb128 0x1f
 5546 194b 66000000 		.4byte	.LVL248
 5547 194f 871F0000 		.4byte	0x1f87
 5548 1953 5E190000 		.4byte	0x195e
 5549 1957 20       		.uleb128 0x20
 5550 1958 01       		.uleb128 0x1
 5551 1959 50       		.byte	0x50
 5552 195a 02       		.uleb128 0x2
 5553 195b 75       		.byte	0x75
 5554 195c 00       		.sleb128 0
 5555 195d 00       		.byte	0
 5556 195e 1F       		.uleb128 0x1f
 5557 195f 70000000 		.4byte	.LVL251
 5558 1963 4C1F0000 		.4byte	0x1f4c
 5559 1967 72190000 		.4byte	0x1972
 5560 196b 20       		.uleb128 0x20
 5561 196c 01       		.uleb128 0x1
 5562 196d 50       		.byte	0x50
 5563 196e 02       		.uleb128 0x2
 5564 196f 74       		.byte	0x74
 5565 1970 00       		.sleb128 0
 5566 1971 00       		.byte	0
 5567 1972 1F       		.uleb128 0x1f
 5568 1973 7A000000 		.4byte	.LVL252
 5569 1977 581F0000 		.4byte	0x1f58
 5570 197b 8B190000 		.4byte	0x198b
 5571 197f 20       		.uleb128 0x20
 5572 1980 01       		.uleb128 0x1
 5573 1981 50       		.byte	0x50
 5574 1982 02       		.uleb128 0x2
 5575 1983 74       		.byte	0x74
 5576 1984 00       		.sleb128 0
 5577 1985 20       		.uleb128 0x20
 5578 1986 01       		.uleb128 0x1
 5579 1987 51       		.byte	0x51
 5580 1988 01       		.uleb128 0x1
 5581 1989 34       		.byte	0x34
 5582 198a 00       		.byte	0
 5583 198b 1F       		.uleb128 0x1f
 5584 198c 8C000000 		.4byte	.LVL253
 5585 1990 921F0000 		.4byte	0x1f92
 5586 1994 B8190000 		.4byte	0x19b8
 5587 1998 20       		.uleb128 0x20
 5588 1999 01       		.uleb128 0x1
 5589 199a 50       		.byte	0x50
 5590 199b 02       		.uleb128 0x2
 5591 199c 74       		.byte	0x74
 5592 199d 00       		.sleb128 0
 5593 199e 20       		.uleb128 0x20
 5594 199f 01       		.uleb128 0x1
 5595 19a0 51       		.byte	0x51
 5596 19a1 02       		.uleb128 0x2
 5597 19a2 76       		.byte	0x76
 5598 19a3 00       		.sleb128 0
 5599 19a4 20       		.uleb128 0x20
 5600 19a5 01       		.uleb128 0x1
 5601 19a6 52       		.byte	0x52
ARM GAS  C:\Users\d3bug\AppData\Local\Temp\ccVxVFSv.s 			page 118


 5602 19a7 02       		.uleb128 0x2
 5603 19a8 79       		.byte	0x79
 5604 19a9 00       		.sleb128 0
 5605 19aa 20       		.uleb128 0x20
 5606 19ab 01       		.uleb128 0x1
 5607 19ac 53       		.byte	0x53
 5608 19ad 02       		.uleb128 0x2
 5609 19ae 78       		.byte	0x78
 5610 19af 00       		.sleb128 0
 5611 19b0 20       		.uleb128 0x20
 5612 19b1 02       		.uleb128 0x2
 5613 19b2 7D       		.byte	0x7d
 5614 19b3 00       		.sleb128 0
 5615 19b4 02       		.uleb128 0x2
 5616 19b5 7A       		.byte	0x7a
 5617 19b6 00       		.sleb128 0
 5618 19b7 00       		.byte	0
 5619 19b8 1F       		.uleb128 0x1f
 5620 19b9 92000000 		.4byte	.LVL254
 5621 19bd 641F0000 		.4byte	0x1f64
 5622 19c1 CC190000 		.4byte	0x19cc
 5623 19c5 20       		.uleb128 0x20
 5624 19c6 01       		.uleb128 0x1
 5625 19c7 50       		.byte	0x50
 5626 19c8 02       		.uleb128 0x2
 5627 19c9 74       		.byte	0x74
 5628 19ca 00       		.sleb128 0
 5629 19cb 00       		.byte	0
 5630 19cc 1F       		.uleb128 0x1f
 5631 19cd A6000000 		.4byte	.LVL256
 5632 19d1 9E1F0000 		.4byte	0x1f9e
 5633 19d5 E6190000 		.4byte	0x19e6
 5634 19d9 20       		.uleb128 0x20
 5635 19da 01       		.uleb128 0x1
 5636 19db 50       		.byte	0x50
 5637 19dc 02       		.uleb128 0x2
 5638 19dd 75       		.byte	0x75
 5639 19de 00       		.sleb128 0
 5640 19df 20       		.uleb128 0x20
 5641 19e0 01       		.uleb128 0x1
 5642 19e1 51       		.byte	0x51
 5643 19e2 02       		.uleb128 0x2
 5644 19e3 74       		.byte	0x74
 5645 19e4 00       		.sleb128 0
 5646 19e5 00       		.byte	0
 5647 19e6 21       		.uleb128 0x21
 5648 19e7 B4000000 		.4byte	.LVL259
 5649 19eb A91F0000 		.4byte	0x1fa9
 5650 19ef 20       		.uleb128 0x20
 5651 19f0 01       		.uleb128 0x1
 5652 19f1 50       		.byte	0x50
 5653 19f2 02       		.uleb128 0x2
 5654 19f3 76       		.byte	0x76
 5655 19f4 00       		.sleb128 0
 5656 19f5 20       		.uleb128 0x20
 5657 19f6 01       		.uleb128 0x1
 5658 19f7 51       		.byte	0x51
ARM GAS  C:\Users\d3bug\AppData\Local\Temp\ccVxVFSv.s 			page 119


 5659 19f8 01       		.uleb128 0x1
 5660 19f9 31       		.byte	0x31
 5661 19fa 00       		.byte	0
 5662 19fb 00       		.byte	0
 5663 19fc 1C       		.uleb128 0x1c
 5664 19fd 79030000 		.4byte	.LASF230
 5665 1a01 01       		.byte	0x1
 5666 1a02 5301     		.2byte	0x153
 5667 1a04 00000000 		.4byte	.LFB25
 5668 1a08 BC000000 		.4byte	.LFE25-.LFB25
 5669 1a0c 01       		.uleb128 0x1
 5670 1a0d 9C       		.byte	0x9c
 5671 1a0e 731B0000 		.4byte	0x1b73
 5672 1a12 1D       		.uleb128 0x1d
 5673 1a13 8C000000 		.4byte	.LASF180
 5674 1a17 01       		.byte	0x1
 5675 1a18 5301     		.2byte	0x153
 5676 1a1a A50A0000 		.4byte	0xaa5
 5677 1a1e EA080000 		.4byte	.LLST64
 5678 1a22 1E       		.uleb128 0x1e
 5679 1a23 020C0000 		.4byte	.LASF48
 5680 1a27 01       		.byte	0x1
 5681 1a28 5501     		.2byte	0x155
 5682 1a2a 4C090000 		.4byte	0x94c
 5683 1a2e 08090000 		.4byte	.LLST65
 5684 1a32 1E       		.uleb128 0x1e
 5685 1a33 6A050000 		.4byte	.LASF191
 5686 1a37 01       		.byte	0x1
 5687 1a38 5601     		.2byte	0x156
 5688 1a3a A50A0000 		.4byte	0xaa5
 5689 1a3e 1B090000 		.4byte	.LLST66
 5690 1a42 1E       		.uleb128 0x1e
 5691 1a43 96080000 		.4byte	.LASF147
 5692 1a47 01       		.byte	0x1
 5693 1a48 5901     		.2byte	0x159
 5694 1a4a 13080000 		.4byte	0x813
 5695 1a4e 4F090000 		.4byte	.LLST67
 5696 1a52 1E       		.uleb128 0x1e
 5697 1a53 19000000 		.4byte	.LASF186
 5698 1a57 01       		.byte	0x1
 5699 1a58 5A01     		.2byte	0x15a
 5700 1a5a 8B080000 		.4byte	0x88b
 5701 1a5e 7A090000 		.4byte	.LLST68
 5702 1a62 1E       		.uleb128 0x1e
 5703 1a63 4B050000 		.4byte	.LASF231
 5704 1a67 01       		.byte	0x1
 5705 1a68 5B01     		.2byte	0x15b
 5706 1a6a 47010000 		.4byte	0x147
 5707 1a6e 98090000 		.4byte	.LLST69
 5708 1a72 24       		.uleb128 0x24
 5709 1a73 5D020000 		.4byte	.LASF194
 5710 1a77 01       		.byte	0x1
 5711 1a78 7501     		.2byte	0x175
 5712 1a7a 47010000 		.4byte	0x147
 5713 1a7e 01       		.uleb128 0x1
 5714 1a7f 5A       		.byte	0x5a
 5715 1a80 1F       		.uleb128 0x1f
ARM GAS  C:\Users\d3bug\AppData\Local\Temp\ccVxVFSv.s 			page 120


 5716 1a81 0C000000 		.4byte	.LVL261
 5717 1a85 3C180000 		.4byte	0x183c
 5718 1a89 941A0000 		.4byte	0x1a94
 5719 1a8d 20       		.uleb128 0x20
 5720 1a8e 01       		.uleb128 0x1
 5721 1a8f 50       		.byte	0x50
 5722 1a90 02       		.uleb128 0x2
 5723 1a91 76       		.byte	0x76
 5724 1a92 00       		.sleb128 0
 5725 1a93 00       		.byte	0
 5726 1a94 1F       		.uleb128 0x1f
 5727 1a95 14000000 		.4byte	.LVL263
 5728 1a99 351F0000 		.4byte	0x1f35
 5729 1a9d A81A0000 		.4byte	0x1aa8
 5730 1aa1 20       		.uleb128 0x20
 5731 1aa2 01       		.uleb128 0x1
 5732 1aa3 50       		.byte	0x50
 5733 1aa4 02       		.uleb128 0x2
 5734 1aa5 76       		.byte	0x76
 5735 1aa6 00       		.sleb128 0
 5736 1aa7 00       		.byte	0
 5737 1aa8 1F       		.uleb128 0x1f
 5738 1aa9 5A000000 		.4byte	.LVL271
 5739 1aad 7B1F0000 		.4byte	0x1f7b
 5740 1ab1 C11A0000 		.4byte	0x1ac1
 5741 1ab5 20       		.uleb128 0x20
 5742 1ab6 01       		.uleb128 0x1
 5743 1ab7 50       		.byte	0x50
 5744 1ab8 02       		.uleb128 0x2
 5745 1ab9 76       		.byte	0x76
 5746 1aba 00       		.sleb128 0
 5747 1abb 20       		.uleb128 0x20
 5748 1abc 01       		.uleb128 0x1
 5749 1abd 51       		.byte	0x51
 5750 1abe 01       		.uleb128 0x1
 5751 1abf 31       		.byte	0x31
 5752 1ac0 00       		.byte	0
 5753 1ac1 1F       		.uleb128 0x1f
 5754 1ac2 66000000 		.4byte	.LVL273
 5755 1ac6 871F0000 		.4byte	0x1f87
 5756 1aca D51A0000 		.4byte	0x1ad5
 5757 1ace 20       		.uleb128 0x20
 5758 1acf 01       		.uleb128 0x1
 5759 1ad0 50       		.byte	0x50
 5760 1ad1 02       		.uleb128 0x2
 5761 1ad2 75       		.byte	0x75
 5762 1ad3 00       		.sleb128 0
 5763 1ad4 00       		.byte	0
 5764 1ad5 1F       		.uleb128 0x1f
 5765 1ad6 70000000 		.4byte	.LVL276
 5766 1ada 4C1F0000 		.4byte	0x1f4c
 5767 1ade E91A0000 		.4byte	0x1ae9
 5768 1ae2 20       		.uleb128 0x20
 5769 1ae3 01       		.uleb128 0x1
 5770 1ae4 50       		.byte	0x50
 5771 1ae5 02       		.uleb128 0x2
 5772 1ae6 74       		.byte	0x74
ARM GAS  C:\Users\d3bug\AppData\Local\Temp\ccVxVFSv.s 			page 121


 5773 1ae7 00       		.sleb128 0
 5774 1ae8 00       		.byte	0
 5775 1ae9 1F       		.uleb128 0x1f
 5776 1aea 7A000000 		.4byte	.LVL277
 5777 1aee 581F0000 		.4byte	0x1f58
 5778 1af2 021B0000 		.4byte	0x1b02
 5779 1af6 20       		.uleb128 0x20
 5780 1af7 01       		.uleb128 0x1
 5781 1af8 50       		.byte	0x50
 5782 1af9 02       		.uleb128 0x2
 5783 1afa 74       		.byte	0x74
 5784 1afb 00       		.sleb128 0
 5785 1afc 20       		.uleb128 0x20
 5786 1afd 01       		.uleb128 0x1
 5787 1afe 51       		.byte	0x51
 5788 1aff 01       		.uleb128 0x1
 5789 1b00 34       		.byte	0x34
 5790 1b01 00       		.byte	0
 5791 1b02 1F       		.uleb128 0x1f
 5792 1b03 8C000000 		.4byte	.LVL278
 5793 1b07 921F0000 		.4byte	0x1f92
 5794 1b0b 2F1B0000 		.4byte	0x1b2f
 5795 1b0f 20       		.uleb128 0x20
 5796 1b10 01       		.uleb128 0x1
 5797 1b11 50       		.byte	0x50
 5798 1b12 02       		.uleb128 0x2
 5799 1b13 74       		.byte	0x74
 5800 1b14 00       		.sleb128 0
 5801 1b15 20       		.uleb128 0x20
 5802 1b16 01       		.uleb128 0x1
 5803 1b17 51       		.byte	0x51
 5804 1b18 02       		.uleb128 0x2
 5805 1b19 76       		.byte	0x76
 5806 1b1a 00       		.sleb128 0
 5807 1b1b 20       		.uleb128 0x20
 5808 1b1c 01       		.uleb128 0x1
 5809 1b1d 52       		.byte	0x52
 5810 1b1e 02       		.uleb128 0x2
 5811 1b1f 79       		.byte	0x79
 5812 1b20 00       		.sleb128 0
 5813 1b21 20       		.uleb128 0x20
 5814 1b22 01       		.uleb128 0x1
 5815 1b23 53       		.byte	0x53
 5816 1b24 02       		.uleb128 0x2
 5817 1b25 7A       		.byte	0x7a
 5818 1b26 00       		.sleb128 0
 5819 1b27 20       		.uleb128 0x20
 5820 1b28 02       		.uleb128 0x2
 5821 1b29 7D       		.byte	0x7d
 5822 1b2a 00       		.sleb128 0
 5823 1b2b 02       		.uleb128 0x2
 5824 1b2c 78       		.byte	0x78
 5825 1b2d 00       		.sleb128 0
 5826 1b2e 00       		.byte	0
 5827 1b2f 1F       		.uleb128 0x1f
 5828 1b30 92000000 		.4byte	.LVL279
 5829 1b34 B51F0000 		.4byte	0x1fb5
ARM GAS  C:\Users\d3bug\AppData\Local\Temp\ccVxVFSv.s 			page 122


 5830 1b38 431B0000 		.4byte	0x1b43
 5831 1b3c 20       		.uleb128 0x20
 5832 1b3d 01       		.uleb128 0x1
 5833 1b3e 50       		.byte	0x50
 5834 1b3f 02       		.uleb128 0x2
 5835 1b40 74       		.byte	0x74
 5836 1b41 00       		.sleb128 0
 5837 1b42 00       		.byte	0
 5838 1b43 1F       		.uleb128 0x1f
 5839 1b44 A8000000 		.4byte	.LVL281
 5840 1b48 9E1F0000 		.4byte	0x1f9e
 5841 1b4c 5D1B0000 		.4byte	0x1b5d
 5842 1b50 20       		.uleb128 0x20
 5843 1b51 01       		.uleb128 0x1
 5844 1b52 50       		.byte	0x50
 5845 1b53 02       		.uleb128 0x2
 5846 1b54 75       		.byte	0x75
 5847 1b55 00       		.sleb128 0
 5848 1b56 20       		.uleb128 0x20
 5849 1b57 01       		.uleb128 0x1
 5850 1b58 51       		.byte	0x51
 5851 1b59 02       		.uleb128 0x2
 5852 1b5a 74       		.byte	0x74
 5853 1b5b 00       		.sleb128 0
 5854 1b5c 00       		.byte	0
 5855 1b5d 21       		.uleb128 0x21
 5856 1b5e B6000000 		.4byte	.LVL284
 5857 1b62 A91F0000 		.4byte	0x1fa9
 5858 1b66 20       		.uleb128 0x20
 5859 1b67 01       		.uleb128 0x1
 5860 1b68 50       		.byte	0x50
 5861 1b69 02       		.uleb128 0x2
 5862 1b6a 76       		.byte	0x76
 5863 1b6b 00       		.sleb128 0
 5864 1b6c 20       		.uleb128 0x20
 5865 1b6d 01       		.uleb128 0x1
 5866 1b6e 51       		.byte	0x51
 5867 1b6f 01       		.uleb128 0x1
 5868 1b70 31       		.byte	0x31
 5869 1b71 00       		.byte	0
 5870 1b72 00       		.byte	0
 5871 1b73 1C       		.uleb128 0x1c
 5872 1b74 56080000 		.4byte	.LASF232
 5873 1b78 01       		.byte	0x1
 5874 1b79 0801     		.2byte	0x108
 5875 1b7b 00000000 		.4byte	.LFB23
 5876 1b7f 5A000000 		.4byte	.LFE23-.LFB23
 5877 1b83 01       		.uleb128 0x1
 5878 1b84 9C       		.byte	0x9c
 5879 1b85 351C0000 		.4byte	0x1c35
 5880 1b89 1D       		.uleb128 0x1d
 5881 1b8a 8C000000 		.4byte	.LASF180
 5882 1b8e 01       		.byte	0x1
 5883 1b8f 0801     		.2byte	0x108
 5884 1b91 A50A0000 		.4byte	0xaa5
 5885 1b95 E5090000 		.4byte	.LLST70
 5886 1b99 24       		.uleb128 0x24
ARM GAS  C:\Users\d3bug\AppData\Local\Temp\ccVxVFSv.s 			page 123


 5887 1b9a 020C0000 		.4byte	.LASF48
 5888 1b9e 01       		.byte	0x1
 5889 1b9f 0A01     		.2byte	0x10a
 5890 1ba1 4C090000 		.4byte	0x94c
 5891 1ba5 01       		.uleb128 0x1
 5892 1ba6 54       		.byte	0x54
 5893 1ba7 1F       		.uleb128 0x1f
 5894 1ba8 08000000 		.4byte	.LVL286
 5895 1bac 3C180000 		.4byte	0x183c
 5896 1bb0 BB1B0000 		.4byte	0x1bbb
 5897 1bb4 20       		.uleb128 0x20
 5898 1bb5 01       		.uleb128 0x1
 5899 1bb6 50       		.byte	0x50
 5900 1bb7 02       		.uleb128 0x2
 5901 1bb8 75       		.byte	0x75
 5902 1bb9 00       		.sleb128 0
 5903 1bba 00       		.byte	0
 5904 1bbb 1F       		.uleb128 0x1f
 5905 1bbc 12000000 		.4byte	.LVL288
 5906 1bc0 C11F0000 		.4byte	0x1fc1
 5907 1bc4 D41B0000 		.4byte	0x1bd4
 5908 1bc8 20       		.uleb128 0x20
 5909 1bc9 01       		.uleb128 0x1
 5910 1bca 50       		.byte	0x50
 5911 1bcb 02       		.uleb128 0x2
 5912 1bcc 75       		.byte	0x75
 5913 1bcd 00       		.sleb128 0
 5914 1bce 20       		.uleb128 0x20
 5915 1bcf 01       		.uleb128 0x1
 5916 1bd0 51       		.byte	0x51
 5917 1bd1 01       		.uleb128 0x1
 5918 1bd2 30       		.byte	0x30
 5919 1bd3 00       		.byte	0
 5920 1bd4 1F       		.uleb128 0x1f
 5921 1bd5 20000000 		.4byte	.LVL289
 5922 1bd9 0A0B0000 		.4byte	0xb0a
 5923 1bdd E81B0000 		.4byte	0x1be8
 5924 1be1 20       		.uleb128 0x20
 5925 1be2 01       		.uleb128 0x1
 5926 1be3 50       		.byte	0x50
 5927 1be4 02       		.uleb128 0x2
 5928 1be5 75       		.byte	0x75
 5929 1be6 00       		.sleb128 0
 5930 1be7 00       		.byte	0
 5931 1be8 1F       		.uleb128 0x1f
 5932 1be9 30000000 		.4byte	.LVL291
 5933 1bed 85180000 		.4byte	0x1885
 5934 1bf1 FC1B0000 		.4byte	0x1bfc
 5935 1bf5 20       		.uleb128 0x20
 5936 1bf6 01       		.uleb128 0x1
 5937 1bf7 50       		.byte	0x50
 5938 1bf8 02       		.uleb128 0x2
 5939 1bf9 75       		.byte	0x75
 5940 1bfa 00       		.sleb128 0
 5941 1bfb 00       		.byte	0
 5942 1bfc 1F       		.uleb128 0x1f
 5943 1bfd 40000000 		.4byte	.LVL293
ARM GAS  C:\Users\d3bug\AppData\Local\Temp\ccVxVFSv.s 			page 124


 5944 1c01 FC190000 		.4byte	0x19fc
 5945 1c05 101C0000 		.4byte	0x1c10
 5946 1c09 20       		.uleb128 0x20
 5947 1c0a 01       		.uleb128 0x1
 5948 1c0b 50       		.byte	0x50
 5949 1c0c 02       		.uleb128 0x2
 5950 1c0d 75       		.byte	0x75
 5951 1c0e 00       		.sleb128 0
 5952 1c0f 00       		.byte	0
 5953 1c10 1F       		.uleb128 0x1f
 5954 1c11 4C000000 		.4byte	.LVL295
 5955 1c15 D90C0000 		.4byte	0xcd9
 5956 1c19 241C0000 		.4byte	0x1c24
 5957 1c1d 20       		.uleb128 0x20
 5958 1c1e 01       		.uleb128 0x1
 5959 1c1f 50       		.byte	0x50
 5960 1c20 02       		.uleb128 0x2
 5961 1c21 75       		.byte	0x75
 5962 1c22 00       		.sleb128 0
 5963 1c23 00       		.byte	0
 5964 1c24 21       		.uleb128 0x21
 5965 1c25 58000000 		.4byte	.LVL297
 5966 1c29 0B110000 		.4byte	0x110b
 5967 1c2d 20       		.uleb128 0x20
 5968 1c2e 01       		.uleb128 0x1
 5969 1c2f 50       		.byte	0x50
 5970 1c30 02       		.uleb128 0x2
 5971 1c31 75       		.byte	0x75
 5972 1c32 00       		.sleb128 0
 5973 1c33 00       		.byte	0
 5974 1c34 00       		.byte	0
 5975 1c35 33       		.uleb128 0x33
 5976 1c36 A0050000 		.4byte	.LASF269
 5977 1c3a 01       		.byte	0x1
 5978 1c3b E3       		.byte	0xe3
 5979 1c3c BD060000 		.4byte	0x6bd
 5980 1c40 00000000 		.4byte	.LFB22
 5981 1c44 A4000000 		.4byte	.LFE22-.LFB22
 5982 1c48 01       		.uleb128 0x1
 5983 1c49 9C       		.byte	0x9c
 5984 1c4a 9F1D0000 		.4byte	0x1d9f
 5985 1c4e 2D       		.uleb128 0x2d
 5986 1c4f 8C000000 		.4byte	.LASF180
 5987 1c53 01       		.byte	0x1
 5988 1c54 E3       		.byte	0xe3
 5989 1c55 A50A0000 		.4byte	0xaa5
 5990 1c59 030A0000 		.4byte	.LLST71
 5991 1c5d 2D       		.uleb128 0x2d
 5992 1c5e 17050000 		.4byte	.LASF233
 5993 1c62 01       		.byte	0x1
 5994 1c63 E3       		.byte	0xe3
 5995 1c64 53070000 		.4byte	0x753
 5996 1c68 2F0A0000 		.4byte	.LLST72
 5997 1c6c 2D       		.uleb128 0x2d
 5998 1c6d 10080000 		.4byte	.LASF234
 5999 1c71 01       		.byte	0x1
 6000 1c72 E3       		.byte	0xe3
ARM GAS  C:\Users\d3bug\AppData\Local\Temp\ccVxVFSv.s 			page 125


 6001 1c73 33010000 		.4byte	0x133
 6002 1c77 500A0000 		.4byte	.LLST73
 6003 1c7b 2F       		.uleb128 0x2f
 6004 1c7c 72657300 		.ascii	"res\000"
 6005 1c80 01       		.byte	0x1
 6006 1c81 E5       		.byte	0xe5
 6007 1c82 BD060000 		.4byte	0x6bd
 6008 1c86 7C0A0000 		.4byte	.LLST74
 6009 1c8a 30       		.uleb128 0x30
 6010 1c8b AB0A0000 		.4byte	0xaab
 6011 1c8f 42000000 		.4byte	.LBB32
 6012 1c93 0E000000 		.4byte	.LBE32-.LBB32
 6013 1c97 01       		.byte	0x1
 6014 1c98 F2       		.byte	0xf2
 6015 1c99 A71C0000 		.4byte	0x1ca7
 6016 1c9d 28       		.uleb128 0x28
 6017 1c9e BB0A0000 		.4byte	0xabb
 6018 1ca2 B00A0000 		.4byte	.LLST75
 6019 1ca6 00       		.byte	0
 6020 1ca7 30       		.uleb128 0x30
 6021 1ca8 C70A0000 		.4byte	0xac7
 6022 1cac 5A000000 		.4byte	.LBB34
 6023 1cb0 0E000000 		.4byte	.LBE34-.LBB34
 6024 1cb4 01       		.byte	0x1
 6025 1cb5 F3       		.byte	0xf3
 6026 1cb6 C41C0000 		.4byte	0x1cc4
 6027 1cba 28       		.uleb128 0x28
 6028 1cbb D70A0000 		.4byte	0xad7
 6029 1cbf C30A0000 		.4byte	.LLST76
 6030 1cc3 00       		.byte	0
 6031 1cc4 34       		.uleb128 0x34
 6032 1cc5 00000000 		.4byte	.Ldebug_ranges0+0
 6033 1cc9 E61C0000 		.4byte	0x1ce6
 6034 1ccd 35       		.uleb128 0x35
 6035 1cce 62756600 		.ascii	"buf\000"
 6036 1cd2 01       		.byte	0x1
 6037 1cd3 F8       		.byte	0xf8
 6038 1cd4 9F1D0000 		.4byte	0x1d9f
 6039 1cd8 2F       		.uleb128 0x2f
 6040 1cd9 6900     		.ascii	"i\000"
 6041 1cdb 01       		.byte	0x1
 6042 1cdc F9       		.byte	0xf9
 6043 1cdd 9E000000 		.4byte	0x9e
 6044 1ce1 D60A0000 		.4byte	.LLST77
 6045 1ce5 00       		.byte	0
 6046 1ce6 29       		.uleb128 0x29
 6047 1ce7 0E000000 		.4byte	.LVL299
 6048 1ceb 021D0000 		.4byte	0x1d02
 6049 1cef 20       		.uleb128 0x20
 6050 1cf0 01       		.uleb128 0x1
 6051 1cf1 50       		.byte	0x50
 6052 1cf2 02       		.uleb128 0x2
 6053 1cf3 77       		.byte	0x77
 6054 1cf4 00       		.sleb128 0
 6055 1cf5 20       		.uleb128 0x20
 6056 1cf6 01       		.uleb128 0x1
 6057 1cf7 51       		.byte	0x51
ARM GAS  C:\Users\d3bug\AppData\Local\Temp\ccVxVFSv.s 			page 126


 6058 1cf8 02       		.uleb128 0x2
 6059 1cf9 75       		.byte	0x75
 6060 1cfa 00       		.sleb128 0
 6061 1cfb 20       		.uleb128 0x20
 6062 1cfc 01       		.uleb128 0x1
 6063 1cfd 52       		.byte	0x52
 6064 1cfe 02       		.uleb128 0x2
 6065 1cff 76       		.byte	0x76
 6066 1d00 00       		.sleb128 0
 6067 1d01 00       		.byte	0
 6068 1d02 1F       		.uleb128 0x1f
 6069 1d03 1E000000 		.4byte	.LVL302
 6070 1d07 731B0000 		.4byte	0x1b73
 6071 1d0b 161D0000 		.4byte	0x1d16
 6072 1d0f 20       		.uleb128 0x20
 6073 1d10 01       		.uleb128 0x1
 6074 1d11 50       		.byte	0x50
 6075 1d12 02       		.uleb128 0x2
 6076 1d13 77       		.byte	0x77
 6077 1d14 00       		.sleb128 0
 6078 1d15 00       		.byte	0
 6079 1d16 1F       		.uleb128 0x1f
 6080 1d17 24000000 		.4byte	.LVL303
 6081 1d1b 15130000 		.4byte	0x1315
 6082 1d1f 2A1D0000 		.4byte	0x1d2a
 6083 1d23 20       		.uleb128 0x20
 6084 1d24 01       		.uleb128 0x1
 6085 1d25 50       		.byte	0x50
 6086 1d26 02       		.uleb128 0x2
 6087 1d27 77       		.byte	0x77
 6088 1d28 00       		.sleb128 0
 6089 1d29 00       		.byte	0
 6090 1d2a 1F       		.uleb128 0x1f
 6091 1d2b 30000000 		.4byte	.LVL306
 6092 1d2f 731B0000 		.4byte	0x1b73
 6093 1d33 3E1D0000 		.4byte	0x1d3e
 6094 1d37 20       		.uleb128 0x20
 6095 1d38 01       		.uleb128 0x1
 6096 1d39 50       		.byte	0x50
 6097 1d3a 02       		.uleb128 0x2
 6098 1d3b 77       		.byte	0x77
 6099 1d3c 00       		.sleb128 0
 6100 1d3d 00       		.byte	0
 6101 1d3e 1F       		.uleb128 0x1f
 6102 1d3f 36000000 		.4byte	.LVL307
 6103 1d43 15130000 		.4byte	0x1315
 6104 1d47 521D0000 		.4byte	0x1d52
 6105 1d4b 20       		.uleb128 0x20
 6106 1d4c 01       		.uleb128 0x1
 6107 1d4d 50       		.byte	0x50
 6108 1d4e 02       		.uleb128 0x2
 6109 1d4f 77       		.byte	0x77
 6110 1d50 00       		.sleb128 0
 6111 1d51 00       		.byte	0
 6112 1d52 1F       		.uleb128 0x1f
 6113 1d53 42000000 		.4byte	.LVL310
 6114 1d57 B51F0000 		.4byte	0x1fb5
ARM GAS  C:\Users\d3bug\AppData\Local\Temp\ccVxVFSv.s 			page 127


 6115 1d5b 661D0000 		.4byte	0x1d66
 6116 1d5f 20       		.uleb128 0x20
 6117 1d60 01       		.uleb128 0x1
 6118 1d61 50       		.byte	0x50
 6119 1d62 02       		.uleb128 0x2
 6120 1d63 77       		.byte	0x77
 6121 1d64 00       		.sleb128 0
 6122 1d65 00       		.byte	0
 6123 1d66 1F       		.uleb128 0x1f
 6124 1d67 5A000000 		.4byte	.LVL312
 6125 1d6b 641F0000 		.4byte	0x1f64
 6126 1d6f 7A1D0000 		.4byte	0x1d7a
 6127 1d73 20       		.uleb128 0x20
 6128 1d74 01       		.uleb128 0x1
 6129 1d75 50       		.byte	0x50
 6130 1d76 02       		.uleb128 0x2
 6131 1d77 77       		.byte	0x77
 6132 1d78 00       		.sleb128 0
 6133 1d79 00       		.byte	0
 6134 1d7a 1F       		.uleb128 0x1f
 6135 1d7b 72000000 		.4byte	.LVL314
 6136 1d7f 731B0000 		.4byte	0x1b73
 6137 1d83 8E1D0000 		.4byte	0x1d8e
 6138 1d87 20       		.uleb128 0x20
 6139 1d88 01       		.uleb128 0x1
 6140 1d89 50       		.byte	0x50
 6141 1d8a 02       		.uleb128 0x2
 6142 1d8b 77       		.byte	0x77
 6143 1d8c 00       		.sleb128 0
 6144 1d8d 00       		.byte	0
 6145 1d8e 21       		.uleb128 0x21
 6146 1d8f 78000000 		.4byte	.LVL315
 6147 1d93 15130000 		.4byte	0x1315
 6148 1d97 20       		.uleb128 0x20
 6149 1d98 01       		.uleb128 0x1
 6150 1d99 50       		.byte	0x50
 6151 1d9a 02       		.uleb128 0x2
 6152 1d9b 77       		.byte	0x77
 6153 1d9c 00       		.sleb128 0
 6154 1d9d 00       		.byte	0
 6155 1d9e 00       		.byte	0
 6156 1d9f 09       		.uleb128 0x9
 6157 1da0 04       		.byte	0x4
 6158 1da1 F8080000 		.4byte	0x8f8
 6159 1da5 2B       		.uleb128 0x2b
 6160 1da6 64090000 		.4byte	.LASF235
 6161 1daa 01       		.byte	0x1
 6162 1dab AF       		.byte	0xaf
 6163 1dac 7A050000 		.4byte	0x57a
 6164 1db0 00000000 		.4byte	.LFB18
 6165 1db4 0E000000 		.4byte	.LFE18-.LFB18
 6166 1db8 01       		.uleb128 0x1
 6167 1db9 9C       		.byte	0x9c
 6168 1dba EE1D0000 		.4byte	0x1dee
 6169 1dbe 2D       		.uleb128 0x2d
 6170 1dbf 8C000000 		.4byte	.LASF180
 6171 1dc3 01       		.byte	0x1
ARM GAS  C:\Users\d3bug\AppData\Local\Temp\ccVxVFSv.s 			page 128


 6172 1dc4 AF       		.byte	0xaf
 6173 1dc5 FF0A0000 		.4byte	0xaff
 6174 1dc9 FF0A0000 		.4byte	.LLST78
 6175 1dcd 2F       		.uleb128 0x2f
 6176 1dce 65787400 		.ascii	"ext\000"
 6177 1dd2 01       		.byte	0x1
 6178 1dd3 B1       		.byte	0xb1
 6179 1dd4 EF140000 		.4byte	0x14ef
 6180 1dd8 200B0000 		.4byte	.LLST79
 6181 1ddc 21       		.uleb128 0x21
 6182 1ddd 06000000 		.4byte	.LVL325
 6183 1de1 F11F0000 		.4byte	0x1ff1
 6184 1de5 20       		.uleb128 0x20
 6185 1de6 01       		.uleb128 0x1
 6186 1de7 50       		.byte	0x50
 6187 1de8 03       		.uleb128 0x3
 6188 1de9 F3       		.byte	0xf3
 6189 1dea 01       		.uleb128 0x1
 6190 1deb 50       		.byte	0x50
 6191 1dec 00       		.byte	0
 6192 1ded 00       		.byte	0
 6193 1dee 2B       		.uleb128 0x2b
 6194 1def 2A050000 		.4byte	.LASF236
 6195 1df3 01       		.byte	0x1
 6196 1df4 BA       		.byte	0xba
 6197 1df5 7A050000 		.4byte	0x57a
 6198 1df9 00000000 		.4byte	.LFB19
 6199 1dfd 0E000000 		.4byte	.LFE19-.LFB19
 6200 1e01 01       		.uleb128 0x1
 6201 1e02 9C       		.byte	0x9c
 6202 1e03 371E0000 		.4byte	0x1e37
 6203 1e07 2D       		.uleb128 0x2d
 6204 1e08 8C000000 		.4byte	.LASF180
 6205 1e0c 01       		.byte	0x1
 6206 1e0d BA       		.byte	0xba
 6207 1e0e FF0A0000 		.4byte	0xaff
 6208 1e12 330B0000 		.4byte	.LLST80
 6209 1e16 2F       		.uleb128 0x2f
 6210 1e17 65787400 		.ascii	"ext\000"
 6211 1e1b 01       		.byte	0x1
 6212 1e1c BC       		.byte	0xbc
 6213 1e1d EF140000 		.4byte	0x14ef
 6214 1e21 540B0000 		.4byte	.LLST81
 6215 1e25 21       		.uleb128 0x21
 6216 1e26 06000000 		.4byte	.LVL328
 6217 1e2a F11F0000 		.4byte	0x1ff1
 6218 1e2e 20       		.uleb128 0x20
 6219 1e2f 01       		.uleb128 0x1
 6220 1e30 50       		.byte	0x50
 6221 1e31 03       		.uleb128 0x3
 6222 1e32 F3       		.byte	0xf3
 6223 1e33 01       		.uleb128 0x1
 6224 1e34 50       		.byte	0x50
 6225 1e35 00       		.byte	0
 6226 1e36 00       		.byte	0
 6227 1e37 2B       		.uleb128 0x2b
 6228 1e38 D30C0000 		.4byte	.LASF237
ARM GAS  C:\Users\d3bug\AppData\Local\Temp\ccVxVFSv.s 			page 129


 6229 1e3c 01       		.byte	0x1
 6230 1e3d C5       		.byte	0xc5
 6231 1e3e 47010000 		.4byte	0x147
 6232 1e42 00000000 		.4byte	.LFB20
 6233 1e46 1C000000 		.4byte	.LFE20-.LFB20
 6234 1e4a 01       		.uleb128 0x1
 6235 1e4b 9C       		.byte	0x9c
 6236 1e4c A81E0000 		.4byte	0x1ea8
 6237 1e50 2D       		.uleb128 0x2d
 6238 1e51 8C000000 		.4byte	.LASF180
 6239 1e55 01       		.byte	0x1
 6240 1e56 C5       		.byte	0xc5
 6241 1e57 A50A0000 		.4byte	0xaa5
 6242 1e5b 670B0000 		.4byte	.LLST82
 6243 1e5f 36       		.uleb128 0x36
 6244 1e60 19000000 		.4byte	.LASF186
 6245 1e64 01       		.byte	0x1
 6246 1e65 C7       		.byte	0xc7
 6247 1e66 8B080000 		.4byte	0x88b
 6248 1e6a 30       		.uleb128 0x30
 6249 1e6b E30A0000 		.4byte	0xae3
 6250 1e6f 04000000 		.4byte	.LBB38
 6251 1e73 06000000 		.4byte	.LBE38-.LBB38
 6252 1e77 01       		.byte	0x1
 6253 1e78 C7       		.byte	0xc7
 6254 1e79 971E0000 		.4byte	0x1e97
 6255 1e7d 28       		.uleb128 0x28
 6256 1e7e F30A0000 		.4byte	0xaf3
 6257 1e82 850B0000 		.4byte	.LLST83
 6258 1e86 21       		.uleb128 0x21
 6259 1e87 08000000 		.4byte	.LVL332
 6260 1e8b 351F0000 		.4byte	0x1f35
 6261 1e8f 20       		.uleb128 0x20
 6262 1e90 01       		.uleb128 0x1
 6263 1e91 50       		.byte	0x50
 6264 1e92 02       		.uleb128 0x2
 6265 1e93 75       		.byte	0x75
 6266 1e94 00       		.sleb128 0
 6267 1e95 00       		.byte	0
 6268 1e96 00       		.byte	0
 6269 1e97 21       		.uleb128 0x21
 6270 1e98 10000000 		.4byte	.LVL334
 6271 1e9c B51F0000 		.4byte	0x1fb5
 6272 1ea0 20       		.uleb128 0x20
 6273 1ea1 01       		.uleb128 0x1
 6274 1ea2 50       		.byte	0x50
 6275 1ea3 02       		.uleb128 0x2
 6276 1ea4 75       		.byte	0x75
 6277 1ea5 00       		.sleb128 0
 6278 1ea6 00       		.byte	0
 6279 1ea7 00       		.byte	0
 6280 1ea8 2B       		.uleb128 0x2b
 6281 1ea9 38000000 		.4byte	.LASF238
 6282 1ead 01       		.byte	0x1
 6283 1eae D1       		.byte	0xd1
 6284 1eaf 47010000 		.4byte	0x147
 6285 1eb3 00000000 		.4byte	.LFB21
ARM GAS  C:\Users\d3bug\AppData\Local\Temp\ccVxVFSv.s 			page 130


 6286 1eb7 1C000000 		.4byte	.LFE21-.LFB21
 6287 1ebb 01       		.uleb128 0x1
 6288 1ebc 9C       		.byte	0x9c
 6289 1ebd 191F0000 		.4byte	0x1f19
 6290 1ec1 2D       		.uleb128 0x2d
 6291 1ec2 8C000000 		.4byte	.LASF180
 6292 1ec6 01       		.byte	0x1
 6293 1ec7 D1       		.byte	0xd1
 6294 1ec8 A50A0000 		.4byte	0xaa5
 6295 1ecc A30B0000 		.4byte	.LLST84
 6296 1ed0 36       		.uleb128 0x36
 6297 1ed1 19000000 		.4byte	.LASF186
 6298 1ed5 01       		.byte	0x1
 6299 1ed6 D3       		.byte	0xd3
 6300 1ed7 8B080000 		.4byte	0x88b
 6301 1edb 30       		.uleb128 0x30
 6302 1edc E30A0000 		.4byte	0xae3
 6303 1ee0 04000000 		.4byte	.LBB40
 6304 1ee4 06000000 		.4byte	.LBE40-.LBB40
 6305 1ee8 01       		.byte	0x1
 6306 1ee9 D3       		.byte	0xd3
 6307 1eea 081F0000 		.4byte	0x1f08
 6308 1eee 28       		.uleb128 0x28
 6309 1eef F30A0000 		.4byte	0xaf3
 6310 1ef3 C10B0000 		.4byte	.LLST85
 6311 1ef7 21       		.uleb128 0x21
 6312 1ef8 08000000 		.4byte	.LVL337
 6313 1efc 351F0000 		.4byte	0x1f35
 6314 1f00 20       		.uleb128 0x20
 6315 1f01 01       		.uleb128 0x1
 6316 1f02 50       		.byte	0x50
 6317 1f03 02       		.uleb128 0x2
 6318 1f04 75       		.byte	0x75
 6319 1f05 00       		.sleb128 0
 6320 1f06 00       		.byte	0
 6321 1f07 00       		.byte	0
 6322 1f08 21       		.uleb128 0x21
 6323 1f09 10000000 		.4byte	.LVL339
 6324 1f0d B51F0000 		.4byte	0x1fb5
 6325 1f11 20       		.uleb128 0x20
 6326 1f12 01       		.uleb128 0x1
 6327 1f13 50       		.byte	0x50
 6328 1f14 02       		.uleb128 0x2
 6329 1f15 75       		.byte	0x75
 6330 1f16 00       		.sleb128 0
 6331 1f17 00       		.byte	0
 6332 1f18 00       		.byte	0
 6333 1f19 37       		.uleb128 0x37
 6334 1f1a BE0E0000 		.4byte	.LASF239
 6335 1f1e 01       		.byte	0x1
 6336 1f1f 2F       		.byte	0x2f
 6337 1f20 5E070000 		.4byte	0x75e
 6338 1f24 05       		.uleb128 0x5
 6339 1f25 03       		.byte	0x3
 6340 1f26 00000000 		.4byte	ancestor_signal
 6341 1f2a 38       		.uleb128 0x38
 6342 1f2b 36020000 		.4byte	.LASF270
ARM GAS  C:\Users\d3bug\AppData\Local\Temp\ccVxVFSv.s 			page 131


 6343 1f2f 08       		.byte	0x8
 6344 1f30 B6       		.byte	0xb6
 6345 1f31 F1040000 		.4byte	0x4f1
 6346 1f35 39       		.uleb128 0x39
 6347 1f36 E50D0000 		.4byte	.LASF240
 6348 1f3a E50D0000 		.4byte	.LASF240
 6349 1f3e 0A       		.byte	0xa
 6350 1f3f AB02     		.2byte	0x2ab
 6351 1f41 3A       		.uleb128 0x3a
 6352 1f42 31080000 		.4byte	.LASF241
 6353 1f46 31080000 		.4byte	.LASF241
 6354 1f4a 09       		.byte	0x9
 6355 1f4b 64       		.byte	0x64
 6356 1f4c 39       		.uleb128 0x39
 6357 1f4d FE070000 		.4byte	.LASF242
 6358 1f51 FE070000 		.4byte	.LASF242
 6359 1f55 0A       		.byte	0xa
 6360 1f56 B602     		.2byte	0x2b6
 6361 1f58 39       		.uleb128 0x39
 6362 1f59 1B0B0000 		.4byte	.LASF243
 6363 1f5d 1B0B0000 		.4byte	.LASF243
 6364 1f61 0A       		.byte	0xa
 6365 1f62 F702     		.2byte	0x2f7
 6366 1f64 39       		.uleb128 0x39
 6367 1f65 E1020000 		.4byte	.LASF244
 6368 1f69 E1020000 		.4byte	.LASF244
 6369 1f6d 0A       		.byte	0xa
 6370 1f6e 9202     		.2byte	0x292
 6371 1f70 3A       		.uleb128 0x3a
 6372 1f71 6B0B0000 		.4byte	.LASF245
 6373 1f75 6B0B0000 		.4byte	.LASF245
 6374 1f79 09       		.byte	0x9
 6375 1f7a 73       		.byte	0x73
 6376 1f7b 39       		.uleb128 0x39
 6377 1f7c 30070000 		.4byte	.LASF246
 6378 1f80 30070000 		.4byte	.LASF246
 6379 1f84 0A       		.byte	0xa
 6380 1f85 DD01     		.2byte	0x1dd
 6381 1f87 3A       		.uleb128 0x3a
 6382 1f88 10060000 		.4byte	.LASF247
 6383 1f8c 10060000 		.4byte	.LASF247
 6384 1f90 09       		.byte	0x9
 6385 1f91 6B       		.byte	0x6b
 6386 1f92 39       		.uleb128 0x39
 6387 1f93 C8020000 		.4byte	.LASF248
 6388 1f97 C8020000 		.4byte	.LASF248
 6389 1f9b 0A       		.byte	0xa
 6390 1f9c 6101     		.2byte	0x161
 6391 1f9e 3A       		.uleb128 0x3a
 6392 1f9f 25090000 		.4byte	.LASF249
 6393 1fa3 25090000 		.4byte	.LASF249
 6394 1fa7 09       		.byte	0x9
 6395 1fa8 7B       		.byte	0x7b
 6396 1fa9 39       		.uleb128 0x39
 6397 1faa 750C0000 		.4byte	.LASF250
 6398 1fae 750C0000 		.4byte	.LASF250
 6399 1fb2 0A       		.byte	0xa
ARM GAS  C:\Users\d3bug\AppData\Local\Temp\ccVxVFSv.s 			page 132


 6400 1fb3 E401     		.2byte	0x1e4
 6401 1fb5 39       		.uleb128 0x39
 6402 1fb6 FF050000 		.4byte	.LASF251
 6403 1fba FF050000 		.4byte	.LASF251
 6404 1fbe 0A       		.byte	0xa
 6405 1fbf 8B02     		.2byte	0x28b
 6406 1fc1 39       		.uleb128 0x39
 6407 1fc2 BD030000 		.4byte	.LASF252
 6408 1fc6 BD030000 		.4byte	.LASF252
 6409 1fca 0A       		.byte	0xa
 6410 1fcb 5B02     		.2byte	0x25b
 6411 1fcd 39       		.uleb128 0x39
 6412 1fce 5B050000 		.4byte	.LASF253
 6413 1fd2 5B050000 		.4byte	.LASF253
 6414 1fd6 0A       		.byte	0xa
 6415 1fd7 3301     		.2byte	0x133
 6416 1fd9 39       		.uleb128 0x39
 6417 1fda C5080000 		.4byte	.LASF254
 6418 1fde C5080000 		.4byte	.LASF254
 6419 1fe2 0A       		.byte	0xa
 6420 1fe3 0E01     		.2byte	0x10e
 6421 1fe5 39       		.uleb128 0x39
 6422 1fe6 75020000 		.4byte	.LASF255
 6423 1fea 75020000 		.4byte	.LASF255
 6424 1fee 0A       		.byte	0xa
 6425 1fef 5202     		.2byte	0x252
 6426 1ff1 39       		.uleb128 0x39
 6427 1ff2 810D0000 		.4byte	.LASF256
 6428 1ff6 810D0000 		.4byte	.LASF256
 6429 1ffa 0A       		.byte	0xa
 6430 1ffb 1103     		.2byte	0x311
 6431 1ffd 39       		.uleb128 0x39
 6432 1ffe 4B0A0000 		.4byte	.LASF257
 6433 2002 4B0A0000 		.4byte	.LASF257
 6434 2006 0A       		.byte	0xa
 6435 2007 7602     		.2byte	0x276
 6436 2009 39       		.uleb128 0x39
 6437 200a C1050000 		.4byte	.LASF258
 6438 200e C1050000 		.4byte	.LASF258
 6439 2012 0A       		.byte	0xa
 6440 2013 8301     		.2byte	0x183
 6441 2015 39       		.uleb128 0x39
 6442 2016 F2010000 		.4byte	.LASF259
 6443 201a F2010000 		.4byte	.LASF259
 6444 201e 0B       		.byte	0xb
 6445 201f 3501     		.2byte	0x135
 6446 2021 39       		.uleb128 0x39
 6447 2022 91030000 		.4byte	.LASF260
 6448 2026 91030000 		.4byte	.LASF260
 6449 202a 0A       		.byte	0xa
 6450 202b 8901     		.2byte	0x189
 6451 202d 3A       		.uleb128 0x3a
 6452 202e D8090000 		.4byte	.LASF261
 6453 2032 D8090000 		.4byte	.LASF261
 6454 2036 0C       		.byte	0xc
 6455 2037 3D       		.byte	0x3d
 6456 2038 3A       		.uleb128 0x3a
ARM GAS  C:\Users\d3bug\AppData\Local\Temp\ccVxVFSv.s 			page 133


 6457 2039 F3020000 		.4byte	.LASF262
 6458 203d F3020000 		.4byte	.LASF262
 6459 2041 0A       		.byte	0xa
 6460 2042 FB       		.byte	0xfb
 6461 2043 39       		.uleb128 0x39
 6462 2044 3C0C0000 		.4byte	.LASF263
 6463 2048 3C0C0000 		.4byte	.LASF263
 6464 204c 0A       		.byte	0xa
 6465 204d FE02     		.2byte	0x2fe
 6466 204f 39       		.uleb128 0x39
 6467 2050 60030000 		.4byte	.LASF264
 6468 2054 60030000 		.4byte	.LASF264
 6469 2058 0A       		.byte	0xa
 6470 2059 FF01     		.2byte	0x1ff
 6471 205b 39       		.uleb128 0x39
 6472 205c A70E0000 		.4byte	.LASF265
 6473 2060 A70E0000 		.4byte	.LASF265
 6474 2064 0A       		.byte	0xa
 6475 2065 EC01     		.2byte	0x1ec
 6476 2067 00       		.byte	0
 6477              		.section	.debug_abbrev,"",%progbits
 6478              	.Ldebug_abbrev0:
 6479 0000 01       		.uleb128 0x1
 6480 0001 11       		.uleb128 0x11
 6481 0002 01       		.byte	0x1
 6482 0003 25       		.uleb128 0x25
 6483 0004 0E       		.uleb128 0xe
 6484 0005 13       		.uleb128 0x13
 6485 0006 0B       		.uleb128 0xb
 6486 0007 03       		.uleb128 0x3
 6487 0008 0E       		.uleb128 0xe
 6488 0009 1B       		.uleb128 0x1b
 6489 000a 0E       		.uleb128 0xe
 6490 000b 55       		.uleb128 0x55
 6491 000c 17       		.uleb128 0x17
 6492 000d 11       		.uleb128 0x11
 6493 000e 01       		.uleb128 0x1
 6494 000f 10       		.uleb128 0x10
 6495 0010 17       		.uleb128 0x17
 6496 0011 00       		.byte	0
 6497 0012 00       		.byte	0
 6498 0013 02       		.uleb128 0x2
 6499 0014 24       		.uleb128 0x24
 6500 0015 00       		.byte	0
 6501 0016 0B       		.uleb128 0xb
 6502 0017 0B       		.uleb128 0xb
 6503 0018 3E       		.uleb128 0x3e
 6504 0019 0B       		.uleb128 0xb
 6505 001a 03       		.uleb128 0x3
 6506 001b 08       		.uleb128 0x8
 6507 001c 00       		.byte	0
 6508 001d 00       		.byte	0
 6509 001e 03       		.uleb128 0x3
 6510 001f 24       		.uleb128 0x24
 6511 0020 00       		.byte	0
 6512 0021 0B       		.uleb128 0xb
 6513 0022 0B       		.uleb128 0xb
ARM GAS  C:\Users\d3bug\AppData\Local\Temp\ccVxVFSv.s 			page 134


 6514 0023 3E       		.uleb128 0x3e
 6515 0024 0B       		.uleb128 0xb
 6516 0025 03       		.uleb128 0x3
 6517 0026 0E       		.uleb128 0xe
 6518 0027 00       		.byte	0
 6519 0028 00       		.byte	0
 6520 0029 04       		.uleb128 0x4
 6521 002a 16       		.uleb128 0x16
 6522 002b 00       		.byte	0
 6523 002c 03       		.uleb128 0x3
 6524 002d 0E       		.uleb128 0xe
 6525 002e 3A       		.uleb128 0x3a
 6526 002f 0B       		.uleb128 0xb
 6527 0030 3B       		.uleb128 0x3b
 6528 0031 0B       		.uleb128 0xb
 6529 0032 49       		.uleb128 0x49
 6530 0033 13       		.uleb128 0x13
 6531 0034 00       		.byte	0
 6532 0035 00       		.byte	0
 6533 0036 05       		.uleb128 0x5
 6534 0037 17       		.uleb128 0x17
 6535 0038 01       		.byte	0x1
 6536 0039 0B       		.uleb128 0xb
 6537 003a 0B       		.uleb128 0xb
 6538 003b 3A       		.uleb128 0x3a
 6539 003c 0B       		.uleb128 0xb
 6540 003d 3B       		.uleb128 0x3b
 6541 003e 0B       		.uleb128 0xb
 6542 003f 01       		.uleb128 0x1
 6543 0040 13       		.uleb128 0x13
 6544 0041 00       		.byte	0
 6545 0042 00       		.byte	0
 6546 0043 06       		.uleb128 0x6
 6547 0044 0D       		.uleb128 0xd
 6548 0045 00       		.byte	0
 6549 0046 03       		.uleb128 0x3
 6550 0047 0E       		.uleb128 0xe
 6551 0048 3A       		.uleb128 0x3a
 6552 0049 0B       		.uleb128 0xb
 6553 004a 3B       		.uleb128 0x3b
 6554 004b 0B       		.uleb128 0xb
 6555 004c 49       		.uleb128 0x49
 6556 004d 13       		.uleb128 0x13
 6557 004e 0B       		.uleb128 0xb
 6558 004f 0B       		.uleb128 0xb
 6559 0050 0D       		.uleb128 0xd
 6560 0051 0B       		.uleb128 0xb
 6561 0052 0C       		.uleb128 0xc
 6562 0053 0B       		.uleb128 0xb
 6563 0054 00       		.byte	0
 6564 0055 00       		.byte	0
 6565 0056 07       		.uleb128 0x7
 6566 0057 0D       		.uleb128 0xd
 6567 0058 00       		.byte	0
 6568 0059 03       		.uleb128 0x3
 6569 005a 08       		.uleb128 0x8
 6570 005b 3A       		.uleb128 0x3a
ARM GAS  C:\Users\d3bug\AppData\Local\Temp\ccVxVFSv.s 			page 135


 6571 005c 0B       		.uleb128 0xb
 6572 005d 3B       		.uleb128 0x3b
 6573 005e 0B       		.uleb128 0xb
 6574 005f 49       		.uleb128 0x49
 6575 0060 13       		.uleb128 0x13
 6576 0061 0B       		.uleb128 0xb
 6577 0062 0B       		.uleb128 0xb
 6578 0063 0D       		.uleb128 0xd
 6579 0064 0B       		.uleb128 0xb
 6580 0065 0C       		.uleb128 0xc
 6581 0066 0B       		.uleb128 0xb
 6582 0067 00       		.byte	0
 6583 0068 00       		.byte	0
 6584 0069 08       		.uleb128 0x8
 6585 006a 0F       		.uleb128 0xf
 6586 006b 00       		.byte	0
 6587 006c 0B       		.uleb128 0xb
 6588 006d 0B       		.uleb128 0xb
 6589 006e 00       		.byte	0
 6590 006f 00       		.byte	0
 6591 0070 09       		.uleb128 0x9
 6592 0071 0F       		.uleb128 0xf
 6593 0072 00       		.byte	0
 6594 0073 0B       		.uleb128 0xb
 6595 0074 0B       		.uleb128 0xb
 6596 0075 49       		.uleb128 0x49
 6597 0076 13       		.uleb128 0x13
 6598 0077 00       		.byte	0
 6599 0078 00       		.byte	0
 6600 0079 0A       		.uleb128 0xa
 6601 007a 26       		.uleb128 0x26
 6602 007b 00       		.byte	0
 6603 007c 49       		.uleb128 0x49
 6604 007d 13       		.uleb128 0x13
 6605 007e 00       		.byte	0
 6606 007f 00       		.byte	0
 6607 0080 0B       		.uleb128 0xb
 6608 0081 13       		.uleb128 0x13
 6609 0082 01       		.byte	0x1
 6610 0083 0B       		.uleb128 0xb
 6611 0084 0B       		.uleb128 0xb
 6612 0085 3A       		.uleb128 0x3a
 6613 0086 0B       		.uleb128 0xb
 6614 0087 3B       		.uleb128 0x3b
 6615 0088 0B       		.uleb128 0xb
 6616 0089 01       		.uleb128 0x1
 6617 008a 13       		.uleb128 0x13
 6618 008b 00       		.byte	0
 6619 008c 00       		.byte	0
 6620 008d 0C       		.uleb128 0xc
 6621 008e 0D       		.uleb128 0xd
 6622 008f 00       		.byte	0
 6623 0090 03       		.uleb128 0x3
 6624 0091 08       		.uleb128 0x8
 6625 0092 3A       		.uleb128 0x3a
 6626 0093 0B       		.uleb128 0xb
 6627 0094 3B       		.uleb128 0x3b
ARM GAS  C:\Users\d3bug\AppData\Local\Temp\ccVxVFSv.s 			page 136


 6628 0095 0B       		.uleb128 0xb
 6629 0096 49       		.uleb128 0x49
 6630 0097 13       		.uleb128 0x13
 6631 0098 38       		.uleb128 0x38
 6632 0099 0B       		.uleb128 0xb
 6633 009a 00       		.byte	0
 6634 009b 00       		.byte	0
 6635 009c 0D       		.uleb128 0xd
 6636 009d 0D       		.uleb128 0xd
 6637 009e 00       		.byte	0
 6638 009f 03       		.uleb128 0x3
 6639 00a0 0E       		.uleb128 0xe
 6640 00a1 3A       		.uleb128 0x3a
 6641 00a2 0B       		.uleb128 0xb
 6642 00a3 3B       		.uleb128 0x3b
 6643 00a4 0B       		.uleb128 0xb
 6644 00a5 49       		.uleb128 0x49
 6645 00a6 13       		.uleb128 0x13
 6646 00a7 0B       		.uleb128 0xb
 6647 00a8 0B       		.uleb128 0xb
 6648 00a9 0D       		.uleb128 0xd
 6649 00aa 0B       		.uleb128 0xb
 6650 00ab 0C       		.uleb128 0xc
 6651 00ac 0B       		.uleb128 0xb
 6652 00ad 38       		.uleb128 0x38
 6653 00ae 0B       		.uleb128 0xb
 6654 00af 00       		.byte	0
 6655 00b0 00       		.byte	0
 6656 00b1 0E       		.uleb128 0xe
 6657 00b2 13       		.uleb128 0x13
 6658 00b3 01       		.byte	0x1
 6659 00b4 03       		.uleb128 0x3
 6660 00b5 0E       		.uleb128 0xe
 6661 00b6 0B       		.uleb128 0xb
 6662 00b7 0B       		.uleb128 0xb
 6663 00b8 3A       		.uleb128 0x3a
 6664 00b9 0B       		.uleb128 0xb
 6665 00ba 3B       		.uleb128 0x3b
 6666 00bb 0B       		.uleb128 0xb
 6667 00bc 01       		.uleb128 0x1
 6668 00bd 13       		.uleb128 0x13
 6669 00be 00       		.byte	0
 6670 00bf 00       		.byte	0
 6671 00c0 0F       		.uleb128 0xf
 6672 00c1 0D       		.uleb128 0xd
 6673 00c2 00       		.byte	0
 6674 00c3 03       		.uleb128 0x3
 6675 00c4 0E       		.uleb128 0xe
 6676 00c5 3A       		.uleb128 0x3a
 6677 00c6 0B       		.uleb128 0xb
 6678 00c7 3B       		.uleb128 0x3b
 6679 00c8 0B       		.uleb128 0xb
 6680 00c9 49       		.uleb128 0x49
 6681 00ca 13       		.uleb128 0x13
 6682 00cb 38       		.uleb128 0x38
 6683 00cc 0B       		.uleb128 0xb
 6684 00cd 00       		.byte	0
ARM GAS  C:\Users\d3bug\AppData\Local\Temp\ccVxVFSv.s 			page 137


 6685 00ce 00       		.byte	0
 6686 00cf 10       		.uleb128 0x10
 6687 00d0 0D       		.uleb128 0xd
 6688 00d1 00       		.byte	0
 6689 00d2 03       		.uleb128 0x3
 6690 00d3 08       		.uleb128 0x8
 6691 00d4 3A       		.uleb128 0x3a
 6692 00d5 0B       		.uleb128 0xb
 6693 00d6 3B       		.uleb128 0x3b
 6694 00d7 0B       		.uleb128 0xb
 6695 00d8 49       		.uleb128 0x49
 6696 00d9 13       		.uleb128 0x13
 6697 00da 0B       		.uleb128 0xb
 6698 00db 0B       		.uleb128 0xb
 6699 00dc 0D       		.uleb128 0xd
 6700 00dd 0B       		.uleb128 0xb
 6701 00de 0C       		.uleb128 0xc
 6702 00df 0B       		.uleb128 0xb
 6703 00e0 38       		.uleb128 0x38
 6704 00e1 0B       		.uleb128 0xb
 6705 00e2 00       		.byte	0
 6706 00e3 00       		.byte	0
 6707 00e4 11       		.uleb128 0x11
 6708 00e5 15       		.uleb128 0x15
 6709 00e6 01       		.byte	0x1
 6710 00e7 27       		.uleb128 0x27
 6711 00e8 19       		.uleb128 0x19
 6712 00e9 49       		.uleb128 0x49
 6713 00ea 13       		.uleb128 0x13
 6714 00eb 01       		.uleb128 0x1
 6715 00ec 13       		.uleb128 0x13
 6716 00ed 00       		.byte	0
 6717 00ee 00       		.byte	0
 6718 00ef 12       		.uleb128 0x12
 6719 00f0 05       		.uleb128 0x5
 6720 00f1 00       		.byte	0
 6721 00f2 49       		.uleb128 0x49
 6722 00f3 13       		.uleb128 0x13
 6723 00f4 00       		.byte	0
 6724 00f5 00       		.byte	0
 6725 00f6 13       		.uleb128 0x13
 6726 00f7 04       		.uleb128 0x4
 6727 00f8 01       		.byte	0x1
 6728 00f9 0B       		.uleb128 0xb
 6729 00fa 0B       		.uleb128 0xb
 6730 00fb 49       		.uleb128 0x49
 6731 00fc 13       		.uleb128 0x13
 6732 00fd 3A       		.uleb128 0x3a
 6733 00fe 0B       		.uleb128 0xb
 6734 00ff 3B       		.uleb128 0x3b
 6735 0100 0B       		.uleb128 0xb
 6736 0101 01       		.uleb128 0x1
 6737 0102 13       		.uleb128 0x13
 6738 0103 00       		.byte	0
 6739 0104 00       		.byte	0
 6740 0105 14       		.uleb128 0x14
 6741 0106 28       		.uleb128 0x28
ARM GAS  C:\Users\d3bug\AppData\Local\Temp\ccVxVFSv.s 			page 138


 6742 0107 00       		.byte	0
 6743 0108 03       		.uleb128 0x3
 6744 0109 0E       		.uleb128 0xe
 6745 010a 1C       		.uleb128 0x1c
 6746 010b 0B       		.uleb128 0xb
 6747 010c 00       		.byte	0
 6748 010d 00       		.byte	0
 6749 010e 15       		.uleb128 0x15
 6750 010f 01       		.uleb128 0x1
 6751 0110 01       		.byte	0x1
 6752 0111 49       		.uleb128 0x49
 6753 0112 13       		.uleb128 0x13
 6754 0113 01       		.uleb128 0x1
 6755 0114 13       		.uleb128 0x13
 6756 0115 00       		.byte	0
 6757 0116 00       		.byte	0
 6758 0117 16       		.uleb128 0x16
 6759 0118 21       		.uleb128 0x21
 6760 0119 00       		.byte	0
 6761 011a 49       		.uleb128 0x49
 6762 011b 13       		.uleb128 0x13
 6763 011c 2F       		.uleb128 0x2f
 6764 011d 0B       		.uleb128 0xb
 6765 011e 00       		.byte	0
 6766 011f 00       		.byte	0
 6767 0120 17       		.uleb128 0x17
 6768 0121 16       		.uleb128 0x16
 6769 0122 00       		.byte	0
 6770 0123 03       		.uleb128 0x3
 6771 0124 0E       		.uleb128 0xe
 6772 0125 3A       		.uleb128 0x3a
 6773 0126 0B       		.uleb128 0xb
 6774 0127 3B       		.uleb128 0x3b
 6775 0128 05       		.uleb128 0x5
 6776 0129 49       		.uleb128 0x49
 6777 012a 13       		.uleb128 0x13
 6778 012b 00       		.byte	0
 6779 012c 00       		.byte	0
 6780 012d 18       		.uleb128 0x18
 6781 012e 2E       		.uleb128 0x2e
 6782 012f 01       		.byte	0x1
 6783 0130 03       		.uleb128 0x3
 6784 0131 0E       		.uleb128 0xe
 6785 0132 3A       		.uleb128 0x3a
 6786 0133 0B       		.uleb128 0xb
 6787 0134 3B       		.uleb128 0x3b
 6788 0135 0B       		.uleb128 0xb
 6789 0136 27       		.uleb128 0x27
 6790 0137 19       		.uleb128 0x19
 6791 0138 20       		.uleb128 0x20
 6792 0139 0B       		.uleb128 0xb
 6793 013a 01       		.uleb128 0x1
 6794 013b 13       		.uleb128 0x13
 6795 013c 00       		.byte	0
 6796 013d 00       		.byte	0
 6797 013e 19       		.uleb128 0x19
 6798 013f 05       		.uleb128 0x5
ARM GAS  C:\Users\d3bug\AppData\Local\Temp\ccVxVFSv.s 			page 139


 6799 0140 00       		.byte	0
 6800 0141 03       		.uleb128 0x3
 6801 0142 0E       		.uleb128 0xe
 6802 0143 3A       		.uleb128 0x3a
 6803 0144 0B       		.uleb128 0xb
 6804 0145 3B       		.uleb128 0x3b
 6805 0146 0B       		.uleb128 0xb
 6806 0147 49       		.uleb128 0x49
 6807 0148 13       		.uleb128 0x13
 6808 0149 00       		.byte	0
 6809 014a 00       		.byte	0
 6810 014b 1A       		.uleb128 0x1a
 6811 014c 05       		.uleb128 0x5
 6812 014d 00       		.byte	0
 6813 014e 03       		.uleb128 0x3
 6814 014f 08       		.uleb128 0x8
 6815 0150 3A       		.uleb128 0x3a
 6816 0151 0B       		.uleb128 0xb
 6817 0152 3B       		.uleb128 0x3b
 6818 0153 0B       		.uleb128 0xb
 6819 0154 49       		.uleb128 0x49
 6820 0155 13       		.uleb128 0x13
 6821 0156 00       		.byte	0
 6822 0157 00       		.byte	0
 6823 0158 1B       		.uleb128 0x1b
 6824 0159 2E       		.uleb128 0x2e
 6825 015a 01       		.byte	0x1
 6826 015b 03       		.uleb128 0x3
 6827 015c 0E       		.uleb128 0xe
 6828 015d 3A       		.uleb128 0x3a
 6829 015e 0B       		.uleb128 0xb
 6830 015f 3B       		.uleb128 0x3b
 6831 0160 0B       		.uleb128 0xb
 6832 0161 27       		.uleb128 0x27
 6833 0162 19       		.uleb128 0x19
 6834 0163 49       		.uleb128 0x49
 6835 0164 13       		.uleb128 0x13
 6836 0165 20       		.uleb128 0x20
 6837 0166 0B       		.uleb128 0xb
 6838 0167 01       		.uleb128 0x1
 6839 0168 13       		.uleb128 0x13
 6840 0169 00       		.byte	0
 6841 016a 00       		.byte	0
 6842 016b 1C       		.uleb128 0x1c
 6843 016c 2E       		.uleb128 0x2e
 6844 016d 01       		.byte	0x1
 6845 016e 03       		.uleb128 0x3
 6846 016f 0E       		.uleb128 0xe
 6847 0170 3A       		.uleb128 0x3a
 6848 0171 0B       		.uleb128 0xb
 6849 0172 3B       		.uleb128 0x3b
 6850 0173 05       		.uleb128 0x5
 6851 0174 27       		.uleb128 0x27
 6852 0175 19       		.uleb128 0x19
 6853 0176 11       		.uleb128 0x11
 6854 0177 01       		.uleb128 0x1
 6855 0178 12       		.uleb128 0x12
ARM GAS  C:\Users\d3bug\AppData\Local\Temp\ccVxVFSv.s 			page 140


 6856 0179 06       		.uleb128 0x6
 6857 017a 40       		.uleb128 0x40
 6858 017b 18       		.uleb128 0x18
 6859 017c 9742     		.uleb128 0x2117
 6860 017e 19       		.uleb128 0x19
 6861 017f 01       		.uleb128 0x1
 6862 0180 13       		.uleb128 0x13
 6863 0181 00       		.byte	0
 6864 0182 00       		.byte	0
 6865 0183 1D       		.uleb128 0x1d
 6866 0184 05       		.uleb128 0x5
 6867 0185 00       		.byte	0
 6868 0186 03       		.uleb128 0x3
 6869 0187 0E       		.uleb128 0xe
 6870 0188 3A       		.uleb128 0x3a
 6871 0189 0B       		.uleb128 0xb
 6872 018a 3B       		.uleb128 0x3b
 6873 018b 05       		.uleb128 0x5
 6874 018c 49       		.uleb128 0x49
 6875 018d 13       		.uleb128 0x13
 6876 018e 02       		.uleb128 0x2
 6877 018f 17       		.uleb128 0x17
 6878 0190 00       		.byte	0
 6879 0191 00       		.byte	0
 6880 0192 1E       		.uleb128 0x1e
 6881 0193 34       		.uleb128 0x34
 6882 0194 00       		.byte	0
 6883 0195 03       		.uleb128 0x3
 6884 0196 0E       		.uleb128 0xe
 6885 0197 3A       		.uleb128 0x3a
 6886 0198 0B       		.uleb128 0xb
 6887 0199 3B       		.uleb128 0x3b
 6888 019a 05       		.uleb128 0x5
 6889 019b 49       		.uleb128 0x49
 6890 019c 13       		.uleb128 0x13
 6891 019d 02       		.uleb128 0x2
 6892 019e 17       		.uleb128 0x17
 6893 019f 00       		.byte	0
 6894 01a0 00       		.byte	0
 6895 01a1 1F       		.uleb128 0x1f
 6896 01a2 898201   		.uleb128 0x4109
 6897 01a5 01       		.byte	0x1
 6898 01a6 11       		.uleb128 0x11
 6899 01a7 01       		.uleb128 0x1
 6900 01a8 31       		.uleb128 0x31
 6901 01a9 13       		.uleb128 0x13
 6902 01aa 01       		.uleb128 0x1
 6903 01ab 13       		.uleb128 0x13
 6904 01ac 00       		.byte	0
 6905 01ad 00       		.byte	0
 6906 01ae 20       		.uleb128 0x20
 6907 01af 8A8201   		.uleb128 0x410a
 6908 01b2 00       		.byte	0
 6909 01b3 02       		.uleb128 0x2
 6910 01b4 18       		.uleb128 0x18
 6911 01b5 9142     		.uleb128 0x2111
 6912 01b7 18       		.uleb128 0x18
ARM GAS  C:\Users\d3bug\AppData\Local\Temp\ccVxVFSv.s 			page 141


 6913 01b8 00       		.byte	0
 6914 01b9 00       		.byte	0
 6915 01ba 21       		.uleb128 0x21
 6916 01bb 898201   		.uleb128 0x4109
 6917 01be 01       		.byte	0x1
 6918 01bf 11       		.uleb128 0x11
 6919 01c0 01       		.uleb128 0x1
 6920 01c1 31       		.uleb128 0x31
 6921 01c2 13       		.uleb128 0x13
 6922 01c3 00       		.byte	0
 6923 01c4 00       		.byte	0
 6924 01c5 22       		.uleb128 0x22
 6925 01c6 0B       		.uleb128 0xb
 6926 01c7 01       		.byte	0x1
 6927 01c8 11       		.uleb128 0x11
 6928 01c9 01       		.uleb128 0x1
 6929 01ca 12       		.uleb128 0x12
 6930 01cb 06       		.uleb128 0x6
 6931 01cc 01       		.uleb128 0x1
 6932 01cd 13       		.uleb128 0x13
 6933 01ce 00       		.byte	0
 6934 01cf 00       		.byte	0
 6935 01d0 23       		.uleb128 0x23
 6936 01d1 34       		.uleb128 0x34
 6937 01d2 00       		.byte	0
 6938 01d3 03       		.uleb128 0x3
 6939 01d4 08       		.uleb128 0x8
 6940 01d5 3A       		.uleb128 0x3a
 6941 01d6 0B       		.uleb128 0xb
 6942 01d7 3B       		.uleb128 0x3b
 6943 01d8 05       		.uleb128 0x5
 6944 01d9 49       		.uleb128 0x49
 6945 01da 13       		.uleb128 0x13
 6946 01db 02       		.uleb128 0x2
 6947 01dc 17       		.uleb128 0x17
 6948 01dd 00       		.byte	0
 6949 01de 00       		.byte	0
 6950 01df 24       		.uleb128 0x24
 6951 01e0 34       		.uleb128 0x34
 6952 01e1 00       		.byte	0
 6953 01e2 03       		.uleb128 0x3
 6954 01e3 0E       		.uleb128 0xe
 6955 01e4 3A       		.uleb128 0x3a
 6956 01e5 0B       		.uleb128 0xb
 6957 01e6 3B       		.uleb128 0x3b
 6958 01e7 05       		.uleb128 0x5
 6959 01e8 49       		.uleb128 0x49
 6960 01e9 13       		.uleb128 0x13
 6961 01ea 02       		.uleb128 0x2
 6962 01eb 18       		.uleb128 0x18
 6963 01ec 00       		.byte	0
 6964 01ed 00       		.byte	0
 6965 01ee 25       		.uleb128 0x25
 6966 01ef 898201   		.uleb128 0x4109
 6967 01f2 00       		.byte	0
 6968 01f3 11       		.uleb128 0x11
 6969 01f4 01       		.uleb128 0x1
ARM GAS  C:\Users\d3bug\AppData\Local\Temp\ccVxVFSv.s 			page 142


 6970 01f5 31       		.uleb128 0x31
 6971 01f6 13       		.uleb128 0x13
 6972 01f7 00       		.byte	0
 6973 01f8 00       		.byte	0
 6974 01f9 26       		.uleb128 0x26
 6975 01fa 34       		.uleb128 0x34
 6976 01fb 00       		.byte	0
 6977 01fc 03       		.uleb128 0x3
 6978 01fd 08       		.uleb128 0x8
 6979 01fe 3A       		.uleb128 0x3a
 6980 01ff 0B       		.uleb128 0xb
 6981 0200 3B       		.uleb128 0x3b
 6982 0201 05       		.uleb128 0x5
 6983 0202 49       		.uleb128 0x49
 6984 0203 13       		.uleb128 0x13
 6985 0204 02       		.uleb128 0x2
 6986 0205 18       		.uleb128 0x18
 6987 0206 00       		.byte	0
 6988 0207 00       		.byte	0
 6989 0208 27       		.uleb128 0x27
 6990 0209 1D       		.uleb128 0x1d
 6991 020a 01       		.byte	0x1
 6992 020b 31       		.uleb128 0x31
 6993 020c 13       		.uleb128 0x13
 6994 020d 11       		.uleb128 0x11
 6995 020e 01       		.uleb128 0x1
 6996 020f 12       		.uleb128 0x12
 6997 0210 06       		.uleb128 0x6
 6998 0211 58       		.uleb128 0x58
 6999 0212 0B       		.uleb128 0xb
 7000 0213 59       		.uleb128 0x59
 7001 0214 05       		.uleb128 0x5
 7002 0215 01       		.uleb128 0x1
 7003 0216 13       		.uleb128 0x13
 7004 0217 00       		.byte	0
 7005 0218 00       		.byte	0
 7006 0219 28       		.uleb128 0x28
 7007 021a 05       		.uleb128 0x5
 7008 021b 00       		.byte	0
 7009 021c 31       		.uleb128 0x31
 7010 021d 13       		.uleb128 0x13
 7011 021e 02       		.uleb128 0x2
 7012 021f 17       		.uleb128 0x17
 7013 0220 00       		.byte	0
 7014 0221 00       		.byte	0
 7015 0222 29       		.uleb128 0x29
 7016 0223 898201   		.uleb128 0x4109
 7017 0226 01       		.byte	0x1
 7018 0227 11       		.uleb128 0x11
 7019 0228 01       		.uleb128 0x1
 7020 0229 01       		.uleb128 0x1
 7021 022a 13       		.uleb128 0x13
 7022 022b 00       		.byte	0
 7023 022c 00       		.byte	0
 7024 022d 2A       		.uleb128 0x2a
 7025 022e 898201   		.uleb128 0x4109
 7026 0231 01       		.byte	0x1
ARM GAS  C:\Users\d3bug\AppData\Local\Temp\ccVxVFSv.s 			page 143


 7027 0232 11       		.uleb128 0x11
 7028 0233 01       		.uleb128 0x1
 7029 0234 00       		.byte	0
 7030 0235 00       		.byte	0
 7031 0236 2B       		.uleb128 0x2b
 7032 0237 2E       		.uleb128 0x2e
 7033 0238 01       		.byte	0x1
 7034 0239 3F       		.uleb128 0x3f
 7035 023a 19       		.uleb128 0x19
 7036 023b 03       		.uleb128 0x3
 7037 023c 0E       		.uleb128 0xe
 7038 023d 3A       		.uleb128 0x3a
 7039 023e 0B       		.uleb128 0xb
 7040 023f 3B       		.uleb128 0x3b
 7041 0240 0B       		.uleb128 0xb
 7042 0241 27       		.uleb128 0x27
 7043 0242 19       		.uleb128 0x19
 7044 0243 49       		.uleb128 0x49
 7045 0244 13       		.uleb128 0x13
 7046 0245 11       		.uleb128 0x11
 7047 0246 01       		.uleb128 0x1
 7048 0247 12       		.uleb128 0x12
 7049 0248 06       		.uleb128 0x6
 7050 0249 40       		.uleb128 0x40
 7051 024a 18       		.uleb128 0x18
 7052 024b 9742     		.uleb128 0x2117
 7053 024d 19       		.uleb128 0x19
 7054 024e 01       		.uleb128 0x1
 7055 024f 13       		.uleb128 0x13
 7056 0250 00       		.byte	0
 7057 0251 00       		.byte	0
 7058 0252 2C       		.uleb128 0x2c
 7059 0253 05       		.uleb128 0x5
 7060 0254 00       		.byte	0
 7061 0255 03       		.uleb128 0x3
 7062 0256 08       		.uleb128 0x8
 7063 0257 3A       		.uleb128 0x3a
 7064 0258 0B       		.uleb128 0xb
 7065 0259 3B       		.uleb128 0x3b
 7066 025a 0B       		.uleb128 0xb
 7067 025b 49       		.uleb128 0x49
 7068 025c 13       		.uleb128 0x13
 7069 025d 02       		.uleb128 0x2
 7070 025e 17       		.uleb128 0x17
 7071 025f 00       		.byte	0
 7072 0260 00       		.byte	0
 7073 0261 2D       		.uleb128 0x2d
 7074 0262 05       		.uleb128 0x5
 7075 0263 00       		.byte	0
 7076 0264 03       		.uleb128 0x3
 7077 0265 0E       		.uleb128 0xe
 7078 0266 3A       		.uleb128 0x3a
 7079 0267 0B       		.uleb128 0xb
 7080 0268 3B       		.uleb128 0x3b
 7081 0269 0B       		.uleb128 0xb
 7082 026a 49       		.uleb128 0x49
 7083 026b 13       		.uleb128 0x13
ARM GAS  C:\Users\d3bug\AppData\Local\Temp\ccVxVFSv.s 			page 144


 7084 026c 02       		.uleb128 0x2
 7085 026d 17       		.uleb128 0x17
 7086 026e 00       		.byte	0
 7087 026f 00       		.byte	0
 7088 0270 2E       		.uleb128 0x2e
 7089 0271 34       		.uleb128 0x34
 7090 0272 00       		.byte	0
 7091 0273 03       		.uleb128 0x3
 7092 0274 0E       		.uleb128 0xe
 7093 0275 3A       		.uleb128 0x3a
 7094 0276 0B       		.uleb128 0xb
 7095 0277 3B       		.uleb128 0x3b
 7096 0278 0B       		.uleb128 0xb
 7097 0279 49       		.uleb128 0x49
 7098 027a 13       		.uleb128 0x13
 7099 027b 02       		.uleb128 0x2
 7100 027c 17       		.uleb128 0x17
 7101 027d 00       		.byte	0
 7102 027e 00       		.byte	0
 7103 027f 2F       		.uleb128 0x2f
 7104 0280 34       		.uleb128 0x34
 7105 0281 00       		.byte	0
 7106 0282 03       		.uleb128 0x3
 7107 0283 08       		.uleb128 0x8
 7108 0284 3A       		.uleb128 0x3a
 7109 0285 0B       		.uleb128 0xb
 7110 0286 3B       		.uleb128 0x3b
 7111 0287 0B       		.uleb128 0xb
 7112 0288 49       		.uleb128 0x49
 7113 0289 13       		.uleb128 0x13
 7114 028a 02       		.uleb128 0x2
 7115 028b 17       		.uleb128 0x17
 7116 028c 00       		.byte	0
 7117 028d 00       		.byte	0
 7118 028e 30       		.uleb128 0x30
 7119 028f 1D       		.uleb128 0x1d
 7120 0290 01       		.byte	0x1
 7121 0291 31       		.uleb128 0x31
 7122 0292 13       		.uleb128 0x13
 7123 0293 11       		.uleb128 0x11
 7124 0294 01       		.uleb128 0x1
 7125 0295 12       		.uleb128 0x12
 7126 0296 06       		.uleb128 0x6
 7127 0297 58       		.uleb128 0x58
 7128 0298 0B       		.uleb128 0xb
 7129 0299 59       		.uleb128 0x59
 7130 029a 0B       		.uleb128 0xb
 7131 029b 01       		.uleb128 0x1
 7132 029c 13       		.uleb128 0x13
 7133 029d 00       		.byte	0
 7134 029e 00       		.byte	0
 7135 029f 31       		.uleb128 0x31
 7136 02a0 05       		.uleb128 0x5
 7137 02a1 00       		.byte	0
 7138 02a2 31       		.uleb128 0x31
 7139 02a3 13       		.uleb128 0x13
 7140 02a4 00       		.byte	0
ARM GAS  C:\Users\d3bug\AppData\Local\Temp\ccVxVFSv.s 			page 145


 7141 02a5 00       		.byte	0
 7142 02a6 32       		.uleb128 0x32
 7143 02a7 2E       		.uleb128 0x2e
 7144 02a8 01       		.byte	0x1
 7145 02a9 3F       		.uleb128 0x3f
 7146 02aa 19       		.uleb128 0x19
 7147 02ab 03       		.uleb128 0x3
 7148 02ac 0E       		.uleb128 0xe
 7149 02ad 3A       		.uleb128 0x3a
 7150 02ae 0B       		.uleb128 0xb
 7151 02af 3B       		.uleb128 0x3b
 7152 02b0 0B       		.uleb128 0xb
 7153 02b1 27       		.uleb128 0x27
 7154 02b2 19       		.uleb128 0x19
 7155 02b3 11       		.uleb128 0x11
 7156 02b4 01       		.uleb128 0x1
 7157 02b5 12       		.uleb128 0x12
 7158 02b6 06       		.uleb128 0x6
 7159 02b7 40       		.uleb128 0x40
 7160 02b8 18       		.uleb128 0x18
 7161 02b9 9742     		.uleb128 0x2117
 7162 02bb 19       		.uleb128 0x19
 7163 02bc 01       		.uleb128 0x1
 7164 02bd 13       		.uleb128 0x13
 7165 02be 00       		.byte	0
 7166 02bf 00       		.byte	0
 7167 02c0 33       		.uleb128 0x33
 7168 02c1 2E       		.uleb128 0x2e
 7169 02c2 01       		.byte	0x1
 7170 02c3 03       		.uleb128 0x3
 7171 02c4 0E       		.uleb128 0xe
 7172 02c5 3A       		.uleb128 0x3a
 7173 02c6 0B       		.uleb128 0xb
 7174 02c7 3B       		.uleb128 0x3b
 7175 02c8 0B       		.uleb128 0xb
 7176 02c9 27       		.uleb128 0x27
 7177 02ca 19       		.uleb128 0x19
 7178 02cb 49       		.uleb128 0x49
 7179 02cc 13       		.uleb128 0x13
 7180 02cd 11       		.uleb128 0x11
 7181 02ce 01       		.uleb128 0x1
 7182 02cf 12       		.uleb128 0x12
 7183 02d0 06       		.uleb128 0x6
 7184 02d1 40       		.uleb128 0x40
 7185 02d2 18       		.uleb128 0x18
 7186 02d3 9742     		.uleb128 0x2117
 7187 02d5 19       		.uleb128 0x19
 7188 02d6 01       		.uleb128 0x1
 7189 02d7 13       		.uleb128 0x13
 7190 02d8 00       		.byte	0
 7191 02d9 00       		.byte	0
 7192 02da 34       		.uleb128 0x34
 7193 02db 0B       		.uleb128 0xb
 7194 02dc 01       		.byte	0x1
 7195 02dd 55       		.uleb128 0x55
 7196 02de 17       		.uleb128 0x17
 7197 02df 01       		.uleb128 0x1
ARM GAS  C:\Users\d3bug\AppData\Local\Temp\ccVxVFSv.s 			page 146


 7198 02e0 13       		.uleb128 0x13
 7199 02e1 00       		.byte	0
 7200 02e2 00       		.byte	0
 7201 02e3 35       		.uleb128 0x35
 7202 02e4 34       		.uleb128 0x34
 7203 02e5 00       		.byte	0
 7204 02e6 03       		.uleb128 0x3
 7205 02e7 08       		.uleb128 0x8
 7206 02e8 3A       		.uleb128 0x3a
 7207 02e9 0B       		.uleb128 0xb
 7208 02ea 3B       		.uleb128 0x3b
 7209 02eb 0B       		.uleb128 0xb
 7210 02ec 49       		.uleb128 0x49
 7211 02ed 13       		.uleb128 0x13
 7212 02ee 00       		.byte	0
 7213 02ef 00       		.byte	0
 7214 02f0 36       		.uleb128 0x36
 7215 02f1 34       		.uleb128 0x34
 7216 02f2 00       		.byte	0
 7217 02f3 03       		.uleb128 0x3
 7218 02f4 0E       		.uleb128 0xe
 7219 02f5 3A       		.uleb128 0x3a
 7220 02f6 0B       		.uleb128 0xb
 7221 02f7 3B       		.uleb128 0x3b
 7222 02f8 0B       		.uleb128 0xb
 7223 02f9 49       		.uleb128 0x49
 7224 02fa 13       		.uleb128 0x13
 7225 02fb 00       		.byte	0
 7226 02fc 00       		.byte	0
 7227 02fd 37       		.uleb128 0x37
 7228 02fe 34       		.uleb128 0x34
 7229 02ff 00       		.byte	0
 7230 0300 03       		.uleb128 0x3
 7231 0301 0E       		.uleb128 0xe
 7232 0302 3A       		.uleb128 0x3a
 7233 0303 0B       		.uleb128 0xb
 7234 0304 3B       		.uleb128 0x3b
 7235 0305 0B       		.uleb128 0xb
 7236 0306 49       		.uleb128 0x49
 7237 0307 13       		.uleb128 0x13
 7238 0308 02       		.uleb128 0x2
 7239 0309 18       		.uleb128 0x18
 7240 030a 00       		.byte	0
 7241 030b 00       		.byte	0
 7242 030c 38       		.uleb128 0x38
 7243 030d 34       		.uleb128 0x34
 7244 030e 00       		.byte	0
 7245 030f 03       		.uleb128 0x3
 7246 0310 0E       		.uleb128 0xe
 7247 0311 3A       		.uleb128 0x3a
 7248 0312 0B       		.uleb128 0xb
 7249 0313 3B       		.uleb128 0x3b
 7250 0314 0B       		.uleb128 0xb
 7251 0315 49       		.uleb128 0x49
 7252 0316 13       		.uleb128 0x13
 7253 0317 3F       		.uleb128 0x3f
 7254 0318 19       		.uleb128 0x19
ARM GAS  C:\Users\d3bug\AppData\Local\Temp\ccVxVFSv.s 			page 147


 7255 0319 3C       		.uleb128 0x3c
 7256 031a 19       		.uleb128 0x19
 7257 031b 00       		.byte	0
 7258 031c 00       		.byte	0
 7259 031d 39       		.uleb128 0x39
 7260 031e 2E       		.uleb128 0x2e
 7261 031f 00       		.byte	0
 7262 0320 3F       		.uleb128 0x3f
 7263 0321 19       		.uleb128 0x19
 7264 0322 3C       		.uleb128 0x3c
 7265 0323 19       		.uleb128 0x19
 7266 0324 6E       		.uleb128 0x6e
 7267 0325 0E       		.uleb128 0xe
 7268 0326 03       		.uleb128 0x3
 7269 0327 0E       		.uleb128 0xe
 7270 0328 3A       		.uleb128 0x3a
 7271 0329 0B       		.uleb128 0xb
 7272 032a 3B       		.uleb128 0x3b
 7273 032b 05       		.uleb128 0x5
 7274 032c 00       		.byte	0
 7275 032d 00       		.byte	0
 7276 032e 3A       		.uleb128 0x3a
 7277 032f 2E       		.uleb128 0x2e
 7278 0330 00       		.byte	0
 7279 0331 3F       		.uleb128 0x3f
 7280 0332 19       		.uleb128 0x19
 7281 0333 3C       		.uleb128 0x3c
 7282 0334 19       		.uleb128 0x19
 7283 0335 6E       		.uleb128 0x6e
 7284 0336 0E       		.uleb128 0xe
 7285 0337 03       		.uleb128 0x3
 7286 0338 0E       		.uleb128 0xe
 7287 0339 3A       		.uleb128 0x3a
 7288 033a 0B       		.uleb128 0xb
 7289 033b 3B       		.uleb128 0x3b
 7290 033c 0B       		.uleb128 0xb
 7291 033d 00       		.byte	0
 7292 033e 00       		.byte	0
 7293 033f 00       		.byte	0
 7294              		.section	.debug_loc,"",%progbits
 7295              	.Ldebug_loc0:
 7296              	.LLST0:
 7297 0000 00000000 		.4byte	.LVL0
 7298 0004 0B000000 		.4byte	.LVL1-1
 7299 0008 0100     		.2byte	0x1
 7300 000a 50       		.byte	0x50
 7301 000b 0B000000 		.4byte	.LVL1-1
 7302 000f DA000000 		.4byte	.LFE26
 7303 0013 0100     		.2byte	0x1
 7304 0015 57       		.byte	0x57
 7305 0016 00000000 		.4byte	0
 7306 001a 00000000 		.4byte	0
 7307              	.LLST1:
 7308 001e 18000000 		.4byte	.LVL5
 7309 0022 20000000 		.4byte	.LVL7
 7310 0026 0100     		.2byte	0x1
 7311 0028 50       		.byte	0x50
ARM GAS  C:\Users\d3bug\AppData\Local\Temp\ccVxVFSv.s 			page 148


 7312 0029 20000000 		.4byte	.LVL7
 7313 002d 4E000000 		.4byte	.LVL15
 7314 0031 0100     		.2byte	0x1
 7315 0033 54       		.byte	0x54
 7316 0034 4E000000 		.4byte	.LVL15
 7317 0038 64000000 		.4byte	.LVL18
 7318 003c 0100     		.2byte	0x1
 7319 003e 50       		.byte	0x50
 7320 003f 64000000 		.4byte	.LVL18
 7321 0043 7A000000 		.4byte	.LVL23
 7322 0047 0100     		.2byte	0x1
 7323 0049 54       		.byte	0x54
 7324 004a 7A000000 		.4byte	.LVL23
 7325 004e 7E000000 		.4byte	.LVL24
 7326 0052 0100     		.2byte	0x1
 7327 0054 50       		.byte	0x50
 7328 0055 7E000000 		.4byte	.LVL24
 7329 0059 C8000000 		.4byte	.LVL33
 7330 005d 0100     		.2byte	0x1
 7331 005f 54       		.byte	0x54
 7332 0060 C8000000 		.4byte	.LVL33
 7333 0064 D0000000 		.4byte	.LVL34
 7334 0068 0100     		.2byte	0x1
 7335 006a 50       		.byte	0x50
 7336 006b D0000000 		.4byte	.LVL34
 7337 006f DA000000 		.4byte	.LFE26
 7338 0073 0100     		.2byte	0x1
 7339 0075 54       		.byte	0x54
 7340 0076 00000000 		.4byte	0
 7341 007a 00000000 		.4byte	0
 7342              	.LLST2:
 7343 007e 0E000000 		.4byte	.LVL2
 7344 0082 12000000 		.4byte	.LVL3
 7345 0086 0100     		.2byte	0x1
 7346 0088 50       		.byte	0x50
 7347 0089 12000000 		.4byte	.LVL3
 7348 008d DA000000 		.4byte	.LFE26
 7349 0091 0100     		.2byte	0x1
 7350 0093 58       		.byte	0x58
 7351 0094 00000000 		.4byte	0
 7352 0098 00000000 		.4byte	0
 7353              	.LLST3:
 7354 009c 0E000000 		.4byte	.LVL2
 7355 00a0 1E000000 		.4byte	.LVL6
 7356 00a4 0200     		.2byte	0x2
 7357 00a6 30       		.byte	0x30
 7358 00a7 9F       		.byte	0x9f
 7359 00a8 1E000000 		.4byte	.LVL6
 7360 00ac DA000000 		.4byte	.LFE26
 7361 00b0 0100     		.2byte	0x1
 7362 00b2 59       		.byte	0x59
 7363 00b3 00000000 		.4byte	0
 7364 00b7 00000000 		.4byte	0
 7365              	.LLST4:
 7366 00bb 0E000000 		.4byte	.LVL2
 7367 00bf 1E000000 		.4byte	.LVL6
 7368 00c3 0200     		.2byte	0x2
ARM GAS  C:\Users\d3bug\AppData\Local\Temp\ccVxVFSv.s 			page 149


 7369 00c5 30       		.byte	0x30
 7370 00c6 9F       		.byte	0x9f
 7371 00c7 1E000000 		.4byte	.LVL6
 7372 00cb 3E000000 		.4byte	.LVL11
 7373 00cf 0100     		.2byte	0x1
 7374 00d1 56       		.byte	0x56
 7375 00d2 40000000 		.4byte	.LVL12
 7376 00d6 5E000000 		.4byte	.LVL16
 7377 00da 0100     		.2byte	0x1
 7378 00dc 56       		.byte	0x56
 7379 00dd 60000000 		.4byte	.LVL17
 7380 00e1 6C000000 		.4byte	.LVL20
 7381 00e5 0100     		.2byte	0x1
 7382 00e7 56       		.byte	0x56
 7383 00e8 00000000 		.4byte	0
 7384 00ec 00000000 		.4byte	0
 7385              	.LLST5:
 7386 00f0 72000000 		.4byte	.LVL21
 7387 00f4 BC000000 		.4byte	.LVL30
 7388 00f8 0100     		.2byte	0x1
 7389 00fa 56       		.byte	0x56
 7390 00fb BE000000 		.4byte	.LVL31
 7391 00ff D4000000 		.4byte	.LVL35
 7392 0103 0100     		.2byte	0x1
 7393 0105 56       		.byte	0x56
 7394 0106 00000000 		.4byte	0
 7395 010a 00000000 		.4byte	0
 7396              	.LLST6:
 7397 010e 00000000 		.4byte	.LVL36
 7398 0112 0D000000 		.4byte	.LVL37-1
 7399 0116 0100     		.2byte	0x1
 7400 0118 50       		.byte	0x50
 7401 0119 0D000000 		.4byte	.LVL37-1
 7402 011d 3A000000 		.4byte	.LVL46
 7403 0121 0100     		.2byte	0x1
 7404 0123 54       		.byte	0x54
 7405 0124 3A000000 		.4byte	.LVL46
 7406 0128 10020000 		.4byte	.LVL113
 7407 012c 0200     		.2byte	0x2
 7408 012e 91       		.byte	0x91
 7409 012f 4C       		.sleb128 -52
 7410 0130 10020000 		.4byte	.LVL113
 7411 0134 14020000 		.4byte	.LFE27
 7412 0138 0200     		.2byte	0x2
 7413 013a 7D       		.byte	0x7d
 7414 013b 4C       		.sleb128 -52
 7415 013c 00000000 		.4byte	0
 7416 0140 00000000 		.4byte	0
 7417              	.LLST7:
 7418 0144 28000000 		.4byte	.LVL43
 7419 0148 34000000 		.4byte	.LVL44
 7420 014c 0100     		.2byte	0x1
 7421 014e 50       		.byte	0x50
 7422 014f 34000000 		.4byte	.LVL44
 7423 0153 4A010000 		.4byte	.LVL85
 7424 0157 0100     		.2byte	0x1
 7425 0159 57       		.byte	0x57
ARM GAS  C:\Users\d3bug\AppData\Local\Temp\ccVxVFSv.s 			page 150


 7426 015a 70010000 		.4byte	.LVL88
 7427 015e 8C010000 		.4byte	.LVL96
 7428 0162 0100     		.2byte	0x1
 7429 0164 57       		.byte	0x57
 7430 0165 FC010000 		.4byte	.LVL110
 7431 0169 02020000 		.4byte	.LVL111
 7432 016d 0100     		.2byte	0x1
 7433 016f 57       		.byte	0x57
 7434 0170 00000000 		.4byte	0
 7435 0174 00000000 		.4byte	0
 7436              	.LLST8:
 7437 0178 38000000 		.4byte	.LVL45
 7438 017c 48000000 		.4byte	.LVL48
 7439 0180 0100     		.2byte	0x1
 7440 0182 57       		.byte	0x57
 7441 0183 48000000 		.4byte	.LVL48
 7442 0187 74000000 		.4byte	.LVL53
 7443 018b 0100     		.2byte	0x1
 7444 018d 54       		.byte	0x54
 7445 018e 74000000 		.4byte	.LVL53
 7446 0192 76000000 		.4byte	.LVL54
 7447 0196 0100     		.2byte	0x1
 7448 0198 50       		.byte	0x50
 7449 0199 76000000 		.4byte	.LVL54
 7450 019d AE000000 		.4byte	.LVL64
 7451 01a1 0100     		.2byte	0x1
 7452 01a3 54       		.byte	0x54
 7453 01a4 AE000000 		.4byte	.LVL64
 7454 01a8 B6000000 		.4byte	.LVL66
 7455 01ac 0100     		.2byte	0x1
 7456 01ae 50       		.byte	0x50
 7457 01af B6000000 		.4byte	.LVL66
 7458 01b3 FC010000 		.4byte	.LVL110
 7459 01b7 0100     		.2byte	0x1
 7460 01b9 54       		.byte	0x54
 7461 01ba FC010000 		.4byte	.LVL110
 7462 01be 02020000 		.4byte	.LVL111
 7463 01c2 0100     		.2byte	0x1
 7464 01c4 57       		.byte	0x57
 7465 01c5 00000000 		.4byte	0
 7466 01c9 00000000 		.4byte	0
 7467              	.LLST9:
 7468 01cd 8A010000 		.4byte	.LVL95
 7469 01d1 E0010000 		.4byte	.LVL106
 7470 01d5 0100     		.2byte	0x1
 7471 01d7 57       		.byte	0x57
 7472 01d8 00000000 		.4byte	0
 7473 01dc 00000000 		.4byte	0
 7474              	.LLST10:
 7475 01e0 10000000 		.4byte	.LVL38
 7476 01e4 12000000 		.4byte	.LVL39
 7477 01e8 0100     		.2byte	0x1
 7478 01ea 50       		.byte	0x50
 7479 01eb 12000000 		.4byte	.LVL39
 7480 01ef 10020000 		.4byte	.LVL113
 7481 01f3 0100     		.2byte	0x1
 7482 01f5 5A       		.byte	0x5a
ARM GAS  C:\Users\d3bug\AppData\Local\Temp\ccVxVFSv.s 			page 151


 7483 01f6 00000000 		.4byte	0
 7484 01fa 00000000 		.4byte	0
 7485              	.LLST11:
 7486 01fe 18000000 		.4byte	.LVL41
 7487 0202 10020000 		.4byte	.LVL113
 7488 0206 0100     		.2byte	0x1
 7489 0208 5B       		.byte	0x5b
 7490 0209 00000000 		.4byte	0
 7491 020d 00000000 		.4byte	0
 7492              	.LLST12:
 7493 0211 1E000000 		.4byte	.LVL42
 7494 0215 10020000 		.4byte	.LVL113
 7495 0219 0200     		.2byte	0x2
 7496 021b 91       		.byte	0x91
 7497 021c 48       		.sleb128 -56
 7498 021d 10020000 		.4byte	.LVL113
 7499 0221 14020000 		.4byte	.LFE27
 7500 0225 0200     		.2byte	0x2
 7501 0227 7D       		.byte	0x7d
 7502 0228 48       		.sleb128 -56
 7503 0229 00000000 		.4byte	0
 7504 022d 00000000 		.4byte	0
 7505              	.LLST13:
 7506 0231 3A000000 		.4byte	.LVL46
 7507 0235 48000000 		.4byte	.LVL48
 7508 0239 0200     		.2byte	0x2
 7509 023b 30       		.byte	0x30
 7510 023c 9F       		.byte	0x9f
 7511 023d 48000000 		.4byte	.LVL48
 7512 0241 E8010000 		.4byte	.LVL107
 7513 0245 0100     		.2byte	0x1
 7514 0247 59       		.byte	0x59
 7515 0248 00000000 		.4byte	0
 7516 024c 00000000 		.4byte	0
 7517              	.LLST14:
 7518 0250 42000000 		.4byte	.LVL47
 7519 0254 84000000 		.4byte	.LVL56
 7520 0258 0100     		.2byte	0x1
 7521 025a 56       		.byte	0x56
 7522 025b 86000000 		.4byte	.LVL57
 7523 025f FC000000 		.4byte	.LVL73
 7524 0263 0100     		.2byte	0x1
 7525 0265 56       		.byte	0x56
 7526 0266 10010000 		.4byte	.LVL78
 7527 026a 14010000 		.4byte	.LVL79
 7528 026e 0100     		.2byte	0x1
 7529 0270 53       		.byte	0x53
 7530 0271 14010000 		.4byte	.LVL79
 7531 0275 24010000 		.4byte	.LVL82
 7532 0279 0100     		.2byte	0x1
 7533 027b 50       		.byte	0x50
 7534 027c 70010000 		.4byte	.LVL88
 7535 0280 78010000 		.4byte	.LVL89
 7536 0284 0100     		.2byte	0x1
 7537 0286 56       		.byte	0x56
 7538 0287 7A010000 		.4byte	.LVL90
 7539 028b 7E010000 		.4byte	.LVL91
ARM GAS  C:\Users\d3bug\AppData\Local\Temp\ccVxVFSv.s 			page 152


 7540 028f 0100     		.2byte	0x1
 7541 0291 56       		.byte	0x56
 7542 0292 00000000 		.4byte	0
 7543 0296 00000000 		.4byte	0
 7544              	.LLST15:
 7545 029a 42000000 		.4byte	.LVL47
 7546 029e 48000000 		.4byte	.LVL48
 7547 02a2 0200     		.2byte	0x2
 7548 02a4 30       		.byte	0x30
 7549 02a5 9F       		.byte	0x9f
 7550 02a6 48000000 		.4byte	.LVL48
 7551 02aa 04010000 		.4byte	.LVL76
 7552 02ae 0100     		.2byte	0x1
 7553 02b0 55       		.byte	0x55
 7554 02b1 70010000 		.4byte	.LVL88
 7555 02b5 80010000 		.4byte	.LVL92
 7556 02b9 0100     		.2byte	0x1
 7557 02bb 55       		.byte	0x55
 7558 02bc 80010000 		.4byte	.LVL92
 7559 02c0 84010000 		.4byte	.LVL93
 7560 02c4 0300     		.2byte	0x3
 7561 02c6 75       		.byte	0x75
 7562 02c7 01       		.sleb128 1
 7563 02c8 9F       		.byte	0x9f
 7564 02c9 00000000 		.4byte	0
 7565 02cd 00000000 		.4byte	0
 7566              	.LLST16:
 7567 02d1 F2000000 		.4byte	.LVL71
 7568 02d5 4A010000 		.4byte	.LVL85
 7569 02d9 0100     		.2byte	0x1
 7570 02db 57       		.byte	0x57
 7571 02dc 00000000 		.4byte	0
 7572 02e0 00000000 		.4byte	0
 7573              	.LLST17:
 7574 02e4 FC000000 		.4byte	.LVL73
 7575 02e8 FE000000 		.4byte	.LVL74
 7576 02ec 0100     		.2byte	0x1
 7577 02ee 50       		.byte	0x50
 7578 02ef FE000000 		.4byte	.LVL74
 7579 02f3 1E010000 		.4byte	.LVL80
 7580 02f7 0100     		.2byte	0x1
 7581 02f9 56       		.byte	0x56
 7582 02fa 1E010000 		.4byte	.LVL80
 7583 02fe 70010000 		.4byte	.LVL88
 7584 0302 0200     		.2byte	0x2
 7585 0304 91       		.byte	0x91
 7586 0305 50       		.sleb128 -48
 7587 0306 00000000 		.4byte	0
 7588 030a 00000000 		.4byte	0
 7589              	.LLST18:
 7590 030e 22010000 		.4byte	.LVL81
 7591 0312 70010000 		.4byte	.LVL88
 7592 0316 0200     		.2byte	0x2
 7593 0318 91       		.byte	0x91
 7594 0319 54       		.sleb128 -44
 7595 031a 00000000 		.4byte	0
 7596 031e 00000000 		.4byte	0
ARM GAS  C:\Users\d3bug\AppData\Local\Temp\ccVxVFSv.s 			page 153


 7597              	.LLST19:
 7598 0322 86010000 		.4byte	.LVL94
 7599 0326 E0010000 		.4byte	.LVL106
 7600 032a 0100     		.2byte	0x1
 7601 032c 56       		.byte	0x56
 7602 032d 00000000 		.4byte	0
 7603 0331 00000000 		.4byte	0
 7604              	.LLST20:
 7605 0335 8A010000 		.4byte	.LVL95
 7606 0339 CC010000 		.4byte	.LVL102
 7607 033d 0100     		.2byte	0x1
 7608 033f 55       		.byte	0x55
 7609 0340 CE010000 		.4byte	.LVL103
 7610 0344 E0010000 		.4byte	.LVL106
 7611 0348 0100     		.2byte	0x1
 7612 034a 55       		.byte	0x55
 7613 034b 00000000 		.4byte	0
 7614 034f 00000000 		.4byte	0
 7615              	.LLST21:
 7616 0353 00000000 		.4byte	.LVL114
 7617 0357 0D000000 		.4byte	.LVL115-1
 7618 035b 0100     		.2byte	0x1
 7619 035d 50       		.byte	0x50
 7620 035e 0D000000 		.4byte	.LVL115-1
 7621 0362 98000000 		.4byte	.LVL138
 7622 0366 0100     		.2byte	0x1
 7623 0368 56       		.byte	0x56
 7624 0369 98000000 		.4byte	.LVL138
 7625 036d FA000000 		.4byte	.LVL158
 7626 0371 0200     		.2byte	0x2
 7627 0373 7D       		.byte	0x7d
 7628 0374 00       		.sleb128 0
 7629 0375 FA000000 		.4byte	.LVL158
 7630 0379 FE000000 		.4byte	.LFE28
 7631 037d 0200     		.2byte	0x2
 7632 037f 91       		.byte	0x91
 7633 0380 50       		.sleb128 -48
 7634 0381 00000000 		.4byte	0
 7635 0385 00000000 		.4byte	0
 7636              	.LLST22:
 7637 0389 96000000 		.4byte	.LVL137
 7638 038d 9C000000 		.4byte	.LVL140
 7639 0391 0100     		.2byte	0x1
 7640 0393 50       		.byte	0x50
 7641 0394 9C000000 		.4byte	.LVL140
 7642 0398 EC000000 		.4byte	.LVL155
 7643 039c 0100     		.2byte	0x1
 7644 039e 54       		.byte	0x54
 7645 039f EC000000 		.4byte	.LVL155
 7646 03a3 F4000000 		.4byte	.LVL156
 7647 03a7 0100     		.2byte	0x1
 7648 03a9 50       		.byte	0x50
 7649 03aa F4000000 		.4byte	.LVL156
 7650 03ae FE000000 		.4byte	.LFE28
 7651 03b2 0100     		.2byte	0x1
 7652 03b4 54       		.byte	0x54
 7653 03b5 00000000 		.4byte	0
ARM GAS  C:\Users\d3bug\AppData\Local\Temp\ccVxVFSv.s 			page 154


 7654 03b9 00000000 		.4byte	0
 7655              	.LLST23:
 7656 03bd 10000000 		.4byte	.LVL116
 7657 03c1 12000000 		.4byte	.LVL117
 7658 03c5 0100     		.2byte	0x1
 7659 03c7 50       		.byte	0x50
 7660 03c8 12000000 		.4byte	.LVL117
 7661 03cc FE000000 		.4byte	.LFE28
 7662 03d0 0100     		.2byte	0x1
 7663 03d2 59       		.byte	0x59
 7664 03d3 00000000 		.4byte	0
 7665 03d7 00000000 		.4byte	0
 7666              	.LLST24:
 7667 03db 18000000 		.4byte	.LVL119
 7668 03df 66000000 		.4byte	.LVL128
 7669 03e3 0100     		.2byte	0x1
 7670 03e5 55       		.byte	0x55
 7671 03e6 00000000 		.4byte	0
 7672 03ea 00000000 		.4byte	0
 7673              	.LLST25:
 7674 03ee 26000000 		.4byte	.LVL122
 7675 03f2 7E000000 		.4byte	.LVL132
 7676 03f6 0100     		.2byte	0x1
 7677 03f8 54       		.byte	0x54
 7678 03f9 00000000 		.4byte	0
 7679 03fd 00000000 		.4byte	0
 7680              	.LLST26:
 7681 0401 32000000 		.4byte	.LVL124
 7682 0405 76000000 		.4byte	.LVL130
 7683 0409 0100     		.2byte	0x1
 7684 040b 50       		.byte	0x50
 7685 040c 00000000 		.4byte	0
 7686 0410 00000000 		.4byte	0
 7687              	.LLST27:
 7688 0414 60000000 		.4byte	.LVL126
 7689 0418 62000000 		.4byte	.LVL127
 7690 041c 0100     		.2byte	0x1
 7691 041e 58       		.byte	0x58
 7692 041f 74000000 		.4byte	.LVL129
 7693 0423 FE000000 		.4byte	.LFE28
 7694 0427 0100     		.2byte	0x1
 7695 0429 58       		.byte	0x58
 7696 042a 00000000 		.4byte	0
 7697 042e 00000000 		.4byte	0
 7698              	.LLST28:
 7699 0432 88000000 		.4byte	.LVL134
 7700 0436 BE000000 		.4byte	.LVL144
 7701 043a 0100     		.2byte	0x1
 7702 043c 57       		.byte	0x57
 7703 043d C0000000 		.4byte	.LVL145
 7704 0441 FE000000 		.4byte	.LFE28
 7705 0445 0100     		.2byte	0x1
 7706 0447 57       		.byte	0x57
 7707 0448 00000000 		.4byte	0
 7708 044c 00000000 		.4byte	0
 7709              	.LLST29:
 7710 0450 8C000000 		.4byte	.LVL135
ARM GAS  C:\Users\d3bug\AppData\Local\Temp\ccVxVFSv.s 			page 155


 7711 0454 DC000000 		.4byte	.LVL151
 7712 0458 0100     		.2byte	0x1
 7713 045a 5A       		.byte	0x5a
 7714 045b E0000000 		.4byte	.LVL152
 7715 045f FE000000 		.4byte	.LFE28
 7716 0463 0100     		.2byte	0x1
 7717 0465 5A       		.byte	0x5a
 7718 0466 00000000 		.4byte	0
 7719 046a 00000000 		.4byte	0
 7720              	.LLST30:
 7721 046e 8C000000 		.4byte	.LVL135
 7722 0472 9A000000 		.4byte	.LVL139
 7723 0476 0200     		.2byte	0x2
 7724 0478 30       		.byte	0x30
 7725 0479 9F       		.byte	0x9f
 7726 047a 9A000000 		.4byte	.LVL139
 7727 047e CE000000 		.4byte	.LVL147
 7728 0482 0100     		.2byte	0x1
 7729 0484 56       		.byte	0x56
 7730 0485 D0000000 		.4byte	.LVL148
 7731 0489 D4000000 		.4byte	.LVL149
 7732 048d 0100     		.2byte	0x1
 7733 048f 56       		.byte	0x56
 7734 0490 D4000000 		.4byte	.LVL149
 7735 0494 E2000000 		.4byte	.LVL153
 7736 0498 0200     		.2byte	0x2
 7737 049a 30       		.byte	0x30
 7738 049b 9F       		.byte	0x9f
 7739 049c E2000000 		.4byte	.LVL153
 7740 04a0 FE000000 		.4byte	.LFE28
 7741 04a4 0100     		.2byte	0x1
 7742 04a6 56       		.byte	0x56
 7743 04a7 00000000 		.4byte	0
 7744 04ab 00000000 		.4byte	0
 7745              	.LLST31:
 7746 04af 00000000 		.4byte	.LVL159
 7747 04b3 0B000000 		.4byte	.LVL160-1
 7748 04b7 0100     		.2byte	0x1
 7749 04b9 50       		.byte	0x50
 7750 04ba 0B000000 		.4byte	.LVL160-1
 7751 04be 8A010000 		.4byte	.LFE29
 7752 04c2 0100     		.2byte	0x1
 7753 04c4 55       		.byte	0x55
 7754 04c5 00000000 		.4byte	0
 7755 04c9 00000000 		.4byte	0
 7756              	.LLST32:
 7757 04cd 0C000000 		.4byte	.LVL160
 7758 04d1 1A000000 		.4byte	.LVL161
 7759 04d5 0100     		.2byte	0x1
 7760 04d7 50       		.byte	0x50
 7761 04d8 1A000000 		.4byte	.LVL161
 7762 04dc 84010000 		.4byte	.LVL188
 7763 04e0 0100     		.2byte	0x1
 7764 04e2 57       		.byte	0x57
 7765 04e3 00000000 		.4byte	0
 7766 04e7 00000000 		.4byte	0
 7767              	.LLST33:
ARM GAS  C:\Users\d3bug\AppData\Local\Temp\ccVxVFSv.s 			page 156


 7768 04eb 1E000000 		.4byte	.LVL162
 7769 04ef 2A000000 		.4byte	.LVL165
 7770 04f3 0100     		.2byte	0x1
 7771 04f5 50       		.byte	0x50
 7772 04f6 00000000 		.4byte	0
 7773 04fa 00000000 		.4byte	0
 7774              	.LLST34:
 7775 04fe 58000000 		.4byte	.LVL169
 7776 0502 5C000000 		.4byte	.LVL170
 7777 0506 0100     		.2byte	0x1
 7778 0508 50       		.byte	0x50
 7779 0509 5C000000 		.4byte	.LVL170
 7780 050d B4000000 		.4byte	.LVL173
 7781 0511 0100     		.2byte	0x1
 7782 0513 54       		.byte	0x54
 7783 0514 B4000000 		.4byte	.LVL173
 7784 0518 5A010000 		.4byte	.LVL180
 7785 051c 0100     		.2byte	0x1
 7786 051e 50       		.byte	0x50
 7787 051f 5A010000 		.4byte	.LVL180
 7788 0523 84010000 		.4byte	.LVL188
 7789 0527 0100     		.2byte	0x1
 7790 0529 54       		.byte	0x54
 7791 052a 00000000 		.4byte	0
 7792 052e 00000000 		.4byte	0
 7793              	.LLST35:
 7794 0532 22000000 		.4byte	.LVL163
 7795 0536 DE000000 		.4byte	.LVL174
 7796 053a 0100     		.2byte	0x1
 7797 053c 59       		.byte	0x59
 7798 053d E4000000 		.4byte	.LVL175
 7799 0541 F4000000 		.4byte	.LVL176
 7800 0545 0100     		.2byte	0x1
 7801 0547 59       		.byte	0x59
 7802 0548 00000000 		.4byte	0
 7803 054c 00000000 		.4byte	0
 7804              	.LLST36:
 7805 0550 26000000 		.4byte	.LVL164
 7806 0554 12010000 		.4byte	.LVL177
 7807 0558 0100     		.2byte	0x1
 7808 055a 58       		.byte	0x58
 7809 055b 18010000 		.4byte	.LVL178
 7810 055f 28010000 		.4byte	.LVL179
 7811 0563 0100     		.2byte	0x1
 7812 0565 58       		.byte	0x58
 7813 0566 00000000 		.4byte	0
 7814 056a 00000000 		.4byte	0
 7815              	.LLST37:
 7816 056e 7C010000 		.4byte	.LVL187
 7817 0572 83010000 		.4byte	.LVL188-1
 7818 0576 0100     		.2byte	0x1
 7819 0578 50       		.byte	0x50
 7820 0579 00000000 		.4byte	0
 7821 057d 00000000 		.4byte	0
 7822              	.LLST38:
 7823 0581 5E010000 		.4byte	.LVL181
 7824 0585 60010000 		.4byte	.LVL182
ARM GAS  C:\Users\d3bug\AppData\Local\Temp\ccVxVFSv.s 			page 157


 7825 0589 0300     		.2byte	0x3
 7826 058b 91       		.byte	0x91
 7827 058c 58       		.sleb128 -40
 7828 058d 9F       		.byte	0x9f
 7829 058e 60010000 		.4byte	.LVL182
 7830 0592 62010000 		.4byte	.LVL183
 7831 0596 0100     		.2byte	0x1
 7832 0598 53       		.byte	0x53
 7833 0599 62010000 		.4byte	.LVL183
 7834 059d 66010000 		.4byte	.LVL184
 7835 05a1 0300     		.2byte	0x3
 7836 05a3 73       		.byte	0x73
 7837 05a4 78       		.sleb128 -8
 7838 05a5 9F       		.byte	0x9f
 7839 05a6 00000000 		.4byte	0
 7840 05aa 00000000 		.4byte	0
 7841              	.LLST39:
 7842 05ae 5E010000 		.4byte	.LVL181
 7843 05b2 66010000 		.4byte	.LVL184
 7844 05b6 0300     		.2byte	0x3
 7845 05b8 75       		.byte	0x75
 7846 05b9 10       		.sleb128 16
 7847 05ba 9F       		.byte	0x9f
 7848 05bb 00000000 		.4byte	0
 7849 05bf 00000000 		.4byte	0
 7850              	.LLST40:
 7851 05c3 00000000 		.4byte	.LVL189
 7852 05c7 0E000000 		.4byte	.LVL191
 7853 05cb 0100     		.2byte	0x1
 7854 05cd 50       		.byte	0x50
 7855 05ce 0E000000 		.4byte	.LVL191
 7856 05d2 2C000000 		.4byte	.LVL197
 7857 05d6 0100     		.2byte	0x1
 7858 05d8 54       		.byte	0x54
 7859 05d9 2C000000 		.4byte	.LVL197
 7860 05dd F8000000 		.4byte	.LFE14
 7861 05e1 0400     		.2byte	0x4
 7862 05e3 F3       		.byte	0xf3
 7863 05e4 01       		.uleb128 0x1
 7864 05e5 50       		.byte	0x50
 7865 05e6 9F       		.byte	0x9f
 7866 05e7 00000000 		.4byte	0
 7867 05eb 00000000 		.4byte	0
 7868              	.LLST41:
 7869 05ef 00000000 		.4byte	.LVL189
 7870 05f3 0C000000 		.4byte	.LVL190
 7871 05f7 0100     		.2byte	0x1
 7872 05f9 51       		.byte	0x51
 7873 05fa 0C000000 		.4byte	.LVL190
 7874 05fe DC000000 		.4byte	.LVL222
 7875 0602 0100     		.2byte	0x1
 7876 0604 56       		.byte	0x56
 7877 0605 DC000000 		.4byte	.LVL222
 7878 0609 F8000000 		.4byte	.LFE14
 7879 060d 0400     		.2byte	0x4
 7880 060f F3       		.byte	0xf3
 7881 0610 01       		.uleb128 0x1
ARM GAS  C:\Users\d3bug\AppData\Local\Temp\ccVxVFSv.s 			page 158


 7882 0611 51       		.byte	0x51
 7883 0612 9F       		.byte	0x9f
 7884 0613 00000000 		.4byte	0
 7885 0617 00000000 		.4byte	0
 7886              	.LLST42:
 7887 061b 1A000000 		.4byte	.LVL193
 7888 061f 24000000 		.4byte	.LVL194
 7889 0623 0100     		.2byte	0x1
 7890 0625 50       		.byte	0x50
 7891 0626 2A000000 		.4byte	.LVL196
 7892 062a 39000000 		.4byte	.LVL198-1
 7893 062e 0100     		.2byte	0x1
 7894 0630 50       		.byte	0x50
 7895 0631 39000000 		.4byte	.LVL198-1
 7896 0635 D4000000 		.4byte	.LVL218
 7897 0639 0100     		.2byte	0x1
 7898 063b 54       		.byte	0x54
 7899 063c D4000000 		.4byte	.LVL218
 7900 0640 D6000000 		.4byte	.LVL219
 7901 0644 0100     		.2byte	0x1
 7902 0646 50       		.byte	0x50
 7903 0647 D6000000 		.4byte	.LVL219
 7904 064b DC000000 		.4byte	.LVL222
 7905 064f 0100     		.2byte	0x1
 7906 0651 54       		.byte	0x54
 7907 0652 00000000 		.4byte	0
 7908 0656 00000000 		.4byte	0
 7909              	.LLST43:
 7910 065a 4C000000 		.4byte	.LVL200
 7911 065e 5C000000 		.4byte	.LVL201
 7912 0662 0100     		.2byte	0x1
 7913 0664 50       		.byte	0x50
 7914 0665 5C000000 		.4byte	.LVL201
 7915 0669 62000000 		.4byte	.LVL203
 7916 066d 0100     		.2byte	0x1
 7917 066f 55       		.byte	0x55
 7918 0670 62000000 		.4byte	.LVL203
 7919 0674 72000000 		.4byte	.LVL204
 7920 0678 0100     		.2byte	0x1
 7921 067a 50       		.byte	0x50
 7922 067b 72000000 		.4byte	.LVL204
 7923 067f D4000000 		.4byte	.LVL218
 7924 0683 0100     		.2byte	0x1
 7925 0685 55       		.byte	0x55
 7926 0686 D8000000 		.4byte	.LVL220
 7927 068a DA000000 		.4byte	.LVL221
 7928 068e 0100     		.2byte	0x1
 7929 0690 50       		.byte	0x50
 7930 0691 DA000000 		.4byte	.LVL221
 7931 0695 DC000000 		.4byte	.LVL222
 7932 0699 0100     		.2byte	0x1
 7933 069b 55       		.byte	0x55
 7934 069c 00000000 		.4byte	0
 7935 06a0 00000000 		.4byte	0
 7936              	.LLST44:
 7937 06a4 7C000000 		.4byte	.LVL206
 7938 06a8 82000000 		.4byte	.LVL208
ARM GAS  C:\Users\d3bug\AppData\Local\Temp\ccVxVFSv.s 			page 159


 7939 06ac 0100     		.2byte	0x1
 7940 06ae 50       		.byte	0x50
 7941 06af 88000000 		.4byte	.LVL210
 7942 06b3 8C000000 		.4byte	.LVL211
 7943 06b7 0100     		.2byte	0x1
 7944 06b9 50       		.byte	0x50
 7945 06ba 00000000 		.4byte	0
 7946 06be 00000000 		.4byte	0
 7947              	.LLST45:
 7948 06c2 7E000000 		.4byte	.LVL207
 7949 06c6 82000000 		.4byte	.LVL208
 7950 06ca 0200     		.2byte	0x2
 7951 06cc 70       		.byte	0x70
 7952 06cd 08       		.sleb128 8
 7953 06ce 82000000 		.4byte	.LVL208
 7954 06d2 85000000 		.4byte	.LVL209-1
 7955 06d6 0100     		.2byte	0x1
 7956 06d8 51       		.byte	0x51
 7957 06d9 00000000 		.4byte	0
 7958 06dd 00000000 		.4byte	0
 7959              	.LLST46:
 7960 06e1 7E000000 		.4byte	.LVL207
 7961 06e5 88000000 		.4byte	.LVL210
 7962 06e9 0100     		.2byte	0x1
 7963 06eb 54       		.byte	0x54
 7964 06ec 00000000 		.4byte	0
 7965 06f0 00000000 		.4byte	0
 7966              	.LLST47:
 7967 06f4 88000000 		.4byte	.LVL210
 7968 06f8 92000000 		.4byte	.LVL213
 7969 06fc 0100     		.2byte	0x1
 7970 06fe 54       		.byte	0x54
 7971 06ff 00000000 		.4byte	0
 7972 0703 00000000 		.4byte	0
 7973              	.LLST48:
 7974 0707 98000000 		.4byte	.LVL214
 7975 070b C0000000 		.4byte	.LVL215
 7976 070f 0100     		.2byte	0x1
 7977 0711 50       		.byte	0x50
 7978 0712 00000000 		.4byte	0
 7979 0716 00000000 		.4byte	0
 7980              	.LLST49:
 7981 071a 00000000 		.4byte	.LVL223
 7982 071e 09000000 		.4byte	.LVL224-1
 7983 0722 0100     		.2byte	0x1
 7984 0724 50       		.byte	0x50
 7985 0725 09000000 		.4byte	.LVL224-1
 7986 0729 28000000 		.4byte	.LFE15
 7987 072d 0100     		.2byte	0x1
 7988 072f 55       		.byte	0x55
 7989 0730 00000000 		.4byte	0
 7990 0734 00000000 		.4byte	0
 7991              	.LLST50:
 7992 0738 00000000 		.4byte	.LVL223
 7993 073c 09000000 		.4byte	.LVL224-1
 7994 0740 0100     		.2byte	0x1
 7995 0742 51       		.byte	0x51
ARM GAS  C:\Users\d3bug\AppData\Local\Temp\ccVxVFSv.s 			page 160


 7996 0743 09000000 		.4byte	.LVL224-1
 7997 0747 28000000 		.4byte	.LFE15
 7998 074b 0400     		.2byte	0x4
 7999 074d F3       		.byte	0xf3
 8000 074e 01       		.uleb128 0x1
 8001 074f 51       		.byte	0x51
 8002 0750 9F       		.byte	0x9f
 8003 0751 00000000 		.4byte	0
 8004 0755 00000000 		.4byte	0
 8005              	.LLST51:
 8006 0759 0A000000 		.4byte	.LVL224
 8007 075d 24000000 		.4byte	.LVL225
 8008 0761 0100     		.2byte	0x1
 8009 0763 50       		.byte	0x50
 8010 0764 00000000 		.4byte	0
 8011 0768 00000000 		.4byte	0
 8012              	.LLST52:
 8013 076c 00000000 		.4byte	.LVL227
 8014 0770 0B000000 		.4byte	.LVL228-1
 8015 0774 0100     		.2byte	0x1
 8016 0776 50       		.byte	0x50
 8017 0777 0B000000 		.4byte	.LVL228-1
 8018 077b 52000000 		.4byte	.LFE16
 8019 077f 0100     		.2byte	0x1
 8020 0781 54       		.byte	0x54
 8021 0782 00000000 		.4byte	0
 8022 0786 00000000 		.4byte	0
 8023              	.LLST53:
 8024 078a 00000000 		.4byte	.LVL227
 8025 078e 0B000000 		.4byte	.LVL228-1
 8026 0792 0100     		.2byte	0x1
 8027 0794 51       		.byte	0x51
 8028 0795 0B000000 		.4byte	.LVL228-1
 8029 0799 52000000 		.4byte	.LFE16
 8030 079d 0400     		.2byte	0x4
 8031 079f F3       		.byte	0xf3
 8032 07a0 01       		.uleb128 0x1
 8033 07a1 51       		.byte	0x51
 8034 07a2 9F       		.byte	0x9f
 8035 07a3 00000000 		.4byte	0
 8036 07a7 00000000 		.4byte	0
 8037              	.LLST54:
 8038 07ab 00000000 		.4byte	.LVL227
 8039 07af 0B000000 		.4byte	.LVL228-1
 8040 07b3 0100     		.2byte	0x1
 8041 07b5 52       		.byte	0x52
 8042 07b6 0B000000 		.4byte	.LVL228-1
 8043 07ba 52000000 		.4byte	.LFE16
 8044 07be 0400     		.2byte	0x4
 8045 07c0 F3       		.byte	0xf3
 8046 07c1 01       		.uleb128 0x1
 8047 07c2 52       		.byte	0x52
 8048 07c3 9F       		.byte	0x9f
 8049 07c4 00000000 		.4byte	0
 8050 07c8 00000000 		.4byte	0
 8051              	.LLST55:
 8052 07cc 12000000 		.4byte	.LVL229
ARM GAS  C:\Users\d3bug\AppData\Local\Temp\ccVxVFSv.s 			page 161


 8053 07d0 4E000000 		.4byte	.LVL230
 8054 07d4 0100     		.2byte	0x1
 8055 07d6 50       		.byte	0x50
 8056 07d7 00000000 		.4byte	0
 8057 07db 00000000 		.4byte	0
 8058              	.LLST56:
 8059 07df 00000000 		.4byte	.LVL232
 8060 07e3 05000000 		.4byte	.LVL233-1
 8061 07e7 0100     		.2byte	0x1
 8062 07e9 50       		.byte	0x50
 8063 07ea 05000000 		.4byte	.LVL233-1
 8064 07ee 0E000000 		.4byte	.LFE17
 8065 07f2 0400     		.2byte	0x4
 8066 07f4 F3       		.byte	0xf3
 8067 07f5 01       		.uleb128 0x1
 8068 07f6 50       		.byte	0x50
 8069 07f7 9F       		.byte	0x9f
 8070 07f8 00000000 		.4byte	0
 8071 07fc 00000000 		.4byte	0
 8072              	.LLST57:
 8073 0800 06000000 		.4byte	.LVL233
 8074 0804 08000000 		.4byte	.LVL234
 8075 0808 0100     		.2byte	0x1
 8076 080a 50       		.byte	0x50
 8077 080b 00000000 		.4byte	0
 8078 080f 00000000 		.4byte	0
 8079              	.LLST58:
 8080 0813 00000000 		.4byte	.LVL235
 8081 0817 0B000000 		.4byte	.LVL236-1
 8082 081b 0100     		.2byte	0x1
 8083 081d 50       		.byte	0x50
 8084 081e 0B000000 		.4byte	.LVL236-1
 8085 0822 BA000000 		.4byte	.LFE24
 8086 0826 0100     		.2byte	0x1
 8087 0828 56       		.byte	0x56
 8088 0829 00000000 		.4byte	0
 8089 082d 00000000 		.4byte	0
 8090              	.LLST59:
 8091 0831 0E000000 		.4byte	.LVL237
 8092 0835 68000000 		.4byte	.LVL249
 8093 0839 0100     		.2byte	0x1
 8094 083b 54       		.byte	0x54
 8095 083c 00000000 		.4byte	0
 8096 0840 00000000 		.4byte	0
 8097              	.LLST60:
 8098 0844 68000000 		.4byte	.LVL249
 8099 0848 6C000000 		.4byte	.LVL250
 8100 084c 0100     		.2byte	0x1
 8101 084e 50       		.byte	0x50
 8102 084f 6C000000 		.4byte	.LVL250
 8103 0853 A8000000 		.4byte	.LVL257
 8104 0857 0100     		.2byte	0x1
 8105 0859 54       		.byte	0x54
 8106 085a A8000000 		.4byte	.LVL257
 8107 085e B0000000 		.4byte	.LVL258
 8108 0862 0100     		.2byte	0x1
 8109 0864 50       		.byte	0x50
ARM GAS  C:\Users\d3bug\AppData\Local\Temp\ccVxVFSv.s 			page 162


 8110 0865 B0000000 		.4byte	.LVL258
 8111 0869 BA000000 		.4byte	.LFE24
 8112 086d 0100     		.2byte	0x1
 8113 086f 54       		.byte	0x54
 8114 0870 00000000 		.4byte	0
 8115 0874 00000000 		.4byte	0
 8116              	.LLST61:
 8117 0878 32000000 		.4byte	.LVL240
 8118 087c 38000000 		.4byte	.LVL241
 8119 0880 0200     		.2byte	0x2
 8120 0882 31       		.byte	0x31
 8121 0883 9F       		.byte	0x9f
 8122 0884 44000000 		.4byte	.LVL242
 8123 0888 4A000000 		.4byte	.LVL243
 8124 088c 0200     		.2byte	0x2
 8125 088e 33       		.byte	0x33
 8126 088f 9F       		.byte	0x9f
 8127 0890 52000000 		.4byte	.LVL244
 8128 0894 BA000000 		.4byte	.LFE24
 8129 0898 0100     		.2byte	0x1
 8130 089a 59       		.byte	0x59
 8131 089b 00000000 		.4byte	0
 8132 089f 00000000 		.4byte	0
 8133              	.LLST62:
 8134 08a3 16000000 		.4byte	.LVL239
 8135 08a7 56000000 		.4byte	.LVL245
 8136 08ab 0100     		.2byte	0x1
 8137 08ad 50       		.byte	0x50
 8138 08ae 56000000 		.4byte	.LVL245
 8139 08b2 BA000000 		.4byte	.LFE24
 8140 08b6 0100     		.2byte	0x1
 8141 08b8 57       		.byte	0x57
 8142 08b9 00000000 		.4byte	0
 8143 08bd 00000000 		.4byte	0
 8144              	.LLST63:
 8145 08c1 32000000 		.4byte	.LVL240
 8146 08c5 38000000 		.4byte	.LVL241
 8147 08c9 0100     		.2byte	0x1
 8148 08cb 58       		.byte	0x58
 8149 08cc 44000000 		.4byte	.LVL242
 8150 08d0 4A000000 		.4byte	.LVL243
 8151 08d4 0100     		.2byte	0x1
 8152 08d6 58       		.byte	0x58
 8153 08d7 52000000 		.4byte	.LVL244
 8154 08db BA000000 		.4byte	.LFE24
 8155 08df 0100     		.2byte	0x1
 8156 08e1 58       		.byte	0x58
 8157 08e2 00000000 		.4byte	0
 8158 08e6 00000000 		.4byte	0
 8159              	.LLST64:
 8160 08ea 00000000 		.4byte	.LVL260
 8161 08ee 0B000000 		.4byte	.LVL261-1
 8162 08f2 0100     		.2byte	0x1
 8163 08f4 50       		.byte	0x50
 8164 08f5 0B000000 		.4byte	.LVL261-1
 8165 08f9 BC000000 		.4byte	.LFE25
 8166 08fd 0100     		.2byte	0x1
ARM GAS  C:\Users\d3bug\AppData\Local\Temp\ccVxVFSv.s 			page 163


 8167 08ff 56       		.byte	0x56
 8168 0900 00000000 		.4byte	0
 8169 0904 00000000 		.4byte	0
 8170              	.LLST65:
 8171 0908 0E000000 		.4byte	.LVL262
 8172 090c 68000000 		.4byte	.LVL274
 8173 0910 0100     		.2byte	0x1
 8174 0912 54       		.byte	0x54
 8175 0913 00000000 		.4byte	0
 8176 0917 00000000 		.4byte	0
 8177              	.LLST66:
 8178 091b 68000000 		.4byte	.LVL274
 8179 091f 6C000000 		.4byte	.LVL275
 8180 0923 0100     		.2byte	0x1
 8181 0925 50       		.byte	0x50
 8182 0926 6C000000 		.4byte	.LVL275
 8183 092a AA000000 		.4byte	.LVL282
 8184 092e 0100     		.2byte	0x1
 8185 0930 54       		.byte	0x54
 8186 0931 AA000000 		.4byte	.LVL282
 8187 0935 B2000000 		.4byte	.LVL283
 8188 0939 0100     		.2byte	0x1
 8189 093b 50       		.byte	0x50
 8190 093c B2000000 		.4byte	.LVL283
 8191 0940 BC000000 		.4byte	.LFE25
 8192 0944 0100     		.2byte	0x1
 8193 0946 54       		.byte	0x54
 8194 0947 00000000 		.4byte	0
 8195 094b 00000000 		.4byte	0
 8196              	.LLST67:
 8197 094f 32000000 		.4byte	.LVL265
 8198 0953 38000000 		.4byte	.LVL266
 8199 0957 0200     		.2byte	0x2
 8200 0959 31       		.byte	0x31
 8201 095a 9F       		.byte	0x9f
 8202 095b 44000000 		.4byte	.LVL267
 8203 095f 4A000000 		.4byte	.LVL268
 8204 0963 0200     		.2byte	0x2
 8205 0965 34       		.byte	0x34
 8206 0966 9F       		.byte	0x9f
 8207 0967 52000000 		.4byte	.LVL269
 8208 096b BC000000 		.4byte	.LFE25
 8209 096f 0100     		.2byte	0x1
 8210 0971 59       		.byte	0x59
 8211 0972 00000000 		.4byte	0
 8212 0976 00000000 		.4byte	0
 8213              	.LLST68:
 8214 097a 16000000 		.4byte	.LVL264
 8215 097e 56000000 		.4byte	.LVL270
 8216 0982 0100     		.2byte	0x1
 8217 0984 50       		.byte	0x50
 8218 0985 56000000 		.4byte	.LVL270
 8219 0989 BC000000 		.4byte	.LFE25
 8220 098d 0100     		.2byte	0x1
 8221 098f 57       		.byte	0x57
 8222 0990 00000000 		.4byte	0
 8223 0994 00000000 		.4byte	0
ARM GAS  C:\Users\d3bug\AppData\Local\Temp\ccVxVFSv.s 			page 164


 8224              	.LLST69:
 8225 0998 16000000 		.4byte	.LVL264
 8226 099c 32000000 		.4byte	.LVL265
 8227 09a0 0200     		.2byte	0x2
 8228 09a2 70       		.byte	0x70
 8229 09a3 14       		.sleb128 20
 8230 09a4 32000000 		.4byte	.LVL265
 8231 09a8 38000000 		.4byte	.LVL266
 8232 09ac 0100     		.2byte	0x1
 8233 09ae 58       		.byte	0x58
 8234 09af 38000000 		.4byte	.LVL266
 8235 09b3 44000000 		.4byte	.LVL267
 8236 09b7 0200     		.2byte	0x2
 8237 09b9 70       		.byte	0x70
 8238 09ba 14       		.sleb128 20
 8239 09bb 44000000 		.4byte	.LVL267
 8240 09bf 4A000000 		.4byte	.LVL268
 8241 09c3 0100     		.2byte	0x1
 8242 09c5 58       		.byte	0x58
 8243 09c6 4A000000 		.4byte	.LVL268
 8244 09ca 52000000 		.4byte	.LVL269
 8245 09ce 0200     		.2byte	0x2
 8246 09d0 70       		.byte	0x70
 8247 09d1 14       		.sleb128 20
 8248 09d2 52000000 		.4byte	.LVL269
 8249 09d6 BC000000 		.4byte	.LFE25
 8250 09da 0100     		.2byte	0x1
 8251 09dc 58       		.byte	0x58
 8252 09dd 00000000 		.4byte	0
 8253 09e1 00000000 		.4byte	0
 8254              	.LLST70:
 8255 09e5 00000000 		.4byte	.LVL285
 8256 09e9 07000000 		.4byte	.LVL286-1
 8257 09ed 0100     		.2byte	0x1
 8258 09ef 50       		.byte	0x50
 8259 09f0 07000000 		.4byte	.LVL286-1
 8260 09f4 5A000000 		.4byte	.LFE23
 8261 09f8 0100     		.2byte	0x1
 8262 09fa 55       		.byte	0x55
 8263 09fb 00000000 		.4byte	0
 8264 09ff 00000000 		.4byte	0
 8265              	.LLST71:
 8266 0a03 00000000 		.4byte	.LVL298
 8267 0a07 0D000000 		.4byte	.LVL299-1
 8268 0a0b 0100     		.2byte	0x1
 8269 0a0d 50       		.byte	0x50
 8270 0a0e 0D000000 		.4byte	.LVL299-1
 8271 0a12 9C000000 		.4byte	.LVL323
 8272 0a16 0100     		.2byte	0x1
 8273 0a18 57       		.byte	0x57
 8274 0a19 9C000000 		.4byte	.LVL323
 8275 0a1d A4000000 		.4byte	.LFE22
 8276 0a21 0400     		.2byte	0x4
 8277 0a23 F3       		.byte	0xf3
 8278 0a24 01       		.uleb128 0x1
 8279 0a25 50       		.byte	0x50
 8280 0a26 9F       		.byte	0x9f
ARM GAS  C:\Users\d3bug\AppData\Local\Temp\ccVxVFSv.s 			page 165


 8281 0a27 00000000 		.4byte	0
 8282 0a2b 00000000 		.4byte	0
 8283              	.LLST72:
 8284 0a2f 00000000 		.4byte	.LVL298
 8285 0a33 0D000000 		.4byte	.LVL299-1
 8286 0a37 0100     		.2byte	0x1
 8287 0a39 51       		.byte	0x51
 8288 0a3a 0D000000 		.4byte	.LVL299-1
 8289 0a3e A4000000 		.4byte	.LFE22
 8290 0a42 0400     		.2byte	0x4
 8291 0a44 F3       		.byte	0xf3
 8292 0a45 01       		.uleb128 0x1
 8293 0a46 51       		.byte	0x51
 8294 0a47 9F       		.byte	0x9f
 8295 0a48 00000000 		.4byte	0
 8296 0a4c 00000000 		.4byte	0
 8297              	.LLST73:
 8298 0a50 00000000 		.4byte	.LVL298
 8299 0a54 0D000000 		.4byte	.LVL299-1
 8300 0a58 0100     		.2byte	0x1
 8301 0a5a 52       		.byte	0x52
 8302 0a5b 0D000000 		.4byte	.LVL299-1
 8303 0a5f 9C000000 		.4byte	.LVL323
 8304 0a63 0100     		.2byte	0x1
 8305 0a65 56       		.byte	0x56
 8306 0a66 9C000000 		.4byte	.LVL323
 8307 0a6a A4000000 		.4byte	.LFE22
 8308 0a6e 0400     		.2byte	0x4
 8309 0a70 F3       		.byte	0xf3
 8310 0a71 01       		.uleb128 0x1
 8311 0a72 52       		.byte	0x52
 8312 0a73 9F       		.byte	0x9f
 8313 0a74 00000000 		.4byte	0
 8314 0a78 00000000 		.4byte	0
 8315              	.LLST74:
 8316 0a7c 10000000 		.4byte	.LVL300
 8317 0a80 1A000000 		.4byte	.LVL301
 8318 0a84 0100     		.2byte	0x1
 8319 0a86 50       		.byte	0x50
 8320 0a87 26000000 		.4byte	.LVL304
 8321 0a8b 2C000000 		.4byte	.LVL305
 8322 0a8f 0100     		.2byte	0x1
 8323 0a91 50       		.byte	0x50
 8324 0a92 38000000 		.4byte	.LVL308
 8325 0a96 3E000000 		.4byte	.LVL309
 8326 0a9a 0100     		.2byte	0x1
 8327 0a9c 50       		.byte	0x50
 8328 0a9d 7A000000 		.4byte	.LVL316
 8329 0aa1 98000000 		.4byte	.LVL322
 8330 0aa5 0100     		.2byte	0x1
 8331 0aa7 50       		.byte	0x50
 8332 0aa8 00000000 		.4byte	0
 8333 0aac 00000000 		.4byte	0
 8334              	.LLST75:
 8335 0ab0 42000000 		.4byte	.LVL310
 8336 0ab4 50000000 		.4byte	.LVL311
 8337 0ab8 0100     		.2byte	0x1
ARM GAS  C:\Users\d3bug\AppData\Local\Temp\ccVxVFSv.s 			page 166


 8338 0aba 56       		.byte	0x56
 8339 0abb 00000000 		.4byte	0
 8340 0abf 00000000 		.4byte	0
 8341              	.LLST76:
 8342 0ac3 5A000000 		.4byte	.LVL312
 8343 0ac7 68000000 		.4byte	.LVL313
 8344 0acb 0100     		.2byte	0x1
 8345 0acd 56       		.byte	0x56
 8346 0ace 00000000 		.4byte	0
 8347 0ad2 00000000 		.4byte	0
 8348              	.LLST77:
 8349 0ad6 80000000 		.4byte	.LVL317
 8350 0ada 88000000 		.4byte	.LVL318
 8351 0ade 0100     		.2byte	0x1
 8352 0ae0 53       		.byte	0x53
 8353 0ae1 8A000000 		.4byte	.LVL319
 8354 0ae5 8C000000 		.4byte	.LVL320
 8355 0ae9 0100     		.2byte	0x1
 8356 0aeb 53       		.byte	0x53
 8357 0aec 8E000000 		.4byte	.LVL321
 8358 0af0 98000000 		.4byte	.LVL322
 8359 0af4 0100     		.2byte	0x1
 8360 0af6 53       		.byte	0x53
 8361 0af7 00000000 		.4byte	0
 8362 0afb 00000000 		.4byte	0
 8363              	.LLST78:
 8364 0aff 00000000 		.4byte	.LVL324
 8365 0b03 05000000 		.4byte	.LVL325-1
 8366 0b07 0100     		.2byte	0x1
 8367 0b09 50       		.byte	0x50
 8368 0b0a 05000000 		.4byte	.LVL325-1
 8369 0b0e 0E000000 		.4byte	.LFE18
 8370 0b12 0400     		.2byte	0x4
 8371 0b14 F3       		.byte	0xf3
 8372 0b15 01       		.uleb128 0x1
 8373 0b16 50       		.byte	0x50
 8374 0b17 9F       		.byte	0x9f
 8375 0b18 00000000 		.4byte	0
 8376 0b1c 00000000 		.4byte	0
 8377              	.LLST79:
 8378 0b20 06000000 		.4byte	.LVL325
 8379 0b24 08000000 		.4byte	.LVL326
 8380 0b28 0100     		.2byte	0x1
 8381 0b2a 50       		.byte	0x50
 8382 0b2b 00000000 		.4byte	0
 8383 0b2f 00000000 		.4byte	0
 8384              	.LLST80:
 8385 0b33 00000000 		.4byte	.LVL327
 8386 0b37 05000000 		.4byte	.LVL328-1
 8387 0b3b 0100     		.2byte	0x1
 8388 0b3d 50       		.byte	0x50
 8389 0b3e 05000000 		.4byte	.LVL328-1
 8390 0b42 0E000000 		.4byte	.LFE19
 8391 0b46 0400     		.2byte	0x4
 8392 0b48 F3       		.byte	0xf3
 8393 0b49 01       		.uleb128 0x1
 8394 0b4a 50       		.byte	0x50
ARM GAS  C:\Users\d3bug\AppData\Local\Temp\ccVxVFSv.s 			page 167


 8395 0b4b 9F       		.byte	0x9f
 8396 0b4c 00000000 		.4byte	0
 8397 0b50 00000000 		.4byte	0
 8398              	.LLST81:
 8399 0b54 06000000 		.4byte	.LVL328
 8400 0b58 08000000 		.4byte	.LVL329
 8401 0b5c 0100     		.2byte	0x1
 8402 0b5e 50       		.byte	0x50
 8403 0b5f 00000000 		.4byte	0
 8404 0b63 00000000 		.4byte	0
 8405              	.LLST82:
 8406 0b67 00000000 		.4byte	.LVL330
 8407 0b6b 07000000 		.4byte	.LVL332-1
 8408 0b6f 0100     		.2byte	0x1
 8409 0b71 50       		.byte	0x50
 8410 0b72 07000000 		.4byte	.LVL332-1
 8411 0b76 1C000000 		.4byte	.LFE20
 8412 0b7a 0100     		.2byte	0x1
 8413 0b7c 55       		.byte	0x55
 8414 0b7d 00000000 		.4byte	0
 8415 0b81 00000000 		.4byte	0
 8416              	.LLST83:
 8417 0b85 04000000 		.4byte	.LVL331
 8418 0b89 07000000 		.4byte	.LVL332-1
 8419 0b8d 0100     		.2byte	0x1
 8420 0b8f 50       		.byte	0x50
 8421 0b90 07000000 		.4byte	.LVL332-1
 8422 0b94 0A000000 		.4byte	.LVL333
 8423 0b98 0100     		.2byte	0x1
 8424 0b9a 55       		.byte	0x55
 8425 0b9b 00000000 		.4byte	0
 8426 0b9f 00000000 		.4byte	0
 8427              	.LLST84:
 8428 0ba3 00000000 		.4byte	.LVL335
 8429 0ba7 07000000 		.4byte	.LVL337-1
 8430 0bab 0100     		.2byte	0x1
 8431 0bad 50       		.byte	0x50
 8432 0bae 07000000 		.4byte	.LVL337-1
 8433 0bb2 1C000000 		.4byte	.LFE21
 8434 0bb6 0100     		.2byte	0x1
 8435 0bb8 55       		.byte	0x55
 8436 0bb9 00000000 		.4byte	0
 8437 0bbd 00000000 		.4byte	0
 8438              	.LLST85:
 8439 0bc1 04000000 		.4byte	.LVL336
 8440 0bc5 07000000 		.4byte	.LVL337-1
 8441 0bc9 0100     		.2byte	0x1
 8442 0bcb 50       		.byte	0x50
 8443 0bcc 07000000 		.4byte	.LVL337-1
 8444 0bd0 0A000000 		.4byte	.LVL338
 8445 0bd4 0100     		.2byte	0x1
 8446 0bd6 55       		.byte	0x55
 8447 0bd7 00000000 		.4byte	0
 8448 0bdb 00000000 		.4byte	0
 8449              		.section	.debug_aranges,"",%progbits
 8450 0000 94000000 		.4byte	0x94
 8451 0004 0200     		.2byte	0x2
ARM GAS  C:\Users\d3bug\AppData\Local\Temp\ccVxVFSv.s 			page 168


 8452 0006 00000000 		.4byte	.Ldebug_info0
 8453 000a 04       		.byte	0x4
 8454 000b 00       		.byte	0
 8455 000c 0000     		.2byte	0
 8456 000e 0000     		.2byte	0
 8457 0010 00000000 		.4byte	.LFB26
 8458 0014 DA000000 		.4byte	.LFE26-.LFB26
 8459 0018 00000000 		.4byte	.LFB27
 8460 001c 14020000 		.4byte	.LFE27-.LFB27
 8461 0020 00000000 		.4byte	.LFB28
 8462 0024 FE000000 		.4byte	.LFE28-.LFB28
 8463 0028 00000000 		.4byte	.LFB29
 8464 002c 8A010000 		.4byte	.LFE29-.LFB29
 8465 0030 00000000 		.4byte	.LFB14
 8466 0034 F8000000 		.4byte	.LFE14-.LFB14
 8467 0038 00000000 		.4byte	.LFB15
 8468 003c 28000000 		.4byte	.LFE15-.LFB15
 8469 0040 00000000 		.4byte	.LFB16
 8470 0044 52000000 		.4byte	.LFE16-.LFB16
 8471 0048 00000000 		.4byte	.LFB17
 8472 004c 0E000000 		.4byte	.LFE17-.LFB17
 8473 0050 00000000 		.4byte	.LFB24
 8474 0054 BA000000 		.4byte	.LFE24-.LFB24
 8475 0058 00000000 		.4byte	.LFB25
 8476 005c BC000000 		.4byte	.LFE25-.LFB25
 8477 0060 00000000 		.4byte	.LFB23
 8478 0064 5A000000 		.4byte	.LFE23-.LFB23
 8479 0068 00000000 		.4byte	.LFB22
 8480 006c A4000000 		.4byte	.LFE22-.LFB22
 8481 0070 00000000 		.4byte	.LFB18
 8482 0074 0E000000 		.4byte	.LFE18-.LFB18
 8483 0078 00000000 		.4byte	.LFB19
 8484 007c 0E000000 		.4byte	.LFE19-.LFB19
 8485 0080 00000000 		.4byte	.LFB20
 8486 0084 1C000000 		.4byte	.LFE20-.LFB20
 8487 0088 00000000 		.4byte	.LFB21
 8488 008c 1C000000 		.4byte	.LFE21-.LFB21
 8489 0090 00000000 		.4byte	0
 8490 0094 00000000 		.4byte	0
 8491              		.section	.debug_ranges,"",%progbits
 8492              	.Ldebug_ranges0:
 8493 0000 80000000 		.4byte	.LBB36
 8494 0004 8C000000 		.4byte	.LBE36
 8495 0008 8E000000 		.4byte	.LBB37
 8496 000c 98000000 		.4byte	.LBE37
 8497 0010 00000000 		.4byte	0
 8498 0014 00000000 		.4byte	0
 8499 0018 00000000 		.4byte	.LFB26
 8500 001c DA000000 		.4byte	.LFE26
 8501 0020 00000000 		.4byte	.LFB27
 8502 0024 14020000 		.4byte	.LFE27
 8503 0028 00000000 		.4byte	.LFB28
 8504 002c FE000000 		.4byte	.LFE28
 8505 0030 00000000 		.4byte	.LFB29
 8506 0034 8A010000 		.4byte	.LFE29
 8507 0038 00000000 		.4byte	.LFB14
 8508 003c F8000000 		.4byte	.LFE14
ARM GAS  C:\Users\d3bug\AppData\Local\Temp\ccVxVFSv.s 			page 169


 8509 0040 00000000 		.4byte	.LFB15
 8510 0044 28000000 		.4byte	.LFE15
 8511 0048 00000000 		.4byte	.LFB16
 8512 004c 52000000 		.4byte	.LFE16
 8513 0050 00000000 		.4byte	.LFB17
 8514 0054 0E000000 		.4byte	.LFE17
 8515 0058 00000000 		.4byte	.LFB24
 8516 005c BA000000 		.4byte	.LFE24
 8517 0060 00000000 		.4byte	.LFB25
 8518 0064 BC000000 		.4byte	.LFE25
 8519 0068 00000000 		.4byte	.LFB23
 8520 006c 5A000000 		.4byte	.LFE23
 8521 0070 00000000 		.4byte	.LFB22
 8522 0074 A4000000 		.4byte	.LFE22
 8523 0078 00000000 		.4byte	.LFB18
 8524 007c 0E000000 		.4byte	.LFE18
 8525 0080 00000000 		.4byte	.LFB19
 8526 0084 0E000000 		.4byte	.LFE19
 8527 0088 00000000 		.4byte	.LFB20
 8528 008c 1C000000 		.4byte	.LFE20
 8529 0090 00000000 		.4byte	.LFB21
 8530 0094 1C000000 		.4byte	.LFE21
 8531 0098 00000000 		.4byte	0
 8532 009c 00000000 		.4byte	0
 8533              		.section	.debug_line,"",%progbits
 8534              	.Ldebug_line0:
 8535 0000 4D050000 		.section	.debug_str,"MS",%progbits,1
 8535      0200FF01 
 8535      00000201 
 8535      FB0E0D00 
 8535      01010101 
 8536              	.LASF85:
 8537 0000 636C6963 		.ascii	"click\000"
 8537      6B00
 8538              	.LASF77:
 8539 0006 5F6C765F 		.ascii	"_lv_obj_t\000"
 8539      6F626A5F 
 8539      7400
 8540              	.LASF84:
 8541 0010 66726565 		.ascii	"free_ptr\000"
 8541      5F707472 
 8541      00
 8542              	.LASF186:
 8543 0019 7374796C 		.ascii	"style\000"
 8543      6500
 8544              	.LASF20:
 8545 001f 66756C6C 		.ascii	"full\000"
 8545      00
 8546              	.LASF102:
 8547 0024 4C565F53 		.ascii	"LV_SIGNAL_STYLE_CHG\000"
 8547      49474E41 
 8547      4C5F5354 
 8547      594C455F 
 8547      43484700 
 8548              	.LASF238:
 8549 0038 6C765F63 		.ascii	"lv_cont_get_fit_height\000"
 8549      6F6E745F 
ARM GAS  C:\Users\d3bug\AppData\Local\Temp\ccVxVFSv.s 			page 170


 8549      6765745F 
 8549      6669745F 
 8549      68656967 
 8550              	.LASF108:
 8551 004f 4C565F53 		.ascii	"LV_SIGNAL_PRESSING\000"
 8551      49474E41 
 8551      4C5F5052 
 8551      45535349 
 8551      4E4700
 8552              	.LASF156:
 8553 0062 4C565F50 		.ascii	"LV_PROTECT_FOLLOW\000"
 8553      524F5445 
 8553      43545F46 
 8553      4F4C4C4F 
 8553      5700
 8554              	.LASF103:
 8555 0074 4C565F53 		.ascii	"LV_SIGNAL_REFR_EXT_SIZE\000"
 8555      49474E41 
 8555      4C5F5245 
 8555      46525F45 
 8555      58545F53 
 8556              	.LASF180:
 8557 008c 636F6E74 		.ascii	"cont\000"
 8557      00
 8558              	.LASF81:
 8559 0091 64657369 		.ascii	"design_func\000"
 8559      676E5F66 
 8559      756E6300 
 8560              	.LASF87:
 8561 009d 64726167 		.ascii	"drag_throw\000"
 8561      5F746872 
 8561      6F7700
 8562              	.LASF0:
 8563 00a8 756E7369 		.ascii	"unsigned int\000"
 8563      676E6564 
 8563      20696E74 
 8563      00
 8564              	.LASF67:
 8565 00b5 6C765F73 		.ascii	"lv_style_t\000"
 8565      74796C65 
 8565      5F7400
 8566              	.LASF36:
 8567 00c0 6765745F 		.ascii	"get_bitmap\000"
 8567      6269746D 
 8567      617000
 8568              	.LASF70:
 8569 00cb 68656164 		.ascii	"head\000"
 8569      00
 8570              	.LASF113:
 8571 00d0 4C565F53 		.ascii	"LV_SIGNAL_DRAG_BEGIN\000"
 8571      49474E41 
 8571      4C5F4452 
 8571      41475F42 
 8571      4547494E 
 8572              	.LASF213:
 8573 00e5 795F6F66 		.ascii	"y_ofs\000"
 8573      7300
ARM GAS  C:\Users\d3bug\AppData\Local\Temp\ccVxVFSv.s 			page 171


 8574              	.LASF129:
 8575 00eb 4C565F41 		.ascii	"LV_ALIGN_IN_LEFT_MID\000"
 8575      4C49474E 
 8575      5F494E5F 
 8575      4C454654 
 8575      5F4D4944 
 8576              	.LASF146:
 8577 0100 796F6673 		.ascii	"yofs\000"
 8577      00
 8578              	.LASF167:
 8579 0105 4C565F4C 		.ascii	"LV_LAYOUT_ROW_B\000"
 8579      41594F55 
 8579      545F524F 
 8579      575F4200 
 8580              	.LASF134:
 8581 0115 4C565F41 		.ascii	"LV_ALIGN_OUT_BOTTOM_LEFT\000"
 8581      4C49474E 
 8581      5F4F5554 
 8581      5F424F54 
 8581      544F4D5F 
 8582              	.LASF157:
 8583 012e 4C565F50 		.ascii	"LV_PROTECT_PRESS_LOST\000"
 8583      524F5445 
 8583      43545F50 
 8583      52455353 
 8583      5F4C4F53 
 8584              	.LASF170:
 8585 0144 6C765F6C 		.ascii	"lv_layout_t\000"
 8585      61796F75 
 8585      745F7400 
 8586              	.LASF166:
 8587 0150 4C565F4C 		.ascii	"LV_LAYOUT_ROW_M\000"
 8587      41594F55 
 8587      545F524F 
 8587      575F4D00 
 8588              	.LASF121:
 8589 0160 6C765F73 		.ascii	"lv_signal_func_t\000"
 8589      69676E61 
 8589      6C5F6675 
 8589      6E635F74 
 8589      00
 8590              	.LASF165:
 8591 0171 4C565F4C 		.ascii	"LV_LAYOUT_ROW_T\000"
 8591      41594F55 
 8591      545F524F 
 8591      575F5400 
 8592              	.LASF222:
 8593 0181 6C765F63 		.ascii	"lv_cont_set_layout\000"
 8593      6F6E745F 
 8593      7365745F 
 8593      6C61796F 
 8593      757400
 8594              	.LASF69:
 8595 0194 6E5F7369 		.ascii	"n_size\000"
 8595      7A6500
 8596              	.LASF82:
 8597 019b 6578745F 		.ascii	"ext_attr\000"
ARM GAS  C:\Users\d3bug\AppData\Local\Temp\ccVxVFSv.s 			page 172


 8597      61747472 
 8597      00
 8598              	.LASF227:
 8599 01a4 6C765F63 		.ascii	"lv_cont_get_layout\000"
 8599      6F6E745F 
 8599      6765745F 
 8599      6C61796F 
 8599      757400
 8600              	.LASF35:
 8601 01b7 756E6963 		.ascii	"unicode_list\000"
 8601      6F64655F 
 8601      6C697374 
 8601      00
 8602              	.LASF175:
 8603 01c4 74676C5F 		.ascii	"tgl_rel\000"
 8603      72656C00 
 8604              	.LASF109:
 8605 01cc 4C565F53 		.ascii	"LV_SIGNAL_PRESS_LOST\000"
 8605      49474E41 
 8605      4C5F5052 
 8605      4553535F 
 8605      4C4F5354 
 8606              	.LASF220:
 8607 01e1 6E65775F 		.ascii	"new_cont\000"
 8607      636F6E74 
 8607      00
 8608              	.LASF211:
 8609 01ea 6F626A5F 		.ascii	"obj_row\000"
 8609      726F7700 
 8610              	.LASF259:
 8611 01f2 6C765F74 		.ascii	"lv_theme_get_current\000"
 8611      68656D65 
 8611      5F676574 
 8611      5F637572 
 8611      72656E74 
 8612              	.LASF118:
 8613 0207 5F4C565F 		.ascii	"_LV_SIGNAL_FEEDBACK_SECTION_END\000"
 8613      5349474E 
 8613      414C5F46 
 8613      45454442 
 8613      41434B5F 
 8614              	.LASF155:
 8615 0227 4C565F50 		.ascii	"LV_PROTECT_POS\000"
 8615      524F5445 
 8615      43545F50 
 8615      4F5300
 8616              	.LASF270:
 8617 0236 6C765F73 		.ascii	"lv_style_pretty\000"
 8617      74796C65 
 8617      5F707265 
 8617      74747900 
 8618              	.LASF158:
 8619 0246 4C565F50 		.ascii	"LV_PROTECT_CLICK_FOCUS\000"
 8619      524F5445 
 8619      43545F43 
 8619      4C49434B 
 8619      5F464F43 
ARM GAS  C:\Users\d3bug\AppData\Local\Temp\ccVxVFSv.s 			page 173


 8620              	.LASF194:
 8621 025d 6C617374 		.ascii	"last_cord\000"
 8621      5F636F72 
 8621      6400
 8622              	.LASF151:
 8623 0267 6C765F6F 		.ascii	"lv_obj_t\000"
 8623      626A5F74 
 8623      00
 8624              	.LASF219:
 8625 0270 636F7079 		.ascii	"copy\000"
 8625      00
 8626              	.LASF255:
 8627 0275 6C765F6F 		.ascii	"lv_obj_get_parent\000"
 8627      626A5F67 
 8627      65745F70 
 8627      6172656E 
 8627      7400
 8628              	.LASF94:
 8629 0287 7265616C 		.ascii	"realign\000"
 8629      69676E00 
 8630              	.LASF49:
 8631 028f 696E6E65 		.ascii	"inner\000"
 8631      7200
 8632              	.LASF189:
 8633 0295 6C765F61 		.ascii	"lv_area_get_height\000"
 8633      7265615F 
 8633      6765745F 
 8633      68656967 
 8633      687400
 8634              	.LASF140:
 8635 02a8 4C565F41 		.ascii	"LV_ALIGN_OUT_RIGHT_TOP\000"
 8635      4C49474E 
 8635      5F4F5554 
 8635      5F524947 
 8635      48545F54 
 8636              	.LASF17:
 8637 02bf 75696E74 		.ascii	"uint32_t\000"
 8637      33325F74 
 8637      00
 8638              	.LASF248:
 8639 02c8 6C765F6F 		.ascii	"lv_obj_align\000"
 8639      626A5F61 
 8639      6C69676E 
 8639      00
 8640              	.LASF80:
 8641 02d5 7369676E 		.ascii	"signal_func\000"
 8641      616C5F66 
 8641      756E6300 
 8642              	.LASF244:
 8643 02e1 6C765F6F 		.ascii	"lv_obj_get_height\000"
 8643      626A5F67 
 8643      65745F68 
 8643      65696768 
 8643      7400
 8644              	.LASF262:
 8645 02f3 6C765F6F 		.ascii	"lv_obj_create\000"
 8645      626A5F63 
ARM GAS  C:\Users\d3bug\AppData\Local\Temp\ccVxVFSv.s 			page 174


 8645      72656174 
 8645      6500
 8646              	.LASF193:
 8647 0301 685F746F 		.ascii	"h_tot\000"
 8647      7400
 8648              	.LASF136:
 8649 0307 4C565F41 		.ascii	"LV_ALIGN_OUT_BOTTOM_RIGHT\000"
 8649      4C49474E 
 8649      5F4F5554 
 8649      5F424F54 
 8649      544F4D5F 
 8650              	.LASF144:
 8651 0321 62617365 		.ascii	"base\000"
 8651      00
 8652              	.LASF15:
 8653 0326 696E7431 		.ascii	"int16_t\000"
 8653      365F7400 
 8654              	.LASF172:
 8655 032e 686F725F 		.ascii	"hor_fit\000"
 8655      66697400 
 8656              	.LASF41:
 8657 0336 676C7970 		.ascii	"glyph_cnt\000"
 8657      685F636E 
 8657      7400
 8658              	.LASF13:
 8659 0340 6C6F6E67 		.ascii	"long long unsigned int\000"
 8659      206C6F6E 
 8659      6720756E 
 8659      7369676E 
 8659      65642069 
 8660              	.LASF198:
 8661 0357 6368696C 		.ascii	"child_rc\000"
 8661      645F7263 
 8661      00
 8662              	.LASF264:
 8663 0360 6C765F6F 		.ascii	"lv_obj_allocate_ext_attr\000"
 8663      626A5F61 
 8663      6C6C6F63 
 8663      6174655F 
 8663      6578745F 
 8664              	.LASF230:
 8665 0379 6C765F63 		.ascii	"lv_cont_layout_row\000"
 8665      6F6E745F 
 8665      6C61796F 
 8665      75745F72 
 8665      6F7700
 8666              	.LASF47:
 8667 038c 70617274 		.ascii	"part\000"
 8667      00
 8668              	.LASF260:
 8669 0391 6C765F6F 		.ascii	"lv_obj_refresh_style\000"
 8669      626A5F72 
 8669      65667265 
 8669      73685F73 
 8669      74796C65 
 8670              	.LASF185:
 8671 03a6 6C765F63 		.ascii	"lv_cont_set_style\000"
ARM GAS  C:\Users\d3bug\AppData\Local\Temp\ccVxVFSv.s 			page 175


 8671      6F6E745F 
 8671      7365745F 
 8671      7374796C 
 8671      6500
 8672              	.LASF28:
 8673 03b8 775F7078 		.ascii	"w_px\000"
 8673      00
 8674              	.LASF252:
 8675 03bd 6C765F6F 		.ascii	"lv_obj_get_child\000"
 8675      626A5F67 
 8675      65745F63 
 8675      68696C64 
 8675      00
 8676              	.LASF8:
 8677 03ce 5F5F7569 		.ascii	"__uint16_t\000"
 8677      6E743136 
 8677      5F7400
 8678              	.LASF95:
 8679 03d9 66726565 		.ascii	"free_num\000"
 8679      5F6E756D 
 8679      00
 8680              	.LASF53:
 8681 03e2 626F7264 		.ascii	"border\000"
 8681      657200
 8682              	.LASF152:
 8683 03e9 4C565F50 		.ascii	"LV_PROTECT_NONE\000"
 8683      524F5445 
 8683      43545F4E 
 8683      4F4E4500 
 8684              	.LASF135:
 8685 03f9 4C565F41 		.ascii	"LV_ALIGN_OUT_BOTTOM_MID\000"
 8685      4C49474E 
 8685      5F4F5554 
 8685      5F424F54 
 8685      544F4D5F 
 8686              	.LASF38:
 8687 0411 6E657874 		.ascii	"next_page\000"
 8687      5F706167 
 8687      6500
 8688              	.LASF161:
 8689 041b 4C565F4C 		.ascii	"LV_LAYOUT_CENTER\000"
 8689      41594F55 
 8689      545F4345 
 8689      4E544552 
 8689      00
 8690              	.LASF208:
 8691 042c 6C765F63 		.ascii	"lv_cont_layout_grid\000"
 8691      6F6E745F 
 8691      6C61796F 
 8691      75745F67 
 8691      72696400 
 8692              	.LASF45:
 8693 0440 636F6C6F 		.ascii	"color\000"
 8693      7200
 8694              	.LASF266:
 8695 0446 474E5520 		.ascii	"GNU C11 5.4.1 20160609 (release) [ARM/embedded-5-br"
 8695      43313120 
ARM GAS  C:\Users\d3bug\AppData\Local\Temp\ccVxVFSv.s 			page 176


 8695      352E342E 
 8695      31203230 
 8695      31363036 
 8696 0479 616E6368 		.ascii	"anch revision 237715] -mcpu=cortex-m3 -mthumb -g -O"
 8696      20726576 
 8696      6973696F 
 8696      6E203233 
 8696      37373135 
 8697 04ac 67202D66 		.ascii	"g -ffunction-sections -ffat-lto-objects\000"
 8697      66756E63 
 8697      74696F6E 
 8697      2D736563 
 8697      74696F6E 
 8698              	.LASF93:
 8699 04d4 6578745F 		.ascii	"ext_size\000"
 8699      73697A65 
 8699      00
 8700              	.LASF111:
 8701 04dd 4C565F53 		.ascii	"LV_SIGNAL_LONG_PRESS\000"
 8701      49474E41 
 8701      4C5F4C4F 
 8701      4E475F50 
 8701      52455353 
 8702              	.LASF61:
 8703 04f2 726F756E 		.ascii	"rounded\000"
 8703      64656400 
 8704              	.LASF176:
 8705 04fa 74676C5F 		.ascii	"tgl_pr\000"
 8705      707200
 8706              	.LASF138:
 8707 0501 4C565F41 		.ascii	"LV_ALIGN_OUT_LEFT_MID\000"
 8707      4C49474E 
 8707      5F4F5554 
 8707      5F4C4546 
 8707      545F4D49 
 8708              	.LASF233:
 8709 0517 7369676E 		.ascii	"sign\000"
 8709      00
 8710              	.LASF83:
 8711 051c 7374796C 		.ascii	"style_p\000"
 8711      655F7000 
 8712              	.LASF46:
 8713 0524 77696474 		.ascii	"width\000"
 8713      6800
 8714              	.LASF236:
 8715 052a 6C765F63 		.ascii	"lv_cont_get_ver_fit\000"
 8715      6F6E745F 
 8715      6765745F 
 8715      7665725F 
 8715      66697400 
 8716              	.LASF68:
 8717 053e 6C765F6C 		.ascii	"lv_ll_node_t\000"
 8717      6C5F6E6F 
 8717      64655F74 
 8717      00
 8718              	.LASF231:
 8719 054b 76706164 		.ascii	"vpad_corr\000"
ARM GAS  C:\Users\d3bug\AppData\Local\Temp\ccVxVFSv.s 			page 177


 8719      5F636F72 
 8719      7200
 8720              	.LASF75:
 8721 0555 5F426F6F 		.ascii	"_Bool\000"
 8721      6C00
 8722              	.LASF253:
 8723 055b 6C765F6F 		.ascii	"lv_obj_set_pos\000"
 8723      626A5F73 
 8723      65745F70 
 8723      6F7300
 8724              	.LASF191:
 8725 056a 6368696C 		.ascii	"child\000"
 8725      6400
 8726              	.LASF76:
 8727 0570 5F6C765F 		.ascii	"_lv_font_struct\000"
 8727      666F6E74 
 8727      5F737472 
 8727      75637400 
 8728              	.LASF215:
 8729 0580 6C765F63 		.ascii	"lv_cont_refr_autofit\000"
 8729      6F6E745F 
 8729      72656672 
 8729      5F617574 
 8729      6F666974 
 8730              	.LASF59:
 8731 0595 6C696E65 		.ascii	"line_space\000"
 8731      5F737061 
 8731      636500
 8732              	.LASF269:
 8733 05a0 6C765F63 		.ascii	"lv_cont_signal\000"
 8733      6F6E745F 
 8733      7369676E 
 8733      616C00
 8734              	.LASF214:
 8735 05af 6F626A5F 		.ascii	"obj_cnt\000"
 8735      636E7400 
 8736              	.LASF199:
 8737 05b7 6368696C 		.ascii	"child_tmp\000"
 8737      645F746D 
 8737      7000
 8738              	.LASF258:
 8739 05c1 6C765F6F 		.ascii	"lv_obj_set_style\000"
 8739      626A5F73 
 8739      65745F73 
 8739      74796C65 
 8739      00
 8740              	.LASF116:
 8741 05d2 4C565F53 		.ascii	"LV_SIGNAL_DEFOCUS\000"
 8741      49474E41 
 8741      4C5F4445 
 8741      464F4355 
 8741      5300
 8742              	.LASF195:
 8743 05e4 6C765F63 		.ascii	"lv_cont_layout_center\000"
 8743      6F6E745F 
 8743      6C61796F 
 8743      75745F63 
ARM GAS  C:\Users\d3bug\AppData\Local\Temp\ccVxVFSv.s 			page 178


 8743      656E7465 
 8744              	.LASF25:
 8745 05fa 63686172 		.ascii	"char\000"
 8745      00
 8746              	.LASF251:
 8747 05ff 6C765F6F 		.ascii	"lv_obj_get_width\000"
 8747      626A5F67 
 8747      65745F77 
 8747      69647468 
 8747      00
 8748              	.LASF247:
 8749 0610 6C765F6C 		.ascii	"lv_ll_get_tail\000"
 8749      6C5F6765 
 8749      745F7461 
 8749      696C00
 8750              	.LASF268:
 8751 061f 433A5C55 		.ascii	"C:\\Users\\d3bug\\Documents\\Creator\\lvgl_ssd1306\\"
 8751      73657273 
 8751      5C643362 
 8751      75675C44 
 8751      6F63756D 
 8752 064d 68656C6C 		.ascii	"hello_world_label.cydsn\000"
 8752      6F5F776F 
 8752      726C645F 
 8752      6C616265 
 8752      6C2E6379 
 8753              	.LASF218:
 8754 0665 76706164 		.ascii	"vpad\000"
 8754      00
 8755              	.LASF117:
 8756 066a 4C565F53 		.ascii	"LV_SIGNAL_CONTROLL\000"
 8756      49474E41 
 8756      4C5F434F 
 8756      4E54524F 
 8756      4C4C00
 8757              	.LASF98:
 8758 067d 6C765F72 		.ascii	"lv_res_t\000"
 8758      65735F74 
 8758      00
 8759              	.LASF64:
 8760 0686 74657874 		.ascii	"text\000"
 8760      00
 8761              	.LASF168:
 8762 068b 4C565F4C 		.ascii	"LV_LAYOUT_PRETTY\000"
 8762      41594F55 
 8762      545F5052 
 8762      45545459 
 8762      00
 8763              	.LASF30:
 8764 069c 6C765F66 		.ascii	"lv_font_glyph_dsc_t\000"
 8764      6F6E745F 
 8764      676C7970 
 8764      685F6473 
 8764      635F7400 
 8765              	.LASF21:
 8766 06b0 6C765F63 		.ascii	"lv_color1_t\000"
 8766      6F6C6F72 
ARM GAS  C:\Users\d3bug\AppData\Local\Temp\ccVxVFSv.s 			page 179


 8766      315F7400 
 8767              	.LASF105:
 8768 06bc 4C565F53 		.ascii	"LV_SIGNAL_GET_TYPE\000"
 8768      49474E41 
 8768      4C5F4745 
 8768      545F5459 
 8768      504500
 8769              	.LASF123:
 8770 06cf 4C565F41 		.ascii	"LV_ALIGN_IN_TOP_LEFT\000"
 8770      4C49474E 
 8770      5F494E5F 
 8770      544F505F 
 8770      4C454654 
 8771              	.LASF190:
 8772 06e4 6C765F63 		.ascii	"lv_cont_get_style\000"
 8772      6F6E745F 
 8772      6765745F 
 8772      7374796C 
 8772      6500
 8773              	.LASF128:
 8774 06f6 4C565F41 		.ascii	"LV_ALIGN_IN_BOTTOM_RIGHT\000"
 8774      4C49474E 
 8774      5F494E5F 
 8774      424F5454 
 8774      4F4D5F52 
 8775              	.LASF14:
 8776 070f 75696E74 		.ascii	"uint8_t\000"
 8776      385F7400 
 8777              	.LASF217:
 8778 0717 68706164 		.ascii	"hpad\000"
 8778      00
 8779              	.LASF100:
 8780 071c 4C565F53 		.ascii	"LV_SIGNAL_CHILD_CHG\000"
 8780      49474E41 
 8780      4C5F4348 
 8780      494C445F 
 8780      43484700 
 8781              	.LASF246:
 8782 0730 6C765F6F 		.ascii	"lv_obj_set_protect\000"
 8782      626A5F73 
 8782      65745F70 
 8782      726F7465 
 8782      637400
 8783              	.LASF44:
 8784 0743 6C765F73 		.ascii	"lv_shadow_type_t\000"
 8784      6861646F 
 8784      775F7479 
 8784      70655F74 
 8784      00
 8785              	.LASF204:
 8786 0754 6F626A31 		.ascii	"obj1\000"
 8786      00
 8787              	.LASF205:
 8788 0759 6F626A32 		.ascii	"obj2\000"
 8788      00
 8789              	.LASF226:
 8790 075e 6C765F63 		.ascii	"lv_cont_create\000"
ARM GAS  C:\Users\d3bug\AppData\Local\Temp\ccVxVFSv.s 			page 180


 8790      6F6E745F 
 8790      63726561 
 8790      746500
 8791              	.LASF1:
 8792 076d 6C6F6E67 		.ascii	"long long int\000"
 8792      206C6F6E 
 8792      6720696E 
 8792      7400
 8793              	.LASF62:
 8794 077b 676C6173 		.ascii	"glass\000"
 8794      7300
 8795              	.LASF72:
 8796 0781 6C765F6C 		.ascii	"lv_ll_t\000"
 8796      6C5F7400 
 8797              	.LASF74:
 8798 0789 6C765F64 		.ascii	"lv_design_func_t\000"
 8798      65736967 
 8798      6E5F6675 
 8798      6E635F74 
 8798      00
 8799              	.LASF115:
 8800 079a 4C565F53 		.ascii	"LV_SIGNAL_FOCUS\000"
 8800      49474E41 
 8800      4C5F464F 
 8800      43555300 
 8801              	.LASF55:
 8802 07aa 70616464 		.ascii	"padding\000"
 8802      696E6700 
 8803              	.LASF143:
 8804 07b2 6C765F61 		.ascii	"lv_align_t\000"
 8804      6C69676E 
 8804      5F7400
 8805              	.LASF97:
 8806 07bd 4C565F52 		.ascii	"LV_RES_OK\000"
 8806      45535F4F 
 8806      4B00
 8807              	.LASF137:
 8808 07c7 4C565F41 		.ascii	"LV_ALIGN_OUT_LEFT_TOP\000"
 8808      4C49474E 
 8808      5F4F5554 
 8808      5F4C4546 
 8808      545F544F 
 8809              	.LASF188:
 8810 07dd 6C765F61 		.ascii	"lv_area_get_width\000"
 8810      7265615F 
 8810      6765745F 
 8810      77696474 
 8810      6800
 8811              	.LASF145:
 8812 07ef 786F6673 		.ascii	"xofs\000"
 8812      00
 8813              	.LASF6:
 8814 07f4 5F5F696E 		.ascii	"__int16_t\000"
 8814      7431365F 
 8814      7400
 8815              	.LASF242:
 8816 07fe 6C765F6F 		.ascii	"lv_obj_get_hidden\000"
ARM GAS  C:\Users\d3bug\AppData\Local\Temp\ccVxVFSv.s 			page 181


 8816      626A5F67 
 8816      65745F68 
 8816      69646465 
 8816      6E00
 8817              	.LASF234:
 8818 0810 70617261 		.ascii	"param\000"
 8818      6D00
 8819              	.LASF216:
 8820 0816 6E65775F 		.ascii	"new_cords\000"
 8820      636F7264 
 8820      7300
 8821              	.LASF178:
 8822 0820 68696E74 		.ascii	"hint\000"
 8822      00
 8823              	.LASF149:
 8824 0825 6F726967 		.ascii	"origo_align\000"
 8824      6F5F616C 
 8824      69676E00 
 8825              	.LASF241:
 8826 0831 6C765F6C 		.ascii	"lv_ll_get_head\000"
 8826      6C5F6765 
 8826      745F6865 
 8826      616400
 8827              	.LASF196:
 8828 0840 6C765F63 		.ascii	"lv_cont_layout_pretty\000"
 8828      6F6E745F 
 8828      6C61796F 
 8828      75745F70 
 8828      72657474 
 8829              	.LASF232:
 8830 0856 6C765F63 		.ascii	"lv_cont_refr_layout\000"
 8830      6F6E745F 
 8830      72656672 
 8830      5F6C6179 
 8830      6F757400 
 8831              	.LASF153:
 8832 086a 4C565F50 		.ascii	"LV_PROTECT_CHILD_CHG\000"
 8832      524F5445 
 8832      43545F43 
 8832      48494C44 
 8832      5F434847 
 8833              	.LASF127:
 8834 087f 4C565F41 		.ascii	"LV_ALIGN_IN_BOTTOM_MID\000"
 8834      4C49474E 
 8834      5F494E5F 
 8834      424F5454 
 8834      4F4D5F4D 
 8835              	.LASF147:
 8836 0896 616C6967 		.ascii	"align\000"
 8836      6E00
 8837              	.LASF33:
 8838 089c 676C7970 		.ascii	"glyph_bitmap\000"
 8838      685F6269 
 8838      746D6170 
 8838      00
 8839              	.LASF174:
 8840 08a9 6C765F63 		.ascii	"lv_cont_ext_t\000"
ARM GAS  C:\Users\d3bug\AppData\Local\Temp\ccVxVFSv.s 			page 182


 8840      6F6E745F 
 8840      6578745F 
 8840      7400
 8841              	.LASF65:
 8842 08b7 696D6167 		.ascii	"image\000"
 8842      6500
 8843              	.LASF91:
 8844 08bd 70726F74 		.ascii	"protect\000"
 8844      65637400 
 8845              	.LASF254:
 8846 08c5 6C765F6F 		.ascii	"lv_obj_invalidate\000"
 8846      626A5F69 
 8846      6E76616C 
 8846      69646174 
 8846      6500
 8847              	.LASF119:
 8848 08d7 4C565F53 		.ascii	"LV_SIGNAL_GET_EDITABLE\000"
 8848      49474E41 
 8848      4C5F4745 
 8848      545F4544 
 8848      49544142 
 8849              	.LASF209:
 8850 08ee 775F746F 		.ascii	"w_tot\000"
 8850      7400
 8851              	.LASF130:
 8852 08f4 4C565F41 		.ascii	"LV_ALIGN_IN_RIGHT_MID\000"
 8852      4C49474E 
 8852      5F494E5F 
 8852      52494748 
 8852      545F4D49 
 8853              	.LASF154:
 8854 090a 4C565F50 		.ascii	"LV_PROTECT_PARENT\000"
 8854      524F5445 
 8854      43545F50 
 8854      4152454E 
 8854      5400
 8855              	.LASF206:
 8856 091c 6E65775F 		.ascii	"new_opad\000"
 8856      6F706164 
 8856      00
 8857              	.LASF249:
 8858 0925 6C765F6C 		.ascii	"lv_ll_get_prev\000"
 8858      6C5F6765 
 8858      745F7072 
 8858      657600
 8859              	.LASF22:
 8860 0934 6C765F63 		.ascii	"lv_color_t\000"
 8860      6F6C6F72 
 8860      5F7400
 8861              	.LASF142:
 8862 093f 4C565F41 		.ascii	"LV_ALIGN_OUT_RIGHT_BOTTOM\000"
 8862      4C49474E 
 8862      5F4F5554 
 8862      5F524947 
 8862      48545F42 
 8863              	.LASF177:
 8864 0959 7072696D 		.ascii	"prim\000"
ARM GAS  C:\Users\d3bug\AppData\Local\Temp\ccVxVFSv.s 			page 183


 8864      00
 8865              	.LASF202:
 8866 095e 685F726F 		.ascii	"h_row\000"
 8866      7700
 8867              	.LASF235:
 8868 0964 6C765F63 		.ascii	"lv_cont_get_hor_fit\000"
 8868      6F6E745F 
 8868      6765745F 
 8868      686F725F 
 8868      66697400 
 8869              	.LASF187:
 8870 0978 61726561 		.ascii	"area_p\000"
 8870      5F7000
 8871              	.LASF19:
 8872 097f 67726565 		.ascii	"green\000"
 8872      6E00
 8873              	.LASF207:
 8874 0985 6163745F 		.ascii	"act_x\000"
 8874      7800
 8875              	.LASF2:
 8876 098b 6C6F6E67 		.ascii	"long double\000"
 8876      20646F75 
 8876      626C6500 
 8877              	.LASF16:
 8878 0997 75696E74 		.ascii	"uint16_t\000"
 8878      31365F74 
 8878      00
 8879              	.LASF141:
 8880 09a0 4C565F41 		.ascii	"LV_ALIGN_OUT_RIGHT_MID\000"
 8880      4C49474E 
 8880      5F4F5554 
 8880      5F524947 
 8880      48545F4D 
 8881              	.LASF51:
 8882 09b7 67726164 		.ascii	"grad_color\000"
 8882      5F636F6C 
 8882      6F7200
 8883              	.LASF131:
 8884 09c2 4C565F41 		.ascii	"LV_ALIGN_OUT_TOP_LEFT\000"
 8884      4C49474E 
 8884      5F4F5554 
 8884      5F544F50 
 8884      5F4C4546 
 8885              	.LASF261:
 8886 09d8 6C765F6C 		.ascii	"lv_log_add\000"
 8886      6F675F61 
 8886      646400
 8887              	.LASF212:
 8888 09e3 785F6F66 		.ascii	"x_ofs\000"
 8888      7300
 8889              	.LASF42:
 8890 09e9 6C765F66 		.ascii	"lv_font_t\000"
 8890      6F6E745F 
 8890      7400
 8891              	.LASF58:
 8892 09f3 6C657474 		.ascii	"letter_space\000"
 8892      65725F73 
ARM GAS  C:\Users\d3bug\AppData\Local\Temp\ccVxVFSv.s 			page 184


 8892      70616365 
 8892      00
 8893              	.LASF106:
 8894 0a00 5F4C565F 		.ascii	"_LV_SIGNAL_FEEDBACK_SECTION_START\000"
 8894      5349474E 
 8894      414C5F46 
 8894      45454442 
 8894      41434B5F 
 8895              	.LASF50:
 8896 0a22 6D61696E 		.ascii	"main_color\000"
 8896      5F636F6C 
 8896      6F7200
 8897              	.LASF124:
 8898 0a2d 4C565F41 		.ascii	"LV_ALIGN_IN_TOP_MID\000"
 8898      4C49474E 
 8898      5F494E5F 
 8898      544F505F 
 8898      4D494400 
 8899              	.LASF7:
 8900 0a41 73686F72 		.ascii	"short int\000"
 8900      7420696E 
 8900      7400
 8901              	.LASF257:
 8902 0a4b 6C765F6F 		.ascii	"lv_obj_get_coords\000"
 8902      626A5F67 
 8902      65745F63 
 8902      6F6F7264 
 8902      7300
 8903              	.LASF79:
 8904 0a5d 636F6F72 		.ascii	"coords\000"
 8904      647300
 8905              	.LASF110:
 8906 0a64 4C565F53 		.ascii	"LV_SIGNAL_RELEASED\000"
 8906      49474E41 
 8906      4C5F5245 
 8906      4C454153 
 8906      454400
 8907              	.LASF132:
 8908 0a77 4C565F41 		.ascii	"LV_ALIGN_OUT_TOP_MID\000"
 8908      4C49474E 
 8908      5F4F5554 
 8908      5F544F50 
 8908      5F4D4944 
 8909              	.LASF23:
 8910 0a8c 6C765F6F 		.ascii	"lv_opa_t\000"
 8910      70615F74 
 8910      00
 8911              	.LASF10:
 8912 0a95 6C6F6E67 		.ascii	"long int\000"
 8912      20696E74 
 8912      00
 8913              	.LASF171:
 8914 0a9e 6C61796F 		.ascii	"layout\000"
 8914      757400
 8915              	.LASF197:
 8916 0aa5 6368696C 		.ascii	"child_rs\000"
 8916      645F7273 
ARM GAS  C:\Users\d3bug\AppData\Local\Temp\ccVxVFSv.s 			page 185


 8916      00
 8917              	.LASF39:
 8918 0aae 685F7078 		.ascii	"h_px\000"
 8918      00
 8919              	.LASF160:
 8920 0ab3 4C565F4C 		.ascii	"LV_LAYOUT_OFF\000"
 8920      41594F55 
 8920      545F4F46 
 8920      4600
 8921              	.LASF18:
 8922 0ac1 626C7565 		.ascii	"blue\000"
 8922      00
 8923              	.LASF228:
 8924 0ac6 6C765F63 		.ascii	"lv_cont_layout_col\000"
 8924      6F6E745F 
 8924      6C61796F 
 8924      75745F63 
 8924      6F6C00
 8925              	.LASF99:
 8926 0ad9 4C565F53 		.ascii	"LV_SIGNAL_CLEANUP\000"
 8926      49474E41 
 8926      4C5F434C 
 8926      45414E55 
 8926      5000
 8927              	.LASF26:
 8928 0aeb 6C765F63 		.ascii	"lv_coord_t\000"
 8928      6F6F7264 
 8928      5F7400
 8929              	.LASF90:
 8930 0af6 6F70615F 		.ascii	"opa_scale_en\000"
 8930      7363616C 
 8930      655F656E 
 8930      00
 8931              	.LASF200:
 8932 0b03 775F6F62 		.ascii	"w_obj\000"
 8932      6A00
 8933              	.LASF60:
 8934 0b09 696E7465 		.ascii	"intense\000"
 8934      6E736500 
 8935              	.LASF5:
 8936 0b11 5F5F7569 		.ascii	"__uint8_t\000"
 8936      6E74385F 
 8936      7400
 8937              	.LASF243:
 8938 0b1b 6C765F6F 		.ascii	"lv_obj_is_protected\000"
 8938      626A5F69 
 8938      735F7072 
 8938      6F746563 
 8938      74656400 
 8939              	.LASF201:
 8940 0b2f 6163745F 		.ascii	"act_y\000"
 8940      7900
 8941              	.LASF57:
 8942 0b35 666F6E74 		.ascii	"font\000"
 8942      00
 8943              	.LASF24:
 8944 0b3a 73697A65 		.ascii	"sizetype\000"
ARM GAS  C:\Users\d3bug\AppData\Local\Temp\ccVxVFSv.s 			page 186


 8944      74797065 
 8944      00
 8945              	.LASF12:
 8946 0b43 6C6F6E67 		.ascii	"long unsigned int\000"
 8946      20756E73 
 8946      69676E65 
 8946      6420696E 
 8946      7400
 8947              	.LASF56:
 8948 0b55 656D7074 		.ascii	"empty\000"
 8948      7900
 8949              	.LASF40:
 8950 0b5b 6D6F6E6F 		.ascii	"monospace\000"
 8950      73706163 
 8950      6500
 8951              	.LASF203:
 8952 0b65 775F726F 		.ascii	"w_row\000"
 8952      7700
 8953              	.LASF245:
 8954 0b6b 6C765F6C 		.ascii	"lv_ll_get_next\000"
 8954      6C5F6765 
 8954      745F6E65 
 8954      787400
 8955              	.LASF126:
 8956 0b7a 4C565F41 		.ascii	"LV_ALIGN_IN_BOTTOM_LEFT\000"
 8956      4C49474E 
 8956      5F494E5F 
 8956      424F5454 
 8956      4F4D5F4C 
 8957              	.LASF125:
 8958 0b92 4C565F41 		.ascii	"LV_ALIGN_IN_TOP_RIGHT\000"
 8958      4C49474E 
 8958      5F494E5F 
 8958      544F505F 
 8958      52494748 
 8959              	.LASF29:
 8960 0ba8 676C7970 		.ascii	"glyph_index\000"
 8960      685F696E 
 8960      64657800 
 8961              	.LASF169:
 8962 0bb4 4C565F4C 		.ascii	"LV_LAYOUT_GRID\000"
 8962      41594F55 
 8962      545F4752 
 8962      494400
 8963              	.LASF114:
 8964 0bc3 4C565F53 		.ascii	"LV_SIGNAL_DRAG_END\000"
 8964      49474E41 
 8964      4C5F4452 
 8964      41475F45 
 8964      4E4400
 8965              	.LASF52:
 8966 0bd6 72616469 		.ascii	"radius\000"
 8966      757300
 8967              	.LASF92:
 8968 0bdd 6F70615F 		.ascii	"opa_scale\000"
 8968      7363616C 
 8968      6500
ARM GAS  C:\Users\d3bug\AppData\Local\Temp\ccVxVFSv.s 			page 187


 8969              	.LASF63:
 8970 0be7 626F6479 		.ascii	"body\000"
 8970      00
 8971              	.LASF120:
 8972 0bec 6C765F73 		.ascii	"lv_signal_t\000"
 8972      69676E61 
 8972      6C5F7400 
 8973              	.LASF229:
 8974 0bf8 68706164 		.ascii	"hpad_corr\000"
 8974      5F636F72 
 8974      7200
 8975              	.LASF48:
 8976 0c02 74797065 		.ascii	"type\000"
 8976      00
 8977              	.LASF221:
 8978 0c07 636F7079 		.ascii	"copy_ext\000"
 8978      5F657874 
 8978      00
 8979              	.LASF4:
 8980 0c10 756E7369 		.ascii	"unsigned char\000"
 8980      676E6564 
 8980      20636861 
 8980      7200
 8981              	.LASF159:
 8982 0c1e 6C765F6F 		.ascii	"lv_obj_type_t\000"
 8982      626A5F74 
 8982      7970655F 
 8982      7400
 8983              	.LASF11:
 8984 0c2c 5F5F7569 		.ascii	"__uint32_t\000"
 8984      6E743332 
 8984      5F7400
 8985              	.LASF66:
 8986 0c37 6C696E65 		.ascii	"line\000"
 8986      00
 8987              	.LASF263:
 8988 0c3c 6C765F6F 		.ascii	"lv_obj_get_signal_func\000"
 8988      626A5F67 
 8988      65745F73 
 8988      69676E61 
 8988      6C5F6675 
 8989              	.LASF133:
 8990 0c53 4C565F41 		.ascii	"LV_ALIGN_OUT_TOP_RIGHT\000"
 8990      4C49474E 
 8990      5F4F5554 
 8990      5F544F50 
 8990      5F524947 
 8991              	.LASF179:
 8992 0c6a 70616E65 		.ascii	"panel\000"
 8992      6C00
 8993              	.LASF71:
 8994 0c70 7461696C 		.ascii	"tail\000"
 8994      00
 8995              	.LASF250:
 8996 0c75 6C765F6F 		.ascii	"lv_obj_clear_protect\000"
 8996      626A5F63 
 8996      6C656172 
ARM GAS  C:\Users\d3bug\AppData\Local\Temp\ccVxVFSv.s 			page 188


 8996      5F70726F 
 8996      74656374 
 8997              	.LASF78:
 8998 0c8a 6368696C 		.ascii	"child_ll\000"
 8998      645F6C6C 
 8998      00
 8999              	.LASF88:
 9000 0c93 64726167 		.ascii	"drag_parent\000"
 9000      5F706172 
 9000      656E7400 
 9001              	.LASF148:
 9002 0c9f 6175746F 		.ascii	"auto_realign\000"
 9002      5F726561 
 9002      6C69676E 
 9002      00
 9003              	.LASF210:
 9004 0cac 685F6F62 		.ascii	"h_obj\000"
 9004      6A00
 9005              	.LASF73:
 9006 0cb2 6C765F64 		.ascii	"lv_design_mode_t\000"
 9006      65736967 
 9006      6E5F6D6F 
 9006      64655F74 
 9006      00
 9007              	.LASF181:
 9008 0cc3 6C616265 		.ascii	"label\000"
 9008      6C00
 9009              	.LASF37:
 9010 0cc9 6765745F 		.ascii	"get_width\000"
 9010      77696474 
 9010      6800
 9011              	.LASF237:
 9012 0cd3 6C765F63 		.ascii	"lv_cont_get_fit_width\000"
 9012      6F6E745F 
 9012      6765745F 
 9012      6669745F 
 9012      77696474 
 9013              	.LASF267:
 9014 0ce9 2E2E5C6C 		.ascii	"..\\lvgl\\lv_objx\\lv_cont.c\000"
 9014      76676C5C 
 9014      6C765F6F 
 9014      626A785C 
 9014      6C765F63 
 9015              	.LASF112:
 9016 0d03 4C565F53 		.ascii	"LV_SIGNAL_LONG_PRESS_REP\000"
 9016      49474E41 
 9016      4C5F4C4F 
 9016      4E475F50 
 9016      52455353 
 9017              	.LASF54:
 9018 0d1c 73686164 		.ascii	"shadow\000"
 9018      6F7700
 9019              	.LASF27:
 9020 0d23 6C765F61 		.ascii	"lv_area_t\000"
 9020      7265615F 
 9020      7400
 9021              	.LASF3:
ARM GAS  C:\Users\d3bug\AppData\Local\Temp\ccVxVFSv.s 			page 189


 9022 0d2d 7369676E 		.ascii	"signed char\000"
 9022      65642063 
 9022      68617200 
 9023              	.LASF104:
 9024 0d39 4C565F53 		.ascii	"LV_SIGNAL_LANG_CHG\000"
 9024      49474E41 
 9024      4C5F4C41 
 9024      4E475F43 
 9024      484700
 9025              	.LASF89:
 9026 0d4c 68696464 		.ascii	"hidden\000"
 9026      656E00
 9027              	.LASF224:
 9028 0d53 686F725F 		.ascii	"hor_en\000"
 9028      656E00
 9029              	.LASF184:
 9030 0d5a 6C765F61 		.ascii	"lv_area_copy\000"
 9030      7265615F 
 9030      636F7079 
 9030      00
 9031              	.LASF9:
 9032 0d67 73686F72 		.ascii	"short unsigned int\000"
 9032      7420756E 
 9032      7369676E 
 9032      65642069 
 9032      6E7400
 9033              	.LASF225:
 9034 0d7a 7665725F 		.ascii	"ver_en\000"
 9034      656E00
 9035              	.LASF256:
 9036 0d81 6C765F6F 		.ascii	"lv_obj_get_ext_attr\000"
 9036      626A5F67 
 9036      65745F65 
 9036      78745F61 
 9036      74747200 
 9037              	.LASF150:
 9038 0d95 6C765F72 		.ascii	"lv_reailgn_t\000"
 9038      6561696C 
 9038      676E5F74 
 9038      00
 9039              	.LASF139:
 9040 0da2 4C565F41 		.ascii	"LV_ALIGN_OUT_LEFT_BOTTOM\000"
 9040      4C49474E 
 9040      5F4F5554 
 9040      5F4C4546 
 9040      545F424F 
 9041              	.LASF101:
 9042 0dbb 4C565F53 		.ascii	"LV_SIGNAL_CORD_CHG\000"
 9042      49474E41 
 9042      4C5F434F 
 9042      52445F43 
 9042      484700
 9043              	.LASF86:
 9044 0dce 64726167 		.ascii	"drag\000"
 9044      00
 9045              	.LASF192:
 9046 0dd3 6F626A5F 		.ascii	"obj_num\000"
ARM GAS  C:\Users\d3bug\AppData\Local\Temp\ccVxVFSv.s 			page 190


 9046      6E756D00 
 9047              	.LASF34:
 9048 0ddb 676C7970 		.ascii	"glyph_dsc\000"
 9048      685F6473 
 9048      6300
 9049              	.LASF240:
 9050 0de5 6C765F6F 		.ascii	"lv_obj_get_style\000"
 9050      626A5F67 
 9050      65745F73 
 9050      74796C65 
 9050      00
 9051              	.LASF182:
 9052 0df6 6C765F74 		.ascii	"lv_theme_t\000"
 9052      68656D65 
 9052      5F7400
 9053              	.LASF31:
 9054 0e01 756E6963 		.ascii	"unicode_first\000"
 9054      6F64655F 
 9054      66697273 
 9054      7400
 9055              	.LASF173:
 9056 0e0f 7665725F 		.ascii	"ver_fit\000"
 9056      66697400 
 9057              	.LASF223:
 9058 0e17 6C765F63 		.ascii	"lv_cont_set_fit\000"
 9058      6F6E745F 
 9058      7365745F 
 9058      66697400 
 9059              	.LASF43:
 9060 0e27 6C765F62 		.ascii	"lv_border_part_t\000"
 9060      6F726465 
 9060      725F7061 
 9060      72745F74 
 9060      00
 9061              	.LASF32:
 9062 0e38 756E6963 		.ascii	"unicode_last\000"
 9062      6F64655F 
 9062      6C617374 
 9062      00
 9063              	.LASF96:
 9064 0e45 4C565F52 		.ascii	"LV_RES_INV\000"
 9064      45535F49 
 9064      4E5600
 9065              	.LASF183:
 9066 0e50 64657374 		.ascii	"dest\000"
 9066      00
 9067              	.LASF162:
 9068 0e55 4C565F4C 		.ascii	"LV_LAYOUT_COL_L\000"
 9068      41594F55 
 9068      545F434F 
 9068      4C5F4C00 
 9069              	.LASF163:
 9070 0e65 4C565F4C 		.ascii	"LV_LAYOUT_COL_M\000"
 9070      41594F55 
 9070      545F434F 
 9070      4C5F4D00 
 9071              	.LASF107:
ARM GAS  C:\Users\d3bug\AppData\Local\Temp\ccVxVFSv.s 			page 191


 9072 0e75 4C565F53 		.ascii	"LV_SIGNAL_PRESSED\000"
 9072      49474E41 
 9072      4C5F5052 
 9072      45535345 
 9072      4400
 9073              	.LASF164:
 9074 0e87 4C565F4C 		.ascii	"LV_LAYOUT_COL_R\000"
 9074      41594F55 
 9074      545F434F 
 9074      4C5F5200 
 9075              	.LASF122:
 9076 0e97 4C565F41 		.ascii	"LV_ALIGN_CENTER\000"
 9076      4C49474E 
 9076      5F43454E 
 9076      54455200 
 9077              	.LASF265:
 9078 0ea7 6C765F6F 		.ascii	"lv_obj_set_signal_func\000"
 9078      626A5F73 
 9078      65745F73 
 9078      69676E61 
 9078      6C5F6675 
 9079              	.LASF239:
 9080 0ebe 616E6365 		.ascii	"ancestor_signal\000"
 9080      73746F72 
 9080      5F736967 
 9080      6E616C00 
 9081              		.ident	"GCC: (GNU Tools for ARM Embedded Processors) 5.4.1 20160609 (release) [ARM/embedded-5-bran
