ARM GAS  C:\Users\d3bug\AppData\Local\Temp\ccrBYWI8.s 			page 1


   1              		.syntax unified
   2              		.cpu cortex-m3
   3              		.fpu softvfp
   4              		.eabi_attribute 20, 1
   5              		.eabi_attribute 21, 1
   6              		.eabi_attribute 23, 3
   7              		.eabi_attribute 24, 1
   8              		.eabi_attribute 25, 1
   9              		.eabi_attribute 26, 1
  10              		.eabi_attribute 30, 1
  11              		.eabi_attribute 34, 1
  12              		.eabi_attribute 18, 4
  13              		.thumb
  14              		.syntax unified
  15              		.file	"lv_draw.c"
  16              		.text
  17              	.Ltext0:
  18              		.cfi_sections	.debug_frame
  19              		.section	.text.lv_draw_aa_get_opa,"ax",%progbits
  20              		.align	2
  21              		.global	lv_draw_aa_get_opa
  22              		.thumb
  23              		.thumb_func
  24              		.type	lv_draw_aa_get_opa, %function
  25              	lv_draw_aa_get_opa:
  26              	.LFB13:
  27              		.file 1 "..\\lvgl\\lv_draw\\lv_draw.c"
   1:..\lvgl\lv_draw/lv_draw.c **** /**
   2:..\lvgl\lv_draw/lv_draw.c ****  * @file lv_draw.c
   3:..\lvgl\lv_draw/lv_draw.c ****  *
   4:..\lvgl\lv_draw/lv_draw.c ****  */
   5:..\lvgl\lv_draw/lv_draw.c **** 
   6:..\lvgl\lv_draw/lv_draw.c **** /*********************
   7:..\lvgl\lv_draw/lv_draw.c ****  *      INCLUDES
   8:..\lvgl\lv_draw/lv_draw.c ****  *********************/
   9:..\lvgl\lv_draw/lv_draw.c **** 
  10:..\lvgl\lv_draw/lv_draw.c **** #include <stdio.h>
  11:..\lvgl\lv_draw/lv_draw.c **** #include <stdbool.h>
  12:..\lvgl\lv_draw/lv_draw.c **** #include "lv_draw.h"
  13:..\lvgl\lv_draw/lv_draw.c **** #include "lv_draw_rbasic.h"
  14:..\lvgl\lv_draw/lv_draw.c **** #include "lv_draw_vbasic.h"
  15:..\lvgl\lv_draw/lv_draw.c **** #include "../lv_misc/lv_fs.h"
  16:..\lvgl\lv_draw/lv_draw.c **** #include "../lv_misc/lv_math.h"
  17:..\lvgl\lv_draw/lv_draw.c **** #include "../lv_misc/lv_ufs.h"
  18:..\lvgl\lv_draw/lv_draw.c **** #include "../lv_objx/lv_img.h"
  19:..\lvgl\lv_draw/lv_draw.c **** 
  20:..\lvgl\lv_draw/lv_draw.c **** /*********************
  21:..\lvgl\lv_draw/lv_draw.c ****  *      DEFINES
  22:..\lvgl\lv_draw/lv_draw.c ****  *********************/
  23:..\lvgl\lv_draw/lv_draw.c **** 
  24:..\lvgl\lv_draw/lv_draw.c **** /**********************
  25:..\lvgl\lv_draw/lv_draw.c ****  *      TYPEDEFS
  26:..\lvgl\lv_draw/lv_draw.c ****  **********************/
  27:..\lvgl\lv_draw/lv_draw.c **** 
  28:..\lvgl\lv_draw/lv_draw.c **** /**********************
  29:..\lvgl\lv_draw/lv_draw.c ****  *  STATIC PROTOTYPES
  30:..\lvgl\lv_draw/lv_draw.c ****  **********************/
ARM GAS  C:\Users\d3bug\AppData\Local\Temp\ccrBYWI8.s 			page 2


  31:..\lvgl\lv_draw/lv_draw.c **** 
  32:..\lvgl\lv_draw/lv_draw.c **** /**********************
  33:..\lvgl\lv_draw/lv_draw.c ****  *  STATIC VARIABLES
  34:..\lvgl\lv_draw/lv_draw.c ****  **********************/
  35:..\lvgl\lv_draw/lv_draw.c **** 
  36:..\lvgl\lv_draw/lv_draw.c **** #if LV_VDB_SIZE != 0
  37:..\lvgl\lv_draw/lv_draw.c **** void (*const px_fp)(lv_coord_t x, lv_coord_t y, const lv_area_t * mask, lv_color_t color, lv_opa_t 
  38:..\lvgl\lv_draw/lv_draw.c **** void (*const fill_fp)(const lv_area_t * coords, const lv_area_t * mask, lv_color_t color, lv_opa_t 
  39:..\lvgl\lv_draw/lv_draw.c **** void (*const letter_fp)(const lv_point_t * pos_p, const lv_area_t * mask, const lv_font_t * font_p,
  40:..\lvgl\lv_draw/lv_draw.c **** void (*const map_fp)(const lv_area_t * cords_p, const lv_area_t * mask_p,
  41:..\lvgl\lv_draw/lv_draw.c ****                      const uint8_t * map_p, lv_opa_t opa, bool chroma_key, bool alpha_byte,
  42:..\lvgl\lv_draw/lv_draw.c ****                      lv_color_t recolor, lv_opa_t recolor_opa) = lv_vmap;
  43:..\lvgl\lv_draw/lv_draw.c **** #else
  44:..\lvgl\lv_draw/lv_draw.c **** void (*const px_fp)(lv_coord_t x, lv_coord_t y, const lv_area_t * mask, lv_color_t color, lv_opa_t 
  45:..\lvgl\lv_draw/lv_draw.c **** void (*const fill_fp)(const lv_area_t * coords, const lv_area_t * mask, lv_color_t color, lv_opa_t 
  46:..\lvgl\lv_draw/lv_draw.c **** void (*const letter_fp)(const lv_point_t * pos_p, const lv_area_t * mask, const lv_font_t * font_p,
  47:..\lvgl\lv_draw/lv_draw.c **** void (*const map_fp)(const lv_area_t * cords_p, const lv_area_t * mask_p,
  48:..\lvgl\lv_draw/lv_draw.c ****                      const uint8_t * map_p, lv_opa_t opa, bool chroma_key, bool alpha_byte,
  49:..\lvgl\lv_draw/lv_draw.c ****                      lv_color_t recolor, lv_opa_t recolor_opa) = lv_rmap;
  50:..\lvgl\lv_draw/lv_draw.c **** #endif
  51:..\lvgl\lv_draw/lv_draw.c **** 
  52:..\lvgl\lv_draw/lv_draw.c **** /**********************
  53:..\lvgl\lv_draw/lv_draw.c ****  *      MACROS
  54:..\lvgl\lv_draw/lv_draw.c ****  **********************/
  55:..\lvgl\lv_draw/lv_draw.c **** 
  56:..\lvgl\lv_draw/lv_draw.c **** /**********************
  57:..\lvgl\lv_draw/lv_draw.c ****  *   GLOBAL FUNCTIONS
  58:..\lvgl\lv_draw/lv_draw.c ****  **********************/
  59:..\lvgl\lv_draw/lv_draw.c **** 
  60:..\lvgl\lv_draw/lv_draw.c **** /**********************
  61:..\lvgl\lv_draw/lv_draw.c ****  *   STATIC FUNCTIONS
  62:..\lvgl\lv_draw/lv_draw.c ****  **********************/
  63:..\lvgl\lv_draw/lv_draw.c **** 
  64:..\lvgl\lv_draw/lv_draw.c **** #if LV_ANTIALIAS != 0
  65:..\lvgl\lv_draw/lv_draw.c **** 
  66:..\lvgl\lv_draw/lv_draw.c **** /**
  67:..\lvgl\lv_draw/lv_draw.c ****  * Get the opacity of a pixel based it's position in a line segment
  68:..\lvgl\lv_draw/lv_draw.c ****  * @param seg segment length
  69:..\lvgl\lv_draw/lv_draw.c ****  * @param px_id position of  of a pixel which opacity should be get [0..seg-1]
  70:..\lvgl\lv_draw/lv_draw.c ****  * @param base_opa the base opacity
  71:..\lvgl\lv_draw/lv_draw.c ****  * @return the opacity of the given pixel
  72:..\lvgl\lv_draw/lv_draw.c ****  */
  73:..\lvgl\lv_draw/lv_draw.c **** lv_opa_t lv_draw_aa_get_opa(lv_coord_t seg, lv_coord_t px_id, lv_opa_t base_opa)
  74:..\lvgl\lv_draw/lv_draw.c **** {
  28              		.loc 1 74 0
  29              		.cfi_startproc
  30              		@ args = 0, pretend = 0, frame = 0
  31              		@ frame_needed = 0, uses_anonymous_args = 0
  32              		@ link register save eliminated.
  33              	.LVL0:
  75:..\lvgl\lv_draw/lv_draw.c ****     /* How to calculate the opacity of pixels on the edges which makes the anti-aliasing?
  76:..\lvgl\lv_draw/lv_draw.c ****      * For example we have a line like this (y = -0.5 * x):
  77:..\lvgl\lv_draw/lv_draw.c ****      *
  78:..\lvgl\lv_draw/lv_draw.c ****      *  | _ _
  79:..\lvgl\lv_draw/lv_draw.c ****      *    * * |
  80:..\lvgl\lv_draw/lv_draw.c ****      *
  81:..\lvgl\lv_draw/lv_draw.c ****      * Anti-aliased pixels come to the '*' characters
ARM GAS  C:\Users\d3bug\AppData\Local\Temp\ccrBYWI8.s 			page 3


  82:..\lvgl\lv_draw/lv_draw.c ****      * Calculate what percentage of the pixels should be covered if real line (not rasterized) woul
  83:..\lvgl\lv_draw/lv_draw.c ****      * 1. A real line should start on (0;0) and end on (2;1)
  84:..\lvgl\lv_draw/lv_draw.c ****      * 2. So the line intersection coordinates on the first pixel: (0;0) (1;0.5) -> 25% covered pix
  85:..\lvgl\lv_draw/lv_draw.c ****      * 3. For the second pixel: (1;0.5) (2;1) -> 75% covered pixel in average
  86:..\lvgl\lv_draw/lv_draw.c ****      * 4. The equation: (px_id * 2 + 1) / (segment_width * 2)
  87:..\lvgl\lv_draw/lv_draw.c ****      *                   segment_width: the line segment which is being anti-aliased (was 2 in the 
  88:..\lvgl\lv_draw/lv_draw.c ****      *                   px_id: pixel ID from 0 to  (segment_width - 1)
  89:..\lvgl\lv_draw/lv_draw.c ****      *                   result: [0..1] coverage of the pixel
  90:..\lvgl\lv_draw/lv_draw.c ****      */
  91:..\lvgl\lv_draw/lv_draw.c **** 
  92:..\lvgl\lv_draw/lv_draw.c ****     /*Accelerate the common segment sizes to avoid division*/
  93:..\lvgl\lv_draw/lv_draw.c ****     static const  lv_opa_t seg1[1] = {128};
  94:..\lvgl\lv_draw/lv_draw.c ****     static const  lv_opa_t seg2[2] = {64, 192};
  95:..\lvgl\lv_draw/lv_draw.c ****     static const  lv_opa_t seg3[3] = {42, 128, 212};
  96:..\lvgl\lv_draw/lv_draw.c ****     static const  lv_opa_t seg4[4] = {32, 96, 159, 223};
  97:..\lvgl\lv_draw/lv_draw.c ****     static const  lv_opa_t seg5[5] = {26,  76, 128, 178, 230};
  98:..\lvgl\lv_draw/lv_draw.c ****     static const  lv_opa_t seg6[6] = {21,  64, 106, 148, 191, 234};
  99:..\lvgl\lv_draw/lv_draw.c ****     static const  lv_opa_t seg7[7] = {18,  55, 91, 128, 164, 200, 237};
 100:..\lvgl\lv_draw/lv_draw.c ****     static const  lv_opa_t seg8[8] = {16,  48, 80, 112, 143, 175, 207, 239};
 101:..\lvgl\lv_draw/lv_draw.c **** 
 102:..\lvgl\lv_draw/lv_draw.c ****     static const lv_opa_t * seg_map[] = {seg1, seg2, seg3, seg4,
 103:..\lvgl\lv_draw/lv_draw.c ****                                          seg5, seg6, seg7, seg8
 104:..\lvgl\lv_draw/lv_draw.c ****                                         };
 105:..\lvgl\lv_draw/lv_draw.c **** 
 106:..\lvgl\lv_draw/lv_draw.c ****     if(seg == 0) return LV_OPA_TRANSP;
  34              		.loc 1 106 0
  35 0000 0346     		mov	r3, r0
  36 0002 98B1     		cbz	r0, .L4
 107:..\lvgl\lv_draw/lv_draw.c ****     else if(seg < 8) return (uint32_t)((uint32_t)seg_map[seg - 1][px_id] * base_opa) >> 8;
  37              		.loc 1 107 0
  38 0004 0728     		cmp	r0, #7
  39 0006 09DC     		bgt	.L3
  40              		.loc 1 107 0 is_stmt 0 discriminator 1
  41 0008 431E     		subs	r3, r0, #1
  42 000a 0948     		ldr	r0, .L5
  43              	.LVL1:
  44 000c 50F82330 		ldr	r3, [r0, r3, lsl #2]
  45 0010 585C     		ldrb	r0, [r3, r1]	@ zero_extendqisi2
  46 0012 00FB02F0 		mul	r0, r0, r2
  47 0016 C0F30720 		ubfx	r0, r0, #8, #8
  48 001a 7047     		bx	lr
  49              	.LVL2:
  50              	.L3:
 108:..\lvgl\lv_draw/lv_draw.c ****     else {
 109:..\lvgl\lv_draw/lv_draw.c ****         return ((px_id * 2 + 1) * base_opa) / (2 * seg);
  51              		.loc 1 109 0 is_stmt 1
  52 001c 4800     		lsls	r0, r1, #1
  53              	.LVL3:
  54 001e 00FB0222 		mla	r2, r0, r2, r2
  55              	.LVL4:
  56 0022 5800     		lsls	r0, r3, #1
  57 0024 92FBF0F0 		sdiv	r0, r2, r0
  58 0028 C0B2     		uxtb	r0, r0
  59 002a 7047     		bx	lr
  60              	.LVL5:
  61              	.L4:
 106:..\lvgl\lv_draw/lv_draw.c ****     else if(seg < 8) return (uint32_t)((uint32_t)seg_map[seg - 1][px_id] * base_opa) >> 8;
ARM GAS  C:\Users\d3bug\AppData\Local\Temp\ccrBYWI8.s 			page 4


  62              		.loc 1 106 0
  63 002c 0020     		movs	r0, #0
  64              	.LVL6:
 110:..\lvgl\lv_draw/lv_draw.c ****     }
 111:..\lvgl\lv_draw/lv_draw.c **** 
 112:..\lvgl\lv_draw/lv_draw.c **** }
  65              		.loc 1 112 0
  66 002e 7047     		bx	lr
  67              	.L6:
  68              		.align	2
  69              	.L5:
  70 0030 00000000 		.word	.LANCHOR0
  71              		.cfi_endproc
  72              	.LFE13:
  73              		.size	lv_draw_aa_get_opa, .-lv_draw_aa_get_opa
  74              		.section	.text.lv_draw_aa_ver_seg,"ax",%progbits
  75              		.align	2
  76              		.global	lv_draw_aa_ver_seg
  77              		.thumb
  78              		.thumb_func
  79              		.type	lv_draw_aa_ver_seg, %function
  80              	lv_draw_aa_ver_seg:
  81              	.LFB14:
 113:..\lvgl\lv_draw/lv_draw.c **** 
 114:..\lvgl\lv_draw/lv_draw.c **** /**
 115:..\lvgl\lv_draw/lv_draw.c ****  * Add a vertical  anti-aliasing segment (pixels with decreasing opacity)
 116:..\lvgl\lv_draw/lv_draw.c ****  * @param x start point x coordinate
 117:..\lvgl\lv_draw/lv_draw.c ****  * @param y start point y coordinate
 118:..\lvgl\lv_draw/lv_draw.c ****  * @param length length of segment (negative value to start from 0 opacity)
 119:..\lvgl\lv_draw/lv_draw.c ****  * @param mask draw only in this area
 120:..\lvgl\lv_draw/lv_draw.c ****  * @param color color of pixels
 121:..\lvgl\lv_draw/lv_draw.c ****  * @param opa maximum opacity
 122:..\lvgl\lv_draw/lv_draw.c ****  */
 123:..\lvgl\lv_draw/lv_draw.c **** void lv_draw_aa_ver_seg(lv_coord_t x, lv_coord_t y, lv_coord_t length, const lv_area_t * mask, lv_c
 124:..\lvgl\lv_draw/lv_draw.c **** {
  82              		.loc 1 124 0
  83              		.cfi_startproc
  84              		@ args = 8, pretend = 0, frame = 0
  85              		@ frame_needed = 0, uses_anonymous_args = 0
  86              	.LVL7:
  87 0000 2DE9F04F 		push	{r4, r5, r6, r7, r8, r9, r10, fp, lr}
  88              		.cfi_def_cfa_offset 36
  89              		.cfi_offset 4, -36
  90              		.cfi_offset 5, -32
  91              		.cfi_offset 6, -28
  92              		.cfi_offset 7, -24
  93              		.cfi_offset 8, -20
  94              		.cfi_offset 9, -16
  95              		.cfi_offset 10, -12
  96              		.cfi_offset 11, -8
  97              		.cfi_offset 14, -4
  98 0004 83B0     		sub	sp, sp, #12
  99              		.cfi_def_cfa_offset 48
 100 0006 8346     		mov	fp, r0
 101 0008 8846     		mov	r8, r1
 102 000a 9946     		mov	r9, r3
 103 000c 9DF830A0 		ldrb	r10, [sp, #48]	@ zero_extendqisi2
ARM GAS  C:\Users\d3bug\AppData\Local\Temp\ccrBYWI8.s 			page 5


 104 0010 9DF83460 		ldrb	r6, [sp, #52]	@ zero_extendqisi2
 105              	.LVL8:
 125:..\lvgl\lv_draw/lv_draw.c ****     bool aa_inv = false;
 126:..\lvgl\lv_draw/lv_draw.c ****     if(length < 0) {
 106              		.loc 1 126 0
 107 0014 151E     		subs	r5, r2, #0
 108 0016 03DA     		bge	.L12
 109              	.LVL9:
 127:..\lvgl\lv_draw/lv_draw.c ****         aa_inv = true;
 128:..\lvgl\lv_draw/lv_draw.c ****         length = -length;
 110              		.loc 1 128 0
 111 0018 6D42     		negs	r5, r5
 112 001a 2DB2     		sxth	r5, r5
 113              	.LVL10:
 127:..\lvgl\lv_draw/lv_draw.c ****         aa_inv = true;
 114              		.loc 1 127 0
 115 001c 0127     		movs	r7, #1
 116 001e 00E0     		b	.L8
 117              	.LVL11:
 118              	.L12:
 125:..\lvgl\lv_draw/lv_draw.c ****     bool aa_inv = false;
 119              		.loc 1 125 0
 120 0020 0027     		movs	r7, #0
 121              	.LVL12:
 122              	.L8:
 129:..\lvgl\lv_draw/lv_draw.c ****     }
 130:..\lvgl\lv_draw/lv_draw.c **** 
 131:..\lvgl\lv_draw/lv_draw.c ****     lv_coord_t i;
 132:..\lvgl\lv_draw/lv_draw.c ****     for(i = 0; i < length; i++) {
 123              		.loc 1 132 0
 124 0022 0024     		movs	r4, #0
 125 0024 13E0     		b	.L9
 126              	.LVL13:
 127              	.L11:
 128              	.LBB2:
 133:..\lvgl\lv_draw/lv_draw.c ****         lv_opa_t px_opa = lv_draw_aa_get_opa(length, i, opa);
 129              		.loc 1 133 0
 130 0026 3246     		mov	r2, r6
 131 0028 2146     		mov	r1, r4
 132 002a 2846     		mov	r0, r5
 133 002c FFF7FEFF 		bl	lv_draw_aa_get_opa
 134              	.LVL14:
 134:..\lvgl\lv_draw/lv_draw.c ****         if(aa_inv) px_opa = opa - px_opa;
 135              		.loc 1 134 0
 136 0030 0FB1     		cbz	r7, .L10
 137              		.loc 1 134 0 is_stmt 0 discriminator 1
 138 0032 301A     		subs	r0, r6, r0
 139              	.LVL15:
 140 0034 C0B2     		uxtb	r0, r0
 141              	.LVL16:
 142              	.L10:
 135:..\lvgl\lv_draw/lv_draw.c ****         px_fp(x, y + i, mask, color, px_opa);
 143              		.loc 1 135 0 is_stmt 1 discriminator 2
 144 0036 A4B2     		uxth	r4, r4
 145 0038 04EB0801 		add	r1, r4, r8
 146 003c 0090     		str	r0, [sp]
 147 003e 5346     		mov	r3, r10
ARM GAS  C:\Users\d3bug\AppData\Local\Temp\ccrBYWI8.s 			page 6


 148 0040 4A46     		mov	r2, r9
 149 0042 09B2     		sxth	r1, r1
 150 0044 5846     		mov	r0, fp
 151              	.LVL17:
 152 0046 FFF7FEFF 		bl	lv_vpx
 153              	.LVL18:
 154              	.LBE2:
 132:..\lvgl\lv_draw/lv_draw.c ****         lv_opa_t px_opa = lv_draw_aa_get_opa(length, i, opa);
 155              		.loc 1 132 0 discriminator 2
 156 004a 0134     		adds	r4, r4, #1
 157              	.LVL19:
 158 004c 24B2     		sxth	r4, r4
 159              	.LVL20:
 160              	.L9:
 132:..\lvgl\lv_draw/lv_draw.c ****         lv_opa_t px_opa = lv_draw_aa_get_opa(length, i, opa);
 161              		.loc 1 132 0 is_stmt 0 discriminator 1
 162 004e A542     		cmp	r5, r4
 163 0050 E9DC     		bgt	.L11
 136:..\lvgl\lv_draw/lv_draw.c ****     }
 137:..\lvgl\lv_draw/lv_draw.c **** }
 164              		.loc 1 137 0 is_stmt 1
 165 0052 03B0     		add	sp, sp, #12
 166              		.cfi_def_cfa_offset 36
 167              		@ sp needed
 168 0054 BDE8F08F 		pop	{r4, r5, r6, r7, r8, r9, r10, fp, pc}
 169              		.cfi_endproc
 170              	.LFE14:
 171              		.size	lv_draw_aa_ver_seg, .-lv_draw_aa_ver_seg
 172              		.section	.text.lv_draw_aa_hor_seg,"ax",%progbits
 173              		.align	2
 174              		.global	lv_draw_aa_hor_seg
 175              		.thumb
 176              		.thumb_func
 177              		.type	lv_draw_aa_hor_seg, %function
 178              	lv_draw_aa_hor_seg:
 179              	.LFB15:
 138:..\lvgl\lv_draw/lv_draw.c **** 
 139:..\lvgl\lv_draw/lv_draw.c **** /**
 140:..\lvgl\lv_draw/lv_draw.c ****  * Add a horizontal anti-aliasing segment (pixels with decreasing opacity)
 141:..\lvgl\lv_draw/lv_draw.c ****  * @param x start point x coordinate
 142:..\lvgl\lv_draw/lv_draw.c ****  * @param y start point y coordinate
 143:..\lvgl\lv_draw/lv_draw.c ****  * @param length length of segment (negative value to start from 0 opacity)
 144:..\lvgl\lv_draw/lv_draw.c ****  * @param mask draw only in this area
 145:..\lvgl\lv_draw/lv_draw.c ****  * @param color color of pixels
 146:..\lvgl\lv_draw/lv_draw.c ****  * @param opa maximum opacity
 147:..\lvgl\lv_draw/lv_draw.c ****  */
 148:..\lvgl\lv_draw/lv_draw.c **** void lv_draw_aa_hor_seg(lv_coord_t x, lv_coord_t y, lv_coord_t length, const lv_area_t * mask, lv_c
 149:..\lvgl\lv_draw/lv_draw.c **** {
 180              		.loc 1 149 0
 181              		.cfi_startproc
 182              		@ args = 8, pretend = 0, frame = 0
 183              		@ frame_needed = 0, uses_anonymous_args = 0
 184              	.LVL21:
 185 0000 2DE9F04F 		push	{r4, r5, r6, r7, r8, r9, r10, fp, lr}
 186              		.cfi_def_cfa_offset 36
 187              		.cfi_offset 4, -36
 188              		.cfi_offset 5, -32
ARM GAS  C:\Users\d3bug\AppData\Local\Temp\ccrBYWI8.s 			page 7


 189              		.cfi_offset 6, -28
 190              		.cfi_offset 7, -24
 191              		.cfi_offset 8, -20
 192              		.cfi_offset 9, -16
 193              		.cfi_offset 10, -12
 194              		.cfi_offset 11, -8
 195              		.cfi_offset 14, -4
 196 0004 83B0     		sub	sp, sp, #12
 197              		.cfi_def_cfa_offset 48
 198 0006 0746     		mov	r7, r0
 199 0008 8846     		mov	r8, r1
 200 000a 9946     		mov	r9, r3
 201 000c 9DF830A0 		ldrb	r10, [sp, #48]	@ zero_extendqisi2
 202 0010 9DF83460 		ldrb	r6, [sp, #52]	@ zero_extendqisi2
 203              	.LVL22:
 150:..\lvgl\lv_draw/lv_draw.c ****     bool aa_inv = false;
 151:..\lvgl\lv_draw/lv_draw.c ****     if(length < 0) {
 204              		.loc 1 151 0
 205 0014 151E     		subs	r5, r2, #0
 206 0016 04DA     		bge	.L19
 207              	.LVL23:
 152:..\lvgl\lv_draw/lv_draw.c ****         aa_inv = true;
 153:..\lvgl\lv_draw/lv_draw.c ****         length = -length;
 208              		.loc 1 153 0
 209 0018 6D42     		negs	r5, r5
 210 001a 2DB2     		sxth	r5, r5
 211              	.LVL24:
 152:..\lvgl\lv_draw/lv_draw.c ****         aa_inv = true;
 212              		.loc 1 152 0
 213 001c 4FF0010B 		mov	fp, #1
 214 0020 01E0     		b	.L15
 215              	.LVL25:
 216              	.L19:
 150:..\lvgl\lv_draw/lv_draw.c ****     bool aa_inv = false;
 217              		.loc 1 150 0
 218 0022 4FF0000B 		mov	fp, #0
 219              	.LVL26:
 220              	.L15:
 154:..\lvgl\lv_draw/lv_draw.c ****     }
 155:..\lvgl\lv_draw/lv_draw.c **** 
 156:..\lvgl\lv_draw/lv_draw.c ****     lv_coord_t i;
 157:..\lvgl\lv_draw/lv_draw.c ****     for(i = 0; i < length; i++) {
 221              		.loc 1 157 0
 222 0026 0024     		movs	r4, #0
 223 0028 16E0     		b	.L16
 224              	.LVL27:
 225              	.L18:
 226              	.LBB3:
 158:..\lvgl\lv_draw/lv_draw.c ****         lv_opa_t px_opa = lv_draw_aa_get_opa(length, i, opa);
 227              		.loc 1 158 0
 228 002a 3246     		mov	r2, r6
 229 002c 2146     		mov	r1, r4
 230 002e 2846     		mov	r0, r5
 231 0030 FFF7FEFF 		bl	lv_draw_aa_get_opa
 232              	.LVL28:
 159:..\lvgl\lv_draw/lv_draw.c ****         if(aa_inv) px_opa = opa - px_opa;
 233              		.loc 1 159 0
ARM GAS  C:\Users\d3bug\AppData\Local\Temp\ccrBYWI8.s 			page 8


 234 0034 BBF1000F 		cmp	fp, #0
 235 0038 01D0     		beq	.L17
 236              		.loc 1 159 0 is_stmt 0 discriminator 1
 237 003a 301A     		subs	r0, r6, r0
 238              	.LVL29:
 239 003c C0B2     		uxtb	r0, r0
 240              	.LVL30:
 241              	.L17:
 160:..\lvgl\lv_draw/lv_draw.c ****         px_fp(x + i, y, mask, color, px_opa);
 242              		.loc 1 160 0 is_stmt 1 discriminator 2
 243 003e A4B2     		uxth	r4, r4
 244 0040 04EB070E 		add	lr, r4, r7
 245 0044 0090     		str	r0, [sp]
 246 0046 5346     		mov	r3, r10
 247 0048 4A46     		mov	r2, r9
 248 004a 4146     		mov	r1, r8
 249 004c 0FFA8EF0 		sxth	r0, lr
 250              	.LVL31:
 251 0050 FFF7FEFF 		bl	lv_vpx
 252              	.LVL32:
 253              	.LBE3:
 157:..\lvgl\lv_draw/lv_draw.c ****         lv_opa_t px_opa = lv_draw_aa_get_opa(length, i, opa);
 254              		.loc 1 157 0 discriminator 2
 255 0054 0134     		adds	r4, r4, #1
 256              	.LVL33:
 257 0056 24B2     		sxth	r4, r4
 258              	.LVL34:
 259              	.L16:
 157:..\lvgl\lv_draw/lv_draw.c ****         lv_opa_t px_opa = lv_draw_aa_get_opa(length, i, opa);
 260              		.loc 1 157 0 is_stmt 0 discriminator 1
 261 0058 A542     		cmp	r5, r4
 262 005a E6DC     		bgt	.L18
 161:..\lvgl\lv_draw/lv_draw.c ****     }
 162:..\lvgl\lv_draw/lv_draw.c **** }
 263              		.loc 1 162 0 is_stmt 1
 264 005c 03B0     		add	sp, sp, #12
 265              		.cfi_def_cfa_offset 36
 266              		@ sp needed
 267 005e BDE8F08F 		pop	{r4, r5, r6, r7, r8, r9, r10, fp, pc}
 268              		.cfi_endproc
 269              	.LFE15:
 270              		.size	lv_draw_aa_hor_seg, .-lv_draw_aa_hor_seg
 271              		.global	map_fp
 272              		.global	letter_fp
 273              		.global	fill_fp
 274              		.global	px_fp
 275 0062 00BF     		.section	.rodata
 276              		.align	2
 277              		.set	.LANCHOR0,. + 0
 278              		.type	seg_map.6344, %object
 279              		.size	seg_map.6344, 32
 280              	seg_map.6344:
 281 0000 20000000 		.word	seg1.6336
 282 0004 24000000 		.word	seg2.6337
 283 0008 28000000 		.word	seg3.6338
 284 000c 2C000000 		.word	seg4.6339
 285 0010 30000000 		.word	seg5.6340
ARM GAS  C:\Users\d3bug\AppData\Local\Temp\ccrBYWI8.s 			page 9


 286 0014 38000000 		.word	seg6.6341
 287 0018 40000000 		.word	seg7.6342
 288 001c 48000000 		.word	seg8.6343
 289              		.type	seg1.6336, %object
 290              		.size	seg1.6336, 1
 291              	seg1.6336:
 292 0020 80       		.byte	-128
 293 0021 000000   		.space	3
 294              		.type	seg2.6337, %object
 295              		.size	seg2.6337, 2
 296              	seg2.6337:
 297 0024 40       		.byte	64
 298 0025 C0       		.byte	-64
 299 0026 0000     		.space	2
 300              		.type	seg3.6338, %object
 301              		.size	seg3.6338, 3
 302              	seg3.6338:
 303 0028 2A       		.byte	42
 304 0029 80       		.byte	-128
 305 002a D4       		.byte	-44
 306 002b 00       		.space	1
 307              		.type	seg4.6339, %object
 308              		.size	seg4.6339, 4
 309              	seg4.6339:
 310 002c 20       		.byte	32
 311 002d 60       		.byte	96
 312 002e 9F       		.byte	-97
 313 002f DF       		.byte	-33
 314              		.type	seg5.6340, %object
 315              		.size	seg5.6340, 5
 316              	seg5.6340:
 317 0030 1A       		.byte	26
 318 0031 4C       		.byte	76
 319 0032 80       		.byte	-128
 320 0033 B2       		.byte	-78
 321 0034 E6       		.byte	-26
 322 0035 000000   		.space	3
 323              		.type	seg6.6341, %object
 324              		.size	seg6.6341, 6
 325              	seg6.6341:
 326 0038 15       		.byte	21
 327 0039 40       		.byte	64
 328 003a 6A       		.byte	106
 329 003b 94       		.byte	-108
 330 003c BF       		.byte	-65
 331 003d EA       		.byte	-22
 332 003e 0000     		.space	2
 333              		.type	seg7.6342, %object
 334              		.size	seg7.6342, 7
 335              	seg7.6342:
 336 0040 12       		.byte	18
 337 0041 37       		.byte	55
 338 0042 5B       		.byte	91
 339 0043 80       		.byte	-128
 340 0044 A4       		.byte	-92
 341 0045 C8       		.byte	-56
 342 0046 ED       		.byte	-19
ARM GAS  C:\Users\d3bug\AppData\Local\Temp\ccrBYWI8.s 			page 10


 343 0047 00       		.space	1
 344              		.type	seg8.6343, %object
 345              		.size	seg8.6343, 8
 346              	seg8.6343:
 347 0048 10       		.byte	16
 348 0049 30       		.byte	48
 349 004a 50       		.byte	80
 350 004b 70       		.byte	112
 351 004c 8F       		.byte	-113
 352 004d AF       		.byte	-81
 353 004e CF       		.byte	-49
 354 004f EF       		.byte	-17
 355              		.type	map_fp, %object
 356              		.size	map_fp, 4
 357              	map_fp:
 358 0050 00000000 		.word	lv_vmap
 359              		.type	letter_fp, %object
 360              		.size	letter_fp, 4
 361              	letter_fp:
 362 0054 00000000 		.word	lv_vletter
 363              		.type	fill_fp, %object
 364              		.size	fill_fp, 4
 365              	fill_fp:
 366 0058 00000000 		.word	lv_vfill
 367              		.type	px_fp, %object
 368              		.size	px_fp, 4
 369              	px_fp:
 370 005c 00000000 		.word	lv_vpx
 371              		.text
 372              	.Letext0:
 373              		.file 2 "c:\\program files (x86)\\cypress\\psoc creator\\4.2\\psoc creator\\import\\gnu\\arm\\5.4.
 374              		.file 3 "c:\\program files (x86)\\cypress\\psoc creator\\4.2\\psoc creator\\import\\gnu\\arm\\5.4.
 375              		.file 4 "..\\lvgl\\lv_draw\\../lv_core/../lv_misc/lv_color.h"
 376              		.file 5 "..\\lvgl\\lv_draw\\../lv_core/../lv_misc/lv_area.h"
 377              		.file 6 "..\\lvgl\\lv_draw\\../lv_core/../lv_misc/lv_font.h"
 378              		.file 7 "..\\lvgl\\lv_draw\\lv_draw_vbasic.h"