ARM GAS  C:\Users\d3bug\AppData\Local\Temp\ccO92C5c.s 			page 1


   1              		.syntax unified
   2              		.cpu cortex-m3
   3              		.fpu softvfp
   4              		.eabi_attribute 20, 1
   5              		.eabi_attribute 21, 1
   6              		.eabi_attribute 23, 3
   7              		.eabi_attribute 24, 1
   8              		.eabi_attribute 25, 1
   9              		.eabi_attribute 26, 1
  10              		.eabi_attribute 30, 1
  11              		.eabi_attribute 34, 1
  12              		.eabi_attribute 18, 4
  13              		.thumb
  14              		.syntax unified
  15              		.file	"lv_draw_label.c"
  16              		.text
  17              	.Ltext0:
  18              		.cfi_sections	.debug_frame
  19              		.section	.text.hex_char_to_num,"ax",%progbits
  20              		.align	2
  21              		.thumb
  22              		.thumb_func
  23              		.type	hex_char_to_num, %function
  24              	hex_char_to_num:
  25              	.LFB13:
  26              		.file 1 "..\\lvgl\\lv_draw\\lv_draw_label.c"
   1:..\lvgl\lv_draw/lv_draw_label.c **** /**
   2:..\lvgl\lv_draw/lv_draw_label.c ****  * @file lv_draw_label.c
   3:..\lvgl\lv_draw/lv_draw_label.c ****  *
   4:..\lvgl\lv_draw/lv_draw_label.c ****  */
   5:..\lvgl\lv_draw/lv_draw_label.c **** 
   6:..\lvgl\lv_draw/lv_draw_label.c **** /*********************
   7:..\lvgl\lv_draw/lv_draw_label.c ****  *      INCLUDES
   8:..\lvgl\lv_draw/lv_draw_label.c ****  *********************/
   9:..\lvgl\lv_draw/lv_draw_label.c **** #include "lv_draw_label.h"
  10:..\lvgl\lv_draw/lv_draw_label.c **** #include "lv_draw_rbasic.h"
  11:..\lvgl\lv_draw/lv_draw_label.c **** #include "../lv_misc/lv_math.h"
  12:..\lvgl\lv_draw/lv_draw_label.c **** 
  13:..\lvgl\lv_draw/lv_draw_label.c **** /*********************
  14:..\lvgl\lv_draw/lv_draw_label.c ****  *      DEFINES
  15:..\lvgl\lv_draw/lv_draw_label.c ****  *********************/
  16:..\lvgl\lv_draw/lv_draw_label.c **** #define LABEL_RECOLOR_PAR_LENGTH    6
  17:..\lvgl\lv_draw/lv_draw_label.c **** 
  18:..\lvgl\lv_draw/lv_draw_label.c **** /**********************
  19:..\lvgl\lv_draw/lv_draw_label.c ****  *      TYPEDEFS
  20:..\lvgl\lv_draw/lv_draw_label.c ****  **********************/
  21:..\lvgl\lv_draw/lv_draw_label.c **** enum {
  22:..\lvgl\lv_draw/lv_draw_label.c ****     CMD_STATE_WAIT,
  23:..\lvgl\lv_draw/lv_draw_label.c ****     CMD_STATE_PAR,
  24:..\lvgl\lv_draw/lv_draw_label.c ****     CMD_STATE_IN,
  25:..\lvgl\lv_draw/lv_draw_label.c **** };
  26:..\lvgl\lv_draw/lv_draw_label.c **** typedef uint8_t cmd_state_t;
  27:..\lvgl\lv_draw/lv_draw_label.c **** 
  28:..\lvgl\lv_draw/lv_draw_label.c **** /**********************
  29:..\lvgl\lv_draw/lv_draw_label.c ****  *  STATIC PROTOTYPES
  30:..\lvgl\lv_draw/lv_draw_label.c ****  **********************/
  31:..\lvgl\lv_draw/lv_draw_label.c **** static uint8_t hex_char_to_num(char hex);
ARM GAS  C:\Users\d3bug\AppData\Local\Temp\ccO92C5c.s 			page 2


  32:..\lvgl\lv_draw/lv_draw_label.c **** 
  33:..\lvgl\lv_draw/lv_draw_label.c **** /**********************
  34:..\lvgl\lv_draw/lv_draw_label.c ****  *  STATIC VARIABLES
  35:..\lvgl\lv_draw/lv_draw_label.c ****  **********************/
  36:..\lvgl\lv_draw/lv_draw_label.c **** 
  37:..\lvgl\lv_draw/lv_draw_label.c **** 
  38:..\lvgl\lv_draw/lv_draw_label.c **** /**********************
  39:..\lvgl\lv_draw/lv_draw_label.c ****  *      MACROS
  40:..\lvgl\lv_draw/lv_draw_label.c ****  **********************/
  41:..\lvgl\lv_draw/lv_draw_label.c **** 
  42:..\lvgl\lv_draw/lv_draw_label.c **** /**********************
  43:..\lvgl\lv_draw/lv_draw_label.c ****  *   GLOBAL FUNCTIONS
  44:..\lvgl\lv_draw/lv_draw_label.c ****  **********************/
  45:..\lvgl\lv_draw/lv_draw_label.c **** 
  46:..\lvgl\lv_draw/lv_draw_label.c **** /**
  47:..\lvgl\lv_draw/lv_draw_label.c ****  * Write a text
  48:..\lvgl\lv_draw/lv_draw_label.c ****  * @param coords coordinates of the label
  49:..\lvgl\lv_draw/lv_draw_label.c ****  * @param mask the label will be drawn only in this area
  50:..\lvgl\lv_draw/lv_draw_label.c ****  * @param style pointer to a style
  51:..\lvgl\lv_draw/lv_draw_label.c ****  * @param opa_scale scale down all opacities by the factor
  52:..\lvgl\lv_draw/lv_draw_label.c ****  * @param txt 0 terminated text to write
  53:..\lvgl\lv_draw/lv_draw_label.c ****  * @param flag settings for the text from 'txt_flag_t' enum
  54:..\lvgl\lv_draw/lv_draw_label.c ****  * @param offset text offset in x and y direction (NULL if unused)
  55:..\lvgl\lv_draw/lv_draw_label.c ****  *
  56:..\lvgl\lv_draw/lv_draw_label.c ****  */
  57:..\lvgl\lv_draw/lv_draw_label.c **** void lv_draw_label(const lv_area_t * coords, const lv_area_t * mask, const lv_style_t * style, lv_o
  58:..\lvgl\lv_draw/lv_draw_label.c ****                    const char * txt, lv_txt_flag_t flag, lv_point_t * offset)
  59:..\lvgl\lv_draw/lv_draw_label.c **** {
  60:..\lvgl\lv_draw/lv_draw_label.c ****     const lv_font_t * font = style->text.font;
  61:..\lvgl\lv_draw/lv_draw_label.c ****     lv_coord_t w;
  62:..\lvgl\lv_draw/lv_draw_label.c ****     if((flag & LV_TXT_FLAG_EXPAND) == 0) {
  63:..\lvgl\lv_draw/lv_draw_label.c ****         /*Normally use the label's width as width*/
  64:..\lvgl\lv_draw/lv_draw_label.c ****         w = lv_area_get_width(coords);
  65:..\lvgl\lv_draw/lv_draw_label.c ****     } else {
  66:..\lvgl\lv_draw/lv_draw_label.c ****         /*If EXAPND is enabled then not limit the text's width to the object's width*/
  67:..\lvgl\lv_draw/lv_draw_label.c ****         lv_point_t p;
  68:..\lvgl\lv_draw/lv_draw_label.c ****         lv_txt_get_size(&p, txt, style->text.font, style->text.letter_space, style->text.line_space
  69:..\lvgl\lv_draw/lv_draw_label.c ****         w = p.x;
  70:..\lvgl\lv_draw/lv_draw_label.c ****     }
  71:..\lvgl\lv_draw/lv_draw_label.c **** 
  72:..\lvgl\lv_draw/lv_draw_label.c ****     lv_coord_t line_height = lv_font_get_height(font) + style->text.line_space;
  73:..\lvgl\lv_draw/lv_draw_label.c **** 
  74:..\lvgl\lv_draw/lv_draw_label.c **** 
  75:..\lvgl\lv_draw/lv_draw_label.c ****     /*Init variables for the first line*/
  76:..\lvgl\lv_draw/lv_draw_label.c ****     lv_coord_t line_width = 0;
  77:..\lvgl\lv_draw/lv_draw_label.c ****     lv_point_t pos;
  78:..\lvgl\lv_draw/lv_draw_label.c ****     pos.x = coords->x1;
  79:..\lvgl\lv_draw/lv_draw_label.c ****     pos.y = coords->y1;
  80:..\lvgl\lv_draw/lv_draw_label.c **** 
  81:..\lvgl\lv_draw/lv_draw_label.c ****     uint32_t line_start = 0;
  82:..\lvgl\lv_draw/lv_draw_label.c ****     uint32_t line_end = lv_txt_get_next_line(txt, font, style->text.letter_space, w, flag);
  83:..\lvgl\lv_draw/lv_draw_label.c **** 
  84:..\lvgl\lv_draw/lv_draw_label.c ****     /*Go the first visible line*/
  85:..\lvgl\lv_draw/lv_draw_label.c ****     while(pos.y + line_height < mask->y1) {
  86:..\lvgl\lv_draw/lv_draw_label.c ****         /*Go to next line*/
  87:..\lvgl\lv_draw/lv_draw_label.c ****         line_start = line_end;
  88:..\lvgl\lv_draw/lv_draw_label.c ****         line_end += lv_txt_get_next_line(&txt[line_start], font, style->text.letter_space, w, flag)
ARM GAS  C:\Users\d3bug\AppData\Local\Temp\ccO92C5c.s 			page 3


  89:..\lvgl\lv_draw/lv_draw_label.c ****         pos.y += line_height;
  90:..\lvgl\lv_draw/lv_draw_label.c **** 
  91:..\lvgl\lv_draw/lv_draw_label.c ****         if(txt[line_start] == '\0') return;
  92:..\lvgl\lv_draw/lv_draw_label.c ****     }
  93:..\lvgl\lv_draw/lv_draw_label.c **** 
  94:..\lvgl\lv_draw/lv_draw_label.c ****     /*Align to middle*/
  95:..\lvgl\lv_draw/lv_draw_label.c ****     if(flag & LV_TXT_FLAG_CENTER) {
  96:..\lvgl\lv_draw/lv_draw_label.c ****         line_width = lv_txt_get_width(&txt[line_start], line_end - line_start,
  97:..\lvgl\lv_draw/lv_draw_label.c ****                                       font, style->text.letter_space, flag);
  98:..\lvgl\lv_draw/lv_draw_label.c **** 
  99:..\lvgl\lv_draw/lv_draw_label.c ****         pos.x += (lv_area_get_width(coords) - line_width) / 2;
 100:..\lvgl\lv_draw/lv_draw_label.c **** 
 101:..\lvgl\lv_draw/lv_draw_label.c ****     }
 102:..\lvgl\lv_draw/lv_draw_label.c ****     /*Align to the right*/
 103:..\lvgl\lv_draw/lv_draw_label.c ****     else if(flag & LV_TXT_FLAG_RIGHT) {
 104:..\lvgl\lv_draw/lv_draw_label.c ****         line_width = lv_txt_get_width(&txt[line_start], line_end - line_start,
 105:..\lvgl\lv_draw/lv_draw_label.c ****                                       font, style->text.letter_space, flag);
 106:..\lvgl\lv_draw/lv_draw_label.c ****         pos.x += lv_area_get_width(coords) - line_width;
 107:..\lvgl\lv_draw/lv_draw_label.c ****     }
 108:..\lvgl\lv_draw/lv_draw_label.c **** 
 109:..\lvgl\lv_draw/lv_draw_label.c **** 
 110:..\lvgl\lv_draw/lv_draw_label.c ****     lv_opa_t opa = opa_scale == LV_OPA_COVER ? style->text.opa : (uint16_t)((uint16_t) style->text.
 111:..\lvgl\lv_draw/lv_draw_label.c **** 
 112:..\lvgl\lv_draw/lv_draw_label.c ****     cmd_state_t cmd_state = CMD_STATE_WAIT;
 113:..\lvgl\lv_draw/lv_draw_label.c ****     uint32_t i;
 114:..\lvgl\lv_draw/lv_draw_label.c ****     uint16_t par_start = 0;
 115:..\lvgl\lv_draw/lv_draw_label.c ****     lv_color_t recolor;
 116:..\lvgl\lv_draw/lv_draw_label.c ****     lv_coord_t letter_w;
 117:..\lvgl\lv_draw/lv_draw_label.c **** 
 118:..\lvgl\lv_draw/lv_draw_label.c ****     lv_coord_t x_ofs = 0;
 119:..\lvgl\lv_draw/lv_draw_label.c ****     lv_coord_t y_ofs = 0;
 120:..\lvgl\lv_draw/lv_draw_label.c ****     if(offset != NULL) {
 121:..\lvgl\lv_draw/lv_draw_label.c ****         x_ofs = offset->x;
 122:..\lvgl\lv_draw/lv_draw_label.c ****         y_ofs = offset->y;
 123:..\lvgl\lv_draw/lv_draw_label.c ****         pos.y += y_ofs;
 124:..\lvgl\lv_draw/lv_draw_label.c ****     }
 125:..\lvgl\lv_draw/lv_draw_label.c **** 
 126:..\lvgl\lv_draw/lv_draw_label.c ****     /*Real draw need a background color for higher bpp letter*/
 127:..\lvgl\lv_draw/lv_draw_label.c **** #if LV_VDB_SIZE == 0
 128:..\lvgl\lv_draw/lv_draw_label.c ****     lv_rletter_set_background(style->body.main_color);
 129:..\lvgl\lv_draw/lv_draw_label.c **** #endif
 130:..\lvgl\lv_draw/lv_draw_label.c **** 
 131:..\lvgl\lv_draw/lv_draw_label.c **** 
 132:..\lvgl\lv_draw/lv_draw_label.c ****     /*Write out all lines*/
 133:..\lvgl\lv_draw/lv_draw_label.c ****     while(txt[line_start] != '\0') {
 134:..\lvgl\lv_draw/lv_draw_label.c ****         if(offset != NULL) {
 135:..\lvgl\lv_draw/lv_draw_label.c ****             pos.x += x_ofs;
 136:..\lvgl\lv_draw/lv_draw_label.c ****         }
 137:..\lvgl\lv_draw/lv_draw_label.c ****         /*Write all letter of a line*/
 138:..\lvgl\lv_draw/lv_draw_label.c ****         cmd_state = CMD_STATE_WAIT;
 139:..\lvgl\lv_draw/lv_draw_label.c ****         i = line_start;
 140:..\lvgl\lv_draw/lv_draw_label.c ****         uint32_t letter;
 141:..\lvgl\lv_draw/lv_draw_label.c ****         while(i < line_end) {
 142:..\lvgl\lv_draw/lv_draw_label.c ****             letter = lv_txt_encoded_next(txt, &i);
 143:..\lvgl\lv_draw/lv_draw_label.c **** 
 144:..\lvgl\lv_draw/lv_draw_label.c ****             /*Handle the re-color command*/
 145:..\lvgl\lv_draw/lv_draw_label.c ****             if((flag & LV_TXT_FLAG_RECOLOR) != 0) {
ARM GAS  C:\Users\d3bug\AppData\Local\Temp\ccO92C5c.s 			page 4


 146:..\lvgl\lv_draw/lv_draw_label.c ****                 if(letter == (uint32_t)LV_TXT_COLOR_CMD[0]) {
 147:..\lvgl\lv_draw/lv_draw_label.c ****                     if(cmd_state == CMD_STATE_WAIT) { /*Start char*/
 148:..\lvgl\lv_draw/lv_draw_label.c ****                         par_start = i;
 149:..\lvgl\lv_draw/lv_draw_label.c ****                         cmd_state = CMD_STATE_PAR;
 150:..\lvgl\lv_draw/lv_draw_label.c ****                         continue;
 151:..\lvgl\lv_draw/lv_draw_label.c ****                     } else if(cmd_state == CMD_STATE_PAR) { /*Other start char in parameter escaped
 152:..\lvgl\lv_draw/lv_draw_label.c ****                         cmd_state = CMD_STATE_WAIT;
 153:..\lvgl\lv_draw/lv_draw_label.c ****                     } else if(cmd_state == CMD_STATE_IN) { /*Command end */
 154:..\lvgl\lv_draw/lv_draw_label.c ****                         cmd_state = CMD_STATE_WAIT;
 155:..\lvgl\lv_draw/lv_draw_label.c ****                         continue;
 156:..\lvgl\lv_draw/lv_draw_label.c ****                     }
 157:..\lvgl\lv_draw/lv_draw_label.c ****                 }
 158:..\lvgl\lv_draw/lv_draw_label.c **** 
 159:..\lvgl\lv_draw/lv_draw_label.c ****                 /*Skip the color parameter and wait the space after it*/
 160:..\lvgl\lv_draw/lv_draw_label.c ****                 if(cmd_state == CMD_STATE_PAR) {
 161:..\lvgl\lv_draw/lv_draw_label.c ****                     if(letter == ' ') {
 162:..\lvgl\lv_draw/lv_draw_label.c ****                         /*Get the parameter*/
 163:..\lvgl\lv_draw/lv_draw_label.c ****                         if(i - par_start == LABEL_RECOLOR_PAR_LENGTH + 1) {
 164:..\lvgl\lv_draw/lv_draw_label.c ****                             char buf[LABEL_RECOLOR_PAR_LENGTH + 1];
 165:..\lvgl\lv_draw/lv_draw_label.c ****                             memcpy(buf, &txt[par_start], LABEL_RECOLOR_PAR_LENGTH);
 166:..\lvgl\lv_draw/lv_draw_label.c ****                             buf[LABEL_RECOLOR_PAR_LENGTH] = '\0';
 167:..\lvgl\lv_draw/lv_draw_label.c ****                             int r, g, b;
 168:..\lvgl\lv_draw/lv_draw_label.c ****                             r = (hex_char_to_num(buf[0]) << 4) + hex_char_to_num(buf[1]);
 169:..\lvgl\lv_draw/lv_draw_label.c ****                             g = (hex_char_to_num(buf[2]) << 4) + hex_char_to_num(buf[3]);
 170:..\lvgl\lv_draw/lv_draw_label.c ****                             b = (hex_char_to_num(buf[4]) << 4) + hex_char_to_num(buf[5]);
 171:..\lvgl\lv_draw/lv_draw_label.c ****                             recolor = LV_COLOR_MAKE(r, g, b);
 172:..\lvgl\lv_draw/lv_draw_label.c ****                         } else {
 173:..\lvgl\lv_draw/lv_draw_label.c ****                             recolor.full = style->text.color.full;
 174:..\lvgl\lv_draw/lv_draw_label.c ****                         }
 175:..\lvgl\lv_draw/lv_draw_label.c ****                         cmd_state = CMD_STATE_IN; /*After the parameter the text is in the command*
 176:..\lvgl\lv_draw/lv_draw_label.c ****                     }
 177:..\lvgl\lv_draw/lv_draw_label.c ****                     continue;
 178:..\lvgl\lv_draw/lv_draw_label.c ****                 }
 179:..\lvgl\lv_draw/lv_draw_label.c ****             }
 180:..\lvgl\lv_draw/lv_draw_label.c **** 
 181:..\lvgl\lv_draw/lv_draw_label.c ****             lv_color_t color = style->text.color;
 182:..\lvgl\lv_draw/lv_draw_label.c **** 
 183:..\lvgl\lv_draw/lv_draw_label.c ****             if(cmd_state == CMD_STATE_IN) color = recolor;
 184:..\lvgl\lv_draw/lv_draw_label.c **** 
 185:..\lvgl\lv_draw/lv_draw_label.c ****             letter_fp(&pos, mask, font, letter, color, opa);
 186:..\lvgl\lv_draw/lv_draw_label.c ****             letter_w = lv_font_get_width(font, letter);
 187:..\lvgl\lv_draw/lv_draw_label.c **** 
 188:..\lvgl\lv_draw/lv_draw_label.c ****             if(letter_w > 0){
 189:..\lvgl\lv_draw/lv_draw_label.c ****                 pos.x += letter_w + style->text.letter_space;
 190:..\lvgl\lv_draw/lv_draw_label.c ****             }
 191:..\lvgl\lv_draw/lv_draw_label.c ****         }
 192:..\lvgl\lv_draw/lv_draw_label.c ****         /*Go to next line*/
 193:..\lvgl\lv_draw/lv_draw_label.c ****         line_start = line_end;
 194:..\lvgl\lv_draw/lv_draw_label.c ****         line_end += lv_txt_get_next_line(&txt[line_start], font, style->text.letter_space, w, flag)
 195:..\lvgl\lv_draw/lv_draw_label.c **** 
 196:..\lvgl\lv_draw/lv_draw_label.c ****         pos.x = coords->x1;
 197:..\lvgl\lv_draw/lv_draw_label.c ****         /*Align to middle*/
 198:..\lvgl\lv_draw/lv_draw_label.c ****         if(flag & LV_TXT_FLAG_CENTER) {
 199:..\lvgl\lv_draw/lv_draw_label.c ****             line_width = lv_txt_get_width(&txt[line_start], line_end - line_start,
 200:..\lvgl\lv_draw/lv_draw_label.c ****                                           font, style->text.letter_space, flag);
 201:..\lvgl\lv_draw/lv_draw_label.c **** 
 202:..\lvgl\lv_draw/lv_draw_label.c ****             pos.x += (lv_area_get_width(coords) - line_width) / 2;
ARM GAS  C:\Users\d3bug\AppData\Local\Temp\ccO92C5c.s 			page 5


 203:..\lvgl\lv_draw/lv_draw_label.c **** 
 204:..\lvgl\lv_draw/lv_draw_label.c ****         }
 205:..\lvgl\lv_draw/lv_draw_label.c ****         /*Align to the right*/
 206:..\lvgl\lv_draw/lv_draw_label.c ****         else if(flag & LV_TXT_FLAG_RIGHT) {
 207:..\lvgl\lv_draw/lv_draw_label.c ****             line_width = lv_txt_get_width(&txt[line_start], line_end - line_start,
 208:..\lvgl\lv_draw/lv_draw_label.c ****                                           font, style->text.letter_space, flag);
 209:..\lvgl\lv_draw/lv_draw_label.c ****             pos.x += lv_area_get_width(coords) - line_width;
 210:..\lvgl\lv_draw/lv_draw_label.c ****         }
 211:..\lvgl\lv_draw/lv_draw_label.c **** 
 212:..\lvgl\lv_draw/lv_draw_label.c ****         /*Go the next line position*/
 213:..\lvgl\lv_draw/lv_draw_label.c ****         pos.y += line_height;
 214:..\lvgl\lv_draw/lv_draw_label.c **** 
 215:..\lvgl\lv_draw/lv_draw_label.c ****         if(pos.y > mask->y2) return;
 216:..\lvgl\lv_draw/lv_draw_label.c ****     }
 217:..\lvgl\lv_draw/lv_draw_label.c **** }
 218:..\lvgl\lv_draw/lv_draw_label.c **** 
 219:..\lvgl\lv_draw/lv_draw_label.c **** /**********************
 220:..\lvgl\lv_draw/lv_draw_label.c ****  *   STATIC FUNCTIONS
 221:..\lvgl\lv_draw/lv_draw_label.c ****  **********************/
 222:..\lvgl\lv_draw/lv_draw_label.c **** 
 223:..\lvgl\lv_draw/lv_draw_label.c **** /**
 224:..\lvgl\lv_draw/lv_draw_label.c ****  * Convert a hexadecimal characters to a number (0..15)
 225:..\lvgl\lv_draw/lv_draw_label.c ****  * @param hex Pointer to a hexadecimal character (0..9, A..F)
 226:..\lvgl\lv_draw/lv_draw_label.c ****  * @return the numerical value of `hex` or 0 on error
 227:..\lvgl\lv_draw/lv_draw_label.c ****  */
 228:..\lvgl\lv_draw/lv_draw_label.c **** static uint8_t hex_char_to_num(char hex)
 229:..\lvgl\lv_draw/lv_draw_label.c **** {
  27              		.loc 1 229 0
  28              		.cfi_startproc
  29              		@ args = 0, pretend = 0, frame = 0
  30              		@ frame_needed = 0, uses_anonymous_args = 0
  31              		@ link register save eliminated.
  32              	.LVL0:
  33 0000 0346     		mov	r3, r0
  34              	.LVL1:
 230:..\lvgl\lv_draw/lv_draw_label.c ****     uint8_t result = 0;
 231:..\lvgl\lv_draw/lv_draw_label.c **** 
 232:..\lvgl\lv_draw/lv_draw_label.c ****     if(hex >= '0' && hex <= '9') {
  35              		.loc 1 232 0
  36 0002 3038     		subs	r0, r0, #48
  37              	.LVL2:
  38 0004 C0B2     		uxtb	r0, r0
  39 0006 0928     		cmp	r0, #9
  40 0008 18D9     		bls	.L2
 233:..\lvgl\lv_draw/lv_draw_label.c ****         result = hex - '0';
 234:..\lvgl\lv_draw/lv_draw_label.c ****     }
 235:..\lvgl\lv_draw/lv_draw_label.c ****     else {
 236:..\lvgl\lv_draw/lv_draw_label.c ****         if(hex >= 'a') hex -= 'a' - 'A';    /*Convert to upper case*/
  41              		.loc 1 236 0
  42 000a 602B     		cmp	r3, #96
  43 000c 01D9     		bls	.L3
  44              		.loc 1 236 0 is_stmt 0 discriminator 1
  45 000e 203B     		subs	r3, r3, #32
  46 0010 DBB2     		uxtb	r3, r3
  47              	.LVL3:
  48              	.L3:
 237:..\lvgl\lv_draw/lv_draw_label.c **** 
ARM GAS  C:\Users\d3bug\AppData\Local\Temp\ccO92C5c.s 			page 6


 238:..\lvgl\lv_draw/lv_draw_label.c ****         switch(hex) {
  49              		.loc 1 238 0 is_stmt 1
  50 0012 413B     		subs	r3, r3, #65
  51              	.LVL4:
  52 0014 052B     		cmp	r3, #5
  53 0016 0ED8     		bhi	.L4
  54 0018 DFE803F0 		tbb	[pc, r3]
  55              	.L6:
  56 001c 03       		.byte	(.L5-.L6)/2
  57 001d 0F       		.byte	(.L11-.L6)/2
  58 001e 05       		.byte	(.L7-.L6)/2
  59 001f 07       		.byte	(.L8-.L6)/2
  60 0020 09       		.byte	(.L9-.L6)/2
  61 0021 0B       		.byte	(.L10-.L6)/2
  62              		.p2align 1
  63              	.L5:
 239:..\lvgl\lv_draw/lv_draw_label.c ****             case 'A':
 240:..\lvgl\lv_draw/lv_draw_label.c ****                 result = 10;
  64              		.loc 1 240 0
  65 0022 0A20     		movs	r0, #10
  66 0024 7047     		bx	lr
  67              	.L7:
  68              	.LVL5:
 241:..\lvgl\lv_draw/lv_draw_label.c ****                 break;
 242:..\lvgl\lv_draw/lv_draw_label.c ****             case 'B':
 243:..\lvgl\lv_draw/lv_draw_label.c ****                 result = 11;
 244:..\lvgl\lv_draw/lv_draw_label.c ****                 break;
 245:..\lvgl\lv_draw/lv_draw_label.c ****             case 'C':
 246:..\lvgl\lv_draw/lv_draw_label.c ****                 result = 12;
  69              		.loc 1 246 0
  70 0026 0C20     		movs	r0, #12
 247:..\lvgl\lv_draw/lv_draw_label.c ****                 break;
  71              		.loc 1 247 0
  72 0028 7047     		bx	lr
  73              	.LVL6:
  74              	.L8:
 248:..\lvgl\lv_draw/lv_draw_label.c ****             case 'D':
 249:..\lvgl\lv_draw/lv_draw_label.c ****                 result = 13;
  75              		.loc 1 249 0
  76 002a 0D20     		movs	r0, #13
 250:..\lvgl\lv_draw/lv_draw_label.c ****                 break;
  77              		.loc 1 250 0
  78 002c 7047     		bx	lr
  79              	.LVL7:
  80              	.L9:
 251:..\lvgl\lv_draw/lv_draw_label.c ****             case 'E':
 252:..\lvgl\lv_draw/lv_draw_label.c ****                 result = 14;
  81              		.loc 1 252 0
  82 002e 0E20     		movs	r0, #14
 253:..\lvgl\lv_draw/lv_draw_label.c ****                 break;
  83              		.loc 1 253 0
  84 0030 7047     		bx	lr
  85              	.LVL8:
  86              	.L10:
 254:..\lvgl\lv_draw/lv_draw_label.c ****             case 'F':
 255:..\lvgl\lv_draw/lv_draw_label.c ****                 result = 15;
  87              		.loc 1 255 0
ARM GAS  C:\Users\d3bug\AppData\Local\Temp\ccO92C5c.s 			page 7


  88 0032 0F20     		movs	r0, #15
 256:..\lvgl\lv_draw/lv_draw_label.c ****                 break;
  89              		.loc 1 256 0
  90 0034 7047     		bx	lr
  91              	.LVL9:
  92              	.L4:
 257:..\lvgl\lv_draw/lv_draw_label.c ****             default:
 258:..\lvgl\lv_draw/lv_draw_label.c ****                 result = 0;
  93              		.loc 1 258 0
  94 0036 0020     		movs	r0, #0
 259:..\lvgl\lv_draw/lv_draw_label.c ****                 break;
  95              		.loc 1 259 0
  96 0038 7047     		bx	lr
  97              	.L11:
 243:..\lvgl\lv_draw/lv_draw_label.c ****                 break;
  98              		.loc 1 243 0
  99 003a 0B20     		movs	r0, #11
 100              	.L2:
 101              	.LVL10:
 260:..\lvgl\lv_draw/lv_draw_label.c ****         }
 261:..\lvgl\lv_draw/lv_draw_label.c ****     }
 262:..\lvgl\lv_draw/lv_draw_label.c **** 
 263:..\lvgl\lv_draw/lv_draw_label.c ****     return result;
 264:..\lvgl\lv_draw/lv_draw_label.c **** }
 102              		.loc 1 264 0
 103 003c 7047     		bx	lr
 104              		.cfi_endproc
 105              	.LFE13:
 106              		.size	hex_char_to_num, .-hex_char_to_num
 107 003e 00BF     		.section	.text.lv_draw_label,"ax",%progbits
 108              		.align	2
 109              		.global	lv_draw_label
 110              		.thumb
 111              		.thumb_func
 112              		.type	lv_draw_label, %function
 113              	lv_draw_label:
 114              	.LFB12:
  59:..\lvgl\lv_draw/lv_draw_label.c ****     const lv_font_t * font = style->text.font;
 115              		.loc 1 59 0
 116              		.cfi_startproc
 117              		@ args = 12, pretend = 0, frame = 56
 118              		@ frame_needed = 0, uses_anonymous_args = 0
 119              	.LVL11:
 120 0000 2DE9F04F 		push	{r4, r5, r6, r7, r8, r9, r10, fp, lr}
 121              		.cfi_def_cfa_offset 36
 122              		.cfi_offset 4, -36
 123              		.cfi_offset 5, -32
 124              		.cfi_offset 6, -28
 125              		.cfi_offset 7, -24
 126              		.cfi_offset 8, -20
 127              		.cfi_offset 9, -16
 128              		.cfi_offset 10, -12
 129              		.cfi_offset 11, -8
 130              		.cfi_offset 14, -4
 131 0004 93B0     		sub	sp, sp, #76
 132              		.cfi_def_cfa_offset 112
 133 0006 0990     		str	r0, [sp, #36]
ARM GAS  C:\Users\d3bug\AppData\Local\Temp\ccO92C5c.s 			page 8


 134 0008 0591     		str	r1, [sp, #20]
 135 000a 1646     		mov	r6, r2
 136 000c 9946     		mov	r9, r3
 137 000e DDF87080 		ldr	r8, [sp, #112]
 138 0012 9DF874A0 		ldrb	r10, [sp, #116]	@ zero_extendqisi2
  60:..\lvgl\lv_draw/lv_draw_label.c ****     lv_coord_t w;
 139              		.loc 1 60 0
 140 0016 136A     		ldr	r3, [r2, #32]
 141              	.LVL12:
 142 0018 0493     		str	r3, [sp, #16]
 143              	.LVL13:
  62:..\lvgl\lv_draw/lv_draw_label.c ****         /*Normally use the label's width as width*/
 144              		.loc 1 62 0
 145 001a 1AF0020F 		tst	r10, #2
 146 001e 08D1     		bne	.L13
 147              	.LVL14:
 148              	.LBB18:
 149              	.LBB19:
 150              		.file 2 "..\\lvgl\\lv_draw\\../lv_core/../lv_misc/lv_area.h"
   1:..\lvgl\lv_draw\../lv_core/../lv_misc/lv_area.h **** /**
   2:..\lvgl\lv_draw\../lv_core/../lv_misc/lv_area.h ****  * @file lv_area.h
   3:..\lvgl\lv_draw\../lv_core/../lv_misc/lv_area.h ****  *
   4:..\lvgl\lv_draw\../lv_core/../lv_misc/lv_area.h ****  */
   5:..\lvgl\lv_draw\../lv_core/../lv_misc/lv_area.h **** 
   6:..\lvgl\lv_draw\../lv_core/../lv_misc/lv_area.h **** #ifndef LV_AREA_H
   7:..\lvgl\lv_draw\../lv_core/../lv_misc/lv_area.h **** #define LV_AREA_H
   8:..\lvgl\lv_draw\../lv_core/../lv_misc/lv_area.h **** 
   9:..\lvgl\lv_draw\../lv_core/../lv_misc/lv_area.h **** #ifdef __cplusplus
  10:..\lvgl\lv_draw\../lv_core/../lv_misc/lv_area.h **** extern "C" {
  11:..\lvgl\lv_draw\../lv_core/../lv_misc/lv_area.h **** #endif
  12:..\lvgl\lv_draw\../lv_core/../lv_misc/lv_area.h **** 
  13:..\lvgl\lv_draw\../lv_core/../lv_misc/lv_area.h **** 
  14:..\lvgl\lv_draw\../lv_core/../lv_misc/lv_area.h **** /*********************
  15:..\lvgl\lv_draw\../lv_core/../lv_misc/lv_area.h ****  *      INCLUDES
  16:..\lvgl\lv_draw\../lv_core/../lv_misc/lv_area.h ****  *********************/
  17:..\lvgl\lv_draw\../lv_core/../lv_misc/lv_area.h **** #include <string.h>
  18:..\lvgl\lv_draw\../lv_core/../lv_misc/lv_area.h **** #include <stdbool.h>
  19:..\lvgl\lv_draw\../lv_core/../lv_misc/lv_area.h **** #include <stdint.h>
  20:..\lvgl\lv_draw\../lv_core/../lv_misc/lv_area.h **** 
  21:..\lvgl\lv_draw\../lv_core/../lv_misc/lv_area.h **** /*********************
  22:..\lvgl\lv_draw\../lv_core/../lv_misc/lv_area.h ****  *      DEFINES
  23:..\lvgl\lv_draw\../lv_core/../lv_misc/lv_area.h ****  *********************/
  24:..\lvgl\lv_draw\../lv_core/../lv_misc/lv_area.h **** #define LV_COORD_MAX     (16383)    /*To avoid overflow don't let the max [-32,32k] range */
  25:..\lvgl\lv_draw\../lv_core/../lv_misc/lv_area.h **** #define LV_COORD_MIN     (-16384)
  26:..\lvgl\lv_draw\../lv_core/../lv_misc/lv_area.h **** 
  27:..\lvgl\lv_draw\../lv_core/../lv_misc/lv_area.h **** /**********************
  28:..\lvgl\lv_draw\../lv_core/../lv_misc/lv_area.h ****  *      TYPEDEFS
  29:..\lvgl\lv_draw\../lv_core/../lv_misc/lv_area.h ****  **********************/
  30:..\lvgl\lv_draw\../lv_core/../lv_misc/lv_area.h **** typedef int16_t lv_coord_t;
  31:..\lvgl\lv_draw\../lv_core/../lv_misc/lv_area.h **** 
  32:..\lvgl\lv_draw\../lv_core/../lv_misc/lv_area.h **** typedef struct
  33:..\lvgl\lv_draw\../lv_core/../lv_misc/lv_area.h **** {
  34:..\lvgl\lv_draw\../lv_core/../lv_misc/lv_area.h ****     lv_coord_t x;
  35:..\lvgl\lv_draw\../lv_core/../lv_misc/lv_area.h ****     lv_coord_t y;
  36:..\lvgl\lv_draw\../lv_core/../lv_misc/lv_area.h **** } lv_point_t;
  37:..\lvgl\lv_draw\../lv_core/../lv_misc/lv_area.h **** 
  38:..\lvgl\lv_draw\../lv_core/../lv_misc/lv_area.h **** typedef struct
ARM GAS  C:\Users\d3bug\AppData\Local\Temp\ccO92C5c.s 			page 9


  39:..\lvgl\lv_draw\../lv_core/../lv_misc/lv_area.h **** {
  40:..\lvgl\lv_draw\../lv_core/../lv_misc/lv_area.h ****     lv_coord_t x1;
  41:..\lvgl\lv_draw\../lv_core/../lv_misc/lv_area.h ****     lv_coord_t y1;
  42:..\lvgl\lv_draw\../lv_core/../lv_misc/lv_area.h ****     lv_coord_t x2;
  43:..\lvgl\lv_draw\../lv_core/../lv_misc/lv_area.h ****     lv_coord_t y2;
  44:..\lvgl\lv_draw\../lv_core/../lv_misc/lv_area.h **** } lv_area_t;
  45:..\lvgl\lv_draw\../lv_core/../lv_misc/lv_area.h **** 
  46:..\lvgl\lv_draw\../lv_core/../lv_misc/lv_area.h **** /**********************
  47:..\lvgl\lv_draw\../lv_core/../lv_misc/lv_area.h ****  * GLOBAL PROTOTYPES
  48:..\lvgl\lv_draw\../lv_core/../lv_misc/lv_area.h ****  **********************/
  49:..\lvgl\lv_draw\../lv_core/../lv_misc/lv_area.h **** 
  50:..\lvgl\lv_draw\../lv_core/../lv_misc/lv_area.h **** /**
  51:..\lvgl\lv_draw\../lv_core/../lv_misc/lv_area.h ****  * Initialize an area
  52:..\lvgl\lv_draw\../lv_core/../lv_misc/lv_area.h ****  * @param area_p pointer to an area
  53:..\lvgl\lv_draw\../lv_core/../lv_misc/lv_area.h ****  * @param x1 left coordinate of the area
  54:..\lvgl\lv_draw\../lv_core/../lv_misc/lv_area.h ****  * @param y1 top coordinate of the area
  55:..\lvgl\lv_draw\../lv_core/../lv_misc/lv_area.h ****  * @param x2 right coordinate of the area
  56:..\lvgl\lv_draw\../lv_core/../lv_misc/lv_area.h ****  * @param y2 bottom coordinate of the area
  57:..\lvgl\lv_draw\../lv_core/../lv_misc/lv_area.h ****  */
  58:..\lvgl\lv_draw\../lv_core/../lv_misc/lv_area.h **** void lv_area_set(lv_area_t * area_p, lv_coord_t x1, lv_coord_t y1, lv_coord_t x2, lv_coord_t y2);
  59:..\lvgl\lv_draw\../lv_core/../lv_misc/lv_area.h **** 
  60:..\lvgl\lv_draw\../lv_core/../lv_misc/lv_area.h **** /**
  61:..\lvgl\lv_draw\../lv_core/../lv_misc/lv_area.h ****  * Copy an area
  62:..\lvgl\lv_draw\../lv_core/../lv_misc/lv_area.h ****  * @param dest pointer to the destination area
  63:..\lvgl\lv_draw\../lv_core/../lv_misc/lv_area.h ****  * @param src pointer to the source area
  64:..\lvgl\lv_draw\../lv_core/../lv_misc/lv_area.h ****  */
  65:..\lvgl\lv_draw\../lv_core/../lv_misc/lv_area.h **** inline static void lv_area_copy(lv_area_t * dest, const lv_area_t * src)
  66:..\lvgl\lv_draw\../lv_core/../lv_misc/lv_area.h **** {
  67:..\lvgl\lv_draw\../lv_core/../lv_misc/lv_area.h ****     memcpy(dest, src, sizeof(lv_area_t));
  68:..\lvgl\lv_draw\../lv_core/../lv_misc/lv_area.h **** }
  69:..\lvgl\lv_draw\../lv_core/../lv_misc/lv_area.h **** 
  70:..\lvgl\lv_draw\../lv_core/../lv_misc/lv_area.h **** /**
  71:..\lvgl\lv_draw\../lv_core/../lv_misc/lv_area.h ****  * Get the width of an area
  72:..\lvgl\lv_draw\../lv_core/../lv_misc/lv_area.h ****  * @param area_p pointer to an area
  73:..\lvgl\lv_draw\../lv_core/../lv_misc/lv_area.h ****  * @return the width of the area (if x1 == x2 -> width = 1)
  74:..\lvgl\lv_draw\../lv_core/../lv_misc/lv_area.h ****  */
  75:..\lvgl\lv_draw\../lv_core/../lv_misc/lv_area.h **** static inline lv_coord_t lv_area_get_width(const lv_area_t * area_p)
  76:..\lvgl\lv_draw\../lv_core/../lv_misc/lv_area.h **** {
  77:..\lvgl\lv_draw\../lv_core/../lv_misc/lv_area.h ****     return area_p->x2 - area_p->x1 + 1;
 151              		.loc 2 77 0
 152 0020 B0F90430 		ldrsh	r3, [r0, #4]
 153              	.LVL15:
 154 0024 B0F90020 		ldrsh	r2, [r0]
 155              	.LVL16:
 156 0028 9B1A     		subs	r3, r3, r2
 157 002a 0133     		adds	r3, r3, #1
 158 002c 1BB2     		sxth	r3, r3
 159 002e 0893     		str	r3, [sp, #32]
 160              	.LVL17:
 161              	.LBE19:
 162              	.LBE18:
 163 0030 11E0     		b	.L14
 164              	.LVL18:
 165              	.L13:
 166              	.LBB20:
  68:..\lvgl\lv_draw/lv_draw_label.c ****         w = p.x;
 167              		.loc 1 68 0
ARM GAS  C:\Users\d3bug\AppData\Local\Temp\ccO92C5c.s 			page 10


 168 0032 B2F92430 		ldrsh	r3, [r2, #36]
 169              	.LVL19:
 170 0036 CDF808A0 		str	r10, [sp, #8]
 171              	.LVL20:
 172 003a 43F6FF72 		movw	r2, #16383
 173              	.LVL21:
 174 003e 0192     		str	r2, [sp, #4]
 175 0040 B6F92620 		ldrsh	r2, [r6, #38]
 176 0044 0092     		str	r2, [sp]
 177 0046 049A     		ldr	r2, [sp, #16]
 178 0048 4146     		mov	r1, r8
 179              	.LVL22:
 180 004a 0EA8     		add	r0, sp, #56
 181              	.LVL23:
 182 004c FFF7FEFF 		bl	lv_txt_get_size
 183              	.LVL24:
  69:..\lvgl\lv_draw/lv_draw_label.c ****     }
 184              		.loc 1 69 0
 185 0050 BDF93830 		ldrsh	r3, [sp, #56]
 186 0054 0893     		str	r3, [sp, #32]
 187              	.LVL25:
 188              	.L14:
 189              	.LBE20:
 190              	.LBB21:
 191              	.LBB22:
 192              		.file 3 "..\\lvgl\\lv_draw\\../lv_core/../lv_misc/lv_font.h"
   1:..\lvgl\lv_draw\../lv_core/../lv_misc/lv_font.h **** /**
   2:..\lvgl\lv_draw\../lv_core/../lv_misc/lv_font.h ****  * @file lv_font.h
   3:..\lvgl\lv_draw\../lv_core/../lv_misc/lv_font.h ****  *
   4:..\lvgl\lv_draw\../lv_core/../lv_misc/lv_font.h ****  */
   5:..\lvgl\lv_draw\../lv_core/../lv_misc/lv_font.h **** 
   6:..\lvgl\lv_draw\../lv_core/../lv_misc/lv_font.h **** #ifndef LV_FONT_H
   7:..\lvgl\lv_draw\../lv_core/../lv_misc/lv_font.h **** #define LV_FONT_H
   8:..\lvgl\lv_draw\../lv_core/../lv_misc/lv_font.h **** 
   9:..\lvgl\lv_draw\../lv_core/../lv_misc/lv_font.h **** #ifdef __cplusplus
  10:..\lvgl\lv_draw\../lv_core/../lv_misc/lv_font.h **** extern "C" {
  11:..\lvgl\lv_draw\../lv_core/../lv_misc/lv_font.h **** #endif
  12:..\lvgl\lv_draw\../lv_core/../lv_misc/lv_font.h **** 
  13:..\lvgl\lv_draw\../lv_core/../lv_misc/lv_font.h **** 
  14:..\lvgl\lv_draw\../lv_core/../lv_misc/lv_font.h **** /*********************
  15:..\lvgl\lv_draw\../lv_core/../lv_misc/lv_font.h ****  *      INCLUDES
  16:..\lvgl\lv_draw\../lv_core/../lv_misc/lv_font.h ****  *********************/
  17:..\lvgl\lv_draw\../lv_core/../lv_misc/lv_font.h **** #ifdef LV_CONF_INCLUDE_SIMPLE
  18:..\lvgl\lv_draw\../lv_core/../lv_misc/lv_font.h **** #include "lv_conf.h"
  19:..\lvgl\lv_draw\../lv_core/../lv_misc/lv_font.h **** #else
  20:..\lvgl\lv_draw\../lv_core/../lv_misc/lv_font.h **** #include "../../lv_conf.h"
  21:..\lvgl\lv_draw\../lv_core/../lv_misc/lv_font.h **** #endif
  22:..\lvgl\lv_draw\../lv_core/../lv_misc/lv_font.h **** 
  23:..\lvgl\lv_draw\../lv_core/../lv_misc/lv_font.h **** #include <stdint.h>
  24:..\lvgl\lv_draw\../lv_core/../lv_misc/lv_font.h **** #include <stddef.h>
  25:..\lvgl\lv_draw\../lv_core/../lv_misc/lv_font.h **** #include <stdbool.h>
  26:..\lvgl\lv_draw\../lv_core/../lv_misc/lv_font.h **** 
  27:..\lvgl\lv_draw\../lv_core/../lv_misc/lv_font.h **** #include "lv_symbol_def.h"
  28:..\lvgl\lv_draw\../lv_core/../lv_misc/lv_font.h **** 
  29:..\lvgl\lv_draw\../lv_core/../lv_misc/lv_font.h **** /*********************
  30:..\lvgl\lv_draw\../lv_core/../lv_misc/lv_font.h ****  *      DEFINES
  31:..\lvgl\lv_draw\../lv_core/../lv_misc/lv_font.h ****  *********************/
ARM GAS  C:\Users\d3bug\AppData\Local\Temp\ccO92C5c.s 			page 11


  32:..\lvgl\lv_draw\../lv_core/../lv_misc/lv_font.h **** 
  33:..\lvgl\lv_draw\../lv_core/../lv_misc/lv_font.h **** /**********************
  34:..\lvgl\lv_draw\../lv_core/../lv_misc/lv_font.h ****  *      TYPEDEFS
  35:..\lvgl\lv_draw\../lv_core/../lv_misc/lv_font.h ****  **********************/
  36:..\lvgl\lv_draw\../lv_core/../lv_misc/lv_font.h **** 
  37:..\lvgl\lv_draw\../lv_core/../lv_misc/lv_font.h **** typedef struct
  38:..\lvgl\lv_draw\../lv_core/../lv_misc/lv_font.h **** {
  39:..\lvgl\lv_draw\../lv_core/../lv_misc/lv_font.h ****     uint32_t w_px         :8;
  40:..\lvgl\lv_draw\../lv_core/../lv_misc/lv_font.h ****     uint32_t glyph_index  :24;
  41:..\lvgl\lv_draw\../lv_core/../lv_misc/lv_font.h **** } lv_font_glyph_dsc_t;
  42:..\lvgl\lv_draw\../lv_core/../lv_misc/lv_font.h **** 
  43:..\lvgl\lv_draw\../lv_core/../lv_misc/lv_font.h **** typedef struct
  44:..\lvgl\lv_draw\../lv_core/../lv_misc/lv_font.h **** {
  45:..\lvgl\lv_draw\../lv_core/../lv_misc/lv_font.h ****     uint32_t unicode         :21;
  46:..\lvgl\lv_draw\../lv_core/../lv_misc/lv_font.h ****     uint32_t glyph_dsc_index :11;
  47:..\lvgl\lv_draw\../lv_core/../lv_misc/lv_font.h **** } lv_font_unicode_map_t;
  48:..\lvgl\lv_draw\../lv_core/../lv_misc/lv_font.h **** 
  49:..\lvgl\lv_draw\../lv_core/../lv_misc/lv_font.h **** typedef struct _lv_font_struct
  50:..\lvgl\lv_draw\../lv_core/../lv_misc/lv_font.h **** {
  51:..\lvgl\lv_draw\../lv_core/../lv_misc/lv_font.h ****     uint32_t unicode_first;
  52:..\lvgl\lv_draw\../lv_core/../lv_misc/lv_font.h ****     uint32_t unicode_last;
  53:..\lvgl\lv_draw\../lv_core/../lv_misc/lv_font.h ****     const uint8_t * glyph_bitmap;
  54:..\lvgl\lv_draw\../lv_core/../lv_misc/lv_font.h ****     const lv_font_glyph_dsc_t * glyph_dsc;
  55:..\lvgl\lv_draw\../lv_core/../lv_misc/lv_font.h ****     const uint32_t * unicode_list;
  56:..\lvgl\lv_draw\../lv_core/../lv_misc/lv_font.h ****     const uint8_t * (*get_bitmap)(const struct _lv_font_struct *,uint32_t);     /*Get a glyph's  bi
  57:..\lvgl\lv_draw\../lv_core/../lv_misc/lv_font.h ****     int16_t (*get_width)(const struct _lv_font_struct *,uint32_t);        /*Get a glyph's with with
  58:..\lvgl\lv_draw\../lv_core/../lv_misc/lv_font.h ****     struct _lv_font_struct * next_page;    /*Pointer to a font extension*/
  59:..\lvgl\lv_draw\../lv_core/../lv_misc/lv_font.h ****     uint32_t h_px       :8;
  60:..\lvgl\lv_draw\../lv_core/../lv_misc/lv_font.h ****     uint32_t bpp        :4;                /*Bit per pixel: 1, 2 or 4*/
  61:..\lvgl\lv_draw\../lv_core/../lv_misc/lv_font.h ****     uint32_t monospace  :8;                /*Fix width (0: normal width)*/
  62:..\lvgl\lv_draw\../lv_core/../lv_misc/lv_font.h ****     uint16_t glyph_cnt;                    /*Number of glyphs (letters) in the font*/
  63:..\lvgl\lv_draw\../lv_core/../lv_misc/lv_font.h **** } lv_font_t;
  64:..\lvgl\lv_draw\../lv_core/../lv_misc/lv_font.h **** 
  65:..\lvgl\lv_draw\../lv_core/../lv_misc/lv_font.h **** /**********************
  66:..\lvgl\lv_draw\../lv_core/../lv_misc/lv_font.h ****  * GLOBAL PROTOTYPES
  67:..\lvgl\lv_draw\../lv_core/../lv_misc/lv_font.h ****  **********************/
  68:..\lvgl\lv_draw\../lv_core/../lv_misc/lv_font.h **** 
  69:..\lvgl\lv_draw\../lv_core/../lv_misc/lv_font.h **** /**
  70:..\lvgl\lv_draw\../lv_core/../lv_misc/lv_font.h ****  * Initialize the fonts
  71:..\lvgl\lv_draw\../lv_core/../lv_misc/lv_font.h ****  */
  72:..\lvgl\lv_draw\../lv_core/../lv_misc/lv_font.h **** void lv_font_init(void);
  73:..\lvgl\lv_draw\../lv_core/../lv_misc/lv_font.h **** 
  74:..\lvgl\lv_draw\../lv_core/../lv_misc/lv_font.h **** /**
  75:..\lvgl\lv_draw\../lv_core/../lv_misc/lv_font.h ****  * Add a font to an other to extend the character set.
  76:..\lvgl\lv_draw\../lv_core/../lv_misc/lv_font.h ****  * @param child the font to add
  77:..\lvgl\lv_draw\../lv_core/../lv_misc/lv_font.h ****  * @param parent this font will be extended. Using it later will contain the characters from `child
  78:..\lvgl\lv_draw\../lv_core/../lv_misc/lv_font.h ****  */
  79:..\lvgl\lv_draw\../lv_core/../lv_misc/lv_font.h **** void lv_font_add(lv_font_t *child, lv_font_t *parent);
  80:..\lvgl\lv_draw\../lv_core/../lv_misc/lv_font.h **** 
  81:..\lvgl\lv_draw\../lv_core/../lv_misc/lv_font.h **** /**
  82:..\lvgl\lv_draw\../lv_core/../lv_misc/lv_font.h ****  * Remove a font from a character set.
  83:..\lvgl\lv_draw\../lv_core/../lv_misc/lv_font.h ****  * @param child the font to remove
  84:..\lvgl\lv_draw\../lv_core/../lv_misc/lv_font.h ****  * @param parent remove `child` from here
  85:..\lvgl\lv_draw\../lv_core/../lv_misc/lv_font.h ****  */
  86:..\lvgl\lv_draw\../lv_core/../lv_misc/lv_font.h **** void lv_font_remove(lv_font_t * child, lv_font_t * parent);
  87:..\lvgl\lv_draw\../lv_core/../lv_misc/lv_font.h **** 
  88:..\lvgl\lv_draw\../lv_core/../lv_misc/lv_font.h **** /**
ARM GAS  C:\Users\d3bug\AppData\Local\Temp\ccO92C5c.s 			page 12


  89:..\lvgl\lv_draw\../lv_core/../lv_misc/lv_font.h ****  * Tells if font which contains `letter` is monospace or not
  90:..\lvgl\lv_draw\../lv_core/../lv_misc/lv_font.h ****  * @param font_p point to font
  91:..\lvgl\lv_draw\../lv_core/../lv_misc/lv_font.h ****  * @param letter an UNICODE character code
  92:..\lvgl\lv_draw\../lv_core/../lv_misc/lv_font.h ****  * @return true: the letter is monospace; false not monospace
  93:..\lvgl\lv_draw\../lv_core/../lv_misc/lv_font.h ****  */
  94:..\lvgl\lv_draw\../lv_core/../lv_misc/lv_font.h **** bool lv_font_is_monospace(const lv_font_t * font_p, uint32_t letter);
  95:..\lvgl\lv_draw\../lv_core/../lv_misc/lv_font.h **** 
  96:..\lvgl\lv_draw\../lv_core/../lv_misc/lv_font.h **** /**
  97:..\lvgl\lv_draw\../lv_core/../lv_misc/lv_font.h ****  * Return with the bitmap of a font.
  98:..\lvgl\lv_draw\../lv_core/../lv_misc/lv_font.h ****  * @param font_p pointer to a font
  99:..\lvgl\lv_draw\../lv_core/../lv_misc/lv_font.h ****  * @param letter an UNICODE character code
 100:..\lvgl\lv_draw\../lv_core/../lv_misc/lv_font.h ****  * @return  pointer to the bitmap of the letter
 101:..\lvgl\lv_draw\../lv_core/../lv_misc/lv_font.h ****  */
 102:..\lvgl\lv_draw\../lv_core/../lv_misc/lv_font.h **** const uint8_t * lv_font_get_bitmap(const lv_font_t * font_p, uint32_t letter);
 103:..\lvgl\lv_draw\../lv_core/../lv_misc/lv_font.h **** 
 104:..\lvgl\lv_draw\../lv_core/../lv_misc/lv_font.h **** /**
 105:..\lvgl\lv_draw\../lv_core/../lv_misc/lv_font.h ****  * Get the width of a letter in a font. If `monospace` is set then return with it.
 106:..\lvgl\lv_draw\../lv_core/../lv_misc/lv_font.h ****  * @param font_p pointer to a font
 107:..\lvgl\lv_draw\../lv_core/../lv_misc/lv_font.h ****  * @param letter an UNICODE character code
 108:..\lvgl\lv_draw\../lv_core/../lv_misc/lv_font.h ****  * @return the width of a letter
 109:..\lvgl\lv_draw\../lv_core/../lv_misc/lv_font.h ****  */
 110:..\lvgl\lv_draw\../lv_core/../lv_misc/lv_font.h **** uint8_t lv_font_get_width(const lv_font_t * font_p, uint32_t letter);
 111:..\lvgl\lv_draw\../lv_core/../lv_misc/lv_font.h **** 
 112:..\lvgl\lv_draw\../lv_core/../lv_misc/lv_font.h **** 
 113:..\lvgl\lv_draw\../lv_core/../lv_misc/lv_font.h **** /**
 114:..\lvgl\lv_draw\../lv_core/../lv_misc/lv_font.h ****  * Get the width of the letter without overwriting it with the `monospace` attribute
 115:..\lvgl\lv_draw\../lv_core/../lv_misc/lv_font.h ****  * @param font_p pointer to a font
 116:..\lvgl\lv_draw\../lv_core/../lv_misc/lv_font.h ****  * @param letter an UNICODE character code
 117:..\lvgl\lv_draw\../lv_core/../lv_misc/lv_font.h ****  * @return the width of a letter
 118:..\lvgl\lv_draw\../lv_core/../lv_misc/lv_font.h ****  */
 119:..\lvgl\lv_draw\../lv_core/../lv_misc/lv_font.h **** uint8_t lv_font_get_real_width(const lv_font_t * font_p, uint32_t letter);
 120:..\lvgl\lv_draw\../lv_core/../lv_misc/lv_font.h **** 
 121:..\lvgl\lv_draw\../lv_core/../lv_misc/lv_font.h **** /**
 122:..\lvgl\lv_draw\../lv_core/../lv_misc/lv_font.h ****  * Get the height of a font
 123:..\lvgl\lv_draw\../lv_core/../lv_misc/lv_font.h ****  * @param font_p pointer to a font
 124:..\lvgl\lv_draw\../lv_core/../lv_misc/lv_font.h ****  * @return the height of a font
 125:..\lvgl\lv_draw\../lv_core/../lv_misc/lv_font.h ****  */
 126:..\lvgl\lv_draw\../lv_core/../lv_misc/lv_font.h **** static inline uint8_t lv_font_get_height(const lv_font_t * font_p)
 127:..\lvgl\lv_draw\../lv_core/../lv_misc/lv_font.h **** {
 128:..\lvgl\lv_draw\../lv_core/../lv_misc/lv_font.h ****     return font_p->h_px;
 193              		.loc 3 128 0
 194 0056 0499     		ldr	r1, [sp, #16]
 195 0058 91F82020 		ldrb	r2, [r1, #32]	@ zero_extendqisi2
 196              	.LVL26:
 197              	.LBE22:
 198              	.LBE21:
  72:..\lvgl\lv_draw/lv_draw_label.c **** 
 199              		.loc 1 72 0
 200 005c B6F92630 		ldrsh	r3, [r6, #38]
 201 0060 1344     		add	r3, r3, r2
 202 0062 9BB2     		uxth	r3, r3
 203 0064 0A93     		str	r3, [sp, #40]
 204 0066 9B46     		mov	fp, r3
 205 0068 1FB2     		sxth	r7, r3
 206              	.LVL27:
  78:..\lvgl\lv_draw/lv_draw_label.c ****     pos.y = coords->y1;
 207              		.loc 1 78 0
ARM GAS  C:\Users\d3bug\AppData\Local\Temp\ccO92C5c.s 			page 13


 208 006a 0998     		ldr	r0, [sp, #36]
 209 006c B0F90030 		ldrsh	r3, [r0]
 210 0070 ADF84430 		strh	r3, [sp, #68]	@ movhi
  79:..\lvgl\lv_draw/lv_draw_label.c **** 
 211              		.loc 1 79 0
 212 0074 B0F90230 		ldrsh	r3, [r0, #2]
 213 0078 ADF84630 		strh	r3, [sp, #70]	@ movhi
 214              	.LVL28:
  82:..\lvgl\lv_draw/lv_draw_label.c **** 
 215              		.loc 1 82 0
 216 007c B6F92420 		ldrsh	r2, [r6, #36]
 217 0080 CDF800A0 		str	r10, [sp]
 218 0084 089B     		ldr	r3, [sp, #32]
 219 0086 4046     		mov	r0, r8
 220 0088 FFF7FEFF 		bl	lv_txt_get_next_line
 221              	.LVL29:
 222 008c 0546     		mov	r5, r0
 223              	.LVL30:
  81:..\lvgl\lv_draw/lv_draw_label.c ****     uint32_t line_end = lv_txt_get_next_line(txt, font, style->text.letter_space, w, flag);
 224              		.loc 1 81 0
 225 008e 0024     		movs	r4, #0
 226 0090 2146     		mov	r1, r4
 227 0092 5C46     		mov	r4, fp
 228 0094 DDF814B0 		ldr	fp, [sp, #20]
  85:..\lvgl\lv_draw/lv_draw_label.c ****         /*Go to next line*/
 229              		.loc 1 85 0
 230 0098 16E0     		b	.L15
 231              	.LVL31:
 232              	.L17:
  88:..\lvgl\lv_draw/lv_draw_label.c ****         pos.y += line_height;
 233              		.loc 1 88 0
 234 009a B6F92420 		ldrsh	r2, [r6, #36]
 235 009e CDF800A0 		str	r10, [sp]
 236 00a2 089B     		ldr	r3, [sp, #32]
 237 00a4 0499     		ldr	r1, [sp, #16]
 238 00a6 08EB0500 		add	r0, r8, r5
 239 00aa FFF7FEFF 		bl	lv_txt_get_next_line
 240              	.LVL32:
 241 00ae 2844     		add	r0, r0, r5
 242              	.LVL33:
  89:..\lvgl\lv_draw/lv_draw_label.c **** 
 243              		.loc 1 89 0
 244 00b0 BDF84630 		ldrh	r3, [sp, #70]
 245 00b4 2344     		add	r3, r3, r4
 246 00b6 ADF84630 		strh	r3, [sp, #70]	@ movhi
  91:..\lvgl\lv_draw/lv_draw_label.c ****     }
 247              		.loc 1 91 0
 248 00ba 18F80530 		ldrb	r3, [r8, r5]	@ zero_extendqisi2
  87:..\lvgl\lv_draw/lv_draw_label.c ****         line_end += lv_txt_get_next_line(&txt[line_start], font, style->text.letter_space, w, flag)
 249              		.loc 1 87 0
 250 00be 2946     		mov	r1, r5
  91:..\lvgl\lv_draw/lv_draw_label.c ****     }
 251              		.loc 1 91 0
 252 00c0 002B     		cmp	r3, #0
 253 00c2 00F04F81 		beq	.L12
 254              	.LVL34:
  88:..\lvgl\lv_draw/lv_draw_label.c ****         pos.y += line_height;
ARM GAS  C:\Users\d3bug\AppData\Local\Temp\ccO92C5c.s 			page 14


 255              		.loc 1 88 0
 256 00c6 0546     		mov	r5, r0
 257              	.LVL35:
 258              	.L15:
  85:..\lvgl\lv_draw/lv_draw_label.c ****         /*Go to next line*/
 259              		.loc 1 85 0
 260 00c8 BDF94630 		ldrsh	r3, [sp, #70]
 261 00cc 3B44     		add	r3, r3, r7
 262 00ce BBF90220 		ldrsh	r2, [fp, #2]
 263 00d2 9342     		cmp	r3, r2
 264 00d4 E1DB     		blt	.L17
 265 00d6 0C46     		mov	r4, r1
 266 00d8 0AF00403 		and	r3, r10, #4
  95:..\lvgl\lv_draw/lv_draw_label.c ****         line_width = lv_txt_get_width(&txt[line_start], line_end - line_start,
 267              		.loc 1 95 0
 268 00dc 03F0FF02 		and	r2, r3, #255
 269 00e0 0C92     		str	r2, [sp, #48]
 270 00e2 E3B1     		cbz	r3, .L18
  96:..\lvgl\lv_draw/lv_draw_label.c ****                                       font, style->text.letter_space, flag);
 271              		.loc 1 96 0
 272 00e4 691A     		subs	r1, r5, r1
 273              	.LVL36:
 274 00e6 B6F92430 		ldrsh	r3, [r6, #36]
 275 00ea CDF800A0 		str	r10, [sp]
 276 00ee 049A     		ldr	r2, [sp, #16]
 277 00f0 89B2     		uxth	r1, r1
 278 00f2 08EB0400 		add	r0, r8, r4
 279 00f6 FFF7FEFF 		bl	lv_txt_get_width
 280              	.LVL37:
 281              	.LBB23:
 282              	.LBB24:
 283              		.loc 2 77 0
 284 00fa 099A     		ldr	r2, [sp, #36]
 285 00fc B2F90430 		ldrsh	r3, [r2, #4]
 286 0100 B2F90020 		ldrsh	r2, [r2]
 287 0104 9B1A     		subs	r3, r3, r2
 288 0106 0133     		adds	r3, r3, #1
 289 0108 1BB2     		sxth	r3, r3
 290              	.LVL38:
 291              	.LBE24:
 292              	.LBE23:
  99:..\lvgl\lv_draw/lv_draw_label.c **** 
 293              		.loc 1 99 0
 294 010a 181A     		subs	r0, r3, r0
 295              	.LVL39:
 296 010c 00EBD070 		add	r0, r0, r0, lsr #31
 297 0110 BDF84430 		ldrh	r3, [sp, #68]
 298 0114 03EB6000 		add	r0, r3, r0, asr #1
 299 0118 ADF84400 		strh	r0, [sp, #68]	@ movhi
 300 011c 1BE0     		b	.L19
 301              	.LVL40:
 302              	.L18:
 103:..\lvgl\lv_draw/lv_draw_label.c ****         line_width = lv_txt_get_width(&txt[line_start], line_end - line_start,
 303              		.loc 1 103 0
 304 011e 1AF0080F 		tst	r10, #8
 305 0122 18D0     		beq	.L19
 104:..\lvgl\lv_draw/lv_draw_label.c ****                                       font, style->text.letter_space, flag);
ARM GAS  C:\Users\d3bug\AppData\Local\Temp\ccO92C5c.s 			page 15


 306              		.loc 1 104 0
 307 0124 691A     		subs	r1, r5, r1
 308              	.LVL41:
 309 0126 B6F92430 		ldrsh	r3, [r6, #36]
 310 012a CDF800A0 		str	r10, [sp]
 311 012e 049A     		ldr	r2, [sp, #16]
 312 0130 89B2     		uxth	r1, r1
 313 0132 08EB0400 		add	r0, r8, r4
 314 0136 FFF7FEFF 		bl	lv_txt_get_width
 315              	.LVL42:
 316              	.LBB25:
 317              	.LBB26:
 318              		.loc 2 77 0
 319 013a 099A     		ldr	r2, [sp, #36]
 320 013c B2F90430 		ldrsh	r3, [r2, #4]
 321 0140 B2F90020 		ldrsh	r2, [r2]
 322 0144 9B1A     		subs	r3, r3, r2
 323 0146 0133     		adds	r3, r3, #1
 324 0148 1BB2     		sxth	r3, r3
 325              	.LVL43:
 326              	.LBE26:
 327              	.LBE25:
 106:..\lvgl\lv_draw/lv_draw_label.c ****     }
 328              		.loc 1 106 0
 329 014a 181A     		subs	r0, r3, r0
 330              	.LVL44:
 331 014c BDF84420 		ldrh	r2, [sp, #68]
 332 0150 8318     		adds	r3, r0, r2
 333 0152 ADF84430 		strh	r3, [sp, #68]	@ movhi
 334              	.L19:
 110:..\lvgl\lv_draw/lv_draw_label.c **** 
 335              		.loc 1 110 0
 336 0156 B9F1FF0F 		cmp	r9, #255
 337 015a 02D1     		bne	.L20
 110:..\lvgl\lv_draw/lv_draw_label.c **** 
 338              		.loc 1 110 0 is_stmt 0 discriminator 1
 339 015c 96F828B0 		ldrb	fp, [r6, #40]	@ zero_extendqisi2
 340 0160 05E0     		b	.L21
 341              	.L20:
 110:..\lvgl\lv_draw/lv_draw_label.c **** 
 342              		.loc 1 110 0 discriminator 2
 343 0162 96F828B0 		ldrb	fp, [r6, #40]	@ zero_extendqisi2
 344 0166 0BFB09F9 		mul	r9, fp, r9
 345 016a C9F3072B 		ubfx	fp, r9, #8, #8
 346              	.L21:
 347              	.LVL45:
 120:..\lvgl\lv_draw/lv_draw_label.c ****         x_ofs = offset->x;
 348              		.loc 1 120 0 is_stmt 1 discriminator 4
 349 016e 1E9B     		ldr	r3, [sp, #120]
 350 0170 002B     		cmp	r3, #0
 351 0172 00F0ED80 		beq	.L40
 121:..\lvgl\lv_draw/lv_draw_label.c ****         y_ofs = offset->y;
 352              		.loc 1 121 0
 353 0176 B3F90030 		ldrsh	r3, [r3]
 354 017a 0D93     		str	r3, [sp, #52]
 355              	.LVL46:
 122:..\lvgl\lv_draw/lv_draw_label.c ****         pos.y += y_ofs;
ARM GAS  C:\Users\d3bug\AppData\Local\Temp\ccO92C5c.s 			page 16


 356              		.loc 1 122 0
 357 017c 1E9B     		ldr	r3, [sp, #120]
 358 017e B3F90220 		ldrsh	r2, [r3, #2]
 359              	.LVL47:
 123:..\lvgl\lv_draw/lv_draw_label.c ****     }
 360              		.loc 1 123 0
 361 0182 BDF84630 		ldrh	r3, [sp, #70]
 362 0186 1344     		add	r3, r3, r2
 363 0188 ADF84630 		strh	r3, [sp, #70]	@ movhi
 364 018c E2E0     		b	.L22
 365              	.LVL48:
 366              	.L38:
 367              	.LBB27:
 134:..\lvgl\lv_draw/lv_draw_label.c ****             pos.x += x_ofs;
 368              		.loc 1 134 0
 369 018e 1E9B     		ldr	r3, [sp, #120]
 370 0190 2BB1     		cbz	r3, .L23
 135:..\lvgl\lv_draw/lv_draw_label.c ****         }
 371              		.loc 1 135 0
 372 0192 BDF84430 		ldrh	r3, [sp, #68]
 373 0196 0D9A     		ldr	r2, [sp, #52]
 374 0198 1344     		add	r3, r3, r2
 375 019a ADF84430 		strh	r3, [sp, #68]	@ movhi
 376              	.L23:
 377              	.LVL49:
 139:..\lvgl\lv_draw/lv_draw_label.c ****         uint32_t letter;
 378              		.loc 1 139 0
 379 019e 1094     		str	r4, [sp, #64]
 138:..\lvgl\lv_draw/lv_draw_label.c ****         i = line_start;
 380              		.loc 1 138 0
 381 01a0 0027     		movs	r7, #0
 141:..\lvgl\lv_draw/lv_draw_label.c ****             letter = lv_txt_encoded_next(txt, &i);
 382              		.loc 1 141 0
 383 01a2 7AE0     		b	.L24
 384              	.LVL50:
 385              	.L34:
 386              	.LBB28:
 142:..\lvgl\lv_draw/lv_draw_label.c **** 
 387              		.loc 1 142 0
 388 01a4 714B     		ldr	r3, .L44
 389 01a6 1B68     		ldr	r3, [r3]
 390 01a8 10A9     		add	r1, sp, #64
 391 01aa 4046     		mov	r0, r8
 392 01ac 9847     		blx	r3
 393              	.LVL51:
 394 01ae 0446     		mov	r4, r0
 395              	.LVL52:
 145:..\lvgl\lv_draw/lv_draw_label.c ****                 if(letter == (uint32_t)LV_TXT_COLOR_CMD[0]) {
 396              		.loc 1 145 0
 397 01b0 1AF0010F 		tst	r10, #1
 398 01b4 50D0     		beq	.L25
 146:..\lvgl\lv_draw/lv_draw_label.c ****                     if(cmd_state == CMD_STATE_WAIT) { /*Start char*/
 399              		.loc 1 146 0
 400 01b6 2328     		cmp	r0, #35
 401 01b8 0BD1     		bne	.L26
 147:..\lvgl\lv_draw/lv_draw_label.c ****                         par_start = i;
 402              		.loc 1 147 0
ARM GAS  C:\Users\d3bug\AppData\Local\Temp\ccO92C5c.s 			page 17


 403 01ba 27B9     		cbnz	r7, .L27
 148:..\lvgl\lv_draw/lv_draw_label.c ****                         cmd_state = CMD_STATE_PAR;
 404              		.loc 1 148 0
 405 01bc BDF84030 		ldrh	r3, [sp, #64]
 406 01c0 0B93     		str	r3, [sp, #44]
 407              	.LVL53:
 149:..\lvgl\lv_draw/lv_draw_label.c ****                         continue;
 408              		.loc 1 149 0
 409 01c2 0127     		movs	r7, #1
 150:..\lvgl\lv_draw/lv_draw_label.c ****                     } else if(cmd_state == CMD_STATE_PAR) { /*Other start char in parameter escaped
 410              		.loc 1 150 0
 411 01c4 69E0     		b	.L24
 412              	.LVL54:
 413              	.L27:
 151:..\lvgl\lv_draw/lv_draw_label.c ****                         cmd_state = CMD_STATE_WAIT;
 414              		.loc 1 151 0
 415 01c6 012F     		cmp	r7, #1
 416 01c8 02D0     		beq	.L41
 153:..\lvgl\lv_draw/lv_draw_label.c ****                         cmd_state = CMD_STATE_WAIT;
 417              		.loc 1 153 0
 418 01ca 022F     		cmp	r7, #2
 419 01cc 01D1     		bne	.L26
 420 01ce 63E0     		b	.L42
 421              	.L41:
 152:..\lvgl\lv_draw/lv_draw_label.c ****                     } else if(cmd_state == CMD_STATE_IN) { /*Command end */
 422              		.loc 1 152 0
 423 01d0 0027     		movs	r7, #0
 424              	.LVL55:
 425              	.L26:
 160:..\lvgl\lv_draw/lv_draw_label.c ****                     if(letter == ' ') {
 426              		.loc 1 160 0
 427 01d2 012F     		cmp	r7, #1
 428 01d4 40D1     		bne	.L25
 161:..\lvgl\lv_draw/lv_draw_label.c ****                         /*Get the parameter*/
 429              		.loc 1 161 0
 430 01d6 202C     		cmp	r4, #32
 431 01d8 5FD1     		bne	.L24
 163:..\lvgl\lv_draw/lv_draw_label.c ****                             char buf[LABEL_RECOLOR_PAR_LENGTH + 1];
 432              		.loc 1 163 0
 433 01da 109B     		ldr	r3, [sp, #64]
 434 01dc 0B9A     		ldr	r2, [sp, #44]
 435 01de 9B1A     		subs	r3, r3, r2
 436 01e0 072B     		cmp	r3, #7
 437 01e2 32D1     		bne	.L30
 438              	.LBB29:
 165:..\lvgl\lv_draw/lv_draw_label.c ****                             buf[LABEL_RECOLOR_PAR_LENGTH] = '\0';
 439              		.loc 1 165 0
 440 01e4 08EB0203 		add	r3, r8, r2
 441 01e8 1868     		ldr	r0, [r3]	@ unaligned
 442              	.LVL56:
 443 01ea 0E90     		str	r0, [sp, #56]	@ unaligned
 444 01ec 9B88     		ldrh	r3, [r3, #4]	@ unaligned
 445 01ee ADF83C30 		strh	r3, [sp, #60]	@ unaligned
 166:..\lvgl\lv_draw/lv_draw_label.c ****                             int r, g, b;
 446              		.loc 1 166 0
 447 01f2 0023     		movs	r3, #0
 448 01f4 8DF83E30 		strb	r3, [sp, #62]
ARM GAS  C:\Users\d3bug\AppData\Local\Temp\ccO92C5c.s 			page 18


 168:..\lvgl\lv_draw/lv_draw_label.c ****                             g = (hex_char_to_num(buf[2]) << 4) + hex_char_to_num(buf[3]);
 449              		.loc 1 168 0
 450 01f8 9DF83800 		ldrb	r0, [sp, #56]	@ zero_extendqisi2
 451 01fc FFF7FEFF 		bl	hex_char_to_num
 452              	.LVL57:
 453 0200 0501     		lsls	r5, r0, #4
 454 0202 9DF83900 		ldrb	r0, [sp, #57]	@ zero_extendqisi2
 455 0206 FFF7FEFF 		bl	hex_char_to_num
 456              	.LVL58:
 457 020a 0544     		add	r5, r5, r0
 458              	.LVL59:
 169:..\lvgl\lv_draw/lv_draw_label.c ****                             b = (hex_char_to_num(buf[4]) << 4) + hex_char_to_num(buf[5]);
 459              		.loc 1 169 0
 460 020c 9DF83A00 		ldrb	r0, [sp, #58]	@ zero_extendqisi2
 461 0210 FFF7FEFF 		bl	hex_char_to_num
 462              	.LVL60:
 463 0214 0401     		lsls	r4, r0, #4
 464              	.LVL61:
 465 0216 9DF83B00 		ldrb	r0, [sp, #59]	@ zero_extendqisi2
 466 021a FFF7FEFF 		bl	hex_char_to_num
 467              	.LVL62:
 468 021e 0444     		add	r4, r4, r0
 469              	.LVL63:
 170:..\lvgl\lv_draw/lv_draw_label.c ****                             recolor = LV_COLOR_MAKE(r, g, b);
 470              		.loc 1 170 0
 471 0220 9DF83C00 		ldrb	r0, [sp, #60]	@ zero_extendqisi2
 472 0224 FFF7FEFF 		bl	hex_char_to_num
 473              	.LVL64:
 474 0228 0701     		lsls	r7, r0, #4
 475              	.LVL65:
 476 022a 9DF83D00 		ldrb	r0, [sp, #61]	@ zero_extendqisi2
 477 022e FFF7FEFF 		bl	hex_char_to_num
 478              	.LVL66:
 479 0232 3844     		add	r0, r0, r7
 480              	.LVL67:
 171:..\lvgl\lv_draw/lv_draw_label.c ****                         } else {
 481              		.loc 1 171 0
 482 0234 E411     		asrs	r4, r4, #7
 483              	.LVL68:
 484 0236 44EAE013 		orr	r3, r4, r0, asr #7
 485 023a 43EAE513 		orr	r3, r3, r5, asr #7
 486 023e 069A     		ldr	r2, [sp, #24]
 487 0240 63F30002 		bfi	r2, r3, #0, #1
 488 0244 0692     		str	r2, [sp, #24]
 489              	.LBE29:
 175:..\lvgl\lv_draw/lv_draw_label.c ****                     }
 490              		.loc 1 175 0
 491 0246 0227     		movs	r7, #2
 492 0248 27E0     		b	.L24
 493              	.LVL69:
 494              	.L30:
 173:..\lvgl\lv_draw/lv_draw_label.c ****                         }
 495              		.loc 1 173 0
 496 024a 337F     		ldrb	r3, [r6, #28]	@ zero_extendqisi2
 497 024c 069A     		ldr	r2, [sp, #24]
 498 024e 63F30002 		bfi	r2, r3, #0, #1
 499 0252 0692     		str	r2, [sp, #24]
ARM GAS  C:\Users\d3bug\AppData\Local\Temp\ccO92C5c.s 			page 19


 175:..\lvgl\lv_draw/lv_draw_label.c ****                     }
 500              		.loc 1 175 0
 501 0254 0227     		movs	r7, #2
 502              	.LVL70:
 177:..\lvgl\lv_draw/lv_draw_label.c ****                 }
 503              		.loc 1 177 0
 504 0256 20E0     		b	.L24
 505              	.LVL71:
 506              	.L25:
 181:..\lvgl\lv_draw/lv_draw_label.c **** 
 507              		.loc 1 181 0
 508 0258 337F     		ldrb	r3, [r6, #28]	@ zero_extendqisi2
 183:..\lvgl\lv_draw/lv_draw_label.c **** 
 509              		.loc 1 183 0
 510 025a 022F     		cmp	r7, #2
 511 025c 01D1     		bne	.L31
 183:..\lvgl\lv_draw/lv_draw_label.c **** 
 512              		.loc 1 183 0 is_stmt 0 discriminator 1
 513 025e 9DF81830 		ldrb	r3, [sp, #24]	@ zero_extendqisi2
 514              	.L31:
 185:..\lvgl\lv_draw/lv_draw_label.c ****             letter_w = lv_font_get_width(font, letter);
 515              		.loc 1 185 0 is_stmt 1
 516 0262 CDF804B0 		str	fp, [sp, #4]
 517              	.LVL72:
 518 0266 8DF80030 		strb	r3, [sp]
 519 026a 414B     		ldr	r3, .L44+4
 520              	.LVL73:
 521 026c 1D68     		ldr	r5, [r3]
 522 026e 2346     		mov	r3, r4
 523 0270 049A     		ldr	r2, [sp, #16]
 524 0272 0599     		ldr	r1, [sp, #20]
 525 0274 11A8     		add	r0, sp, #68
 526              	.LVL74:
 527 0276 A847     		blx	r5
 528              	.LVL75:
 186:..\lvgl\lv_draw/lv_draw_label.c **** 
 529              		.loc 1 186 0
 530 0278 2146     		mov	r1, r4
 531 027a 0498     		ldr	r0, [sp, #16]
 532 027c FFF7FEFF 		bl	lv_font_get_width
 533              	.LVL76:
 534 0280 03B2     		sxth	r3, r0
 535              	.LVL77:
 188:..\lvgl\lv_draw/lv_draw_label.c ****                 pos.x += letter_w + style->text.letter_space;
 536              		.loc 1 188 0
 537 0282 002B     		cmp	r3, #0
 538 0284 09DD     		ble	.L24
 189:..\lvgl\lv_draw/lv_draw_label.c ****             }
 539              		.loc 1 189 0
 540 0286 B6F92430 		ldrsh	r3, [r6, #36]
 541              	.LVL78:
 542 028a 1844     		add	r0, r0, r3
 543              	.LVL79:
 544 028c BDF84430 		ldrh	r3, [sp, #68]
 545 0290 1844     		add	r0, r0, r3
 546 0292 ADF84400 		strh	r0, [sp, #68]	@ movhi
 547 0296 00E0     		b	.L24
ARM GAS  C:\Users\d3bug\AppData\Local\Temp\ccO92C5c.s 			page 20


 548              	.LVL80:
 549              	.L42:
 154:..\lvgl\lv_draw/lv_draw_label.c ****                         continue;
 550              		.loc 1 154 0
 551 0298 0027     		movs	r7, #0
 552              	.LVL81:
 553              	.L24:
 554              	.LBE28:
 141:..\lvgl\lv_draw/lv_draw_label.c ****             letter = lv_txt_encoded_next(txt, &i);
 555              		.loc 1 141 0
 556 029a 109B     		ldr	r3, [sp, #64]
 557 029c 9945     		cmp	r9, r3
 558 029e 81D8     		bhi	.L34
 559              	.LVL82:
 194:..\lvgl\lv_draw/lv_draw_label.c **** 
 560              		.loc 1 194 0
 561 02a0 08EB0904 		add	r4, r8, r9
 562 02a4 B6F92420 		ldrsh	r2, [r6, #36]
 563 02a8 CDF800A0 		str	r10, [sp]
 564 02ac 089B     		ldr	r3, [sp, #32]
 565 02ae 0499     		ldr	r1, [sp, #16]
 566 02b0 2046     		mov	r0, r4
 567 02b2 FFF7FEFF 		bl	lv_txt_get_next_line
 568              	.LVL83:
 569 02b6 00EB0905 		add	r5, r0, r9
 570              	.LVL84:
 196:..\lvgl\lv_draw/lv_draw_label.c ****         /*Align to middle*/
 571              		.loc 1 196 0
 572 02ba 099B     		ldr	r3, [sp, #36]
 573 02bc B3F90030 		ldrsh	r3, [r3]
 574 02c0 ADF84430 		strh	r3, [sp, #68]	@ movhi
 198:..\lvgl\lv_draw/lv_draw_label.c ****             line_width = lv_txt_get_width(&txt[line_start], line_end - line_start,
 575              		.loc 1 198 0
 576 02c4 0C9B     		ldr	r3, [sp, #48]
 577 02c6 D3B1     		cbz	r3, .L35
 199:..\lvgl\lv_draw/lv_draw_label.c ****                                           font, style->text.letter_space, flag);
 578              		.loc 1 199 0
 579 02c8 B6F92430 		ldrsh	r3, [r6, #36]
 580 02cc CDF800A0 		str	r10, [sp]
 581 02d0 049A     		ldr	r2, [sp, #16]
 582 02d2 0146     		mov	r1, r0
 583 02d4 2046     		mov	r0, r4
 584 02d6 FFF7FEFF 		bl	lv_txt_get_width
 585              	.LVL85:
 586              	.LBB30:
 587              	.LBB31:
 588              		.loc 2 77 0
 589 02da 099A     		ldr	r2, [sp, #36]
 590 02dc B2F90430 		ldrsh	r3, [r2, #4]
 591 02e0 B2F90020 		ldrsh	r2, [r2]
 592 02e4 9B1A     		subs	r3, r3, r2
 593 02e6 0133     		adds	r3, r3, #1
 594 02e8 1BB2     		sxth	r3, r3
 595              	.LVL86:
 596              	.LBE31:
 597              	.LBE30:
 202:..\lvgl\lv_draw/lv_draw_label.c **** 
ARM GAS  C:\Users\d3bug\AppData\Local\Temp\ccO92C5c.s 			page 21


 598              		.loc 1 202 0
 599 02ea 181A     		subs	r0, r3, r0
 600              	.LVL87:
 601 02ec 00EBD070 		add	r0, r0, r0, lsr #31
 602 02f0 BDF84430 		ldrh	r3, [sp, #68]
 603 02f4 03EB6000 		add	r0, r3, r0, asr #1
 604 02f8 ADF84400 		strh	r0, [sp, #68]	@ movhi
 605 02fc 19E0     		b	.L36
 606              	.L35:
 206:..\lvgl\lv_draw/lv_draw_label.c ****             line_width = lv_txt_get_width(&txt[line_start], line_end - line_start,
 607              		.loc 1 206 0
 608 02fe 1AF0080F 		tst	r10, #8
 609 0302 16D0     		beq	.L36
 207:..\lvgl\lv_draw/lv_draw_label.c ****                                           font, style->text.letter_space, flag);
 610              		.loc 1 207 0
 611 0304 B6F92430 		ldrsh	r3, [r6, #36]
 612 0308 CDF800A0 		str	r10, [sp]
 613 030c 049A     		ldr	r2, [sp, #16]
 614 030e 0146     		mov	r1, r0
 615 0310 2046     		mov	r0, r4
 616 0312 FFF7FEFF 		bl	lv_txt_get_width
 617              	.LVL88:
 618              	.LBB32:
 619              	.LBB33:
 620              		.loc 2 77 0
 621 0316 099A     		ldr	r2, [sp, #36]
 622 0318 B2F90430 		ldrsh	r3, [r2, #4]
 623 031c B2F90020 		ldrsh	r2, [r2]
 624 0320 9B1A     		subs	r3, r3, r2
 625 0322 0133     		adds	r3, r3, #1
 626 0324 1BB2     		sxth	r3, r3
 627              	.LVL89:
 628              	.LBE33:
 629              	.LBE32:
 209:..\lvgl\lv_draw/lv_draw_label.c ****         }
 630              		.loc 1 209 0
 631 0326 181A     		subs	r0, r3, r0
 632              	.LVL90:
 633 0328 BDF84430 		ldrh	r3, [sp, #68]
 634 032c 0344     		add	r3, r3, r0
 635 032e ADF84430 		strh	r3, [sp, #68]	@ movhi
 636              	.L36:
 213:..\lvgl\lv_draw/lv_draw_label.c **** 
 637              		.loc 1 213 0
 638 0332 BDF84630 		ldrh	r3, [sp, #70]
 639 0336 0A9A     		ldr	r2, [sp, #40]
 640 0338 1344     		add	r3, r3, r2
 641 033a 1BB2     		sxth	r3, r3
 642 033c ADF84630 		strh	r3, [sp, #70]	@ movhi
 215:..\lvgl\lv_draw/lv_draw_label.c ****     }
 643              		.loc 1 215 0
 644 0340 059A     		ldr	r2, [sp, #20]
 645 0342 B2F90620 		ldrsh	r2, [r2, #6]
 193:..\lvgl\lv_draw/lv_draw_label.c ****         line_end += lv_txt_get_next_line(&txt[line_start], font, style->text.letter_space, w, flag)
 646              		.loc 1 193 0
 647 0346 4C46     		mov	r4, r9
 215:..\lvgl\lv_draw/lv_draw_label.c ****     }
ARM GAS  C:\Users\d3bug\AppData\Local\Temp\ccO92C5c.s 			page 22


 648              		.loc 1 215 0
 649 0348 9342     		cmp	r3, r2
 650 034a 0BDC     		bgt	.L12
 651              	.LVL91:
 194:..\lvgl\lv_draw/lv_draw_label.c **** 
 652              		.loc 1 194 0
 653 034c A946     		mov	r9, r5
 654 034e 04E0     		b	.L37
 655              	.LVL92:
 656              	.L40:
 657              	.LBE27:
 118:..\lvgl\lv_draw/lv_draw_label.c ****     lv_coord_t y_ofs = 0;
 658              		.loc 1 118 0
 659 0350 0023     		movs	r3, #0
 660 0352 0D93     		str	r3, [sp, #52]
 661              	.LVL93:
 662              	.L22:
 663 0354 0023     		movs	r3, #0
 664 0356 0B93     		str	r3, [sp, #44]
 665 0358 A946     		mov	r9, r5
 666              	.LVL94:
 667              	.L37:
 133:..\lvgl\lv_draw/lv_draw_label.c ****         if(offset != NULL) {
 668              		.loc 1 133 0
 669 035a 18F80430 		ldrb	r3, [r8, r4]	@ zero_extendqisi2
 670 035e 002B     		cmp	r3, #0
 671 0360 7FF415AF 		bne	.L38
 672              	.LVL95:
 673              	.L12:
 217:..\lvgl\lv_draw/lv_draw_label.c **** 
 674              		.loc 1 217 0
 675 0364 13B0     		add	sp, sp, #76
 676              		.cfi_def_cfa_offset 36
 677              		@ sp needed
 678 0366 BDE8F08F 		pop	{r4, r5, r6, r7, r8, r9, r10, fp, pc}
 679              	.LVL96:
 680              	.L45:
 681 036a 00BF     		.align	2
 682              	.L44:
 683 036c 00000000 		.word	lv_txt_encoded_next
 684 0370 00000000 		.word	letter_fp
 685              		.cfi_endproc
 686              	.LFE12:
 687              		.size	lv_draw_label, .-lv_draw_label
 688              		.text
 689              	.Letext0:
 690              		.file 4 "c:\\program files (x86)\\cypress\\psoc creator\\4.2\\psoc creator\\import\\gnu\\arm\\5.4.
 691              		.file 5 "c:\\program files (x86)\\cypress\\psoc creator\\4.2\\psoc creator\\import\\gnu\\arm\\5.4.
 692              		.file 6 "..\\lvgl\\lv_draw\\../lv_core/../lv_misc/lv_color.h"
 693              		.file 7 "..\\lvgl\\lv_draw\\../lv_core/lv_style.h"
 694              		.file 8 "..\\lvgl\\lv_draw\\../lv_misc/lv_txt.h"
 695              		.file 9 "..\\lvgl\\lv_draw\\lv_draw.h"