ARM GAS  C:\Users\d3bug\AppData\Local\Temp\cc5D6foa.s 			page 1


   1              		.syntax unified
   2              		.cpu cortex-m3
   3              		.fpu softvfp
   4              		.eabi_attribute 20, 1
   5              		.eabi_attribute 21, 1
   6              		.eabi_attribute 23, 3
   7              		.eabi_attribute 24, 1
   8              		.eabi_attribute 25, 1
   9              		.eabi_attribute 26, 1
  10              		.eabi_attribute 30, 1
  11              		.eabi_attribute 34, 1
  12              		.eabi_attribute 18, 4
  13              		.thumb
  14              		.syntax unified
  15              		.file	"lv_draw_vbasic.c"
  16              		.text
  17              	.Ltext0:
  18              		.cfi_sections	.debug_frame
  19              		.section	.text.sw_color_fill,"ax",%progbits
  20              		.align	2
  21              		.thumb
  22              		.thumb_func
  23              		.type	sw_color_fill, %function
  24              	sw_color_fill:
  25              	.LFB17:
  26              		.file 1 "..\\lvgl\\lv_draw\\lv_draw_vbasic.c"
   1:..\lvgl\lv_draw/lv_draw_vbasic.c **** /**
   2:..\lvgl\lv_draw/lv_draw_vbasic.c ****  * @file lv_vdraw.c
   3:..\lvgl\lv_draw/lv_draw_vbasic.c ****  *
   4:..\lvgl\lv_draw/lv_draw_vbasic.c ****  */
   5:..\lvgl\lv_draw/lv_draw_vbasic.c **** 
   6:..\lvgl\lv_draw/lv_draw_vbasic.c **** #include "lv_draw_vbasic.h"
   7:..\lvgl\lv_draw/lv_draw_vbasic.c **** 
   8:..\lvgl\lv_draw/lv_draw_vbasic.c **** #include <stdbool.h>
   9:..\lvgl\lv_draw/lv_draw_vbasic.c **** #include <stdint.h>
  10:..\lvgl\lv_draw/lv_draw_vbasic.c **** #include <string.h>
  11:..\lvgl\lv_draw/lv_draw_vbasic.c **** 
  12:..\lvgl\lv_draw/lv_draw_vbasic.c **** #include "../lv_hal/lv_hal_disp.h"
  13:..\lvgl\lv_draw/lv_draw_vbasic.c **** #include "../lv_misc/lv_area.h"
  14:..\lvgl\lv_draw/lv_draw_vbasic.c **** #include "../lv_misc/lv_font.h"
  15:..\lvgl\lv_draw/lv_draw_vbasic.c **** #include "../lv_misc/lv_color.h"
  16:..\lvgl\lv_draw/lv_draw_vbasic.c **** #include "../lv_misc/lv_log.h"
  17:..\lvgl\lv_draw/lv_draw_vbasic.c **** 
  18:..\lvgl\lv_draw/lv_draw_vbasic.c **** #if LV_VDB_SIZE != 0
  19:..\lvgl\lv_draw/lv_draw_vbasic.c **** 
  20:..\lvgl\lv_draw/lv_draw_vbasic.c **** #include <stddef.h>
  21:..\lvgl\lv_draw/lv_draw_vbasic.c **** #include "../lv_core/lv_vdb.h"
  22:..\lvgl\lv_draw/lv_draw_vbasic.c **** #include "lv_draw.h"
  23:..\lvgl\lv_draw/lv_draw_vbasic.c **** 
  24:..\lvgl\lv_draw/lv_draw_vbasic.c **** /*********************
  25:..\lvgl\lv_draw/lv_draw_vbasic.c ****  *      INCLUDES
  26:..\lvgl\lv_draw/lv_draw_vbasic.c ****  *********************/
  27:..\lvgl\lv_draw/lv_draw_vbasic.c **** 
  28:..\lvgl\lv_draw/lv_draw_vbasic.c **** /*********************
  29:..\lvgl\lv_draw/lv_draw_vbasic.c ****  *      DEFINES
  30:..\lvgl\lv_draw/lv_draw_vbasic.c ****  *********************/
  31:..\lvgl\lv_draw/lv_draw_vbasic.c **** #define VFILL_HW_ACC_SIZE_LIMIT    50      /*Always fill < 50 px with 'sw_color_fill' because of th
ARM GAS  C:\Users\d3bug\AppData\Local\Temp\cc5D6foa.s 			page 2


  32:..\lvgl\lv_draw/lv_draw_vbasic.c **** 
  33:..\lvgl\lv_draw/lv_draw_vbasic.c **** /**********************
  34:..\lvgl\lv_draw/lv_draw_vbasic.c ****  *      TYPEDEFS
  35:..\lvgl\lv_draw/lv_draw_vbasic.c ****  **********************/
  36:..\lvgl\lv_draw/lv_draw_vbasic.c **** 
  37:..\lvgl\lv_draw/lv_draw_vbasic.c **** /**********************
  38:..\lvgl\lv_draw/lv_draw_vbasic.c ****  *  STATIC PROTOTYPES
  39:..\lvgl\lv_draw/lv_draw_vbasic.c ****  **********************/
  40:..\lvgl\lv_draw/lv_draw_vbasic.c **** static void sw_mem_blend(lv_color_t * dest, const lv_color_t * src, uint32_t length, lv_opa_t opa);
  41:..\lvgl\lv_draw/lv_draw_vbasic.c **** static void sw_color_fill(lv_area_t * mem_area, lv_color_t * mem, const lv_area_t * fill_area, lv_c
  42:..\lvgl\lv_draw/lv_draw_vbasic.c **** 
  43:..\lvgl\lv_draw/lv_draw_vbasic.c **** #if LV_COLOR_SCREEN_TRANSP
  44:..\lvgl\lv_draw/lv_draw_vbasic.c **** static inline lv_color_t color_mix_2_alpha(lv_color_t bg_color, lv_opa_t bg_opa, lv_color_t fg_colo
  45:..\lvgl\lv_draw/lv_draw_vbasic.c **** #endif
  46:..\lvgl\lv_draw/lv_draw_vbasic.c **** 
  47:..\lvgl\lv_draw/lv_draw_vbasic.c **** /**********************
  48:..\lvgl\lv_draw/lv_draw_vbasic.c ****  *  STATIC VARIABLES
  49:..\lvgl\lv_draw/lv_draw_vbasic.c ****  **********************/
  50:..\lvgl\lv_draw/lv_draw_vbasic.c **** 
  51:..\lvgl\lv_draw/lv_draw_vbasic.c **** /**********************
  52:..\lvgl\lv_draw/lv_draw_vbasic.c ****  *      MACROS
  53:..\lvgl\lv_draw/lv_draw_vbasic.c ****  **********************/
  54:..\lvgl\lv_draw/lv_draw_vbasic.c **** 
  55:..\lvgl\lv_draw/lv_draw_vbasic.c **** /**********************
  56:..\lvgl\lv_draw/lv_draw_vbasic.c ****  *   GLOBAL FUNCTIONS
  57:..\lvgl\lv_draw/lv_draw_vbasic.c ****  **********************/
  58:..\lvgl\lv_draw/lv_draw_vbasic.c **** 
  59:..\lvgl\lv_draw/lv_draw_vbasic.c **** /**
  60:..\lvgl\lv_draw/lv_draw_vbasic.c ****  * Put a pixel in the Virtual Display Buffer
  61:..\lvgl\lv_draw/lv_draw_vbasic.c ****  * @param x pixel x coordinate
  62:..\lvgl\lv_draw/lv_draw_vbasic.c ****  * @param y pixel y coordinate
  63:..\lvgl\lv_draw/lv_draw_vbasic.c ****  * @param mask_p fill only on this mask (truncated to VDB area)
  64:..\lvgl\lv_draw/lv_draw_vbasic.c ****  * @param color pixel color
  65:..\lvgl\lv_draw/lv_draw_vbasic.c ****  * @param opa opacity of the area (0..255)
  66:..\lvgl\lv_draw/lv_draw_vbasic.c ****  */
  67:..\lvgl\lv_draw/lv_draw_vbasic.c **** void lv_vpx(lv_coord_t x, lv_coord_t y, const lv_area_t * mask_p, lv_color_t color, lv_opa_t opa)
  68:..\lvgl\lv_draw/lv_draw_vbasic.c **** {
  69:..\lvgl\lv_draw/lv_draw_vbasic.c ****     if(opa < LV_OPA_MIN) return;
  70:..\lvgl\lv_draw/lv_draw_vbasic.c ****     if(opa > LV_OPA_MAX) opa = LV_OPA_COVER;
  71:..\lvgl\lv_draw/lv_draw_vbasic.c **** 
  72:..\lvgl\lv_draw/lv_draw_vbasic.c ****     lv_vdb_t * vdb_p = lv_vdb_get();
  73:..\lvgl\lv_draw/lv_draw_vbasic.c ****     if(!vdb_p) {
  74:..\lvgl\lv_draw/lv_draw_vbasic.c ****         LV_LOG_WARN("Invalid VDB pointer");
  75:..\lvgl\lv_draw/lv_draw_vbasic.c ****         return;
  76:..\lvgl\lv_draw/lv_draw_vbasic.c ****     }
  77:..\lvgl\lv_draw/lv_draw_vbasic.c **** 
  78:..\lvgl\lv_draw/lv_draw_vbasic.c ****     /*Pixel out of the mask*/
  79:..\lvgl\lv_draw/lv_draw_vbasic.c ****     if(x < mask_p->x1 || x > mask_p->x2 ||
  80:..\lvgl\lv_draw/lv_draw_vbasic.c ****             y < mask_p->y1 || y > mask_p->y2) {
  81:..\lvgl\lv_draw/lv_draw_vbasic.c ****         return;
  82:..\lvgl\lv_draw/lv_draw_vbasic.c ****     }
  83:..\lvgl\lv_draw/lv_draw_vbasic.c **** 
  84:..\lvgl\lv_draw/lv_draw_vbasic.c ****     uint32_t vdb_width = lv_area_get_width(&vdb_p->area);
  85:..\lvgl\lv_draw/lv_draw_vbasic.c **** 
  86:..\lvgl\lv_draw/lv_draw_vbasic.c ****     /*Make the coordinates relative to VDB*/
  87:..\lvgl\lv_draw/lv_draw_vbasic.c ****     x -= vdb_p->area.x1;
  88:..\lvgl\lv_draw/lv_draw_vbasic.c ****     y -= vdb_p->area.y1;
ARM GAS  C:\Users\d3bug\AppData\Local\Temp\cc5D6foa.s 			page 3


  89:..\lvgl\lv_draw/lv_draw_vbasic.c **** 
  90:..\lvgl\lv_draw/lv_draw_vbasic.c ****     lv_disp_t * disp = lv_disp_get_active();
  91:..\lvgl\lv_draw/lv_draw_vbasic.c ****     if(disp->driver.vdb_wr) {
  92:..\lvgl\lv_draw/lv_draw_vbasic.c ****         disp->driver.vdb_wr((uint8_t *)vdb_p->buf, vdb_width, x, y, color, opa);
  93:..\lvgl\lv_draw/lv_draw_vbasic.c ****     } else {
  94:..\lvgl\lv_draw/lv_draw_vbasic.c ****         lv_color_t * vdb_px_p = vdb_p->buf + y * vdb_width + x;
  95:..\lvgl\lv_draw/lv_draw_vbasic.c **** #if LV_COLOR_SCREEN_TRANSP == 0
  96:..\lvgl\lv_draw/lv_draw_vbasic.c ****         if(opa == LV_OPA_COVER) {
  97:..\lvgl\lv_draw/lv_draw_vbasic.c ****             *vdb_px_p = color;
  98:..\lvgl\lv_draw/lv_draw_vbasic.c ****         } else {
  99:..\lvgl\lv_draw/lv_draw_vbasic.c ****             *vdb_px_p = lv_color_mix(color, *vdb_px_p, opa);
 100:..\lvgl\lv_draw/lv_draw_vbasic.c ****         }
 101:..\lvgl\lv_draw/lv_draw_vbasic.c **** #else
 102:..\lvgl\lv_draw/lv_draw_vbasic.c ****         *vdb_px_p = color_mix_2_alpha(*vdb_px_p, (*vdb_px_p).alpha, color, opa);
 103:..\lvgl\lv_draw/lv_draw_vbasic.c **** #endif
 104:..\lvgl\lv_draw/lv_draw_vbasic.c ****     }
 105:..\lvgl\lv_draw/lv_draw_vbasic.c **** }
 106:..\lvgl\lv_draw/lv_draw_vbasic.c **** 
 107:..\lvgl\lv_draw/lv_draw_vbasic.c **** 
 108:..\lvgl\lv_draw/lv_draw_vbasic.c **** /**
 109:..\lvgl\lv_draw/lv_draw_vbasic.c ****  * Fill an area in the Virtual Display Buffer
 110:..\lvgl\lv_draw/lv_draw_vbasic.c ****  * @param cords_p coordinates of the area to fill
 111:..\lvgl\lv_draw/lv_draw_vbasic.c ****  * @param mask_p fill only o this mask  (truncated to VDB area)
 112:..\lvgl\lv_draw/lv_draw_vbasic.c ****  * @param color fill color
 113:..\lvgl\lv_draw/lv_draw_vbasic.c ****  * @param opa opacity of the area (0..255)
 114:..\lvgl\lv_draw/lv_draw_vbasic.c ****  */
 115:..\lvgl\lv_draw/lv_draw_vbasic.c **** void lv_vfill(const lv_area_t * cords_p, const lv_area_t * mask_p,
 116:..\lvgl\lv_draw/lv_draw_vbasic.c ****               lv_color_t color, lv_opa_t opa)
 117:..\lvgl\lv_draw/lv_draw_vbasic.c **** {
 118:..\lvgl\lv_draw/lv_draw_vbasic.c ****     if(opa < LV_OPA_MIN) return;
 119:..\lvgl\lv_draw/lv_draw_vbasic.c ****     if(opa > LV_OPA_MAX) opa = LV_OPA_COVER;
 120:..\lvgl\lv_draw/lv_draw_vbasic.c **** 
 121:..\lvgl\lv_draw/lv_draw_vbasic.c ****     lv_area_t res_a;
 122:..\lvgl\lv_draw/lv_draw_vbasic.c ****     bool union_ok;
 123:..\lvgl\lv_draw/lv_draw_vbasic.c ****     lv_vdb_t * vdb_p = lv_vdb_get();
 124:..\lvgl\lv_draw/lv_draw_vbasic.c ****     if(!vdb_p) {
 125:..\lvgl\lv_draw/lv_draw_vbasic.c ****         LV_LOG_WARN("Invalid VDB pointer");
 126:..\lvgl\lv_draw/lv_draw_vbasic.c ****         return;
 127:..\lvgl\lv_draw/lv_draw_vbasic.c ****     }
 128:..\lvgl\lv_draw/lv_draw_vbasic.c **** 
 129:..\lvgl\lv_draw/lv_draw_vbasic.c ****     /*Get the union of cord and mask*/
 130:..\lvgl\lv_draw/lv_draw_vbasic.c ****     /* The mask is already truncated to the vdb size
 131:..\lvgl\lv_draw/lv_draw_vbasic.c ****      * in 'lv_refr_area_with_vdb' function */
 132:..\lvgl\lv_draw/lv_draw_vbasic.c ****     union_ok = lv_area_intersect(&res_a, cords_p, mask_p);
 133:..\lvgl\lv_draw/lv_draw_vbasic.c **** 
 134:..\lvgl\lv_draw/lv_draw_vbasic.c ****     /*If there are common part of the three area then draw to the vdb*/
 135:..\lvgl\lv_draw/lv_draw_vbasic.c ****     if(union_ok == false) return;
 136:..\lvgl\lv_draw/lv_draw_vbasic.c **** 
 137:..\lvgl\lv_draw/lv_draw_vbasic.c ****     lv_area_t vdb_rel_a;   /*Stores relative coordinates on vdb*/
 138:..\lvgl\lv_draw/lv_draw_vbasic.c ****     vdb_rel_a.x1 = res_a.x1 - vdb_p->area.x1;
 139:..\lvgl\lv_draw/lv_draw_vbasic.c ****     vdb_rel_a.y1 = res_a.y1 - vdb_p->area.y1;
 140:..\lvgl\lv_draw/lv_draw_vbasic.c ****     vdb_rel_a.x2 = res_a.x2 - vdb_p->area.x1;
 141:..\lvgl\lv_draw/lv_draw_vbasic.c ****     vdb_rel_a.y2 = res_a.y2 - vdb_p->area.y1;
 142:..\lvgl\lv_draw/lv_draw_vbasic.c **** 
 143:..\lvgl\lv_draw/lv_draw_vbasic.c ****     lv_color_t * vdb_buf_tmp = vdb_p->buf;
 144:..\lvgl\lv_draw/lv_draw_vbasic.c ****     uint32_t vdb_width = lv_area_get_width(&vdb_p->area);
 145:..\lvgl\lv_draw/lv_draw_vbasic.c ****     /*Move the vdb_tmp to the first row*/
ARM GAS  C:\Users\d3bug\AppData\Local\Temp\cc5D6foa.s 			page 4


 146:..\lvgl\lv_draw/lv_draw_vbasic.c ****     vdb_buf_tmp += vdb_width * vdb_rel_a.y1;
 147:..\lvgl\lv_draw/lv_draw_vbasic.c **** 
 148:..\lvgl\lv_draw/lv_draw_vbasic.c **** 
 149:..\lvgl\lv_draw/lv_draw_vbasic.c **** #if USE_LV_GPU
 150:..\lvgl\lv_draw/lv_draw_vbasic.c ****     static lv_color_t color_array_tmp[LV_HOR_RES];       /*Used by 'lv_disp_mem_blend'*/
 151:..\lvgl\lv_draw/lv_draw_vbasic.c ****     static lv_coord_t last_width = -1;
 152:..\lvgl\lv_draw/lv_draw_vbasic.c **** 
 153:..\lvgl\lv_draw/lv_draw_vbasic.c ****     lv_coord_t w = lv_area_get_width(&vdb_rel_a);
 154:..\lvgl\lv_draw/lv_draw_vbasic.c ****     /*Don't use hw. acc. for every small fill (because of the init overhead)*/
 155:..\lvgl\lv_draw/lv_draw_vbasic.c ****     if(w < VFILL_HW_ACC_SIZE_LIMIT) {
 156:..\lvgl\lv_draw/lv_draw_vbasic.c ****         sw_color_fill(&vdb_p->area, vdb_p->buf, &vdb_rel_a, color, opa);
 157:..\lvgl\lv_draw/lv_draw_vbasic.c ****     }
 158:..\lvgl\lv_draw/lv_draw_vbasic.c ****     /*Not opaque fill*/
 159:..\lvgl\lv_draw/lv_draw_vbasic.c ****     else if(opa == LV_OPA_COVER) {
 160:..\lvgl\lv_draw/lv_draw_vbasic.c ****         /*Use hw fill if present*/
 161:..\lvgl\lv_draw/lv_draw_vbasic.c ****         if(lv_disp_is_mem_fill_supported()) {
 162:..\lvgl\lv_draw/lv_draw_vbasic.c ****             lv_coord_t row;
 163:..\lvgl\lv_draw/lv_draw_vbasic.c ****             for(row = vdb_rel_a.y1; row <= vdb_rel_a.y2; row++) {
 164:..\lvgl\lv_draw/lv_draw_vbasic.c ****                 lv_disp_mem_fill(&vdb_buf_tmp[vdb_rel_a.x1], w, color);
 165:..\lvgl\lv_draw/lv_draw_vbasic.c ****                 vdb_buf_tmp += vdb_width;
 166:..\lvgl\lv_draw/lv_draw_vbasic.c ****             }
 167:..\lvgl\lv_draw/lv_draw_vbasic.c ****         }
 168:..\lvgl\lv_draw/lv_draw_vbasic.c ****         /*Use hw blend if present and the area is not too small*/
 169:..\lvgl\lv_draw/lv_draw_vbasic.c ****         else if(lv_area_get_height(&vdb_rel_a) > VFILL_HW_ACC_SIZE_LIMIT &&
 170:..\lvgl\lv_draw/lv_draw_vbasic.c ****                 lv_disp_is_mem_blend_supported()) {
 171:..\lvgl\lv_draw/lv_draw_vbasic.c ****             /*Fill a  one line sized buffer with a color and blend this later*/
 172:..\lvgl\lv_draw/lv_draw_vbasic.c ****             if(color_array_tmp[0].full != color.full || last_width != w) {
 173:..\lvgl\lv_draw/lv_draw_vbasic.c ****                 uint16_t i;
 174:..\lvgl\lv_draw/lv_draw_vbasic.c ****                 for(i = 0; i < w; i++) {
 175:..\lvgl\lv_draw/lv_draw_vbasic.c ****                     color_array_tmp[i].full = color.full;
 176:..\lvgl\lv_draw/lv_draw_vbasic.c ****                 }
 177:..\lvgl\lv_draw/lv_draw_vbasic.c ****                 last_width = w;
 178:..\lvgl\lv_draw/lv_draw_vbasic.c ****             }
 179:..\lvgl\lv_draw/lv_draw_vbasic.c **** 
 180:..\lvgl\lv_draw/lv_draw_vbasic.c ****             /*Blend the filled line to every line VDB line-by-line*/
 181:..\lvgl\lv_draw/lv_draw_vbasic.c ****             lv_coord_t row;
 182:..\lvgl\lv_draw/lv_draw_vbasic.c ****             for(row = vdb_rel_a.y1; row <= vdb_rel_a.y2; row++) {
 183:..\lvgl\lv_draw/lv_draw_vbasic.c ****                 lv_disp_mem_blend(&vdb_buf_tmp[vdb_rel_a.x1], color_array_tmp, w, opa);
 184:..\lvgl\lv_draw/lv_draw_vbasic.c ****                 vdb_buf_tmp += vdb_width;
 185:..\lvgl\lv_draw/lv_draw_vbasic.c ****             }
 186:..\lvgl\lv_draw/lv_draw_vbasic.c **** 
 187:..\lvgl\lv_draw/lv_draw_vbasic.c ****         }
 188:..\lvgl\lv_draw/lv_draw_vbasic.c ****         /*Else use sw fill if no better option*/
 189:..\lvgl\lv_draw/lv_draw_vbasic.c ****         else {
 190:..\lvgl\lv_draw/lv_draw_vbasic.c ****             sw_color_fill(&vdb_p->area, vdb_p->buf, &vdb_rel_a, color, opa);
 191:..\lvgl\lv_draw/lv_draw_vbasic.c ****         }
 192:..\lvgl\lv_draw/lv_draw_vbasic.c **** 
 193:..\lvgl\lv_draw/lv_draw_vbasic.c ****     }
 194:..\lvgl\lv_draw/lv_draw_vbasic.c ****     /*Fill with opacity*/
 195:..\lvgl\lv_draw/lv_draw_vbasic.c ****     else {
 196:..\lvgl\lv_draw/lv_draw_vbasic.c ****         /*Use hw blend if present*/
 197:..\lvgl\lv_draw/lv_draw_vbasic.c ****         if(lv_disp_is_mem_blend_supported()) {
 198:..\lvgl\lv_draw/lv_draw_vbasic.c ****             if(color_array_tmp[0].full != color.full || last_width != w) {
 199:..\lvgl\lv_draw/lv_draw_vbasic.c ****                 uint16_t i;
 200:..\lvgl\lv_draw/lv_draw_vbasic.c ****                 for(i = 0; i < w; i++) {
 201:..\lvgl\lv_draw/lv_draw_vbasic.c ****                     color_array_tmp[i].full = color.full;
 202:..\lvgl\lv_draw/lv_draw_vbasic.c ****                 }
ARM GAS  C:\Users\d3bug\AppData\Local\Temp\cc5D6foa.s 			page 5


 203:..\lvgl\lv_draw/lv_draw_vbasic.c **** 
 204:..\lvgl\lv_draw/lv_draw_vbasic.c ****                 last_width = w;
 205:..\lvgl\lv_draw/lv_draw_vbasic.c ****             }
 206:..\lvgl\lv_draw/lv_draw_vbasic.c ****             lv_coord_t row;
 207:..\lvgl\lv_draw/lv_draw_vbasic.c ****             for(row = vdb_rel_a.y1; row <= vdb_rel_a.y2; row++) {
 208:..\lvgl\lv_draw/lv_draw_vbasic.c ****                 lv_disp_mem_blend(&vdb_buf_tmp[vdb_rel_a.x1], color_array_tmp, w, opa);
 209:..\lvgl\lv_draw/lv_draw_vbasic.c ****                 vdb_buf_tmp += vdb_width;
 210:..\lvgl\lv_draw/lv_draw_vbasic.c ****             }
 211:..\lvgl\lv_draw/lv_draw_vbasic.c **** 
 212:..\lvgl\lv_draw/lv_draw_vbasic.c ****         }
 213:..\lvgl\lv_draw/lv_draw_vbasic.c ****         /*Use sw fill with opa if no better option*/
 214:..\lvgl\lv_draw/lv_draw_vbasic.c ****         else {
 215:..\lvgl\lv_draw/lv_draw_vbasic.c ****             sw_color_fill(&vdb_p->area, vdb_p->buf, &vdb_rel_a, color, opa);
 216:..\lvgl\lv_draw/lv_draw_vbasic.c ****         }
 217:..\lvgl\lv_draw/lv_draw_vbasic.c **** 
 218:..\lvgl\lv_draw/lv_draw_vbasic.c ****     }
 219:..\lvgl\lv_draw/lv_draw_vbasic.c **** #else
 220:..\lvgl\lv_draw/lv_draw_vbasic.c ****     sw_color_fill(&vdb_p->area, vdb_p->buf, &vdb_rel_a, color, opa);
 221:..\lvgl\lv_draw/lv_draw_vbasic.c **** #endif
 222:..\lvgl\lv_draw/lv_draw_vbasic.c **** }
 223:..\lvgl\lv_draw/lv_draw_vbasic.c **** 
 224:..\lvgl\lv_draw/lv_draw_vbasic.c **** /**
 225:..\lvgl\lv_draw/lv_draw_vbasic.c ****  * Draw a letter in the Virtual Display Buffer
 226:..\lvgl\lv_draw/lv_draw_vbasic.c ****  * @param pos_p left-top coordinate of the latter
 227:..\lvgl\lv_draw/lv_draw_vbasic.c ****  * @param mask_p the letter will be drawn only on this area  (truncated to VDB area)
 228:..\lvgl\lv_draw/lv_draw_vbasic.c ****  * @param font_p pointer to font
 229:..\lvgl\lv_draw/lv_draw_vbasic.c ****  * @param letter a letter to draw
 230:..\lvgl\lv_draw/lv_draw_vbasic.c ****  * @param color color of letter
 231:..\lvgl\lv_draw/lv_draw_vbasic.c ****  * @param opa opacity of letter (0..255)
 232:..\lvgl\lv_draw/lv_draw_vbasic.c ****  */
 233:..\lvgl\lv_draw/lv_draw_vbasic.c **** void lv_vletter(const lv_point_t * pos_p, const lv_area_t * mask_p,
 234:..\lvgl\lv_draw/lv_draw_vbasic.c ****                 const lv_font_t * font_p, uint32_t letter,
 235:..\lvgl\lv_draw/lv_draw_vbasic.c ****                 lv_color_t color, lv_opa_t opa)
 236:..\lvgl\lv_draw/lv_draw_vbasic.c **** {
 237:..\lvgl\lv_draw/lv_draw_vbasic.c ****     const uint8_t bpp1_opa_table[2] =  {0, 255};                   /*Opacity mapping with bpp = 1 (
 238:..\lvgl\lv_draw/lv_draw_vbasic.c ****     const uint8_t bpp2_opa_table[4] =  {0, 85, 170, 255};          /*Opacity mapping with bpp = 2*/
 239:..\lvgl\lv_draw/lv_draw_vbasic.c ****     const uint8_t bpp4_opa_table[16] = {0,   17,  34,  51,         /*Opacity mapping with bpp = 4*/
 240:..\lvgl\lv_draw/lv_draw_vbasic.c ****                                         68,  85,  102, 119,
 241:..\lvgl\lv_draw/lv_draw_vbasic.c ****                                         136, 153, 170, 187,
 242:..\lvgl\lv_draw/lv_draw_vbasic.c ****                                         204, 221, 238, 255
 243:..\lvgl\lv_draw/lv_draw_vbasic.c ****                                        };
 244:..\lvgl\lv_draw/lv_draw_vbasic.c ****     if(opa < LV_OPA_MIN) return;
 245:..\lvgl\lv_draw/lv_draw_vbasic.c ****     if(opa > LV_OPA_MAX) opa = LV_OPA_COVER;
 246:..\lvgl\lv_draw/lv_draw_vbasic.c **** 
 247:..\lvgl\lv_draw/lv_draw_vbasic.c ****     if(font_p == NULL) {
 248:..\lvgl\lv_draw/lv_draw_vbasic.c ****         LV_LOG_WARN("Font: character's bitmap not found");
 249:..\lvgl\lv_draw/lv_draw_vbasic.c ****         return;
 250:..\lvgl\lv_draw/lv_draw_vbasic.c ****     }
 251:..\lvgl\lv_draw/lv_draw_vbasic.c **** 
 252:..\lvgl\lv_draw/lv_draw_vbasic.c ****     lv_coord_t pos_x = pos_p->x;
 253:..\lvgl\lv_draw/lv_draw_vbasic.c ****     lv_coord_t pos_y = pos_p->y;
 254:..\lvgl\lv_draw/lv_draw_vbasic.c ****     uint8_t letter_w = lv_font_get_real_width(font_p, letter);
 255:..\lvgl\lv_draw/lv_draw_vbasic.c ****     uint8_t letter_h = lv_font_get_height(font_p);
 256:..\lvgl\lv_draw/lv_draw_vbasic.c ****     uint8_t bpp = lv_font_get_bpp(font_p, letter);  /*Bit per pixel (1,2, 4 or 8)*/
 257:..\lvgl\lv_draw/lv_draw_vbasic.c ****     const uint8_t * bpp_opa_table;
 258:..\lvgl\lv_draw/lv_draw_vbasic.c ****     uint8_t mask_init;
 259:..\lvgl\lv_draw/lv_draw_vbasic.c ****     uint8_t mask;
ARM GAS  C:\Users\d3bug\AppData\Local\Temp\cc5D6foa.s 			page 6


 260:..\lvgl\lv_draw/lv_draw_vbasic.c **** 
 261:..\lvgl\lv_draw/lv_draw_vbasic.c ****     if(lv_font_is_monospace(font_p, letter)) {
 262:..\lvgl\lv_draw/lv_draw_vbasic.c ****         pos_x += (lv_font_get_width(font_p, letter) - letter_w) / 2;
 263:..\lvgl\lv_draw/lv_draw_vbasic.c ****     }
 264:..\lvgl\lv_draw/lv_draw_vbasic.c **** 
 265:..\lvgl\lv_draw/lv_draw_vbasic.c **** 
 266:..\lvgl\lv_draw/lv_draw_vbasic.c ****     switch(bpp) {
 267:..\lvgl\lv_draw/lv_draw_vbasic.c ****         case 1:
 268:..\lvgl\lv_draw/lv_draw_vbasic.c ****             bpp_opa_table = bpp1_opa_table;
 269:..\lvgl\lv_draw/lv_draw_vbasic.c ****             mask_init = 0x80;
 270:..\lvgl\lv_draw/lv_draw_vbasic.c ****             break;
 271:..\lvgl\lv_draw/lv_draw_vbasic.c ****         case 2:
 272:..\lvgl\lv_draw/lv_draw_vbasic.c ****             bpp_opa_table = bpp2_opa_table;
 273:..\lvgl\lv_draw/lv_draw_vbasic.c ****             mask_init = 0xC0;
 274:..\lvgl\lv_draw/lv_draw_vbasic.c ****             break;
 275:..\lvgl\lv_draw/lv_draw_vbasic.c ****         case 4:
 276:..\lvgl\lv_draw/lv_draw_vbasic.c ****             bpp_opa_table = bpp4_opa_table;
 277:..\lvgl\lv_draw/lv_draw_vbasic.c ****             mask_init = 0xF0;
 278:..\lvgl\lv_draw/lv_draw_vbasic.c ****             break;
 279:..\lvgl\lv_draw/lv_draw_vbasic.c ****         case 8:
 280:..\lvgl\lv_draw/lv_draw_vbasic.c ****             bpp_opa_table = NULL;
 281:..\lvgl\lv_draw/lv_draw_vbasic.c ****             mask_init = 0xFF;
 282:..\lvgl\lv_draw/lv_draw_vbasic.c ****             break;             /*No opa table, pixel value will be used directly*/
 283:..\lvgl\lv_draw/lv_draw_vbasic.c ****         default:
 284:..\lvgl\lv_draw/lv_draw_vbasic.c ****             return;        /*Invalid bpp. Can't render the letter*/
 285:..\lvgl\lv_draw/lv_draw_vbasic.c ****     }
 286:..\lvgl\lv_draw/lv_draw_vbasic.c **** 
 287:..\lvgl\lv_draw/lv_draw_vbasic.c ****     const uint8_t * map_p = lv_font_get_bitmap(font_p, letter);
 288:..\lvgl\lv_draw/lv_draw_vbasic.c **** 
 289:..\lvgl\lv_draw/lv_draw_vbasic.c ****     if(map_p == NULL) return;
 290:..\lvgl\lv_draw/lv_draw_vbasic.c **** 
 291:..\lvgl\lv_draw/lv_draw_vbasic.c ****     /*If the letter is completely out of mask don't draw it */
 292:..\lvgl\lv_draw/lv_draw_vbasic.c ****     if(pos_x + letter_w < mask_p->x1 || pos_x > mask_p->x2 ||
 293:..\lvgl\lv_draw/lv_draw_vbasic.c ****             pos_y + letter_h < mask_p->y1 || pos_y > mask_p->y2) return;
 294:..\lvgl\lv_draw/lv_draw_vbasic.c **** 
 295:..\lvgl\lv_draw/lv_draw_vbasic.c ****     lv_vdb_t * vdb_p = lv_vdb_get();
 296:..\lvgl\lv_draw/lv_draw_vbasic.c ****     if(!vdb_p) {
 297:..\lvgl\lv_draw/lv_draw_vbasic.c ****         LV_LOG_WARN("Invalid VDB pointer");
 298:..\lvgl\lv_draw/lv_draw_vbasic.c ****         return;
 299:..\lvgl\lv_draw/lv_draw_vbasic.c ****     }
 300:..\lvgl\lv_draw/lv_draw_vbasic.c **** 
 301:..\lvgl\lv_draw/lv_draw_vbasic.c ****     lv_coord_t vdb_width = lv_area_get_width(&vdb_p->area);
 302:..\lvgl\lv_draw/lv_draw_vbasic.c ****     lv_color_t * vdb_buf_tmp = vdb_p->buf;
 303:..\lvgl\lv_draw/lv_draw_vbasic.c ****     lv_coord_t col, row;
 304:..\lvgl\lv_draw/lv_draw_vbasic.c ****     uint8_t col_bit;
 305:..\lvgl\lv_draw/lv_draw_vbasic.c ****     uint8_t col_byte_cnt;
 306:..\lvgl\lv_draw/lv_draw_vbasic.c ****     uint8_t width_byte_scr = letter_w >> 3;      /*Width in bytes (on the screen finally) (e.g. w =
 307:..\lvgl\lv_draw/lv_draw_vbasic.c ****     if(letter_w & 0x7) width_byte_scr++;
 308:..\lvgl\lv_draw/lv_draw_vbasic.c ****     uint8_t width_byte_bpp = (letter_w * bpp) >> 3;    /*Letter width in byte. Real width in the fo
 309:..\lvgl\lv_draw/lv_draw_vbasic.c ****     if((letter_w * bpp) & 0x7) width_byte_bpp++;
 310:..\lvgl\lv_draw/lv_draw_vbasic.c **** 
 311:..\lvgl\lv_draw/lv_draw_vbasic.c ****     /* Calculate the col/row start/end on the map*/
 312:..\lvgl\lv_draw/lv_draw_vbasic.c ****     lv_coord_t col_start = pos_x >= mask_p->x1 ? 0 : mask_p->x1 - pos_x;
 313:..\lvgl\lv_draw/lv_draw_vbasic.c ****     lv_coord_t col_end = pos_x + letter_w <= mask_p->x2 ? letter_w : mask_p->x2 - pos_x + 1;
 314:..\lvgl\lv_draw/lv_draw_vbasic.c ****     lv_coord_t row_start = pos_y >= mask_p->y1 ? 0 : mask_p->y1 - pos_y;
 315:..\lvgl\lv_draw/lv_draw_vbasic.c ****     lv_coord_t row_end  = pos_y + letter_h <= mask_p->y2 ? letter_h : mask_p->y2 - pos_y + 1;
 316:..\lvgl\lv_draw/lv_draw_vbasic.c **** 
ARM GAS  C:\Users\d3bug\AppData\Local\Temp\cc5D6foa.s 			page 7


 317:..\lvgl\lv_draw/lv_draw_vbasic.c ****     /*Set a pointer on VDB to the first pixel of the letter*/
 318:..\lvgl\lv_draw/lv_draw_vbasic.c ****     vdb_buf_tmp += ((pos_y - vdb_p->area.y1) * vdb_width)
 319:..\lvgl\lv_draw/lv_draw_vbasic.c ****                    + pos_x - vdb_p->area.x1;
 320:..\lvgl\lv_draw/lv_draw_vbasic.c **** 
 321:..\lvgl\lv_draw/lv_draw_vbasic.c ****     /*If the letter is partially out of mask the move there on VDB*/
 322:..\lvgl\lv_draw/lv_draw_vbasic.c ****     vdb_buf_tmp += (row_start * vdb_width) + col_start;
 323:..\lvgl\lv_draw/lv_draw_vbasic.c **** 
 324:..\lvgl\lv_draw/lv_draw_vbasic.c ****     /*Move on the map too*/
 325:..\lvgl\lv_draw/lv_draw_vbasic.c ****     map_p += (row_start * width_byte_bpp) + ((col_start * bpp) >> 3);
 326:..\lvgl\lv_draw/lv_draw_vbasic.c **** 
 327:..\lvgl\lv_draw/lv_draw_vbasic.c ****     lv_disp_t * disp = lv_disp_get_active();
 328:..\lvgl\lv_draw/lv_draw_vbasic.c **** 
 329:..\lvgl\lv_draw/lv_draw_vbasic.c ****     uint8_t letter_px;
 330:..\lvgl\lv_draw/lv_draw_vbasic.c ****     lv_opa_t px_opa;
 331:..\lvgl\lv_draw/lv_draw_vbasic.c ****     for(row = row_start; row < row_end; row ++) {
 332:..\lvgl\lv_draw/lv_draw_vbasic.c ****         col_byte_cnt = 0;
 333:..\lvgl\lv_draw/lv_draw_vbasic.c ****         col_bit = (col_start * bpp) % 8;
 334:..\lvgl\lv_draw/lv_draw_vbasic.c ****         mask = mask_init >> col_bit;
 335:..\lvgl\lv_draw/lv_draw_vbasic.c ****         for(col = col_start; col < col_end; col ++) {
 336:..\lvgl\lv_draw/lv_draw_vbasic.c ****             letter_px = (*map_p & mask) >> (8 - col_bit - bpp);
 337:..\lvgl\lv_draw/lv_draw_vbasic.c ****             if(letter_px != 0) {
 338:..\lvgl\lv_draw/lv_draw_vbasic.c ****                 if(opa == LV_OPA_COVER) {
 339:..\lvgl\lv_draw/lv_draw_vbasic.c ****                     px_opa = bpp == 8 ? letter_px : bpp_opa_table[letter_px];
 340:..\lvgl\lv_draw/lv_draw_vbasic.c ****                 } else {
 341:..\lvgl\lv_draw/lv_draw_vbasic.c ****                     px_opa = bpp == 8 ?
 342:..\lvgl\lv_draw/lv_draw_vbasic.c ****                              (uint16_t)((uint16_t)letter_px * opa) >> 8 :
 343:..\lvgl\lv_draw/lv_draw_vbasic.c ****                              (uint16_t)((uint16_t)bpp_opa_table[letter_px] * opa) >> 8;
 344:..\lvgl\lv_draw/lv_draw_vbasic.c ****                 }
 345:..\lvgl\lv_draw/lv_draw_vbasic.c **** 
 346:..\lvgl\lv_draw/lv_draw_vbasic.c ****                 if(disp->driver.vdb_wr) {
 347:..\lvgl\lv_draw/lv_draw_vbasic.c ****                     disp->driver.vdb_wr((uint8_t *)vdb_p->buf, vdb_width,
 348:..\lvgl\lv_draw/lv_draw_vbasic.c ****                                         (col + pos_x) - vdb_p->area.x1, (row + pos_y) - vdb_p->area
 349:..\lvgl\lv_draw/lv_draw_vbasic.c ****                                         color, px_opa);
 350:..\lvgl\lv_draw/lv_draw_vbasic.c ****                 } else {
 351:..\lvgl\lv_draw/lv_draw_vbasic.c **** #if LV_COLOR_SCREEN_TRANSP == 0
 352:..\lvgl\lv_draw/lv_draw_vbasic.c ****                     *vdb_buf_tmp = lv_color_mix(color, *vdb_buf_tmp, px_opa);
 353:..\lvgl\lv_draw/lv_draw_vbasic.c **** #else
 354:..\lvgl\lv_draw/lv_draw_vbasic.c ****                     *vdb_buf_tmp = color_mix_2_alpha(*vdb_buf_tmp, (*vdb_buf_tmp).alpha, color, px_
 355:..\lvgl\lv_draw/lv_draw_vbasic.c **** #endif
 356:..\lvgl\lv_draw/lv_draw_vbasic.c ****                 }
 357:..\lvgl\lv_draw/lv_draw_vbasic.c ****             }
 358:..\lvgl\lv_draw/lv_draw_vbasic.c **** 
 359:..\lvgl\lv_draw/lv_draw_vbasic.c ****             vdb_buf_tmp++;
 360:..\lvgl\lv_draw/lv_draw_vbasic.c **** 
 361:..\lvgl\lv_draw/lv_draw_vbasic.c ****             if(col_bit < 8 - bpp) {
 362:..\lvgl\lv_draw/lv_draw_vbasic.c ****                 col_bit += bpp;
 363:..\lvgl\lv_draw/lv_draw_vbasic.c ****                 mask = mask >> bpp;
 364:..\lvgl\lv_draw/lv_draw_vbasic.c ****             } else {
 365:..\lvgl\lv_draw/lv_draw_vbasic.c ****                 col_bit = 0;
 366:..\lvgl\lv_draw/lv_draw_vbasic.c ****                 col_byte_cnt ++;
 367:..\lvgl\lv_draw/lv_draw_vbasic.c ****                 mask = mask_init;
 368:..\lvgl\lv_draw/lv_draw_vbasic.c ****                 map_p ++;
 369:..\lvgl\lv_draw/lv_draw_vbasic.c ****             }
 370:..\lvgl\lv_draw/lv_draw_vbasic.c ****         }
 371:..\lvgl\lv_draw/lv_draw_vbasic.c **** 
 372:..\lvgl\lv_draw/lv_draw_vbasic.c ****         map_p += (width_byte_bpp) - col_byte_cnt;
 373:..\lvgl\lv_draw/lv_draw_vbasic.c ****         vdb_buf_tmp += vdb_width  - (col_end - col_start); /*Next row in VDB*/
ARM GAS  C:\Users\d3bug\AppData\Local\Temp\cc5D6foa.s 			page 8


 374:..\lvgl\lv_draw/lv_draw_vbasic.c ****     }
 375:..\lvgl\lv_draw/lv_draw_vbasic.c **** }
 376:..\lvgl\lv_draw/lv_draw_vbasic.c **** 
 377:..\lvgl\lv_draw/lv_draw_vbasic.c **** /**
 378:..\lvgl\lv_draw/lv_draw_vbasic.c ****  * Draw a color map to the display (image)
 379:..\lvgl\lv_draw/lv_draw_vbasic.c ****  * @param cords_p coordinates the color map
 380:..\lvgl\lv_draw/lv_draw_vbasic.c ****  * @param mask_p the map will drawn only on this area  (truncated to VDB area)
 381:..\lvgl\lv_draw/lv_draw_vbasic.c ****  * @param map_p pointer to a lv_color_t array
 382:..\lvgl\lv_draw/lv_draw_vbasic.c ****  * @param opa opacity of the map
 383:..\lvgl\lv_draw/lv_draw_vbasic.c ****  * @param chroma_keyed true: enable transparency of LV_IMG_LV_COLOR_TRANSP color pixels
 384:..\lvgl\lv_draw/lv_draw_vbasic.c ****  * @param alpha_byte true: extra alpha byte is inserted for every pixel
 385:..\lvgl\lv_draw/lv_draw_vbasic.c ****  * @param recolor mix the pixels with this color
 386:..\lvgl\lv_draw/lv_draw_vbasic.c ****  * @param recolor_opa the intense of recoloring
 387:..\lvgl\lv_draw/lv_draw_vbasic.c ****  */
 388:..\lvgl\lv_draw/lv_draw_vbasic.c **** void lv_vmap(const lv_area_t * cords_p, const lv_area_t * mask_p,
 389:..\lvgl\lv_draw/lv_draw_vbasic.c ****              const uint8_t * map_p, lv_opa_t opa, bool chroma_key, bool alpha_byte,
 390:..\lvgl\lv_draw/lv_draw_vbasic.c ****              lv_color_t recolor, lv_opa_t recolor_opa)
 391:..\lvgl\lv_draw/lv_draw_vbasic.c **** {
 392:..\lvgl\lv_draw/lv_draw_vbasic.c **** 
 393:..\lvgl\lv_draw/lv_draw_vbasic.c ****     if(opa < LV_OPA_MIN) return;
 394:..\lvgl\lv_draw/lv_draw_vbasic.c ****     if(opa > LV_OPA_MAX) opa = LV_OPA_COVER;
 395:..\lvgl\lv_draw/lv_draw_vbasic.c **** 
 396:..\lvgl\lv_draw/lv_draw_vbasic.c ****     lv_area_t masked_a;
 397:..\lvgl\lv_draw/lv_draw_vbasic.c ****     bool union_ok;
 398:..\lvgl\lv_draw/lv_draw_vbasic.c ****     lv_vdb_t * vdb_p = lv_vdb_get();
 399:..\lvgl\lv_draw/lv_draw_vbasic.c ****     if(!vdb_p) {
 400:..\lvgl\lv_draw/lv_draw_vbasic.c ****         LV_LOG_WARN("Invalid VDB pointer");
 401:..\lvgl\lv_draw/lv_draw_vbasic.c ****         return;
 402:..\lvgl\lv_draw/lv_draw_vbasic.c ****     }
 403:..\lvgl\lv_draw/lv_draw_vbasic.c **** 
 404:..\lvgl\lv_draw/lv_draw_vbasic.c ****     /*Get the union of map size and mask*/
 405:..\lvgl\lv_draw/lv_draw_vbasic.c ****     /* The mask is already truncated to the vdb size
 406:..\lvgl\lv_draw/lv_draw_vbasic.c ****     * in 'lv_refr_area_with_vdb' function */
 407:..\lvgl\lv_draw/lv_draw_vbasic.c ****     union_ok = lv_area_intersect(&masked_a, cords_p, mask_p);
 408:..\lvgl\lv_draw/lv_draw_vbasic.c **** 
 409:..\lvgl\lv_draw/lv_draw_vbasic.c ****     /*If there are common part of the three area then draw to the vdb*/
 410:..\lvgl\lv_draw/lv_draw_vbasic.c ****     if(union_ok == false)  return;
 411:..\lvgl\lv_draw/lv_draw_vbasic.c **** 
 412:..\lvgl\lv_draw/lv_draw_vbasic.c ****     /*The pixel size in byte is different if an alpha byte is added too*/
 413:..\lvgl\lv_draw/lv_draw_vbasic.c ****     uint8_t px_size_byte = alpha_byte ? LV_IMG_PX_SIZE_ALPHA_BYTE : sizeof(lv_color_t);
 414:..\lvgl\lv_draw/lv_draw_vbasic.c **** 
 415:..\lvgl\lv_draw/lv_draw_vbasic.c ****     /*If the map starts OUT of the masked area then calc. the first pixel*/
 416:..\lvgl\lv_draw/lv_draw_vbasic.c ****     lv_coord_t map_width = lv_area_get_width(cords_p);
 417:..\lvgl\lv_draw/lv_draw_vbasic.c ****     if(cords_p->y1 < masked_a.y1) {
 418:..\lvgl\lv_draw/lv_draw_vbasic.c ****         map_p += (uint32_t) map_width * ((masked_a.y1 - cords_p->y1)) * px_size_byte;
 419:..\lvgl\lv_draw/lv_draw_vbasic.c ****     }
 420:..\lvgl\lv_draw/lv_draw_vbasic.c ****     if(cords_p->x1 < masked_a.x1) {
 421:..\lvgl\lv_draw/lv_draw_vbasic.c ****         map_p += (masked_a.x1 - cords_p->x1) * px_size_byte;
 422:..\lvgl\lv_draw/lv_draw_vbasic.c ****     }
 423:..\lvgl\lv_draw/lv_draw_vbasic.c **** 
 424:..\lvgl\lv_draw/lv_draw_vbasic.c ****     /*Stores coordinates relative to the current VDB*/
 425:..\lvgl\lv_draw/lv_draw_vbasic.c ****     masked_a.x1 = masked_a.x1 - vdb_p->area.x1;
 426:..\lvgl\lv_draw/lv_draw_vbasic.c ****     masked_a.y1 = masked_a.y1 - vdb_p->area.y1;
 427:..\lvgl\lv_draw/lv_draw_vbasic.c ****     masked_a.x2 = masked_a.x2 - vdb_p->area.x1;
 428:..\lvgl\lv_draw/lv_draw_vbasic.c ****     masked_a.y2 = masked_a.y2 - vdb_p->area.y1;
 429:..\lvgl\lv_draw/lv_draw_vbasic.c **** 
 430:..\lvgl\lv_draw/lv_draw_vbasic.c ****     lv_coord_t vdb_width = lv_area_get_width(&vdb_p->area);
ARM GAS  C:\Users\d3bug\AppData\Local\Temp\cc5D6foa.s 			page 9


 431:..\lvgl\lv_draw/lv_draw_vbasic.c ****     lv_color_t * vdb_buf_tmp = vdb_p->buf;
 432:..\lvgl\lv_draw/lv_draw_vbasic.c ****     vdb_buf_tmp += (uint32_t) vdb_width * masked_a.y1; /*Move to the first row*/
 433:..\lvgl\lv_draw/lv_draw_vbasic.c ****     vdb_buf_tmp += (uint32_t) masked_a.x1; /*Move to the first col*/
 434:..\lvgl\lv_draw/lv_draw_vbasic.c **** 
 435:..\lvgl\lv_draw/lv_draw_vbasic.c ****     lv_coord_t row;
 436:..\lvgl\lv_draw/lv_draw_vbasic.c ****     lv_coord_t map_useful_w = lv_area_get_width(&masked_a);
 437:..\lvgl\lv_draw/lv_draw_vbasic.c **** 
 438:..\lvgl\lv_draw/lv_draw_vbasic.c ****     lv_disp_t * disp = lv_disp_get_active();
 439:..\lvgl\lv_draw/lv_draw_vbasic.c **** 
 440:..\lvgl\lv_draw/lv_draw_vbasic.c ****     /*The simplest case just copy the pixels into the VDB*/
 441:..\lvgl\lv_draw/lv_draw_vbasic.c ****     if(chroma_key == false && alpha_byte == false && opa == LV_OPA_COVER && recolor_opa == LV_OPA_T
 442:..\lvgl\lv_draw/lv_draw_vbasic.c **** 
 443:..\lvgl\lv_draw/lv_draw_vbasic.c ****         /*Use the custom VDB write function is exists*/
 444:..\lvgl\lv_draw/lv_draw_vbasic.c ****         if(disp->driver.vdb_wr) {
 445:..\lvgl\lv_draw/lv_draw_vbasic.c ****             lv_coord_t col;
 446:..\lvgl\lv_draw/lv_draw_vbasic.c ****             for(row = masked_a.y1; row <= masked_a.y2; row++) {
 447:..\lvgl\lv_draw/lv_draw_vbasic.c ****                 for(col = 0; col < map_useful_w; col++) {
 448:..\lvgl\lv_draw/lv_draw_vbasic.c ****                     lv_color_t px_color = *((lv_color_t *)&map_p[(uint32_t)col * px_size_byte]);
 449:..\lvgl\lv_draw/lv_draw_vbasic.c ****                     disp->driver.vdb_wr((uint8_t *)vdb_p->buf, vdb_width, col + masked_a.x1, row, p
 450:..\lvgl\lv_draw/lv_draw_vbasic.c ****                 }
 451:..\lvgl\lv_draw/lv_draw_vbasic.c ****                 map_p += map_width * px_size_byte;  /*Next row on the map*/
 452:..\lvgl\lv_draw/lv_draw_vbasic.c ****             }
 453:..\lvgl\lv_draw/lv_draw_vbasic.c ****         }
 454:..\lvgl\lv_draw/lv_draw_vbasic.c ****         /*Normal native VDB*/
 455:..\lvgl\lv_draw/lv_draw_vbasic.c ****         else {
 456:..\lvgl\lv_draw/lv_draw_vbasic.c ****             for(row = masked_a.y1; row <= masked_a.y2; row++) {
 457:..\lvgl\lv_draw/lv_draw_vbasic.c **** #if USE_LV_GPU
 458:..\lvgl\lv_draw/lv_draw_vbasic.c ****                 if(lv_disp_is_mem_blend_supported() == false) {
 459:..\lvgl\lv_draw/lv_draw_vbasic.c ****                     sw_mem_blend(vdb_buf_tmp, (lv_color_t *)map_p, map_useful_w, opa);
 460:..\lvgl\lv_draw/lv_draw_vbasic.c ****                 } else {
 461:..\lvgl\lv_draw/lv_draw_vbasic.c ****                     lv_disp_mem_blend(vdb_buf_tmp, (lv_color_t *)map_p, map_useful_w, opa);
 462:..\lvgl\lv_draw/lv_draw_vbasic.c ****                 }
 463:..\lvgl\lv_draw/lv_draw_vbasic.c **** #else
 464:..\lvgl\lv_draw/lv_draw_vbasic.c ****                 sw_mem_blend(vdb_buf_tmp, (lv_color_t *)map_p, map_useful_w, opa);
 465:..\lvgl\lv_draw/lv_draw_vbasic.c **** #endif
 466:..\lvgl\lv_draw/lv_draw_vbasic.c ****                 map_p += map_width * px_size_byte;               /*Next row on the map*/
 467:..\lvgl\lv_draw/lv_draw_vbasic.c ****                 vdb_buf_tmp += vdb_width;                        /*Next row on the VDB*/
 468:..\lvgl\lv_draw/lv_draw_vbasic.c ****             }
 469:..\lvgl\lv_draw/lv_draw_vbasic.c ****         }
 470:..\lvgl\lv_draw/lv_draw_vbasic.c ****     }
 471:..\lvgl\lv_draw/lv_draw_vbasic.c **** 
 472:..\lvgl\lv_draw/lv_draw_vbasic.c ****     /*In the other cases every pixel need to be checked one-by-one*/
 473:..\lvgl\lv_draw/lv_draw_vbasic.c ****     else {
 474:..\lvgl\lv_draw/lv_draw_vbasic.c ****         lv_color_t chroma_key_color = LV_COLOR_TRANSP;
 475:..\lvgl\lv_draw/lv_draw_vbasic.c ****         lv_coord_t col;
 476:..\lvgl\lv_draw/lv_draw_vbasic.c ****         lv_color_t last_img_px = LV_COLOR_BLACK;
 477:..\lvgl\lv_draw/lv_draw_vbasic.c ****         lv_color_t recolored_px = lv_color_mix(recolor, last_img_px, recolor_opa);
 478:..\lvgl\lv_draw/lv_draw_vbasic.c ****         for(row = masked_a.y1; row <= masked_a.y2; row++) {
 479:..\lvgl\lv_draw/lv_draw_vbasic.c ****             for(col = 0; col < map_useful_w; col++) {
 480:..\lvgl\lv_draw/lv_draw_vbasic.c ****                 lv_opa_t opa_result = opa;
 481:..\lvgl\lv_draw/lv_draw_vbasic.c ****                 uint8_t * px_color_p = (uint8_t *) &map_p[(uint32_t)col * px_size_byte];
 482:..\lvgl\lv_draw/lv_draw_vbasic.c ****                 lv_color_t px_color;
 483:..\lvgl\lv_draw/lv_draw_vbasic.c **** 
 484:..\lvgl\lv_draw/lv_draw_vbasic.c ****                 /*Calculate with the pixel level alpha*/
 485:..\lvgl\lv_draw/lv_draw_vbasic.c ****                 if(alpha_byte) {
 486:..\lvgl\lv_draw/lv_draw_vbasic.c **** #if LV_COLOR_DEPTH == 8 || LV_COLOR_DEPTH == 1
 487:..\lvgl\lv_draw/lv_draw_vbasic.c ****                     px_color.full = px_color_p[0];
ARM GAS  C:\Users\d3bug\AppData\Local\Temp\cc5D6foa.s 			page 10


 488:..\lvgl\lv_draw/lv_draw_vbasic.c **** #elif LV_COLOR_DEPTH == 16
 489:..\lvgl\lv_draw/lv_draw_vbasic.c ****                     /*Because of Alpha byte 16 bit color can start on odd address which can cause c
 490:..\lvgl\lv_draw/lv_draw_vbasic.c ****                     px_color.full = px_color_p[0] + (px_color_p[1] << 8);
 491:..\lvgl\lv_draw/lv_draw_vbasic.c **** #elif LV_COLOR_DEPTH == 32
 492:..\lvgl\lv_draw/lv_draw_vbasic.c ****                     px_color = *((lv_color_t *)px_color_p);
 493:..\lvgl\lv_draw/lv_draw_vbasic.c **** #endif
 494:..\lvgl\lv_draw/lv_draw_vbasic.c ****                     lv_opa_t px_opa = *(px_color_p + LV_IMG_PX_SIZE_ALPHA_BYTE - 1);
 495:..\lvgl\lv_draw/lv_draw_vbasic.c ****                     if(px_opa == LV_OPA_TRANSP) continue;
 496:..\lvgl\lv_draw/lv_draw_vbasic.c ****                     else if(px_opa != LV_OPA_COVER) opa_result = (uint32_t)((uint32_t)px_opa * opa_
 497:..\lvgl\lv_draw/lv_draw_vbasic.c ****                 } else {
 498:..\lvgl\lv_draw/lv_draw_vbasic.c ****                     px_color = *((lv_color_t *)px_color_p);
 499:..\lvgl\lv_draw/lv_draw_vbasic.c ****                 }
 500:..\lvgl\lv_draw/lv_draw_vbasic.c **** 
 501:..\lvgl\lv_draw/lv_draw_vbasic.c ****                 /*Handle chroma key*/
 502:..\lvgl\lv_draw/lv_draw_vbasic.c ****                 if(chroma_key && px_color.full == chroma_key_color.full) continue;
 503:..\lvgl\lv_draw/lv_draw_vbasic.c **** 
 504:..\lvgl\lv_draw/lv_draw_vbasic.c ****                 /*Re-color the pixel if required*/
 505:..\lvgl\lv_draw/lv_draw_vbasic.c ****                 if(recolor_opa != LV_OPA_TRANSP) {
 506:..\lvgl\lv_draw/lv_draw_vbasic.c ****                     if(last_img_px.full != px_color.full) {     /*Minor acceleration: calculate onl
 507:..\lvgl\lv_draw/lv_draw_vbasic.c ****                         last_img_px = px_color;
 508:..\lvgl\lv_draw/lv_draw_vbasic.c ****                         recolored_px = lv_color_mix(recolor, last_img_px, recolor_opa);
 509:..\lvgl\lv_draw/lv_draw_vbasic.c ****                     }
 510:..\lvgl\lv_draw/lv_draw_vbasic.c ****                     /*Handle custom VDB write is present*/
 511:..\lvgl\lv_draw/lv_draw_vbasic.c ****                     if(disp->driver.vdb_wr) {
 512:..\lvgl\lv_draw/lv_draw_vbasic.c ****                         disp->driver.vdb_wr((uint8_t *)vdb_p->buf, vdb_width, col + masked_a.x1, ro
 513:..\lvgl\lv_draw/lv_draw_vbasic.c ****                     }
 514:..\lvgl\lv_draw/lv_draw_vbasic.c ****                     /*Normal native VDB write*/
 515:..\lvgl\lv_draw/lv_draw_vbasic.c ****                     else {
 516:..\lvgl\lv_draw/lv_draw_vbasic.c ****                         if(opa_result == LV_OPA_COVER) vdb_buf_tmp[col].full = recolored_px.full;
 517:..\lvgl\lv_draw/lv_draw_vbasic.c ****                         else vdb_buf_tmp[col] = lv_color_mix(recolored_px, vdb_buf_tmp[col], opa_re
 518:..\lvgl\lv_draw/lv_draw_vbasic.c ****                     }
 519:..\lvgl\lv_draw/lv_draw_vbasic.c ****                 } else {
 520:..\lvgl\lv_draw/lv_draw_vbasic.c ****                     /*Handle custom VDB write is present*/
 521:..\lvgl\lv_draw/lv_draw_vbasic.c ****                     if(disp->driver.vdb_wr) {
 522:..\lvgl\lv_draw/lv_draw_vbasic.c ****                         disp->driver.vdb_wr((uint8_t *)vdb_p->buf, vdb_width, col + masked_a.x1, ro
 523:..\lvgl\lv_draw/lv_draw_vbasic.c ****                     }
 524:..\lvgl\lv_draw/lv_draw_vbasic.c ****                     /*Normal native VDB write*/
 525:..\lvgl\lv_draw/lv_draw_vbasic.c ****                     else {
 526:..\lvgl\lv_draw/lv_draw_vbasic.c ****                         if(opa_result == LV_OPA_COVER) vdb_buf_tmp[col] = px_color;
 527:..\lvgl\lv_draw/lv_draw_vbasic.c ****                         else {
 528:..\lvgl\lv_draw/lv_draw_vbasic.c **** #if LV_COLOR_SCREEN_TRANSP == 0
 529:..\lvgl\lv_draw/lv_draw_vbasic.c ****                             vdb_buf_tmp[col] = lv_color_mix(px_color, vdb_buf_tmp[col], opa_result)
 530:..\lvgl\lv_draw/lv_draw_vbasic.c **** #else
 531:..\lvgl\lv_draw/lv_draw_vbasic.c ****                             vdb_buf_tmp[col] = color_mix_2_alpha(vdb_buf_tmp[col], vdb_buf_tmp[col]
 532:..\lvgl\lv_draw/lv_draw_vbasic.c **** //                            if(vdb_buf_tmp[col].alpha == LV_OPA_TRANSP) {
 533:..\lvgl\lv_draw/lv_draw_vbasic.c **** //                                /* When it is the first visible pixel on the transparent screen
 534:..\lvgl\lv_draw/lv_draw_vbasic.c **** //                                 * simlply use this color and set the pixel opa as backrounds alp
 535:..\lvgl\lv_draw/lv_draw_vbasic.c **** //                                vdb_buf_tmp[col] = px_color;
 536:..\lvgl\lv_draw/lv_draw_vbasic.c **** //                                vdb_buf_tmp[col].alpha = opa_result;
 537:..\lvgl\lv_draw/lv_draw_vbasic.c **** //                            } else {
 538:..\lvgl\lv_draw/lv_draw_vbasic.c **** //                                /* If already this pixel is already written then for performance 
 539:..\lvgl\lv_draw/lv_draw_vbasic.c **** //                                 * don't care with alpha channel
 540:..\lvgl\lv_draw/lv_draw_vbasic.c **** //                                 */
 541:..\lvgl\lv_draw/lv_draw_vbasic.c **** //                                lv_opa_t bg_opa = vdb_buf_tmp[col].alpha;
 542:..\lvgl\lv_draw/lv_draw_vbasic.c **** //                                vdb_buf_tmp[col] = lv_color_mix(px_color, vdb_buf_tmp[col], opa_r
 543:..\lvgl\lv_draw/lv_draw_vbasic.c **** //
 544:..\lvgl\lv_draw/lv_draw_vbasic.c **** //                                uint16_t opa_tmp = (uint16_t)opa_result + ((bg_opa * (255 - opa_r
ARM GAS  C:\Users\d3bug\AppData\Local\Temp\cc5D6foa.s 			page 11


 545:..\lvgl\lv_draw/lv_draw_vbasic.c **** //                                vdb_buf_tmp[col].alpha = opa_tmp > 0xFF ? 0xFF : opa_tmp ;
 546:..\lvgl\lv_draw/lv_draw_vbasic.c **** //                            }
 547:..\lvgl\lv_draw/lv_draw_vbasic.c **** #endif
 548:..\lvgl\lv_draw/lv_draw_vbasic.c ****                         }
 549:..\lvgl\lv_draw/lv_draw_vbasic.c ****                     }
 550:..\lvgl\lv_draw/lv_draw_vbasic.c ****                 }
 551:..\lvgl\lv_draw/lv_draw_vbasic.c ****             }
 552:..\lvgl\lv_draw/lv_draw_vbasic.c **** 
 553:..\lvgl\lv_draw/lv_draw_vbasic.c ****             map_p += map_width * px_size_byte;  /*Next row on the map*/
 554:..\lvgl\lv_draw/lv_draw_vbasic.c ****             vdb_buf_tmp += vdb_width;           /*Next row on the VDB*/
 555:..\lvgl\lv_draw/lv_draw_vbasic.c ****         }
 556:..\lvgl\lv_draw/lv_draw_vbasic.c ****     }
 557:..\lvgl\lv_draw/lv_draw_vbasic.c **** }
 558:..\lvgl\lv_draw/lv_draw_vbasic.c **** 
 559:..\lvgl\lv_draw/lv_draw_vbasic.c **** /**********************
 560:..\lvgl\lv_draw/lv_draw_vbasic.c ****  *   STATIC FUNCTIONS
 561:..\lvgl\lv_draw/lv_draw_vbasic.c ****  **********************/
 562:..\lvgl\lv_draw/lv_draw_vbasic.c **** 
 563:..\lvgl\lv_draw/lv_draw_vbasic.c **** /**
 564:..\lvgl\lv_draw/lv_draw_vbasic.c ****  * Blend pixels to destination memory using opacity
 565:..\lvgl\lv_draw/lv_draw_vbasic.c ****  * @param dest a memory address. Copy 'src' here.
 566:..\lvgl\lv_draw/lv_draw_vbasic.c ****  * @param src pointer to pixel map. Copy it to 'dest'.
 567:..\lvgl\lv_draw/lv_draw_vbasic.c ****  * @param length number of pixels in 'src'
 568:..\lvgl\lv_draw/lv_draw_vbasic.c ****  * @param opa opacity (0, LV_OPA_TRANSP: transparent ... 255, LV_OPA_COVER, fully cover)
 569:..\lvgl\lv_draw/lv_draw_vbasic.c ****  */
 570:..\lvgl\lv_draw/lv_draw_vbasic.c **** static void sw_mem_blend(lv_color_t * dest, const lv_color_t * src, uint32_t length, lv_opa_t opa)
 571:..\lvgl\lv_draw/lv_draw_vbasic.c **** {
 572:..\lvgl\lv_draw/lv_draw_vbasic.c ****     if(opa == LV_OPA_COVER) {
 573:..\lvgl\lv_draw/lv_draw_vbasic.c ****         memcpy(dest, src, length * sizeof(lv_color_t));
 574:..\lvgl\lv_draw/lv_draw_vbasic.c ****     } else {
 575:..\lvgl\lv_draw/lv_draw_vbasic.c ****         uint32_t col;
 576:..\lvgl\lv_draw/lv_draw_vbasic.c ****         for(col = 0; col < length; col++) {
 577:..\lvgl\lv_draw/lv_draw_vbasic.c ****             dest[col] = lv_color_mix(src[col], dest[col], opa);
 578:..\lvgl\lv_draw/lv_draw_vbasic.c ****         }
 579:..\lvgl\lv_draw/lv_draw_vbasic.c ****     }
 580:..\lvgl\lv_draw/lv_draw_vbasic.c **** }
 581:..\lvgl\lv_draw/lv_draw_vbasic.c **** 
 582:..\lvgl\lv_draw/lv_draw_vbasic.c **** /**
 583:..\lvgl\lv_draw/lv_draw_vbasic.c ****  *
 584:..\lvgl\lv_draw/lv_draw_vbasic.c ****  * @param mem_area coordinates of 'mem' memory area
 585:..\lvgl\lv_draw/lv_draw_vbasic.c ****  * @param mem a memory address. Considered to a rectangular window according to 'mem_area'
 586:..\lvgl\lv_draw/lv_draw_vbasic.c ****  * @param fill_area coordinates of an area to fill. Relative to 'mem_area'.
 587:..\lvgl\lv_draw/lv_draw_vbasic.c ****  * @param color fill color
 588:..\lvgl\lv_draw/lv_draw_vbasic.c ****  * @param opa opacity (0, LV_OPA_TRANSP: transparent ... 255, LV_OPA_COVER, fully cover)
 589:..\lvgl\lv_draw/lv_draw_vbasic.c ****  */
 590:..\lvgl\lv_draw/lv_draw_vbasic.c **** static void sw_color_fill(lv_area_t * mem_area, lv_color_t * mem, const lv_area_t * fill_area, lv_c
 591:..\lvgl\lv_draw/lv_draw_vbasic.c **** {
  27              		.loc 1 591 0
  28              		.cfi_startproc
  29              		@ args = 4, pretend = 0, frame = 8
  30              		@ frame_needed = 0, uses_anonymous_args = 0
  31              	.LVL0:
  32 0000 2DE9F04F 		push	{r4, r5, r6, r7, r8, r9, r10, fp, lr}
  33              		.cfi_def_cfa_offset 36
  34              		.cfi_offset 4, -36
  35              		.cfi_offset 5, -32
  36              		.cfi_offset 6, -28
ARM GAS  C:\Users\d3bug\AppData\Local\Temp\cc5D6foa.s 			page 12


  37              		.cfi_offset 7, -24
  38              		.cfi_offset 8, -20
  39              		.cfi_offset 9, -16
  40              		.cfi_offset 10, -12
  41              		.cfi_offset 11, -8
  42              		.cfi_offset 14, -4
  43 0004 85B0     		sub	sp, sp, #20
  44              		.cfi_def_cfa_offset 56
  45 0006 0391     		str	r1, [sp, #12]
  46 0008 1746     		mov	r7, r2
  47 000a 9A46     		mov	r10, r3
  48 000c 9DF83890 		ldrb	r9, [sp, #56]	@ zero_extendqisi2
  49              	.LVL1:
  50              	.LBB45:
  51              	.LBB46:
  52              		.file 2 "..\\lvgl\\lv_draw\\../lv_misc/lv_area.h"
   1:..\lvgl\lv_draw\../lv_misc/lv_area.h **** /**
   2:..\lvgl\lv_draw\../lv_misc/lv_area.h ****  * @file lv_area.h
   3:..\lvgl\lv_draw\../lv_misc/lv_area.h ****  *
   4:..\lvgl\lv_draw\../lv_misc/lv_area.h ****  */
   5:..\lvgl\lv_draw\../lv_misc/lv_area.h **** 
   6:..\lvgl\lv_draw\../lv_misc/lv_area.h **** #ifndef LV_AREA_H
   7:..\lvgl\lv_draw\../lv_misc/lv_area.h **** #define LV_AREA_H
   8:..\lvgl\lv_draw\../lv_misc/lv_area.h **** 
   9:..\lvgl\lv_draw\../lv_misc/lv_area.h **** #ifdef __cplusplus
  10:..\lvgl\lv_draw\../lv_misc/lv_area.h **** extern "C" {
  11:..\lvgl\lv_draw\../lv_misc/lv_area.h **** #endif
  12:..\lvgl\lv_draw\../lv_misc/lv_area.h **** 
  13:..\lvgl\lv_draw\../lv_misc/lv_area.h **** 
  14:..\lvgl\lv_draw\../lv_misc/lv_area.h **** /*********************
  15:..\lvgl\lv_draw\../lv_misc/lv_area.h ****  *      INCLUDES
  16:..\lvgl\lv_draw\../lv_misc/lv_area.h ****  *********************/
  17:..\lvgl\lv_draw\../lv_misc/lv_area.h **** #include <string.h>
  18:..\lvgl\lv_draw\../lv_misc/lv_area.h **** #include <stdbool.h>
  19:..\lvgl\lv_draw\../lv_misc/lv_area.h **** #include <stdint.h>
  20:..\lvgl\lv_draw\../lv_misc/lv_area.h **** 
  21:..\lvgl\lv_draw\../lv_misc/lv_area.h **** /*********************
  22:..\lvgl\lv_draw\../lv_misc/lv_area.h ****  *      DEFINES
  23:..\lvgl\lv_draw\../lv_misc/lv_area.h ****  *********************/
  24:..\lvgl\lv_draw\../lv_misc/lv_area.h **** #define LV_COORD_MAX     (16383)    /*To avoid overflow don't let the max [-32,32k] range */
  25:..\lvgl\lv_draw\../lv_misc/lv_area.h **** #define LV_COORD_MIN     (-16384)
  26:..\lvgl\lv_draw\../lv_misc/lv_area.h **** 
  27:..\lvgl\lv_draw\../lv_misc/lv_area.h **** /**********************
  28:..\lvgl\lv_draw\../lv_misc/lv_area.h ****  *      TYPEDEFS
  29:..\lvgl\lv_draw\../lv_misc/lv_area.h ****  **********************/
  30:..\lvgl\lv_draw\../lv_misc/lv_area.h **** typedef int16_t lv_coord_t;
  31:..\lvgl\lv_draw\../lv_misc/lv_area.h **** 
  32:..\lvgl\lv_draw\../lv_misc/lv_area.h **** typedef struct
  33:..\lvgl\lv_draw\../lv_misc/lv_area.h **** {
  34:..\lvgl\lv_draw\../lv_misc/lv_area.h ****     lv_coord_t x;
  35:..\lvgl\lv_draw\../lv_misc/lv_area.h ****     lv_coord_t y;
  36:..\lvgl\lv_draw\../lv_misc/lv_area.h **** } lv_point_t;
  37:..\lvgl\lv_draw\../lv_misc/lv_area.h **** 
  38:..\lvgl\lv_draw\../lv_misc/lv_area.h **** typedef struct
  39:..\lvgl\lv_draw\../lv_misc/lv_area.h **** {
  40:..\lvgl\lv_draw\../lv_misc/lv_area.h ****     lv_coord_t x1;
  41:..\lvgl\lv_draw\../lv_misc/lv_area.h ****     lv_coord_t y1;
ARM GAS  C:\Users\d3bug\AppData\Local\Temp\cc5D6foa.s 			page 13


  42:..\lvgl\lv_draw\../lv_misc/lv_area.h ****     lv_coord_t x2;
  43:..\lvgl\lv_draw\../lv_misc/lv_area.h ****     lv_coord_t y2;
  44:..\lvgl\lv_draw\../lv_misc/lv_area.h **** } lv_area_t;
  45:..\lvgl\lv_draw\../lv_misc/lv_area.h **** 
  46:..\lvgl\lv_draw\../lv_misc/lv_area.h **** /**********************
  47:..\lvgl\lv_draw\../lv_misc/lv_area.h ****  * GLOBAL PROTOTYPES
  48:..\lvgl\lv_draw\../lv_misc/lv_area.h ****  **********************/
  49:..\lvgl\lv_draw\../lv_misc/lv_area.h **** 
  50:..\lvgl\lv_draw\../lv_misc/lv_area.h **** /**
  51:..\lvgl\lv_draw\../lv_misc/lv_area.h ****  * Initialize an area
  52:..\lvgl\lv_draw\../lv_misc/lv_area.h ****  * @param area_p pointer to an area
  53:..\lvgl\lv_draw\../lv_misc/lv_area.h ****  * @param x1 left coordinate of the area
  54:..\lvgl\lv_draw\../lv_misc/lv_area.h ****  * @param y1 top coordinate of the area
  55:..\lvgl\lv_draw\../lv_misc/lv_area.h ****  * @param x2 right coordinate of the area
  56:..\lvgl\lv_draw\../lv_misc/lv_area.h ****  * @param y2 bottom coordinate of the area
  57:..\lvgl\lv_draw\../lv_misc/lv_area.h ****  */
  58:..\lvgl\lv_draw\../lv_misc/lv_area.h **** void lv_area_set(lv_area_t * area_p, lv_coord_t x1, lv_coord_t y1, lv_coord_t x2, lv_coord_t y2);
  59:..\lvgl\lv_draw\../lv_misc/lv_area.h **** 
  60:..\lvgl\lv_draw\../lv_misc/lv_area.h **** /**
  61:..\lvgl\lv_draw\../lv_misc/lv_area.h ****  * Copy an area
  62:..\lvgl\lv_draw\../lv_misc/lv_area.h ****  * @param dest pointer to the destination area
  63:..\lvgl\lv_draw\../lv_misc/lv_area.h ****  * @param src pointer to the source area
  64:..\lvgl\lv_draw\../lv_misc/lv_area.h ****  */
  65:..\lvgl\lv_draw\../lv_misc/lv_area.h **** inline static void lv_area_copy(lv_area_t * dest, const lv_area_t * src)
  66:..\lvgl\lv_draw\../lv_misc/lv_area.h **** {
  67:..\lvgl\lv_draw\../lv_misc/lv_area.h ****     memcpy(dest, src, sizeof(lv_area_t));
  68:..\lvgl\lv_draw\../lv_misc/lv_area.h **** }
  69:..\lvgl\lv_draw\../lv_misc/lv_area.h **** 
  70:..\lvgl\lv_draw\../lv_misc/lv_area.h **** /**
  71:..\lvgl\lv_draw\../lv_misc/lv_area.h ****  * Get the width of an area
  72:..\lvgl\lv_draw\../lv_misc/lv_area.h ****  * @param area_p pointer to an area
  73:..\lvgl\lv_draw\../lv_misc/lv_area.h ****  * @return the width of the area (if x1 == x2 -> width = 1)
  74:..\lvgl\lv_draw\../lv_misc/lv_area.h ****  */
  75:..\lvgl\lv_draw\../lv_misc/lv_area.h **** static inline lv_coord_t lv_area_get_width(const lv_area_t * area_p)
  76:..\lvgl\lv_draw\../lv_misc/lv_area.h **** {
  77:..\lvgl\lv_draw\../lv_misc/lv_area.h ****     return area_p->x2 - area_p->x1 + 1;
  53              		.loc 2 77 0
  54 0010 B0F90430 		ldrsh	r3, [r0, #4]
  55              	.LVL2:
  56 0014 B0F90080 		ldrsh	r8, [r0]
  57 0018 C8EB0308 		rsb	r8, r8, r3
  58 001c 08F10108 		add	r8, r8, #1
  59 0020 0FFA88F8 		sxth	r8, r8
  60              	.LVL3:
  61              	.LBE46:
  62              	.LBE45:
 592:..\lvgl\lv_draw/lv_draw_vbasic.c ****     /*Set all row in vdb to the given color*/
 593:..\lvgl\lv_draw/lv_draw_vbasic.c ****     lv_coord_t row;
 594:..\lvgl\lv_draw/lv_draw_vbasic.c ****     lv_coord_t col;
 595:..\lvgl\lv_draw/lv_draw_vbasic.c ****     lv_coord_t mem_width = lv_area_get_width(mem_area);
 596:..\lvgl\lv_draw/lv_draw_vbasic.c **** 
 597:..\lvgl\lv_draw/lv_draw_vbasic.c ****     lv_disp_t * disp = lv_disp_get_active();
  63              		.loc 1 597 0
  64 0024 FFF7FEFF 		bl	lv_disp_get_active
  65              	.LVL4:
 598:..\lvgl\lv_draw/lv_draw_vbasic.c ****     if(disp->driver.vdb_wr) {
  66              		.loc 1 598 0
ARM GAS  C:\Users\d3bug\AppData\Local\Temp\cc5D6foa.s 			page 14


  67 0028 C368     		ldr	r3, [r0, #12]
  68 002a FBB1     		cbz	r3, .L2
  69 002c 8346     		mov	fp, r0
 599:..\lvgl\lv_draw/lv_draw_vbasic.c ****         for(col = fill_area->x1; col <= fill_area->x2; col++) {
  70              		.loc 1 599 0
  71 002e B7F90060 		ldrsh	r6, [r7]
  72              	.LVL5:
  73 0032 16E0     		b	.L3
  74              	.LVL6:
  75              	.L6:
 600:..\lvgl\lv_draw/lv_draw_vbasic.c ****             for(row = fill_area->y1; row <= fill_area->y2; row++) {
  76              		.loc 1 600 0
  77 0034 B7F90240 		ldrsh	r4, [r7, #2]
  78              	.LVL7:
  79 0038 4D46     		mov	r5, r9
  80 003a 0BE0     		b	.L4
  81              	.L5:
 601:..\lvgl\lv_draw/lv_draw_vbasic.c ****                 disp->driver.vdb_wr((uint8_t *)mem, mem_width, col, row, color, opa);
  82              		.loc 1 601 0 discriminator 3
  83 003c DBF80C90 		ldr	r9, [fp, #12]
  84 0040 0195     		str	r5, [sp, #4]
  85 0042 8DF800A0 		strb	r10, [sp]
  86 0046 2346     		mov	r3, r4
  87 0048 3246     		mov	r2, r6
  88 004a 4146     		mov	r1, r8
  89 004c 0398     		ldr	r0, [sp, #12]
  90 004e C847     		blx	r9
  91              	.LVL8:
 600:..\lvgl\lv_draw/lv_draw_vbasic.c ****             for(row = fill_area->y1; row <= fill_area->y2; row++) {
  92              		.loc 1 600 0 discriminator 3
  93 0050 0134     		adds	r4, r4, #1
  94              	.LVL9:
  95 0052 24B2     		sxth	r4, r4
  96              	.LVL10:
  97              	.L4:
 600:..\lvgl\lv_draw/lv_draw_vbasic.c ****             for(row = fill_area->y1; row <= fill_area->y2; row++) {
  98              		.loc 1 600 0 is_stmt 0 discriminator 1
  99 0054 B7F90630 		ldrsh	r3, [r7, #6]
 100 0058 9C42     		cmp	r4, r3
 101 005a EFDD     		ble	.L5
 102 005c A946     		mov	r9, r5
 599:..\lvgl\lv_draw/lv_draw_vbasic.c ****         for(col = fill_area->x1; col <= fill_area->x2; col++) {
 103              		.loc 1 599 0 is_stmt 1 discriminator 2
 104 005e 0136     		adds	r6, r6, #1
 105              	.LVL11:
 106 0060 36B2     		sxth	r6, r6
 107              	.LVL12:
 108              	.L3:
 599:..\lvgl\lv_draw/lv_draw_vbasic.c ****         for(col = fill_area->x1; col <= fill_area->x2; col++) {
 109              		.loc 1 599 0 is_stmt 0 discriminator 1
 110 0062 B7F90430 		ldrsh	r3, [r7, #4]
 111 0066 9E42     		cmp	r6, r3
 112 0068 E4DD     		ble	.L6
 113 006a 61E0     		b	.L1
 114              	.LVL13:
 115              	.L2:
 602:..\lvgl\lv_draw/lv_draw_vbasic.c ****             }
ARM GAS  C:\Users\d3bug\AppData\Local\Temp\cc5D6foa.s 			page 15


 603:..\lvgl\lv_draw/lv_draw_vbasic.c ****         }
 604:..\lvgl\lv_draw/lv_draw_vbasic.c ****     } else {
 605:..\lvgl\lv_draw/lv_draw_vbasic.c ****         mem += fill_area->y1 * mem_width;  /*Go to the first row*/
 116              		.loc 1 605 0 is_stmt 1
 117 006c B7F90200 		ldrsh	r0, [r7, #2]
 118              	.LVL14:
 119 0070 039B     		ldr	r3, [sp, #12]
 120 0072 08FB0031 		mla	r1, r8, r0, r3
 121              	.LVL15:
 606:..\lvgl\lv_draw/lv_draw_vbasic.c **** 
 607:..\lvgl\lv_draw/lv_draw_vbasic.c ****         /*Run simpler function without opacity*/
 608:..\lvgl\lv_draw/lv_draw_vbasic.c ****         if(opa == LV_OPA_COVER) {
 122              		.loc 1 608 0
 123 0076 B9F1FF0F 		cmp	r9, #255
 124 007a 27D1     		bne	.L8
 125              	.LBB47:
 609:..\lvgl\lv_draw/lv_draw_vbasic.c **** 
 610:..\lvgl\lv_draw/lv_draw_vbasic.c ****             /*Fill the first row with 'color'*/
 611:..\lvgl\lv_draw/lv_draw_vbasic.c ****             for(col = fill_area->x1; col <= fill_area->x2; col++) {
 126              		.loc 1 611 0
 127 007c B7F90030 		ldrsh	r3, [r7]
 128              	.LVL16:
 129 0080 03E0     		b	.L9
 130              	.LVL17:
 131              	.L10:
 612:..\lvgl\lv_draw/lv_draw_vbasic.c ****                 mem[col] = color;
 132              		.loc 1 612 0 discriminator 3
 133 0082 01F803A0 		strb	r10, [r1, r3]
 611:..\lvgl\lv_draw/lv_draw_vbasic.c ****                 mem[col] = color;
 134              		.loc 1 611 0 discriminator 3
 135 0086 0133     		adds	r3, r3, #1
 136              	.LVL18:
 137 0088 1BB2     		sxth	r3, r3
 138              	.LVL19:
 139              	.L9:
 611:..\lvgl\lv_draw/lv_draw_vbasic.c ****                 mem[col] = color;
 140              		.loc 1 611 0 is_stmt 0 discriminator 1
 141 008a B7F90420 		ldrsh	r2, [r7, #4]
 142 008e 9342     		cmp	r3, r2
 143 0090 F7DD     		ble	.L10
 613:..\lvgl\lv_draw/lv_draw_vbasic.c ****             }
 614:..\lvgl\lv_draw/lv_draw_vbasic.c **** 
 615:..\lvgl\lv_draw/lv_draw_vbasic.c ****             /*Copy the first row to all other rows*/
 616:..\lvgl\lv_draw/lv_draw_vbasic.c ****             lv_color_t * mem_first = &mem[fill_area->x1];
 144              		.loc 1 616 0 is_stmt 1
 145 0092 B7F90050 		ldrsh	r5, [r7]
 146 0096 01EB0509 		add	r9, r1, r5
 147              	.LVL20:
 617:..\lvgl\lv_draw/lv_draw_vbasic.c ****             lv_coord_t copy_size = (fill_area->x2 - fill_area->x1 + 1) * sizeof(lv_color_t);
 148              		.loc 1 617 0
 149 009a 551B     		subs	r5, r2, r5
 150 009c 0135     		adds	r5, r5, #1
 151 009e 2DB2     		sxth	r5, r5
 152              	.LVL21:
 618:..\lvgl\lv_draw/lv_draw_vbasic.c ****             mem += mem_width;
 153              		.loc 1 618 0
 154 00a0 4646     		mov	r6, r8
ARM GAS  C:\Users\d3bug\AppData\Local\Temp\cc5D6foa.s 			page 16


 155 00a2 8844     		add	r8, r8, r1
 156              	.LVL22:
 619:..\lvgl\lv_draw/lv_draw_vbasic.c **** 
 620:..\lvgl\lv_draw/lv_draw_vbasic.c ****             for(row = fill_area->y1 + 1; row <= fill_area->y2; row++) {
 157              		.loc 1 620 0
 158 00a4 B7F90240 		ldrsh	r4, [r7, #2]
 159 00a8 0134     		adds	r4, r4, #1
 160 00aa 24B2     		sxth	r4, r4
 161              	.LVL23:
 162 00ac 09E0     		b	.L11
 163              	.LVL24:
 164              	.L12:
 621:..\lvgl\lv_draw/lv_draw_vbasic.c ****                 memcpy(&mem[fill_area->x1], mem_first, copy_size);
 165              		.loc 1 621 0 discriminator 3
 166 00ae B7F90000 		ldrsh	r0, [r7]
 167 00b2 2A46     		mov	r2, r5
 168 00b4 4946     		mov	r1, r9
 169 00b6 4044     		add	r0, r0, r8
 170 00b8 FFF7FEFF 		bl	memcpy
 171              	.LVL25:
 622:..\lvgl\lv_draw/lv_draw_vbasic.c ****                 mem += mem_width;
 172              		.loc 1 622 0 discriminator 3
 173 00bc B044     		add	r8, r8, r6
 174              	.LVL26:
 620:..\lvgl\lv_draw/lv_draw_vbasic.c ****                 memcpy(&mem[fill_area->x1], mem_first, copy_size);
 175              		.loc 1 620 0 discriminator 3
 176 00be 0134     		adds	r4, r4, #1
 177              	.LVL27:
 178 00c0 24B2     		sxth	r4, r4
 179              	.LVL28:
 180              	.L11:
 620:..\lvgl\lv_draw/lv_draw_vbasic.c ****                 memcpy(&mem[fill_area->x1], mem_first, copy_size);
 181              		.loc 1 620 0 is_stmt 0 discriminator 1
 182 00c2 B7F90630 		ldrsh	r3, [r7, #6]
 183 00c6 9C42     		cmp	r4, r3
 184 00c8 F1DD     		ble	.L12
 185 00ca 31E0     		b	.L1
 186              	.LVL29:
 187              	.L8:
 188              	.LBE47:
 189              	.LBB48:
 623:..\lvgl\lv_draw/lv_draw_vbasic.c ****             }
 624:..\lvgl\lv_draw/lv_draw_vbasic.c ****         }
 625:..\lvgl\lv_draw/lv_draw_vbasic.c ****         /*Calculate with alpha too*/
 626:..\lvgl\lv_draw/lv_draw_vbasic.c ****         else {
 627:..\lvgl\lv_draw/lv_draw_vbasic.c **** 
 628:..\lvgl\lv_draw/lv_draw_vbasic.c **** #if LV_COLOR_SCREEN_TRANSP == 0
 629:..\lvgl\lv_draw/lv_draw_vbasic.c ****             lv_color_t bg_tmp = LV_COLOR_BLACK;
 190              		.loc 1 629 0 is_stmt 1
 191 00cc 4FF00005 		mov	r5, #0
 192              	.LVL30:
 193              	.LBB49:
 194              	.LBB50:
 195              		.file 3 "..\\lvgl\\lv_draw\\../lv_misc/lv_color.h"
   1:..\lvgl\lv_draw\../lv_misc/lv_color.h **** /**
   2:..\lvgl\lv_draw\../lv_misc/lv_color.h ****  * @file lv_color.h
   3:..\lvgl\lv_draw\../lv_misc/lv_color.h ****  *
ARM GAS  C:\Users\d3bug\AppData\Local\Temp\cc5D6foa.s 			page 17


   4:..\lvgl\lv_draw\../lv_misc/lv_color.h ****  */
   5:..\lvgl\lv_draw\../lv_misc/lv_color.h **** 
   6:..\lvgl\lv_draw\../lv_misc/lv_color.h **** #ifndef LV_COLOR_H
   7:..\lvgl\lv_draw\../lv_misc/lv_color.h **** #define LV_COLOR_H
   8:..\lvgl\lv_draw\../lv_misc/lv_color.h **** 
   9:..\lvgl\lv_draw\../lv_misc/lv_color.h **** #ifdef __cplusplus
  10:..\lvgl\lv_draw\../lv_misc/lv_color.h **** extern "C" {
  11:..\lvgl\lv_draw\../lv_misc/lv_color.h **** #endif
  12:..\lvgl\lv_draw\../lv_misc/lv_color.h **** 
  13:..\lvgl\lv_draw\../lv_misc/lv_color.h **** /*********************
  14:..\lvgl\lv_draw\../lv_misc/lv_color.h ****  *      INCLUDES
  15:..\lvgl\lv_draw\../lv_misc/lv_color.h ****  *********************/
  16:..\lvgl\lv_draw\../lv_misc/lv_color.h **** #ifdef LV_CONF_INCLUDE_SIMPLE
  17:..\lvgl\lv_draw\../lv_misc/lv_color.h **** #include "lv_conf.h"
  18:..\lvgl\lv_draw\../lv_misc/lv_color.h **** #else
  19:..\lvgl\lv_draw\../lv_misc/lv_color.h **** #include "../../lv_conf.h"
  20:..\lvgl\lv_draw\../lv_misc/lv_color.h **** #endif
  21:..\lvgl\lv_draw\../lv_misc/lv_color.h **** 
  22:..\lvgl\lv_draw\../lv_misc/lv_color.h **** /*Error checking*/
  23:..\lvgl\lv_draw\../lv_misc/lv_color.h **** #if LV_COLOR_DEPTH == 24
  24:..\lvgl\lv_draw\../lv_misc/lv_color.h **** #error "LV_COLOR_DEPTH  24 is deprecated. Use LV_COLOR_DEPTH  32 instead (lv_conf.h)"
  25:..\lvgl\lv_draw\../lv_misc/lv_color.h **** #endif
  26:..\lvgl\lv_draw\../lv_misc/lv_color.h **** 
  27:..\lvgl\lv_draw\../lv_misc/lv_color.h **** #if LV_COLOR_DEPTH != 32 && LV_COLOR_SCREEN_TRANSP != 0
  28:..\lvgl\lv_draw\../lv_misc/lv_color.h **** #error "LV_COLOR_SCREEN_TRANSP requires LV_COLOR_DEPTH == 32. Set it in lv_conf.h"
  29:..\lvgl\lv_draw\../lv_misc/lv_color.h **** #endif
  30:..\lvgl\lv_draw\../lv_misc/lv_color.h **** 
  31:..\lvgl\lv_draw\../lv_misc/lv_color.h **** #if LV_COLOR_DEPTH != 16 && LV_COLOR_16_SWAP != 0
  32:..\lvgl\lv_draw\../lv_misc/lv_color.h **** #error "LV_COLOR_16_SWAP requires LV_COLOR_DEPTH == 16. Set it in lv_conf.h"
  33:..\lvgl\lv_draw\../lv_misc/lv_color.h **** #endif
  34:..\lvgl\lv_draw\../lv_misc/lv_color.h **** 
  35:..\lvgl\lv_draw\../lv_misc/lv_color.h **** 
  36:..\lvgl\lv_draw\../lv_misc/lv_color.h **** #include <stdint.h>
  37:..\lvgl\lv_draw\../lv_misc/lv_color.h **** 
  38:..\lvgl\lv_draw\../lv_misc/lv_color.h **** /*********************
  39:..\lvgl\lv_draw\../lv_misc/lv_color.h ****  *      DEFINES
  40:..\lvgl\lv_draw\../lv_misc/lv_color.h ****  *********************/
  41:..\lvgl\lv_draw\../lv_misc/lv_color.h **** #define LV_COLOR_WHITE   LV_COLOR_MAKE(0xFF,0xFF,0xFF)
  42:..\lvgl\lv_draw\../lv_misc/lv_color.h **** #define LV_COLOR_SILVER  LV_COLOR_MAKE(0xC0,0xC0,0xC0)
  43:..\lvgl\lv_draw\../lv_misc/lv_color.h **** #define LV_COLOR_GRAY    LV_COLOR_MAKE(0x80,0x80,0x80)
  44:..\lvgl\lv_draw\../lv_misc/lv_color.h **** #define LV_COLOR_BLACK   LV_COLOR_MAKE(0x00,0x00,0x00)
  45:..\lvgl\lv_draw\../lv_misc/lv_color.h **** #define LV_COLOR_RED     LV_COLOR_MAKE(0xFF,0x00,0x00)
  46:..\lvgl\lv_draw\../lv_misc/lv_color.h **** #define LV_COLOR_MAROON  LV_COLOR_MAKE(0x80,0x00,0x00)
  47:..\lvgl\lv_draw\../lv_misc/lv_color.h **** #define LV_COLOR_YELLOW  LV_COLOR_MAKE(0xFF,0xFF,0x00)
  48:..\lvgl\lv_draw\../lv_misc/lv_color.h **** #define LV_COLOR_OLIVE   LV_COLOR_MAKE(0x80,0x80,0x00)
  49:..\lvgl\lv_draw\../lv_misc/lv_color.h **** #define LV_COLOR_LIME    LV_COLOR_MAKE(0x00,0xFF,0x00)
  50:..\lvgl\lv_draw\../lv_misc/lv_color.h **** #define LV_COLOR_GREEN   LV_COLOR_MAKE(0x00,0x80,0x00)
  51:..\lvgl\lv_draw\../lv_misc/lv_color.h **** #define LV_COLOR_CYAN    LV_COLOR_MAKE(0x00,0xFF,0xFF)
  52:..\lvgl\lv_draw\../lv_misc/lv_color.h **** #define LV_COLOR_AQUA    LV_COLOR_CYAN
  53:..\lvgl\lv_draw\../lv_misc/lv_color.h **** #define LV_COLOR_TEAL    LV_COLOR_MAKE(0x00,0x80,0x80)
  54:..\lvgl\lv_draw\../lv_misc/lv_color.h **** #define LV_COLOR_BLUE    LV_COLOR_MAKE(0x00,0x00,0xFF)
  55:..\lvgl\lv_draw\../lv_misc/lv_color.h **** #define LV_COLOR_NAVY    LV_COLOR_MAKE(0x00,0x00,0x80)
  56:..\lvgl\lv_draw\../lv_misc/lv_color.h **** #define LV_COLOR_MAGENTA LV_COLOR_MAKE(0xFF,0x00,0xFF)
  57:..\lvgl\lv_draw\../lv_misc/lv_color.h **** #define LV_COLOR_PURPLE  LV_COLOR_MAKE(0x80,0x00,0x80)
  58:..\lvgl\lv_draw\../lv_misc/lv_color.h **** #define LV_COLOR_ORANGE  LV_COLOR_MAKE(0xFF,0xA5,0x00)
  59:..\lvgl\lv_draw\../lv_misc/lv_color.h **** 
  60:..\lvgl\lv_draw\../lv_misc/lv_color.h **** enum {
ARM GAS  C:\Users\d3bug\AppData\Local\Temp\cc5D6foa.s 			page 18


  61:..\lvgl\lv_draw\../lv_misc/lv_color.h ****     LV_OPA_TRANSP =  0,
  62:..\lvgl\lv_draw\../lv_misc/lv_color.h ****     LV_OPA_0      =  0,
  63:..\lvgl\lv_draw\../lv_misc/lv_color.h ****     LV_OPA_10     =  25,
  64:..\lvgl\lv_draw\../lv_misc/lv_color.h ****     LV_OPA_20     =  51,
  65:..\lvgl\lv_draw\../lv_misc/lv_color.h ****     LV_OPA_30     =  76,
  66:..\lvgl\lv_draw\../lv_misc/lv_color.h ****     LV_OPA_40     =  102,
  67:..\lvgl\lv_draw\../lv_misc/lv_color.h ****     LV_OPA_50     =  127,
  68:..\lvgl\lv_draw\../lv_misc/lv_color.h ****     LV_OPA_60     =  153,
  69:..\lvgl\lv_draw\../lv_misc/lv_color.h ****     LV_OPA_70     =  178,
  70:..\lvgl\lv_draw\../lv_misc/lv_color.h ****     LV_OPA_80     =  204,
  71:..\lvgl\lv_draw\../lv_misc/lv_color.h ****     LV_OPA_90     =  229,
  72:..\lvgl\lv_draw\../lv_misc/lv_color.h ****     LV_OPA_100    =  255,
  73:..\lvgl\lv_draw\../lv_misc/lv_color.h ****     LV_OPA_COVER  =  255,
  74:..\lvgl\lv_draw\../lv_misc/lv_color.h **** };
  75:..\lvgl\lv_draw\../lv_misc/lv_color.h **** 
  76:..\lvgl\lv_draw\../lv_misc/lv_color.h **** #define LV_OPA_MIN      16      /*Opacities below this will be transparent*/
  77:..\lvgl\lv_draw\../lv_misc/lv_color.h **** #define LV_OPA_MAX      251     /*Opacities above this will fully cover*/
  78:..\lvgl\lv_draw\../lv_misc/lv_color.h **** 
  79:..\lvgl\lv_draw\../lv_misc/lv_color.h **** #if LV_COLOR_DEPTH == 1
  80:..\lvgl\lv_draw\../lv_misc/lv_color.h **** #define LV_COLOR_SIZE           8
  81:..\lvgl\lv_draw\../lv_misc/lv_color.h **** #elif LV_COLOR_DEPTH == 8
  82:..\lvgl\lv_draw\../lv_misc/lv_color.h **** #define LV_COLOR_SIZE           8
  83:..\lvgl\lv_draw\../lv_misc/lv_color.h **** #elif LV_COLOR_DEPTH == 16
  84:..\lvgl\lv_draw\../lv_misc/lv_color.h **** #define LV_COLOR_SIZE           16
  85:..\lvgl\lv_draw\../lv_misc/lv_color.h **** #elif LV_COLOR_DEPTH == 32
  86:..\lvgl\lv_draw\../lv_misc/lv_color.h **** #define LV_COLOR_SIZE           32
  87:..\lvgl\lv_draw\../lv_misc/lv_color.h **** #else
  88:..\lvgl\lv_draw\../lv_misc/lv_color.h **** #error "Invalid LV_COLOR_DEPTH in lv_conf.h! Set it to 1, 8, 16 or 32!"
  89:..\lvgl\lv_draw\../lv_misc/lv_color.h **** #endif
  90:..\lvgl\lv_draw\../lv_misc/lv_color.h **** 
  91:..\lvgl\lv_draw\../lv_misc/lv_color.h **** /**********************
  92:..\lvgl\lv_draw\../lv_misc/lv_color.h ****  *      TYPEDEFS
  93:..\lvgl\lv_draw\../lv_misc/lv_color.h ****  **********************/
  94:..\lvgl\lv_draw\../lv_misc/lv_color.h **** 
  95:..\lvgl\lv_draw\../lv_misc/lv_color.h **** typedef union
  96:..\lvgl\lv_draw\../lv_misc/lv_color.h **** {
  97:..\lvgl\lv_draw\../lv_misc/lv_color.h ****     uint8_t blue  :1;
  98:..\lvgl\lv_draw\../lv_misc/lv_color.h ****     uint8_t green :1;
  99:..\lvgl\lv_draw\../lv_misc/lv_color.h ****     uint8_t red   :1;
 100:..\lvgl\lv_draw\../lv_misc/lv_color.h ****     uint8_t full  :1;
 101:..\lvgl\lv_draw\../lv_misc/lv_color.h **** } lv_color1_t;
 102:..\lvgl\lv_draw\../lv_misc/lv_color.h **** 
 103:..\lvgl\lv_draw\../lv_misc/lv_color.h **** typedef union
 104:..\lvgl\lv_draw\../lv_misc/lv_color.h **** {
 105:..\lvgl\lv_draw\../lv_misc/lv_color.h ****     struct
 106:..\lvgl\lv_draw\../lv_misc/lv_color.h ****     {
 107:..\lvgl\lv_draw\../lv_misc/lv_color.h ****         uint8_t blue  :2;
 108:..\lvgl\lv_draw\../lv_misc/lv_color.h ****         uint8_t green :3;
 109:..\lvgl\lv_draw\../lv_misc/lv_color.h ****         uint8_t red   :3;
 110:..\lvgl\lv_draw\../lv_misc/lv_color.h ****     };
 111:..\lvgl\lv_draw\../lv_misc/lv_color.h ****     uint8_t full;
 112:..\lvgl\lv_draw\../lv_misc/lv_color.h **** } lv_color8_t;
 113:..\lvgl\lv_draw\../lv_misc/lv_color.h **** 
 114:..\lvgl\lv_draw\../lv_misc/lv_color.h **** typedef union
 115:..\lvgl\lv_draw\../lv_misc/lv_color.h **** {
 116:..\lvgl\lv_draw\../lv_misc/lv_color.h ****     struct
 117:..\lvgl\lv_draw\../lv_misc/lv_color.h ****     {
ARM GAS  C:\Users\d3bug\AppData\Local\Temp\cc5D6foa.s 			page 19


 118:..\lvgl\lv_draw\../lv_misc/lv_color.h **** #if LV_COLOR_16_SWAP == 0
 119:..\lvgl\lv_draw\../lv_misc/lv_color.h ****         uint16_t blue  :5;
 120:..\lvgl\lv_draw\../lv_misc/lv_color.h ****         uint16_t green :6;
 121:..\lvgl\lv_draw\../lv_misc/lv_color.h ****         uint16_t red   :5;
 122:..\lvgl\lv_draw\../lv_misc/lv_color.h **** #else
 123:..\lvgl\lv_draw\../lv_misc/lv_color.h ****         uint16_t green_h :3;
 124:..\lvgl\lv_draw\../lv_misc/lv_color.h ****         uint16_t red   :5;
 125:..\lvgl\lv_draw\../lv_misc/lv_color.h ****         uint16_t blue  :5;
 126:..\lvgl\lv_draw\../lv_misc/lv_color.h ****         uint16_t green_l :3;
 127:..\lvgl\lv_draw\../lv_misc/lv_color.h **** #endif
 128:..\lvgl\lv_draw\../lv_misc/lv_color.h ****     };
 129:..\lvgl\lv_draw\../lv_misc/lv_color.h ****     uint16_t full;
 130:..\lvgl\lv_draw\../lv_misc/lv_color.h **** } lv_color16_t;
 131:..\lvgl\lv_draw\../lv_misc/lv_color.h **** 
 132:..\lvgl\lv_draw\../lv_misc/lv_color.h **** typedef union
 133:..\lvgl\lv_draw\../lv_misc/lv_color.h **** {
 134:..\lvgl\lv_draw\../lv_misc/lv_color.h ****     struct
 135:..\lvgl\lv_draw\../lv_misc/lv_color.h ****     {
 136:..\lvgl\lv_draw\../lv_misc/lv_color.h ****         uint8_t blue;
 137:..\lvgl\lv_draw\../lv_misc/lv_color.h ****         uint8_t green;
 138:..\lvgl\lv_draw\../lv_misc/lv_color.h ****         uint8_t red;
 139:..\lvgl\lv_draw\../lv_misc/lv_color.h ****         uint8_t alpha;
 140:..\lvgl\lv_draw\../lv_misc/lv_color.h ****     };
 141:..\lvgl\lv_draw\../lv_misc/lv_color.h ****     uint32_t full;
 142:..\lvgl\lv_draw\../lv_misc/lv_color.h **** } lv_color32_t;
 143:..\lvgl\lv_draw\../lv_misc/lv_color.h **** 
 144:..\lvgl\lv_draw\../lv_misc/lv_color.h **** #if LV_COLOR_DEPTH == 1
 145:..\lvgl\lv_draw\../lv_misc/lv_color.h **** typedef uint8_t lv_color_int_t;
 146:..\lvgl\lv_draw\../lv_misc/lv_color.h **** typedef lv_color1_t lv_color_t;
 147:..\lvgl\lv_draw\../lv_misc/lv_color.h **** #elif LV_COLOR_DEPTH == 8
 148:..\lvgl\lv_draw\../lv_misc/lv_color.h **** typedef uint8_t lv_color_int_t;
 149:..\lvgl\lv_draw\../lv_misc/lv_color.h **** typedef lv_color8_t lv_color_t;
 150:..\lvgl\lv_draw\../lv_misc/lv_color.h **** #elif LV_COLOR_DEPTH == 16
 151:..\lvgl\lv_draw\../lv_misc/lv_color.h **** typedef uint16_t lv_color_int_t;
 152:..\lvgl\lv_draw\../lv_misc/lv_color.h **** typedef lv_color16_t lv_color_t;
 153:..\lvgl\lv_draw\../lv_misc/lv_color.h **** #elif LV_COLOR_DEPTH == 32
 154:..\lvgl\lv_draw\../lv_misc/lv_color.h **** typedef uint32_t lv_color_int_t;
 155:..\lvgl\lv_draw\../lv_misc/lv_color.h **** typedef lv_color32_t lv_color_t;
 156:..\lvgl\lv_draw\../lv_misc/lv_color.h **** #else
 157:..\lvgl\lv_draw\../lv_misc/lv_color.h **** #error "Invalid LV_COLOR_DEPTH in lv_conf.h! Set it to 1, 8, 16 or 32!"
 158:..\lvgl\lv_draw\../lv_misc/lv_color.h **** #endif
 159:..\lvgl\lv_draw\../lv_misc/lv_color.h **** 
 160:..\lvgl\lv_draw\../lv_misc/lv_color.h **** typedef uint8_t lv_opa_t;
 161:..\lvgl\lv_draw\../lv_misc/lv_color.h **** 
 162:..\lvgl\lv_draw\../lv_misc/lv_color.h **** typedef struct
 163:..\lvgl\lv_draw\../lv_misc/lv_color.h **** {
 164:..\lvgl\lv_draw\../lv_misc/lv_color.h ****     uint16_t h;
 165:..\lvgl\lv_draw\../lv_misc/lv_color.h ****     uint8_t s;
 166:..\lvgl\lv_draw\../lv_misc/lv_color.h ****     uint8_t v;
 167:..\lvgl\lv_draw\../lv_misc/lv_color.h **** } lv_color_hsv_t;
 168:..\lvgl\lv_draw\../lv_misc/lv_color.h **** 
 169:..\lvgl\lv_draw\../lv_misc/lv_color.h **** /**********************
 170:..\lvgl\lv_draw\../lv_misc/lv_color.h ****  * GLOBAL PROTOTYPES
 171:..\lvgl\lv_draw\../lv_misc/lv_color.h ****  **********************/
 172:..\lvgl\lv_draw\../lv_misc/lv_color.h **** 
 173:..\lvgl\lv_draw\../lv_misc/lv_color.h **** /*In color conversations:
 174:..\lvgl\lv_draw\../lv_misc/lv_color.h ****  * - When converting to bigger color type the LSB weight of 1 LSB is calculated
ARM GAS  C:\Users\d3bug\AppData\Local\Temp\cc5D6foa.s 			page 20


 175:..\lvgl\lv_draw\../lv_misc/lv_color.h ****  *   E.g. 16 bit Red has 5 bits
 176:..\lvgl\lv_draw\../lv_misc/lv_color.h ****  *         8 bit Red has 2 bits
 177:..\lvgl\lv_draw\../lv_misc/lv_color.h ****  *        ----------------------
 178:..\lvgl\lv_draw\../lv_misc/lv_color.h ****  *        8 bit red LSB = (2^5 - 1) / (2^2 - 1) = 31 / 3 = 10
 179:..\lvgl\lv_draw\../lv_misc/lv_color.h ****  *
 180:..\lvgl\lv_draw\../lv_misc/lv_color.h ****  * - When calculating to smaller color type simply shift out the LSBs
 181:..\lvgl\lv_draw\../lv_misc/lv_color.h ****  *   E.g.  8 bit Red has 2 bits
 182:..\lvgl\lv_draw\../lv_misc/lv_color.h ****  *        16 bit Red has 5 bits
 183:..\lvgl\lv_draw\../lv_misc/lv_color.h ****  *        ----------------------
 184:..\lvgl\lv_draw\../lv_misc/lv_color.h ****  *         Shift right with 5 - 3 = 2
 185:..\lvgl\lv_draw\../lv_misc/lv_color.h ****  */
 186:..\lvgl\lv_draw\../lv_misc/lv_color.h **** 
 187:..\lvgl\lv_draw\../lv_misc/lv_color.h **** static inline uint8_t lv_color_to1(lv_color_t color)
 188:..\lvgl\lv_draw\../lv_misc/lv_color.h **** {
 189:..\lvgl\lv_draw\../lv_misc/lv_color.h **** #if LV_COLOR_DEPTH == 1
 190:..\lvgl\lv_draw\../lv_misc/lv_color.h ****     return color.full;
 191:..\lvgl\lv_draw\../lv_misc/lv_color.h **** #elif LV_COLOR_DEPTH == 8
 192:..\lvgl\lv_draw\../lv_misc/lv_color.h ****     if((color.red   & 0x4) ||
 193:..\lvgl\lv_draw\../lv_misc/lv_color.h ****             (color.green & 0x4) ||
 194:..\lvgl\lv_draw\../lv_misc/lv_color.h ****             (color.blue  & 0x2)) {
 195:..\lvgl\lv_draw\../lv_misc/lv_color.h ****         return 1;
 196:..\lvgl\lv_draw\../lv_misc/lv_color.h ****     } else {
 197:..\lvgl\lv_draw\../lv_misc/lv_color.h ****         return 0;
 198:..\lvgl\lv_draw\../lv_misc/lv_color.h ****     }
 199:..\lvgl\lv_draw\../lv_misc/lv_color.h **** #elif LV_COLOR_DEPTH == 16
 200:..\lvgl\lv_draw\../lv_misc/lv_color.h **** #  if LV_COLOR_16_SWAP == 0
 201:..\lvgl\lv_draw\../lv_misc/lv_color.h ****     if((color.red   & 0x10) ||
 202:..\lvgl\lv_draw\../lv_misc/lv_color.h ****             (color.green & 0x20) ||
 203:..\lvgl\lv_draw\../lv_misc/lv_color.h ****             (color.blue  & 0x10)) {
 204:..\lvgl\lv_draw\../lv_misc/lv_color.h ****         return 1;
 205:..\lvgl\lv_draw\../lv_misc/lv_color.h **** #  else
 206:..\lvgl\lv_draw\../lv_misc/lv_color.h ****     if((color.red   & 0x10) ||
 207:..\lvgl\lv_draw\../lv_misc/lv_color.h ****             (color.green_h & 0x20) ||
 208:..\lvgl\lv_draw\../lv_misc/lv_color.h ****             (color.blue  & 0x10)) {
 209:..\lvgl\lv_draw\../lv_misc/lv_color.h ****         return 1;
 210:..\lvgl\lv_draw\../lv_misc/lv_color.h **** #  endif
 211:..\lvgl\lv_draw\../lv_misc/lv_color.h ****     } else {
 212:..\lvgl\lv_draw\../lv_misc/lv_color.h ****         return 0;
 213:..\lvgl\lv_draw\../lv_misc/lv_color.h ****     }
 214:..\lvgl\lv_draw\../lv_misc/lv_color.h **** #elif LV_COLOR_DEPTH == 32
 215:..\lvgl\lv_draw\../lv_misc/lv_color.h ****     if((color.red   & 0x80) ||
 216:..\lvgl\lv_draw\../lv_misc/lv_color.h ****             (color.green & 0x80) ||
 217:..\lvgl\lv_draw\../lv_misc/lv_color.h ****             (color.blue  & 0x80)) {
 218:..\lvgl\lv_draw\../lv_misc/lv_color.h ****         return 1;
 219:..\lvgl\lv_draw\../lv_misc/lv_color.h ****     } else {
 220:..\lvgl\lv_draw\../lv_misc/lv_color.h ****         return 0;
 221:..\lvgl\lv_draw\../lv_misc/lv_color.h ****     }
 222:..\lvgl\lv_draw\../lv_misc/lv_color.h **** #endif
 223:..\lvgl\lv_draw\../lv_misc/lv_color.h **** }
 224:..\lvgl\lv_draw\../lv_misc/lv_color.h **** 
 225:..\lvgl\lv_draw\../lv_misc/lv_color.h **** static inline uint8_t lv_color_to8(lv_color_t color)
 226:..\lvgl\lv_draw\../lv_misc/lv_color.h **** {
 227:..\lvgl\lv_draw\../lv_misc/lv_color.h **** #if LV_COLOR_DEPTH == 1
 228:..\lvgl\lv_draw\../lv_misc/lv_color.h ****     if(color.full == 0) return 0;
 229:..\lvgl\lv_draw\../lv_misc/lv_color.h ****     else return 0xFF;
 230:..\lvgl\lv_draw\../lv_misc/lv_color.h **** #elif LV_COLOR_DEPTH == 8
 231:..\lvgl\lv_draw\../lv_misc/lv_color.h ****     return color.full;
ARM GAS  C:\Users\d3bug\AppData\Local\Temp\cc5D6foa.s 			page 21


 232:..\lvgl\lv_draw\../lv_misc/lv_color.h **** #elif LV_COLOR_DEPTH == 16
 233:..\lvgl\lv_draw\../lv_misc/lv_color.h **** 
 234:..\lvgl\lv_draw\../lv_misc/lv_color.h **** #  if LV_COLOR_16_SWAP == 0
 235:..\lvgl\lv_draw\../lv_misc/lv_color.h ****     lv_color8_t ret;
 236:..\lvgl\lv_draw\../lv_misc/lv_color.h ****     ret.red = color.red >> 2;       /* 5 - 3  = 2*/
 237:..\lvgl\lv_draw\../lv_misc/lv_color.h ****     ret.green = color.green >> 3;   /* 6 - 3  = 3*/
 238:..\lvgl\lv_draw\../lv_misc/lv_color.h ****     ret.blue = color.blue >> 3;     /* 5 - 2  = 3*/
 239:..\lvgl\lv_draw\../lv_misc/lv_color.h ****     return ret.full;
 240:..\lvgl\lv_draw\../lv_misc/lv_color.h **** #  else
 241:..\lvgl\lv_draw\../lv_misc/lv_color.h ****     lv_color8_t ret;
 242:..\lvgl\lv_draw\../lv_misc/lv_color.h ****     ret.red = color.red >> 2;       /* 5 - 3  = 2*/
 243:..\lvgl\lv_draw\../lv_misc/lv_color.h ****     ret.green = color.green_h;      /* 6 - 3  = 3*/
 244:..\lvgl\lv_draw\../lv_misc/lv_color.h ****     ret.blue = color.blue >> 3;     /* 5 - 2  = 3*/
 245:..\lvgl\lv_draw\../lv_misc/lv_color.h ****     return ret.full;
 246:..\lvgl\lv_draw\../lv_misc/lv_color.h **** #  endif
 247:..\lvgl\lv_draw\../lv_misc/lv_color.h **** #elif LV_COLOR_DEPTH == 32
 248:..\lvgl\lv_draw\../lv_misc/lv_color.h ****     lv_color8_t ret;
 249:..\lvgl\lv_draw\../lv_misc/lv_color.h ****     ret.red = color.red >> 5;       /* 8 - 3  = 5*/
 250:..\lvgl\lv_draw\../lv_misc/lv_color.h ****     ret.green = color.green >> 5;   /* 8 - 3  = 5*/
 251:..\lvgl\lv_draw\../lv_misc/lv_color.h ****     ret.blue = color.blue >> 6;     /* 8 - 2  = 6*/
 252:..\lvgl\lv_draw\../lv_misc/lv_color.h ****     return ret.full;
 253:..\lvgl\lv_draw\../lv_misc/lv_color.h **** #endif
 254:..\lvgl\lv_draw\../lv_misc/lv_color.h **** }
 255:..\lvgl\lv_draw\../lv_misc/lv_color.h **** 
 256:..\lvgl\lv_draw\../lv_misc/lv_color.h **** static inline uint16_t lv_color_to16(lv_color_t color)
 257:..\lvgl\lv_draw\../lv_misc/lv_color.h **** {
 258:..\lvgl\lv_draw\../lv_misc/lv_color.h **** #if LV_COLOR_DEPTH == 1
 259:..\lvgl\lv_draw\../lv_misc/lv_color.h ****     if(color.full == 0) return 0;
 260:..\lvgl\lv_draw\../lv_misc/lv_color.h ****     else return 0xFFFF;
 261:..\lvgl\lv_draw\../lv_misc/lv_color.h **** #elif LV_COLOR_DEPTH == 8
 262:..\lvgl\lv_draw\../lv_misc/lv_color.h ****     lv_color16_t ret;
 263:..\lvgl\lv_draw\../lv_misc/lv_color.h **** #  if LV_COLOR_16_SWAP == 0
 264:..\lvgl\lv_draw\../lv_misc/lv_color.h ****     ret.red = color.red * 4;       /*(2^5 - 1)/(2^3 - 1) = 31/7 = 4*/
 265:..\lvgl\lv_draw\../lv_misc/lv_color.h ****     ret.green = color.green * 9;   /*(2^6 - 1)/(2^3 - 1) = 63/7 = 9*/
 266:..\lvgl\lv_draw\../lv_misc/lv_color.h ****     ret.blue = color.blue * 10;    /*(2^5 - 1)/(2^2 - 1) = 31/3 = 10*/
 267:..\lvgl\lv_draw\../lv_misc/lv_color.h **** #  else
 268:..\lvgl\lv_draw\../lv_misc/lv_color.h ****     ret.red = color.red * 4;
 269:..\lvgl\lv_draw\../lv_misc/lv_color.h ****     uint8_t g_tmp = color.green * 9;
 270:..\lvgl\lv_draw\../lv_misc/lv_color.h ****     ret.green_h = (g_tmp & 0x1F) >> 3;
 271:..\lvgl\lv_draw\../lv_misc/lv_color.h ****     ret.green_l = g_tmp & 0x07;
 272:..\lvgl\lv_draw\../lv_misc/lv_color.h ****     ret.blue = color.blue * 10;
 273:..\lvgl\lv_draw\../lv_misc/lv_color.h **** #  endif
 274:..\lvgl\lv_draw\../lv_misc/lv_color.h ****     return ret.full;
 275:..\lvgl\lv_draw\../lv_misc/lv_color.h **** #elif LV_COLOR_DEPTH == 16
 276:..\lvgl\lv_draw\../lv_misc/lv_color.h ****     return color.full;
 277:..\lvgl\lv_draw\../lv_misc/lv_color.h **** #elif LV_COLOR_DEPTH == 32
 278:..\lvgl\lv_draw\../lv_misc/lv_color.h ****     lv_color16_t ret;
 279:..\lvgl\lv_draw\../lv_misc/lv_color.h **** #  if LV_COLOR_16_SWAP == 0
 280:..\lvgl\lv_draw\../lv_misc/lv_color.h ****     ret.red = color.red >> 3;       /* 8 - 5  = 3*/
 281:..\lvgl\lv_draw\../lv_misc/lv_color.h ****     ret.green = color.green >> 2;   /* 8 - 6  = 2*/
 282:..\lvgl\lv_draw\../lv_misc/lv_color.h ****     ret.blue = color.blue >> 3;     /* 8 - 5  = 3*/
 283:..\lvgl\lv_draw\../lv_misc/lv_color.h **** #  else
 284:..\lvgl\lv_draw\../lv_misc/lv_color.h ****     ret.red = color.red >> 3;
 285:..\lvgl\lv_draw\../lv_misc/lv_color.h ****     ret.green_h = (color.green & 0xE0) >> 5;
 286:..\lvgl\lv_draw\../lv_misc/lv_color.h ****     ret.green_l = (color.green & 0x1C) >> 2;
 287:..\lvgl\lv_draw\../lv_misc/lv_color.h ****     ret.blue = color.blue >> 3;
 288:..\lvgl\lv_draw\../lv_misc/lv_color.h **** #  endif
ARM GAS  C:\Users\d3bug\AppData\Local\Temp\cc5D6foa.s 			page 22


 289:..\lvgl\lv_draw\../lv_misc/lv_color.h ****     return ret.full;
 290:..\lvgl\lv_draw\../lv_misc/lv_color.h **** #endif
 291:..\lvgl\lv_draw\../lv_misc/lv_color.h **** }
 292:..\lvgl\lv_draw\../lv_misc/lv_color.h **** 
 293:..\lvgl\lv_draw\../lv_misc/lv_color.h **** static inline uint32_t lv_color_to32(lv_color_t color)
 294:..\lvgl\lv_draw\../lv_misc/lv_color.h **** {
 295:..\lvgl\lv_draw\../lv_misc/lv_color.h **** #if LV_COLOR_DEPTH == 1
 296:..\lvgl\lv_draw\../lv_misc/lv_color.h ****     if(color.full == 0) return 0;
 297:..\lvgl\lv_draw\../lv_misc/lv_color.h ****     else return 0xFFFFFFFF;
 298:..\lvgl\lv_draw\../lv_misc/lv_color.h **** #elif LV_COLOR_DEPTH == 8
 299:..\lvgl\lv_draw\../lv_misc/lv_color.h ****     lv_color32_t ret;
 300:..\lvgl\lv_draw\../lv_misc/lv_color.h ****     ret.red = color.red * 36;        /*(2^8 - 1)/(2^3 - 1) = 255/7 = 36*/
 301:..\lvgl\lv_draw\../lv_misc/lv_color.h ****     ret.green = color.green * 36;    /*(2^8 - 1)/(2^3 - 1) = 255/7 = 36*/
 302:..\lvgl\lv_draw\../lv_misc/lv_color.h ****     ret.blue = color.blue * 85;      /*(2^8 - 1)/(2^2 - 1) = 255/3 = 85*/
 303:..\lvgl\lv_draw\../lv_misc/lv_color.h ****     ret.alpha = 0xFF;
 304:..\lvgl\lv_draw\../lv_misc/lv_color.h ****     return ret.full;
 305:..\lvgl\lv_draw\../lv_misc/lv_color.h **** #elif LV_COLOR_DEPTH == 16
 306:..\lvgl\lv_draw\../lv_misc/lv_color.h **** #  if LV_COLOR_16_SWAP == 0
 307:..\lvgl\lv_draw\../lv_misc/lv_color.h ****     lv_color32_t ret;
 308:..\lvgl\lv_draw\../lv_misc/lv_color.h ****     ret.red = color.red * 8;       /*(2^8 - 1)/(2^5 - 1) = 255/31 = 8*/
 309:..\lvgl\lv_draw\../lv_misc/lv_color.h ****     ret.green = color.green * 4;   /*(2^8 - 1)/(2^6 - 1) = 255/63 = 4*/
 310:..\lvgl\lv_draw\../lv_misc/lv_color.h ****     ret.blue = color.blue * 8;     /*(2^8 - 1)/(2^5 - 1) = 255/31 = 8*/
 311:..\lvgl\lv_draw\../lv_misc/lv_color.h ****     ret.alpha = 0xFF;
 312:..\lvgl\lv_draw\../lv_misc/lv_color.h ****     return ret.full;
 313:..\lvgl\lv_draw\../lv_misc/lv_color.h **** #  else
 314:..\lvgl\lv_draw\../lv_misc/lv_color.h ****     lv_color32_t ret;
 315:..\lvgl\lv_draw\../lv_misc/lv_color.h ****     ret.red = color.red * 8;                                    /*(2^8 - 1)/(2^5 - 1) = 255/31 = 8*
 316:..\lvgl\lv_draw\../lv_misc/lv_color.h ****     ret.green = ((color.green_h << 3) + color.green_l) * 4;     /*(2^8 - 1)/(2^6 - 1) = 255/63 = 4*
 317:..\lvgl\lv_draw\../lv_misc/lv_color.h ****     ret.blue = color.blue * 8;                                   /*(2^8 - 1)/(2^5 - 1) = 255/31 = 8
 318:..\lvgl\lv_draw\../lv_misc/lv_color.h ****     ret.alpha = 0xFF;
 319:..\lvgl\lv_draw\../lv_misc/lv_color.h ****     return ret.full;
 320:..\lvgl\lv_draw\../lv_misc/lv_color.h **** #  endif
 321:..\lvgl\lv_draw\../lv_misc/lv_color.h **** #elif LV_COLOR_DEPTH == 32
 322:..\lvgl\lv_draw\../lv_misc/lv_color.h ****     return color.full;
 323:..\lvgl\lv_draw\../lv_misc/lv_color.h **** #endif
 324:..\lvgl\lv_draw\../lv_misc/lv_color.h **** }
 325:..\lvgl\lv_draw\../lv_misc/lv_color.h **** 
 326:..\lvgl\lv_draw\../lv_misc/lv_color.h **** static inline lv_color_t lv_color_mix(lv_color_t c1, lv_color_t c2, uint8_t mix)
 327:..\lvgl\lv_draw\../lv_misc/lv_color.h **** {
 328:..\lvgl\lv_draw\../lv_misc/lv_color.h ****     lv_color_t ret;
 329:..\lvgl\lv_draw\../lv_misc/lv_color.h **** #if LV_COLOR_DEPTH != 1
 330:..\lvgl\lv_draw\../lv_misc/lv_color.h ****     /*LV_COLOR_DEPTH == 8, 16 or 32*/
 331:..\lvgl\lv_draw\../lv_misc/lv_color.h ****     ret.red =   (uint16_t)((uint16_t) c1.red * mix + (c2.red * (255 - mix))) >> 8;
 332:..\lvgl\lv_draw\../lv_misc/lv_color.h **** #  if LV_COLOR_DEPTH == 16 && LV_COLOR_16_SWAP
 333:..\lvgl\lv_draw\../lv_misc/lv_color.h ****     /*If swapped Green is in 2 parts*/
 334:..\lvgl\lv_draw\../lv_misc/lv_color.h ****     uint16_t g_1 = (c1.green_h << 3) + c1.green_l;
 335:..\lvgl\lv_draw\../lv_misc/lv_color.h ****     uint16_t g_2 = (c2.green_h << 3) + c2.green_l;
 336:..\lvgl\lv_draw\../lv_misc/lv_color.h ****     uint16_t g_out = (uint16_t)((uint16_t) g_1 * mix + (g_2 * (255 - mix))) >> 8;
 337:..\lvgl\lv_draw\../lv_misc/lv_color.h ****     ret.green_h = g_out >> 3;
 338:..\lvgl\lv_draw\../lv_misc/lv_color.h ****     ret.green_l = g_out & 0x7;
 339:..\lvgl\lv_draw\../lv_misc/lv_color.h **** #  else
 340:..\lvgl\lv_draw\../lv_misc/lv_color.h ****     ret.green = (uint16_t)((uint16_t) c1.green * mix + (c2.green * (255 - mix))) >> 8;
 341:..\lvgl\lv_draw\../lv_misc/lv_color.h **** #  endif
 342:..\lvgl\lv_draw\../lv_misc/lv_color.h ****     ret.blue =  (uint16_t)((uint16_t) c1.blue * mix + (c2.blue * (255 - mix))) >> 8;
 343:..\lvgl\lv_draw\../lv_misc/lv_color.h **** # if LV_COLOR_DEPTH == 32
 344:..\lvgl\lv_draw\../lv_misc/lv_color.h ****     ret.alpha = 0xFF;
 345:..\lvgl\lv_draw\../lv_misc/lv_color.h **** # endif
ARM GAS  C:\Users\d3bug\AppData\Local\Temp\cc5D6foa.s 			page 23


 346:..\lvgl\lv_draw\../lv_misc/lv_color.h **** #else
 347:..\lvgl\lv_draw\../lv_misc/lv_color.h ****     /*LV_COLOR_DEPTH == 1*/
 348:..\lvgl\lv_draw\../lv_misc/lv_color.h ****     ret.full = mix > LV_OPA_50 ? c1.full : c2.full;
 196              		.loc 3 348 0
 197 00d0 4FFA89F9 		sxtb	r9, r9
 198              	.LVL31:
 199 00d4 B9F1000F 		cmp	r9, #0
 200 00d8 02DA     		bge	.L21
 201              	.LVL32:
 202 00da 0AF0010E 		and	lr, r10, #1
 203 00de 23E0     		b	.L14
 204              	.LVL33:
 205              	.L21:
 206 00e0 4FF0000E 		mov	lr, #0
 207              	.LVL34:
 208              	.LBE50:
 209              	.LBE49:
 630:..\lvgl\lv_draw/lv_draw_vbasic.c ****             lv_color_t opa_tmp = lv_color_mix(color, bg_tmp, opa);
 631:..\lvgl\lv_draw/lv_draw_vbasic.c **** #endif
 632:..\lvgl\lv_draw/lv_draw_vbasic.c ****             for(row = fill_area->y1; row <= fill_area->y2; row++) {
 210              		.loc 1 632 0
 211 00e4 20E0     		b	.L14
 212              	.LVL35:
 213              	.L20:
 633:..\lvgl\lv_draw/lv_draw_vbasic.c ****                 for(col = fill_area->x1; col <= fill_area->x2; col++) {
 214              		.loc 1 633 0
 215 00e6 B7F90030 		ldrsh	r3, [r7]
 216              	.LVL36:
 217 00ea 16E0     		b	.L15
 218              	.L19:
 634:..\lvgl\lv_draw/lv_draw_vbasic.c **** #if LV_COLOR_SCREEN_TRANSP == 0
 635:..\lvgl\lv_draw/lv_draw_vbasic.c ****                     /*If the bg color changed recalculate the result color*/
 636:..\lvgl\lv_draw/lv_draw_vbasic.c ****                     if(mem[col].full != bg_tmp.full) {
 219              		.loc 1 636 0
 220 00ec CE18     		adds	r6, r1, r3
 221 00ee CA5C     		ldrb	r2, [r1, r3]	@ zero_extendqisi2
 222 00f0 6A40     		eors	r2, r2, r5
 223 00f2 12F0010F 		tst	r2, #1
 224 00f6 0CD0     		beq	.L16
 637:..\lvgl\lv_draw/lv_draw_vbasic.c ****                         bg_tmp = mem[col];
 225              		.loc 1 637 0
 226 00f8 CA5C     		ldrb	r2, [r1, r3]	@ zero_extendqisi2
 227 00fa 1546     		mov	r5, r2
 228              	.LVL37:
 229              	.LBB51:
 230              	.LBB52:
 231              		.loc 3 348 0
 232 00fc B9F1000F 		cmp	r9, #0
 233 0100 02DA     		bge	.L17
 234 0102 0AF00102 		and	r2, r10, #1
 235 0106 01E0     		b	.L18
 236              	.L17:
 237 0108 02F00102 		and	r2, r2, #1
 238              	.L18:
 239 010c 62F30004 		bfi	r4, r2, #0, #1
 240 0110 A646     		mov	lr, r4
 241              	.LVL38:
ARM GAS  C:\Users\d3bug\AppData\Local\Temp\cc5D6foa.s 			page 24


 242              	.L16:
 243              	.LBE52:
 244              	.LBE51:
 638:..\lvgl\lv_draw/lv_draw_vbasic.c ****                         opa_tmp = lv_color_mix(color, bg_tmp, opa);
 639:..\lvgl\lv_draw/lv_draw_vbasic.c ****                     }
 640:..\lvgl\lv_draw/lv_draw_vbasic.c **** 
 641:..\lvgl\lv_draw/lv_draw_vbasic.c ****                     mem[col] = opa_tmp;
 245              		.loc 1 641 0 discriminator 2
 246 0112 86F800E0 		strb	lr, [r6]
 633:..\lvgl\lv_draw/lv_draw_vbasic.c **** #if LV_COLOR_SCREEN_TRANSP == 0
 247              		.loc 1 633 0 discriminator 2
 248 0116 0133     		adds	r3, r3, #1
 249              	.LVL39:
 250 0118 1BB2     		sxth	r3, r3
 251              	.LVL40:
 252              	.L15:
 633:..\lvgl\lv_draw/lv_draw_vbasic.c **** #if LV_COLOR_SCREEN_TRANSP == 0
 253              		.loc 1 633 0 is_stmt 0 discriminator 1
 254 011a B7F90420 		ldrsh	r2, [r7, #4]
 255 011e 9342     		cmp	r3, r2
 256 0120 E4DD     		ble	.L19
 642:..\lvgl\lv_draw/lv_draw_vbasic.c **** 
 643:..\lvgl\lv_draw/lv_draw_vbasic.c **** #else
 644:..\lvgl\lv_draw/lv_draw_vbasic.c ****                     mem[col] = color_mix_2_alpha(mem[col], mem[col].alpha, color, opa);
 645:..\lvgl\lv_draw/lv_draw_vbasic.c **** #endif
 646:..\lvgl\lv_draw/lv_draw_vbasic.c ****                 }
 647:..\lvgl\lv_draw/lv_draw_vbasic.c ****                 mem += mem_width;
 257              		.loc 1 647 0 is_stmt 1 discriminator 2
 258 0122 4144     		add	r1, r1, r8
 259              	.LVL41:
 632:..\lvgl\lv_draw/lv_draw_vbasic.c ****                 for(col = fill_area->x1; col <= fill_area->x2; col++) {
 260              		.loc 1 632 0 discriminator 2
 261 0124 0130     		adds	r0, r0, #1
 262              	.LVL42:
 263 0126 00B2     		sxth	r0, r0
 264              	.LVL43:
 265              	.L14:
 632:..\lvgl\lv_draw/lv_draw_vbasic.c ****                 for(col = fill_area->x1; col <= fill_area->x2; col++) {
 266              		.loc 1 632 0 is_stmt 0 discriminator 1
 267 0128 B7F90630 		ldrsh	r3, [r7, #6]
 268 012c 9842     		cmp	r0, r3
 269 012e DADD     		ble	.L20
 270              	.LVL44:
 271              	.L1:
 272              	.LBE48:
 648:..\lvgl\lv_draw/lv_draw_vbasic.c ****             }
 649:..\lvgl\lv_draw/lv_draw_vbasic.c ****         }
 650:..\lvgl\lv_draw/lv_draw_vbasic.c ****     }
 651:..\lvgl\lv_draw/lv_draw_vbasic.c **** }
 273              		.loc 1 651 0 is_stmt 1
 274 0130 05B0     		add	sp, sp, #20
 275              		.cfi_def_cfa_offset 36
 276              		@ sp needed
 277 0132 BDE8F08F 		pop	{r4, r5, r6, r7, r8, r9, r10, fp, pc}
 278              		.cfi_endproc
 279              	.LFE17:
 280              		.size	sw_color_fill, .-sw_color_fill
ARM GAS  C:\Users\d3bug\AppData\Local\Temp\cc5D6foa.s 			page 25


 281 0136 00BF     		.section	.text.sw_mem_blend,"ax",%progbits
 282              		.align	2
 283              		.thumb
 284              		.thumb_func
 285              		.type	sw_mem_blend, %function
 286              	sw_mem_blend:
 287              	.LFB16:
 571:..\lvgl\lv_draw/lv_draw_vbasic.c ****     if(opa == LV_OPA_COVER) {
 288              		.loc 1 571 0
 289              		.cfi_startproc
 290              		@ args = 0, pretend = 0, frame = 0
 291              		@ frame_needed = 0, uses_anonymous_args = 0
 292              	.LVL45:
 293 0000 F8B5     		push	{r3, r4, r5, r6, r7, lr}
 294              		.cfi_def_cfa_offset 24
 295              		.cfi_offset 3, -24
 296              		.cfi_offset 4, -20
 297              		.cfi_offset 5, -16
 298              		.cfi_offset 6, -12
 299              		.cfi_offset 7, -8
 300              		.cfi_offset 14, -4
 572:..\lvgl\lv_draw/lv_draw_vbasic.c ****         memcpy(dest, src, length * sizeof(lv_color_t));
 301              		.loc 1 572 0
 302 0002 FF2B     		cmp	r3, #255
 303 0004 13D1     		bne	.L29
 573:..\lvgl\lv_draw/lv_draw_vbasic.c ****     } else {
 304              		.loc 1 573 0
 305 0006 FFF7FEFF 		bl	memcpy
 306              	.LVL46:
 307 000a F8BD     		pop	{r3, r4, r5, r6, r7, pc}
 308              	.LVL47:
 309              	.L28:
 310              	.LBB53:
 577:..\lvgl\lv_draw/lv_draw_vbasic.c ****         }
 311              		.loc 1 577 0 discriminator 3
 312 000c 0719     		adds	r7, r0, r4
 313 000e 11F804E0 		ldrb	lr, [r1, r4]	@ zero_extendqisi2
 314 0012 055D     		ldrb	r5, [r0, r4]	@ zero_extendqisi2
 315              	.LVL48:
 316              	.LBB54:
 317              	.LBB55:
 318              		.loc 3 348 0 discriminator 3
 319 0014 13F0800F 		tst	r3, #128
 320 0018 02D0     		beq	.L26
 321              		.loc 3 348 0 is_stmt 0
 322 001a 0EF00105 		and	r5, lr, #1
 323 001e 01E0     		b	.L27
 324              	.L26:
 325 0020 05F00105 		and	r5, r5, #1
 326              	.L27:
 327 0024 65F30006 		bfi	r6, r5, #0, #1
 328              	.LVL49:
 329              	.LBE55:
 330              	.LBE54:
 577:..\lvgl\lv_draw/lv_draw_vbasic.c ****         }
 331              		.loc 1 577 0 is_stmt 1
 332 0028 3E70     		strb	r6, [r7]
ARM GAS  C:\Users\d3bug\AppData\Local\Temp\cc5D6foa.s 			page 26


 576:..\lvgl\lv_draw/lv_draw_vbasic.c ****             dest[col] = lv_color_mix(src[col], dest[col], opa);
 333              		.loc 1 576 0
 334 002a 0134     		adds	r4, r4, #1
 335              	.LVL50:
 336 002c 00E0     		b	.L24
 337              	.LVL51:
 338              	.L29:
 339              	.LBE53:
 340 002e 0024     		movs	r4, #0
 341              	.LVL52:
 342              	.L24:
 343              	.LBB56:
 576:..\lvgl\lv_draw/lv_draw_vbasic.c ****             dest[col] = lv_color_mix(src[col], dest[col], opa);
 344              		.loc 1 576 0 is_stmt 0 discriminator 1
 345 0030 9442     		cmp	r4, r2
 346 0032 EBD3     		bcc	.L28
 347 0034 F8BD     		pop	{r3, r4, r5, r6, r7, pc}
 348              	.LBE56:
 349              		.cfi_endproc
 350              	.LFE16:
 351              		.size	sw_mem_blend, .-sw_mem_blend
 352 0036 00BF     		.section	.text.lv_vpx,"ax",%progbits
 353              		.align	2
 354              		.global	lv_vpx
 355              		.thumb
 356              		.thumb_func
 357              		.type	lv_vpx, %function
 358              	lv_vpx:
 359              	.LFB12:
  68:..\lvgl\lv_draw/lv_draw_vbasic.c ****     if(opa < LV_OPA_MIN) return;
 360              		.loc 1 68 0 is_stmt 1
 361              		.cfi_startproc
 362              		@ args = 4, pretend = 0, frame = 0
 363              		@ frame_needed = 0, uses_anonymous_args = 0
 364              	.LVL53:
 365 0000 2DE9F047 		push	{r4, r5, r6, r7, r8, r9, r10, lr}
 366              		.cfi_def_cfa_offset 32
 367              		.cfi_offset 4, -32
 368              		.cfi_offset 5, -28
 369              		.cfi_offset 6, -24
 370              		.cfi_offset 7, -20
 371              		.cfi_offset 8, -16
 372              		.cfi_offset 9, -12
 373              		.cfi_offset 10, -8
 374              		.cfi_offset 14, -4
 375 0004 82B0     		sub	sp, sp, #8
 376              		.cfi_def_cfa_offset 40
 377 0006 9DF82860 		ldrb	r6, [sp, #40]	@ zero_extendqisi2
  69:..\lvgl\lv_draw/lv_draw_vbasic.c ****     if(opa > LV_OPA_MAX) opa = LV_OPA_COVER;
 378              		.loc 1 69 0
 379 000a 0F2E     		cmp	r6, #15
 380 000c 52D9     		bls	.L31
  70:..\lvgl\lv_draw/lv_draw_vbasic.c **** 
 381              		.loc 1 70 0
 382 000e FB2E     		cmp	r6, #251
 383 0010 00D9     		bls	.L33
 384 0012 FF26     		movs	r6, #255
ARM GAS  C:\Users\d3bug\AppData\Local\Temp\cc5D6foa.s 			page 27


 385              	.L33:
 386 0014 1F46     		mov	r7, r3
 387 0016 1446     		mov	r4, r2
 388 0018 8846     		mov	r8, r1
 389 001a 0546     		mov	r5, r0
 390              	.LVL54:
  72:..\lvgl\lv_draw/lv_draw_vbasic.c ****     if(!vdb_p) {
 391              		.loc 1 72 0
 392 001c FFF7FEFF 		bl	lv_vdb_get
 393              	.LVL55:
  73:..\lvgl\lv_draw/lv_draw_vbasic.c ****         LV_LOG_WARN("Invalid VDB pointer");
 394              		.loc 1 73 0
 395 0020 8146     		mov	r9, r0
 396 0022 30B9     		cbnz	r0, .L34
  74:..\lvgl\lv_draw/lv_draw_vbasic.c ****         return;
 397              		.loc 1 74 0
 398 0024 254B     		ldr	r3, .L41
 399 0026 4A22     		movs	r2, #74
 400 0028 2549     		ldr	r1, .L41+4
 401 002a 0220     		movs	r0, #2
 402              	.LVL56:
 403 002c FFF7FEFF 		bl	lv_log_add
 404              	.LVL57:
  75:..\lvgl\lv_draw/lv_draw_vbasic.c ****     }
 405              		.loc 1 75 0
 406 0030 40E0     		b	.L31
 407              	.LVL58:
 408              	.L34:
  79:..\lvgl\lv_draw/lv_draw_vbasic.c ****             y < mask_p->y1 || y > mask_p->y2) {
 409              		.loc 1 79 0
 410 0032 B4F90030 		ldrsh	r3, [r4]
 411 0036 AB42     		cmp	r3, r5
 412 0038 3CDC     		bgt	.L31
  79:..\lvgl\lv_draw/lv_draw_vbasic.c ****             y < mask_p->y1 || y > mask_p->y2) {
 413              		.loc 1 79 0 is_stmt 0 discriminator 1
 414 003a B4F90430 		ldrsh	r3, [r4, #4]
 415 003e 9D42     		cmp	r5, r3
 416 0040 38DC     		bgt	.L31
  80:..\lvgl\lv_draw/lv_draw_vbasic.c ****         return;
 417              		.loc 1 80 0 is_stmt 1 discriminator 2
 418 0042 B4F90230 		ldrsh	r3, [r4, #2]
  79:..\lvgl\lv_draw/lv_draw_vbasic.c ****             y < mask_p->y1 || y > mask_p->y2) {
 419              		.loc 1 79 0 discriminator 2
 420 0046 4345     		cmp	r3, r8
 421 0048 34DC     		bgt	.L31
  80:..\lvgl\lv_draw/lv_draw_vbasic.c ****         return;
 422              		.loc 1 80 0
 423 004a B4F90630 		ldrsh	r3, [r4, #6]
 424 004e 9845     		cmp	r8, r3
 425 0050 30DC     		bgt	.L31
 426              	.LVL59:
 427              	.LBB57:
 428              	.LBB58:
 429              		.loc 2 77 0
 430 0052 B0F904A0 		ldrsh	r10, [r0, #4]
 431 0056 0288     		ldrh	r2, [r0]
 432 0058 C2EB0A0A 		rsb	r10, r2, r10
ARM GAS  C:\Users\d3bug\AppData\Local\Temp\cc5D6foa.s 			page 28


 433 005c 0AF1010A 		add	r10, r10, #1
 434 0060 0FFA8AFA 		sxth	r10, r10
 435              	.LVL60:
 436              	.LBE58:
 437              	.LBE57:
  87:..\lvgl\lv_draw/lv_draw_vbasic.c ****     y -= vdb_p->area.y1;
 438              		.loc 1 87 0
 439 0064 AA1A     		subs	r2, r5, r2
 440 0066 14B2     		sxth	r4, r2
 441              	.LVL61:
  88:..\lvgl\lv_draw/lv_draw_vbasic.c **** 
 442              		.loc 1 88 0
 443 0068 B0F90210 		ldrsh	r1, [r0, #2]
 444 006c C1EB0801 		rsb	r1, r1, r8
 445 0070 0FFA81F8 		sxth	r8, r1
 446              	.LVL62:
  90:..\lvgl\lv_draw/lv_draw_vbasic.c ****     if(disp->driver.vdb_wr) {
 447              		.loc 1 90 0
 448 0074 FFF7FEFF 		bl	lv_disp_get_active
 449              	.LVL63:
  91:..\lvgl\lv_draw/lv_draw_vbasic.c ****         disp->driver.vdb_wr((uint8_t *)vdb_p->buf, vdb_width, x, y, color, opa);
 450              		.loc 1 91 0
 451 0078 C568     		ldr	r5, [r0, #12]
 452 007a 4DB1     		cbz	r5, .L35
  92:..\lvgl\lv_draw/lv_draw_vbasic.c ****     } else {
 453              		.loc 1 92 0
 454 007c D9F80800 		ldr	r0, [r9, #8]
 455              	.LVL64:
 456 0080 0196     		str	r6, [sp, #4]
 457              	.LVL65:
 458 0082 8DF80070 		strb	r7, [sp]
 459 0086 4346     		mov	r3, r8
 460 0088 2246     		mov	r2, r4
 461 008a 5146     		mov	r1, r10
 462 008c A847     		blx	r5
 463              	.LVL66:
 464 008e 11E0     		b	.L31
 465              	.LVL67:
 466              	.L35:
 467              	.LBB59:
  94:..\lvgl\lv_draw/lv_draw_vbasic.c **** #if LV_COLOR_SCREEN_TRANSP == 0
 468              		.loc 1 94 0
 469 0090 D9F80820 		ldr	r2, [r9, #8]
 470 0094 08FB0A44 		mla	r4, r8, r10, r4
 471              	.LVL68:
  96:..\lvgl\lv_draw/lv_draw_vbasic.c ****             *vdb_px_p = color;
 472              		.loc 1 96 0
 473 0098 FF2E     		cmp	r6, #255
 474 009a 01D1     		bne	.L36
 475              	.LVL69:
  97:..\lvgl\lv_draw/lv_draw_vbasic.c ****         } else {
 476              		.loc 1 97 0
 477 009c 1755     		strb	r7, [r2, r4]
 478 009e 09E0     		b	.L31
 479              	.LVL70:
 480              	.L36:
 481 00a0 135D     		ldrb	r3, [r2, r4]	@ zero_extendqisi2
ARM GAS  C:\Users\d3bug\AppData\Local\Temp\cc5D6foa.s 			page 29


 482              	.LVL71:
 483              	.LBB60:
 484              	.LBB61:
 485              		.loc 3 348 0
 486 00a2 16F0800F 		tst	r6, #128
 487 00a6 02D0     		beq	.L37
 488              	.LVL72:
 489 00a8 07F00107 		and	r7, r7, #1
 490              	.LVL73:
 491 00ac 01E0     		b	.L38
 492              	.L37:
 493 00ae 03F00107 		and	r7, r3, #1
 494              	.L38:
 495              	.LVL74:
 496              	.LBE61:
 497              	.LBE60:
  99:..\lvgl\lv_draw/lv_draw_vbasic.c ****         }
 498              		.loc 1 99 0
 499 00b2 1755     		strb	r7, [r2, r4]
 500              	.LVL75:
 501              	.L31:
 502              	.LBE59:
 105:..\lvgl\lv_draw/lv_draw_vbasic.c **** 
 503              		.loc 1 105 0
 504 00b4 02B0     		add	sp, sp, #8
 505              		.cfi_def_cfa_offset 32
 506              		@ sp needed
 507 00b6 BDE8F087 		pop	{r4, r5, r6, r7, r8, r9, r10, pc}
 508              	.LVL76:
 509              	.L42:
 510 00ba 00BF     		.align	2
 511              	.L41:
 512 00bc 00000000 		.word	.LC2
 513 00c0 14000000 		.word	.LC3
 514              		.cfi_endproc
 515              	.LFE12:
 516              		.size	lv_vpx, .-lv_vpx
 517              		.section	.text.lv_vfill,"ax",%progbits
 518              		.align	2
 519              		.global	lv_vfill
 520              		.thumb
 521              		.thumb_func
 522              		.type	lv_vfill, %function
 523              	lv_vfill:
 524              	.LFB13:
 117:..\lvgl\lv_draw/lv_draw_vbasic.c ****     if(opa < LV_OPA_MIN) return;
 525              		.loc 1 117 0
 526              		.cfi_startproc
 527              		@ args = 0, pretend = 0, frame = 16
 528              		@ frame_needed = 0, uses_anonymous_args = 0
 529              	.LVL77:
 118:..\lvgl\lv_draw/lv_draw_vbasic.c ****     if(opa > LV_OPA_MAX) opa = LV_OPA_COVER;
 530              		.loc 1 118 0
 531 0000 0F2B     		cmp	r3, #15
 532 0002 41D9     		bls	.L50
 117:..\lvgl\lv_draw/lv_draw_vbasic.c ****     if(opa < LV_OPA_MIN) return;
 533              		.loc 1 117 0
ARM GAS  C:\Users\d3bug\AppData\Local\Temp\cc5D6foa.s 			page 30


 534 0004 2DE9F041 		push	{r4, r5, r6, r7, r8, lr}
 535              		.cfi_def_cfa_offset 24
 536              		.cfi_offset 4, -24
 537              		.cfi_offset 5, -20
 538              		.cfi_offset 6, -16
 539              		.cfi_offset 7, -12
 540              		.cfi_offset 8, -8
 541              		.cfi_offset 14, -4
 542 0008 86B0     		sub	sp, sp, #24
 543              		.cfi_def_cfa_offset 48
 544 000a 0546     		mov	r5, r0
 545 000c 0E46     		mov	r6, r1
 546 000e 1746     		mov	r7, r2
 547 0010 1C46     		mov	r4, r3
 119:..\lvgl\lv_draw/lv_draw_vbasic.c **** 
 548              		.loc 1 119 0
 549 0012 FB2B     		cmp	r3, #251
 550 0014 00D9     		bls	.L45
 551 0016 FF24     		movs	r4, #255
 552              	.L45:
 553              	.LVL78:
 123:..\lvgl\lv_draw/lv_draw_vbasic.c ****     if(!vdb_p) {
 554              		.loc 1 123 0
 555 0018 FFF7FEFF 		bl	lv_vdb_get
 556              	.LVL79:
 124:..\lvgl\lv_draw/lv_draw_vbasic.c ****         LV_LOG_WARN("Invalid VDB pointer");
 557              		.loc 1 124 0
 558 001c 8046     		mov	r8, r0
 559 001e 30B9     		cbnz	r0, .L46
 125:..\lvgl\lv_draw/lv_draw_vbasic.c ****         return;
 560              		.loc 1 125 0
 561 0020 1A4B     		ldr	r3, .L51
 562 0022 7D22     		movs	r2, #125
 563 0024 1A49     		ldr	r1, .L51+4
 564 0026 0220     		movs	r0, #2
 565              	.LVL80:
 566 0028 FFF7FEFF 		bl	lv_log_add
 567              	.LVL81:
 126:..\lvgl\lv_draw/lv_draw_vbasic.c ****     }
 568              		.loc 1 126 0
 569 002c 29E0     		b	.L43
 570              	.LVL82:
 571              	.L46:
 132:..\lvgl\lv_draw/lv_draw_vbasic.c **** 
 572              		.loc 1 132 0
 573 002e 3246     		mov	r2, r6
 574 0030 2946     		mov	r1, r5
 575 0032 04A8     		add	r0, sp, #16
 576              	.LVL83:
 577 0034 FFF7FEFF 		bl	lv_area_intersect
 578              	.LVL84:
 135:..\lvgl\lv_draw/lv_draw_vbasic.c **** 
 579              		.loc 1 135 0
 580 0038 18B3     		cbz	r0, .L43
 138:..\lvgl\lv_draw/lv_draw_vbasic.c ****     vdb_rel_a.y1 = res_a.y1 - vdb_p->area.y1;
 581              		.loc 1 138 0
 582 003a BDF91030 		ldrsh	r3, [sp, #16]
ARM GAS  C:\Users\d3bug\AppData\Local\Temp\cc5D6foa.s 			page 31


 583 003e B8F90020 		ldrsh	r2, [r8]
 584 0042 9B1A     		subs	r3, r3, r2
 585 0044 ADF80830 		strh	r3, [sp, #8]	@ movhi
 139:..\lvgl\lv_draw/lv_draw_vbasic.c ****     vdb_rel_a.x2 = res_a.x2 - vdb_p->area.x1;
 586              		.loc 1 139 0
 587 0048 BDF91230 		ldrsh	r3, [sp, #18]
 588 004c B8F90220 		ldrsh	r2, [r8, #2]
 589 0050 9B1A     		subs	r3, r3, r2
 590 0052 ADF80A30 		strh	r3, [sp, #10]	@ movhi
 140:..\lvgl\lv_draw/lv_draw_vbasic.c ****     vdb_rel_a.y2 = res_a.y2 - vdb_p->area.y1;
 591              		.loc 1 140 0
 592 0056 BDF91430 		ldrsh	r3, [sp, #20]
 593 005a B8F90020 		ldrsh	r2, [r8]
 594 005e 9B1A     		subs	r3, r3, r2
 595 0060 ADF80C30 		strh	r3, [sp, #12]	@ movhi
 141:..\lvgl\lv_draw/lv_draw_vbasic.c **** 
 596              		.loc 1 141 0
 597 0064 BDF91630 		ldrsh	r3, [sp, #22]
 598 0068 B8F90220 		ldrsh	r2, [r8, #2]
 599 006c 9B1A     		subs	r3, r3, r2
 600 006e ADF80E30 		strh	r3, [sp, #14]	@ movhi
 143:..\lvgl\lv_draw/lv_draw_vbasic.c ****     uint32_t vdb_width = lv_area_get_width(&vdb_p->area);
 601              		.loc 1 143 0
 602 0072 D8F80810 		ldr	r1, [r8, #8]
 603              	.LVL85:
 220:..\lvgl\lv_draw/lv_draw_vbasic.c **** #endif
 604              		.loc 1 220 0
 605 0076 0094     		str	r4, [sp]
 606              	.LVL86:
 607 0078 3B46     		mov	r3, r7
 608 007a 02AA     		add	r2, sp, #8
 609 007c 4046     		mov	r0, r8
 610              	.LVL87:
 611 007e FFF7FEFF 		bl	sw_color_fill
 612              	.LVL88:
 613              	.L43:
 222:..\lvgl\lv_draw/lv_draw_vbasic.c **** 
 614              		.loc 1 222 0
 615 0082 06B0     		add	sp, sp, #24
 616              		.cfi_def_cfa_offset 24
 617              		@ sp needed
 618 0084 BDE8F081 		pop	{r4, r5, r6, r7, r8, pc}
 619              	.LVL89:
 620              	.L50:
 621              		.cfi_def_cfa_offset 0
 622              		.cfi_restore 4
 623              		.cfi_restore 5
 624              		.cfi_restore 6
 625              		.cfi_restore 7
 626              		.cfi_restore 8
 627              		.cfi_restore 14
 628 0088 7047     		bx	lr
 629              	.L52:
 630 008a 00BF     		.align	2
 631              	.L51:
 632 008c 00000000 		.word	.LC2
 633 0090 14000000 		.word	.LC3
ARM GAS  C:\Users\d3bug\AppData\Local\Temp\cc5D6foa.s 			page 32


 634              		.cfi_endproc
 635              	.LFE13:
 636              		.size	lv_vfill, .-lv_vfill
 637              		.section	.text.lv_vletter,"ax",%progbits
 638              		.align	2
 639              		.global	lv_vletter
 640              		.thumb
 641              		.thumb_func
 642              		.type	lv_vletter, %function
 643              	lv_vletter:
 644              	.LFB14:
 236:..\lvgl\lv_draw/lv_draw_vbasic.c ****     const uint8_t bpp1_opa_table[2] =  {0, 255};                   /*Opacity mapping with bpp = 1 (
 645              		.loc 1 236 0
 646              		.cfi_startproc
 647              		@ args = 8, pretend = 0, frame = 112
 648              		@ frame_needed = 0, uses_anonymous_args = 0
 649              	.LVL90:
 650 0000 2DE9F04F 		push	{r4, r5, r6, r7, r8, r9, r10, fp, lr}
 651              		.cfi_def_cfa_offset 36
 652              		.cfi_offset 4, -36
 653              		.cfi_offset 5, -32
 654              		.cfi_offset 6, -28
 655              		.cfi_offset 7, -24
 656              		.cfi_offset 8, -20
 657              		.cfi_offset 9, -16
 658              		.cfi_offset 10, -12
 659              		.cfi_offset 11, -8
 660              		.cfi_offset 14, -4
 661 0004 9FB0     		sub	sp, sp, #124
 662              		.cfi_def_cfa_offset 160
 663 0006 8646     		mov	lr, r0
 664 0008 0D46     		mov	r5, r1
 665 000a 1446     		mov	r4, r2
 666 000c 1F46     		mov	r7, r3
 667 000e 9DF8A030 		ldrb	r3, [sp, #160]	@ zero_extendqisi2
 668              	.LVL91:
 669 0012 8DF81030 		strb	r3, [sp, #16]
 670 0016 9DF8A4B0 		ldrb	fp, [sp, #164]	@ zero_extendqisi2
 237:..\lvgl\lv_draw/lv_draw_vbasic.c ****     const uint8_t bpp2_opa_table[4] =  {0, 85, 170, 255};          /*Opacity mapping with bpp = 2*/
 671              		.loc 1 237 0
 672 001a 0023     		movs	r3, #0
 673 001c 8DF87430 		strb	r3, [sp, #116]
 674 0020 FF23     		movs	r3, #255
 675 0022 8DF87530 		strb	r3, [sp, #117]
 238:..\lvgl\lv_draw/lv_draw_vbasic.c ****     const uint8_t bpp4_opa_table[16] = {0,   17,  34,  51,         /*Opacity mapping with bpp = 4*/
 676              		.loc 1 238 0
 677 0026 AD4B     		ldr	r3, .L91
 678 0028 1868     		ldr	r0, [r3]	@ unaligned
 679              	.LVL92:
 680 002a 1C90     		str	r0, [sp, #112]	@ unaligned
 239:..\lvgl\lv_draw/lv_draw_vbasic.c ****                                         68,  85,  102, 119,
 681              		.loc 1 239 0
 682 002c 18AE     		add	r6, sp, #96
 683 002e 53F8040F 		ldr	r0, [r3, #4]!	@ unaligned
 684 0032 5968     		ldr	r1, [r3, #4]	@ unaligned
 685              	.LVL93:
 686 0034 9A68     		ldr	r2, [r3, #8]	@ unaligned
ARM GAS  C:\Users\d3bug\AppData\Local\Temp\cc5D6foa.s 			page 33


 687              	.LVL94:
 688 0036 DB68     		ldr	r3, [r3, #12]	@ unaligned
 689 0038 0FC6     		stmia	r6!, {r0, r1, r2, r3}
 244:..\lvgl\lv_draw/lv_draw_vbasic.c ****     if(opa > LV_OPA_MAX) opa = LV_OPA_COVER;
 690              		.loc 1 244 0
 691 003a BBF10F0F 		cmp	fp, #15
 692 003e 40F28B81 		bls	.L53
 245:..\lvgl\lv_draw/lv_draw_vbasic.c **** 
 693              		.loc 1 245 0
 694 0042 BBF1FB0F 		cmp	fp, #251
 695 0046 01D9     		bls	.L55
 696 0048 4FF0FF0B 		mov	fp, #255
 697              	.L55:
 698              	.LVL95:
 247:..\lvgl\lv_draw/lv_draw_vbasic.c ****         LV_LOG_WARN("Font: character's bitmap not found");
 699              		.loc 1 247 0
 700 004c 34B9     		cbnz	r4, .L56
 248:..\lvgl\lv_draw/lv_draw_vbasic.c ****         return;
 701              		.loc 1 248 0
 702 004e A44B     		ldr	r3, .L91+4
 703 0050 F822     		movs	r2, #248
 704 0052 A449     		ldr	r1, .L91+8
 705 0054 0220     		movs	r0, #2
 706 0056 FFF7FEFF 		bl	lv_log_add
 707              	.LVL96:
 249:..\lvgl\lv_draw/lv_draw_vbasic.c ****     }
 708              		.loc 1 249 0
 709 005a 7DE1     		b	.L53
 710              	.LVL97:
 711              	.L56:
 252:..\lvgl\lv_draw/lv_draw_vbasic.c ****     lv_coord_t pos_y = pos_p->y;
 712              		.loc 1 252 0
 713 005c BEF90030 		ldrsh	r3, [lr]
 714 0060 0693     		str	r3, [sp, #24]
 715              	.LVL98:
 253:..\lvgl\lv_draw/lv_draw_vbasic.c ****     uint8_t letter_w = lv_font_get_real_width(font_p, letter);
 716              		.loc 1 253 0
 717 0062 BEF90230 		ldrsh	r3, [lr, #2]
 718 0066 0993     		str	r3, [sp, #36]
 719              	.LVL99:
 254:..\lvgl\lv_draw/lv_draw_vbasic.c ****     uint8_t letter_h = lv_font_get_height(font_p);
 720              		.loc 1 254 0
 721 0068 3946     		mov	r1, r7
 722 006a 2046     		mov	r0, r4
 723 006c FFF7FEFF 		bl	lv_font_get_real_width
 724              	.LVL100:
 725 0070 8046     		mov	r8, r0
 726              	.LVL101:
 727              	.LBB62:
 728              	.LBB63:
 729              		.file 4 "..\\lvgl\\lv_draw\\../lv_misc/lv_font.h"
   1:..\lvgl\lv_draw\../lv_misc/lv_font.h **** /**
   2:..\lvgl\lv_draw\../lv_misc/lv_font.h ****  * @file lv_font.h
   3:..\lvgl\lv_draw\../lv_misc/lv_font.h ****  *
   4:..\lvgl\lv_draw\../lv_misc/lv_font.h ****  */
   5:..\lvgl\lv_draw\../lv_misc/lv_font.h **** 
   6:..\lvgl\lv_draw\../lv_misc/lv_font.h **** #ifndef LV_FONT_H
ARM GAS  C:\Users\d3bug\AppData\Local\Temp\cc5D6foa.s 			page 34


   7:..\lvgl\lv_draw\../lv_misc/lv_font.h **** #define LV_FONT_H
   8:..\lvgl\lv_draw\../lv_misc/lv_font.h **** 
   9:..\lvgl\lv_draw\../lv_misc/lv_font.h **** #ifdef __cplusplus
  10:..\lvgl\lv_draw\../lv_misc/lv_font.h **** extern "C" {
  11:..\lvgl\lv_draw\../lv_misc/lv_font.h **** #endif
  12:..\lvgl\lv_draw\../lv_misc/lv_font.h **** 
  13:..\lvgl\lv_draw\../lv_misc/lv_font.h **** 
  14:..\lvgl\lv_draw\../lv_misc/lv_font.h **** /*********************
  15:..\lvgl\lv_draw\../lv_misc/lv_font.h ****  *      INCLUDES
  16:..\lvgl\lv_draw\../lv_misc/lv_font.h ****  *********************/
  17:..\lvgl\lv_draw\../lv_misc/lv_font.h **** #ifdef LV_CONF_INCLUDE_SIMPLE
  18:..\lvgl\lv_draw\../lv_misc/lv_font.h **** #include "lv_conf.h"
  19:..\lvgl\lv_draw\../lv_misc/lv_font.h **** #else
  20:..\lvgl\lv_draw\../lv_misc/lv_font.h **** #include "../../lv_conf.h"
  21:..\lvgl\lv_draw\../lv_misc/lv_font.h **** #endif
  22:..\lvgl\lv_draw\../lv_misc/lv_font.h **** 
  23:..\lvgl\lv_draw\../lv_misc/lv_font.h **** #include <stdint.h>
  24:..\lvgl\lv_draw\../lv_misc/lv_font.h **** #include <stddef.h>
  25:..\lvgl\lv_draw\../lv_misc/lv_font.h **** #include <stdbool.h>
  26:..\lvgl\lv_draw\../lv_misc/lv_font.h **** 
  27:..\lvgl\lv_draw\../lv_misc/lv_font.h **** #include "lv_symbol_def.h"
  28:..\lvgl\lv_draw\../lv_misc/lv_font.h **** 
  29:..\lvgl\lv_draw\../lv_misc/lv_font.h **** /*********************
  30:..\lvgl\lv_draw\../lv_misc/lv_font.h ****  *      DEFINES
  31:..\lvgl\lv_draw\../lv_misc/lv_font.h ****  *********************/
  32:..\lvgl\lv_draw\../lv_misc/lv_font.h **** 
  33:..\lvgl\lv_draw\../lv_misc/lv_font.h **** /**********************
  34:..\lvgl\lv_draw\../lv_misc/lv_font.h ****  *      TYPEDEFS
  35:..\lvgl\lv_draw\../lv_misc/lv_font.h ****  **********************/
  36:..\lvgl\lv_draw\../lv_misc/lv_font.h **** 
  37:..\lvgl\lv_draw\../lv_misc/lv_font.h **** typedef struct
  38:..\lvgl\lv_draw\../lv_misc/lv_font.h **** {
  39:..\lvgl\lv_draw\../lv_misc/lv_font.h ****     uint32_t w_px         :8;
  40:..\lvgl\lv_draw\../lv_misc/lv_font.h ****     uint32_t glyph_index  :24;
  41:..\lvgl\lv_draw\../lv_misc/lv_font.h **** } lv_font_glyph_dsc_t;
  42:..\lvgl\lv_draw\../lv_misc/lv_font.h **** 
  43:..\lvgl\lv_draw\../lv_misc/lv_font.h **** typedef struct
  44:..\lvgl\lv_draw\../lv_misc/lv_font.h **** {
  45:..\lvgl\lv_draw\../lv_misc/lv_font.h ****     uint32_t unicode         :21;
  46:..\lvgl\lv_draw\../lv_misc/lv_font.h ****     uint32_t glyph_dsc_index :11;
  47:..\lvgl\lv_draw\../lv_misc/lv_font.h **** } lv_font_unicode_map_t;
  48:..\lvgl\lv_draw\../lv_misc/lv_font.h **** 
  49:..\lvgl\lv_draw\../lv_misc/lv_font.h **** typedef struct _lv_font_struct
  50:..\lvgl\lv_draw\../lv_misc/lv_font.h **** {
  51:..\lvgl\lv_draw\../lv_misc/lv_font.h ****     uint32_t unicode_first;
  52:..\lvgl\lv_draw\../lv_misc/lv_font.h ****     uint32_t unicode_last;
  53:..\lvgl\lv_draw\../lv_misc/lv_font.h ****     const uint8_t * glyph_bitmap;
  54:..\lvgl\lv_draw\../lv_misc/lv_font.h ****     const lv_font_glyph_dsc_t * glyph_dsc;
  55:..\lvgl\lv_draw\../lv_misc/lv_font.h ****     const uint32_t * unicode_list;
  56:..\lvgl\lv_draw\../lv_misc/lv_font.h ****     const uint8_t * (*get_bitmap)(const struct _lv_font_struct *,uint32_t);     /*Get a glyph's  bi
  57:..\lvgl\lv_draw\../lv_misc/lv_font.h ****     int16_t (*get_width)(const struct _lv_font_struct *,uint32_t);        /*Get a glyph's with with
  58:..\lvgl\lv_draw\../lv_misc/lv_font.h ****     struct _lv_font_struct * next_page;    /*Pointer to a font extension*/
  59:..\lvgl\lv_draw\../lv_misc/lv_font.h ****     uint32_t h_px       :8;
  60:..\lvgl\lv_draw\../lv_misc/lv_font.h ****     uint32_t bpp        :4;                /*Bit per pixel: 1, 2 or 4*/
  61:..\lvgl\lv_draw\../lv_misc/lv_font.h ****     uint32_t monospace  :8;                /*Fix width (0: normal width)*/
  62:..\lvgl\lv_draw\../lv_misc/lv_font.h ****     uint16_t glyph_cnt;                    /*Number of glyphs (letters) in the font*/
  63:..\lvgl\lv_draw\../lv_misc/lv_font.h **** } lv_font_t;
ARM GAS  C:\Users\d3bug\AppData\Local\Temp\cc5D6foa.s 			page 35


  64:..\lvgl\lv_draw\../lv_misc/lv_font.h **** 
  65:..\lvgl\lv_draw\../lv_misc/lv_font.h **** /**********************
  66:..\lvgl\lv_draw\../lv_misc/lv_font.h ****  * GLOBAL PROTOTYPES
  67:..\lvgl\lv_draw\../lv_misc/lv_font.h ****  **********************/
  68:..\lvgl\lv_draw\../lv_misc/lv_font.h **** 
  69:..\lvgl\lv_draw\../lv_misc/lv_font.h **** /**
  70:..\lvgl\lv_draw\../lv_misc/lv_font.h ****  * Initialize the fonts
  71:..\lvgl\lv_draw\../lv_misc/lv_font.h ****  */
  72:..\lvgl\lv_draw\../lv_misc/lv_font.h **** void lv_font_init(void);
  73:..\lvgl\lv_draw\../lv_misc/lv_font.h **** 
  74:..\lvgl\lv_draw\../lv_misc/lv_font.h **** /**
  75:..\lvgl\lv_draw\../lv_misc/lv_font.h ****  * Add a font to an other to extend the character set.
  76:..\lvgl\lv_draw\../lv_misc/lv_font.h ****  * @param child the font to add
  77:..\lvgl\lv_draw\../lv_misc/lv_font.h ****  * @param parent this font will be extended. Using it later will contain the characters from `child
  78:..\lvgl\lv_draw\../lv_misc/lv_font.h ****  */
  79:..\lvgl\lv_draw\../lv_misc/lv_font.h **** void lv_font_add(lv_font_t *child, lv_font_t *parent);
  80:..\lvgl\lv_draw\../lv_misc/lv_font.h **** 
  81:..\lvgl\lv_draw\../lv_misc/lv_font.h **** /**
  82:..\lvgl\lv_draw\../lv_misc/lv_font.h ****  * Remove a font from a character set.
  83:..\lvgl\lv_draw\../lv_misc/lv_font.h ****  * @param child the font to remove
  84:..\lvgl\lv_draw\../lv_misc/lv_font.h ****  * @param parent remove `child` from here
  85:..\lvgl\lv_draw\../lv_misc/lv_font.h ****  */
  86:..\lvgl\lv_draw\../lv_misc/lv_font.h **** void lv_font_remove(lv_font_t * child, lv_font_t * parent);
  87:..\lvgl\lv_draw\../lv_misc/lv_font.h **** 
  88:..\lvgl\lv_draw\../lv_misc/lv_font.h **** /**
  89:..\lvgl\lv_draw\../lv_misc/lv_font.h ****  * Tells if font which contains `letter` is monospace or not
  90:..\lvgl\lv_draw\../lv_misc/lv_font.h ****  * @param font_p point to font
  91:..\lvgl\lv_draw\../lv_misc/lv_font.h ****  * @param letter an UNICODE character code
  92:..\lvgl\lv_draw\../lv_misc/lv_font.h ****  * @return true: the letter is monospace; false not monospace
  93:..\lvgl\lv_draw\../lv_misc/lv_font.h ****  */
  94:..\lvgl\lv_draw\../lv_misc/lv_font.h **** bool lv_font_is_monospace(const lv_font_t * font_p, uint32_t letter);
  95:..\lvgl\lv_draw\../lv_misc/lv_font.h **** 
  96:..\lvgl\lv_draw\../lv_misc/lv_font.h **** /**
  97:..\lvgl\lv_draw\../lv_misc/lv_font.h ****  * Return with the bitmap of a font.
  98:..\lvgl\lv_draw\../lv_misc/lv_font.h ****  * @param font_p pointer to a font
  99:..\lvgl\lv_draw\../lv_misc/lv_font.h ****  * @param letter an UNICODE character code
 100:..\lvgl\lv_draw\../lv_misc/lv_font.h ****  * @return  pointer to the bitmap of the letter
 101:..\lvgl\lv_draw\../lv_misc/lv_font.h ****  */
 102:..\lvgl\lv_draw\../lv_misc/lv_font.h **** const uint8_t * lv_font_get_bitmap(const lv_font_t * font_p, uint32_t letter);
 103:..\lvgl\lv_draw\../lv_misc/lv_font.h **** 
 104:..\lvgl\lv_draw\../lv_misc/lv_font.h **** /**
 105:..\lvgl\lv_draw\../lv_misc/lv_font.h ****  * Get the width of a letter in a font. If `monospace` is set then return with it.
 106:..\lvgl\lv_draw\../lv_misc/lv_font.h ****  * @param font_p pointer to a font
 107:..\lvgl\lv_draw\../lv_misc/lv_font.h ****  * @param letter an UNICODE character code
 108:..\lvgl\lv_draw\../lv_misc/lv_font.h ****  * @return the width of a letter
 109:..\lvgl\lv_draw\../lv_misc/lv_font.h ****  */
 110:..\lvgl\lv_draw\../lv_misc/lv_font.h **** uint8_t lv_font_get_width(const lv_font_t * font_p, uint32_t letter);
 111:..\lvgl\lv_draw\../lv_misc/lv_font.h **** 
 112:..\lvgl\lv_draw\../lv_misc/lv_font.h **** 
 113:..\lvgl\lv_draw\../lv_misc/lv_font.h **** /**
 114:..\lvgl\lv_draw\../lv_misc/lv_font.h ****  * Get the width of the letter without overwriting it with the `monospace` attribute
 115:..\lvgl\lv_draw\../lv_misc/lv_font.h ****  * @param font_p pointer to a font
 116:..\lvgl\lv_draw\../lv_misc/lv_font.h ****  * @param letter an UNICODE character code
 117:..\lvgl\lv_draw\../lv_misc/lv_font.h ****  * @return the width of a letter
 118:..\lvgl\lv_draw\../lv_misc/lv_font.h ****  */
 119:..\lvgl\lv_draw\../lv_misc/lv_font.h **** uint8_t lv_font_get_real_width(const lv_font_t * font_p, uint32_t letter);
 120:..\lvgl\lv_draw\../lv_misc/lv_font.h **** 
ARM GAS  C:\Users\d3bug\AppData\Local\Temp\cc5D6foa.s 			page 36


 121:..\lvgl\lv_draw\../lv_misc/lv_font.h **** /**
 122:..\lvgl\lv_draw\../lv_misc/lv_font.h ****  * Get the height of a font
 123:..\lvgl\lv_draw\../lv_misc/lv_font.h ****  * @param font_p pointer to a font
 124:..\lvgl\lv_draw\../lv_misc/lv_font.h ****  * @return the height of a font
 125:..\lvgl\lv_draw\../lv_misc/lv_font.h ****  */
 126:..\lvgl\lv_draw\../lv_misc/lv_font.h **** static inline uint8_t lv_font_get_height(const lv_font_t * font_p)
 127:..\lvgl\lv_draw\../lv_misc/lv_font.h **** {
 128:..\lvgl\lv_draw\../lv_misc/lv_font.h ****     return font_p->h_px;
 730              		.loc 4 128 0
 731 0072 94F82060 		ldrb	r6, [r4, #32]	@ zero_extendqisi2
 732              	.LVL102:
 733              	.LBE63:
 734              	.LBE62:
 256:..\lvgl\lv_draw/lv_draw_vbasic.c ****     const uint8_t * bpp_opa_table;
 735              		.loc 1 256 0
 736 0076 3946     		mov	r1, r7
 737 0078 2046     		mov	r0, r4
 738 007a FFF7FEFF 		bl	lv_font_get_bpp
 739              	.LVL103:
 740 007e 0390     		str	r0, [sp, #12]
 741              	.LVL104:
 261:..\lvgl\lv_draw/lv_draw_vbasic.c ****         pos_x += (lv_font_get_width(font_p, letter) - letter_w) / 2;
 742              		.loc 1 261 0
 743 0080 3946     		mov	r1, r7
 744 0082 2046     		mov	r0, r4
 745 0084 FFF7FEFF 		bl	lv_font_is_monospace
 746              	.LVL105:
 747 0088 60B1     		cbz	r0, .L57
 262:..\lvgl\lv_draw/lv_draw_vbasic.c ****     }
 748              		.loc 1 262 0
 749 008a 3946     		mov	r1, r7
 750 008c 2046     		mov	r0, r4
 751 008e FFF7FEFF 		bl	lv_font_get_width
 752              	.LVL106:
 753 0092 C8EB0000 		rsb	r0, r8, r0
 754 0096 00EBD070 		add	r0, r0, r0, lsr #31
 755 009a 069B     		ldr	r3, [sp, #24]
 756 009c 03EB6000 		add	r0, r3, r0, asr #1
 757 00a0 03B2     		sxth	r3, r0
 758 00a2 0693     		str	r3, [sp, #24]
 759              	.LVL107:
 760              	.L57:
 266:..\lvgl\lv_draw/lv_draw_vbasic.c ****         case 1:
 761              		.loc 1 266 0
 762 00a4 039B     		ldr	r3, [sp, #12]
 763 00a6 013B     		subs	r3, r3, #1
 764 00a8 072B     		cmp	r3, #7
 765 00aa 00F25581 		bhi	.L53
 766 00ae DFE813F0 		tbh	[pc, r3, lsl #1]
 767              	.L59:
 768 00b2 0800     		.2byte	(.L58-.L59)/2
 769 00b4 1700     		.2byte	(.L87-.L59)/2
 770 00b6 5301     		.2byte	(.L53-.L59)/2
 771 00b8 0D00     		.2byte	(.L61-.L59)/2
 772 00ba 5301     		.2byte	(.L53-.L59)/2
 773 00bc 5301     		.2byte	(.L53-.L59)/2
 774 00be 5301     		.2byte	(.L53-.L59)/2
ARM GAS  C:\Users\d3bug\AppData\Local\Temp\cc5D6foa.s 			page 37


 775 00c0 1200     		.2byte	(.L62-.L59)/2
 776              		.p2align 1
 777              	.L58:
 269:..\lvgl\lv_draw/lv_draw_vbasic.c ****             break;
 778              		.loc 1 269 0
 779 00c2 8023     		movs	r3, #128
 780 00c4 0893     		str	r3, [sp, #32]
 268:..\lvgl\lv_draw/lv_draw_vbasic.c ****             mask_init = 0x80;
 781              		.loc 1 268 0
 782 00c6 1DAB     		add	r3, sp, #116
 783 00c8 0B93     		str	r3, [sp, #44]
 784 00ca 0DE0     		b	.L60
 785              	.L61:
 786              	.LVL108:
 277:..\lvgl\lv_draw/lv_draw_vbasic.c ****             break;
 787              		.loc 1 277 0
 788 00cc F023     		movs	r3, #240
 789 00ce 0893     		str	r3, [sp, #32]
 276:..\lvgl\lv_draw/lv_draw_vbasic.c ****             mask_init = 0xF0;
 790              		.loc 1 276 0
 791 00d0 18AB     		add	r3, sp, #96
 792              	.LVL109:
 793 00d2 0B93     		str	r3, [sp, #44]
 278:..\lvgl\lv_draw/lv_draw_vbasic.c ****         case 8:
 794              		.loc 1 278 0
 795 00d4 08E0     		b	.L60
 796              	.LVL110:
 797              	.L62:
 281:..\lvgl\lv_draw/lv_draw_vbasic.c ****             break;             /*No opa table, pixel value will be used directly*/
 798              		.loc 1 281 0
 799 00d6 FF23     		movs	r3, #255
 800 00d8 0893     		str	r3, [sp, #32]
 280:..\lvgl\lv_draw/lv_draw_vbasic.c ****             mask_init = 0xFF;
 801              		.loc 1 280 0
 802 00da 0023     		movs	r3, #0
 803 00dc 0B93     		str	r3, [sp, #44]
 282:..\lvgl\lv_draw/lv_draw_vbasic.c ****         default:
 804              		.loc 1 282 0
 805 00de 03E0     		b	.L60
 806              	.LVL111:
 807              	.L87:
 273:..\lvgl\lv_draw/lv_draw_vbasic.c ****             break;
 808              		.loc 1 273 0
 809 00e0 C023     		movs	r3, #192
 810 00e2 0893     		str	r3, [sp, #32]
 272:..\lvgl\lv_draw/lv_draw_vbasic.c ****             mask_init = 0xC0;
 811              		.loc 1 272 0
 812 00e4 1CAB     		add	r3, sp, #112
 813 00e6 0B93     		str	r3, [sp, #44]
 814              	.L60:
 815              	.LVL112:
 287:..\lvgl\lv_draw/lv_draw_vbasic.c **** 
 816              		.loc 1 287 0
 817 00e8 3946     		mov	r1, r7
 818 00ea 2046     		mov	r0, r4
 819 00ec FFF7FEFF 		bl	lv_font_get_bitmap
 820              	.LVL113:
ARM GAS  C:\Users\d3bug\AppData\Local\Temp\cc5D6foa.s 			page 38


 289:..\lvgl\lv_draw/lv_draw_vbasic.c **** 
 821              		.loc 1 289 0
 822 00f0 0290     		str	r0, [sp, #8]
 823 00f2 0028     		cmp	r0, #0
 824 00f4 00F03081 		beq	.L53
 292:..\lvgl\lv_draw/lv_draw_vbasic.c ****             pos_y + letter_h < mask_p->y1 || pos_y > mask_p->y2) return;
 825              		.loc 1 292 0
 826 00f8 069A     		ldr	r2, [sp, #24]
 827 00fa 1746     		mov	r7, r2
 828              	.LVL114:
 829 00fc 02EB0804 		add	r4, r2, r8
 830              	.LVL115:
 831 0100 B5F90030 		ldrsh	r3, [r5]
 832 0104 9C42     		cmp	r4, r3
 833 0106 C0F22781 		blt	.L53
 292:..\lvgl\lv_draw/lv_draw_vbasic.c ****             pos_y + letter_h < mask_p->y1 || pos_y > mask_p->y2) return;
 834              		.loc 1 292 0 is_stmt 0 discriminator 1
 835 010a B5F90430 		ldrsh	r3, [r5, #4]
 836 010e 9A42     		cmp	r2, r3
 837 0110 00F32281 		bgt	.L53
 293:..\lvgl\lv_draw/lv_draw_vbasic.c **** 
 838              		.loc 1 293 0 is_stmt 1 discriminator 2
 839 0114 099A     		ldr	r2, [sp, #36]
 840 0116 06EB0209 		add	r9, r6, r2
 841 011a B5F90230 		ldrsh	r3, [r5, #2]
 292:..\lvgl\lv_draw/lv_draw_vbasic.c ****             pos_y + letter_h < mask_p->y1 || pos_y > mask_p->y2) return;
 842              		.loc 1 292 0 discriminator 2
 843 011e 9945     		cmp	r9, r3
 844 0120 C0F21A81 		blt	.L53
 293:..\lvgl\lv_draw/lv_draw_vbasic.c **** 
 845              		.loc 1 293 0
 846 0124 B5F90630 		ldrsh	r3, [r5, #6]
 847 0128 9A42     		cmp	r2, r3
 848 012a 00F31581 		bgt	.L53
 295:..\lvgl\lv_draw/lv_draw_vbasic.c ****     if(!vdb_p) {
 849              		.loc 1 295 0
 850 012e FFF7FEFF 		bl	lv_vdb_get
 851              	.LVL116:
 296:..\lvgl\lv_draw/lv_draw_vbasic.c ****         LV_LOG_WARN("Invalid VDB pointer");
 852              		.loc 1 296 0
 853 0132 0E90     		str	r0, [sp, #56]
 854 0134 38B9     		cbnz	r0, .L63
 297:..\lvgl\lv_draw/lv_draw_vbasic.c ****         return;
 855              		.loc 1 297 0
 856 0136 6C4B     		ldr	r3, .L91+12
 857 0138 40F22912 		movw	r2, #297
 858 013c 6949     		ldr	r1, .L91+8
 859 013e 0220     		movs	r0, #2
 860              	.LVL117:
 861 0140 FFF7FEFF 		bl	lv_log_add
 862              	.LVL118:
 298:..\lvgl\lv_draw/lv_draw_vbasic.c ****     }
 863              		.loc 1 298 0
 864 0144 08E1     		b	.L53
 865              	.LVL119:
 866              	.L63:
 867              	.LBB64:
ARM GAS  C:\Users\d3bug\AppData\Local\Temp\cc5D6foa.s 			page 39


 868              	.LBB65:
 869              		.loc 2 77 0
 870 0146 0E99     		ldr	r1, [sp, #56]
 871 0148 B1F90430 		ldrsh	r3, [r1, #4]
 872 014c B1F90000 		ldrsh	r0, [r1]
 873              	.LVL120:
 874 0150 1B1A     		subs	r3, r3, r0
 875 0152 0133     		adds	r3, r3, #1
 876 0154 1BB2     		sxth	r3, r3
 877 0156 0F93     		str	r3, [sp, #60]
 878              	.LVL121:
 879              	.LBE65:
 880              	.LBE64:
 302:..\lvgl\lv_draw/lv_draw_vbasic.c ****     lv_coord_t col, row;
 881              		.loc 1 302 0
 882 0158 D1F808E0 		ldr	lr, [r1, #8]
 883              	.LVL122:
 308:..\lvgl\lv_draw/lv_draw_vbasic.c ****     if((letter_w * bpp) & 0x7) width_byte_bpp++;
 884              		.loc 1 308 0
 885 015c 039B     		ldr	r3, [sp, #12]
 886 015e 9A46     		mov	r10, r3
 887 0160 03FB08F3 		mul	r3, r3, r8
 888 0164 C3F3C702 		ubfx	r2, r3, #3, #8
 889              	.LVL123:
 309:..\lvgl\lv_draw/lv_draw_vbasic.c **** 
 890              		.loc 1 309 0
 891 0168 13F0070F 		tst	r3, #7
 892 016c 01D0     		beq	.L64
 309:..\lvgl\lv_draw/lv_draw_vbasic.c **** 
 893              		.loc 1 309 0 is_stmt 0 discriminator 1
 894 016e 0132     		adds	r2, r2, #1
 895              	.LVL124:
 896 0170 D2B2     		uxtb	r2, r2
 897              	.LVL125:
 898              	.L64:
 312:..\lvgl\lv_draw/lv_draw_vbasic.c ****     lv_coord_t col_end = pos_x + letter_w <= mask_p->x2 ? letter_w : mask_p->x2 - pos_x + 1;
 899              		.loc 1 312 0 is_stmt 1
 900 0172 B5F90030 		ldrsh	r3, [r5]
 901 0176 0699     		ldr	r1, [sp, #24]
 902 0178 9942     		cmp	r1, r3
 903 017a 03DA     		bge	.L88
 312:..\lvgl\lv_draw/lv_draw_vbasic.c ****     lv_coord_t col_end = pos_x + letter_w <= mask_p->x2 ? letter_w : mask_p->x2 - pos_x + 1;
 904              		.loc 1 312 0 is_stmt 0 discriminator 1
 905 017c 5B1A     		subs	r3, r3, r1
 906 017e 1BB2     		sxth	r3, r3
 907 0180 1293     		str	r3, [sp, #72]
 908 0182 01E0     		b	.L65
 909              	.L88:
 312:..\lvgl\lv_draw/lv_draw_vbasic.c ****     lv_coord_t col_end = pos_x + letter_w <= mask_p->x2 ? letter_w : mask_p->x2 - pos_x + 1;
 910              		.loc 1 312 0
 911 0184 0023     		movs	r3, #0
 912 0186 1293     		str	r3, [sp, #72]
 913              	.L65:
 914              	.LVL126:
 313:..\lvgl\lv_draw/lv_draw_vbasic.c ****     lv_coord_t row_start = pos_y >= mask_p->y1 ? 0 : mask_p->y1 - pos_y;
 915              		.loc 1 313 0 is_stmt 1 discriminator 4
 916 0188 B5F90430 		ldrsh	r3, [r5, #4]
ARM GAS  C:\Users\d3bug\AppData\Local\Temp\cc5D6foa.s 			page 40


 917 018c 9C42     		cmp	r4, r3
 918 018e 03DC     		bgt	.L66
 313:..\lvgl\lv_draw/lv_draw_vbasic.c ****     lv_coord_t row_start = pos_y >= mask_p->y1 ? 0 : mask_p->y1 - pos_y;
 919              		.loc 1 313 0 is_stmt 0 discriminator 1
 920 0190 0FFA88F3 		sxth	r3, r8
 921 0194 9846     		mov	r8, r3
 922              	.LVL127:
 923 0196 04E0     		b	.L67
 924              	.LVL128:
 925              	.L66:
 313:..\lvgl\lv_draw/lv_draw_vbasic.c ****     lv_coord_t row_start = pos_y >= mask_p->y1 ? 0 : mask_p->y1 - pos_y;
 926              		.loc 1 313 0 discriminator 2
 927 0198 0699     		ldr	r1, [sp, #24]
 928 019a 5B1A     		subs	r3, r3, r1
 929 019c 0133     		adds	r3, r3, #1
 930 019e 1BB2     		sxth	r3, r3
 931 01a0 9846     		mov	r8, r3
 932              	.LVL129:
 933              	.L67:
 314:..\lvgl\lv_draw/lv_draw_vbasic.c ****     lv_coord_t row_end  = pos_y + letter_h <= mask_p->y2 ? letter_h : mask_p->y2 - pos_y + 1;
 934              		.loc 1 314 0 is_stmt 1 discriminator 4
 935 01a2 B5F90230 		ldrsh	r3, [r5, #2]
 936 01a6 099C     		ldr	r4, [sp, #36]
 937 01a8 9C42     		cmp	r4, r3
 938 01aa 03DA     		bge	.L89
 314:..\lvgl\lv_draw/lv_draw_vbasic.c ****     lv_coord_t row_end  = pos_y + letter_h <= mask_p->y2 ? letter_h : mask_p->y2 - pos_y + 1;
 939              		.loc 1 314 0 is_stmt 0 discriminator 1
 940 01ac 1B1B     		subs	r3, r3, r4
 941 01ae 1BB2     		sxth	r3, r3
 942 01b0 0C93     		str	r3, [sp, #48]
 943 01b2 01E0     		b	.L68
 944              	.L89:
 314:..\lvgl\lv_draw/lv_draw_vbasic.c ****     lv_coord_t row_end  = pos_y + letter_h <= mask_p->y2 ? letter_h : mask_p->y2 - pos_y + 1;
 945              		.loc 1 314 0
 946 01b4 0023     		movs	r3, #0
 947 01b6 0C93     		str	r3, [sp, #48]
 948              	.L68:
 949              	.LVL130:
 315:..\lvgl\lv_draw/lv_draw_vbasic.c **** 
 950              		.loc 1 315 0 is_stmt 1 discriminator 4
 951 01b8 B5F90630 		ldrsh	r3, [r5, #6]
 952 01bc 9945     		cmp	r9, r3
 953 01be 02DC     		bgt	.L69
 315:..\lvgl\lv_draw/lv_draw_vbasic.c **** 
 954              		.loc 1 315 0 is_stmt 0 discriminator 1
 955 01c0 33B2     		sxth	r3, r6
 956 01c2 1393     		str	r3, [sp, #76]
 957 01c4 04E0     		b	.L70
 958              	.L69:
 315:..\lvgl\lv_draw/lv_draw_vbasic.c **** 
 959              		.loc 1 315 0 discriminator 2
 960 01c6 0999     		ldr	r1, [sp, #36]
 961 01c8 5B1A     		subs	r3, r3, r1
 962 01ca 5E1C     		adds	r6, r3, #1
 963 01cc 33B2     		sxth	r3, r6
 964 01ce 1393     		str	r3, [sp, #76]
 965              	.L70:
ARM GAS  C:\Users\d3bug\AppData\Local\Temp\cc5D6foa.s 			page 41


 966              	.LVL131:
 318:..\lvgl\lv_draw/lv_draw_vbasic.c ****                    + pos_x - vdb_p->area.x1;
 967              		.loc 1 318 0 is_stmt 1 discriminator 4
 968 01d0 0E9B     		ldr	r3, [sp, #56]
 969 01d2 B3F90230 		ldrsh	r3, [r3, #2]
 970 01d6 0999     		ldr	r1, [sp, #36]
 971 01d8 CB1A     		subs	r3, r1, r3
 972 01da 0F9C     		ldr	r4, [sp, #60]
 973 01dc 1494     		str	r4, [sp, #80]
 319:..\lvgl\lv_draw/lv_draw_vbasic.c **** 
 974              		.loc 1 319 0 discriminator 4
 975 01de 2546     		mov	r5, r4
 976              	.LVL132:
 977 01e0 04FB0373 		mla	r3, r4, r3, r7
 978 01e4 1B1A     		subs	r3, r3, r0
 979              	.LVL133:
 322:..\lvgl\lv_draw/lv_draw_vbasic.c **** 
 980              		.loc 1 322 0 discriminator 4
 981 01e6 1298     		ldr	r0, [sp, #72]
 982 01e8 1590     		str	r0, [sp, #84]
 983 01ea 0C9C     		ldr	r4, [sp, #48]
 984 01ec 04FB0507 		mla	r7, r4, r5, r0
 985 01f0 3B44     		add	r3, r3, r7
 986              	.LVL134:
 987 01f2 0EEB0307 		add	r7, lr, r3
 988              	.LVL135:
 325:..\lvgl\lv_draw/lv_draw_vbasic.c **** 
 989              		.loc 1 325 0 discriminator 4
 990 01f6 1692     		str	r2, [sp, #88]
 991 01f8 039B     		ldr	r3, [sp, #12]
 992 01fa 00FB03F3 		mul	r3, r0, r3
 993 01fe 1793     		str	r3, [sp, #92]
 994 0200 4FEAE309 		asr	r9, r3, #3
 995 0204 02FB0492 		mla	r2, r2, r4, r9
 996              	.LVL136:
 997 0208 029B     		ldr	r3, [sp, #8]
 998 020a 1344     		add	r3, r3, r2
 999 020c 9946     		mov	r9, r3
 1000              	.LVL137:
 327:..\lvgl\lv_draw/lv_draw_vbasic.c **** 
 1001              		.loc 1 327 0 discriminator 4
 1002 020e FFF7FEFF 		bl	lv_disp_get_active
 1003              	.LVL138:
 1004 0212 0D90     		str	r0, [sp, #52]
 1005              	.LVL139:
 1006 0214 CDF828B0 		str	fp, [sp, #40]
 331:..\lvgl\lv_draw/lv_draw_vbasic.c ****         col_byte_cnt = 0;
 1007              		.loc 1 331 0 discriminator 4
 1008 0218 99E0     		b	.L71
 1009              	.LVL140:
 1010              	.L84:
 333:..\lvgl\lv_draw/lv_draw_vbasic.c ****         mask = mask_init >> col_bit;
 1011              		.loc 1 333 0
 1012 021a 344D     		ldr	r5, .L91+16
 1013 021c 179B     		ldr	r3, [sp, #92]
 1014 021e 1D40     		ands	r5, r3, r5
 1015 0220 03D5     		bpl	.L72
ARM GAS  C:\Users\d3bug\AppData\Local\Temp\cc5D6foa.s 			page 42


 1016 0222 013D     		subs	r5, r5, #1
 1017 0224 65F00705 		orn	r5, r5, #7
 1018 0228 0135     		adds	r5, r5, #1
 1019              	.L72:
 1020 022a EDB2     		uxtb	r5, r5
 1021              	.LVL141:
 334:..\lvgl\lv_draw/lv_draw_vbasic.c ****         for(col = col_start; col < col_end; col ++) {
 1022              		.loc 1 334 0
 1023 022c 089B     		ldr	r3, [sp, #32]
 1024 022e 43FA05F6 		asr	r6, r3, r5
 1025 0232 F6B2     		uxtb	r6, r6
 1026              	.LVL142:
 335:..\lvgl\lv_draw/lv_draw_vbasic.c ****             letter_px = (*map_p & mask) >> (8 - col_bit - bpp);
 1027              		.loc 1 335 0
 1028 0234 129C     		ldr	r4, [sp, #72]
 332:..\lvgl\lv_draw/lv_draw_vbasic.c ****         col_bit = (col_start * bpp) % 8;
 1029              		.loc 1 332 0
 1030 0236 0023     		movs	r3, #0
 1031 0238 0793     		str	r3, [sp, #28]
 335:..\lvgl\lv_draw/lv_draw_vbasic.c ****             letter_px = (*map_p & mask) >> (8 - col_bit - bpp);
 1032              		.loc 1 335 0
 1033 023a 78E0     		b	.L73
 1034              	.LVL143:
 1035              	.L83:
 336:..\lvgl\lv_draw/lv_draw_vbasic.c ****             if(letter_px != 0) {
 1036              		.loc 1 336 0
 1037 023c 99F80030 		ldrb	r3, [r9]	@ zero_extendqisi2
 1038 0240 06EA0302 		and	r2, r6, r3
 1039 0244 0295     		str	r5, [sp, #8]
 1040 0246 C5F10803 		rsb	r3, r5, #8
 1041 024a CAEB0303 		rsb	r3, r10, r3
 1042 024e 42FA03F3 		asr	r3, r2, r3
 1043              	.LVL144:
 337:..\lvgl\lv_draw/lv_draw_vbasic.c ****                 if(opa == LV_OPA_COVER) {
 1044              		.loc 1 337 0
 1045 0252 13F0FF01 		ands	r1, r3, #255
 1046 0256 53D0     		beq	.L74
 338:..\lvgl\lv_draw/lv_draw_vbasic.c ****                     px_opa = bpp == 8 ? letter_px : bpp_opa_table[letter_px];
 1047              		.loc 1 338 0
 1048 0258 0A9A     		ldr	r2, [sp, #40]
 1049 025a FF2A     		cmp	r2, #255
 1050 025c 06D1     		bne	.L75
 339:..\lvgl\lv_draw/lv_draw_vbasic.c ****                 } else {
 1051              		.loc 1 339 0
 1052 025e 039A     		ldr	r2, [sp, #12]
 1053 0260 082A     		cmp	r2, #8
 1054 0262 14D0     		beq	.L76
 339:..\lvgl\lv_draw/lv_draw_vbasic.c ****                 } else {
 1055              		.loc 1 339 0 is_stmt 0 discriminator 1
 1056 0264 DBB2     		uxtb	r3, r3
 1057 0266 0B9A     		ldr	r2, [sp, #44]
 1058 0268 D15C     		ldrb	r1, [r2, r3]	@ zero_extendqisi2
 1059 026a 10E0     		b	.L76
 1060              	.L75:
 341:..\lvgl\lv_draw/lv_draw_vbasic.c ****                              (uint16_t)((uint16_t)letter_px * opa) >> 8 :
 1061              		.loc 1 341 0 is_stmt 1
 1062 026c 039A     		ldr	r2, [sp, #12]
ARM GAS  C:\Users\d3bug\AppData\Local\Temp\cc5D6foa.s 			page 43


 1063 026e 082A     		cmp	r2, #8
 1064 0270 05D1     		bne	.L77
 342:..\lvgl\lv_draw/lv_draw_vbasic.c ****                              (uint16_t)((uint16_t)bpp_opa_table[letter_px] * opa) >> 8;
 1065              		.loc 1 342 0 discriminator 1
 1066 0272 0A9B     		ldr	r3, [sp, #40]
 1067              	.LVL145:
 1068 0274 01FB03F1 		mul	r1, r1, r3
 341:..\lvgl\lv_draw/lv_draw_vbasic.c ****                              (uint16_t)((uint16_t)letter_px * opa) >> 8 :
 1069              		.loc 1 341 0 discriminator 1
 1070 0278 C1F30721 		ubfx	r1, r1, #8, #8
 1071 027c 07E0     		b	.L76
 1072              	.LVL146:
 1073              	.L77:
 343:..\lvgl\lv_draw/lv_draw_vbasic.c ****                 }
 1074              		.loc 1 343 0 discriminator 2
 1075 027e DBB2     		uxtb	r3, r3
 1076 0280 0B9A     		ldr	r2, [sp, #44]
 1077 0282 D15C     		ldrb	r1, [r2, r3]	@ zero_extendqisi2
 1078 0284 0A9B     		ldr	r3, [sp, #40]
 1079              	.LVL147:
 1080 0286 01FB03F1 		mul	r1, r1, r3
 341:..\lvgl\lv_draw/lv_draw_vbasic.c ****                              (uint16_t)((uint16_t)letter_px * opa) >> 8 :
 1081              		.loc 1 341 0 discriminator 2
 1082 028a C1F30721 		ubfx	r1, r1, #8, #8
 1083              	.L76:
 1084              	.LVL148:
 346:..\lvgl\lv_draw/lv_draw_vbasic.c ****                     disp->driver.vdb_wr((uint8_t *)vdb_p->buf, vdb_width,
 1085              		.loc 1 346 0
 1086 028e 0D9B     		ldr	r3, [sp, #52]
 1087 0290 D3F80CB0 		ldr	fp, [r3, #12]
 1088 0294 BBF1000F 		cmp	fp, #0
 1089 0298 18D0     		beq	.L78
 347:..\lvgl\lv_draw/lv_draw_vbasic.c ****                                         (col + pos_x) - vdb_p->area.x1, (row + pos_y) - vdb_p->area
 1090              		.loc 1 347 0
 1091 029a 0E9A     		ldr	r2, [sp, #56]
 1092 029c 9068     		ldr	r0, [r2, #8]
 348:..\lvgl\lv_draw/lv_draw_vbasic.c ****                                         color, px_opa);
 1093              		.loc 1 348 0
 1094 029e B2F900E0 		ldrsh	lr, [r2]
 1095 02a2 B2F902C0 		ldrsh	ip, [r2, #2]
 347:..\lvgl\lv_draw/lv_draw_vbasic.c ****                                         (col + pos_x) - vdb_p->area.x1, (row + pos_y) - vdb_p->area
 1096              		.loc 1 347 0
 1097 02a6 0C9B     		ldr	r3, [sp, #48]
 1098 02a8 099A     		ldr	r2, [sp, #36]
 1099 02aa 1344     		add	r3, r3, r2
 1100 02ac CCEB0303 		rsb	r3, ip, r3
 1101 02b0 069A     		ldr	r2, [sp, #24]
 1102 02b2 A218     		adds	r2, r4, r2
 1103 02b4 CEEB0202 		rsb	r2, lr, r2
 1104 02b8 0191     		str	r1, [sp, #4]
 1105              	.LVL149:
 1106 02ba 9DF81010 		ldrb	r1, [sp, #16]	@ zero_extendqisi2
 1107              	.LVL150:
 1108 02be 8DF80010 		strb	r1, [sp]
 1109 02c2 1BB2     		sxth	r3, r3
 1110 02c4 12B2     		sxth	r2, r2
 1111 02c6 0F99     		ldr	r1, [sp, #60]
ARM GAS  C:\Users\d3bug\AppData\Local\Temp\cc5D6foa.s 			page 44


 1112              	.LVL151:
 1113 02c8 D847     		blx	fp
 1114              	.LVL152:
 1115 02ca 19E0     		b	.L74
 1116              	.LVL153:
 1117              	.L78:
 1118 02cc 3B78     		ldrb	r3, [r7]	@ zero_extendqisi2
 1119              	.LVL154:
 1120              	.LBB66:
 1121              	.LBB67:
 1122              		.loc 3 348 0
 1123 02ce 11F0800F 		tst	r1, #128
 1124 02d2 0DD0     		beq	.L79
 1125 02d4 049B     		ldr	r3, [sp, #16]
 1126 02d6 03F00103 		and	r3, r3, #1
 1127 02da 0BE0     		b	.L80
 1128              	.L92:
 1129              		.align	2
 1130              	.L91:
 1131 02dc 00000000 		.word	.LANCHOR0
 1132 02e0 38000000 		.word	.LC4
 1133 02e4 14000000 		.word	.LC3
 1134 02e8 00000000 		.word	.LC2
 1135 02ec 07000080 		.word	-2147483641
 1136              	.L79:
 1137 02f0 03F00103 		and	r3, r3, #1
 1138              	.L80:
 1139 02f4 109A     		ldr	r2, [sp, #64]
 1140 02f6 63F30002 		bfi	r2, r3, #0, #1
 1141              	.LVL155:
 1142 02fa 8DF84020 		strb	r2, [sp, #64]
 1143              	.LVL156:
 1144              	.LBE67:
 1145              	.LBE66:
 352:..\lvgl\lv_draw/lv_draw_vbasic.c **** #else
 1146              		.loc 1 352 0
 1147 02fe 3A70     		strb	r2, [r7]
 1148              	.LVL157:
 1149              	.L74:
 359:..\lvgl\lv_draw/lv_draw_vbasic.c **** 
 1150              		.loc 1 359 0
 1151 0300 0137     		adds	r7, r7, #1
 1152              	.LVL158:
 361:..\lvgl\lv_draw/lv_draw_vbasic.c ****                 col_bit += bpp;
 1153              		.loc 1 361 0
 1154 0302 CAF10803 		rsb	r3, r10, #8
 1155 0306 029A     		ldr	r2, [sp, #8]
 1156              	.LVL159:
 1157 0308 9A42     		cmp	r2, r3
 1158 030a 06DA     		bge	.L81
 362:..\lvgl\lv_draw/lv_draw_vbasic.c ****                 mask = mask >> bpp;
 1159              		.loc 1 362 0
 1160 030c 039B     		ldr	r3, [sp, #12]
 1161 030e 1D44     		add	r5, r5, r3
 1162              	.LVL160:
 1163 0310 EDB2     		uxtb	r5, r5
 1164              	.LVL161:
ARM GAS  C:\Users\d3bug\AppData\Local\Temp\cc5D6foa.s 			page 45


 363:..\lvgl\lv_draw/lv_draw_vbasic.c ****             } else {
 1165              		.loc 1 363 0
 1166 0312 46FA0AF6 		asr	r6, r6, r10
 1167              	.LVL162:
 1168 0316 F6B2     		uxtb	r6, r6
 1169              	.LVL163:
 1170 0318 07E0     		b	.L82
 1171              	.L81:
 1172              	.LVL164:
 366:..\lvgl\lv_draw/lv_draw_vbasic.c ****                 mask = mask_init;
 1173              		.loc 1 366 0
 1174 031a 079B     		ldr	r3, [sp, #28]
 1175 031c 0133     		adds	r3, r3, #1
 1176 031e DBB2     		uxtb	r3, r3
 1177 0320 0793     		str	r3, [sp, #28]
 1178              	.LVL165:
 368:..\lvgl\lv_draw/lv_draw_vbasic.c ****             }
 1179              		.loc 1 368 0
 1180 0322 09F10109 		add	r9, r9, #1
 1181              	.LVL166:
 367:..\lvgl\lv_draw/lv_draw_vbasic.c ****                 map_p ++;
 1182              		.loc 1 367 0
 1183 0326 089E     		ldr	r6, [sp, #32]
 365:..\lvgl\lv_draw/lv_draw_vbasic.c ****                 col_byte_cnt ++;
 1184              		.loc 1 365 0
 1185 0328 0025     		movs	r5, #0
 1186              	.LVL167:
 1187              	.L82:
 335:..\lvgl\lv_draw/lv_draw_vbasic.c ****             letter_px = (*map_p & mask) >> (8 - col_bit - bpp);
 1188              		.loc 1 335 0 discriminator 2
 1189 032a 0134     		adds	r4, r4, #1
 1190              	.LVL168:
 1191 032c 24B2     		sxth	r4, r4
 1192              	.LVL169:
 1193              	.L73:
 335:..\lvgl\lv_draw/lv_draw_vbasic.c ****             letter_px = (*map_p & mask) >> (8 - col_bit - bpp);
 1194              		.loc 1 335 0 is_stmt 0 discriminator 1
 1195 032e 4445     		cmp	r4, r8
 1196 0330 84DB     		blt	.L83
 372:..\lvgl\lv_draw/lv_draw_vbasic.c ****         vdb_buf_tmp += vdb_width  - (col_end - col_start); /*Next row in VDB*/
 1197              		.loc 1 372 0 is_stmt 1 discriminator 2
 1198 0332 169B     		ldr	r3, [sp, #88]
 1199 0334 079A     		ldr	r2, [sp, #28]
 1200 0336 9B1A     		subs	r3, r3, r2
 1201 0338 9944     		add	r9, r9, r3
 1202              	.LVL170:
 373:..\lvgl\lv_draw/lv_draw_vbasic.c ****     }
 1203              		.loc 1 373 0 discriminator 2
 1204 033a 159B     		ldr	r3, [sp, #84]
 1205 033c C3EB0803 		rsb	r3, r3, r8
 1206 0340 149A     		ldr	r2, [sp, #80]
 1207 0342 D31A     		subs	r3, r2, r3
 1208 0344 1F44     		add	r7, r7, r3
 1209              	.LVL171:
 331:..\lvgl\lv_draw/lv_draw_vbasic.c ****         col_byte_cnt = 0;
 1210              		.loc 1 331 0 discriminator 2
 1211 0346 0C9B     		ldr	r3, [sp, #48]
ARM GAS  C:\Users\d3bug\AppData\Local\Temp\cc5D6foa.s 			page 46


 1212 0348 0133     		adds	r3, r3, #1
 1213 034a 1BB2     		sxth	r3, r3
 1214 034c 0C93     		str	r3, [sp, #48]
 1215              	.LVL172:
 1216              	.L71:
 331:..\lvgl\lv_draw/lv_draw_vbasic.c ****         col_byte_cnt = 0;
 1217              		.loc 1 331 0 is_stmt 0 discriminator 1
 1218 034e 0C9B     		ldr	r3, [sp, #48]
 1219 0350 139A     		ldr	r2, [sp, #76]
 1220 0352 9342     		cmp	r3, r2
 1221 0354 FFF661AF 		blt	.L84
 1222              	.LVL173:
 1223              	.L53:
 375:..\lvgl\lv_draw/lv_draw_vbasic.c **** 
 1224              		.loc 1 375 0 is_stmt 1
 1225 0358 1FB0     		add	sp, sp, #124
 1226              		.cfi_def_cfa_offset 36
 1227              		@ sp needed
 1228 035a BDE8F08F 		pop	{r4, r5, r6, r7, r8, r9, r10, fp, pc}
 1229              		.cfi_endproc
 1230              	.LFE14:
 1231              		.size	lv_vletter, .-lv_vletter
 1232 035e 00BF     		.section	.text.lv_vmap,"ax",%progbits
 1233              		.align	2
 1234              		.global	lv_vmap
 1235              		.thumb
 1236              		.thumb_func
 1237              		.type	lv_vmap, %function
 1238              	lv_vmap:
 1239              	.LFB15:
 391:..\lvgl\lv_draw/lv_draw_vbasic.c **** 
 1240              		.loc 1 391 0
 1241              		.cfi_startproc
 1242              		@ args = 16, pretend = 0, frame = 96
 1243              		@ frame_needed = 0, uses_anonymous_args = 0
 1244              	.LVL174:
 1245 0000 2DE9F04F 		push	{r4, r5, r6, r7, r8, r9, r10, fp, lr}
 1246              		.cfi_def_cfa_offset 36
 1247              		.cfi_offset 4, -36
 1248              		.cfi_offset 5, -32
 1249              		.cfi_offset 6, -28
 1250              		.cfi_offset 7, -24
 1251              		.cfi_offset 8, -20
 1252              		.cfi_offset 9, -16
 1253              		.cfi_offset 10, -12
 1254              		.cfi_offset 11, -8
 1255              		.cfi_offset 14, -4
 1256 0004 9BB0     		sub	sp, sp, #108
 1257              		.cfi_def_cfa_offset 144
 1258 0006 1546     		mov	r5, r2
 1259 0008 0293     		str	r3, [sp, #8]
 1260 000a 9DF890A0 		ldrb	r10, [sp, #144]	@ zero_extendqisi2
 1261 000e 9DF89490 		ldrb	r9, [sp, #148]	@ zero_extendqisi2
 1262 0012 9DF89820 		ldrb	r2, [sp, #152]	@ zero_extendqisi2
 1263              	.LVL175:
 1264 0016 8DF85820 		strb	r2, [sp, #88]
 1265 001a 9DF89C20 		ldrb	r2, [sp, #156]	@ zero_extendqisi2
ARM GAS  C:\Users\d3bug\AppData\Local\Temp\cc5D6foa.s 			page 47


 1266 001e 0492     		str	r2, [sp, #16]
 393:..\lvgl\lv_draw/lv_draw_vbasic.c ****     if(opa > LV_OPA_MAX) opa = LV_OPA_COVER;
 1267              		.loc 1 393 0
 1268 0020 0F2B     		cmp	r3, #15
 1269 0022 40F28B81 		bls	.L93
 1270 0026 0446     		mov	r4, r0
 1271 0028 0F46     		mov	r7, r1
 394:..\lvgl\lv_draw/lv_draw_vbasic.c **** 
 1272              		.loc 1 394 0
 1273 002a FB2B     		cmp	r3, #251
 1274 002c 01D9     		bls	.L95
 1275 002e FF23     		movs	r3, #255
 1276              	.LVL176:
 1277 0030 0293     		str	r3, [sp, #8]
 1278              	.L95:
 1279              	.LVL177:
 398:..\lvgl\lv_draw/lv_draw_vbasic.c ****     if(!vdb_p) {
 1280              		.loc 1 398 0
 1281 0032 FFF7FEFF 		bl	lv_vdb_get
 1282              	.LVL178:
 399:..\lvgl\lv_draw/lv_draw_vbasic.c ****         LV_LOG_WARN("Invalid VDB pointer");
 1283              		.loc 1 399 0
 1284 0036 0690     		str	r0, [sp, #24]
 1285 0038 38B9     		cbnz	r0, .L96
 400:..\lvgl\lv_draw/lv_draw_vbasic.c ****         return;
 1286              		.loc 1 400 0
 1287 003a B44B     		ldr	r3, .L138
 1288 003c 4FF4C872 		mov	r2, #400
 1289 0040 B349     		ldr	r1, .L138+4
 1290 0042 0220     		movs	r0, #2
 1291              	.LVL179:
 1292 0044 FFF7FEFF 		bl	lv_log_add
 1293              	.LVL180:
 401:..\lvgl\lv_draw/lv_draw_vbasic.c ****     }
 1294              		.loc 1 401 0
 1295 0048 78E1     		b	.L93
 1296              	.LVL181:
 1297              	.L96:
 407:..\lvgl\lv_draw/lv_draw_vbasic.c **** 
 1298              		.loc 1 407 0
 1299 004a 3A46     		mov	r2, r7
 1300 004c 2146     		mov	r1, r4
 1301 004e 18A8     		add	r0, sp, #96
 1302              	.LVL182:
 1303 0050 FFF7FEFF 		bl	lv_area_intersect
 1304              	.LVL183:
 410:..\lvgl\lv_draw/lv_draw_vbasic.c **** 
 1305              		.loc 1 410 0
 1306 0054 0028     		cmp	r0, #0
 1307 0056 00F07181 		beq	.L93
 413:..\lvgl\lv_draw/lv_draw_vbasic.c **** 
 1308              		.loc 1 413 0
 1309 005a B9F1000F 		cmp	r9, #0
 1310 005e 02D0     		beq	.L132
 1311 0060 4FF00208 		mov	r8, #2
 1312 0064 01E0     		b	.L97
 1313              	.L132:
ARM GAS  C:\Users\d3bug\AppData\Local\Temp\cc5D6foa.s 			page 48


 1314 0066 4FF00108 		mov	r8, #1
 1315              	.L97:
 1316              	.LVL184:
 1317              	.LBB68:
 1318              	.LBB69:
 1319              		.loc 2 77 0 discriminator 4
 1320 006a B4F90430 		ldrsh	r3, [r4, #4]
 1321 006e B4F90010 		ldrsh	r1, [r4]
 1322 0072 5B1A     		subs	r3, r3, r1
 1323 0074 0133     		adds	r3, r3, #1
 1324 0076 1BB2     		sxth	r3, r3
 1325 0078 1846     		mov	r0, r3
 1326              	.LVL185:
 1327 007a 1493     		str	r3, [sp, #80]
 1328              	.LVL186:
 1329              	.LBE69:
 1330              	.LBE68:
 417:..\lvgl\lv_draw/lv_draw_vbasic.c ****         map_p += (uint32_t) map_width * ((masked_a.y1 - cords_p->y1)) * px_size_byte;
 1331              		.loc 1 417 0 discriminator 4
 1332 007c B4F90220 		ldrsh	r2, [r4, #2]
 1333 0080 BDF96230 		ldrsh	r3, [sp, #98]
 1334 0084 9A42     		cmp	r2, r3
 1335 0086 04DA     		bge	.L98
 418:..\lvgl\lv_draw/lv_draw_vbasic.c ****     }
 1336              		.loc 1 418 0
 1337 0088 9A1A     		subs	r2, r3, r2
 1338 008a 00FB02F2 		mul	r2, r0, r2
 1339 008e 02FB0855 		mla	r5, r2, r8, r5
 1340              	.LVL187:
 1341              	.L98:
 420:..\lvgl\lv_draw/lv_draw_vbasic.c ****         map_p += (masked_a.x1 - cords_p->x1) * px_size_byte;
 1342              		.loc 1 420 0
 1343 0092 BDF96020 		ldrsh	r2, [sp, #96]
 1344 0096 9142     		cmp	r1, r2
 1345 0098 02DA     		bge	.L99
 421:..\lvgl\lv_draw/lv_draw_vbasic.c ****     }
 1346              		.loc 1 421 0
 1347 009a 511A     		subs	r1, r2, r1
 1348 009c 01FB0855 		mla	r5, r1, r8, r5
 1349              	.LVL188:
 1350              	.L99:
 425:..\lvgl\lv_draw/lv_draw_vbasic.c ****     masked_a.y1 = masked_a.y1 - vdb_p->area.y1;
 1351              		.loc 1 425 0
 1352 00a0 069C     		ldr	r4, [sp, #24]
 1353              	.LVL189:
 1354 00a2 B4F90070 		ldrsh	r7, [r4]
 1355              	.LVL190:
 1356 00a6 D71B     		subs	r7, r2, r7
 1357 00a8 BFB2     		uxth	r7, r7
 1358 00aa 38B2     		sxth	r0, r7
 1359 00ac ADF86000 		strh	r0, [sp, #96]	@ movhi
 426:..\lvgl\lv_draw/lv_draw_vbasic.c ****     masked_a.x2 = masked_a.x2 - vdb_p->area.x1;
 1360              		.loc 1 426 0
 1361 00b0 B4F90220 		ldrsh	r2, [r4, #2]
 1362 00b4 9B1A     		subs	r3, r3, r2
 1363 00b6 1AB2     		sxth	r2, r3
 1364 00b8 ADF86220 		strh	r2, [sp, #98]	@ movhi
ARM GAS  C:\Users\d3bug\AppData\Local\Temp\cc5D6foa.s 			page 49


 427:..\lvgl\lv_draw/lv_draw_vbasic.c ****     masked_a.y2 = masked_a.y2 - vdb_p->area.y1;
 1365              		.loc 1 427 0
 1366 00bc BDF96430 		ldrsh	r3, [sp, #100]
 1367 00c0 B4F90010 		ldrsh	r1, [r4]
 1368 00c4 5B1A     		subs	r3, r3, r1
 1369 00c6 9BB2     		uxth	r3, r3
 1370 00c8 ADF86430 		strh	r3, [sp, #100]	@ movhi
 428:..\lvgl\lv_draw/lv_draw_vbasic.c **** 
 1371              		.loc 1 428 0
 1372 00cc BDF96610 		ldrsh	r1, [sp, #102]
 1373 00d0 B4F90240 		ldrsh	r4, [r4, #2]
 1374 00d4 091B     		subs	r1, r1, r4
 1375 00d6 ADF86610 		strh	r1, [sp, #102]	@ movhi
 1376              	.LVL191:
 1377              	.LBB70:
 1378              	.LBB71:
 1379              		.loc 2 77 0
 1380 00da 069C     		ldr	r4, [sp, #24]
 1381 00dc B4F90410 		ldrsh	r1, [r4, #4]
 1382 00e0 B4F90040 		ldrsh	r4, [r4]
 1383 00e4 091B     		subs	r1, r1, r4
 1384 00e6 0131     		adds	r1, r1, #1
 1385 00e8 09B2     		sxth	r1, r1
 1386 00ea 0791     		str	r1, [sp, #28]
 1387              	.LVL192:
 1388              	.LBE71:
 1389              	.LBE70:
 431:..\lvgl\lv_draw/lv_draw_vbasic.c ****     vdb_buf_tmp += (uint32_t) vdb_width * masked_a.y1; /*Move to the first row*/
 1390              		.loc 1 431 0
 1391 00ec 069C     		ldr	r4, [sp, #24]
 1392 00ee A168     		ldr	r1, [r4, #8]
 1393              	.LVL193:
 432:..\lvgl\lv_draw/lv_draw_vbasic.c ****     vdb_buf_tmp += (uint32_t) masked_a.x1; /*Move to the first col*/
 1394              		.loc 1 432 0
 1395 00f0 079C     		ldr	r4, [sp, #28]
 1396 00f2 1594     		str	r4, [sp, #84]
 1397              	.LVL194:
 433:..\lvgl\lv_draw/lv_draw_vbasic.c **** 
 1398              		.loc 1 433 0
 1399 00f4 04FB0202 		mla	r2, r4, r2, r0
 1400              	.LVL195:
 1401 00f8 8A18     		adds	r2, r1, r2
 1402 00fa 0E92     		str	r2, [sp, #56]
 1403              	.LVL196:
 1404              	.LBB72:
 1405              	.LBB73:
 1406              		.loc 2 77 0
 1407 00fc DF1B     		subs	r7, r3, r7
 1408 00fe 0137     		adds	r7, r7, #1
 1409 0100 3FB2     		sxth	r7, r7
 1410              	.LVL197:
 1411              	.LBE73:
 1412              	.LBE72:
 438:..\lvgl\lv_draw/lv_draw_vbasic.c **** 
 1413              		.loc 1 438 0
 1414 0102 FFF7FEFF 		bl	lv_disp_get_active
 1415              	.LVL198:
ARM GAS  C:\Users\d3bug\AppData\Local\Temp\cc5D6foa.s 			page 50


 1416 0106 0590     		str	r0, [sp, #20]
 1417              	.LVL199:
 441:..\lvgl\lv_draw/lv_draw_vbasic.c **** 
 1418              		.loc 1 441 0
 1419 0108 BAF1000F 		cmp	r10, #0
 1420 010c 50D1     		bne	.L100
 441:..\lvgl\lv_draw/lv_draw_vbasic.c **** 
 1421              		.loc 1 441 0 is_stmt 0 discriminator 1
 1422 010e B9F1000F 		cmp	r9, #0
 1423 0112 4DD1     		bne	.L100
 441:..\lvgl\lv_draw/lv_draw_vbasic.c **** 
 1424              		.loc 1 441 0 discriminator 2
 1425 0114 029B     		ldr	r3, [sp, #8]
 1426 0116 FF2B     		cmp	r3, #255
 1427 0118 4AD1     		bne	.L100
 441:..\lvgl\lv_draw/lv_draw_vbasic.c **** 
 1428              		.loc 1 441 0 discriminator 3
 1429 011a 049B     		ldr	r3, [sp, #16]
 1430 011c 002B     		cmp	r3, #0
 1431 011e 47D1     		bne	.L100
 444:..\lvgl\lv_draw/lv_draw_vbasic.c ****             lv_coord_t col;
 1432              		.loc 1 444 0 is_stmt 1
 1433 0120 C368     		ldr	r3, [r0, #12]
 1434 0122 7BB3     		cbz	r3, .L101
 1435              	.LBB74:
 446:..\lvgl\lv_draw/lv_draw_vbasic.c ****                 for(col = 0; col < map_useful_w; col++) {
 1436              		.loc 1 446 0
 1437 0124 BDF96290 		ldrsh	r9, [sp, #98]
 1438              	.LVL200:
 1439 0128 CDF80C90 		str	r9, [sp, #12]
 1440 012c DDF81890 		ldr	r9, [sp, #24]
 1441              	.LVL201:
 1442 0130 8246     		mov	r10, r0
 1443 0132 DDF808B0 		ldr	fp, [sp, #8]
 1444 0136 1FE0     		b	.L102
 1445              	.LVL202:
 1446              	.L103:
 1447              	.LBB75:
 448:..\lvgl\lv_draw/lv_draw_vbasic.c ****                     disp->driver.vdb_wr((uint8_t *)vdb_p->buf, vdb_width, col + masked_a.x1, row, p
 1448              		.loc 1 448 0 discriminator 3
 1449 0138 08FB04F3 		mul	r3, r8, r4
 1450 013c EB5C     		ldrb	r3, [r5, r3]	@ zero_extendqisi2
 449:..\lvgl\lv_draw/lv_draw_vbasic.c ****                 }
 1451              		.loc 1 449 0 discriminator 3
 1452 013e DAF80C60 		ldr	r6, [r10, #12]
 1453 0142 D9F80800 		ldr	r0, [r9, #8]
 1454 0146 BDF96020 		ldrsh	r2, [sp, #96]
 1455 014a A4B2     		uxth	r4, r4
 1456 014c 2244     		add	r2, r2, r4
 1457 014e CDF804B0 		str	fp, [sp, #4]
 1458 0152 8DF80030 		strb	r3, [sp]
 1459 0156 039B     		ldr	r3, [sp, #12]
 1460 0158 12B2     		sxth	r2, r2
 1461 015a 0799     		ldr	r1, [sp, #28]
 1462 015c B047     		blx	r6
 1463              	.LVL203:
 1464              	.LBE75:
ARM GAS  C:\Users\d3bug\AppData\Local\Temp\cc5D6foa.s 			page 51


 447:..\lvgl\lv_draw/lv_draw_vbasic.c ****                     lv_color_t px_color = *((lv_color_t *)&map_p[(uint32_t)col * px_size_byte]);
 1465              		.loc 1 447 0 discriminator 3
 1466 015e 0134     		adds	r4, r4, #1
 1467              	.LVL204:
 1468 0160 24B2     		sxth	r4, r4
 1469              	.LVL205:
 1470 0162 00E0     		b	.L104
 1471              	.LVL206:
 1472              	.L133:
 1473 0164 0024     		movs	r4, #0
 1474              	.L104:
 1475              	.LVL207:
 447:..\lvgl\lv_draw/lv_draw_vbasic.c ****                     lv_color_t px_color = *((lv_color_t *)&map_p[(uint32_t)col * px_size_byte]);
 1476              		.loc 1 447 0 is_stmt 0 discriminator 1
 1477 0166 BC42     		cmp	r4, r7
 1478 0168 E6DB     		blt	.L103
 451:..\lvgl\lv_draw/lv_draw_vbasic.c ****             }
 1479              		.loc 1 451 0 is_stmt 1 discriminator 2
 1480 016a 149B     		ldr	r3, [sp, #80]
 1481 016c 08FB0355 		mla	r5, r8, r3, r5
 1482              	.LVL208:
 446:..\lvgl\lv_draw/lv_draw_vbasic.c ****                 for(col = 0; col < map_useful_w; col++) {
 1483              		.loc 1 446 0 discriminator 2
 1484 0170 039B     		ldr	r3, [sp, #12]
 1485 0172 0133     		adds	r3, r3, #1
 1486 0174 1BB2     		sxth	r3, r3
 1487 0176 0393     		str	r3, [sp, #12]
 1488              	.LVL209:
 1489              	.L102:
 446:..\lvgl\lv_draw/lv_draw_vbasic.c ****                 for(col = 0; col < map_useful_w; col++) {
 1490              		.loc 1 446 0 is_stmt 0 discriminator 1
 1491 0178 BDF96630 		ldrsh	r3, [sp, #102]
 1492 017c 039A     		ldr	r2, [sp, #12]
 1493 017e 9A42     		cmp	r2, r3
 1494 0180 F0DD     		ble	.L133
 1495 0182 DBE0     		b	.L93
 1496              	.LVL210:
 1497              	.L101:
 1498              	.LBE74:
 456:..\lvgl\lv_draw/lv_draw_vbasic.c **** #if USE_LV_GPU
 1499              		.loc 1 456 0 is_stmt 1
 1500 0184 BDF96240 		ldrsh	r4, [sp, #98]
 1501              	.LVL211:
 1502 0188 0E9E     		ldr	r6, [sp, #56]
 1503 018a 0CE0     		b	.L106
 1504              	.LVL212:
 1505              	.L107:
 464:..\lvgl\lv_draw/lv_draw_vbasic.c **** #endif
 1506              		.loc 1 464 0 discriminator 3
 1507 018c 029B     		ldr	r3, [sp, #8]
 1508 018e 3A46     		mov	r2, r7
 1509 0190 2946     		mov	r1, r5
 1510 0192 3046     		mov	r0, r6
 1511 0194 FFF7FEFF 		bl	sw_mem_blend
 1512              	.LVL213:
 466:..\lvgl\lv_draw/lv_draw_vbasic.c ****                 vdb_buf_tmp += vdb_width;                        /*Next row on the VDB*/
 1513              		.loc 1 466 0 discriminator 3
ARM GAS  C:\Users\d3bug\AppData\Local\Temp\cc5D6foa.s 			page 52


 1514 0198 149B     		ldr	r3, [sp, #80]
 1515 019a 08FB0355 		mla	r5, r8, r3, r5
 1516              	.LVL214:
 467:..\lvgl\lv_draw/lv_draw_vbasic.c ****             }
 1517              		.loc 1 467 0 discriminator 3
 1518 019e 159B     		ldr	r3, [sp, #84]
 1519 01a0 1E44     		add	r6, r6, r3
 1520              	.LVL215:
 456:..\lvgl\lv_draw/lv_draw_vbasic.c **** #if USE_LV_GPU
 1521              		.loc 1 456 0 discriminator 3
 1522 01a2 0134     		adds	r4, r4, #1
 1523              	.LVL216:
 1524 01a4 24B2     		sxth	r4, r4
 1525              	.LVL217:
 1526              	.L106:
 456:..\lvgl\lv_draw/lv_draw_vbasic.c **** #if USE_LV_GPU
 1527              		.loc 1 456 0 is_stmt 0 discriminator 1
 1528 01a6 BDF96630 		ldrsh	r3, [sp, #102]
 1529 01aa 9C42     		cmp	r4, r3
 1530 01ac EEDD     		ble	.L107
 1531 01ae C5E0     		b	.L93
 1532              	.LVL218:
 1533              	.L100:
 1534              	.LBB76:
 476:..\lvgl\lv_draw/lv_draw_vbasic.c ****         lv_color_t recolored_px = lv_color_mix(recolor, last_img_px, recolor_opa);
 1535              		.loc 1 476 0 is_stmt 1
 1536 01b0 4FF00003 		mov	r3, #0
 1537              	.LVL219:
 1538 01b4 8DF82030 		strb	r3, [sp, #32]
 1539              	.LVL220:
 1540              	.LBB77:
 1541              	.LBB78:
 1542              		.loc 3 348 0
 1543 01b8 9DF91030 		ldrsb	r3, [sp, #16]
 1544              	.LVL221:
 1545 01bc 0F93     		str	r3, [sp, #60]
 1546 01be 002B     		cmp	r3, #0
 1547 01c0 03DA     		bge	.L134
 1548 01c2 169B     		ldr	r3, [sp, #88]
 1549 01c4 03F00103 		and	r3, r3, #1
 1550 01c8 00E0     		b	.L108
 1551              	.L134:
 1552 01ca 0023     		movs	r3, #0
 1553              	.L108:
 1554 01cc 8DF82830 		strb	r3, [sp, #40]
 1555              	.LVL222:
 1556              	.LBE78:
 1557              	.LBE77:
 478:..\lvgl\lv_draw/lv_draw_vbasic.c ****             for(col = 0; col < map_useful_w; col++) {
 1558              		.loc 1 478 0
 1559 01d0 BDF96230 		ldrsh	r3, [sp, #98]
 1560 01d4 0393     		str	r3, [sp, #12]
 1561              	.LVL223:
 1562 01d6 ACE0     		b	.L109
 1563              	.LVL224:
 1564              	.L128:
 1565              	.LBB79:
ARM GAS  C:\Users\d3bug\AppData\Local\Temp\cc5D6foa.s 			page 53


 481:..\lvgl\lv_draw/lv_draw_vbasic.c ****                 lv_color_t px_color;
 1566              		.loc 1 481 0
 1567 01d8 2146     		mov	r1, r4
 1568 01da 08FB04F3 		mul	r3, r8, r4
 1569 01de EA18     		adds	r2, r5, r3
 1570              	.LVL225:
 485:..\lvgl\lv_draw/lv_draw_vbasic.c **** #if LV_COLOR_DEPTH == 8 || LV_COLOR_DEPTH == 1
 1571              		.loc 1 485 0
 1572 01e0 B9F1000F 		cmp	r9, #0
 1573 01e4 0ED0     		beq	.L110
 1574              	.LBB80:
 487:..\lvgl\lv_draw/lv_draw_vbasic.c **** #elif LV_COLOR_DEPTH == 16
 1575              		.loc 1 487 0
 1576 01e6 EB5C     		ldrb	r3, [r5, r3]	@ zero_extendqisi2
 1577 01e8 63F30006 		bfi	r6, r3, #0, #1
 494:..\lvgl\lv_draw/lv_draw_vbasic.c ****                     if(px_opa == LV_OPA_TRANSP) continue;
 1578              		.loc 1 494 0
 1579 01ec 5378     		ldrb	r3, [r2, #1]	@ zero_extendqisi2
 1580              	.LVL226:
 495:..\lvgl\lv_draw/lv_draw_vbasic.c ****                     else if(px_opa != LV_OPA_COVER) opa_result = (uint32_t)((uint32_t)px_opa * opa_
 1581              		.loc 1 495 0
 1582 01ee 002B     		cmp	r3, #0
 1583 01f0 00F08880 		beq	.L127
 496:..\lvgl\lv_draw/lv_draw_vbasic.c ****                 } else {
 1584              		.loc 1 496 0
 1585 01f4 FF2B     		cmp	r3, #255
 1586 01f6 08D0     		beq	.L135
 496:..\lvgl\lv_draw/lv_draw_vbasic.c ****                 } else {
 1587              		.loc 1 496 0 is_stmt 0 discriminator 1
 1588 01f8 029A     		ldr	r2, [sp, #8]
 1589              	.LVL227:
 1590 01fa 03FB02F3 		mul	r3, r3, r2
 1591              	.LVL228:
 1592 01fe C3F30723 		ubfx	r3, r3, #8, #8
 1593              	.LVL229:
 1594 0202 03E0     		b	.L112
 1595              	.LVL230:
 1596              	.L110:
 1597              	.LBE80:
 498:..\lvgl\lv_draw/lv_draw_vbasic.c ****                 }
 1598              		.loc 1 498 0 is_stmt 1
 1599 0204 EE5C     		ldrb	r6, [r5, r3]	@ zero_extendqisi2
 1600              	.LVL231:
 480:..\lvgl\lv_draw/lv_draw_vbasic.c ****                 uint8_t * px_color_p = (uint8_t *) &map_p[(uint32_t)col * px_size_byte];
 1601              		.loc 1 480 0
 1602 0206 029B     		ldr	r3, [sp, #8]
 1603 0208 00E0     		b	.L112
 1604              	.LVL232:
 1605              	.L135:
 1606 020a 029B     		ldr	r3, [sp, #8]
 1607              	.LVL233:
 1608              	.L112:
 502:..\lvgl\lv_draw/lv_draw_vbasic.c **** 
 1609              		.loc 1 502 0
 1610 020c BAF1000F 		cmp	r10, #0
 1611 0210 04D0     		beq	.L113
 502:..\lvgl\lv_draw/lv_draw_vbasic.c **** 
ARM GAS  C:\Users\d3bug\AppData\Local\Temp\cc5D6foa.s 			page 54


 1612              		.loc 1 502 0 is_stmt 0 discriminator 1
 1613 0212 86F00102 		eor	r2, r6, #1
 1614 0216 12F0010F 		tst	r2, #1
 1615 021a 73D0     		beq	.L127
 1616              	.L113:
 505:..\lvgl\lv_draw/lv_draw_vbasic.c ****                     if(last_img_px.full != px_color.full) {     /*Minor acceleration: calculate onl
 1617              		.loc 1 505 0 is_stmt 1
 1618 021c 049A     		ldr	r2, [sp, #16]
 1619 021e 002A     		cmp	r2, #0
 1620 0220 47D0     		beq	.L114
 506:..\lvgl\lv_draw/lv_draw_vbasic.c ****                         last_img_px = px_color;
 1621              		.loc 1 506 0
 1622 0222 089A     		ldr	r2, [sp, #32]
 1623 0224 7240     		eors	r2, r2, r6
 1624 0226 12F0010F 		tst	r2, #1
 1625 022a 11D0     		beq	.L115
 507:..\lvgl\lv_draw/lv_draw_vbasic.c ****                         recolored_px = lv_color_mix(recolor, last_img_px, recolor_opa);
 1626              		.loc 1 507 0
 1627 022c 8DF82060 		strb	r6, [sp, #32]
 1628              	.LVL234:
 1629              	.LBB81:
 1630              	.LBB82:
 1631              		.loc 3 348 0
 1632 0230 0F9A     		ldr	r2, [sp, #60]
 1633 0232 002A     		cmp	r2, #0
 1634 0234 03DA     		bge	.L116
 1635 0236 169A     		ldr	r2, [sp, #88]
 1636 0238 02F00102 		and	r2, r2, #1
 1637 023c 01E0     		b	.L117
 1638              	.L116:
 1639 023e 06F00102 		and	r2, r6, #1
 1640              	.L117:
 1641 0242 0C98     		ldr	r0, [sp, #48]
 1642 0244 62F30000 		bfi	r0, r2, #0, #1
 1643              	.LVL235:
 1644 0248 8DF83000 		strb	r0, [sp, #48]
 1645 024c 8DF82800 		strb	r0, [sp, #40]
 1646              	.LVL236:
 1647              	.L115:
 1648              	.LBE82:
 1649              	.LBE81:
 511:..\lvgl\lv_draw/lv_draw_vbasic.c ****                         disp->driver.vdb_wr((uint8_t *)vdb_p->buf, vdb_width, col + masked_a.x1, ro
 1650              		.loc 1 511 0
 1651 0250 059A     		ldr	r2, [sp, #20]
 1652 0252 D2F80CB0 		ldr	fp, [r2, #12]
 1653 0256 BBF1000F 		cmp	fp, #0
 1654 025a 0ED0     		beq	.L118
 512:..\lvgl\lv_draw/lv_draw_vbasic.c ****                     }
 1655              		.loc 1 512 0
 1656 025c 069A     		ldr	r2, [sp, #24]
 1657 025e 9068     		ldr	r0, [r2, #8]
 1658              	.LVL237:
 1659 0260 BDF96020 		ldrsh	r2, [sp, #96]
 1660 0264 2244     		add	r2, r2, r4
 1661 0266 0193     		str	r3, [sp, #4]
 1662 0268 9DF82830 		ldrb	r3, [sp, #40]	@ zero_extendqisi2
 1663              	.LVL238:
ARM GAS  C:\Users\d3bug\AppData\Local\Temp\cc5D6foa.s 			page 55


 1664 026c 8DF80030 		strb	r3, [sp]
 1665 0270 039B     		ldr	r3, [sp, #12]
 1666              	.LVL239:
 1667 0272 12B2     		sxth	r2, r2
 1668 0274 0799     		ldr	r1, [sp, #28]
 1669              	.LVL240:
 1670 0276 D847     		blx	fp
 1671              	.LVL241:
 1672 0278 44E0     		b	.L127
 1673              	.LVL242:
 1674              	.L118:
 516:..\lvgl\lv_draw/lv_draw_vbasic.c ****                         else vdb_buf_tmp[col] = lv_color_mix(recolored_px, vdb_buf_tmp[col], opa_re
 1675              		.loc 1 516 0
 1676 027a FF2B     		cmp	r3, #255
 1677 027c 06D1     		bne	.L120
 516:..\lvgl\lv_draw/lv_draw_vbasic.c ****                         else vdb_buf_tmp[col] = lv_color_mix(recolored_px, vdb_buf_tmp[col], opa_re
 1678              		.loc 1 516 0 is_stmt 0 discriminator 1
 1679 027e 0E9A     		ldr	r2, [sp, #56]
 1680 0280 535C     		ldrb	r3, [r2, r1]	@ zero_extendqisi2
 1681              	.LVL243:
 1682 0282 0A98     		ldr	r0, [sp, #40]
 1683              	.LVL244:
 1684 0284 60F30003 		bfi	r3, r0, #0, #1
 1685 0288 5354     		strb	r3, [r2, r1]
 1686 028a 3BE0     		b	.L127
 1687              	.LVL245:
 1688              	.L120:
 517:..\lvgl\lv_draw/lv_draw_vbasic.c ****                     }
 1689              		.loc 1 517 0 is_stmt 1
 1690 028c 0E9A     		ldr	r2, [sp, #56]
 1691 028e 5018     		adds	r0, r2, r1
 1692              	.LVL246:
 1693 0290 525C     		ldrb	r2, [r2, r1]	@ zero_extendqisi2
 1694              	.LVL247:
 1695              	.LBB83:
 1696              	.LBB84:
 1697              		.loc 3 348 0
 1698 0292 13F0800F 		tst	r3, #128
 1699 0296 03D0     		beq	.L121
 1700 0298 0A9B     		ldr	r3, [sp, #40]
 1701              	.LVL248:
 1702 029a 03F00103 		and	r3, r3, #1
 1703 029e 01E0     		b	.L122
 1704              	.LVL249:
 1705              	.L121:
 1706 02a0 02F00103 		and	r3, r2, #1
 1707              	.LVL250:
 1708              	.L122:
 1709 02a4 129A     		ldr	r2, [sp, #72]
 1710 02a6 63F30002 		bfi	r2, r3, #0, #1
 1711              	.LVL251:
 1712 02aa 8DF84820 		strb	r2, [sp, #72]
 1713              	.LBE84:
 1714              	.LBE83:
 517:..\lvgl\lv_draw/lv_draw_vbasic.c ****                     }
 1715              		.loc 1 517 0
 1716 02ae 0270     		strb	r2, [r0]
ARM GAS  C:\Users\d3bug\AppData\Local\Temp\cc5D6foa.s 			page 56


 1717 02b0 28E0     		b	.L127
 1718              	.LVL252:
 1719              	.L114:
 521:..\lvgl\lv_draw/lv_draw_vbasic.c ****                         disp->driver.vdb_wr((uint8_t *)vdb_p->buf, vdb_width, col + masked_a.x1, ro
 1720              		.loc 1 521 0
 1721 02b2 059A     		ldr	r2, [sp, #20]
 1722 02b4 D2F80CB0 		ldr	fp, [r2, #12]
 1723 02b8 BBF1000F 		cmp	fp, #0
 1724 02bc 0CD0     		beq	.L123
 522:..\lvgl\lv_draw/lv_draw_vbasic.c ****                     }
 1725              		.loc 1 522 0
 1726 02be 069A     		ldr	r2, [sp, #24]
 1727 02c0 9068     		ldr	r0, [r2, #8]
 1728 02c2 BDF96020 		ldrsh	r2, [sp, #96]
 1729 02c6 2244     		add	r2, r2, r4
 1730 02c8 0193     		str	r3, [sp, #4]
 1731 02ca 8DF80060 		strb	r6, [sp]
 1732 02ce 039B     		ldr	r3, [sp, #12]
 1733              	.LVL253:
 1734 02d0 12B2     		sxth	r2, r2
 1735 02d2 0799     		ldr	r1, [sp, #28]
 1736              	.LVL254:
 1737 02d4 D847     		blx	fp
 1738              	.LVL255:
 1739 02d6 15E0     		b	.L127
 1740              	.LVL256:
 1741              	.L123:
 526:..\lvgl\lv_draw/lv_draw_vbasic.c ****                         else {
 1742              		.loc 1 526 0
 1743 02d8 FF2B     		cmp	r3, #255
 1744 02da 02D1     		bne	.L124
 526:..\lvgl\lv_draw/lv_draw_vbasic.c ****                         else {
 1745              		.loc 1 526 0 is_stmt 0 discriminator 1
 1746 02dc 0E9B     		ldr	r3, [sp, #56]
 1747              	.LVL257:
 1748 02de 5E54     		strb	r6, [r3, r1]
 1749 02e0 10E0     		b	.L127
 1750              	.LVL258:
 1751              	.L124:
 529:..\lvgl\lv_draw/lv_draw_vbasic.c **** #else
 1752              		.loc 1 529 0 is_stmt 1
 1753 02e2 0E9A     		ldr	r2, [sp, #56]
 1754 02e4 5018     		adds	r0, r2, r1
 1755 02e6 525C     		ldrb	r2, [r2, r1]	@ zero_extendqisi2
 1756              	.LVL259:
 1757              	.LBB85:
 1758              	.LBB86:
 1759              		.loc 3 348 0
 1760 02e8 13F0800F 		tst	r3, #128
 1761 02ec 02D0     		beq	.L125
 1762 02ee 06F00103 		and	r3, r6, #1
 1763              	.LVL260:
 1764 02f2 01E0     		b	.L126
 1765              	.LVL261:
 1766              	.L125:
 1767 02f4 02F00103 		and	r3, r2, #1
 1768              	.LVL262:
ARM GAS  C:\Users\d3bug\AppData\Local\Temp\cc5D6foa.s 			page 57


 1769              	.L126:
 1770 02f8 109A     		ldr	r2, [sp, #64]
 1771 02fa 63F30002 		bfi	r2, r3, #0, #1
 1772              	.LVL263:
 1773 02fe 8DF84020 		strb	r2, [sp, #64]
 1774              	.LBE86:
 1775              	.LBE85:
 529:..\lvgl\lv_draw/lv_draw_vbasic.c **** #else
 1776              		.loc 1 529 0
 1777 0302 0270     		strb	r2, [r0]
 1778              	.LVL264:
 1779              	.L127:
 1780              	.LBE79:
 479:..\lvgl\lv_draw/lv_draw_vbasic.c ****                 lv_opa_t opa_result = opa;
 1781              		.loc 1 479 0 discriminator 2
 1782 0304 0134     		adds	r4, r4, #1
 1783              	.LVL265:
 1784 0306 24B2     		sxth	r4, r4
 1785              	.LVL266:
 1786 0308 05E0     		b	.L129
 1787              	.L139:
 1788 030a 00BF     		.align	2
 1789              	.L138:
 1790 030c 00000000 		.word	.LC2
 1791 0310 14000000 		.word	.LC3
 1792              	.LVL267:
 1793              	.L136:
 1794 0314 0024     		movs	r4, #0
 1795              	.LVL268:
 1796              	.L129:
 479:..\lvgl\lv_draw/lv_draw_vbasic.c ****                 lv_opa_t opa_result = opa;
 1797              		.loc 1 479 0 is_stmt 0 discriminator 1
 1798 0316 BC42     		cmp	r4, r7
 1799 0318 FFF65EAF 		blt	.L128
 553:..\lvgl\lv_draw/lv_draw_vbasic.c ****             vdb_buf_tmp += vdb_width;           /*Next row on the VDB*/
 1800              		.loc 1 553 0 is_stmt 1 discriminator 2
 1801 031c 149B     		ldr	r3, [sp, #80]
 1802 031e 08FB0355 		mla	r5, r8, r3, r5
 1803              	.LVL269:
 554:..\lvgl\lv_draw/lv_draw_vbasic.c ****         }
 1804              		.loc 1 554 0 discriminator 2
 1805 0322 0E9B     		ldr	r3, [sp, #56]
 1806 0324 159A     		ldr	r2, [sp, #84]
 1807              	.LVL270:
 1808 0326 1344     		add	r3, r3, r2
 1809 0328 0E93     		str	r3, [sp, #56]
 1810              	.LVL271:
 478:..\lvgl\lv_draw/lv_draw_vbasic.c ****             for(col = 0; col < map_useful_w; col++) {
 1811              		.loc 1 478 0 discriminator 2
 1812 032a 039B     		ldr	r3, [sp, #12]
 1813              	.LVL272:
 1814 032c 0133     		adds	r3, r3, #1
 1815 032e 1BB2     		sxth	r3, r3
 1816 0330 0393     		str	r3, [sp, #12]
 1817              	.LVL273:
 1818              	.L109:
 478:..\lvgl\lv_draw/lv_draw_vbasic.c ****             for(col = 0; col < map_useful_w; col++) {
ARM GAS  C:\Users\d3bug\AppData\Local\Temp\cc5D6foa.s 			page 58


 1819              		.loc 1 478 0 is_stmt 0 discriminator 1
 1820 0332 BDF96630 		ldrsh	r3, [sp, #102]
 1821 0336 039A     		ldr	r2, [sp, #12]
 1822 0338 9A42     		cmp	r2, r3
 1823 033a EBDD     		ble	.L136
 1824              	.LVL274:
 1825              	.L93:
 1826              	.LBE76:
 557:..\lvgl\lv_draw/lv_draw_vbasic.c **** 
 1827              		.loc 1 557 0 is_stmt 1
 1828 033c 1BB0     		add	sp, sp, #108
 1829              		.cfi_def_cfa_offset 36
 1830              		@ sp needed
 1831 033e BDE8F08F 		pop	{r4, r5, r6, r7, r8, r9, r10, fp, pc}
 1832              		.cfi_endproc
 1833              	.LFE15:
 1834              		.size	lv_vmap, .-lv_vmap
 1835 0342 00BF     		.section	.rodata
 1836              		.align	2
 1837              		.set	.LANCHOR0,. + 0
 1838              	.LC0:
 1839 0000 00       		.byte	0
 1840 0001 55       		.byte	85
 1841 0002 AA       		.byte	-86
 1842 0003 FF       		.byte	-1
 1843              	.LC1:
 1844 0004 00       		.byte	0
 1845 0005 11       		.byte	17
 1846 0006 22       		.byte	34
 1847 0007 33       		.byte	51
 1848 0008 44       		.byte	68
 1849 0009 55       		.byte	85
 1850 000a 66       		.byte	102
 1851 000b 77       		.byte	119
 1852 000c 88       		.byte	-120
 1853 000d 99       		.byte	-103
 1854 000e AA       		.byte	-86
 1855 000f BB       		.byte	-69
 1856 0010 CC       		.byte	-52
 1857 0011 DD       		.byte	-35
 1858 0012 EE       		.byte	-18
 1859 0013 FF       		.byte	-1
 1860              		.section	.rodata.str1.4,"aMS",%progbits,1
 1861              		.align	2
 1862              	.LC2:
 1863 0000 496E7661 		.ascii	"Invalid VDB pointer\000"
 1863      6C696420 
 1863      56444220 
 1863      706F696E 
 1863      74657200 
 1864              	.LC3:
 1865 0014 2E2E5C6C 		.ascii	"..\\lvgl\\lv_draw\\lv_draw_vbasic.c\000"
 1865      76676C5C 
 1865      6C765F64 
 1865      7261775C 
 1865      6C765F64 
 1866 0035 000000   		.space	3
ARM GAS  C:\Users\d3bug\AppData\Local\Temp\cc5D6foa.s 			page 59


 1867              	.LC4:
 1868 0038 466F6E74 		.ascii	"Font: character's bitmap not found\000"
 1868      3A206368 
 1868      61726163 
 1868      74657227 
 1868      73206269 
 1869              		.text
 1870              	.Letext0:
 1871              		.file 5 "c:\\program files (x86)\\cypress\\psoc creator\\4.2\\psoc creator\\import\\gnu\\arm\\5.4.
 1872              		.file 6 "c:\\program files (x86)\\cypress\\psoc creator\\4.2\\psoc creator\\import\\gnu\\arm\\5.4.
 1873              		.file 7 "..\\lvgl\\lv_draw\\../lv_hal/lv_hal_disp.h"
 1874              		.file 8 "..\\lvgl\\lv_draw\\../lv_core/lv_vdb.h"
 1875              		.file 9 "..\\lvgl\\lv_draw\\../lv_hal/../lv_core/../lv_misc/lv_log.h"
 1876              		.section	.debug_info,"",%progbits
 1877              	.Ldebug_info0:
 1878 0000 D4120000 		.4byte	0x12d4
 1879 0004 0400     		.2byte	0x4
 1880 0006 00000000 		.4byte	.Ldebug_abbrev0
 1881 000a 04       		.byte	0x4
 1882 000b 01       		.uleb128 0x1
 1883 000c C2010000 		.4byte	.LASF150
 1884 0010 0C       		.byte	0xc
 1885 0011 A9050000 		.4byte	.LASF151
 1886 0015 F6020000 		.4byte	.LASF152
 1887 0019 18000000 		.4byte	.Ldebug_ranges0+0x18
 1888 001d 00000000 		.4byte	0
 1889 0021 00000000 		.4byte	.Ldebug_line0
 1890 0025 02       		.uleb128 0x2
 1891 0026 01       		.byte	0x1
 1892 0027 06       		.byte	0x6
 1893 0028 A3060000 		.4byte	.LASF0
 1894 002c 03       		.uleb128 0x3
 1895 002d 4D050000 		.4byte	.LASF2
 1896 0031 05       		.byte	0x5
 1897 0032 1D       		.byte	0x1d
 1898 0033 37000000 		.4byte	0x37
 1899 0037 02       		.uleb128 0x2
 1900 0038 01       		.byte	0x1
 1901 0039 08       		.byte	0x8
 1902 003a 28060000 		.4byte	.LASF1
 1903 003e 03       		.uleb128 0x3
 1904 003f F0030000 		.4byte	.LASF3
 1905 0043 05       		.byte	0x5
 1906 0044 29       		.byte	0x29
 1907 0045 49000000 		.4byte	0x49
 1908 0049 02       		.uleb128 0x2
 1909 004a 02       		.byte	0x2
 1910 004b 05       		.byte	0x5
 1911 004c DD040000 		.4byte	.LASF4
 1912 0050 03       		.uleb128 0x3
 1913 0051 8E010000 		.4byte	.LASF5
 1914 0055 05       		.byte	0x5
 1915 0056 2B       		.byte	0x2b
 1916 0057 5B000000 		.4byte	0x5b
 1917 005b 02       		.uleb128 0x2
 1918 005c 02       		.byte	0x2
 1919 005d 07       		.byte	0x7
ARM GAS  C:\Users\d3bug\AppData\Local\Temp\cc5D6foa.s 			page 60


 1920 005e C0060000 		.4byte	.LASF6
 1921 0062 03       		.uleb128 0x3
 1922 0063 A0000000 		.4byte	.LASF7
 1923 0067 05       		.byte	0x5
 1924 0068 3F       		.byte	0x3f
 1925 0069 6D000000 		.4byte	0x6d
 1926 006d 02       		.uleb128 0x2
 1927 006e 04       		.byte	0x4
 1928 006f 05       		.byte	0x5
 1929 0070 F0040000 		.4byte	.LASF8
 1930 0074 03       		.uleb128 0x3
 1931 0075 36060000 		.4byte	.LASF9
 1932 0079 05       		.byte	0x5
 1933 007a 41       		.byte	0x41
 1934 007b 7F000000 		.4byte	0x7f
 1935 007f 02       		.uleb128 0x2
 1936 0080 04       		.byte	0x4
 1937 0081 07       		.byte	0x7
 1938 0082 85050000 		.4byte	.LASF10
 1939 0086 02       		.uleb128 0x2
 1940 0087 08       		.byte	0x8
 1941 0088 05       		.byte	0x5
 1942 0089 A9030000 		.4byte	.LASF11
 1943 008d 02       		.uleb128 0x2
 1944 008e 08       		.byte	0x8
 1945 008f 07       		.byte	0x7
 1946 0090 39010000 		.4byte	.LASF12
 1947 0094 04       		.uleb128 0x4
 1948 0095 04       		.byte	0x4
 1949 0096 05       		.byte	0x5
 1950 0097 696E7400 		.ascii	"int\000"
 1951 009b 02       		.uleb128 0x2
 1952 009c 04       		.byte	0x4
 1953 009d 07       		.byte	0x7
 1954 009e 5E000000 		.4byte	.LASF13
 1955 00a2 03       		.uleb128 0x3
 1956 00a3 7A030000 		.4byte	.LASF14
 1957 00a7 06       		.byte	0x6
 1958 00a8 18       		.byte	0x18
 1959 00a9 2C000000 		.4byte	0x2c
 1960 00ad 03       		.uleb128 0x3
 1961 00ae 15010000 		.4byte	.LASF15
 1962 00b2 06       		.byte	0x6
 1963 00b3 20       		.byte	0x20
 1964 00b4 3E000000 		.4byte	0x3e
 1965 00b8 03       		.uleb128 0x3
 1966 00b9 7A040000 		.4byte	.LASF16
 1967 00bd 06       		.byte	0x6
 1968 00be 24       		.byte	0x24
 1969 00bf 50000000 		.4byte	0x50
 1970 00c3 03       		.uleb128 0x3
 1971 00c4 DD050000 		.4byte	.LASF17
 1972 00c8 06       		.byte	0x6
 1973 00c9 2C       		.byte	0x2c
 1974 00ca 62000000 		.4byte	0x62
 1975 00ce 03       		.uleb128 0x3
 1976 00cf DF000000 		.4byte	.LASF18
ARM GAS  C:\Users\d3bug\AppData\Local\Temp\cc5D6foa.s 			page 61


 1977 00d3 06       		.byte	0x6
 1978 00d4 30       		.byte	0x30
 1979 00d5 74000000 		.4byte	0x74
 1980 00d9 05       		.uleb128 0x5
 1981 00da 01       		.byte	0x1
 1982 00db 37000000 		.4byte	0x37
 1983 00df 03       		.byte	0x3
 1984 00e0 3C       		.byte	0x3c
 1985 00e1 34010000 		.4byte	0x134
 1986 00e5 06       		.uleb128 0x6
 1987 00e6 50010000 		.4byte	.LASF19
 1988 00ea 00       		.byte	0
 1989 00eb 06       		.uleb128 0x6
 1990 00ec 4A000000 		.4byte	.LASF20
 1991 00f0 00       		.byte	0
 1992 00f1 06       		.uleb128 0x6
 1993 00f2 9F030000 		.4byte	.LASF21
 1994 00f6 19       		.byte	0x19
 1995 00f7 06       		.uleb128 0x6
 1996 00f8 22040000 		.4byte	.LASF22
 1997 00fc 33       		.byte	0x33
 1998 00fd 06       		.uleb128 0x6
 1999 00fe 64040000 		.4byte	.LASF23
 2000 0102 4C       		.byte	0x4c
 2001 0103 06       		.uleb128 0x6
 2002 0104 F9040000 		.4byte	.LASF24
 2003 0108 66       		.byte	0x66
 2004 0109 06       		.uleb128 0x6
 2005 010a 57050000 		.4byte	.LASF25
 2006 010e 7F       		.byte	0x7f
 2007 010f 06       		.uleb128 0x6
 2008 0110 17060000 		.4byte	.LASF26
 2009 0114 99       		.byte	0x99
 2010 0115 06       		.uleb128 0x6
 2011 0116 64060000 		.4byte	.LASF27
 2012 011a B2       		.byte	0xb2
 2013 011b 06       		.uleb128 0x6
 2014 011c 08070000 		.4byte	.LASF28
 2015 0120 CC       		.byte	0xcc
 2016 0121 06       		.uleb128 0x6
 2017 0122 12000000 		.4byte	.LASF29
 2018 0126 E5       		.byte	0xe5
 2019 0127 06       		.uleb128 0x6
 2020 0128 42050000 		.4byte	.LASF30
 2021 012c FF       		.byte	0xff
 2022 012d 06       		.uleb128 0x6
 2023 012e 00000000 		.4byte	.LASF31
 2024 0132 FF       		.byte	0xff
 2025 0133 00       		.byte	0
 2026 0134 07       		.uleb128 0x7
 2027 0135 01       		.byte	0x1
 2028 0136 03       		.byte	0x3
 2029 0137 5F       		.byte	0x5f
 2030 0138 75010000 		.4byte	0x175
 2031 013c 08       		.uleb128 0x8
 2032 013d 32050000 		.4byte	.LASF32
 2033 0141 03       		.byte	0x3
ARM GAS  C:\Users\d3bug\AppData\Local\Temp\cc5D6foa.s 			page 62


 2034 0142 61       		.byte	0x61
 2035 0143 A2000000 		.4byte	0xa2
 2036 0147 01       		.byte	0x1
 2037 0148 01       		.byte	0x1
 2038 0149 07       		.byte	0x7
 2039 014a 08       		.uleb128 0x8
 2040 014b 5E040000 		.4byte	.LASF33
 2041 014f 03       		.byte	0x3
 2042 0150 62       		.byte	0x62
 2043 0151 A2000000 		.4byte	0xa2
 2044 0155 01       		.byte	0x1
 2045 0156 01       		.byte	0x1
 2046 0157 07       		.byte	0x7
 2047 0158 09       		.uleb128 0x9
 2048 0159 72656400 		.ascii	"red\000"
 2049 015d 03       		.byte	0x3
 2050 015e 63       		.byte	0x63
 2051 015f A2000000 		.4byte	0xa2
 2052 0163 01       		.byte	0x1
 2053 0164 01       		.byte	0x1
 2054 0165 07       		.byte	0x7
 2055 0166 08       		.uleb128 0x8
 2056 0167 0D000000 		.4byte	.LASF34
 2057 016b 03       		.byte	0x3
 2058 016c 64       		.byte	0x64
 2059 016d A2000000 		.4byte	0xa2
 2060 0171 01       		.byte	0x1
 2061 0172 01       		.byte	0x1
 2062 0173 07       		.byte	0x7
 2063 0174 00       		.byte	0
 2064 0175 03       		.uleb128 0x3
 2065 0176 6E030000 		.4byte	.LASF35
 2066 017a 03       		.byte	0x3
 2067 017b 65       		.byte	0x65
 2068 017c 34010000 		.4byte	0x134
 2069 0180 03       		.uleb128 0x3
 2070 0181 43040000 		.4byte	.LASF36
 2071 0185 03       		.byte	0x3
 2072 0186 92       		.byte	0x92
 2073 0187 75010000 		.4byte	0x175
 2074 018b 03       		.uleb128 0x3
 2075 018c E7040000 		.4byte	.LASF37
 2076 0190 03       		.byte	0x3
 2077 0191 A0       		.byte	0xa0
 2078 0192 A2000000 		.4byte	0xa2
 2079 0196 02       		.uleb128 0x2
 2080 0197 08       		.byte	0x8
 2081 0198 04       		.byte	0x4
 2082 0199 6E040000 		.4byte	.LASF38
 2083 019d 02       		.uleb128 0x2
 2084 019e 04       		.byte	0x4
 2085 019f 07       		.byte	0x7
 2086 01a0 72050000 		.4byte	.LASF39
 2087 01a4 02       		.uleb128 0x2
 2088 01a5 01       		.byte	0x1
 2089 01a6 08       		.byte	0x8
 2090 01a7 E7020000 		.4byte	.LASF40
ARM GAS  C:\Users\d3bug\AppData\Local\Temp\cc5D6foa.s 			page 63


 2091 01ab 03       		.uleb128 0x3
 2092 01ac 37050000 		.4byte	.LASF41
 2093 01b0 02       		.byte	0x2
 2094 01b1 1E       		.byte	0x1e
 2095 01b2 AD000000 		.4byte	0xad
 2096 01b6 0A       		.uleb128 0xa
 2097 01b7 04       		.byte	0x4
 2098 01b8 02       		.byte	0x2
 2099 01b9 20       		.byte	0x20
 2100 01ba D3010000 		.4byte	0x1d3
 2101 01be 0B       		.uleb128 0xb
 2102 01bf 7800     		.ascii	"x\000"
 2103 01c1 02       		.byte	0x2
 2104 01c2 22       		.byte	0x22
 2105 01c3 AB010000 		.4byte	0x1ab
 2106 01c7 00       		.byte	0
 2107 01c8 0B       		.uleb128 0xb
 2108 01c9 7900     		.ascii	"y\000"
 2109 01cb 02       		.byte	0x2
 2110 01cc 23       		.byte	0x23
 2111 01cd AB010000 		.4byte	0x1ab
 2112 01d1 02       		.byte	0x2
 2113 01d2 00       		.byte	0
 2114 01d3 03       		.uleb128 0x3
 2115 01d4 95000000 		.4byte	.LASF42
 2116 01d8 02       		.byte	0x2
 2117 01d9 24       		.byte	0x24
 2118 01da B6010000 		.4byte	0x1b6
 2119 01de 0A       		.uleb128 0xa
 2120 01df 08       		.byte	0x8
 2121 01e0 02       		.byte	0x2
 2122 01e1 26       		.byte	0x26
 2123 01e2 13020000 		.4byte	0x213
 2124 01e6 0B       		.uleb128 0xb
 2125 01e7 783100   		.ascii	"x1\000"
 2126 01ea 02       		.byte	0x2
 2127 01eb 28       		.byte	0x28
 2128 01ec AB010000 		.4byte	0x1ab
 2129 01f0 00       		.byte	0
 2130 01f1 0B       		.uleb128 0xb
 2131 01f2 793100   		.ascii	"y1\000"
 2132 01f5 02       		.byte	0x2
 2133 01f6 29       		.byte	0x29
 2134 01f7 AB010000 		.4byte	0x1ab
 2135 01fb 02       		.byte	0x2
 2136 01fc 0B       		.uleb128 0xb
 2137 01fd 783200   		.ascii	"x2\000"
 2138 0200 02       		.byte	0x2
 2139 0201 2A       		.byte	0x2a
 2140 0202 AB010000 		.4byte	0x1ab
 2141 0206 04       		.byte	0x4
 2142 0207 0B       		.uleb128 0xb
 2143 0208 793200   		.ascii	"y2\000"
 2144 020b 02       		.byte	0x2
 2145 020c 2B       		.byte	0x2b
 2146 020d AB010000 		.4byte	0x1ab
 2147 0211 06       		.byte	0x6
ARM GAS  C:\Users\d3bug\AppData\Local\Temp\cc5D6foa.s 			page 64


 2148 0212 00       		.byte	0
 2149 0213 03       		.uleb128 0x3
 2150 0214 99060000 		.4byte	.LASF43
 2151 0218 02       		.byte	0x2
 2152 0219 2C       		.byte	0x2c
 2153 021a DE010000 		.4byte	0x1de
 2154 021e 0A       		.uleb128 0xa
 2155 021f 04       		.byte	0x4
 2156 0220 04       		.byte	0x4
 2157 0221 25       		.byte	0x25
 2158 0222 45020000 		.4byte	0x245
 2159 0226 0C       		.uleb128 0xc
 2160 0227 41060000 		.4byte	.LASF44
 2161 022b 04       		.byte	0x4
 2162 022c 27       		.byte	0x27
 2163 022d CE000000 		.4byte	0xce
 2164 0231 04       		.byte	0x4
 2165 0232 08       		.byte	0x8
 2166 0233 18       		.byte	0x18
 2167 0234 00       		.byte	0
 2168 0235 0C       		.uleb128 0xc
 2169 0236 E5050000 		.4byte	.LASF45
 2170 023a 04       		.byte	0x4
 2171 023b 28       		.byte	0x28
 2172 023c CE000000 		.4byte	0xce
 2173 0240 04       		.byte	0x4
 2174 0241 18       		.byte	0x18
 2175 0242 00       		.byte	0
 2176 0243 00       		.byte	0
 2177 0244 00       		.byte	0
 2178 0245 03       		.uleb128 0x3
 2179 0246 5A030000 		.4byte	.LASF46
 2180 024a 04       		.byte	0x4
 2181 024b 29       		.byte	0x29
 2182 024c 1E020000 		.4byte	0x21e
 2183 0250 0D       		.uleb128 0xd
 2184 0251 92020000 		.4byte	.LASF60
 2185 0255 28       		.byte	0x28
 2186 0256 04       		.byte	0x4
 2187 0257 31       		.byte	0x31
 2188 0258 F6020000 		.4byte	0x2f6
 2189 025c 0E       		.uleb128 0xe
 2190 025d 12070000 		.4byte	.LASF47
 2191 0261 04       		.byte	0x4
 2192 0262 33       		.byte	0x33
 2193 0263 CE000000 		.4byte	0xce
 2194 0267 00       		.byte	0
 2195 0268 0E       		.uleb128 0xe
 2196 0269 20070000 		.4byte	.LASF48
 2197 026d 04       		.byte	0x4
 2198 026e 34       		.byte	0x34
 2199 026f CE000000 		.4byte	0xce
 2200 0273 04       		.byte	0x4
 2201 0274 0E       		.uleb128 0xe
 2202 0275 31040000 		.4byte	.LASF49
 2203 0279 04       		.byte	0x4
 2204 027a 35       		.byte	0x35
ARM GAS  C:\Users\d3bug\AppData\Local\Temp\cc5D6foa.s 			page 65


 2205 027b F6020000 		.4byte	0x2f6
 2206 027f 08       		.byte	0x8
 2207 0280 0E       		.uleb128 0xe
 2208 0281 FE060000 		.4byte	.LASF50
 2209 0285 04       		.byte	0x4
 2210 0286 36       		.byte	0x36
 2211 0287 01030000 		.4byte	0x301
 2212 028b 0C       		.byte	0xc
 2213 028c 0E       		.uleb128 0xe
 2214 028d BD000000 		.4byte	.LASF51
 2215 0291 04       		.byte	0x4
 2216 0292 37       		.byte	0x37
 2217 0293 0C030000 		.4byte	0x30c
 2218 0297 10       		.byte	0x10
 2219 0298 0E       		.uleb128 0xe
 2220 0299 8A000000 		.4byte	.LASF52
 2221 029d 04       		.byte	0x4
 2222 029e 38       		.byte	0x38
 2223 029f 36030000 		.4byte	0x336
 2224 02a3 14       		.byte	0x14
 2225 02a4 0E       		.uleb128 0xe
 2226 02a5 6E060000 		.4byte	.LASF53
 2227 02a9 04       		.byte	0x4
 2228 02aa 39       		.byte	0x39
 2229 02ab 50030000 		.4byte	0x350
 2230 02af 18       		.byte	0x18
 2231 02b0 0E       		.uleb128 0xe
 2232 02b1 9F010000 		.4byte	.LASF54
 2233 02b5 04       		.byte	0x4
 2234 02b6 3A       		.byte	0x3a
 2235 02b7 56030000 		.4byte	0x356
 2236 02bb 1C       		.byte	0x1c
 2237 02bc 0C       		.uleb128 0xc
 2238 02bd 2D050000 		.4byte	.LASF55
 2239 02c1 04       		.byte	0x4
 2240 02c2 3B       		.byte	0x3b
 2241 02c3 CE000000 		.4byte	0xce
 2242 02c7 04       		.byte	0x4
 2243 02c8 08       		.byte	0x8
 2244 02c9 18       		.byte	0x18
 2245 02ca 20       		.byte	0x20
 2246 02cb 0F       		.uleb128 0xf
 2247 02cc 62707000 		.ascii	"bpp\000"
 2248 02d0 04       		.byte	0x4
 2249 02d1 3C       		.byte	0x3c
 2250 02d2 CE000000 		.4byte	0xce
 2251 02d6 04       		.byte	0x4
 2252 02d7 04       		.byte	0x4
 2253 02d8 14       		.byte	0x14
 2254 02d9 20       		.byte	0x20
 2255 02da 0C       		.uleb128 0xc
 2256 02db 9F050000 		.4byte	.LASF56
 2257 02df 04       		.byte	0x4
 2258 02e0 3D       		.byte	0x3d
 2259 02e1 CE000000 		.4byte	0xce
 2260 02e5 04       		.byte	0x4
 2261 02e6 08       		.byte	0x8
ARM GAS  C:\Users\d3bug\AppData\Local\Temp\cc5D6foa.s 			page 66


 2262 02e7 0C       		.byte	0xc
 2263 02e8 20       		.byte	0x20
 2264 02e9 0E       		.uleb128 0xe
 2265 02ea 2F010000 		.4byte	.LASF57
 2266 02ee 04       		.byte	0x4
 2267 02ef 3E       		.byte	0x3e
 2268 02f0 B8000000 		.4byte	0xb8
 2269 02f4 24       		.byte	0x24
 2270 02f5 00       		.byte	0
 2271 02f6 10       		.uleb128 0x10
 2272 02f7 04       		.byte	0x4
 2273 02f8 FC020000 		.4byte	0x2fc
 2274 02fc 11       		.uleb128 0x11
 2275 02fd A2000000 		.4byte	0xa2
 2276 0301 10       		.uleb128 0x10
 2277 0302 04       		.byte	0x4
 2278 0303 07030000 		.4byte	0x307
 2279 0307 11       		.uleb128 0x11
 2280 0308 45020000 		.4byte	0x245
 2281 030c 10       		.uleb128 0x10
 2282 030d 04       		.byte	0x4
 2283 030e 12030000 		.4byte	0x312
 2284 0312 11       		.uleb128 0x11
 2285 0313 CE000000 		.4byte	0xce
 2286 0317 12       		.uleb128 0x12
 2287 0318 F6020000 		.4byte	0x2f6
 2288 031c 2B030000 		.4byte	0x32b
 2289 0320 13       		.uleb128 0x13
 2290 0321 2B030000 		.4byte	0x32b
 2291 0325 13       		.uleb128 0x13
 2292 0326 CE000000 		.4byte	0xce
 2293 032a 00       		.byte	0
 2294 032b 10       		.uleb128 0x10
 2295 032c 04       		.byte	0x4
 2296 032d 31030000 		.4byte	0x331
 2297 0331 11       		.uleb128 0x11
 2298 0332 50020000 		.4byte	0x250
 2299 0336 10       		.uleb128 0x10
 2300 0337 04       		.byte	0x4
 2301 0338 17030000 		.4byte	0x317
 2302 033c 12       		.uleb128 0x12
 2303 033d AD000000 		.4byte	0xad
 2304 0341 50030000 		.4byte	0x350
 2305 0345 13       		.uleb128 0x13
 2306 0346 2B030000 		.4byte	0x32b
 2307 034a 13       		.uleb128 0x13
 2308 034b CE000000 		.4byte	0xce
 2309 034f 00       		.byte	0
 2310 0350 10       		.uleb128 0x10
 2311 0351 04       		.byte	0x4
 2312 0352 3C030000 		.4byte	0x33c
 2313 0356 10       		.uleb128 0x10
 2314 0357 04       		.byte	0x4
 2315 0358 50020000 		.4byte	0x250
 2316 035c 03       		.uleb128 0x3
 2317 035d BD040000 		.4byte	.LASF58
 2318 0361 04       		.byte	0x4
ARM GAS  C:\Users\d3bug\AppData\Local\Temp\cc5D6foa.s 			page 67


 2319 0362 3F       		.byte	0x3f
 2320 0363 50020000 		.4byte	0x250
 2321 0367 10       		.uleb128 0x10
 2322 0368 04       		.byte	0x4
 2323 0369 6D030000 		.4byte	0x36d
 2324 036d 11       		.uleb128 0x11
 2325 036e 5C030000 		.4byte	0x35c
 2326 0372 02       		.uleb128 0x2
 2327 0373 01       		.byte	0x1
 2328 0374 02       		.byte	0x2
 2329 0375 75020000 		.4byte	.LASF59
 2330 0379 10       		.uleb128 0x10
 2331 037a 04       		.byte	0x4
 2332 037b 7F030000 		.4byte	0x37f
 2333 037f 11       		.uleb128 0x11
 2334 0380 13020000 		.4byte	0x213
 2335 0384 10       		.uleb128 0x10
 2336 0385 04       		.byte	0x4
 2337 0386 8A030000 		.4byte	0x38a
 2338 038a 11       		.uleb128 0x11
 2339 038b D3010000 		.4byte	0x1d3
 2340 038f 0D       		.uleb128 0xd
 2341 0390 3E000000 		.4byte	.LASF61
 2342 0394 10       		.byte	0x10
 2343 0395 07       		.byte	0x7
 2344 0396 23       		.byte	0x23
 2345 0397 CC030000 		.4byte	0x3cc
 2346 039b 0E       		.uleb128 0xe
 2347 039c 83040000 		.4byte	.LASF62
 2348 03a0 07       		.byte	0x7
 2349 03a1 25       		.byte	0x25
 2350 03a2 F6030000 		.4byte	0x3f6
 2351 03a6 00       		.byte	0
 2352 03a7 0E       		.uleb128 0xe
 2353 03a8 C6020000 		.4byte	.LASF63
 2354 03ac 07       		.byte	0x7
 2355 03ad 28       		.byte	0x28
 2356 03ae 1B040000 		.4byte	0x41b
 2357 03b2 04       		.byte	0x4
 2358 03b3 0E       		.uleb128 0xe
 2359 03b4 3C030000 		.4byte	.LASF64
 2360 03b8 07       		.byte	0x7
 2361 03b9 2B       		.byte	0x2b
 2362 03ba F6030000 		.4byte	0x3f6
 2363 03be 08       		.byte	0x8
 2364 03bf 0E       		.uleb128 0xe
 2365 03c0 01010000 		.4byte	.LASF65
 2366 03c4 07       		.byte	0x7
 2367 03c5 38       		.byte	0x38
 2368 03c6 4B040000 		.4byte	0x44b
 2369 03ca 0C       		.byte	0xc
 2370 03cb 00       		.byte	0
 2371 03cc 14       		.uleb128 0x14
 2372 03cd EB030000 		.4byte	0x3eb
 2373 03d1 13       		.uleb128 0x13
 2374 03d2 C3000000 		.4byte	0xc3
 2375 03d6 13       		.uleb128 0x13
ARM GAS  C:\Users\d3bug\AppData\Local\Temp\cc5D6foa.s 			page 68


 2376 03d7 C3000000 		.4byte	0xc3
 2377 03db 13       		.uleb128 0x13
 2378 03dc C3000000 		.4byte	0xc3
 2379 03e0 13       		.uleb128 0x13
 2380 03e1 C3000000 		.4byte	0xc3
 2381 03e5 13       		.uleb128 0x13
 2382 03e6 EB030000 		.4byte	0x3eb
 2383 03ea 00       		.byte	0
 2384 03eb 10       		.uleb128 0x10
 2385 03ec 04       		.byte	0x4
 2386 03ed F1030000 		.4byte	0x3f1
 2387 03f1 11       		.uleb128 0x11
 2388 03f2 80010000 		.4byte	0x180
 2389 03f6 10       		.uleb128 0x10
 2390 03f7 04       		.byte	0x4
 2391 03f8 CC030000 		.4byte	0x3cc
 2392 03fc 14       		.uleb128 0x14
 2393 03fd 1B040000 		.4byte	0x41b
 2394 0401 13       		.uleb128 0x13
 2395 0402 C3000000 		.4byte	0xc3
 2396 0406 13       		.uleb128 0x13
 2397 0407 C3000000 		.4byte	0xc3
 2398 040b 13       		.uleb128 0x13
 2399 040c C3000000 		.4byte	0xc3
 2400 0410 13       		.uleb128 0x13
 2401 0411 C3000000 		.4byte	0xc3
 2402 0415 13       		.uleb128 0x13
 2403 0416 80010000 		.4byte	0x180
 2404 041a 00       		.byte	0
 2405 041b 10       		.uleb128 0x10
 2406 041c 04       		.byte	0x4
 2407 041d FC030000 		.4byte	0x3fc
 2408 0421 14       		.uleb128 0x14
 2409 0422 45040000 		.4byte	0x445
 2410 0426 13       		.uleb128 0x13
 2411 0427 45040000 		.4byte	0x445
 2412 042b 13       		.uleb128 0x13
 2413 042c AB010000 		.4byte	0x1ab
 2414 0430 13       		.uleb128 0x13
 2415 0431 AB010000 		.4byte	0x1ab
 2416 0435 13       		.uleb128 0x13
 2417 0436 AB010000 		.4byte	0x1ab
 2418 043a 13       		.uleb128 0x13
 2419 043b 80010000 		.4byte	0x180
 2420 043f 13       		.uleb128 0x13
 2421 0440 8B010000 		.4byte	0x18b
 2422 0444 00       		.byte	0
 2423 0445 10       		.uleb128 0x10
 2424 0446 04       		.byte	0x4
 2425 0447 A2000000 		.4byte	0xa2
 2426 044b 10       		.uleb128 0x10
 2427 044c 04       		.byte	0x4
 2428 044d 21040000 		.4byte	0x421
 2429 0451 03       		.uleb128 0x3
 2430 0452 80010000 		.4byte	.LASF66
 2431 0456 07       		.byte	0x7
 2432 0457 3A       		.byte	0x3a
ARM GAS  C:\Users\d3bug\AppData\Local\Temp\cc5D6foa.s 			page 69


 2433 0458 8F030000 		.4byte	0x38f
 2434 045c 0D       		.uleb128 0xd
 2435 045d 03040000 		.4byte	.LASF67
 2436 0461 14       		.byte	0x14
 2437 0462 07       		.byte	0x7
 2438 0463 3C       		.byte	0x3c
 2439 0464 81040000 		.4byte	0x481
 2440 0468 0E       		.uleb128 0xe
 2441 0469 82030000 		.4byte	.LASF68
 2442 046d 07       		.byte	0x7
 2443 046e 3D       		.byte	0x3d
 2444 046f 51040000 		.4byte	0x451
 2445 0473 00       		.byte	0
 2446 0474 0E       		.uleb128 0xe
 2447 0475 6B000000 		.4byte	.LASF69
 2448 0479 07       		.byte	0x7
 2449 047a 3E       		.byte	0x3e
 2450 047b 81040000 		.4byte	0x481
 2451 047f 10       		.byte	0x10
 2452 0480 00       		.byte	0
 2453 0481 10       		.uleb128 0x10
 2454 0482 04       		.byte	0x4
 2455 0483 5C040000 		.4byte	0x45c
 2456 0487 03       		.uleb128 0x3
 2457 0488 5A060000 		.4byte	.LASF70
 2458 048c 07       		.byte	0x7
 2459 048d 3F       		.byte	0x3f
 2460 048e 5C040000 		.4byte	0x45c
 2461 0492 0A       		.uleb128 0xa
 2462 0493 0C       		.byte	0xc
 2463 0494 08       		.byte	0x8
 2464 0495 35       		.byte	0x35
 2465 0496 B3040000 		.4byte	0x4b3
 2466 049a 0E       		.uleb128 0xe
 2467 049b 89030000 		.4byte	.LASF71
 2468 049f 08       		.byte	0x8
 2469 04a0 37       		.byte	0x37
 2470 04a1 13020000 		.4byte	0x213
 2471 04a5 00       		.byte	0
 2472 04a6 0B       		.uleb128 0xb
 2473 04a7 62756600 		.ascii	"buf\000"
 2474 04ab 08       		.byte	0x8
 2475 04ac 38       		.byte	0x38
 2476 04ad B3040000 		.4byte	0x4b3
 2477 04b1 08       		.byte	0x8
 2478 04b2 00       		.byte	0
 2479 04b3 10       		.uleb128 0x10
 2480 04b4 04       		.byte	0x4
 2481 04b5 80010000 		.4byte	0x180
 2482 04b9 03       		.uleb128 0x3
 2483 04ba 24050000 		.4byte	.LASF72
 2484 04be 08       		.byte	0x8
 2485 04bf 39       		.byte	0x39
 2486 04c0 92040000 		.4byte	0x492
 2487 04c4 15       		.uleb128 0x15
 2488 04c5 DE030000 		.4byte	.LASF73
 2489 04c9 02       		.byte	0x2
ARM GAS  C:\Users\d3bug\AppData\Local\Temp\cc5D6foa.s 			page 70


 2490 04ca 4B       		.byte	0x4b
 2491 04cb AB010000 		.4byte	0x1ab
 2492 04cf 03       		.byte	0x3
 2493 04d0 E0040000 		.4byte	0x4e0
 2494 04d4 16       		.uleb128 0x16
 2495 04d5 57040000 		.4byte	.LASF75
 2496 04d9 02       		.byte	0x2
 2497 04da 4B       		.byte	0x4b
 2498 04db 79030000 		.4byte	0x379
 2499 04df 00       		.byte	0
 2500 04e0 17       		.uleb128 0x17
 2501 04e1 8E040000 		.4byte	.LASF74
 2502 04e5 03       		.byte	0x3
 2503 04e6 4601     		.2byte	0x146
 2504 04e8 80010000 		.4byte	0x180
 2505 04ec 03       		.byte	0x3
 2506 04ed 20050000 		.4byte	0x520
 2507 04f1 18       		.uleb128 0x18
 2508 04f2 633100   		.ascii	"c1\000"
 2509 04f5 03       		.byte	0x3
 2510 04f6 4601     		.2byte	0x146
 2511 04f8 80010000 		.4byte	0x180
 2512 04fc 18       		.uleb128 0x18
 2513 04fd 633200   		.ascii	"c2\000"
 2514 0500 03       		.byte	0x3
 2515 0501 4601     		.2byte	0x146
 2516 0503 80010000 		.4byte	0x180
 2517 0507 18       		.uleb128 0x18
 2518 0508 6D697800 		.ascii	"mix\000"
 2519 050c 03       		.byte	0x3
 2520 050d 4601     		.2byte	0x146
 2521 050f A2000000 		.4byte	0xa2
 2522 0513 19       		.uleb128 0x19
 2523 0514 72657400 		.ascii	"ret\000"
 2524 0518 03       		.byte	0x3
 2525 0519 4801     		.2byte	0x148
 2526 051b 80010000 		.4byte	0x180
 2527 051f 00       		.byte	0
 2528 0520 15       		.uleb128 0x15
 2529 0521 2B000000 		.4byte	.LASF76
 2530 0525 04       		.byte	0x4
 2531 0526 7E       		.byte	0x7e
 2532 0527 A2000000 		.4byte	0xa2
 2533 052b 03       		.byte	0x3
 2534 052c 3C050000 		.4byte	0x53c
 2535 0530 16       		.uleb128 0x16
 2536 0531 AE020000 		.4byte	.LASF77
 2537 0535 04       		.byte	0x4
 2538 0536 7E       		.byte	0x7e
 2539 0537 67030000 		.4byte	0x367
 2540 053b 00       		.byte	0
 2541 053c 1A       		.uleb128 0x1a
 2542 053d C6030000 		.4byte	.LASF87
 2543 0541 01       		.byte	0x1
 2544 0542 4E02     		.2byte	0x24e
 2545 0544 00000000 		.4byte	.LFB17
 2546 0548 36010000 		.4byte	.LFE17-.LFB17
ARM GAS  C:\Users\d3bug\AppData\Local\Temp\cc5D6foa.s 			page 71


 2547 054c 01       		.uleb128 0x1
 2548 054d 9C       		.byte	0x9c
 2549 054e 11070000 		.4byte	0x711
 2550 0552 1B       		.uleb128 0x1b
 2551 0553 B4000000 		.4byte	.LASF78
 2552 0557 01       		.byte	0x1
 2553 0558 4E02     		.2byte	0x24e
 2554 055a 11070000 		.4byte	0x711
 2555 055e 00000000 		.4byte	.LLST0
 2556 0562 1C       		.uleb128 0x1c
 2557 0563 6D656D00 		.ascii	"mem\000"
 2558 0567 01       		.byte	0x1
 2559 0568 4E02     		.2byte	0x24e
 2560 056a B3040000 		.4byte	0x4b3
 2561 056e 21000000 		.4byte	.LLST1
 2562 0572 1B       		.uleb128 0x1b
 2563 0573 7B050000 		.4byte	.LASF79
 2564 0577 01       		.byte	0x1
 2565 0578 4E02     		.2byte	0x24e
 2566 057a 79030000 		.4byte	0x379
 2567 057e 61000000 		.4byte	.LLST2
 2568 0582 1B       		.uleb128 0x1b
 2569 0583 BC010000 		.4byte	.LASF80
 2570 0587 01       		.byte	0x1
 2571 0588 4E02     		.2byte	0x24e
 2572 058a 80010000 		.4byte	0x180
 2573 058e 7F000000 		.4byte	.LLST3
 2574 0592 1D       		.uleb128 0x1d
 2575 0593 6F706100 		.ascii	"opa\000"
 2576 0597 01       		.byte	0x1
 2577 0598 4E02     		.2byte	0x24e
 2578 059a 8B010000 		.4byte	0x18b
 2579 059e 02       		.uleb128 0x2
 2580 059f 91       		.byte	0x91
 2581 05a0 00       		.sleb128 0
 2582 05a1 1E       		.uleb128 0x1e
 2583 05a2 726F7700 		.ascii	"row\000"
 2584 05a6 01       		.byte	0x1
 2585 05a7 5102     		.2byte	0x251
 2586 05a9 AB010000 		.4byte	0x1ab
 2587 05ad BE000000 		.4byte	.LLST4
 2588 05b1 1E       		.uleb128 0x1e
 2589 05b2 636F6C00 		.ascii	"col\000"
 2590 05b6 01       		.byte	0x1
 2591 05b7 5202     		.2byte	0x252
 2592 05b9 AB010000 		.4byte	0x1ab
 2593 05bd 08010000 		.4byte	.LLST5
 2594 05c1 1F       		.uleb128 0x1f
 2595 05c2 68050000 		.4byte	.LASF81
 2596 05c6 01       		.byte	0x1
 2597 05c7 5302     		.2byte	0x253
 2598 05c9 AB010000 		.4byte	0x1ab
 2599 05cd 20       		.uleb128 0x20
 2600 05ce 2C040000 		.4byte	.LASF82
 2601 05d2 01       		.byte	0x1
 2602 05d3 5502     		.2byte	0x255
 2603 05d5 17070000 		.4byte	0x717
ARM GAS  C:\Users\d3bug\AppData\Local\Temp\cc5D6foa.s 			page 72


 2604 05d9 52010000 		.4byte	.LLST6
 2605 05dd 21       		.uleb128 0x21
 2606 05de C4040000 		.4byte	0x4c4
 2607 05e2 10000000 		.4byte	.LBB45
 2608 05e6 14000000 		.4byte	.LBE45-.LBB45
 2609 05ea 01       		.byte	0x1
 2610 05eb 5302     		.2byte	0x253
 2611 05ed FB050000 		.4byte	0x5fb
 2612 05f1 22       		.uleb128 0x22
 2613 05f2 D4040000 		.4byte	0x4d4
 2614 05f6 7B010000 		.4byte	.LLST7
 2615 05fa 00       		.byte	0
 2616 05fb 23       		.uleb128 0x23
 2617 05fc 7C000000 		.4byte	.LBB47
 2618 0600 50000000 		.4byte	.LBE47-.LBB47
 2619 0604 3F060000 		.4byte	0x63f
 2620 0608 20       		.uleb128 0x20
 2621 0609 E8000000 		.4byte	.LASF83
 2622 060d 01       		.byte	0x1
 2623 060e 6802     		.2byte	0x268
 2624 0610 B3040000 		.4byte	0x4b3
 2625 0614 8E010000 		.4byte	.LLST8
 2626 0618 20       		.uleb128 0x20
 2627 0619 DD020000 		.4byte	.LASF84
 2628 061d 01       		.byte	0x1
 2629 061e 6902     		.2byte	0x269
 2630 0620 AB010000 		.4byte	0x1ab
 2631 0624 A1010000 		.4byte	.LLST9
 2632 0628 24       		.uleb128 0x24
 2633 0629 BC000000 		.4byte	.LVL25
 2634 062d 6B120000 		.4byte	0x126b
 2635 0631 25       		.uleb128 0x25
 2636 0632 01       		.uleb128 0x1
 2637 0633 51       		.byte	0x51
 2638 0634 02       		.uleb128 0x2
 2639 0635 79       		.byte	0x79
 2640 0636 00       		.sleb128 0
 2641 0637 25       		.uleb128 0x25
 2642 0638 01       		.uleb128 0x1
 2643 0639 52       		.byte	0x52
 2644 063a 02       		.uleb128 0x2
 2645 063b 75       		.byte	0x75
 2646 063c 00       		.sleb128 0
 2647 063d 00       		.byte	0
 2648 063e 00       		.byte	0
 2649 063f 23       		.uleb128 0x23
 2650 0640 CC000000 		.4byte	.LBB48
 2651 0644 64000000 		.4byte	.LBE48-.LBB48
 2652 0648 D7060000 		.4byte	0x6d7
 2653 064c 20       		.uleb128 0x20
 2654 064d 2D070000 		.4byte	.LASF85
 2655 0651 01       		.byte	0x1
 2656 0652 7502     		.2byte	0x275
 2657 0654 80010000 		.4byte	0x180
 2658 0658 B4010000 		.4byte	.LLST10
 2659 065c 26       		.uleb128 0x26
 2660 065d 8E030000 		.4byte	.LASF86
ARM GAS  C:\Users\d3bug\AppData\Local\Temp\cc5D6foa.s 			page 73


 2661 0661 01       		.byte	0x1
 2662 0662 7602     		.2byte	0x276
 2663 0664 80010000 		.4byte	0x180
 2664 0668 01       		.uleb128 0x1
 2665 0669 5E       		.byte	0x5e
 2666 066a 21       		.uleb128 0x21
 2667 066b E0040000 		.4byte	0x4e0
 2668 066f D0000000 		.4byte	.LBB49
 2669 0673 14000000 		.4byte	.LBE49-.LBB49
 2670 0677 01       		.byte	0x1
 2671 0678 7602     		.2byte	0x276
 2672 067a A1060000 		.4byte	0x6a1
 2673 067e 22       		.uleb128 0x22
 2674 067f 07050000 		.4byte	0x507
 2675 0683 D2010000 		.4byte	.LLST11
 2676 0687 27       		.uleb128 0x27
 2677 0688 FC040000 		.4byte	0x4fc
 2678 068c 27       		.uleb128 0x27
 2679 068d F1040000 		.4byte	0x4f1
 2680 0691 28       		.uleb128 0x28
 2681 0692 D0000000 		.4byte	.LBB50
 2682 0696 14000000 		.4byte	.LBE50-.LBB50
 2683 069a 29       		.uleb128 0x29
 2684 069b 13050000 		.4byte	0x513
 2685 069f 00       		.byte	0
 2686 06a0 00       		.byte	0
 2687 06a1 2A       		.uleb128 0x2a
 2688 06a2 E0040000 		.4byte	0x4e0
 2689 06a6 FC000000 		.4byte	.LBB51
 2690 06aa 16000000 		.4byte	.LBE51-.LBB51
 2691 06ae 01       		.byte	0x1
 2692 06af 7E02     		.2byte	0x27e
 2693 06b1 22       		.uleb128 0x22
 2694 06b2 07050000 		.4byte	0x507
 2695 06b6 F1010000 		.4byte	.LLST12
 2696 06ba 27       		.uleb128 0x27
 2697 06bb FC040000 		.4byte	0x4fc
 2698 06bf 27       		.uleb128 0x27
 2699 06c0 F1040000 		.4byte	0x4f1
 2700 06c4 28       		.uleb128 0x28
 2701 06c5 FC000000 		.4byte	.LBB52
 2702 06c9 16000000 		.4byte	.LBE52-.LBB52
 2703 06cd 2B       		.uleb128 0x2b
 2704 06ce 13050000 		.4byte	0x513
 2705 06d2 01       		.uleb128 0x1
 2706 06d3 54       		.byte	0x54
 2707 06d4 00       		.byte	0
 2708 06d5 00       		.byte	0
 2709 06d6 00       		.byte	0
 2710 06d7 2C       		.uleb128 0x2c
 2711 06d8 28000000 		.4byte	.LVL4
 2712 06dc 74120000 		.4byte	0x1274
 2713 06e0 2D       		.uleb128 0x2d
 2714 06e1 50000000 		.4byte	.LVL8
 2715 06e5 02       		.uleb128 0x2
 2716 06e6 79       		.byte	0x79
 2717 06e7 00       		.sleb128 0
ARM GAS  C:\Users\d3bug\AppData\Local\Temp\cc5D6foa.s 			page 74


 2718 06e8 25       		.uleb128 0x25
 2719 06e9 01       		.uleb128 0x1
 2720 06ea 50       		.byte	0x50
 2721 06eb 03       		.uleb128 0x3
 2722 06ec 91       		.byte	0x91
 2723 06ed 54       		.sleb128 -44
 2724 06ee 06       		.byte	0x6
 2725 06ef 25       		.uleb128 0x25
 2726 06f0 01       		.uleb128 0x1
 2727 06f1 51       		.byte	0x51
 2728 06f2 02       		.uleb128 0x2
 2729 06f3 78       		.byte	0x78
 2730 06f4 00       		.sleb128 0
 2731 06f5 25       		.uleb128 0x25
 2732 06f6 01       		.uleb128 0x1
 2733 06f7 52       		.byte	0x52
 2734 06f8 02       		.uleb128 0x2
 2735 06f9 76       		.byte	0x76
 2736 06fa 00       		.sleb128 0
 2737 06fb 25       		.uleb128 0x25
 2738 06fc 01       		.uleb128 0x1
 2739 06fd 53       		.byte	0x53
 2740 06fe 02       		.uleb128 0x2
 2741 06ff 74       		.byte	0x74
 2742 0700 00       		.sleb128 0
 2743 0701 25       		.uleb128 0x25
 2744 0702 02       		.uleb128 0x2
 2745 0703 7D       		.byte	0x7d
 2746 0704 00       		.sleb128 0
 2747 0705 02       		.uleb128 0x2
 2748 0706 7A       		.byte	0x7a
 2749 0707 00       		.sleb128 0
 2750 0708 25       		.uleb128 0x25
 2751 0709 02       		.uleb128 0x2
 2752 070a 7D       		.byte	0x7d
 2753 070b 04       		.sleb128 4
 2754 070c 02       		.uleb128 0x2
 2755 070d 75       		.byte	0x75
 2756 070e 00       		.sleb128 0
 2757 070f 00       		.byte	0
 2758 0710 00       		.byte	0
 2759 0711 10       		.uleb128 0x10
 2760 0712 04       		.byte	0x4
 2761 0713 13020000 		.4byte	0x213
 2762 0717 10       		.uleb128 0x10
 2763 0718 04       		.byte	0x4
 2764 0719 87040000 		.4byte	0x487
 2765 071d 1A       		.uleb128 0x1a
 2766 071e 08010000 		.4byte	.LASF88
 2767 0722 01       		.byte	0x1
 2768 0723 3A02     		.2byte	0x23a
 2769 0725 00000000 		.4byte	.LFB16
 2770 0729 36000000 		.4byte	.LFE16-.LFB16
 2771 072d 01       		.uleb128 0x1
 2772 072e 9C       		.byte	0x9c
 2773 072f E4070000 		.4byte	0x7e4
 2774 0733 1B       		.uleb128 0x1b
ARM GAS  C:\Users\d3bug\AppData\Local\Temp\cc5D6foa.s 			page 75


 2775 0734 34070000 		.4byte	.LASF89
 2776 0738 01       		.byte	0x1
 2777 0739 3A02     		.2byte	0x23a
 2778 073b B3040000 		.4byte	0x4b3
 2779 073f 05020000 		.4byte	.LLST13
 2780 0743 1C       		.uleb128 0x1c
 2781 0744 73726300 		.ascii	"src\000"
 2782 0748 01       		.byte	0x1
 2783 0749 3A02     		.2byte	0x23a
 2784 074b EB030000 		.4byte	0x3eb
 2785 074f 31020000 		.4byte	.LLST14
 2786 0753 1B       		.uleb128 0x1b
 2787 0754 14050000 		.4byte	.LASF90
 2788 0758 01       		.byte	0x1
 2789 0759 3A02     		.2byte	0x23a
 2790 075b CE000000 		.4byte	0xce
 2791 075f 5D020000 		.4byte	.LLST15
 2792 0763 1C       		.uleb128 0x1c
 2793 0764 6F706100 		.ascii	"opa\000"
 2794 0768 01       		.byte	0x1
 2795 0769 3A02     		.2byte	0x23a
 2796 076b 8B010000 		.4byte	0x18b
 2797 076f 89020000 		.4byte	.LLST16
 2798 0773 2E       		.uleb128 0x2e
 2799 0774 00000000 		.4byte	.Ldebug_ranges0+0
 2800 0778 C4070000 		.4byte	0x7c4
 2801 077c 1E       		.uleb128 0x1e
 2802 077d 636F6C00 		.ascii	"col\000"
 2803 0781 01       		.byte	0x1
 2804 0782 3F02     		.2byte	0x23f
 2805 0784 CE000000 		.4byte	0xce
 2806 0788 B5020000 		.4byte	.LLST17
 2807 078c 2A       		.uleb128 0x2a
 2808 078d E0040000 		.4byte	0x4e0
 2809 0791 14000000 		.4byte	.LBB54
 2810 0795 14000000 		.4byte	.LBE54-.LBB54
 2811 0799 01       		.byte	0x1
 2812 079a 4102     		.2byte	0x241
 2813 079c 22       		.uleb128 0x22
 2814 079d 07050000 		.4byte	0x507
 2815 07a1 D3020000 		.4byte	.LLST18
 2816 07a5 27       		.uleb128 0x27
 2817 07a6 FC040000 		.4byte	0x4fc
 2818 07aa 27       		.uleb128 0x27
 2819 07ab F1040000 		.4byte	0x4f1
 2820 07af 28       		.uleb128 0x28
 2821 07b0 14000000 		.4byte	.LBB55
 2822 07b4 14000000 		.4byte	.LBE55-.LBB55
 2823 07b8 2F       		.uleb128 0x2f
 2824 07b9 13050000 		.4byte	0x513
 2825 07bd E6020000 		.4byte	.LLST19
 2826 07c1 00       		.byte	0
 2827 07c2 00       		.byte	0
 2828 07c3 00       		.byte	0
 2829 07c4 24       		.uleb128 0x24
 2830 07c5 0A000000 		.4byte	.LVL46
 2831 07c9 6B120000 		.4byte	0x126b
ARM GAS  C:\Users\d3bug\AppData\Local\Temp\cc5D6foa.s 			page 76


 2832 07cd 25       		.uleb128 0x25
 2833 07ce 01       		.uleb128 0x1
 2834 07cf 50       		.byte	0x50
 2835 07d0 03       		.uleb128 0x3
 2836 07d1 F3       		.byte	0xf3
 2837 07d2 01       		.uleb128 0x1
 2838 07d3 50       		.byte	0x50
 2839 07d4 25       		.uleb128 0x25
 2840 07d5 01       		.uleb128 0x1
 2841 07d6 51       		.byte	0x51
 2842 07d7 03       		.uleb128 0x3
 2843 07d8 F3       		.byte	0xf3
 2844 07d9 01       		.uleb128 0x1
 2845 07da 51       		.byte	0x51
 2846 07db 25       		.uleb128 0x25
 2847 07dc 01       		.uleb128 0x1
 2848 07dd 52       		.byte	0x52
 2849 07de 03       		.uleb128 0x3
 2850 07df F3       		.byte	0xf3
 2851 07e0 01       		.uleb128 0x1
 2852 07e1 52       		.byte	0x52
 2853 07e2 00       		.byte	0
 2854 07e3 00       		.byte	0
 2855 07e4 30       		.uleb128 0x30
 2856 07e5 06060000 		.4byte	.LASF95
 2857 07e9 01       		.byte	0x1
 2858 07ea 43       		.byte	0x43
 2859 07eb 00000000 		.4byte	.LFB12
 2860 07ef C4000000 		.4byte	.LFE12-.LFB12
 2861 07f3 01       		.uleb128 0x1
 2862 07f4 9C       		.byte	0x9c
 2863 07f5 40090000 		.4byte	0x940
 2864 07f9 31       		.uleb128 0x31
 2865 07fa 7800     		.ascii	"x\000"
 2866 07fc 01       		.byte	0x1
 2867 07fd 43       		.byte	0x43
 2868 07fe AB010000 		.4byte	0x1ab
 2869 0802 04030000 		.4byte	.LLST20
 2870 0806 31       		.uleb128 0x31
 2871 0807 7900     		.ascii	"y\000"
 2872 0809 01       		.byte	0x1
 2873 080a 43       		.byte	0x43
 2874 080b AB010000 		.4byte	0x1ab
 2875 080f 30030000 		.4byte	.LLST21
 2876 0813 32       		.uleb128 0x32
 2877 0814 21060000 		.4byte	.LASF91
 2878 0818 01       		.byte	0x1
 2879 0819 43       		.byte	0x43
 2880 081a 79030000 		.4byte	0x379
 2881 081e 5C030000 		.4byte	.LLST22
 2882 0822 32       		.uleb128 0x32
 2883 0823 BC010000 		.4byte	.LASF80
 2884 0827 01       		.byte	0x1
 2885 0828 43       		.byte	0x43
 2886 0829 80010000 		.4byte	0x180
 2887 082d 88030000 		.4byte	.LLST23
 2888 0831 31       		.uleb128 0x31
ARM GAS  C:\Users\d3bug\AppData\Local\Temp\cc5D6foa.s 			page 77


 2889 0832 6F706100 		.ascii	"opa\000"
 2890 0836 01       		.byte	0x1
 2891 0837 43       		.byte	0x43
 2892 0838 8B010000 		.4byte	0x18b
 2893 083c D2030000 		.4byte	.LLST24
 2894 0840 33       		.uleb128 0x33
 2895 0841 99010000 		.4byte	.LASF92
 2896 0845 01       		.byte	0x1
 2897 0846 48       		.byte	0x48
 2898 0847 40090000 		.4byte	0x940
 2899 084b F1030000 		.4byte	.LLST25
 2900 084f 33       		.uleb128 0x33
 2901 0850 50060000 		.4byte	.LASF93
 2902 0854 01       		.byte	0x1
 2903 0855 54       		.byte	0x54
 2904 0856 CE000000 		.4byte	0xce
 2905 085a 25040000 		.4byte	.LLST26
 2906 085e 33       		.uleb128 0x33
 2907 085f 2C040000 		.4byte	.LASF82
 2908 0863 01       		.byte	0x1
 2909 0864 5A       		.byte	0x5a
 2910 0865 17070000 		.4byte	0x717
 2911 0869 38040000 		.4byte	.LLST27
 2912 086d 34       		.uleb128 0x34
 2913 086e C4040000 		.4byte	0x4c4
 2914 0872 52000000 		.4byte	.LBB57
 2915 0876 12000000 		.4byte	.LBE57-.LBB57
 2916 087a 01       		.byte	0x1
 2917 087b 54       		.byte	0x54
 2918 087c 8A080000 		.4byte	0x88a
 2919 0880 22       		.uleb128 0x22
 2920 0881 D4040000 		.4byte	0x4d4
 2921 0885 56040000 		.4byte	.LLST28
 2922 0889 00       		.byte	0
 2923 088a 23       		.uleb128 0x23
 2924 088b 90000000 		.4byte	.LBB59
 2925 088f 24000000 		.4byte	.LBE59-.LBB59
 2926 0893 D9080000 		.4byte	0x8d9
 2927 0897 33       		.uleb128 0x33
 2928 0898 FA030000 		.4byte	.LASF94
 2929 089c 01       		.byte	0x1
 2930 089d 5E       		.byte	0x5e
 2931 089e B3040000 		.4byte	0x4b3
 2932 08a2 69040000 		.4byte	.LLST29
 2933 08a6 35       		.uleb128 0x35
 2934 08a7 E0040000 		.4byte	0x4e0
 2935 08ab A2000000 		.4byte	.LBB60
 2936 08af 10000000 		.4byte	.LBE60-.LBB60
 2937 08b3 01       		.byte	0x1
 2938 08b4 63       		.byte	0x63
 2939 08b5 22       		.uleb128 0x22
 2940 08b6 07050000 		.4byte	0x507
 2941 08ba 81040000 		.4byte	.LLST30
 2942 08be 27       		.uleb128 0x27
 2943 08bf FC040000 		.4byte	0x4fc
 2944 08c3 27       		.uleb128 0x27
 2945 08c4 F1040000 		.4byte	0x4f1
ARM GAS  C:\Users\d3bug\AppData\Local\Temp\cc5D6foa.s 			page 78


 2946 08c8 28       		.uleb128 0x28
 2947 08c9 A2000000 		.4byte	.LBB61
 2948 08cd 10000000 		.4byte	.LBE61-.LBB61
 2949 08d1 29       		.uleb128 0x29
 2950 08d2 13050000 		.4byte	0x513
 2951 08d6 00       		.byte	0
 2952 08d7 00       		.byte	0
 2953 08d8 00       		.byte	0
 2954 08d9 2C       		.uleb128 0x2c
 2955 08da 20000000 		.4byte	.LVL55
 2956 08de 7F120000 		.4byte	0x127f
 2957 08e2 36       		.uleb128 0x36
 2958 08e3 30000000 		.4byte	.LVL57
 2959 08e7 8A120000 		.4byte	0x128a
 2960 08eb 0D090000 		.4byte	0x90d
 2961 08ef 25       		.uleb128 0x25
 2962 08f0 01       		.uleb128 0x1
 2963 08f1 50       		.byte	0x50
 2964 08f2 01       		.uleb128 0x1
 2965 08f3 32       		.byte	0x32
 2966 08f4 25       		.uleb128 0x25
 2967 08f5 01       		.uleb128 0x1
 2968 08f6 51       		.byte	0x51
 2969 08f7 05       		.uleb128 0x5
 2970 08f8 03       		.byte	0x3
 2971 08f9 14000000 		.4byte	.LC3
 2972 08fd 25       		.uleb128 0x25
 2973 08fe 01       		.uleb128 0x1
 2974 08ff 52       		.byte	0x52
 2975 0900 02       		.uleb128 0x2
 2976 0901 08       		.byte	0x8
 2977 0902 4A       		.byte	0x4a
 2978 0903 25       		.uleb128 0x25
 2979 0904 01       		.uleb128 0x1
 2980 0905 53       		.byte	0x53
 2981 0906 05       		.uleb128 0x5
 2982 0907 03       		.byte	0x3
 2983 0908 00000000 		.4byte	.LC2
 2984 090c 00       		.byte	0
 2985 090d 2C       		.uleb128 0x2c
 2986 090e 78000000 		.4byte	.LVL63
 2987 0912 74120000 		.4byte	0x1274
 2988 0916 2D       		.uleb128 0x2d
 2989 0917 8E000000 		.4byte	.LVL66
 2990 091b 02       		.uleb128 0x2
 2991 091c 75       		.byte	0x75
 2992 091d 00       		.sleb128 0
 2993 091e 25       		.uleb128 0x25
 2994 091f 01       		.uleb128 0x1
 2995 0920 51       		.byte	0x51
 2996 0921 02       		.uleb128 0x2
 2997 0922 7A       		.byte	0x7a
 2998 0923 00       		.sleb128 0
 2999 0924 25       		.uleb128 0x25
 3000 0925 01       		.uleb128 0x1
 3001 0926 52       		.byte	0x52
 3002 0927 02       		.uleb128 0x2
ARM GAS  C:\Users\d3bug\AppData\Local\Temp\cc5D6foa.s 			page 79


 3003 0928 74       		.byte	0x74
 3004 0929 00       		.sleb128 0
 3005 092a 25       		.uleb128 0x25
 3006 092b 01       		.uleb128 0x1
 3007 092c 53       		.byte	0x53
 3008 092d 02       		.uleb128 0x2
 3009 092e 78       		.byte	0x78
 3010 092f 00       		.sleb128 0
 3011 0930 25       		.uleb128 0x25
 3012 0931 02       		.uleb128 0x2
 3013 0932 7D       		.byte	0x7d
 3014 0933 00       		.sleb128 0
 3015 0934 02       		.uleb128 0x2
 3016 0935 77       		.byte	0x77
 3017 0936 00       		.sleb128 0
 3018 0937 25       		.uleb128 0x25
 3019 0938 02       		.uleb128 0x2
 3020 0939 7D       		.byte	0x7d
 3021 093a 04       		.sleb128 4
 3022 093b 02       		.uleb128 0x2
 3023 093c 76       		.byte	0x76
 3024 093d 00       		.sleb128 0
 3025 093e 00       		.byte	0
 3026 093f 00       		.byte	0
 3027 0940 10       		.uleb128 0x10
 3028 0941 04       		.byte	0x4
 3029 0942 B9040000 		.4byte	0x4b9
 3030 0946 30       		.uleb128 0x30
 3031 0947 96030000 		.4byte	.LASF96
 3032 094b 01       		.byte	0x1
 3033 094c 73       		.byte	0x73
 3034 094d 00000000 		.4byte	.LFB13
 3035 0951 94000000 		.4byte	.LFE13-.LFB13
 3036 0955 01       		.uleb128 0x1
 3037 0956 9C       		.byte	0x9c
 3038 0957 630A0000 		.4byte	0xa63
 3039 095b 32       		.uleb128 0x32
 3040 095c D5050000 		.4byte	.LASF97
 3041 0960 01       		.byte	0x1
 3042 0961 73       		.byte	0x73
 3043 0962 79030000 		.4byte	0x379
 3044 0966 94040000 		.4byte	.LLST31
 3045 096a 32       		.uleb128 0x32
 3046 096b 21060000 		.4byte	.LASF91
 3047 096f 01       		.byte	0x1
 3048 0970 73       		.byte	0x73
 3049 0971 79030000 		.4byte	0x379
 3050 0975 BD040000 		.4byte	.LLST32
 3051 0979 32       		.uleb128 0x32
 3052 097a BC010000 		.4byte	.LASF80
 3053 097e 01       		.byte	0x1
 3054 097f 74       		.byte	0x74
 3055 0980 80010000 		.4byte	0x180
 3056 0984 E6040000 		.4byte	.LLST33
 3057 0988 31       		.uleb128 0x31
 3058 0989 6F706100 		.ascii	"opa\000"
 3059 098d 01       		.byte	0x1
ARM GAS  C:\Users\d3bug\AppData\Local\Temp\cc5D6foa.s 			page 80


 3060 098e 74       		.byte	0x74
 3061 098f 8B010000 		.4byte	0x18b
 3062 0993 0F050000 		.4byte	.LLST34
 3063 0997 37       		.uleb128 0x37
 3064 0998 5F020000 		.4byte	.LASF98
 3065 099c 01       		.byte	0x1
 3066 099d 79       		.byte	0x79
 3067 099e 13020000 		.4byte	0x213
 3068 09a2 02       		.uleb128 0x2
 3069 09a3 91       		.byte	0x91
 3070 09a4 60       		.sleb128 -32
 3071 09a5 33       		.uleb128 0x33
 3072 09a6 1B050000 		.4byte	.LASF99
 3073 09aa 01       		.byte	0x1
 3074 09ab 7A       		.byte	0x7a
 3075 09ac 72030000 		.4byte	0x372
 3076 09b0 38050000 		.4byte	.LLST35
 3077 09b4 33       		.uleb128 0x33
 3078 09b5 99010000 		.4byte	.LASF92
 3079 09b9 01       		.byte	0x1
 3080 09ba 7B       		.byte	0x7b
 3081 09bb 40090000 		.4byte	0x940
 3082 09bf 4B050000 		.4byte	.LLST36
 3083 09c3 37       		.uleb128 0x37
 3084 09c4 AA000000 		.4byte	.LASF100
 3085 09c8 01       		.byte	0x1
 3086 09c9 89       		.byte	0x89
 3087 09ca 13020000 		.4byte	0x213
 3088 09ce 02       		.uleb128 0x2
 3089 09cf 91       		.byte	0x91
 3090 09d0 58       		.sleb128 -40
 3091 09d1 38       		.uleb128 0x38
 3092 09d2 D3000000 		.4byte	.LASF101
 3093 09d6 01       		.byte	0x1
 3094 09d7 8F       		.byte	0x8f
 3095 09d8 B3040000 		.4byte	0x4b3
 3096 09dc 33       		.uleb128 0x33
 3097 09dd 50060000 		.4byte	.LASF93
 3098 09e1 01       		.byte	0x1
 3099 09e2 90       		.byte	0x90
 3100 09e3 CE000000 		.4byte	0xce
 3101 09e7 7F050000 		.4byte	.LLST37
 3102 09eb 2C       		.uleb128 0x2c
 3103 09ec 1C000000 		.4byte	.LVL79
 3104 09f0 7F120000 		.4byte	0x127f
 3105 09f4 36       		.uleb128 0x36
 3106 09f5 2C000000 		.4byte	.LVL81
 3107 09f9 8A120000 		.4byte	0x128a
 3108 09fd 1F0A0000 		.4byte	0xa1f
 3109 0a01 25       		.uleb128 0x25
 3110 0a02 01       		.uleb128 0x1
 3111 0a03 50       		.byte	0x50
 3112 0a04 01       		.uleb128 0x1
 3113 0a05 32       		.byte	0x32
 3114 0a06 25       		.uleb128 0x25
 3115 0a07 01       		.uleb128 0x1
 3116 0a08 51       		.byte	0x51
ARM GAS  C:\Users\d3bug\AppData\Local\Temp\cc5D6foa.s 			page 81


 3117 0a09 05       		.uleb128 0x5
 3118 0a0a 03       		.byte	0x3
 3119 0a0b 14000000 		.4byte	.LC3
 3120 0a0f 25       		.uleb128 0x25
 3121 0a10 01       		.uleb128 0x1
 3122 0a11 52       		.byte	0x52
 3123 0a12 02       		.uleb128 0x2
 3124 0a13 08       		.byte	0x8
 3125 0a14 7D       		.byte	0x7d
 3126 0a15 25       		.uleb128 0x25
 3127 0a16 01       		.uleb128 0x1
 3128 0a17 53       		.byte	0x53
 3129 0a18 05       		.uleb128 0x5
 3130 0a19 03       		.byte	0x3
 3131 0a1a 00000000 		.4byte	.LC2
 3132 0a1e 00       		.byte	0
 3133 0a1f 36       		.uleb128 0x36
 3134 0a20 38000000 		.4byte	.LVL84
 3135 0a24 95120000 		.4byte	0x1295
 3136 0a28 3F0A0000 		.4byte	0xa3f
 3137 0a2c 25       		.uleb128 0x25
 3138 0a2d 01       		.uleb128 0x1
 3139 0a2e 50       		.byte	0x50
 3140 0a2f 02       		.uleb128 0x2
 3141 0a30 91       		.byte	0x91
 3142 0a31 60       		.sleb128 -32
 3143 0a32 25       		.uleb128 0x25
 3144 0a33 01       		.uleb128 0x1
 3145 0a34 51       		.byte	0x51
 3146 0a35 02       		.uleb128 0x2
 3147 0a36 75       		.byte	0x75
 3148 0a37 00       		.sleb128 0
 3149 0a38 25       		.uleb128 0x25
 3150 0a39 01       		.uleb128 0x1
 3151 0a3a 52       		.byte	0x52
 3152 0a3b 02       		.uleb128 0x2
 3153 0a3c 76       		.byte	0x76
 3154 0a3d 00       		.sleb128 0
 3155 0a3e 00       		.byte	0
 3156 0a3f 24       		.uleb128 0x24
 3157 0a40 82000000 		.4byte	.LVL88
 3158 0a44 3C050000 		.4byte	0x53c
 3159 0a48 25       		.uleb128 0x25
 3160 0a49 01       		.uleb128 0x1
 3161 0a4a 50       		.byte	0x50
 3162 0a4b 02       		.uleb128 0x2
 3163 0a4c 78       		.byte	0x78
 3164 0a4d 00       		.sleb128 0
 3165 0a4e 25       		.uleb128 0x25
 3166 0a4f 01       		.uleb128 0x1
 3167 0a50 52       		.byte	0x52
 3168 0a51 02       		.uleb128 0x2
 3169 0a52 91       		.byte	0x91
 3170 0a53 58       		.sleb128 -40
 3171 0a54 25       		.uleb128 0x25
 3172 0a55 01       		.uleb128 0x1
 3173 0a56 53       		.byte	0x53
ARM GAS  C:\Users\d3bug\AppData\Local\Temp\cc5D6foa.s 			page 82


 3174 0a57 02       		.uleb128 0x2
 3175 0a58 77       		.byte	0x77
 3176 0a59 00       		.sleb128 0
 3177 0a5a 25       		.uleb128 0x25
 3178 0a5b 02       		.uleb128 0x2
 3179 0a5c 7D       		.byte	0x7d
 3180 0a5d 00       		.sleb128 0
 3181 0a5e 02       		.uleb128 0x2
 3182 0a5f 74       		.byte	0x74
 3183 0a60 00       		.sleb128 0
 3184 0a61 00       		.byte	0
 3185 0a62 00       		.byte	0
 3186 0a63 30       		.uleb128 0x30
 3187 0a64 B5060000 		.4byte	.LASF102
 3188 0a68 01       		.byte	0x1
 3189 0a69 E9       		.byte	0xe9
 3190 0a6a 00000000 		.4byte	.LFB14
 3191 0a6e 5E030000 		.4byte	.LFE14-.LFB14
 3192 0a72 01       		.uleb128 0x1
 3193 0a73 9C       		.byte	0x9c
 3194 0a74 FE0D0000 		.4byte	0xdfe
 3195 0a78 32       		.uleb128 0x32
 3196 0a79 AF060000 		.4byte	.LASF103
 3197 0a7d 01       		.byte	0x1
 3198 0a7e E9       		.byte	0xe9
 3199 0a7f 84030000 		.4byte	0x384
 3200 0a83 A1050000 		.4byte	.LLST38
 3201 0a87 32       		.uleb128 0x32
 3202 0a88 21060000 		.4byte	.LASF91
 3203 0a8c 01       		.byte	0x1
 3204 0a8d E9       		.byte	0xe9
 3205 0a8e 79030000 		.4byte	0x379
 3206 0a92 E6050000 		.4byte	.LLST39
 3207 0a96 32       		.uleb128 0x32
 3208 0a97 AE020000 		.4byte	.LASF77
 3209 0a9b 01       		.byte	0x1
 3210 0a9c EA       		.byte	0xea
 3211 0a9d 67030000 		.4byte	0x367
 3212 0aa1 12060000 		.4byte	.LLST40
 3213 0aa5 32       		.uleb128 0x32
 3214 0aa6 6E020000 		.4byte	.LASF104
 3215 0aaa 01       		.byte	0x1
 3216 0aab EA       		.byte	0xea
 3217 0aac CE000000 		.4byte	0xce
 3218 0ab0 3E060000 		.4byte	.LLST41
 3219 0ab4 32       		.uleb128 0x32
 3220 0ab5 BC010000 		.4byte	.LASF80
 3221 0ab9 01       		.byte	0x1
 3222 0aba EB       		.byte	0xeb
 3223 0abb 80010000 		.4byte	0x180
 3224 0abf 6A060000 		.4byte	.LLST42
 3225 0ac3 31       		.uleb128 0x31
 3226 0ac4 6F706100 		.ascii	"opa\000"
 3227 0ac8 01       		.byte	0x1
 3228 0ac9 EB       		.byte	0xeb
 3229 0aca 8B010000 		.4byte	0x18b
 3230 0ace 95060000 		.4byte	.LLST43
ARM GAS  C:\Users\d3bug\AppData\Local\Temp\cc5D6foa.s 			page 83


 3231 0ad2 37       		.uleb128 0x37
 3232 0ad3 1C000000 		.4byte	.LASF105
 3233 0ad7 01       		.byte	0x1
 3234 0ad8 ED       		.byte	0xed
 3235 0ad9 0E0E0000 		.4byte	0xe0e
 3236 0add 02       		.uleb128 0x2
 3237 0ade 91       		.byte	0x91
 3238 0adf 54       		.sleb128 -44
 3239 0ae0 37       		.uleb128 0x37
 3240 0ae1 70000000 		.4byte	.LASF106
 3241 0ae5 01       		.byte	0x1
 3242 0ae6 EE       		.byte	0xee
 3243 0ae7 230E0000 		.4byte	0xe23
 3244 0aeb 02       		.uleb128 0x2
 3245 0aec 91       		.byte	0x91
 3246 0aed 50       		.sleb128 -48
 3247 0aee 37       		.uleb128 0x37
 3248 0aef B7030000 		.4byte	.LASF107
 3249 0af3 01       		.byte	0x1
 3250 0af4 EF       		.byte	0xef
 3251 0af5 380E0000 		.4byte	0xe38
 3252 0af9 02       		.uleb128 0x2
 3253 0afa 91       		.byte	0x91
 3254 0afb 40       		.sleb128 -64
 3255 0afc 33       		.uleb128 0x33
 3256 0afd D3060000 		.4byte	.LASF108
 3257 0b01 01       		.byte	0x1
 3258 0b02 FC       		.byte	0xfc
 3259 0b03 AB010000 		.4byte	0x1ab
 3260 0b07 B4060000 		.4byte	.LLST44
 3261 0b0b 33       		.uleb128 0x33
 3262 0b0c D9060000 		.4byte	.LASF109
 3263 0b10 01       		.byte	0x1
 3264 0b11 FD       		.byte	0xfd
 3265 0b12 AB010000 		.4byte	0x1ab
 3266 0b16 C9060000 		.4byte	.LLST45
 3267 0b1a 33       		.uleb128 0x33
 3268 0b1b CA000000 		.4byte	.LASF110
 3269 0b1f 01       		.byte	0x1
 3270 0b20 FE       		.byte	0xfe
 3271 0b21 A2000000 		.4byte	0xa2
 3272 0b25 DE060000 		.4byte	.LLST46
 3273 0b29 38       		.uleb128 0x38
 3274 0b2a 4E040000 		.4byte	.LASF111
 3275 0b2e 01       		.byte	0x1
 3276 0b2f FF       		.byte	0xff
 3277 0b30 A2000000 		.4byte	0xa2
 3278 0b34 1E       		.uleb128 0x1e
 3279 0b35 62707000 		.ascii	"bpp\000"
 3280 0b39 01       		.byte	0x1
 3281 0b3a 0001     		.2byte	0x100
 3282 0b3c A2000000 		.4byte	0xa2
 3283 0b40 FC060000 		.4byte	.LLST47
 3284 0b44 20       		.uleb128 0x20
 3285 0b45 78060000 		.4byte	.LASF112
 3286 0b49 01       		.byte	0x1
 3287 0b4a 0101     		.2byte	0x101
ARM GAS  C:\Users\d3bug\AppData\Local\Temp\cc5D6foa.s 			page 84


 3288 0b4c F6020000 		.4byte	0x2f6
 3289 0b50 11070000 		.4byte	.LLST48
 3290 0b54 20       		.uleb128 0x20
 3291 0b55 D4030000 		.4byte	.LASF113
 3292 0b59 01       		.byte	0x1
 3293 0b5a 0201     		.2byte	0x102
 3294 0b5c A2000000 		.4byte	0xa2
 3295 0b60 4A070000 		.4byte	.LLST49
 3296 0b64 20       		.uleb128 0x20
 3297 0b65 3E040000 		.4byte	.LASF114
 3298 0b69 01       		.byte	0x1
 3299 0b6a 0301     		.2byte	0x103
 3300 0b6c A2000000 		.4byte	0xa2
 3301 0b70 79070000 		.4byte	.LLST50
 3302 0b74 20       		.uleb128 0x20
 3303 0b75 03050000 		.4byte	.LASF115
 3304 0b79 01       		.byte	0x1
 3305 0b7a 1F01     		.2byte	0x11f
 3306 0b7c F6020000 		.4byte	0x2f6
 3307 0b80 AF070000 		.4byte	.LLST51
 3308 0b84 20       		.uleb128 0x20
 3309 0b85 99010000 		.4byte	.LASF92
 3310 0b89 01       		.byte	0x1
 3311 0b8a 2701     		.2byte	0x127
 3312 0b8c 40090000 		.4byte	0x940
 3313 0b90 E5070000 		.4byte	.LLST52
 3314 0b94 1F       		.uleb128 0x1f
 3315 0b95 50060000 		.4byte	.LASF93
 3316 0b99 01       		.byte	0x1
 3317 0b9a 2D01     		.2byte	0x12d
 3318 0b9c AB010000 		.4byte	0x1ab
 3319 0ba0 20       		.uleb128 0x20
 3320 0ba1 D3000000 		.4byte	.LASF101
 3321 0ba5 01       		.byte	0x1
 3322 0ba6 2E01     		.2byte	0x12e
 3323 0ba8 B3040000 		.4byte	0x4b3
 3324 0bac 1D080000 		.4byte	.LLST53
 3325 0bb0 1E       		.uleb128 0x1e
 3326 0bb1 636F6C00 		.ascii	"col\000"
 3327 0bb5 01       		.byte	0x1
 3328 0bb6 2F01     		.2byte	0x12f
 3329 0bb8 AB010000 		.4byte	0x1ab
 3330 0bbc 7B080000 		.4byte	.LLST54
 3331 0bc0 1E       		.uleb128 0x1e
 3332 0bc1 726F7700 		.ascii	"row\000"
 3333 0bc5 01       		.byte	0x1
 3334 0bc6 2F01     		.2byte	0x12f
 3335 0bc8 AB010000 		.4byte	0x1ab
 3336 0bcc A6080000 		.4byte	.LLST55
 3337 0bd0 20       		.uleb128 0x20
 3338 0bd1 E6060000 		.4byte	.LASF116
 3339 0bd5 01       		.byte	0x1
 3340 0bd6 3001     		.2byte	0x130
 3341 0bd8 A2000000 		.4byte	0xa2
 3342 0bdc BB080000 		.4byte	.LLST56
 3343 0be0 20       		.uleb128 0x20
 3344 0be1 D0020000 		.4byte	.LASF117
ARM GAS  C:\Users\d3bug\AppData\Local\Temp\cc5D6foa.s 			page 85


 3345 0be5 01       		.byte	0x1
 3346 0be6 3101     		.2byte	0x131
 3347 0be8 A2000000 		.4byte	0xa2
 3348 0bec F0080000 		.4byte	.LLST57
 3349 0bf0 20       		.uleb128 0x20
 3350 0bf1 F2000000 		.4byte	.LASF118
 3351 0bf5 01       		.byte	0x1
 3352 0bf6 3201     		.2byte	0x132
 3353 0bf8 A2000000 		.4byte	0xa2
 3354 0bfc 11090000 		.4byte	.LLST58
 3355 0c00 20       		.uleb128 0x20
 3356 0c01 50020000 		.4byte	.LASF119
 3357 0c05 01       		.byte	0x1
 3358 0c06 3401     		.2byte	0x134
 3359 0c08 A2000000 		.4byte	0xa2
 3360 0c0c 37090000 		.4byte	.LLST59
 3361 0c10 20       		.uleb128 0x20
 3362 0c11 EC020000 		.4byte	.LASF120
 3363 0c15 01       		.byte	0x1
 3364 0c16 3801     		.2byte	0x138
 3365 0c18 AB010000 		.4byte	0x1ab
 3366 0c1c 62090000 		.4byte	.LLST60
 3367 0c20 20       		.uleb128 0x20
 3368 0c21 F1050000 		.4byte	.LASF121
 3369 0c25 01       		.byte	0x1
 3370 0c26 3901     		.2byte	0x139
 3371 0c28 AB010000 		.4byte	0x1ab
 3372 0c2c 77090000 		.4byte	.LLST61
 3373 0c30 20       		.uleb128 0x20
 3374 0c31 0D060000 		.4byte	.LASF122
 3375 0c35 01       		.byte	0x1
 3376 0c36 3A01     		.2byte	0x13a
 3377 0c38 AB010000 		.4byte	0x1ab
 3378 0c3c 8A090000 		.4byte	.LLST62
 3379 0c40 20       		.uleb128 0x20
 3380 0c41 F6060000 		.4byte	.LASF123
 3381 0c45 01       		.byte	0x1
 3382 0c46 3B01     		.2byte	0x13b
 3383 0c48 AB010000 		.4byte	0x1ab
 3384 0c4c 9F090000 		.4byte	.LLST63
 3385 0c50 20       		.uleb128 0x20
 3386 0c51 2C040000 		.4byte	.LASF82
 3387 0c55 01       		.byte	0x1
 3388 0c56 4701     		.2byte	0x147
 3389 0c58 17070000 		.4byte	0x717
 3390 0c5c B4090000 		.4byte	.LLST64
 3391 0c60 20       		.uleb128 0x20
 3392 0c61 7B020000 		.4byte	.LASF124
 3393 0c65 01       		.byte	0x1
 3394 0c66 4901     		.2byte	0x149
 3395 0c68 A2000000 		.4byte	0xa2
 3396 0c6c D4090000 		.4byte	.LLST65
 3397 0c70 20       		.uleb128 0x20
 3398 0c71 61050000 		.4byte	.LASF125
 3399 0c75 01       		.byte	0x1
 3400 0c76 4A01     		.2byte	0x14a
 3401 0c78 8B010000 		.4byte	0x18b
ARM GAS  C:\Users\d3bug\AppData\Local\Temp\cc5D6foa.s 			page 86


 3402 0c7c 490A0000 		.4byte	.LLST66
 3403 0c80 34       		.uleb128 0x34
 3404 0c81 20050000 		.4byte	0x520
 3405 0c85 72000000 		.4byte	.LBB62
 3406 0c89 04000000 		.4byte	.LBE62-.LBB62
 3407 0c8d 01       		.byte	0x1
 3408 0c8e FF       		.byte	0xff
 3409 0c8f 9D0C0000 		.4byte	0xc9d
 3410 0c93 22       		.uleb128 0x22
 3411 0c94 30050000 		.4byte	0x530
 3412 0c98 670A0000 		.4byte	.LLST67
 3413 0c9c 00       		.byte	0
 3414 0c9d 21       		.uleb128 0x21
 3415 0c9e C4040000 		.4byte	0x4c4
 3416 0ca2 46010000 		.4byte	.LBB64
 3417 0ca6 12000000 		.4byte	.LBE64-.LBB64
 3418 0caa 01       		.byte	0x1
 3419 0cab 2D01     		.2byte	0x12d
 3420 0cad BB0C0000 		.4byte	0xcbb
 3421 0cb1 22       		.uleb128 0x22
 3422 0cb2 D4040000 		.4byte	0x4d4
 3423 0cb6 7A0A0000 		.4byte	.LLST68
 3424 0cba 00       		.byte	0
 3425 0cbb 21       		.uleb128 0x21
 3426 0cbc E0040000 		.4byte	0x4e0
 3427 0cc0 CE020000 		.4byte	.LBB66
 3428 0cc4 30000000 		.4byte	.LBE66-.LBB66
 3429 0cc8 01       		.byte	0x1
 3430 0cc9 6001     		.2byte	0x160
 3431 0ccb F60C0000 		.4byte	0xcf6
 3432 0ccf 22       		.uleb128 0x22
 3433 0cd0 07050000 		.4byte	0x507
 3434 0cd4 8F0A0000 		.4byte	.LLST69
 3435 0cd8 27       		.uleb128 0x27
 3436 0cd9 FC040000 		.4byte	0x4fc
 3437 0cdd 27       		.uleb128 0x27
 3438 0cde F1040000 		.4byte	0x4f1
 3439 0ce2 28       		.uleb128 0x28
 3440 0ce3 CE020000 		.4byte	.LBB67
 3441 0ce7 30000000 		.4byte	.LBE67-.LBB67
 3442 0ceb 2F       		.uleb128 0x2f
 3443 0cec 13050000 		.4byte	0x513
 3444 0cf0 A20A0000 		.4byte	.LLST70
 3445 0cf4 00       		.byte	0
 3446 0cf5 00       		.byte	0
 3447 0cf6 36       		.uleb128 0x36
 3448 0cf7 5A000000 		.4byte	.LVL96
 3449 0cfb 8A120000 		.4byte	0x128a
 3450 0cff 210D0000 		.4byte	0xd21
 3451 0d03 25       		.uleb128 0x25
 3452 0d04 01       		.uleb128 0x1
 3453 0d05 50       		.byte	0x50
 3454 0d06 01       		.uleb128 0x1
 3455 0d07 32       		.byte	0x32
 3456 0d08 25       		.uleb128 0x25
 3457 0d09 01       		.uleb128 0x1
 3458 0d0a 51       		.byte	0x51
ARM GAS  C:\Users\d3bug\AppData\Local\Temp\cc5D6foa.s 			page 87


 3459 0d0b 05       		.uleb128 0x5
 3460 0d0c 03       		.byte	0x3
 3461 0d0d 14000000 		.4byte	.LC3
 3462 0d11 25       		.uleb128 0x25
 3463 0d12 01       		.uleb128 0x1
 3464 0d13 52       		.byte	0x52
 3465 0d14 02       		.uleb128 0x2
 3466 0d15 08       		.byte	0x8
 3467 0d16 F8       		.byte	0xf8
 3468 0d17 25       		.uleb128 0x25
 3469 0d18 01       		.uleb128 0x1
 3470 0d19 53       		.byte	0x53
 3471 0d1a 05       		.uleb128 0x5
 3472 0d1b 03       		.byte	0x3
 3473 0d1c 38000000 		.4byte	.LC4
 3474 0d20 00       		.byte	0
 3475 0d21 36       		.uleb128 0x36
 3476 0d22 70000000 		.4byte	.LVL100
 3477 0d26 A0120000 		.4byte	0x12a0
 3478 0d2a 3B0D0000 		.4byte	0xd3b
 3479 0d2e 25       		.uleb128 0x25
 3480 0d2f 01       		.uleb128 0x1
 3481 0d30 50       		.byte	0x50
 3482 0d31 02       		.uleb128 0x2
 3483 0d32 74       		.byte	0x74
 3484 0d33 00       		.sleb128 0
 3485 0d34 25       		.uleb128 0x25
 3486 0d35 01       		.uleb128 0x1
 3487 0d36 51       		.byte	0x51
 3488 0d37 02       		.uleb128 0x2
 3489 0d38 77       		.byte	0x77
 3490 0d39 00       		.sleb128 0
 3491 0d3a 00       		.byte	0
 3492 0d3b 36       		.uleb128 0x36
 3493 0d3c 7E000000 		.4byte	.LVL103
 3494 0d40 AB120000 		.4byte	0x12ab
 3495 0d44 550D0000 		.4byte	0xd55
 3496 0d48 25       		.uleb128 0x25
 3497 0d49 01       		.uleb128 0x1
 3498 0d4a 50       		.byte	0x50
 3499 0d4b 02       		.uleb128 0x2
 3500 0d4c 74       		.byte	0x74
 3501 0d4d 00       		.sleb128 0
 3502 0d4e 25       		.uleb128 0x25
 3503 0d4f 01       		.uleb128 0x1
 3504 0d50 51       		.byte	0x51
 3505 0d51 02       		.uleb128 0x2
 3506 0d52 77       		.byte	0x77
 3507 0d53 00       		.sleb128 0
 3508 0d54 00       		.byte	0
 3509 0d55 36       		.uleb128 0x36
 3510 0d56 88000000 		.4byte	.LVL105
 3511 0d5a B6120000 		.4byte	0x12b6
 3512 0d5e 6F0D0000 		.4byte	0xd6f
 3513 0d62 25       		.uleb128 0x25
 3514 0d63 01       		.uleb128 0x1
 3515 0d64 50       		.byte	0x50
ARM GAS  C:\Users\d3bug\AppData\Local\Temp\cc5D6foa.s 			page 88


 3516 0d65 02       		.uleb128 0x2
 3517 0d66 74       		.byte	0x74
 3518 0d67 00       		.sleb128 0
 3519 0d68 25       		.uleb128 0x25
 3520 0d69 01       		.uleb128 0x1
 3521 0d6a 51       		.byte	0x51
 3522 0d6b 02       		.uleb128 0x2
 3523 0d6c 77       		.byte	0x77
 3524 0d6d 00       		.sleb128 0
 3525 0d6e 00       		.byte	0
 3526 0d6f 36       		.uleb128 0x36
 3527 0d70 92000000 		.4byte	.LVL106
 3528 0d74 C1120000 		.4byte	0x12c1
 3529 0d78 890D0000 		.4byte	0xd89
 3530 0d7c 25       		.uleb128 0x25
 3531 0d7d 01       		.uleb128 0x1
 3532 0d7e 50       		.byte	0x50
 3533 0d7f 02       		.uleb128 0x2
 3534 0d80 74       		.byte	0x74
 3535 0d81 00       		.sleb128 0
 3536 0d82 25       		.uleb128 0x25
 3537 0d83 01       		.uleb128 0x1
 3538 0d84 51       		.byte	0x51
 3539 0d85 02       		.uleb128 0x2
 3540 0d86 77       		.byte	0x77
 3541 0d87 00       		.sleb128 0
 3542 0d88 00       		.byte	0
 3543 0d89 36       		.uleb128 0x36
 3544 0d8a F0000000 		.4byte	.LVL113
 3545 0d8e CC120000 		.4byte	0x12cc
 3546 0d92 A30D0000 		.4byte	0xda3
 3547 0d96 25       		.uleb128 0x25
 3548 0d97 01       		.uleb128 0x1
 3549 0d98 50       		.byte	0x50
 3550 0d99 02       		.uleb128 0x2
 3551 0d9a 74       		.byte	0x74
 3552 0d9b 00       		.sleb128 0
 3553 0d9c 25       		.uleb128 0x25
 3554 0d9d 01       		.uleb128 0x1
 3555 0d9e 51       		.byte	0x51
 3556 0d9f 02       		.uleb128 0x2
 3557 0da0 77       		.byte	0x77
 3558 0da1 00       		.sleb128 0
 3559 0da2 00       		.byte	0
 3560 0da3 2C       		.uleb128 0x2c
 3561 0da4 32010000 		.4byte	.LVL116
 3562 0da8 7F120000 		.4byte	0x127f
 3563 0dac 36       		.uleb128 0x36
 3564 0dad 44010000 		.4byte	.LVL118
 3565 0db1 8A120000 		.4byte	0x128a
 3566 0db5 D80D0000 		.4byte	0xdd8
 3567 0db9 25       		.uleb128 0x25
 3568 0dba 01       		.uleb128 0x1
 3569 0dbb 50       		.byte	0x50
 3570 0dbc 01       		.uleb128 0x1
 3571 0dbd 32       		.byte	0x32
 3572 0dbe 25       		.uleb128 0x25
ARM GAS  C:\Users\d3bug\AppData\Local\Temp\cc5D6foa.s 			page 89


 3573 0dbf 01       		.uleb128 0x1
 3574 0dc0 51       		.byte	0x51
 3575 0dc1 05       		.uleb128 0x5
 3576 0dc2 03       		.byte	0x3
 3577 0dc3 14000000 		.4byte	.LC3
 3578 0dc7 25       		.uleb128 0x25
 3579 0dc8 01       		.uleb128 0x1
 3580 0dc9 52       		.byte	0x52
 3581 0dca 03       		.uleb128 0x3
 3582 0dcb 0A       		.byte	0xa
 3583 0dcc 2901     		.2byte	0x129
 3584 0dce 25       		.uleb128 0x25
 3585 0dcf 01       		.uleb128 0x1
 3586 0dd0 53       		.byte	0x53
 3587 0dd1 05       		.uleb128 0x5
 3588 0dd2 03       		.byte	0x3
 3589 0dd3 00000000 		.4byte	.LC2
 3590 0dd7 00       		.byte	0
 3591 0dd8 2C       		.uleb128 0x2c
 3592 0dd9 12020000 		.4byte	.LVL138
 3593 0ddd 74120000 		.4byte	0x1274
 3594 0de1 2D       		.uleb128 0x2d
 3595 0de2 CA020000 		.4byte	.LVL152
 3596 0de6 02       		.uleb128 0x2
 3597 0de7 7B       		.byte	0x7b
 3598 0de8 00       		.sleb128 0
 3599 0de9 25       		.uleb128 0x25
 3600 0dea 01       		.uleb128 0x1
 3601 0deb 51       		.byte	0x51
 3602 0dec 05       		.uleb128 0x5
 3603 0ded 91       		.byte	0x91
 3604 0dee 9C7F     		.sleb128 -100
 3605 0df0 94       		.byte	0x94
 3606 0df1 02       		.byte	0x2
 3607 0df2 25       		.uleb128 0x25
 3608 0df3 02       		.uleb128 0x2
 3609 0df4 7D       		.byte	0x7d
 3610 0df5 00       		.sleb128 0
 3611 0df6 05       		.uleb128 0x5
 3612 0df7 91       		.byte	0x91
 3613 0df8 F07E     		.sleb128 -144
 3614 0dfa 94       		.byte	0x94
 3615 0dfb 01       		.byte	0x1
 3616 0dfc 00       		.byte	0
 3617 0dfd 00       		.byte	0
 3618 0dfe 39       		.uleb128 0x39
 3619 0dff FC020000 		.4byte	0x2fc
 3620 0e03 0E0E0000 		.4byte	0xe0e
 3621 0e07 3A       		.uleb128 0x3a
 3622 0e08 9D010000 		.4byte	0x19d
 3623 0e0c 01       		.byte	0x1
 3624 0e0d 00       		.byte	0
 3625 0e0e 11       		.uleb128 0x11
 3626 0e0f FE0D0000 		.4byte	0xdfe
 3627 0e13 39       		.uleb128 0x39
 3628 0e14 FC020000 		.4byte	0x2fc
 3629 0e18 230E0000 		.4byte	0xe23
ARM GAS  C:\Users\d3bug\AppData\Local\Temp\cc5D6foa.s 			page 90


 3630 0e1c 3A       		.uleb128 0x3a
 3631 0e1d 9D010000 		.4byte	0x19d
 3632 0e21 03       		.byte	0x3
 3633 0e22 00       		.byte	0
 3634 0e23 11       		.uleb128 0x11
 3635 0e24 130E0000 		.4byte	0xe13
 3636 0e28 39       		.uleb128 0x39
 3637 0e29 FC020000 		.4byte	0x2fc
 3638 0e2d 380E0000 		.4byte	0xe38
 3639 0e31 3A       		.uleb128 0x3a
 3640 0e32 9D010000 		.4byte	0x19d
 3641 0e36 0F       		.byte	0xf
 3642 0e37 00       		.byte	0
 3643 0e38 11       		.uleb128 0x11
 3644 0e39 280E0000 		.4byte	0xe28
 3645 0e3d 3B       		.uleb128 0x3b
 3646 0e3e 97050000 		.4byte	.LASF126
 3647 0e42 01       		.byte	0x1
 3648 0e43 8401     		.2byte	0x184
 3649 0e45 00000000 		.4byte	.LFB15
 3650 0e49 42030000 		.4byte	.LFE15-.LFB15
 3651 0e4d 01       		.uleb128 0x1
 3652 0e4e 9C       		.byte	0x9c
 3653 0e4f 6B120000 		.4byte	0x126b
 3654 0e53 1B       		.uleb128 0x1b
 3655 0e54 D5050000 		.4byte	.LASF97
 3656 0e58 01       		.byte	0x1
 3657 0e59 8401     		.2byte	0x184
 3658 0e5b 79030000 		.4byte	0x379
 3659 0e5f B50A0000 		.4byte	.LLST71
 3660 0e63 1B       		.uleb128 0x1b
 3661 0e64 21060000 		.4byte	.LASF91
 3662 0e68 01       		.byte	0x1
 3663 0e69 8401     		.2byte	0x184
 3664 0e6b 79030000 		.4byte	0x379
 3665 0e6f E10A0000 		.4byte	.LLST72
 3666 0e73 1B       		.uleb128 0x1b
 3667 0e74 03050000 		.4byte	.LASF115
 3668 0e78 01       		.byte	0x1
 3669 0e79 8501     		.2byte	0x185
 3670 0e7b F6020000 		.4byte	0x2f6
 3671 0e7f 0D0B0000 		.4byte	.LLST73
 3672 0e83 1C       		.uleb128 0x1c
 3673 0e84 6F706100 		.ascii	"opa\000"
 3674 0e88 01       		.byte	0x1
 3675 0e89 8501     		.2byte	0x185
 3676 0e8b 8B010000 		.4byte	0x18b
 3677 0e8f 2B0B0000 		.4byte	.LLST74
 3678 0e93 3C       		.uleb128 0x3c
 3679 0e94 53000000 		.4byte	.LASF127
 3680 0e98 01       		.byte	0x1
 3681 0e99 8501     		.2byte	0x185
 3682 0e9b 72030000 		.4byte	0x372
 3683 0e9f 02       		.uleb128 0x2
 3684 0ea0 91       		.byte	0x91
 3685 0ea1 00       		.sleb128 0
 3686 0ea2 3C       		.uleb128 0x3c
ARM GAS  C:\Users\d3bug\AppData\Local\Temp\cc5D6foa.s 			page 91


 3687 0ea3 09050000 		.4byte	.LASF128
 3688 0ea7 01       		.byte	0x1
 3689 0ea8 8501     		.2byte	0x185
 3690 0eaa 72030000 		.4byte	0x372
 3691 0eae 02       		.uleb128 0x2
 3692 0eaf 91       		.byte	0x91
 3693 0eb0 04       		.sleb128 4
 3694 0eb1 3C       		.uleb128 0x3c
 3695 0eb2 EE060000 		.4byte	.LASF129
 3696 0eb6 01       		.byte	0x1
 3697 0eb7 8601     		.2byte	0x186
 3698 0eb9 80010000 		.4byte	0x180
 3699 0ebd 02       		.uleb128 0x2
 3700 0ebe 91       		.byte	0x91
 3701 0ebf 08       		.sleb128 8
 3702 0ec0 3C       		.uleb128 0x3c
 3703 0ec1 B1040000 		.4byte	.LASF130
 3704 0ec5 01       		.byte	0x1
 3705 0ec6 8601     		.2byte	0x186
 3706 0ec8 8B010000 		.4byte	0x18b
 3707 0ecc 02       		.uleb128 0x2
 3708 0ecd 91       		.byte	0x91
 3709 0ece 0C       		.sleb128 12
 3710 0ecf 26       		.uleb128 0x26
 3711 0ed0 D4040000 		.4byte	.LASF131
 3712 0ed4 01       		.byte	0x1
 3713 0ed5 8C01     		.2byte	0x18c
 3714 0ed7 13020000 		.4byte	0x213
 3715 0edb 02       		.uleb128 0x2
 3716 0edc 91       		.byte	0x91
 3717 0edd 50       		.sleb128 -48
 3718 0ede 20       		.uleb128 0x20
 3719 0edf 1B050000 		.4byte	.LASF99
 3720 0ee3 01       		.byte	0x1
 3721 0ee4 8D01     		.2byte	0x18d
 3722 0ee6 72030000 		.4byte	0x372
 3723 0eea 590B0000 		.4byte	.LLST75
 3724 0eee 20       		.uleb128 0x20
 3725 0eef 99010000 		.4byte	.LASF92
 3726 0ef3 01       		.byte	0x1
 3727 0ef4 8E01     		.2byte	0x18e
 3728 0ef6 40090000 		.4byte	0x940
 3729 0efa 6C0B0000 		.4byte	.LLST76
 3730 0efe 20       		.uleb128 0x20
 3731 0eff C7040000 		.4byte	.LASF132
 3732 0f03 01       		.byte	0x1
 3733 0f04 9D01     		.2byte	0x19d
 3734 0f06 A2000000 		.4byte	0xa2
 3735 0f0a A40B0000 		.4byte	.LLST77
 3736 0f0e 1F       		.uleb128 0x1f
 3737 0f0f 46060000 		.4byte	.LASF133
 3738 0f13 01       		.byte	0x1
 3739 0f14 A001     		.2byte	0x1a0
 3740 0f16 AB010000 		.4byte	0x1ab
 3741 0f1a 1F       		.uleb128 0x1f
 3742 0f1b 50060000 		.4byte	.LASF93
 3743 0f1f 01       		.byte	0x1
ARM GAS  C:\Users\d3bug\AppData\Local\Temp\cc5D6foa.s 			page 92


 3744 0f20 AE01     		.2byte	0x1ae
 3745 0f22 AB010000 		.4byte	0x1ab
 3746 0f26 20       		.uleb128 0x20
 3747 0f27 D3000000 		.4byte	.LASF101
 3748 0f2b 01       		.byte	0x1
 3749 0f2c AF01     		.2byte	0x1af
 3750 0f2e B3040000 		.4byte	0x4b3
 3751 0f32 B70B0000 		.4byte	.LLST78
 3752 0f36 1E       		.uleb128 0x1e
 3753 0f37 726F7700 		.ascii	"row\000"
 3754 0f3b 01       		.byte	0x1
 3755 0f3c B301     		.2byte	0x1b3
 3756 0f3e AB010000 		.4byte	0x1ab
 3757 0f42 250C0000 		.4byte	.LLST79
 3758 0f46 1F       		.uleb128 0x1f
 3759 0f47 85020000 		.4byte	.LASF134
 3760 0f4b 01       		.byte	0x1
 3761 0f4c B401     		.2byte	0x1b4
 3762 0f4e AB010000 		.4byte	0x1ab
 3763 0f52 20       		.uleb128 0x20
 3764 0f53 2C040000 		.4byte	.LASF82
 3765 0f57 01       		.byte	0x1
 3766 0f58 B601     		.2byte	0x1b6
 3767 0f5a 17070000 		.4byte	0x717
 3768 0f5e 680C0000 		.4byte	.LLST80
 3769 0f62 21       		.uleb128 0x21
 3770 0f63 C4040000 		.4byte	0x4c4
 3771 0f67 6A000000 		.4byte	.LBB68
 3772 0f6b 12000000 		.4byte	.LBE68-.LBB68
 3773 0f6f 01       		.byte	0x1
 3774 0f70 A001     		.2byte	0x1a0
 3775 0f72 800F0000 		.4byte	0xf80
 3776 0f76 22       		.uleb128 0x22
 3777 0f77 D4040000 		.4byte	0x4d4
 3778 0f7b B60C0000 		.4byte	.LLST81
 3779 0f7f 00       		.byte	0
 3780 0f80 21       		.uleb128 0x21
 3781 0f81 C4040000 		.4byte	0x4c4
 3782 0f85 DA000000 		.4byte	.LBB70
 3783 0f89 12000000 		.4byte	.LBE70-.LBB70
 3784 0f8d 01       		.byte	0x1
 3785 0f8e AE01     		.2byte	0x1ae
 3786 0f90 9E0F0000 		.4byte	0xf9e
 3787 0f94 22       		.uleb128 0x22
 3788 0f95 D4040000 		.4byte	0x4d4
 3789 0f99 C90C0000 		.4byte	.LLST82
 3790 0f9d 00       		.byte	0
 3791 0f9e 21       		.uleb128 0x21
 3792 0f9f C4040000 		.4byte	0x4c4
 3793 0fa3 FC000000 		.4byte	.LBB72
 3794 0fa7 06000000 		.4byte	.LBE72-.LBB72
 3795 0fab 01       		.byte	0x1
 3796 0fac B401     		.2byte	0x1b4
 3797 0fae BC0F0000 		.4byte	0xfbc
 3798 0fb2 22       		.uleb128 0x22
 3799 0fb3 D4040000 		.4byte	0x4d4
 3800 0fb7 DE0C0000 		.4byte	.LLST83
ARM GAS  C:\Users\d3bug\AppData\Local\Temp\cc5D6foa.s 			page 93


 3801 0fbb 00       		.byte	0
 3802 0fbc 23       		.uleb128 0x23
 3803 0fbd 24010000 		.4byte	.LBB74
 3804 0fc1 60000000 		.4byte	.LBE74-.LBB74
 3805 0fc5 12100000 		.4byte	0x1012
 3806 0fc9 1E       		.uleb128 0x1e
 3807 0fca 636F6C00 		.ascii	"col\000"
 3808 0fce 01       		.byte	0x1
 3809 0fcf BD01     		.2byte	0x1bd
 3810 0fd1 AB010000 		.4byte	0x1ab
 3811 0fd5 F30C0000 		.4byte	.LLST84
 3812 0fd9 28       		.uleb128 0x28
 3813 0fda 38010000 		.4byte	.LBB75
 3814 0fde 26000000 		.4byte	.LBE75-.LBB75
 3815 0fe2 1F       		.uleb128 0x1f
 3816 0fe3 65020000 		.4byte	.LASF135
 3817 0fe7 01       		.byte	0x1
 3818 0fe8 C001     		.2byte	0x1c0
 3819 0fea 80010000 		.4byte	0x180
 3820 0fee 2D       		.uleb128 0x2d
 3821 0fef 5E010000 		.4byte	.LVL203
 3822 0ff3 02       		.uleb128 0x2
 3823 0ff4 76       		.byte	0x76
 3824 0ff5 00       		.sleb128 0
 3825 0ff6 25       		.uleb128 0x25
 3826 0ff7 01       		.uleb128 0x1
 3827 0ff8 51       		.byte	0x51
 3828 0ff9 05       		.uleb128 0x5
 3829 0ffa 91       		.byte	0x91
 3830 0ffb 8C7F     		.sleb128 -116
 3831 0ffd 94       		.byte	0x94
 3832 0ffe 02       		.byte	0x2
 3833 0fff 25       		.uleb128 0x25
 3834 1000 01       		.uleb128 0x1
 3835 1001 53       		.byte	0x53
 3836 1002 05       		.uleb128 0x5
 3837 1003 91       		.byte	0x91
 3838 1004 FC7E     		.sleb128 -132
 3839 1006 94       		.byte	0x94
 3840 1007 02       		.byte	0x2
 3841 1008 25       		.uleb128 0x25
 3842 1009 02       		.uleb128 0x2
 3843 100a 7D       		.byte	0x7d
 3844 100b 04       		.sleb128 4
 3845 100c 02       		.uleb128 0x2
 3846 100d 7B       		.byte	0x7b
 3847 100e 00       		.sleb128 0
 3848 100f 00       		.byte	0
 3849 1010 00       		.byte	0
 3850 1011 00       		.byte	0
 3851 1012 23       		.uleb128 0x23
 3852 1013 B0010000 		.4byte	.LBB76
 3853 1017 8C010000 		.4byte	.LBE76-.LBB76
 3854 101b E7110000 		.4byte	0x11e7
 3855 101f 1F       		.uleb128 0x1f
 3856 1020 B5020000 		.4byte	.LASF136
 3857 1024 01       		.byte	0x1
ARM GAS  C:\Users\d3bug\AppData\Local\Temp\cc5D6foa.s 			page 94


 3858 1025 DA01     		.2byte	0x1da
 3859 1027 80010000 		.4byte	0x180
 3860 102b 1E       		.uleb128 0x1e
 3861 102c 636F6C00 		.ascii	"col\000"
 3862 1030 01       		.byte	0x1
 3863 1031 DB01     		.2byte	0x1db
 3864 1033 AB010000 		.4byte	0x1ab
 3865 1037 290D0000 		.4byte	.LLST85
 3866 103b 20       		.uleb128 0x20
 3867 103c A2020000 		.4byte	.LASF137
 3868 1040 01       		.byte	0x1
 3869 1041 DC01     		.2byte	0x1dc
 3870 1043 80010000 		.4byte	0x180
 3871 1047 520D0000 		.4byte	.LLST86
 3872 104b 20       		.uleb128 0x20
 3873 104c F9050000 		.4byte	.LASF138
 3874 1050 01       		.byte	0x1
 3875 1051 DD01     		.2byte	0x1dd
 3876 1053 80010000 		.4byte	0x180
 3877 1057 650D0000 		.4byte	.LLST87
 3878 105b 21       		.uleb128 0x21
 3879 105c E0040000 		.4byte	0x4e0
 3880 1060 B8010000 		.4byte	.LBB77
 3881 1064 18000000 		.4byte	.LBE77-.LBB77
 3882 1068 01       		.byte	0x1
 3883 1069 DD01     		.2byte	0x1dd
 3884 106b 92100000 		.4byte	0x1092
 3885 106f 22       		.uleb128 0x22
 3886 1070 07050000 		.4byte	0x507
 3887 1074 780D0000 		.4byte	.LLST88
 3888 1078 27       		.uleb128 0x27
 3889 1079 FC040000 		.4byte	0x4fc
 3890 107d 27       		.uleb128 0x27
 3891 107e F1040000 		.4byte	0x4f1
 3892 1082 28       		.uleb128 0x28
 3893 1083 B8010000 		.4byte	.LBB78
 3894 1087 18000000 		.4byte	.LBE78-.LBB78
 3895 108b 29       		.uleb128 0x29
 3896 108c 13050000 		.4byte	0x513
 3897 1090 00       		.byte	0
 3898 1091 00       		.byte	0
 3899 1092 28       		.uleb128 0x28
 3900 1093 D8010000 		.4byte	.LBB79
 3901 1097 2C010000 		.4byte	.LBE79-.LBB79
 3902 109b 20       		.uleb128 0x20
 3903 109c A6040000 		.4byte	.LASF139
 3904 10a0 01       		.byte	0x1
 3905 10a1 E001     		.2byte	0x1e0
 3906 10a3 8B010000 		.4byte	0x18b
 3907 10a7 8D0D0000 		.4byte	.LLST89
 3908 10ab 20       		.uleb128 0x20
 3909 10ac 7F000000 		.4byte	.LASF140
 3910 10b0 01       		.byte	0x1
 3911 10b1 E101     		.2byte	0x1e1
 3912 10b3 45040000 		.4byte	0x445
 3913 10b7 120E0000 		.4byte	.LLST90
 3914 10bb 20       		.uleb128 0x20
ARM GAS  C:\Users\d3bug\AppData\Local\Temp\cc5D6foa.s 			page 95


 3915 10bc 65020000 		.4byte	.LASF135
 3916 10c0 01       		.byte	0x1
 3917 10c1 E201     		.2byte	0x1e2
 3918 10c3 80010000 		.4byte	0x180
 3919 10c7 C80E0000 		.4byte	.LLST91
 3920 10cb 23       		.uleb128 0x23
 3921 10cc E6010000 		.4byte	.LBB80
 3922 10d0 1E000000 		.4byte	.LBE80-.LBB80
 3923 10d4 E9100000 		.4byte	0x10e9
 3924 10d8 20       		.uleb128 0x20
 3925 10d9 61050000 		.4byte	.LASF125
 3926 10dd 01       		.byte	0x1
 3927 10de EE01     		.2byte	0x1ee
 3928 10e0 8B010000 		.4byte	0x18b
 3929 10e4 E60E0000 		.4byte	.LLST92
 3930 10e8 00       		.byte	0
 3931 10e9 21       		.uleb128 0x21
 3932 10ea E0040000 		.4byte	0x4e0
 3933 10ee 30020000 		.4byte	.LBB81
 3934 10f2 20000000 		.4byte	.LBE81-.LBB81
 3935 10f6 01       		.byte	0x1
 3936 10f7 FC01     		.2byte	0x1fc
 3937 10f9 24110000 		.4byte	0x1124
 3938 10fd 22       		.uleb128 0x22
 3939 10fe 07050000 		.4byte	0x507
 3940 1102 180F0000 		.4byte	.LLST93
 3941 1106 27       		.uleb128 0x27
 3942 1107 FC040000 		.4byte	0x4fc
 3943 110b 27       		.uleb128 0x27
 3944 110c F1040000 		.4byte	0x4f1
 3945 1110 28       		.uleb128 0x28
 3946 1111 30020000 		.4byte	.LBB82
 3947 1115 20000000 		.4byte	.LBE82-.LBB82
 3948 1119 2F       		.uleb128 0x2f
 3949 111a 13050000 		.4byte	0x513
 3950 111e 2D0F0000 		.4byte	.LLST94
 3951 1122 00       		.byte	0
 3952 1123 00       		.byte	0
 3953 1124 21       		.uleb128 0x21
 3954 1125 E0040000 		.4byte	0x4e0
 3955 1129 92020000 		.4byte	.LBB83
 3956 112d 1C000000 		.4byte	.LBE83-.LBB83
 3957 1131 01       		.byte	0x1
 3958 1132 0502     		.2byte	0x205
 3959 1134 5F110000 		.4byte	0x115f
 3960 1138 22       		.uleb128 0x22
 3961 1139 07050000 		.4byte	0x507
 3962 113d 560F0000 		.4byte	.LLST95
 3963 1141 27       		.uleb128 0x27
 3964 1142 FC040000 		.4byte	0x4fc
 3965 1146 27       		.uleb128 0x27
 3966 1147 F1040000 		.4byte	0x4f1
 3967 114b 28       		.uleb128 0x28
 3968 114c 92020000 		.4byte	.LBB84
 3969 1150 1C000000 		.4byte	.LBE84-.LBB84
 3970 1154 2F       		.uleb128 0x2f
 3971 1155 13050000 		.4byte	0x513
ARM GAS  C:\Users\d3bug\AppData\Local\Temp\cc5D6foa.s 			page 96


 3972 1159 740F0000 		.4byte	.LLST96
 3973 115d 00       		.byte	0
 3974 115e 00       		.byte	0
 3975 115f 21       		.uleb128 0x21
 3976 1160 E0040000 		.4byte	0x4e0
 3977 1164 E8020000 		.4byte	.LBB85
 3978 1168 1A000000 		.4byte	.LBE85-.LBB85
 3979 116c 01       		.byte	0x1
 3980 116d 1102     		.2byte	0x211
 3981 116f 9A110000 		.4byte	0x119a
 3982 1173 22       		.uleb128 0x22
 3983 1174 07050000 		.4byte	0x507
 3984 1178 A80F0000 		.4byte	.LLST97
 3985 117c 27       		.uleb128 0x27
 3986 117d FC040000 		.4byte	0x4fc
 3987 1181 27       		.uleb128 0x27
 3988 1182 F1040000 		.4byte	0x4f1
 3989 1186 28       		.uleb128 0x28
 3990 1187 E8020000 		.4byte	.LBB86
 3991 118b 1A000000 		.4byte	.LBE86-.LBB86
 3992 118f 2F       		.uleb128 0x2f
 3993 1190 13050000 		.4byte	0x513
 3994 1194 C60F0000 		.4byte	.LLST98
 3995 1198 00       		.byte	0
 3996 1199 00       		.byte	0
 3997 119a 3D       		.uleb128 0x3d
 3998 119b 78020000 		.4byte	.LVL241
 3999 119f 02       		.uleb128 0x2
 4000 11a0 7B       		.byte	0x7b
 4001 11a1 00       		.sleb128 0
 4002 11a2 C3110000 		.4byte	0x11c3
 4003 11a6 25       		.uleb128 0x25
 4004 11a7 01       		.uleb128 0x1
 4005 11a8 51       		.byte	0x51
 4006 11a9 05       		.uleb128 0x5
 4007 11aa 91       		.byte	0x91
 4008 11ab 8C7F     		.sleb128 -116
 4009 11ad 94       		.byte	0x94
 4010 11ae 02       		.byte	0x2
 4011 11af 25       		.uleb128 0x25
 4012 11b0 01       		.uleb128 0x1
 4013 11b1 53       		.byte	0x53
 4014 11b2 05       		.uleb128 0x5
 4015 11b3 91       		.byte	0x91
 4016 11b4 FC7E     		.sleb128 -132
 4017 11b6 94       		.byte	0x94
 4018 11b7 02       		.byte	0x2
 4019 11b8 25       		.uleb128 0x25
 4020 11b9 02       		.uleb128 0x2
 4021 11ba 7D       		.byte	0x7d
 4022 11bb 00       		.sleb128 0
 4023 11bc 05       		.uleb128 0x5
 4024 11bd 91       		.byte	0x91
 4025 11be 987F     		.sleb128 -104
 4026 11c0 94       		.byte	0x94
 4027 11c1 01       		.byte	0x1
 4028 11c2 00       		.byte	0
ARM GAS  C:\Users\d3bug\AppData\Local\Temp\cc5D6foa.s 			page 97


 4029 11c3 2D       		.uleb128 0x2d
 4030 11c4 D6020000 		.4byte	.LVL255
 4031 11c8 02       		.uleb128 0x2
 4032 11c9 7B       		.byte	0x7b
 4033 11ca 00       		.sleb128 0
 4034 11cb 25       		.uleb128 0x25
 4035 11cc 01       		.uleb128 0x1
 4036 11cd 51       		.byte	0x51
 4037 11ce 05       		.uleb128 0x5
 4038 11cf 91       		.byte	0x91
 4039 11d0 8C7F     		.sleb128 -116
 4040 11d2 94       		.byte	0x94
 4041 11d3 02       		.byte	0x2
 4042 11d4 25       		.uleb128 0x25
 4043 11d5 01       		.uleb128 0x1
 4044 11d6 53       		.byte	0x53
 4045 11d7 05       		.uleb128 0x5
 4046 11d8 91       		.byte	0x91
 4047 11d9 FC7E     		.sleb128 -132
 4048 11db 94       		.byte	0x94
 4049 11dc 02       		.byte	0x2
 4050 11dd 25       		.uleb128 0x25
 4051 11de 02       		.uleb128 0x2
 4052 11df 7D       		.byte	0x7d
 4053 11e0 00       		.sleb128 0
 4054 11e1 02       		.uleb128 0x2
 4055 11e2 76       		.byte	0x76
 4056 11e3 00       		.sleb128 0
 4057 11e4 00       		.byte	0
 4058 11e5 00       		.byte	0
 4059 11e6 00       		.byte	0
 4060 11e7 2C       		.uleb128 0x2c
 4061 11e8 36000000 		.4byte	.LVL178
 4062 11ec 7F120000 		.4byte	0x127f
 4063 11f0 36       		.uleb128 0x36
 4064 11f1 48000000 		.4byte	.LVL180
 4065 11f5 8A120000 		.4byte	0x128a
 4066 11f9 1C120000 		.4byte	0x121c
 4067 11fd 25       		.uleb128 0x25
 4068 11fe 01       		.uleb128 0x1
 4069 11ff 50       		.byte	0x50
 4070 1200 01       		.uleb128 0x1
 4071 1201 32       		.byte	0x32
 4072 1202 25       		.uleb128 0x25
 4073 1203 01       		.uleb128 0x1
 4074 1204 51       		.byte	0x51
 4075 1205 05       		.uleb128 0x5
 4076 1206 03       		.byte	0x3
 4077 1207 14000000 		.4byte	.LC3
 4078 120b 25       		.uleb128 0x25
 4079 120c 01       		.uleb128 0x1
 4080 120d 52       		.byte	0x52
 4081 120e 03       		.uleb128 0x3
 4082 120f 0A       		.byte	0xa
 4083 1210 9001     		.2byte	0x190
 4084 1212 25       		.uleb128 0x25
 4085 1213 01       		.uleb128 0x1
ARM GAS  C:\Users\d3bug\AppData\Local\Temp\cc5D6foa.s 			page 98


 4086 1214 53       		.byte	0x53
 4087 1215 05       		.uleb128 0x5
 4088 1216 03       		.byte	0x3
 4089 1217 00000000 		.4byte	.LC2
 4090 121b 00       		.byte	0
 4091 121c 36       		.uleb128 0x36
 4092 121d 54000000 		.4byte	.LVL183
 4093 1221 95120000 		.4byte	0x1295
 4094 1225 3C120000 		.4byte	0x123c
 4095 1229 25       		.uleb128 0x25
 4096 122a 01       		.uleb128 0x1
 4097 122b 50       		.byte	0x50
 4098 122c 02       		.uleb128 0x2
 4099 122d 91       		.byte	0x91
 4100 122e 50       		.sleb128 -48
 4101 122f 25       		.uleb128 0x25
 4102 1230 01       		.uleb128 0x1
 4103 1231 51       		.byte	0x51
 4104 1232 02       		.uleb128 0x2
 4105 1233 74       		.byte	0x74
 4106 1234 00       		.sleb128 0
 4107 1235 25       		.uleb128 0x25
 4108 1236 01       		.uleb128 0x1
 4109 1237 52       		.byte	0x52
 4110 1238 02       		.uleb128 0x2
 4111 1239 77       		.byte	0x77
 4112 123a 00       		.sleb128 0
 4113 123b 00       		.byte	0
 4114 123c 2C       		.uleb128 0x2c
 4115 123d 06010000 		.4byte	.LVL198
 4116 1241 74120000 		.4byte	0x1274
 4117 1245 24       		.uleb128 0x24
 4118 1246 98010000 		.4byte	.LVL213
 4119 124a 1D070000 		.4byte	0x71d
 4120 124e 25       		.uleb128 0x25
 4121 124f 01       		.uleb128 0x1
 4122 1250 50       		.byte	0x50
 4123 1251 02       		.uleb128 0x2
 4124 1252 76       		.byte	0x76
 4125 1253 00       		.sleb128 0
 4126 1254 25       		.uleb128 0x25
 4127 1255 01       		.uleb128 0x1
 4128 1256 51       		.byte	0x51
 4129 1257 02       		.uleb128 0x2
 4130 1258 75       		.byte	0x75
 4131 1259 00       		.sleb128 0
 4132 125a 25       		.uleb128 0x25
 4133 125b 01       		.uleb128 0x1
 4134 125c 52       		.byte	0x52
 4135 125d 02       		.uleb128 0x2
 4136 125e 77       		.byte	0x77
 4137 125f 00       		.sleb128 0
 4138 1260 25       		.uleb128 0x25
 4139 1261 01       		.uleb128 0x1
 4140 1262 53       		.byte	0x53
 4141 1263 05       		.uleb128 0x5
 4142 1264 91       		.byte	0x91
ARM GAS  C:\Users\d3bug\AppData\Local\Temp\cc5D6foa.s 			page 99


 4143 1265 F87E     		.sleb128 -136
 4144 1267 94       		.byte	0x94
 4145 1268 01       		.byte	0x1
 4146 1269 00       		.byte	0
 4147 126a 00       		.byte	0
 4148 126b 3E       		.uleb128 0x3e
 4149 126c DF060000 		.4byte	.LASF153
 4150 1270 DF060000 		.4byte	.LASF153
 4151 1274 3F       		.uleb128 0x3f
 4152 1275 86060000 		.4byte	.LASF141
 4153 1279 86060000 		.4byte	.LASF141
 4154 127d 07       		.byte	0x7
 4155 127e 5F       		.byte	0x5f
 4156 127f 3F       		.uleb128 0x3f
 4157 1280 CA050000 		.4byte	.LASF142
 4158 1284 CA050000 		.4byte	.LASF142
 4159 1288 08       		.byte	0x8
 4160 1289 43       		.byte	0x43
 4161 128a 3F       		.uleb128 0x3f
 4162 128b 9B040000 		.4byte	.LASF143
 4163 128f 9B040000 		.4byte	.LASF143
 4164 1293 09       		.byte	0x9
 4165 1294 3D       		.byte	0x3d
 4166 1295 3F       		.uleb128 0x3f
 4167 1296 1D010000 		.4byte	.LASF144
 4168 129a 1D010000 		.4byte	.LASF144
 4169 129e 02       		.byte	0x2
 4170 129f 7E       		.byte	0x7e
 4171 12a0 3F       		.uleb128 0x3f
 4172 12a1 0B040000 		.4byte	.LASF145
 4173 12a5 0B040000 		.4byte	.LASF145
 4174 12a9 04       		.byte	0x4
 4175 12aa 77       		.byte	0x77
 4176 12ab 3F       		.uleb128 0x3f
 4177 12ac 5E010000 		.4byte	.LASF146
 4178 12b0 5E010000 		.4byte	.LASF146
 4179 12b4 04       		.byte	0x4
 4180 12b5 89       		.byte	0x89
 4181 12b6 3F       		.uleb128 0x3f
 4182 12b7 45030000 		.4byte	.LASF147
 4183 12bb 45030000 		.4byte	.LASF147
 4184 12bf 04       		.byte	0x4
 4185 12c0 5E       		.byte	0x5e
 4186 12c1 3F       		.uleb128 0x3f
 4187 12c2 6E010000 		.4byte	.LASF148
 4188 12c6 6E010000 		.4byte	.LASF148
 4189 12ca 04       		.byte	0x4
 4190 12cb 6E       		.byte	0x6e
 4191 12cc 3F       		.uleb128 0x3f
 4192 12cd A9010000 		.4byte	.LASF149
 4193 12d1 A9010000 		.4byte	.LASF149
 4194 12d5 04       		.byte	0x4
 4195 12d6 66       		.byte	0x66
 4196 12d7 00       		.byte	0
 4197              		.section	.debug_abbrev,"",%progbits
 4198              	.Ldebug_abbrev0:
 4199 0000 01       		.uleb128 0x1
ARM GAS  C:\Users\d3bug\AppData\Local\Temp\cc5D6foa.s 			page 100


 4200 0001 11       		.uleb128 0x11
 4201 0002 01       		.byte	0x1
 4202 0003 25       		.uleb128 0x25
 4203 0004 0E       		.uleb128 0xe
 4204 0005 13       		.uleb128 0x13
 4205 0006 0B       		.uleb128 0xb
 4206 0007 03       		.uleb128 0x3
 4207 0008 0E       		.uleb128 0xe
 4208 0009 1B       		.uleb128 0x1b
 4209 000a 0E       		.uleb128 0xe
 4210 000b 55       		.uleb128 0x55
 4211 000c 17       		.uleb128 0x17
 4212 000d 11       		.uleb128 0x11
 4213 000e 01       		.uleb128 0x1
 4214 000f 10       		.uleb128 0x10
 4215 0010 17       		.uleb128 0x17
 4216 0011 00       		.byte	0
 4217 0012 00       		.byte	0
 4218 0013 02       		.uleb128 0x2
 4219 0014 24       		.uleb128 0x24
 4220 0015 00       		.byte	0
 4221 0016 0B       		.uleb128 0xb
 4222 0017 0B       		.uleb128 0xb
 4223 0018 3E       		.uleb128 0x3e
 4224 0019 0B       		.uleb128 0xb
 4225 001a 03       		.uleb128 0x3
 4226 001b 0E       		.uleb128 0xe
 4227 001c 00       		.byte	0
 4228 001d 00       		.byte	0
 4229 001e 03       		.uleb128 0x3
 4230 001f 16       		.uleb128 0x16
 4231 0020 00       		.byte	0
 4232 0021 03       		.uleb128 0x3
 4233 0022 0E       		.uleb128 0xe
 4234 0023 3A       		.uleb128 0x3a
 4235 0024 0B       		.uleb128 0xb
 4236 0025 3B       		.uleb128 0x3b
 4237 0026 0B       		.uleb128 0xb
 4238 0027 49       		.uleb128 0x49
 4239 0028 13       		.uleb128 0x13
 4240 0029 00       		.byte	0
 4241 002a 00       		.byte	0
 4242 002b 04       		.uleb128 0x4
 4243 002c 24       		.uleb128 0x24
 4244 002d 00       		.byte	0
 4245 002e 0B       		.uleb128 0xb
 4246 002f 0B       		.uleb128 0xb
 4247 0030 3E       		.uleb128 0x3e
 4248 0031 0B       		.uleb128 0xb
 4249 0032 03       		.uleb128 0x3
 4250 0033 08       		.uleb128 0x8
 4251 0034 00       		.byte	0
 4252 0035 00       		.byte	0
 4253 0036 05       		.uleb128 0x5
 4254 0037 04       		.uleb128 0x4
 4255 0038 01       		.byte	0x1
 4256 0039 0B       		.uleb128 0xb
ARM GAS  C:\Users\d3bug\AppData\Local\Temp\cc5D6foa.s 			page 101


 4257 003a 0B       		.uleb128 0xb
 4258 003b 49       		.uleb128 0x49
 4259 003c 13       		.uleb128 0x13
 4260 003d 3A       		.uleb128 0x3a
 4261 003e 0B       		.uleb128 0xb
 4262 003f 3B       		.uleb128 0x3b
 4263 0040 0B       		.uleb128 0xb
 4264 0041 01       		.uleb128 0x1
 4265 0042 13       		.uleb128 0x13
 4266 0043 00       		.byte	0
 4267 0044 00       		.byte	0
 4268 0045 06       		.uleb128 0x6
 4269 0046 28       		.uleb128 0x28
 4270 0047 00       		.byte	0
 4271 0048 03       		.uleb128 0x3
 4272 0049 0E       		.uleb128 0xe
 4273 004a 1C       		.uleb128 0x1c
 4274 004b 0B       		.uleb128 0xb
 4275 004c 00       		.byte	0
 4276 004d 00       		.byte	0
 4277 004e 07       		.uleb128 0x7
 4278 004f 17       		.uleb128 0x17
 4279 0050 01       		.byte	0x1
 4280 0051 0B       		.uleb128 0xb
 4281 0052 0B       		.uleb128 0xb
 4282 0053 3A       		.uleb128 0x3a
 4283 0054 0B       		.uleb128 0xb
 4284 0055 3B       		.uleb128 0x3b
 4285 0056 0B       		.uleb128 0xb
 4286 0057 01       		.uleb128 0x1
 4287 0058 13       		.uleb128 0x13
 4288 0059 00       		.byte	0
 4289 005a 00       		.byte	0
 4290 005b 08       		.uleb128 0x8
 4291 005c 0D       		.uleb128 0xd
 4292 005d 00       		.byte	0
 4293 005e 03       		.uleb128 0x3
 4294 005f 0E       		.uleb128 0xe
 4295 0060 3A       		.uleb128 0x3a
 4296 0061 0B       		.uleb128 0xb
 4297 0062 3B       		.uleb128 0x3b
 4298 0063 0B       		.uleb128 0xb
 4299 0064 49       		.uleb128 0x49
 4300 0065 13       		.uleb128 0x13
 4301 0066 0B       		.uleb128 0xb
 4302 0067 0B       		.uleb128 0xb
 4303 0068 0D       		.uleb128 0xd
 4304 0069 0B       		.uleb128 0xb
 4305 006a 0C       		.uleb128 0xc
 4306 006b 0B       		.uleb128 0xb
 4307 006c 00       		.byte	0
 4308 006d 00       		.byte	0
 4309 006e 09       		.uleb128 0x9
 4310 006f 0D       		.uleb128 0xd
 4311 0070 00       		.byte	0
 4312 0071 03       		.uleb128 0x3
 4313 0072 08       		.uleb128 0x8
ARM GAS  C:\Users\d3bug\AppData\Local\Temp\cc5D6foa.s 			page 102


 4314 0073 3A       		.uleb128 0x3a
 4315 0074 0B       		.uleb128 0xb
 4316 0075 3B       		.uleb128 0x3b
 4317 0076 0B       		.uleb128 0xb
 4318 0077 49       		.uleb128 0x49
 4319 0078 13       		.uleb128 0x13
 4320 0079 0B       		.uleb128 0xb
 4321 007a 0B       		.uleb128 0xb
 4322 007b 0D       		.uleb128 0xd
 4323 007c 0B       		.uleb128 0xb
 4324 007d 0C       		.uleb128 0xc
 4325 007e 0B       		.uleb128 0xb
 4326 007f 00       		.byte	0
 4327 0080 00       		.byte	0
 4328 0081 0A       		.uleb128 0xa
 4329 0082 13       		.uleb128 0x13
 4330 0083 01       		.byte	0x1
 4331 0084 0B       		.uleb128 0xb
 4332 0085 0B       		.uleb128 0xb
 4333 0086 3A       		.uleb128 0x3a
 4334 0087 0B       		.uleb128 0xb
 4335 0088 3B       		.uleb128 0x3b
 4336 0089 0B       		.uleb128 0xb
 4337 008a 01       		.uleb128 0x1
 4338 008b 13       		.uleb128 0x13
 4339 008c 00       		.byte	0
 4340 008d 00       		.byte	0
 4341 008e 0B       		.uleb128 0xb
 4342 008f 0D       		.uleb128 0xd
 4343 0090 00       		.byte	0
 4344 0091 03       		.uleb128 0x3
 4345 0092 08       		.uleb128 0x8
 4346 0093 3A       		.uleb128 0x3a
 4347 0094 0B       		.uleb128 0xb
 4348 0095 3B       		.uleb128 0x3b
 4349 0096 0B       		.uleb128 0xb
 4350 0097 49       		.uleb128 0x49
 4351 0098 13       		.uleb128 0x13
 4352 0099 38       		.uleb128 0x38
 4353 009a 0B       		.uleb128 0xb
 4354 009b 00       		.byte	0
 4355 009c 00       		.byte	0
 4356 009d 0C       		.uleb128 0xc
 4357 009e 0D       		.uleb128 0xd
 4358 009f 00       		.byte	0
 4359 00a0 03       		.uleb128 0x3
 4360 00a1 0E       		.uleb128 0xe
 4361 00a2 3A       		.uleb128 0x3a
 4362 00a3 0B       		.uleb128 0xb
 4363 00a4 3B       		.uleb128 0x3b
 4364 00a5 0B       		.uleb128 0xb
 4365 00a6 49       		.uleb128 0x49
 4366 00a7 13       		.uleb128 0x13
 4367 00a8 0B       		.uleb128 0xb
 4368 00a9 0B       		.uleb128 0xb
 4369 00aa 0D       		.uleb128 0xd
 4370 00ab 0B       		.uleb128 0xb
ARM GAS  C:\Users\d3bug\AppData\Local\Temp\cc5D6foa.s 			page 103


 4371 00ac 0C       		.uleb128 0xc
 4372 00ad 0B       		.uleb128 0xb
 4373 00ae 38       		.uleb128 0x38
 4374 00af 0B       		.uleb128 0xb
 4375 00b0 00       		.byte	0
 4376 00b1 00       		.byte	0
 4377 00b2 0D       		.uleb128 0xd
 4378 00b3 13       		.uleb128 0x13
 4379 00b4 01       		.byte	0x1
 4380 00b5 03       		.uleb128 0x3
 4381 00b6 0E       		.uleb128 0xe
 4382 00b7 0B       		.uleb128 0xb
 4383 00b8 0B       		.uleb128 0xb
 4384 00b9 3A       		.uleb128 0x3a
 4385 00ba 0B       		.uleb128 0xb
 4386 00bb 3B       		.uleb128 0x3b
 4387 00bc 0B       		.uleb128 0xb
 4388 00bd 01       		.uleb128 0x1
 4389 00be 13       		.uleb128 0x13
 4390 00bf 00       		.byte	0
 4391 00c0 00       		.byte	0
 4392 00c1 0E       		.uleb128 0xe
 4393 00c2 0D       		.uleb128 0xd
 4394 00c3 00       		.byte	0
 4395 00c4 03       		.uleb128 0x3
 4396 00c5 0E       		.uleb128 0xe
 4397 00c6 3A       		.uleb128 0x3a
 4398 00c7 0B       		.uleb128 0xb
 4399 00c8 3B       		.uleb128 0x3b
 4400 00c9 0B       		.uleb128 0xb
 4401 00ca 49       		.uleb128 0x49
 4402 00cb 13       		.uleb128 0x13
 4403 00cc 38       		.uleb128 0x38
 4404 00cd 0B       		.uleb128 0xb
 4405 00ce 00       		.byte	0
 4406 00cf 00       		.byte	0
 4407 00d0 0F       		.uleb128 0xf
 4408 00d1 0D       		.uleb128 0xd
 4409 00d2 00       		.byte	0
 4410 00d3 03       		.uleb128 0x3
 4411 00d4 08       		.uleb128 0x8
 4412 00d5 3A       		.uleb128 0x3a
 4413 00d6 0B       		.uleb128 0xb
 4414 00d7 3B       		.uleb128 0x3b
 4415 00d8 0B       		.uleb128 0xb
 4416 00d9 49       		.uleb128 0x49
 4417 00da 13       		.uleb128 0x13
 4418 00db 0B       		.uleb128 0xb
 4419 00dc 0B       		.uleb128 0xb
 4420 00dd 0D       		.uleb128 0xd
 4421 00de 0B       		.uleb128 0xb
 4422 00df 0C       		.uleb128 0xc
 4423 00e0 0B       		.uleb128 0xb
 4424 00e1 38       		.uleb128 0x38
 4425 00e2 0B       		.uleb128 0xb
 4426 00e3 00       		.byte	0
 4427 00e4 00       		.byte	0
ARM GAS  C:\Users\d3bug\AppData\Local\Temp\cc5D6foa.s 			page 104


 4428 00e5 10       		.uleb128 0x10
 4429 00e6 0F       		.uleb128 0xf
 4430 00e7 00       		.byte	0
 4431 00e8 0B       		.uleb128 0xb
 4432 00e9 0B       		.uleb128 0xb
 4433 00ea 49       		.uleb128 0x49
 4434 00eb 13       		.uleb128 0x13
 4435 00ec 00       		.byte	0
 4436 00ed 00       		.byte	0
 4437 00ee 11       		.uleb128 0x11
 4438 00ef 26       		.uleb128 0x26
 4439 00f0 00       		.byte	0
 4440 00f1 49       		.uleb128 0x49
 4441 00f2 13       		.uleb128 0x13
 4442 00f3 00       		.byte	0
 4443 00f4 00       		.byte	0
 4444 00f5 12       		.uleb128 0x12
 4445 00f6 15       		.uleb128 0x15
 4446 00f7 01       		.byte	0x1
 4447 00f8 27       		.uleb128 0x27
 4448 00f9 19       		.uleb128 0x19
 4449 00fa 49       		.uleb128 0x49
 4450 00fb 13       		.uleb128 0x13
 4451 00fc 01       		.uleb128 0x1
 4452 00fd 13       		.uleb128 0x13
 4453 00fe 00       		.byte	0
 4454 00ff 00       		.byte	0
 4455 0100 13       		.uleb128 0x13
 4456 0101 05       		.uleb128 0x5
 4457 0102 00       		.byte	0
 4458 0103 49       		.uleb128 0x49
 4459 0104 13       		.uleb128 0x13
 4460 0105 00       		.byte	0
 4461 0106 00       		.byte	0
 4462 0107 14       		.uleb128 0x14
 4463 0108 15       		.uleb128 0x15
 4464 0109 01       		.byte	0x1
 4465 010a 27       		.uleb128 0x27
 4466 010b 19       		.uleb128 0x19
 4467 010c 01       		.uleb128 0x1
 4468 010d 13       		.uleb128 0x13
 4469 010e 00       		.byte	0
 4470 010f 00       		.byte	0
 4471 0110 15       		.uleb128 0x15
 4472 0111 2E       		.uleb128 0x2e
 4473 0112 01       		.byte	0x1
 4474 0113 03       		.uleb128 0x3
 4475 0114 0E       		.uleb128 0xe
 4476 0115 3A       		.uleb128 0x3a
 4477 0116 0B       		.uleb128 0xb
 4478 0117 3B       		.uleb128 0x3b
 4479 0118 0B       		.uleb128 0xb
 4480 0119 27       		.uleb128 0x27
 4481 011a 19       		.uleb128 0x19
 4482 011b 49       		.uleb128 0x49
 4483 011c 13       		.uleb128 0x13
 4484 011d 20       		.uleb128 0x20
ARM GAS  C:\Users\d3bug\AppData\Local\Temp\cc5D6foa.s 			page 105


 4485 011e 0B       		.uleb128 0xb
 4486 011f 01       		.uleb128 0x1
 4487 0120 13       		.uleb128 0x13
 4488 0121 00       		.byte	0
 4489 0122 00       		.byte	0
 4490 0123 16       		.uleb128 0x16
 4491 0124 05       		.uleb128 0x5
 4492 0125 00       		.byte	0
 4493 0126 03       		.uleb128 0x3
 4494 0127 0E       		.uleb128 0xe
 4495 0128 3A       		.uleb128 0x3a
 4496 0129 0B       		.uleb128 0xb
 4497 012a 3B       		.uleb128 0x3b
 4498 012b 0B       		.uleb128 0xb
 4499 012c 49       		.uleb128 0x49
 4500 012d 13       		.uleb128 0x13
 4501 012e 00       		.byte	0
 4502 012f 00       		.byte	0
 4503 0130 17       		.uleb128 0x17
 4504 0131 2E       		.uleb128 0x2e
 4505 0132 01       		.byte	0x1
 4506 0133 03       		.uleb128 0x3
 4507 0134 0E       		.uleb128 0xe
 4508 0135 3A       		.uleb128 0x3a
 4509 0136 0B       		.uleb128 0xb
 4510 0137 3B       		.uleb128 0x3b
 4511 0138 05       		.uleb128 0x5
 4512 0139 27       		.uleb128 0x27
 4513 013a 19       		.uleb128 0x19
 4514 013b 49       		.uleb128 0x49
 4515 013c 13       		.uleb128 0x13
 4516 013d 20       		.uleb128 0x20
 4517 013e 0B       		.uleb128 0xb
 4518 013f 01       		.uleb128 0x1
 4519 0140 13       		.uleb128 0x13
 4520 0141 00       		.byte	0
 4521 0142 00       		.byte	0
 4522 0143 18       		.uleb128 0x18
 4523 0144 05       		.uleb128 0x5
 4524 0145 00       		.byte	0
 4525 0146 03       		.uleb128 0x3
 4526 0147 08       		.uleb128 0x8
 4527 0148 3A       		.uleb128 0x3a
 4528 0149 0B       		.uleb128 0xb
 4529 014a 3B       		.uleb128 0x3b
 4530 014b 05       		.uleb128 0x5
 4531 014c 49       		.uleb128 0x49
 4532 014d 13       		.uleb128 0x13
 4533 014e 00       		.byte	0
 4534 014f 00       		.byte	0
 4535 0150 19       		.uleb128 0x19
 4536 0151 34       		.uleb128 0x34
 4537 0152 00       		.byte	0
 4538 0153 03       		.uleb128 0x3
 4539 0154 08       		.uleb128 0x8
 4540 0155 3A       		.uleb128 0x3a
 4541 0156 0B       		.uleb128 0xb
ARM GAS  C:\Users\d3bug\AppData\Local\Temp\cc5D6foa.s 			page 106


 4542 0157 3B       		.uleb128 0x3b
 4543 0158 05       		.uleb128 0x5
 4544 0159 49       		.uleb128 0x49
 4545 015a 13       		.uleb128 0x13
 4546 015b 00       		.byte	0
 4547 015c 00       		.byte	0
 4548 015d 1A       		.uleb128 0x1a
 4549 015e 2E       		.uleb128 0x2e
 4550 015f 01       		.byte	0x1
 4551 0160 03       		.uleb128 0x3
 4552 0161 0E       		.uleb128 0xe
 4553 0162 3A       		.uleb128 0x3a
 4554 0163 0B       		.uleb128 0xb
 4555 0164 3B       		.uleb128 0x3b
 4556 0165 05       		.uleb128 0x5
 4557 0166 27       		.uleb128 0x27
 4558 0167 19       		.uleb128 0x19
 4559 0168 11       		.uleb128 0x11
 4560 0169 01       		.uleb128 0x1
 4561 016a 12       		.uleb128 0x12
 4562 016b 06       		.uleb128 0x6
 4563 016c 40       		.uleb128 0x40
 4564 016d 18       		.uleb128 0x18
 4565 016e 9742     		.uleb128 0x2117
 4566 0170 19       		.uleb128 0x19
 4567 0171 01       		.uleb128 0x1
 4568 0172 13       		.uleb128 0x13
 4569 0173 00       		.byte	0
 4570 0174 00       		.byte	0
 4571 0175 1B       		.uleb128 0x1b
 4572 0176 05       		.uleb128 0x5
 4573 0177 00       		.byte	0
 4574 0178 03       		.uleb128 0x3
 4575 0179 0E       		.uleb128 0xe
 4576 017a 3A       		.uleb128 0x3a
 4577 017b 0B       		.uleb128 0xb
 4578 017c 3B       		.uleb128 0x3b
 4579 017d 05       		.uleb128 0x5
 4580 017e 49       		.uleb128 0x49
 4581 017f 13       		.uleb128 0x13
 4582 0180 02       		.uleb128 0x2
 4583 0181 17       		.uleb128 0x17
 4584 0182 00       		.byte	0
 4585 0183 00       		.byte	0
 4586 0184 1C       		.uleb128 0x1c
 4587 0185 05       		.uleb128 0x5
 4588 0186 00       		.byte	0
 4589 0187 03       		.uleb128 0x3
 4590 0188 08       		.uleb128 0x8
 4591 0189 3A       		.uleb128 0x3a
 4592 018a 0B       		.uleb128 0xb
 4593 018b 3B       		.uleb128 0x3b
 4594 018c 05       		.uleb128 0x5
 4595 018d 49       		.uleb128 0x49
 4596 018e 13       		.uleb128 0x13
 4597 018f 02       		.uleb128 0x2
 4598 0190 17       		.uleb128 0x17
ARM GAS  C:\Users\d3bug\AppData\Local\Temp\cc5D6foa.s 			page 107


 4599 0191 00       		.byte	0
 4600 0192 00       		.byte	0
 4601 0193 1D       		.uleb128 0x1d
 4602 0194 05       		.uleb128 0x5
 4603 0195 00       		.byte	0
 4604 0196 03       		.uleb128 0x3
 4605 0197 08       		.uleb128 0x8
 4606 0198 3A       		.uleb128 0x3a
 4607 0199 0B       		.uleb128 0xb
 4608 019a 3B       		.uleb128 0x3b
 4609 019b 05       		.uleb128 0x5
 4610 019c 49       		.uleb128 0x49
 4611 019d 13       		.uleb128 0x13
 4612 019e 02       		.uleb128 0x2
 4613 019f 18       		.uleb128 0x18
 4614 01a0 00       		.byte	0
 4615 01a1 00       		.byte	0
 4616 01a2 1E       		.uleb128 0x1e
 4617 01a3 34       		.uleb128 0x34
 4618 01a4 00       		.byte	0
 4619 01a5 03       		.uleb128 0x3
 4620 01a6 08       		.uleb128 0x8
 4621 01a7 3A       		.uleb128 0x3a
 4622 01a8 0B       		.uleb128 0xb
 4623 01a9 3B       		.uleb128 0x3b
 4624 01aa 05       		.uleb128 0x5
 4625 01ab 49       		.uleb128 0x49
 4626 01ac 13       		.uleb128 0x13
 4627 01ad 02       		.uleb128 0x2
 4628 01ae 17       		.uleb128 0x17
 4629 01af 00       		.byte	0
 4630 01b0 00       		.byte	0
 4631 01b1 1F       		.uleb128 0x1f
 4632 01b2 34       		.uleb128 0x34
 4633 01b3 00       		.byte	0
 4634 01b4 03       		.uleb128 0x3
 4635 01b5 0E       		.uleb128 0xe
 4636 01b6 3A       		.uleb128 0x3a
 4637 01b7 0B       		.uleb128 0xb
 4638 01b8 3B       		.uleb128 0x3b
 4639 01b9 05       		.uleb128 0x5
 4640 01ba 49       		.uleb128 0x49
 4641 01bb 13       		.uleb128 0x13
 4642 01bc 00       		.byte	0
 4643 01bd 00       		.byte	0
 4644 01be 20       		.uleb128 0x20
 4645 01bf 34       		.uleb128 0x34
 4646 01c0 00       		.byte	0
 4647 01c1 03       		.uleb128 0x3
 4648 01c2 0E       		.uleb128 0xe
 4649 01c3 3A       		.uleb128 0x3a
 4650 01c4 0B       		.uleb128 0xb
 4651 01c5 3B       		.uleb128 0x3b
 4652 01c6 05       		.uleb128 0x5
 4653 01c7 49       		.uleb128 0x49
 4654 01c8 13       		.uleb128 0x13
 4655 01c9 02       		.uleb128 0x2
ARM GAS  C:\Users\d3bug\AppData\Local\Temp\cc5D6foa.s 			page 108


 4656 01ca 17       		.uleb128 0x17
 4657 01cb 00       		.byte	0
 4658 01cc 00       		.byte	0
 4659 01cd 21       		.uleb128 0x21
 4660 01ce 1D       		.uleb128 0x1d
 4661 01cf 01       		.byte	0x1
 4662 01d0 31       		.uleb128 0x31
 4663 01d1 13       		.uleb128 0x13
 4664 01d2 11       		.uleb128 0x11
 4665 01d3 01       		.uleb128 0x1
 4666 01d4 12       		.uleb128 0x12
 4667 01d5 06       		.uleb128 0x6
 4668 01d6 58       		.uleb128 0x58
 4669 01d7 0B       		.uleb128 0xb
 4670 01d8 59       		.uleb128 0x59
 4671 01d9 05       		.uleb128 0x5
 4672 01da 01       		.uleb128 0x1
 4673 01db 13       		.uleb128 0x13
 4674 01dc 00       		.byte	0
 4675 01dd 00       		.byte	0
 4676 01de 22       		.uleb128 0x22
 4677 01df 05       		.uleb128 0x5
 4678 01e0 00       		.byte	0
 4679 01e1 31       		.uleb128 0x31
 4680 01e2 13       		.uleb128 0x13
 4681 01e3 02       		.uleb128 0x2
 4682 01e4 17       		.uleb128 0x17
 4683 01e5 00       		.byte	0
 4684 01e6 00       		.byte	0
 4685 01e7 23       		.uleb128 0x23
 4686 01e8 0B       		.uleb128 0xb
 4687 01e9 01       		.byte	0x1
 4688 01ea 11       		.uleb128 0x11
 4689 01eb 01       		.uleb128 0x1
 4690 01ec 12       		.uleb128 0x12
 4691 01ed 06       		.uleb128 0x6
 4692 01ee 01       		.uleb128 0x1
 4693 01ef 13       		.uleb128 0x13
 4694 01f0 00       		.byte	0
 4695 01f1 00       		.byte	0
 4696 01f2 24       		.uleb128 0x24
 4697 01f3 898201   		.uleb128 0x4109
 4698 01f6 01       		.byte	0x1
 4699 01f7 11       		.uleb128 0x11
 4700 01f8 01       		.uleb128 0x1
 4701 01f9 31       		.uleb128 0x31
 4702 01fa 13       		.uleb128 0x13
 4703 01fb 00       		.byte	0
 4704 01fc 00       		.byte	0
 4705 01fd 25       		.uleb128 0x25
 4706 01fe 8A8201   		.uleb128 0x410a
 4707 0201 00       		.byte	0
 4708 0202 02       		.uleb128 0x2
 4709 0203 18       		.uleb128 0x18
 4710 0204 9142     		.uleb128 0x2111
 4711 0206 18       		.uleb128 0x18
 4712 0207 00       		.byte	0
ARM GAS  C:\Users\d3bug\AppData\Local\Temp\cc5D6foa.s 			page 109


 4713 0208 00       		.byte	0
 4714 0209 26       		.uleb128 0x26
 4715 020a 34       		.uleb128 0x34
 4716 020b 00       		.byte	0
 4717 020c 03       		.uleb128 0x3
 4718 020d 0E       		.uleb128 0xe
 4719 020e 3A       		.uleb128 0x3a
 4720 020f 0B       		.uleb128 0xb
 4721 0210 3B       		.uleb128 0x3b
 4722 0211 05       		.uleb128 0x5
 4723 0212 49       		.uleb128 0x49
 4724 0213 13       		.uleb128 0x13
 4725 0214 02       		.uleb128 0x2
 4726 0215 18       		.uleb128 0x18
 4727 0216 00       		.byte	0
 4728 0217 00       		.byte	0
 4729 0218 27       		.uleb128 0x27
 4730 0219 05       		.uleb128 0x5
 4731 021a 00       		.byte	0
 4732 021b 31       		.uleb128 0x31
 4733 021c 13       		.uleb128 0x13
 4734 021d 00       		.byte	0
 4735 021e 00       		.byte	0
 4736 021f 28       		.uleb128 0x28
 4737 0220 0B       		.uleb128 0xb
 4738 0221 01       		.byte	0x1
 4739 0222 11       		.uleb128 0x11
 4740 0223 01       		.uleb128 0x1
 4741 0224 12       		.uleb128 0x12
 4742 0225 06       		.uleb128 0x6
 4743 0226 00       		.byte	0
 4744 0227 00       		.byte	0
 4745 0228 29       		.uleb128 0x29
 4746 0229 34       		.uleb128 0x34
 4747 022a 00       		.byte	0
 4748 022b 31       		.uleb128 0x31
 4749 022c 13       		.uleb128 0x13
 4750 022d 00       		.byte	0
 4751 022e 00       		.byte	0
 4752 022f 2A       		.uleb128 0x2a
 4753 0230 1D       		.uleb128 0x1d
 4754 0231 01       		.byte	0x1
 4755 0232 31       		.uleb128 0x31
 4756 0233 13       		.uleb128 0x13
 4757 0234 11       		.uleb128 0x11
 4758 0235 01       		.uleb128 0x1
 4759 0236 12       		.uleb128 0x12
 4760 0237 06       		.uleb128 0x6
 4761 0238 58       		.uleb128 0x58
 4762 0239 0B       		.uleb128 0xb
 4763 023a 59       		.uleb128 0x59
 4764 023b 05       		.uleb128 0x5
 4765 023c 00       		.byte	0
 4766 023d 00       		.byte	0
 4767 023e 2B       		.uleb128 0x2b
 4768 023f 34       		.uleb128 0x34
 4769 0240 00       		.byte	0
ARM GAS  C:\Users\d3bug\AppData\Local\Temp\cc5D6foa.s 			page 110


 4770 0241 31       		.uleb128 0x31
 4771 0242 13       		.uleb128 0x13
 4772 0243 02       		.uleb128 0x2
 4773 0244 18       		.uleb128 0x18
 4774 0245 00       		.byte	0
 4775 0246 00       		.byte	0
 4776 0247 2C       		.uleb128 0x2c
 4777 0248 898201   		.uleb128 0x4109
 4778 024b 00       		.byte	0
 4779 024c 11       		.uleb128 0x11
 4780 024d 01       		.uleb128 0x1
 4781 024e 31       		.uleb128 0x31
 4782 024f 13       		.uleb128 0x13
 4783 0250 00       		.byte	0
 4784 0251 00       		.byte	0
 4785 0252 2D       		.uleb128 0x2d
 4786 0253 898201   		.uleb128 0x4109
 4787 0256 01       		.byte	0x1
 4788 0257 11       		.uleb128 0x11
 4789 0258 01       		.uleb128 0x1
 4790 0259 9342     		.uleb128 0x2113
 4791 025b 18       		.uleb128 0x18
 4792 025c 00       		.byte	0
 4793 025d 00       		.byte	0
 4794 025e 2E       		.uleb128 0x2e
 4795 025f 0B       		.uleb128 0xb
 4796 0260 01       		.byte	0x1
 4797 0261 55       		.uleb128 0x55
 4798 0262 17       		.uleb128 0x17
 4799 0263 01       		.uleb128 0x1
 4800 0264 13       		.uleb128 0x13
 4801 0265 00       		.byte	0
 4802 0266 00       		.byte	0
 4803 0267 2F       		.uleb128 0x2f
 4804 0268 34       		.uleb128 0x34
 4805 0269 00       		.byte	0
 4806 026a 31       		.uleb128 0x31
 4807 026b 13       		.uleb128 0x13
 4808 026c 02       		.uleb128 0x2
 4809 026d 17       		.uleb128 0x17
 4810 026e 00       		.byte	0
 4811 026f 00       		.byte	0
 4812 0270 30       		.uleb128 0x30
 4813 0271 2E       		.uleb128 0x2e
 4814 0272 01       		.byte	0x1
 4815 0273 3F       		.uleb128 0x3f
 4816 0274 19       		.uleb128 0x19
 4817 0275 03       		.uleb128 0x3
 4818 0276 0E       		.uleb128 0xe
 4819 0277 3A       		.uleb128 0x3a
 4820 0278 0B       		.uleb128 0xb
 4821 0279 3B       		.uleb128 0x3b
 4822 027a 0B       		.uleb128 0xb
 4823 027b 27       		.uleb128 0x27
 4824 027c 19       		.uleb128 0x19
 4825 027d 11       		.uleb128 0x11
 4826 027e 01       		.uleb128 0x1
ARM GAS  C:\Users\d3bug\AppData\Local\Temp\cc5D6foa.s 			page 111


 4827 027f 12       		.uleb128 0x12
 4828 0280 06       		.uleb128 0x6
 4829 0281 40       		.uleb128 0x40
 4830 0282 18       		.uleb128 0x18
 4831 0283 9742     		.uleb128 0x2117
 4832 0285 19       		.uleb128 0x19
 4833 0286 01       		.uleb128 0x1
 4834 0287 13       		.uleb128 0x13
 4835 0288 00       		.byte	0
 4836 0289 00       		.byte	0
 4837 028a 31       		.uleb128 0x31
 4838 028b 05       		.uleb128 0x5
 4839 028c 00       		.byte	0
 4840 028d 03       		.uleb128 0x3
 4841 028e 08       		.uleb128 0x8
 4842 028f 3A       		.uleb128 0x3a
 4843 0290 0B       		.uleb128 0xb
 4844 0291 3B       		.uleb128 0x3b
 4845 0292 0B       		.uleb128 0xb
 4846 0293 49       		.uleb128 0x49
 4847 0294 13       		.uleb128 0x13
 4848 0295 02       		.uleb128 0x2
 4849 0296 17       		.uleb128 0x17
 4850 0297 00       		.byte	0
 4851 0298 00       		.byte	0
 4852 0299 32       		.uleb128 0x32
 4853 029a 05       		.uleb128 0x5
 4854 029b 00       		.byte	0
 4855 029c 03       		.uleb128 0x3
 4856 029d 0E       		.uleb128 0xe
 4857 029e 3A       		.uleb128 0x3a
 4858 029f 0B       		.uleb128 0xb
 4859 02a0 3B       		.uleb128 0x3b
 4860 02a1 0B       		.uleb128 0xb
 4861 02a2 49       		.uleb128 0x49
 4862 02a3 13       		.uleb128 0x13
 4863 02a4 02       		.uleb128 0x2
 4864 02a5 17       		.uleb128 0x17
 4865 02a6 00       		.byte	0
 4866 02a7 00       		.byte	0
 4867 02a8 33       		.uleb128 0x33
 4868 02a9 34       		.uleb128 0x34
 4869 02aa 00       		.byte	0
 4870 02ab 03       		.uleb128 0x3
 4871 02ac 0E       		.uleb128 0xe
 4872 02ad 3A       		.uleb128 0x3a
 4873 02ae 0B       		.uleb128 0xb
 4874 02af 3B       		.uleb128 0x3b
 4875 02b0 0B       		.uleb128 0xb
 4876 02b1 49       		.uleb128 0x49
 4877 02b2 13       		.uleb128 0x13
 4878 02b3 02       		.uleb128 0x2
 4879 02b4 17       		.uleb128 0x17
 4880 02b5 00       		.byte	0
 4881 02b6 00       		.byte	0
 4882 02b7 34       		.uleb128 0x34
 4883 02b8 1D       		.uleb128 0x1d
ARM GAS  C:\Users\d3bug\AppData\Local\Temp\cc5D6foa.s 			page 112


 4884 02b9 01       		.byte	0x1
 4885 02ba 31       		.uleb128 0x31
 4886 02bb 13       		.uleb128 0x13
 4887 02bc 11       		.uleb128 0x11
 4888 02bd 01       		.uleb128 0x1
 4889 02be 12       		.uleb128 0x12
 4890 02bf 06       		.uleb128 0x6
 4891 02c0 58       		.uleb128 0x58
 4892 02c1 0B       		.uleb128 0xb
 4893 02c2 59       		.uleb128 0x59
 4894 02c3 0B       		.uleb128 0xb
 4895 02c4 01       		.uleb128 0x1
 4896 02c5 13       		.uleb128 0x13
 4897 02c6 00       		.byte	0
 4898 02c7 00       		.byte	0
 4899 02c8 35       		.uleb128 0x35
 4900 02c9 1D       		.uleb128 0x1d
 4901 02ca 01       		.byte	0x1
 4902 02cb 31       		.uleb128 0x31
 4903 02cc 13       		.uleb128 0x13
 4904 02cd 11       		.uleb128 0x11
 4905 02ce 01       		.uleb128 0x1
 4906 02cf 12       		.uleb128 0x12
 4907 02d0 06       		.uleb128 0x6
 4908 02d1 58       		.uleb128 0x58
 4909 02d2 0B       		.uleb128 0xb
 4910 02d3 59       		.uleb128 0x59
 4911 02d4 0B       		.uleb128 0xb
 4912 02d5 00       		.byte	0
 4913 02d6 00       		.byte	0
 4914 02d7 36       		.uleb128 0x36
 4915 02d8 898201   		.uleb128 0x4109
 4916 02db 01       		.byte	0x1
 4917 02dc 11       		.uleb128 0x11
 4918 02dd 01       		.uleb128 0x1
 4919 02de 31       		.uleb128 0x31
 4920 02df 13       		.uleb128 0x13
 4921 02e0 01       		.uleb128 0x1
 4922 02e1 13       		.uleb128 0x13
 4923 02e2 00       		.byte	0
 4924 02e3 00       		.byte	0
 4925 02e4 37       		.uleb128 0x37
 4926 02e5 34       		.uleb128 0x34
 4927 02e6 00       		.byte	0
 4928 02e7 03       		.uleb128 0x3
 4929 02e8 0E       		.uleb128 0xe
 4930 02e9 3A       		.uleb128 0x3a
 4931 02ea 0B       		.uleb128 0xb
 4932 02eb 3B       		.uleb128 0x3b
 4933 02ec 0B       		.uleb128 0xb
 4934 02ed 49       		.uleb128 0x49
 4935 02ee 13       		.uleb128 0x13
 4936 02ef 02       		.uleb128 0x2
 4937 02f0 18       		.uleb128 0x18
 4938 02f1 00       		.byte	0
 4939 02f2 00       		.byte	0
 4940 02f3 38       		.uleb128 0x38
ARM GAS  C:\Users\d3bug\AppData\Local\Temp\cc5D6foa.s 			page 113


 4941 02f4 34       		.uleb128 0x34
 4942 02f5 00       		.byte	0
 4943 02f6 03       		.uleb128 0x3
 4944 02f7 0E       		.uleb128 0xe
 4945 02f8 3A       		.uleb128 0x3a
 4946 02f9 0B       		.uleb128 0xb
 4947 02fa 3B       		.uleb128 0x3b
 4948 02fb 0B       		.uleb128 0xb
 4949 02fc 49       		.uleb128 0x49
 4950 02fd 13       		.uleb128 0x13
 4951 02fe 00       		.byte	0
 4952 02ff 00       		.byte	0
 4953 0300 39       		.uleb128 0x39
 4954 0301 01       		.uleb128 0x1
 4955 0302 01       		.byte	0x1
 4956 0303 49       		.uleb128 0x49
 4957 0304 13       		.uleb128 0x13
 4958 0305 01       		.uleb128 0x1
 4959 0306 13       		.uleb128 0x13
 4960 0307 00       		.byte	0
 4961 0308 00       		.byte	0
 4962 0309 3A       		.uleb128 0x3a
 4963 030a 21       		.uleb128 0x21
 4964 030b 00       		.byte	0
 4965 030c 49       		.uleb128 0x49
 4966 030d 13       		.uleb128 0x13
 4967 030e 2F       		.uleb128 0x2f
 4968 030f 0B       		.uleb128 0xb
 4969 0310 00       		.byte	0
 4970 0311 00       		.byte	0
 4971 0312 3B       		.uleb128 0x3b
 4972 0313 2E       		.uleb128 0x2e
 4973 0314 01       		.byte	0x1
 4974 0315 3F       		.uleb128 0x3f
 4975 0316 19       		.uleb128 0x19
 4976 0317 03       		.uleb128 0x3
 4977 0318 0E       		.uleb128 0xe
 4978 0319 3A       		.uleb128 0x3a
 4979 031a 0B       		.uleb128 0xb
 4980 031b 3B       		.uleb128 0x3b
 4981 031c 05       		.uleb128 0x5
 4982 031d 27       		.uleb128 0x27
 4983 031e 19       		.uleb128 0x19
 4984 031f 11       		.uleb128 0x11
 4985 0320 01       		.uleb128 0x1
 4986 0321 12       		.uleb128 0x12
 4987 0322 06       		.uleb128 0x6
 4988 0323 40       		.uleb128 0x40
 4989 0324 18       		.uleb128 0x18
 4990 0325 9742     		.uleb128 0x2117
 4991 0327 19       		.uleb128 0x19
 4992 0328 01       		.uleb128 0x1
 4993 0329 13       		.uleb128 0x13
 4994 032a 00       		.byte	0
 4995 032b 00       		.byte	0
 4996 032c 3C       		.uleb128 0x3c
 4997 032d 05       		.uleb128 0x5
ARM GAS  C:\Users\d3bug\AppData\Local\Temp\cc5D6foa.s 			page 114


 4998 032e 00       		.byte	0
 4999 032f 03       		.uleb128 0x3
 5000 0330 0E       		.uleb128 0xe
 5001 0331 3A       		.uleb128 0x3a
 5002 0332 0B       		.uleb128 0xb
 5003 0333 3B       		.uleb128 0x3b
 5004 0334 05       		.uleb128 0x5
 5005 0335 49       		.uleb128 0x49
 5006 0336 13       		.uleb128 0x13
 5007 0337 02       		.uleb128 0x2
 5008 0338 18       		.uleb128 0x18
 5009 0339 00       		.byte	0
 5010 033a 00       		.byte	0
 5011 033b 3D       		.uleb128 0x3d
 5012 033c 898201   		.uleb128 0x4109
 5013 033f 01       		.byte	0x1
 5014 0340 11       		.uleb128 0x11
 5015 0341 01       		.uleb128 0x1
 5016 0342 9342     		.uleb128 0x2113
 5017 0344 18       		.uleb128 0x18
 5018 0345 01       		.uleb128 0x1
 5019 0346 13       		.uleb128 0x13
 5020 0347 00       		.byte	0
 5021 0348 00       		.byte	0
 5022 0349 3E       		.uleb128 0x3e
 5023 034a 2E       		.uleb128 0x2e
 5024 034b 00       		.byte	0
 5025 034c 3F       		.uleb128 0x3f
 5026 034d 19       		.uleb128 0x19
 5027 034e 3C       		.uleb128 0x3c
 5028 034f 19       		.uleb128 0x19
 5029 0350 6E       		.uleb128 0x6e
 5030 0351 0E       		.uleb128 0xe
 5031 0352 03       		.uleb128 0x3
 5032 0353 0E       		.uleb128 0xe
 5033 0354 00       		.byte	0
 5034 0355 00       		.byte	0
 5035 0356 3F       		.uleb128 0x3f
 5036 0357 2E       		.uleb128 0x2e
 5037 0358 00       		.byte	0
 5038 0359 3F       		.uleb128 0x3f
 5039 035a 19       		.uleb128 0x19
 5040 035b 3C       		.uleb128 0x3c
 5041 035c 19       		.uleb128 0x19
 5042 035d 6E       		.uleb128 0x6e
 5043 035e 0E       		.uleb128 0xe
 5044 035f 03       		.uleb128 0x3
 5045 0360 0E       		.uleb128 0xe
 5046 0361 3A       		.uleb128 0x3a
 5047 0362 0B       		.uleb128 0xb
 5048 0363 3B       		.uleb128 0x3b
 5049 0364 0B       		.uleb128 0xb
 5050 0365 00       		.byte	0
 5051 0366 00       		.byte	0
 5052 0367 00       		.byte	0
 5053              		.section	.debug_loc,"",%progbits
 5054              	.Ldebug_loc0:
ARM GAS  C:\Users\d3bug\AppData\Local\Temp\cc5D6foa.s 			page 115


 5055              	.LLST0:
 5056 0000 00000000 		.4byte	.LVL0
 5057 0004 27000000 		.4byte	.LVL4-1
 5058 0008 0100     		.2byte	0x1
 5059 000a 50       		.byte	0x50
 5060 000b 27000000 		.4byte	.LVL4-1
 5061 000f 36010000 		.4byte	.LFE17
 5062 0013 0400     		.2byte	0x4
 5063 0015 F3       		.byte	0xf3
 5064 0016 01       		.uleb128 0x1
 5065 0017 50       		.byte	0x50
 5066 0018 9F       		.byte	0x9f
 5067 0019 00000000 		.4byte	0
 5068 001d 00000000 		.4byte	0
 5069              	.LLST1:
 5070 0021 00000000 		.4byte	.LVL0
 5071 0025 27000000 		.4byte	.LVL4-1
 5072 0029 0100     		.2byte	0x1
 5073 002b 51       		.byte	0x51
 5074 002c 27000000 		.4byte	.LVL4-1
 5075 0030 76000000 		.4byte	.LVL15
 5076 0034 0200     		.2byte	0x2
 5077 0036 91       		.byte	0x91
 5078 0037 54       		.sleb128 -44
 5079 0038 76000000 		.4byte	.LVL15
 5080 003c A4000000 		.4byte	.LVL22
 5081 0040 0100     		.2byte	0x1
 5082 0042 51       		.byte	0x51
 5083 0043 A4000000 		.4byte	.LVL22
 5084 0047 CC000000 		.4byte	.LVL29
 5085 004b 0100     		.2byte	0x1
 5086 004d 58       		.byte	0x58
 5087 004e CC000000 		.4byte	.LVL29
 5088 0052 30010000 		.4byte	.LVL44
 5089 0056 0100     		.2byte	0x1
 5090 0058 51       		.byte	0x51
 5091 0059 00000000 		.4byte	0
 5092 005d 00000000 		.4byte	0
 5093              	.LLST2:
 5094 0061 00000000 		.4byte	.LVL0
 5095 0065 27000000 		.4byte	.LVL4-1
 5096 0069 0100     		.2byte	0x1
 5097 006b 52       		.byte	0x52
 5098 006c 27000000 		.4byte	.LVL4-1
 5099 0070 36010000 		.4byte	.LFE17
 5100 0074 0100     		.2byte	0x1
 5101 0076 57       		.byte	0x57
 5102 0077 00000000 		.4byte	0
 5103 007b 00000000 		.4byte	0
 5104              	.LLST3:
 5105 007f 00000000 		.4byte	.LVL0
 5106 0083 14000000 		.4byte	.LVL2
 5107 0087 0100     		.2byte	0x1
 5108 0089 53       		.byte	0x53
 5109 008a 34000000 		.4byte	.LVL6
 5110 008e 6C000000 		.4byte	.LVL13
 5111 0092 0100     		.2byte	0x1
ARM GAS  C:\Users\d3bug\AppData\Local\Temp\cc5D6foa.s 			page 116


 5112 0094 5A       		.byte	0x5a
 5113 0095 82000000 		.4byte	.LVL17
 5114 0099 CC000000 		.4byte	.LVL29
 5115 009d 0100     		.2byte	0x1
 5116 009f 5A       		.byte	0x5a
 5117 00a0 DA000000 		.4byte	.LVL32
 5118 00a4 E0000000 		.4byte	.LVL33
 5119 00a8 0100     		.2byte	0x1
 5120 00aa 5A       		.byte	0x5a
 5121 00ab E6000000 		.4byte	.LVL35
 5122 00af 36010000 		.4byte	.LFE17
 5123 00b3 0100     		.2byte	0x1
 5124 00b5 5A       		.byte	0x5a
 5125 00b6 00000000 		.4byte	0
 5126 00ba 00000000 		.4byte	0
 5127              	.LLST4:
 5128 00be 38000000 		.4byte	.LVL7
 5129 00c2 52000000 		.4byte	.LVL9
 5130 00c6 0100     		.2byte	0x1
 5131 00c8 54       		.byte	0x54
 5132 00c9 54000000 		.4byte	.LVL10
 5133 00cd 62000000 		.4byte	.LVL12
 5134 00d1 0100     		.2byte	0x1
 5135 00d3 54       		.byte	0x54
 5136 00d4 AC000000 		.4byte	.LVL23
 5137 00d8 C0000000 		.4byte	.LVL27
 5138 00dc 0100     		.2byte	0x1
 5139 00de 54       		.byte	0x54
 5140 00df C2000000 		.4byte	.LVL28
 5141 00e3 CC000000 		.4byte	.LVL29
 5142 00e7 0100     		.2byte	0x1
 5143 00e9 54       		.byte	0x54
 5144 00ea E4000000 		.4byte	.LVL34
 5145 00ee 26010000 		.4byte	.LVL42
 5146 00f2 0100     		.2byte	0x1
 5147 00f4 50       		.byte	0x50
 5148 00f5 28010000 		.4byte	.LVL43
 5149 00f9 30010000 		.4byte	.LVL44
 5150 00fd 0100     		.2byte	0x1
 5151 00ff 50       		.byte	0x50
 5152 0100 00000000 		.4byte	0
 5153 0104 00000000 		.4byte	0
 5154              	.LLST5:
 5155 0108 32000000 		.4byte	.LVL5
 5156 010c 60000000 		.4byte	.LVL11
 5157 0110 0100     		.2byte	0x1
 5158 0112 56       		.byte	0x56
 5159 0113 62000000 		.4byte	.LVL12
 5160 0117 6C000000 		.4byte	.LVL13
 5161 011b 0100     		.2byte	0x1
 5162 011d 56       		.byte	0x56
 5163 011e 80000000 		.4byte	.LVL16
 5164 0122 88000000 		.4byte	.LVL18
 5165 0126 0100     		.2byte	0x1
 5166 0128 53       		.byte	0x53
 5167 0129 8A000000 		.4byte	.LVL19
 5168 012d AE000000 		.4byte	.LVL24
ARM GAS  C:\Users\d3bug\AppData\Local\Temp\cc5D6foa.s 			page 117


 5169 0131 0100     		.2byte	0x1
 5170 0133 53       		.byte	0x53
 5171 0134 EA000000 		.4byte	.LVL36
 5172 0138 18010000 		.4byte	.LVL39
 5173 013c 0100     		.2byte	0x1
 5174 013e 53       		.byte	0x53
 5175 013f 1A010000 		.4byte	.LVL40
 5176 0143 28010000 		.4byte	.LVL43
 5177 0147 0100     		.2byte	0x1
 5178 0149 53       		.byte	0x53
 5179 014a 00000000 		.4byte	0
 5180 014e 00000000 		.4byte	0
 5181              	.LLST6:
 5182 0152 28000000 		.4byte	.LVL4
 5183 0156 34000000 		.4byte	.LVL6
 5184 015a 0100     		.2byte	0x1
 5185 015c 50       		.byte	0x50
 5186 015d 34000000 		.4byte	.LVL6
 5187 0161 6C000000 		.4byte	.LVL13
 5188 0165 0100     		.2byte	0x1
 5189 0167 5B       		.byte	0x5b
 5190 0168 6C000000 		.4byte	.LVL13
 5191 016c 70000000 		.4byte	.LVL14
 5192 0170 0100     		.2byte	0x1
 5193 0172 50       		.byte	0x50
 5194 0173 00000000 		.4byte	0
 5195 0177 00000000 		.4byte	0
 5196              	.LLST7:
 5197 017b 10000000 		.4byte	.LVL1
 5198 017f 24000000 		.4byte	.LVL3
 5199 0183 0100     		.2byte	0x1
 5200 0185 50       		.byte	0x50
 5201 0186 00000000 		.4byte	0
 5202 018a 00000000 		.4byte	0
 5203              	.LLST8:
 5204 018e 9A000000 		.4byte	.LVL20
 5205 0192 CC000000 		.4byte	.LVL29
 5206 0196 0100     		.2byte	0x1
 5207 0198 59       		.byte	0x59
 5208 0199 00000000 		.4byte	0
 5209 019d 00000000 		.4byte	0
 5210              	.LLST9:
 5211 01a1 A0000000 		.4byte	.LVL21
 5212 01a5 CC000000 		.4byte	.LVL29
 5213 01a9 0100     		.2byte	0x1
 5214 01ab 55       		.byte	0x55
 5215 01ac 00000000 		.4byte	0
 5216 01b0 00000000 		.4byte	0
 5217              	.LLST10:
 5218 01b4 E6000000 		.4byte	.LVL35
 5219 01b8 FC000000 		.4byte	.LVL37
 5220 01bc 0100     		.2byte	0x1
 5221 01be 55       		.byte	0x55
 5222 01bf 12010000 		.4byte	.LVL38
 5223 01c3 36010000 		.4byte	.LFE17
 5224 01c7 0100     		.2byte	0x1
 5225 01c9 55       		.byte	0x55
ARM GAS  C:\Users\d3bug\AppData\Local\Temp\cc5D6foa.s 			page 118


 5226 01ca 00000000 		.4byte	0
 5227 01ce 00000000 		.4byte	0
 5228              	.LLST11:
 5229 01d2 D0000000 		.4byte	.LVL30
 5230 01d6 D4000000 		.4byte	.LVL31
 5231 01da 0100     		.2byte	0x1
 5232 01dc 59       		.byte	0x59
 5233 01dd D4000000 		.4byte	.LVL31
 5234 01e1 E4000000 		.4byte	.LVL34
 5235 01e5 0200     		.2byte	0x2
 5236 01e7 91       		.byte	0x91
 5237 01e8 00       		.sleb128 0
 5238 01e9 00000000 		.4byte	0
 5239 01ed 00000000 		.4byte	0
 5240              	.LLST12:
 5241 01f1 FC000000 		.4byte	.LVL37
 5242 01f5 12010000 		.4byte	.LVL38
 5243 01f9 0200     		.2byte	0x2
 5244 01fb 91       		.byte	0x91
 5245 01fc 00       		.sleb128 0
 5246 01fd 00000000 		.4byte	0
 5247 0201 00000000 		.4byte	0
 5248              	.LLST13:
 5249 0205 00000000 		.4byte	.LVL45
 5250 0209 09000000 		.4byte	.LVL46-1
 5251 020d 0100     		.2byte	0x1
 5252 020f 50       		.byte	0x50
 5253 0210 09000000 		.4byte	.LVL46-1
 5254 0214 0C000000 		.4byte	.LVL47
 5255 0218 0400     		.2byte	0x4
 5256 021a F3       		.byte	0xf3
 5257 021b 01       		.uleb128 0x1
 5258 021c 50       		.byte	0x50
 5259 021d 9F       		.byte	0x9f
 5260 021e 0C000000 		.4byte	.LVL47
 5261 0222 36000000 		.4byte	.LFE16
 5262 0226 0100     		.2byte	0x1
 5263 0228 50       		.byte	0x50
 5264 0229 00000000 		.4byte	0
 5265 022d 00000000 		.4byte	0
 5266              	.LLST14:
 5267 0231 00000000 		.4byte	.LVL45
 5268 0235 09000000 		.4byte	.LVL46-1
 5269 0239 0100     		.2byte	0x1
 5270 023b 51       		.byte	0x51
 5271 023c 09000000 		.4byte	.LVL46-1
 5272 0240 0C000000 		.4byte	.LVL47
 5273 0244 0400     		.2byte	0x4
 5274 0246 F3       		.byte	0xf3
 5275 0247 01       		.uleb128 0x1
 5276 0248 51       		.byte	0x51
 5277 0249 9F       		.byte	0x9f
 5278 024a 0C000000 		.4byte	.LVL47
 5279 024e 36000000 		.4byte	.LFE16
 5280 0252 0100     		.2byte	0x1
 5281 0254 51       		.byte	0x51
 5282 0255 00000000 		.4byte	0
ARM GAS  C:\Users\d3bug\AppData\Local\Temp\cc5D6foa.s 			page 119


 5283 0259 00000000 		.4byte	0
 5284              	.LLST15:
 5285 025d 00000000 		.4byte	.LVL45
 5286 0261 09000000 		.4byte	.LVL46-1
 5287 0265 0100     		.2byte	0x1
 5288 0267 52       		.byte	0x52
 5289 0268 09000000 		.4byte	.LVL46-1
 5290 026c 0C000000 		.4byte	.LVL47
 5291 0270 0400     		.2byte	0x4
 5292 0272 F3       		.byte	0xf3
 5293 0273 01       		.uleb128 0x1
 5294 0274 52       		.byte	0x52
 5295 0275 9F       		.byte	0x9f
 5296 0276 0C000000 		.4byte	.LVL47
 5297 027a 36000000 		.4byte	.LFE16
 5298 027e 0100     		.2byte	0x1
 5299 0280 52       		.byte	0x52
 5300 0281 00000000 		.4byte	0
 5301 0285 00000000 		.4byte	0
 5302              	.LLST16:
 5303 0289 00000000 		.4byte	.LVL45
 5304 028d 09000000 		.4byte	.LVL46-1
 5305 0291 0100     		.2byte	0x1
 5306 0293 53       		.byte	0x53
 5307 0294 09000000 		.4byte	.LVL46-1
 5308 0298 0C000000 		.4byte	.LVL47
 5309 029c 0400     		.2byte	0x4
 5310 029e F3       		.byte	0xf3
 5311 029f 01       		.uleb128 0x1
 5312 02a0 53       		.byte	0x53
 5313 02a1 9F       		.byte	0x9f
 5314 02a2 0C000000 		.4byte	.LVL47
 5315 02a6 36000000 		.4byte	.LFE16
 5316 02aa 0100     		.2byte	0x1
 5317 02ac 53       		.byte	0x53
 5318 02ad 00000000 		.4byte	0
 5319 02b1 00000000 		.4byte	0
 5320              	.LLST17:
 5321 02b5 0C000000 		.4byte	.LVL47
 5322 02b9 2E000000 		.4byte	.LVL51
 5323 02bd 0100     		.2byte	0x1
 5324 02bf 54       		.byte	0x54
 5325 02c0 30000000 		.4byte	.LVL52
 5326 02c4 36000000 		.4byte	.LFE16
 5327 02c8 0100     		.2byte	0x1
 5328 02ca 54       		.byte	0x54
 5329 02cb 00000000 		.4byte	0
 5330 02cf 00000000 		.4byte	0
 5331              	.LLST18:
 5332 02d3 14000000 		.4byte	.LVL48
 5333 02d7 28000000 		.4byte	.LVL49
 5334 02db 0100     		.2byte	0x1
 5335 02dd 53       		.byte	0x53
 5336 02de 00000000 		.4byte	0
 5337 02e2 00000000 		.4byte	0
 5338              	.LLST19:
 5339 02e6 0C000000 		.4byte	.LVL47
ARM GAS  C:\Users\d3bug\AppData\Local\Temp\cc5D6foa.s 			page 120


 5340 02ea 2E000000 		.4byte	.LVL51
 5341 02ee 0100     		.2byte	0x1
 5342 02f0 56       		.byte	0x56
 5343 02f1 30000000 		.4byte	.LVL52
 5344 02f5 36000000 		.4byte	.LFE16
 5345 02f9 0100     		.2byte	0x1
 5346 02fb 56       		.byte	0x56
 5347 02fc 00000000 		.4byte	0
 5348 0300 00000000 		.4byte	0
 5349              	.LLST20:
 5350 0304 00000000 		.4byte	.LVL53
 5351 0308 1F000000 		.4byte	.LVL55-1
 5352 030c 0100     		.2byte	0x1
 5353 030e 50       		.byte	0x50
 5354 030f 1F000000 		.4byte	.LVL55-1
 5355 0313 68000000 		.4byte	.LVL61
 5356 0317 0400     		.2byte	0x4
 5357 0319 F3       		.byte	0xf3
 5358 031a 01       		.uleb128 0x1
 5359 031b 50       		.byte	0x50
 5360 031c 9F       		.byte	0x9f
 5361 031d 68000000 		.4byte	.LVL61
 5362 0321 98000000 		.4byte	.LVL68
 5363 0325 0100     		.2byte	0x1
 5364 0327 54       		.byte	0x54
 5365 0328 00000000 		.4byte	0
 5366 032c 00000000 		.4byte	0
 5367              	.LLST21:
 5368 0330 00000000 		.4byte	.LVL53
 5369 0334 1F000000 		.4byte	.LVL55-1
 5370 0338 0100     		.2byte	0x1
 5371 033a 51       		.byte	0x51
 5372 033b 1F000000 		.4byte	.LVL55-1
 5373 033f 74000000 		.4byte	.LVL62
 5374 0343 0400     		.2byte	0x4
 5375 0345 F3       		.byte	0xf3
 5376 0346 01       		.uleb128 0x1
 5377 0347 51       		.byte	0x51
 5378 0348 9F       		.byte	0x9f
 5379 0349 74000000 		.4byte	.LVL62
 5380 034d B4000000 		.4byte	.LVL75
 5381 0351 0100     		.2byte	0x1
 5382 0353 58       		.byte	0x58
 5383 0354 00000000 		.4byte	0
 5384 0358 00000000 		.4byte	0
 5385              	.LLST22:
 5386 035c 00000000 		.4byte	.LVL53
 5387 0360 1F000000 		.4byte	.LVL55-1
 5388 0364 0100     		.2byte	0x1
 5389 0366 52       		.byte	0x52
 5390 0367 1F000000 		.4byte	.LVL55-1
 5391 036b 68000000 		.4byte	.LVL61
 5392 036f 0100     		.2byte	0x1
 5393 0371 54       		.byte	0x54
 5394 0372 68000000 		.4byte	.LVL61
 5395 0376 C4000000 		.4byte	.LFE12
 5396 037a 0400     		.2byte	0x4
ARM GAS  C:\Users\d3bug\AppData\Local\Temp\cc5D6foa.s 			page 121


 5397 037c F3       		.byte	0xf3
 5398 037d 01       		.uleb128 0x1
 5399 037e 52       		.byte	0x52
 5400 037f 9F       		.byte	0x9f
 5401 0380 00000000 		.4byte	0
 5402 0384 00000000 		.4byte	0
 5403              	.LLST23:
 5404 0388 00000000 		.4byte	.LVL53
 5405 038c 1F000000 		.4byte	.LVL55-1
 5406 0390 0100     		.2byte	0x1
 5407 0392 53       		.byte	0x53
 5408 0393 82000000 		.4byte	.LVL65
 5409 0397 90000000 		.4byte	.LVL67
 5410 039b 0100     		.2byte	0x1
 5411 039d 57       		.byte	0x57
 5412 039e 9C000000 		.4byte	.LVL69
 5413 03a2 A0000000 		.4byte	.LVL70
 5414 03a6 0100     		.2byte	0x1
 5415 03a8 57       		.byte	0x57
 5416 03a9 A8000000 		.4byte	.LVL72
 5417 03ad AC000000 		.4byte	.LVL73
 5418 03b1 0100     		.2byte	0x1
 5419 03b3 57       		.byte	0x57
 5420 03b4 B4000000 		.4byte	.LVL75
 5421 03b8 BA000000 		.4byte	.LVL76
 5422 03bc 0100     		.2byte	0x1
 5423 03be 57       		.byte	0x57
 5424 03bf BA000000 		.4byte	.LVL76
 5425 03c3 C4000000 		.4byte	.LFE12
 5426 03c7 0100     		.2byte	0x1
 5427 03c9 53       		.byte	0x53
 5428 03ca 00000000 		.4byte	0
 5429 03ce 00000000 		.4byte	0
 5430              	.LLST24:
 5431 03d2 00000000 		.4byte	.LVL53
 5432 03d6 1C000000 		.4byte	.LVL54
 5433 03da 0200     		.2byte	0x2
 5434 03dc 91       		.byte	0x91
 5435 03dd 00       		.sleb128 0
 5436 03de 1C000000 		.4byte	.LVL54
 5437 03e2 B4000000 		.4byte	.LVL75
 5438 03e6 0100     		.2byte	0x1
 5439 03e8 56       		.byte	0x56
 5440 03e9 00000000 		.4byte	0
 5441 03ed 00000000 		.4byte	0
 5442              	.LLST25:
 5443 03f1 20000000 		.4byte	.LVL55
 5444 03f5 2C000000 		.4byte	.LVL56
 5445 03f9 0100     		.2byte	0x1
 5446 03fb 50       		.byte	0x50
 5447 03fc 2C000000 		.4byte	.LVL56
 5448 0400 32000000 		.4byte	.LVL58
 5449 0404 0100     		.2byte	0x1
 5450 0406 59       		.byte	0x59
 5451 0407 32000000 		.4byte	.LVL58
 5452 040b 77000000 		.4byte	.LVL63-1
 5453 040f 0100     		.2byte	0x1
ARM GAS  C:\Users\d3bug\AppData\Local\Temp\cc5D6foa.s 			page 122


 5454 0411 50       		.byte	0x50
 5455 0412 77000000 		.4byte	.LVL63-1
 5456 0416 B4000000 		.4byte	.LVL75
 5457 041a 0100     		.2byte	0x1
 5458 041c 59       		.byte	0x59
 5459 041d 00000000 		.4byte	0
 5460 0421 00000000 		.4byte	0
 5461              	.LLST26:
 5462 0425 64000000 		.4byte	.LVL60
 5463 0429 B4000000 		.4byte	.LVL75
 5464 042d 0100     		.2byte	0x1
 5465 042f 5A       		.byte	0x5a
 5466 0430 00000000 		.4byte	0
 5467 0434 00000000 		.4byte	0
 5468              	.LLST27:
 5469 0438 78000000 		.4byte	.LVL63
 5470 043c 80000000 		.4byte	.LVL64
 5471 0440 0100     		.2byte	0x1
 5472 0442 50       		.byte	0x50
 5473 0443 90000000 		.4byte	.LVL67
 5474 0447 B4000000 		.4byte	.LVL75
 5475 044b 0100     		.2byte	0x1
 5476 044d 50       		.byte	0x50
 5477 044e 00000000 		.4byte	0
 5478 0452 00000000 		.4byte	0
 5479              	.LLST28:
 5480 0456 52000000 		.4byte	.LVL59
 5481 045a 64000000 		.4byte	.LVL60
 5482 045e 0100     		.2byte	0x1
 5483 0460 50       		.byte	0x50
 5484 0461 00000000 		.4byte	0
 5485 0465 00000000 		.4byte	0
 5486              	.LLST29:
 5487 0469 98000000 		.4byte	.LVL68
 5488 046d B4000000 		.4byte	.LVL75
 5489 0471 0600     		.2byte	0x6
 5490 0473 72       		.byte	0x72
 5491 0474 00       		.sleb128 0
 5492 0475 74       		.byte	0x74
 5493 0476 00       		.sleb128 0
 5494 0477 22       		.byte	0x22
 5495 0478 9F       		.byte	0x9f
 5496 0479 00000000 		.4byte	0
 5497 047d 00000000 		.4byte	0
 5498              	.LLST30:
 5499 0481 A2000000 		.4byte	.LVL71
 5500 0485 B2000000 		.4byte	.LVL74
 5501 0489 0100     		.2byte	0x1
 5502 048b 56       		.byte	0x56
 5503 048c 00000000 		.4byte	0
 5504 0490 00000000 		.4byte	0
 5505              	.LLST31:
 5506 0494 00000000 		.4byte	.LVL77
 5507 0498 1B000000 		.4byte	.LVL79-1
 5508 049c 0100     		.2byte	0x1
 5509 049e 50       		.byte	0x50
 5510 049f 1B000000 		.4byte	.LVL79-1
ARM GAS  C:\Users\d3bug\AppData\Local\Temp\cc5D6foa.s 			page 123


 5511 04a3 88000000 		.4byte	.LVL89
 5512 04a7 0100     		.2byte	0x1
 5513 04a9 55       		.byte	0x55
 5514 04aa 88000000 		.4byte	.LVL89
 5515 04ae 94000000 		.4byte	.LFE13
 5516 04b2 0100     		.2byte	0x1
 5517 04b4 50       		.byte	0x50
 5518 04b5 00000000 		.4byte	0
 5519 04b9 00000000 		.4byte	0
 5520              	.LLST32:
 5521 04bd 00000000 		.4byte	.LVL77
 5522 04c1 1B000000 		.4byte	.LVL79-1
 5523 04c5 0100     		.2byte	0x1
 5524 04c7 51       		.byte	0x51
 5525 04c8 1B000000 		.4byte	.LVL79-1
 5526 04cc 88000000 		.4byte	.LVL89
 5527 04d0 0100     		.2byte	0x1
 5528 04d2 56       		.byte	0x56
 5529 04d3 88000000 		.4byte	.LVL89
 5530 04d7 94000000 		.4byte	.LFE13
 5531 04db 0100     		.2byte	0x1
 5532 04dd 51       		.byte	0x51
 5533 04de 00000000 		.4byte	0
 5534 04e2 00000000 		.4byte	0
 5535              	.LLST33:
 5536 04e6 00000000 		.4byte	.LVL77
 5537 04ea 1B000000 		.4byte	.LVL79-1
 5538 04ee 0100     		.2byte	0x1
 5539 04f0 52       		.byte	0x52
 5540 04f1 78000000 		.4byte	.LVL86
 5541 04f5 88000000 		.4byte	.LVL89
 5542 04f9 0100     		.2byte	0x1
 5543 04fb 57       		.byte	0x57
 5544 04fc 88000000 		.4byte	.LVL89
 5545 0500 94000000 		.4byte	.LFE13
 5546 0504 0100     		.2byte	0x1
 5547 0506 52       		.byte	0x52
 5548 0507 00000000 		.4byte	0
 5549 050b 00000000 		.4byte	0
 5550              	.LLST34:
 5551 050f 00000000 		.4byte	.LVL77
 5552 0513 18000000 		.4byte	.LVL78
 5553 0517 0100     		.2byte	0x1
 5554 0519 53       		.byte	0x53
 5555 051a 18000000 		.4byte	.LVL78
 5556 051e 88000000 		.4byte	.LVL89
 5557 0522 0100     		.2byte	0x1
 5558 0524 54       		.byte	0x54
 5559 0525 88000000 		.4byte	.LVL89
 5560 0529 94000000 		.4byte	.LFE13
 5561 052d 0100     		.2byte	0x1
 5562 052f 53       		.byte	0x53
 5563 0530 00000000 		.4byte	0
 5564 0534 00000000 		.4byte	0
 5565              	.LLST35:
 5566 0538 38000000 		.4byte	.LVL84
 5567 053c 7E000000 		.4byte	.LVL87
ARM GAS  C:\Users\d3bug\AppData\Local\Temp\cc5D6foa.s 			page 124


 5568 0540 0100     		.2byte	0x1
 5569 0542 50       		.byte	0x50
 5570 0543 00000000 		.4byte	0
 5571 0547 00000000 		.4byte	0
 5572              	.LLST36:
 5573 054b 1C000000 		.4byte	.LVL79
 5574 054f 28000000 		.4byte	.LVL80
 5575 0553 0100     		.2byte	0x1
 5576 0555 50       		.byte	0x50
 5577 0556 28000000 		.4byte	.LVL80
 5578 055a 2E000000 		.4byte	.LVL82
 5579 055e 0100     		.2byte	0x1
 5580 0560 58       		.byte	0x58
 5581 0561 2E000000 		.4byte	.LVL82
 5582 0565 34000000 		.4byte	.LVL83
 5583 0569 0100     		.2byte	0x1
 5584 056b 50       		.byte	0x50
 5585 056c 34000000 		.4byte	.LVL83
 5586 0570 88000000 		.4byte	.LVL89
 5587 0574 0100     		.2byte	0x1
 5588 0576 58       		.byte	0x58
 5589 0577 00000000 		.4byte	0
 5590 057b 00000000 		.4byte	0
 5591              	.LLST37:
 5592 057f 76000000 		.4byte	.LVL85
 5593 0583 78000000 		.4byte	.LVL86
 5594 0587 1000     		.2byte	0x10
 5595 0589 78       		.byte	0x78
 5596 058a 04       		.sleb128 4
 5597 058b 94       		.byte	0x94
 5598 058c 02       		.byte	0x2
 5599 058d 78       		.byte	0x78
 5600 058e 00       		.sleb128 0
 5601 058f 94       		.byte	0x94
 5602 0590 02       		.byte	0x2
 5603 0591 1C       		.byte	0x1c
 5604 0592 23       		.byte	0x23
 5605 0593 01       		.uleb128 0x1
 5606 0594 40       		.byte	0x40
 5607 0595 24       		.byte	0x24
 5608 0596 40       		.byte	0x40
 5609 0597 26       		.byte	0x26
 5610 0598 9F       		.byte	0x9f
 5611 0599 00000000 		.4byte	0
 5612 059d 00000000 		.4byte	0
 5613              	.LLST38:
 5614 05a1 00000000 		.4byte	.LVL90
 5615 05a5 2A000000 		.4byte	.LVL92
 5616 05a9 0100     		.2byte	0x1
 5617 05ab 50       		.byte	0x50
 5618 05ac 2A000000 		.4byte	.LVL92
 5619 05b0 59000000 		.4byte	.LVL96-1
 5620 05b4 0100     		.2byte	0x1
 5621 05b6 5E       		.byte	0x5e
 5622 05b7 59000000 		.4byte	.LVL96-1
 5623 05bb 5C000000 		.4byte	.LVL97
 5624 05bf 0400     		.2byte	0x4
ARM GAS  C:\Users\d3bug\AppData\Local\Temp\cc5D6foa.s 			page 125


 5625 05c1 F3       		.byte	0xf3
 5626 05c2 01       		.uleb128 0x1
 5627 05c3 50       		.byte	0x50
 5628 05c4 9F       		.byte	0x9f
 5629 05c5 5C000000 		.4byte	.LVL97
 5630 05c9 6F000000 		.4byte	.LVL100-1
 5631 05cd 0100     		.2byte	0x1
 5632 05cf 5E       		.byte	0x5e
 5633 05d0 6F000000 		.4byte	.LVL100-1
 5634 05d4 5E030000 		.4byte	.LFE14
 5635 05d8 0400     		.2byte	0x4
 5636 05da F3       		.byte	0xf3
 5637 05db 01       		.uleb128 0x1
 5638 05dc 50       		.byte	0x50
 5639 05dd 9F       		.byte	0x9f
 5640 05de 00000000 		.4byte	0
 5641 05e2 00000000 		.4byte	0
 5642              	.LLST39:
 5643 05e6 00000000 		.4byte	.LVL90
 5644 05ea 34000000 		.4byte	.LVL93
 5645 05ee 0100     		.2byte	0x1
 5646 05f0 51       		.byte	0x51
 5647 05f1 34000000 		.4byte	.LVL93
 5648 05f5 E0010000 		.4byte	.LVL132
 5649 05f9 0100     		.2byte	0x1
 5650 05fb 55       		.byte	0x55
 5651 05fc E0010000 		.4byte	.LVL132
 5652 0600 5E030000 		.4byte	.LFE14
 5653 0604 0400     		.2byte	0x4
 5654 0606 F3       		.byte	0xf3
 5655 0607 01       		.uleb128 0x1
 5656 0608 51       		.byte	0x51
 5657 0609 9F       		.byte	0x9f
 5658 060a 00000000 		.4byte	0
 5659 060e 00000000 		.4byte	0
 5660              	.LLST40:
 5661 0612 00000000 		.4byte	.LVL90
 5662 0616 36000000 		.4byte	.LVL94
 5663 061a 0100     		.2byte	0x1
 5664 061c 52       		.byte	0x52
 5665 061d 36000000 		.4byte	.LVL94
 5666 0621 00010000 		.4byte	.LVL115
 5667 0625 0100     		.2byte	0x1
 5668 0627 54       		.byte	0x54
 5669 0628 00010000 		.4byte	.LVL115
 5670 062c 5E030000 		.4byte	.LFE14
 5671 0630 0400     		.2byte	0x4
 5672 0632 F3       		.byte	0xf3
 5673 0633 01       		.uleb128 0x1
 5674 0634 52       		.byte	0x52
 5675 0635 9F       		.byte	0x9f
 5676 0636 00000000 		.4byte	0
 5677 063a 00000000 		.4byte	0
 5678              	.LLST41:
 5679 063e 00000000 		.4byte	.LVL90
 5680 0642 12000000 		.4byte	.LVL91
 5681 0646 0100     		.2byte	0x1
ARM GAS  C:\Users\d3bug\AppData\Local\Temp\cc5D6foa.s 			page 126


 5682 0648 53       		.byte	0x53
 5683 0649 12000000 		.4byte	.LVL91
 5684 064d FC000000 		.4byte	.LVL114
 5685 0651 0100     		.2byte	0x1
 5686 0653 57       		.byte	0x57
 5687 0654 FC000000 		.4byte	.LVL114
 5688 0658 5E030000 		.4byte	.LFE14
 5689 065c 0400     		.2byte	0x4
 5690 065e F3       		.byte	0xf3
 5691 065f 01       		.uleb128 0x1
 5692 0660 53       		.byte	0x53
 5693 0661 9F       		.byte	0x9f
 5694 0662 00000000 		.4byte	0
 5695 0666 00000000 		.4byte	0
 5696              	.LLST42:
 5697 066a 00000000 		.4byte	.LVL90
 5698 066e BE020000 		.4byte	.LVL150
 5699 0672 0200     		.2byte	0x2
 5700 0674 91       		.byte	0x91
 5701 0675 00       		.sleb128 0
 5702 0676 BE020000 		.4byte	.LVL150
 5703 067a C8020000 		.4byte	.LVL151
 5704 067e 0100     		.2byte	0x1
 5705 0680 51       		.byte	0x51
 5706 0681 C8020000 		.4byte	.LVL151
 5707 0685 5E030000 		.4byte	.LFE14
 5708 0689 0200     		.2byte	0x2
 5709 068b 91       		.byte	0x91
 5710 068c 00       		.sleb128 0
 5711 068d 00000000 		.4byte	0
 5712 0691 00000000 		.4byte	0
 5713              	.LLST43:
 5714 0695 00000000 		.4byte	.LVL90
 5715 0699 4C000000 		.4byte	.LVL95
 5716 069d 0200     		.2byte	0x2
 5717 069f 91       		.byte	0x91
 5718 06a0 04       		.sleb128 4
 5719 06a1 4C000000 		.4byte	.LVL95
 5720 06a5 1A020000 		.4byte	.LVL140
 5721 06a9 0100     		.2byte	0x1
 5722 06ab 5B       		.byte	0x5b
 5723 06ac 00000000 		.4byte	0
 5724 06b0 00000000 		.4byte	0
 5725              	.LLST44:
 5726 06b4 62000000 		.4byte	.LVL98
 5727 06b8 58030000 		.4byte	.LVL173
 5728 06bc 0300     		.2byte	0x3
 5729 06be 91       		.byte	0x91
 5730 06bf F87E     		.sleb128 -136
 5731 06c1 00000000 		.4byte	0
 5732 06c5 00000000 		.4byte	0
 5733              	.LLST45:
 5734 06c9 68000000 		.4byte	.LVL99
 5735 06cd 58030000 		.4byte	.LVL173
 5736 06d1 0300     		.2byte	0x3
 5737 06d3 91       		.byte	0x91
 5738 06d4 847F     		.sleb128 -124
ARM GAS  C:\Users\d3bug\AppData\Local\Temp\cc5D6foa.s 			page 127


 5739 06d6 00000000 		.4byte	0
 5740 06da 00000000 		.4byte	0
 5741              	.LLST46:
 5742 06de 72000000 		.4byte	.LVL101
 5743 06e2 96010000 		.4byte	.LVL127
 5744 06e6 0100     		.2byte	0x1
 5745 06e8 58       		.byte	0x58
 5746 06e9 98010000 		.4byte	.LVL128
 5747 06ed A2010000 		.4byte	.LVL129
 5748 06f1 0100     		.2byte	0x1
 5749 06f3 58       		.byte	0x58
 5750 06f4 00000000 		.4byte	0
 5751 06f8 00000000 		.4byte	0
 5752              	.LLST47:
 5753 06fc 80000000 		.4byte	.LVL104
 5754 0700 58030000 		.4byte	.LVL173
 5755 0704 0300     		.2byte	0x3
 5756 0706 91       		.byte	0x91
 5757 0707 EC7E     		.sleb128 -148
 5758 0709 00000000 		.4byte	0
 5759 070d 00000000 		.4byte	0
 5760              	.LLST48:
 5761 0711 CC000000 		.4byte	.LVL108
 5762 0715 D2000000 		.4byte	.LVL109
 5763 0719 0300     		.2byte	0x3
 5764 071b 91       		.byte	0x91
 5765 071c 40       		.sleb128 -64
 5766 071d 9F       		.byte	0x9f
 5767 071e D2000000 		.4byte	.LVL109
 5768 0722 D6000000 		.4byte	.LVL110
 5769 0726 0100     		.2byte	0x1
 5770 0728 53       		.byte	0x53
 5771 0729 D6000000 		.4byte	.LVL110
 5772 072d E0000000 		.4byte	.LVL111
 5773 0731 0200     		.2byte	0x2
 5774 0733 30       		.byte	0x30
 5775 0734 9F       		.byte	0x9f
 5776 0735 E8000000 		.4byte	.LVL112
 5777 0739 58030000 		.4byte	.LVL173
 5778 073d 0300     		.2byte	0x3
 5779 073f 91       		.byte	0x91
 5780 0740 8C7F     		.sleb128 -116
 5781 0742 00000000 		.4byte	0
 5782 0746 00000000 		.4byte	0
 5783              	.LLST49:
 5784 074a CC000000 		.4byte	.LVL108
 5785 074e D6000000 		.4byte	.LVL110
 5786 0752 0300     		.2byte	0x3
 5787 0754 09       		.byte	0x9
 5788 0755 F0       		.byte	0xf0
 5789 0756 9F       		.byte	0x9f
 5790 0757 D6000000 		.4byte	.LVL110
 5791 075b E0000000 		.4byte	.LVL111
 5792 075f 0300     		.2byte	0x3
 5793 0761 09       		.byte	0x9
 5794 0762 FF       		.byte	0xff
 5795 0763 9F       		.byte	0x9f
ARM GAS  C:\Users\d3bug\AppData\Local\Temp\cc5D6foa.s 			page 128


 5796 0764 E8000000 		.4byte	.LVL112
 5797 0768 58030000 		.4byte	.LVL173
 5798 076c 0300     		.2byte	0x3
 5799 076e 91       		.byte	0x91
 5800 076f 807F     		.sleb128 -128
 5801 0771 00000000 		.4byte	0
 5802 0775 00000000 		.4byte	0
 5803              	.LLST50:
 5804 0779 34020000 		.4byte	.LVL142
 5805 077d 16030000 		.4byte	.LVL162
 5806 0781 0100     		.2byte	0x1
 5807 0783 56       		.byte	0x56
 5808 0784 18030000 		.4byte	.LVL163
 5809 0788 22030000 		.4byte	.LVL165
 5810 078c 0100     		.2byte	0x1
 5811 078e 56       		.byte	0x56
 5812 078f 22030000 		.4byte	.LVL165
 5813 0793 2A030000 		.4byte	.LVL167
 5814 0797 0300     		.2byte	0x3
 5815 0799 91       		.byte	0x91
 5816 079a 807F     		.sleb128 -128
 5817 079c 2A030000 		.4byte	.LVL167
 5818 07a0 4E030000 		.4byte	.LVL172
 5819 07a4 0100     		.2byte	0x1
 5820 07a6 56       		.byte	0x56
 5821 07a7 00000000 		.4byte	0
 5822 07ab 00000000 		.4byte	0
 5823              	.LLST51:
 5824 07af F0000000 		.4byte	.LVL113
 5825 07b3 31010000 		.4byte	.LVL116-1
 5826 07b7 0100     		.2byte	0x1
 5827 07b9 50       		.byte	0x50
 5828 07ba 31010000 		.4byte	.LVL116-1
 5829 07be 0E020000 		.4byte	.LVL137
 5830 07c2 0300     		.2byte	0x3
 5831 07c4 91       		.byte	0x91
 5832 07c5 E87E     		.sleb128 -152
 5833 07c7 0E020000 		.4byte	.LVL137
 5834 07cb 11020000 		.4byte	.LVL138-1
 5835 07cf 0100     		.2byte	0x1
 5836 07d1 53       		.byte	0x53
 5837 07d2 11020000 		.4byte	.LVL138-1
 5838 07d6 58030000 		.4byte	.LVL173
 5839 07da 0100     		.2byte	0x1
 5840 07dc 59       		.byte	0x59
 5841 07dd 00000000 		.4byte	0
 5842 07e1 00000000 		.4byte	0
 5843              	.LLST52:
 5844 07e5 32010000 		.4byte	.LVL116
 5845 07e9 40010000 		.4byte	.LVL117
 5846 07ed 0100     		.2byte	0x1
 5847 07ef 50       		.byte	0x50
 5848 07f0 40010000 		.4byte	.LVL117
 5849 07f4 46010000 		.4byte	.LVL119
 5850 07f8 0300     		.2byte	0x3
 5851 07fa 91       		.byte	0x91
 5852 07fb 987F     		.sleb128 -104
ARM GAS  C:\Users\d3bug\AppData\Local\Temp\cc5D6foa.s 			page 129


 5853 07fd 46010000 		.4byte	.LVL119
 5854 0801 50010000 		.4byte	.LVL120
 5855 0805 0100     		.2byte	0x1
 5856 0807 50       		.byte	0x50
 5857 0808 50010000 		.4byte	.LVL120
 5858 080c 58030000 		.4byte	.LVL173
 5859 0810 0300     		.2byte	0x3
 5860 0812 91       		.byte	0x91
 5861 0813 987F     		.sleb128 -104
 5862 0815 00000000 		.4byte	0
 5863 0819 00000000 		.4byte	0
 5864              	.LLST53:
 5865 081d 5C010000 		.4byte	.LVL122
 5866 0821 E6010000 		.4byte	.LVL133
 5867 0825 0100     		.2byte	0x1
 5868 0827 5E       		.byte	0x5e
 5869 0828 E6010000 		.4byte	.LVL133
 5870 082c F2010000 		.4byte	.LVL134
 5871 0830 0600     		.2byte	0x6
 5872 0832 7E       		.byte	0x7e
 5873 0833 00       		.sleb128 0
 5874 0834 73       		.byte	0x73
 5875 0835 00       		.sleb128 0
 5876 0836 22       		.byte	0x22
 5877 0837 9F       		.byte	0x9f
 5878 0838 F2010000 		.4byte	.LVL134
 5879 083c F6010000 		.4byte	.LVL135
 5880 0840 2600     		.2byte	0x26
 5881 0842 71       		.byte	0x71
 5882 0843 00       		.sleb128 0
 5883 0844 91       		.byte	0x91
 5884 0845 987F     		.sleb128 -104
 5885 0847 06       		.byte	0x6
 5886 0848 23       		.byte	0x23
 5887 0849 02       		.uleb128 0x2
 5888 084a 94       		.byte	0x94
 5889 084b 02       		.byte	0x2
 5890 084c 40       		.byte	0x40
 5891 084d 24       		.byte	0x24
 5892 084e 40       		.byte	0x40
 5893 084f 26       		.byte	0x26
 5894 0850 1C       		.byte	0x1c
 5895 0851 75       		.byte	0x75
 5896 0852 00       		.sleb128 0
 5897 0853 1E       		.byte	0x1e
 5898 0854 91       		.byte	0x91
 5899 0855 987F     		.sleb128 -104
 5900 0857 06       		.byte	0x6
 5901 0858 94       		.byte	0x94
 5902 0859 02       		.byte	0x2
 5903 085a 40       		.byte	0x40
 5904 085b 24       		.byte	0x24
 5905 085c 40       		.byte	0x40
 5906 085d 26       		.byte	0x26
 5907 085e 1C       		.byte	0x1c
 5908 085f 7E       		.byte	0x7e
 5909 0860 00       		.sleb128 0
ARM GAS  C:\Users\d3bug\AppData\Local\Temp\cc5D6foa.s 			page 130


 5910 0861 22       		.byte	0x22
 5911 0862 91       		.byte	0x91
 5912 0863 F87E     		.sleb128 -136
 5913 0865 06       		.byte	0x6
 5914 0866 22       		.byte	0x22
 5915 0867 9F       		.byte	0x9f
 5916 0868 F6010000 		.4byte	.LVL135
 5917 086c 58030000 		.4byte	.LVL173
 5918 0870 0100     		.2byte	0x1
 5919 0872 57       		.byte	0x57
 5920 0873 00000000 		.4byte	0
 5921 0877 00000000 		.4byte	0
 5922              	.LLST54:
 5923 087b 34020000 		.4byte	.LVL142
 5924 087f 3C020000 		.4byte	.LVL143
 5925 0883 0300     		.2byte	0x3
 5926 0885 91       		.byte	0x91
 5927 0886 A87F     		.sleb128 -88
 5928 0888 3C020000 		.4byte	.LVL143
 5929 088c 2C030000 		.4byte	.LVL168
 5930 0890 0100     		.2byte	0x1
 5931 0892 54       		.byte	0x54
 5932 0893 2E030000 		.4byte	.LVL169
 5933 0897 4E030000 		.4byte	.LVL172
 5934 089b 0100     		.2byte	0x1
 5935 089d 54       		.byte	0x54
 5936 089e 00000000 		.4byte	0
 5937 08a2 00000000 		.4byte	0
 5938              	.LLST55:
 5939 08a6 14020000 		.4byte	.LVL139
 5940 08aa 58030000 		.4byte	.LVL173
 5941 08ae 0300     		.2byte	0x3
 5942 08b0 91       		.byte	0x91
 5943 08b1 907F     		.sleb128 -112
 5944 08b3 00000000 		.4byte	0
 5945 08b7 00000000 		.4byte	0
 5946              	.LLST56:
 5947 08bb 2C020000 		.4byte	.LVL141
 5948 08bf 10030000 		.4byte	.LVL160
 5949 08c3 0100     		.2byte	0x1
 5950 08c5 55       		.byte	0x55
 5951 08c6 12030000 		.4byte	.LVL161
 5952 08ca 1A030000 		.4byte	.LVL164
 5953 08ce 0100     		.2byte	0x1
 5954 08d0 55       		.byte	0x55
 5955 08d1 1A030000 		.4byte	.LVL164
 5956 08d5 2A030000 		.4byte	.LVL167
 5957 08d9 0200     		.2byte	0x2
 5958 08db 30       		.byte	0x30
 5959 08dc 9F       		.byte	0x9f
 5960 08dd 2A030000 		.4byte	.LVL167
 5961 08e1 4E030000 		.4byte	.LVL172
 5962 08e5 0100     		.2byte	0x1
 5963 08e7 55       		.byte	0x55
 5964 08e8 00000000 		.4byte	0
 5965 08ec 00000000 		.4byte	0
 5966              	.LLST57:
ARM GAS  C:\Users\d3bug\AppData\Local\Temp\cc5D6foa.s 			page 131


 5967 08f0 1A020000 		.4byte	.LVL140
 5968 08f4 3C020000 		.4byte	.LVL143
 5969 08f8 0200     		.2byte	0x2
 5970 08fa 30       		.byte	0x30
 5971 08fb 9F       		.byte	0x9f
 5972 08fc 3C020000 		.4byte	.LVL143
 5973 0900 4E030000 		.4byte	.LVL172
 5974 0904 0300     		.2byte	0x3
 5975 0906 91       		.byte	0x91
 5976 0907 FC7E     		.sleb128 -132
 5977 0909 00000000 		.4byte	0
 5978 090d 00000000 		.4byte	0
 5979              	.LLST58:
 5980 0911 5C010000 		.4byte	.LVL122
 5981 0915 96010000 		.4byte	.LVL127
 5982 0919 0500     		.2byte	0x5
 5983 091b 78       		.byte	0x78
 5984 091c 00       		.sleb128 0
 5985 091d 33       		.byte	0x33
 5986 091e 25       		.byte	0x25
 5987 091f 9F       		.byte	0x9f
 5988 0920 98010000 		.4byte	.LVL128
 5989 0924 A2010000 		.4byte	.LVL129
 5990 0928 0500     		.2byte	0x5
 5991 092a 78       		.byte	0x78
 5992 092b 00       		.sleb128 0
 5993 092c 33       		.byte	0x33
 5994 092d 25       		.byte	0x25
 5995 092e 9F       		.byte	0x9f
 5996 092f 00000000 		.4byte	0
 5997 0933 00000000 		.4byte	0
 5998              	.LLST59:
 5999 0937 68010000 		.4byte	.LVL123
 6000 093b 70010000 		.4byte	.LVL124
 6001 093f 0100     		.2byte	0x1
 6002 0941 52       		.byte	0x52
 6003 0942 70010000 		.4byte	.LVL124
 6004 0946 72010000 		.4byte	.LVL125
 6005 094a 0300     		.2byte	0x3
 6006 094c 72       		.byte	0x72
 6007 094d 7F       		.sleb128 -1
 6008 094e 9F       		.byte	0x9f
 6009 094f 72010000 		.4byte	.LVL125
 6010 0953 08020000 		.4byte	.LVL136
 6011 0957 0100     		.2byte	0x1
 6012 0959 52       		.byte	0x52
 6013 095a 00000000 		.4byte	0
 6014 095e 00000000 		.4byte	0
 6015              	.LLST60:
 6016 0962 88010000 		.4byte	.LVL126
 6017 0966 58030000 		.4byte	.LVL173
 6018 096a 0300     		.2byte	0x3
 6019 096c 91       		.byte	0x91
 6020 096d A87F     		.sleb128 -88
 6021 096f 00000000 		.4byte	0
 6022 0973 00000000 		.4byte	0
 6023              	.LLST61:
ARM GAS  C:\Users\d3bug\AppData\Local\Temp\cc5D6foa.s 			page 132


 6024 0977 A2010000 		.4byte	.LVL129
 6025 097b 58030000 		.4byte	.LVL173
 6026 097f 0100     		.2byte	0x1
 6027 0981 58       		.byte	0x58
 6028 0982 00000000 		.4byte	0
 6029 0986 00000000 		.4byte	0
 6030              	.LLST62:
 6031 098a B8010000 		.4byte	.LVL130
 6032 098e 1A020000 		.4byte	.LVL140
 6033 0992 0300     		.2byte	0x3
 6034 0994 91       		.byte	0x91
 6035 0995 907F     		.sleb128 -112
 6036 0997 00000000 		.4byte	0
 6037 099b 00000000 		.4byte	0
 6038              	.LLST63:
 6039 099f D0010000 		.4byte	.LVL131
 6040 09a3 58030000 		.4byte	.LVL173
 6041 09a7 0300     		.2byte	0x3
 6042 09a9 91       		.byte	0x91
 6043 09aa AC7F     		.sleb128 -84
 6044 09ac 00000000 		.4byte	0
 6045 09b0 00000000 		.4byte	0
 6046              	.LLST64:
 6047 09b4 14020000 		.4byte	.LVL139
 6048 09b8 1A020000 		.4byte	.LVL140
 6049 09bc 0100     		.2byte	0x1
 6050 09be 50       		.byte	0x50
 6051 09bf 1A020000 		.4byte	.LVL140
 6052 09c3 58030000 		.4byte	.LVL173
 6053 09c7 0300     		.2byte	0x3
 6054 09c9 91       		.byte	0x91
 6055 09ca 947F     		.sleb128 -108
 6056 09cc 00000000 		.4byte	0
 6057 09d0 00000000 		.4byte	0
 6058              	.LLST65:
 6059 09d4 52020000 		.4byte	.LVL144
 6060 09d8 74020000 		.4byte	.LVL145
 6061 09dc 0100     		.2byte	0x1
 6062 09de 53       		.byte	0x53
 6063 09df 74020000 		.4byte	.LVL145
 6064 09e3 7E020000 		.4byte	.LVL146
 6065 09e7 1300     		.2byte	0x13
 6066 09e9 79       		.byte	0x79
 6067 09ea 00       		.sleb128 0
 6068 09eb 94       		.byte	0x94
 6069 09ec 01       		.byte	0x1
 6070 09ed 08       		.byte	0x8
 6071 09ee FF       		.byte	0xff
 6072 09ef 1A       		.byte	0x1a
 6073 09f0 76       		.byte	0x76
 6074 09f1 00       		.sleb128 0
 6075 09f2 1A       		.byte	0x1a
 6076 09f3 38       		.byte	0x38
 6077 09f4 7A       		.byte	0x7a
 6078 09f5 00       		.sleb128 0
 6079 09f6 1C       		.byte	0x1c
 6080 09f7 75       		.byte	0x75
ARM GAS  C:\Users\d3bug\AppData\Local\Temp\cc5D6foa.s 			page 133


 6081 09f8 00       		.sleb128 0
 6082 09f9 1C       		.byte	0x1c
 6083 09fa 26       		.byte	0x26
 6084 09fb 9F       		.byte	0x9f
 6085 09fc 7E020000 		.4byte	.LVL146
 6086 0a00 86020000 		.4byte	.LVL147
 6087 0a04 0100     		.2byte	0x1
 6088 0a06 53       		.byte	0x53
 6089 0a07 86020000 		.4byte	.LVL147
 6090 0a0b BA020000 		.4byte	.LVL149
 6091 0a0f 1300     		.2byte	0x13
 6092 0a11 79       		.byte	0x79
 6093 0a12 00       		.sleb128 0
 6094 0a13 94       		.byte	0x94
 6095 0a14 01       		.byte	0x1
 6096 0a15 08       		.byte	0x8
 6097 0a16 FF       		.byte	0xff
 6098 0a17 1A       		.byte	0x1a
 6099 0a18 76       		.byte	0x76
 6100 0a19 00       		.sleb128 0
 6101 0a1a 1A       		.byte	0x1a
 6102 0a1b 38       		.byte	0x38
 6103 0a1c 7A       		.byte	0x7a
 6104 0a1d 00       		.sleb128 0
 6105 0a1e 1C       		.byte	0x1c
 6106 0a1f 75       		.byte	0x75
 6107 0a20 00       		.sleb128 0
 6108 0a21 1C       		.byte	0x1c
 6109 0a22 26       		.byte	0x26
 6110 0a23 9F       		.byte	0x9f
 6111 0a24 CC020000 		.4byte	.LVL153
 6112 0a28 00030000 		.4byte	.LVL157
 6113 0a2c 1300     		.2byte	0x13
 6114 0a2e 79       		.byte	0x79
 6115 0a2f 00       		.sleb128 0
 6116 0a30 94       		.byte	0x94
 6117 0a31 01       		.byte	0x1
 6118 0a32 08       		.byte	0x8
 6119 0a33 FF       		.byte	0xff
 6120 0a34 1A       		.byte	0x1a
 6121 0a35 76       		.byte	0x76
 6122 0a36 00       		.sleb128 0
 6123 0a37 1A       		.byte	0x1a
 6124 0a38 38       		.byte	0x38
 6125 0a39 7A       		.byte	0x7a
 6126 0a3a 00       		.sleb128 0
 6127 0a3b 1C       		.byte	0x1c
 6128 0a3c 75       		.byte	0x75
 6129 0a3d 00       		.sleb128 0
 6130 0a3e 1C       		.byte	0x1c
 6131 0a3f 26       		.byte	0x26
 6132 0a40 9F       		.byte	0x9f
 6133 0a41 00000000 		.4byte	0
 6134 0a45 00000000 		.4byte	0
 6135              	.LLST66:
 6136 0a49 8E020000 		.4byte	.LVL148
 6137 0a4d BE020000 		.4byte	.LVL150
ARM GAS  C:\Users\d3bug\AppData\Local\Temp\cc5D6foa.s 			page 134


 6138 0a51 0100     		.2byte	0x1
 6139 0a53 51       		.byte	0x51
 6140 0a54 CC020000 		.4byte	.LVL153
 6141 0a58 00030000 		.4byte	.LVL157
 6142 0a5c 0100     		.2byte	0x1
 6143 0a5e 51       		.byte	0x51
 6144 0a5f 00000000 		.4byte	0
 6145 0a63 00000000 		.4byte	0
 6146              	.LLST67:
 6147 0a67 72000000 		.4byte	.LVL101
 6148 0a6b 76000000 		.4byte	.LVL102
 6149 0a6f 0100     		.2byte	0x1
 6150 0a71 54       		.byte	0x54
 6151 0a72 00000000 		.4byte	0
 6152 0a76 00000000 		.4byte	0
 6153              	.LLST68:
 6154 0a7a 46010000 		.4byte	.LVL119
 6155 0a7e 58010000 		.4byte	.LVL121
 6156 0a82 0300     		.2byte	0x3
 6157 0a84 91       		.byte	0x91
 6158 0a85 987F     		.sleb128 -104
 6159 0a87 00000000 		.4byte	0
 6160 0a8b 00000000 		.4byte	0
 6161              	.LLST69:
 6162 0a8f CE020000 		.4byte	.LVL154
 6163 0a93 FE020000 		.4byte	.LVL156
 6164 0a97 0100     		.2byte	0x1
 6165 0a99 51       		.byte	0x51
 6166 0a9a 00000000 		.4byte	0
 6167 0a9e 00000000 		.4byte	0
 6168              	.LLST70:
 6169 0aa2 FA020000 		.4byte	.LVL155
 6170 0aa6 08030000 		.4byte	.LVL159
 6171 0aaa 0100     		.2byte	0x1
 6172 0aac 52       		.byte	0x52
 6173 0aad 00000000 		.4byte	0
 6174 0ab1 00000000 		.4byte	0
 6175              	.LLST71:
 6176 0ab5 00000000 		.4byte	.LVL174
 6177 0ab9 35000000 		.4byte	.LVL178-1
 6178 0abd 0100     		.2byte	0x1
 6179 0abf 50       		.byte	0x50
 6180 0ac0 35000000 		.4byte	.LVL178-1
 6181 0ac4 A2000000 		.4byte	.LVL189
 6182 0ac8 0100     		.2byte	0x1
 6183 0aca 54       		.byte	0x54
 6184 0acb A2000000 		.4byte	.LVL189
 6185 0acf 42030000 		.4byte	.LFE15
 6186 0ad3 0400     		.2byte	0x4
 6187 0ad5 F3       		.byte	0xf3
 6188 0ad6 01       		.uleb128 0x1
 6189 0ad7 50       		.byte	0x50
 6190 0ad8 9F       		.byte	0x9f
 6191 0ad9 00000000 		.4byte	0
 6192 0add 00000000 		.4byte	0
 6193              	.LLST72:
 6194 0ae1 00000000 		.4byte	.LVL174
ARM GAS  C:\Users\d3bug\AppData\Local\Temp\cc5D6foa.s 			page 135


 6195 0ae5 35000000 		.4byte	.LVL178-1
 6196 0ae9 0100     		.2byte	0x1
 6197 0aeb 51       		.byte	0x51
 6198 0aec 35000000 		.4byte	.LVL178-1
 6199 0af0 A6000000 		.4byte	.LVL190
 6200 0af4 0100     		.2byte	0x1
 6201 0af6 57       		.byte	0x57
 6202 0af7 A6000000 		.4byte	.LVL190
 6203 0afb 42030000 		.4byte	.LFE15
 6204 0aff 0400     		.2byte	0x4
 6205 0b01 F3       		.byte	0xf3
 6206 0b02 01       		.uleb128 0x1
 6207 0b03 51       		.byte	0x51
 6208 0b04 9F       		.byte	0x9f
 6209 0b05 00000000 		.4byte	0
 6210 0b09 00000000 		.4byte	0
 6211              	.LLST73:
 6212 0b0d 00000000 		.4byte	.LVL174
 6213 0b11 16000000 		.4byte	.LVL175
 6214 0b15 0100     		.2byte	0x1
 6215 0b17 52       		.byte	0x52
 6216 0b18 16000000 		.4byte	.LVL175
 6217 0b1c 42030000 		.4byte	.LFE15
 6218 0b20 0100     		.2byte	0x1
 6219 0b22 55       		.byte	0x55
 6220 0b23 00000000 		.4byte	0
 6221 0b27 00000000 		.4byte	0
 6222              	.LLST74:
 6223 0b2b 00000000 		.4byte	.LVL174
 6224 0b2f 30000000 		.4byte	.LVL176
 6225 0b33 0100     		.2byte	0x1
 6226 0b35 53       		.byte	0x53
 6227 0b36 30000000 		.4byte	.LVL176
 6228 0b3a 32000000 		.4byte	.LVL177
 6229 0b3e 0400     		.2byte	0x4
 6230 0b40 F3       		.byte	0xf3
 6231 0b41 01       		.uleb128 0x1
 6232 0b42 53       		.byte	0x53
 6233 0b43 9F       		.byte	0x9f
 6234 0b44 32000000 		.4byte	.LVL177
 6235 0b48 3C030000 		.4byte	.LVL274
 6236 0b4c 0300     		.2byte	0x3
 6237 0b4e 91       		.byte	0x91
 6238 0b4f F87E     		.sleb128 -136
 6239 0b51 00000000 		.4byte	0
 6240 0b55 00000000 		.4byte	0
 6241              	.LLST75:
 6242 0b59 54000000 		.4byte	.LVL183
 6243 0b5d 7A000000 		.4byte	.LVL185
 6244 0b61 0100     		.2byte	0x1
 6245 0b63 50       		.byte	0x50
 6246 0b64 00000000 		.4byte	0
 6247 0b68 00000000 		.4byte	0
 6248              	.LLST76:
 6249 0b6c 36000000 		.4byte	.LVL178
 6250 0b70 44000000 		.4byte	.LVL179
 6251 0b74 0100     		.2byte	0x1
ARM GAS  C:\Users\d3bug\AppData\Local\Temp\cc5D6foa.s 			page 136


 6252 0b76 50       		.byte	0x50
 6253 0b77 44000000 		.4byte	.LVL179
 6254 0b7b 4A000000 		.4byte	.LVL181
 6255 0b7f 0300     		.2byte	0x3
 6256 0b81 91       		.byte	0x91
 6257 0b82 887F     		.sleb128 -120
 6258 0b84 4A000000 		.4byte	.LVL181
 6259 0b88 50000000 		.4byte	.LVL182
 6260 0b8c 0100     		.2byte	0x1
 6261 0b8e 50       		.byte	0x50
 6262 0b8f 50000000 		.4byte	.LVL182
 6263 0b93 3C030000 		.4byte	.LVL274
 6264 0b97 0300     		.2byte	0x3
 6265 0b99 91       		.byte	0x91
 6266 0b9a 887F     		.sleb128 -120
 6267 0b9c 00000000 		.4byte	0
 6268 0ba0 00000000 		.4byte	0
 6269              	.LLST77:
 6270 0ba4 6A000000 		.4byte	.LVL184
 6271 0ba8 3C030000 		.4byte	.LVL274
 6272 0bac 0100     		.2byte	0x1
 6273 0bae 58       		.byte	0x58
 6274 0baf 00000000 		.4byte	0
 6275 0bb3 00000000 		.4byte	0
 6276              	.LLST78:
 6277 0bb7 F0000000 		.4byte	.LVL193
 6278 0bbb F4000000 		.4byte	.LVL194
 6279 0bbf 0100     		.2byte	0x1
 6280 0bc1 51       		.byte	0x51
 6281 0bc2 F4000000 		.4byte	.LVL194
 6282 0bc6 F8000000 		.4byte	.LVL195
 6283 0bca 0900     		.2byte	0x9
 6284 0bcc 74       		.byte	0x74
 6285 0bcd 00       		.sleb128 0
 6286 0bce 72       		.byte	0x72
 6287 0bcf 00       		.sleb128 0
 6288 0bd0 1E       		.byte	0x1e
 6289 0bd1 71       		.byte	0x71
 6290 0bd2 00       		.sleb128 0
 6291 0bd3 22       		.byte	0x22
 6292 0bd4 9F       		.byte	0x9f
 6293 0bd5 FC000000 		.4byte	.LVL196
 6294 0bd9 05010000 		.4byte	.LVL198-1
 6295 0bdd 0100     		.2byte	0x1
 6296 0bdf 52       		.byte	0x52
 6297 0be0 05010000 		.4byte	.LVL198-1
 6298 0be4 8C010000 		.4byte	.LVL212
 6299 0be8 0300     		.2byte	0x3
 6300 0bea 91       		.byte	0x91
 6301 0beb A87F     		.sleb128 -88
 6302 0bed 8C010000 		.4byte	.LVL212
 6303 0bf1 B0010000 		.4byte	.LVL218
 6304 0bf5 0100     		.2byte	0x1
 6305 0bf7 56       		.byte	0x56
 6306 0bf8 B0010000 		.4byte	.LVL218
 6307 0bfc 2A030000 		.4byte	.LVL271
 6308 0c00 0300     		.2byte	0x3
ARM GAS  C:\Users\d3bug\AppData\Local\Temp\cc5D6foa.s 			page 137


 6309 0c02 91       		.byte	0x91
 6310 0c03 A87F     		.sleb128 -88
 6311 0c05 2A030000 		.4byte	.LVL271
 6312 0c09 2C030000 		.4byte	.LVL272
 6313 0c0d 0100     		.2byte	0x1
 6314 0c0f 53       		.byte	0x53
 6315 0c10 2C030000 		.4byte	.LVL272
 6316 0c14 3C030000 		.4byte	.LVL274
 6317 0c18 0300     		.2byte	0x3
 6318 0c1a 91       		.byte	0x91
 6319 0c1b A87F     		.sleb128 -88
 6320 0c1d 00000000 		.4byte	0
 6321 0c21 00000000 		.4byte	0
 6322              	.LLST79:
 6323 0c25 28010000 		.4byte	.LVL200
 6324 0c29 30010000 		.4byte	.LVL201
 6325 0c2d 0100     		.2byte	0x1
 6326 0c2f 59       		.byte	0x59
 6327 0c30 30010000 		.4byte	.LVL201
 6328 0c34 84010000 		.4byte	.LVL210
 6329 0c38 0300     		.2byte	0x3
 6330 0c3a 91       		.byte	0x91
 6331 0c3b FC7E     		.sleb128 -132
 6332 0c3d 88010000 		.4byte	.LVL211
 6333 0c41 A4010000 		.4byte	.LVL216
 6334 0c45 0100     		.2byte	0x1
 6335 0c47 54       		.byte	0x54
 6336 0c48 A6010000 		.4byte	.LVL217
 6337 0c4c B0010000 		.4byte	.LVL218
 6338 0c50 0100     		.2byte	0x1
 6339 0c52 54       		.byte	0x54
 6340 0c53 D6010000 		.4byte	.LVL223
 6341 0c57 3C030000 		.4byte	.LVL274
 6342 0c5b 0300     		.2byte	0x3
 6343 0c5d 91       		.byte	0x91
 6344 0c5e FC7E     		.sleb128 -132
 6345 0c60 00000000 		.4byte	0
 6346 0c64 00000000 		.4byte	0
 6347              	.LLST80:
 6348 0c68 08010000 		.4byte	.LVL199
 6349 0c6c 38010000 		.4byte	.LVL202
 6350 0c70 0100     		.2byte	0x1
 6351 0c72 50       		.byte	0x50
 6352 0c73 38010000 		.4byte	.LVL202
 6353 0c77 84010000 		.4byte	.LVL210
 6354 0c7b 0100     		.2byte	0x1
 6355 0c7d 5A       		.byte	0x5a
 6356 0c7e 84010000 		.4byte	.LVL210
 6357 0c82 8C010000 		.4byte	.LVL212
 6358 0c86 0100     		.2byte	0x1
 6359 0c88 50       		.byte	0x50
 6360 0c89 8C010000 		.4byte	.LVL212
 6361 0c8d B0010000 		.4byte	.LVL218
 6362 0c91 0300     		.2byte	0x3
 6363 0c93 91       		.byte	0x91
 6364 0c94 847F     		.sleb128 -124
 6365 0c96 B0010000 		.4byte	.LVL218
ARM GAS  C:\Users\d3bug\AppData\Local\Temp\cc5D6foa.s 			page 138


 6366 0c9a D8010000 		.4byte	.LVL224
 6367 0c9e 0100     		.2byte	0x1
 6368 0ca0 50       		.byte	0x50
 6369 0ca1 D8010000 		.4byte	.LVL224
 6370 0ca5 3C030000 		.4byte	.LVL274
 6371 0ca9 0300     		.2byte	0x3
 6372 0cab 91       		.byte	0x91
 6373 0cac 847F     		.sleb128 -124
 6374 0cae 00000000 		.4byte	0
 6375 0cb2 00000000 		.4byte	0
 6376              	.LLST81:
 6377 0cb6 6A000000 		.4byte	.LVL184
 6378 0cba 7C000000 		.4byte	.LVL186
 6379 0cbe 0100     		.2byte	0x1
 6380 0cc0 54       		.byte	0x54
 6381 0cc1 00000000 		.4byte	0
 6382 0cc5 00000000 		.4byte	0
 6383              	.LLST82:
 6384 0cc9 DA000000 		.4byte	.LVL191
 6385 0ccd EC000000 		.4byte	.LVL192
 6386 0cd1 0300     		.2byte	0x3
 6387 0cd3 91       		.byte	0x91
 6388 0cd4 887F     		.sleb128 -120
 6389 0cd6 00000000 		.4byte	0
 6390 0cda 00000000 		.4byte	0
 6391              	.LLST83:
 6392 0cde FC000000 		.4byte	.LVL196
 6393 0ce2 02010000 		.4byte	.LVL197
 6394 0ce6 0300     		.2byte	0x3
 6395 0ce8 91       		.byte	0x91
 6396 0ce9 50       		.sleb128 -48
 6397 0cea 9F       		.byte	0x9f
 6398 0ceb 00000000 		.4byte	0
 6399 0cef 00000000 		.4byte	0
 6400              	.LLST84:
 6401 0cf3 38010000 		.4byte	.LVL202
 6402 0cf7 60010000 		.4byte	.LVL204
 6403 0cfb 0100     		.2byte	0x1
 6404 0cfd 54       		.byte	0x54
 6405 0cfe 60010000 		.4byte	.LVL204
 6406 0d02 62010000 		.4byte	.LVL205
 6407 0d06 0300     		.2byte	0x3
 6408 0d08 74       		.byte	0x74
 6409 0d09 7F       		.sleb128 -1
 6410 0d0a 9F       		.byte	0x9f
 6411 0d0b 62010000 		.4byte	.LVL205
 6412 0d0f 64010000 		.4byte	.LVL206
 6413 0d13 0100     		.2byte	0x1
 6414 0d15 54       		.byte	0x54
 6415 0d16 66010000 		.4byte	.LVL207
 6416 0d1a 78010000 		.4byte	.LVL209
 6417 0d1e 0100     		.2byte	0x1
 6418 0d20 54       		.byte	0x54
 6419 0d21 00000000 		.4byte	0
 6420 0d25 00000000 		.4byte	0
 6421              	.LLST85:
 6422 0d29 D8010000 		.4byte	.LVL224
ARM GAS  C:\Users\d3bug\AppData\Local\Temp\cc5D6foa.s 			page 139


 6423 0d2d 06030000 		.4byte	.LVL265
 6424 0d31 0100     		.2byte	0x1
 6425 0d33 54       		.byte	0x54
 6426 0d34 08030000 		.4byte	.LVL266
 6427 0d38 14030000 		.4byte	.LVL267
 6428 0d3c 0100     		.2byte	0x1
 6429 0d3e 54       		.byte	0x54
 6430 0d3f 16030000 		.4byte	.LVL268
 6431 0d43 32030000 		.4byte	.LVL273
 6432 0d47 0100     		.2byte	0x1
 6433 0d49 54       		.byte	0x54
 6434 0d4a 00000000 		.4byte	0
 6435 0d4e 00000000 		.4byte	0
 6436              	.LLST86:
 6437 0d52 B4010000 		.4byte	.LVL219
 6438 0d56 BC010000 		.4byte	.LVL221
 6439 0d5a 0100     		.2byte	0x1
 6440 0d5c 53       		.byte	0x53
 6441 0d5d 00000000 		.4byte	0
 6442 0d61 00000000 		.4byte	0
 6443              	.LLST87:
 6444 0d65 6C020000 		.4byte	.LVL238
 6445 0d69 72020000 		.4byte	.LVL239
 6446 0d6d 0100     		.2byte	0x1
 6447 0d6f 53       		.byte	0x53
 6448 0d70 00000000 		.4byte	0
 6449 0d74 00000000 		.4byte	0
 6450              	.LLST88:
 6451 0d78 B8010000 		.4byte	.LVL220
 6452 0d7c D0010000 		.4byte	.LVL222
 6453 0d80 0300     		.2byte	0x3
 6454 0d82 91       		.byte	0x91
 6455 0d83 807F     		.sleb128 -128
 6456 0d85 00000000 		.4byte	0
 6457 0d89 00000000 		.4byte	0
 6458              	.LLST89:
 6459 0d8d D8010000 		.4byte	.LVL224
 6460 0d91 02020000 		.4byte	.LVL229
 6461 0d95 0300     		.2byte	0x3
 6462 0d97 91       		.byte	0x91
 6463 0d98 F87E     		.sleb128 -136
 6464 0d9a 02020000 		.4byte	.LVL229
 6465 0d9e 04020000 		.4byte	.LVL230
 6466 0da2 0100     		.2byte	0x1
 6467 0da4 53       		.byte	0x53
 6468 0da5 04020000 		.4byte	.LVL230
 6469 0da9 0C020000 		.4byte	.LVL233
 6470 0dad 0300     		.2byte	0x3
 6471 0daf 91       		.byte	0x91
 6472 0db0 F87E     		.sleb128 -136
 6473 0db2 0C020000 		.4byte	.LVL233
 6474 0db6 6C020000 		.4byte	.LVL238
 6475 0dba 0100     		.2byte	0x1
 6476 0dbc 53       		.byte	0x53
 6477 0dbd 7A020000 		.4byte	.LVL242
 6478 0dc1 82020000 		.4byte	.LVL243
 6479 0dc5 0100     		.2byte	0x1
ARM GAS  C:\Users\d3bug\AppData\Local\Temp\cc5D6foa.s 			page 140


 6480 0dc7 53       		.byte	0x53
 6481 0dc8 8C020000 		.4byte	.LVL245
 6482 0dcc 9A020000 		.4byte	.LVL248
 6483 0dd0 0100     		.2byte	0x1
 6484 0dd2 53       		.byte	0x53
 6485 0dd3 A0020000 		.4byte	.LVL249
 6486 0dd7 A4020000 		.4byte	.LVL250
 6487 0ddb 0100     		.2byte	0x1
 6488 0ddd 53       		.byte	0x53
 6489 0dde B2020000 		.4byte	.LVL252
 6490 0de2 D0020000 		.4byte	.LVL253
 6491 0de6 0100     		.2byte	0x1
 6492 0de8 53       		.byte	0x53
 6493 0de9 D8020000 		.4byte	.LVL256
 6494 0ded DE020000 		.4byte	.LVL257
 6495 0df1 0100     		.2byte	0x1
 6496 0df3 53       		.byte	0x53
 6497 0df4 E2020000 		.4byte	.LVL258
 6498 0df8 F2020000 		.4byte	.LVL260
 6499 0dfc 0100     		.2byte	0x1
 6500 0dfe 53       		.byte	0x53
 6501 0dff F4020000 		.4byte	.LVL261
 6502 0e03 F8020000 		.4byte	.LVL262
 6503 0e07 0100     		.2byte	0x1
 6504 0e09 53       		.byte	0x53
 6505 0e0a 00000000 		.4byte	0
 6506 0e0e 00000000 		.4byte	0
 6507              	.LLST90:
 6508 0e12 E0010000 		.4byte	.LVL225
 6509 0e16 FA010000 		.4byte	.LVL227
 6510 0e1a 0100     		.2byte	0x1
 6511 0e1c 52       		.byte	0x52
 6512 0e1d FA010000 		.4byte	.LVL227
 6513 0e21 04020000 		.4byte	.LVL230
 6514 0e25 0900     		.2byte	0x9
 6515 0e27 78       		.byte	0x78
 6516 0e28 00       		.sleb128 0
 6517 0e29 71       		.byte	0x71
 6518 0e2a 00       		.sleb128 0
 6519 0e2b 1E       		.byte	0x1e
 6520 0e2c 75       		.byte	0x75
 6521 0e2d 00       		.sleb128 0
 6522 0e2e 22       		.byte	0x22
 6523 0e2f 9F       		.byte	0x9f
 6524 0e30 04020000 		.4byte	.LVL230
 6525 0e34 0C020000 		.4byte	.LVL233
 6526 0e38 0100     		.2byte	0x1
 6527 0e3a 52       		.byte	0x52
 6528 0e3b 0C020000 		.4byte	.LVL233
 6529 0e3f 76020000 		.4byte	.LVL240
 6530 0e43 0900     		.2byte	0x9
 6531 0e45 78       		.byte	0x78
 6532 0e46 00       		.sleb128 0
 6533 0e47 71       		.byte	0x71
 6534 0e48 00       		.sleb128 0
 6535 0e49 1E       		.byte	0x1e
 6536 0e4a 75       		.byte	0x75
ARM GAS  C:\Users\d3bug\AppData\Local\Temp\cc5D6foa.s 			page 141


 6537 0e4b 00       		.sleb128 0
 6538 0e4c 22       		.byte	0x22
 6539 0e4d 9F       		.byte	0x9f
 6540 0e4e 76020000 		.4byte	.LVL240
 6541 0e52 7A020000 		.4byte	.LVL242
 6542 0e56 0900     		.2byte	0x9
 6543 0e58 78       		.byte	0x78
 6544 0e59 00       		.sleb128 0
 6545 0e5a 74       		.byte	0x74
 6546 0e5b 00       		.sleb128 0
 6547 0e5c 1E       		.byte	0x1e
 6548 0e5d 75       		.byte	0x75
 6549 0e5e 00       		.sleb128 0
 6550 0e5f 22       		.byte	0x22
 6551 0e60 9F       		.byte	0x9f
 6552 0e61 7A020000 		.4byte	.LVL242
 6553 0e65 D4020000 		.4byte	.LVL254
 6554 0e69 0900     		.2byte	0x9
 6555 0e6b 78       		.byte	0x78
 6556 0e6c 00       		.sleb128 0
 6557 0e6d 71       		.byte	0x71
 6558 0e6e 00       		.sleb128 0
 6559 0e6f 1E       		.byte	0x1e
 6560 0e70 75       		.byte	0x75
 6561 0e71 00       		.sleb128 0
 6562 0e72 22       		.byte	0x22
 6563 0e73 9F       		.byte	0x9f
 6564 0e74 D4020000 		.4byte	.LVL254
 6565 0e78 D8020000 		.4byte	.LVL256
 6566 0e7c 0900     		.2byte	0x9
 6567 0e7e 78       		.byte	0x78
 6568 0e7f 00       		.sleb128 0
 6569 0e80 74       		.byte	0x74
 6570 0e81 00       		.sleb128 0
 6571 0e82 1E       		.byte	0x1e
 6572 0e83 75       		.byte	0x75
 6573 0e84 00       		.sleb128 0
 6574 0e85 22       		.byte	0x22
 6575 0e86 9F       		.byte	0x9f
 6576 0e87 D8020000 		.4byte	.LVL256
 6577 0e8b 04030000 		.4byte	.LVL264
 6578 0e8f 0900     		.2byte	0x9
 6579 0e91 78       		.byte	0x78
 6580 0e92 00       		.sleb128 0
 6581 0e93 71       		.byte	0x71
 6582 0e94 00       		.sleb128 0
 6583 0e95 1E       		.byte	0x1e
 6584 0e96 75       		.byte	0x75
 6585 0e97 00       		.sleb128 0
 6586 0e98 22       		.byte	0x22
 6587 0e99 9F       		.byte	0x9f
 6588 0e9a 04030000 		.4byte	.LVL264
 6589 0e9e 06030000 		.4byte	.LVL265
 6590 0ea2 0900     		.2byte	0x9
 6591 0ea4 78       		.byte	0x78
 6592 0ea5 00       		.sleb128 0
 6593 0ea6 74       		.byte	0x74
ARM GAS  C:\Users\d3bug\AppData\Local\Temp\cc5D6foa.s 			page 142


 6594 0ea7 00       		.sleb128 0
 6595 0ea8 1E       		.byte	0x1e
 6596 0ea9 75       		.byte	0x75
 6597 0eaa 00       		.sleb128 0
 6598 0eab 22       		.byte	0x22
 6599 0eac 9F       		.byte	0x9f
 6600 0ead 06030000 		.4byte	.LVL265
 6601 0eb1 08030000 		.4byte	.LVL266
 6602 0eb5 0900     		.2byte	0x9
 6603 0eb7 74       		.byte	0x74
 6604 0eb8 7F       		.sleb128 -1
 6605 0eb9 78       		.byte	0x78
 6606 0eba 00       		.sleb128 0
 6607 0ebb 1E       		.byte	0x1e
 6608 0ebc 75       		.byte	0x75
 6609 0ebd 00       		.sleb128 0
 6610 0ebe 22       		.byte	0x22
 6611 0ebf 9F       		.byte	0x9f
 6612 0ec0 00000000 		.4byte	0
 6613 0ec4 00000000 		.4byte	0
 6614              	.LLST91:
 6615 0ec8 D8010000 		.4byte	.LVL224
 6616 0ecc 06020000 		.4byte	.LVL231
 6617 0ed0 0100     		.2byte	0x1
 6618 0ed2 56       		.byte	0x56
 6619 0ed3 0A020000 		.4byte	.LVL232
 6620 0ed7 42030000 		.4byte	.LFE15
 6621 0edb 0100     		.2byte	0x1
 6622 0edd 56       		.byte	0x56
 6623 0ede 00000000 		.4byte	0
 6624 0ee2 00000000 		.4byte	0
 6625              	.LLST92:
 6626 0ee6 EE010000 		.4byte	.LVL226
 6627 0eea FE010000 		.4byte	.LVL228
 6628 0eee 0100     		.2byte	0x1
 6629 0ef0 53       		.byte	0x53
 6630 0ef1 FE010000 		.4byte	.LVL228
 6631 0ef5 04020000 		.4byte	.LVL230
 6632 0ef9 0A00     		.2byte	0xa
 6633 0efb 78       		.byte	0x78
 6634 0efc 00       		.sleb128 0
 6635 0efd 71       		.byte	0x71
 6636 0efe 00       		.sleb128 0
 6637 0eff 1E       		.byte	0x1e
 6638 0f00 75       		.byte	0x75
 6639 0f01 00       		.sleb128 0
 6640 0f02 22       		.byte	0x22
 6641 0f03 23       		.byte	0x23
 6642 0f04 01       		.uleb128 0x1
 6643 0f05 0A020000 		.4byte	.LVL232
 6644 0f09 0C020000 		.4byte	.LVL233
 6645 0f0d 0100     		.2byte	0x1
 6646 0f0f 53       		.byte	0x53
 6647 0f10 00000000 		.4byte	0
 6648 0f14 00000000 		.4byte	0
 6649              	.LLST93:
 6650 0f18 30020000 		.4byte	.LVL234
ARM GAS  C:\Users\d3bug\AppData\Local\Temp\cc5D6foa.s 			page 143


 6651 0f1c 50020000 		.4byte	.LVL236
 6652 0f20 0300     		.2byte	0x3
 6653 0f22 91       		.byte	0x91
 6654 0f23 807F     		.sleb128 -128
 6655 0f25 00000000 		.4byte	0
 6656 0f29 00000000 		.4byte	0
 6657              	.LLST94:
 6658 0f2d 48020000 		.4byte	.LVL235
 6659 0f31 60020000 		.4byte	.LVL237
 6660 0f35 0100     		.2byte	0x1
 6661 0f37 50       		.byte	0x50
 6662 0f38 7A020000 		.4byte	.LVL242
 6663 0f3c 84020000 		.4byte	.LVL244
 6664 0f40 0100     		.2byte	0x1
 6665 0f42 50       		.byte	0x50
 6666 0f43 8C020000 		.4byte	.LVL245
 6667 0f47 90020000 		.4byte	.LVL246
 6668 0f4b 0100     		.2byte	0x1
 6669 0f4d 50       		.byte	0x50
 6670 0f4e 00000000 		.4byte	0
 6671 0f52 00000000 		.4byte	0
 6672              	.LLST95:
 6673 0f56 92020000 		.4byte	.LVL247
 6674 0f5a 9A020000 		.4byte	.LVL248
 6675 0f5e 0100     		.2byte	0x1
 6676 0f60 53       		.byte	0x53
 6677 0f61 A0020000 		.4byte	.LVL249
 6678 0f65 A4020000 		.4byte	.LVL250
 6679 0f69 0100     		.2byte	0x1
 6680 0f6b 53       		.byte	0x53
 6681 0f6c 00000000 		.4byte	0
 6682 0f70 00000000 		.4byte	0
 6683              	.LLST96:
 6684 0f74 D8010000 		.4byte	.LVL224
 6685 0f78 E0010000 		.4byte	.LVL225
 6686 0f7c 0100     		.2byte	0x1
 6687 0f7e 52       		.byte	0x52
 6688 0f7f AA020000 		.4byte	.LVL251
 6689 0f83 B2020000 		.4byte	.LVL252
 6690 0f87 0100     		.2byte	0x1
 6691 0f89 52       		.byte	0x52
 6692 0f8a 04030000 		.4byte	.LVL264
 6693 0f8e 14030000 		.4byte	.LVL267
 6694 0f92 0100     		.2byte	0x1
 6695 0f94 52       		.byte	0x52
 6696 0f95 16030000 		.4byte	.LVL268
 6697 0f99 26030000 		.4byte	.LVL270
 6698 0f9d 0100     		.2byte	0x1
 6699 0f9f 52       		.byte	0x52
 6700 0fa0 00000000 		.4byte	0
 6701 0fa4 00000000 		.4byte	0
 6702              	.LLST97:
 6703 0fa8 E8020000 		.4byte	.LVL259
 6704 0fac F2020000 		.4byte	.LVL260
 6705 0fb0 0100     		.2byte	0x1
 6706 0fb2 53       		.byte	0x53
 6707 0fb3 F4020000 		.4byte	.LVL261
ARM GAS  C:\Users\d3bug\AppData\Local\Temp\cc5D6foa.s 			page 144


 6708 0fb7 F8020000 		.4byte	.LVL262
 6709 0fbb 0100     		.2byte	0x1
 6710 0fbd 53       		.byte	0x53
 6711 0fbe 00000000 		.4byte	0
 6712 0fc2 00000000 		.4byte	0
 6713              	.LLST98:
 6714 0fc6 D8010000 		.4byte	.LVL224
 6715 0fca E0010000 		.4byte	.LVL225
 6716 0fce 0100     		.2byte	0x1
 6717 0fd0 52       		.byte	0x52
 6718 0fd1 FE020000 		.4byte	.LVL263
 6719 0fd5 14030000 		.4byte	.LVL267
 6720 0fd9 0100     		.2byte	0x1
 6721 0fdb 52       		.byte	0x52
 6722 0fdc 16030000 		.4byte	.LVL268
 6723 0fe0 26030000 		.4byte	.LVL270
 6724 0fe4 0100     		.2byte	0x1
 6725 0fe6 52       		.byte	0x52
 6726 0fe7 00000000 		.4byte	0
 6727 0feb 00000000 		.4byte	0
 6728              		.section	.debug_aranges,"",%progbits
 6729 0000 44000000 		.4byte	0x44
 6730 0004 0200     		.2byte	0x2
 6731 0006 00000000 		.4byte	.Ldebug_info0
 6732 000a 04       		.byte	0x4
 6733 000b 00       		.byte	0
 6734 000c 0000     		.2byte	0
 6735 000e 0000     		.2byte	0
 6736 0010 00000000 		.4byte	.LFB17
 6737 0014 36010000 		.4byte	.LFE17-.LFB17
 6738 0018 00000000 		.4byte	.LFB16
 6739 001c 36000000 		.4byte	.LFE16-.LFB16
 6740 0020 00000000 		.4byte	.LFB12
 6741 0024 C4000000 		.4byte	.LFE12-.LFB12
 6742 0028 00000000 		.4byte	.LFB13
 6743 002c 94000000 		.4byte	.LFE13-.LFB13
 6744 0030 00000000 		.4byte	.LFB14
 6745 0034 5E030000 		.4byte	.LFE14-.LFB14
 6746 0038 00000000 		.4byte	.LFB15
 6747 003c 42030000 		.4byte	.LFE15-.LFB15
 6748 0040 00000000 		.4byte	0
 6749 0044 00000000 		.4byte	0
 6750              		.section	.debug_ranges,"",%progbits
 6751              	.Ldebug_ranges0:
 6752 0000 0C000000 		.4byte	.LBB53
 6753 0004 2E000000 		.4byte	.LBE53
 6754 0008 30000000 		.4byte	.LBB56
 6755 000c 36000000 		.4byte	.LBE56
 6756 0010 00000000 		.4byte	0
 6757 0014 00000000 		.4byte	0
 6758 0018 00000000 		.4byte	.LFB17
 6759 001c 36010000 		.4byte	.LFE17
 6760 0020 00000000 		.4byte	.LFB16
 6761 0024 36000000 		.4byte	.LFE16
 6762 0028 00000000 		.4byte	.LFB12
 6763 002c C4000000 		.4byte	.LFE12
 6764 0030 00000000 		.4byte	.LFB13
ARM GAS  C:\Users\d3bug\AppData\Local\Temp\cc5D6foa.s 			page 145


 6765 0034 94000000 		.4byte	.LFE13
 6766 0038 00000000 		.4byte	.LFB14
 6767 003c 5E030000 		.4byte	.LFE14
 6768 0040 00000000 		.4byte	.LFB15
 6769 0044 42030000 		.4byte	.LFE15
 6770 0048 00000000 		.4byte	0
 6771 004c 00000000 		.4byte	0
 6772              		.section	.debug_line,"",%progbits
 6773              	.Ldebug_line0:
 6774 0000 B5050000 		.section	.debug_str,"MS",%progbits,1
 6774      02000502 
 6774      00000201 
 6774      FB0E0D00 
 6774      01010101 
 6775              	.LASF31:
 6776 0000 4C565F4F 		.ascii	"LV_OPA_COVER\000"
 6776      50415F43 
 6776      4F564552 
 6776      00
 6777              	.LASF34:
 6778 000d 66756C6C 		.ascii	"full\000"
 6778      00
 6779              	.LASF29:
 6780 0012 4C565F4F 		.ascii	"LV_OPA_90\000"
 6780      50415F39 
 6780      3000
 6781              	.LASF105:
 6782 001c 62707031 		.ascii	"bpp1_opa_table\000"
 6782      5F6F7061 
 6782      5F746162 
 6782      6C6500
 6783              	.LASF76:
 6784 002b 6C765F66 		.ascii	"lv_font_get_height\000"
 6784      6F6E745F 
 6784      6765745F 
 6784      68656967 
 6784      687400
 6785              	.LASF61:
 6786 003e 5F646973 		.ascii	"_disp_drv_t\000"
 6786      705F6472 
 6786      765F7400 
 6787              	.LASF20:
 6788 004a 4C565F4F 		.ascii	"LV_OPA_0\000"
 6788      50415F30 
 6788      00
 6789              	.LASF127:
 6790 0053 6368726F 		.ascii	"chroma_key\000"
 6790      6D615F6B 
 6790      657900
 6791              	.LASF13:
 6792 005e 756E7369 		.ascii	"unsigned int\000"
 6792      676E6564 
 6792      20696E74 
 6792      00
 6793              	.LASF69:
 6794 006b 6E657874 		.ascii	"next\000"
 6794      00
ARM GAS  C:\Users\d3bug\AppData\Local\Temp\cc5D6foa.s 			page 146


 6795              	.LASF106:
 6796 0070 62707032 		.ascii	"bpp2_opa_table\000"
 6796      5F6F7061 
 6796      5F746162 
 6796      6C6500
 6797              	.LASF140:
 6798 007f 70785F63 		.ascii	"px_color_p\000"
 6798      6F6C6F72 
 6798      5F7000
 6799              	.LASF52:
 6800 008a 6765745F 		.ascii	"get_bitmap\000"
 6800      6269746D 
 6800      617000
 6801              	.LASF42:
 6802 0095 6C765F70 		.ascii	"lv_point_t\000"
 6802      6F696E74 
 6802      5F7400
 6803              	.LASF7:
 6804 00a0 5F5F696E 		.ascii	"__int32_t\000"
 6804      7433325F 
 6804      7400
 6805              	.LASF100:
 6806 00aa 7664625F 		.ascii	"vdb_rel_a\000"
 6806      72656C5F 
 6806      6100
 6807              	.LASF78:
 6808 00b4 6D656D5F 		.ascii	"mem_area\000"
 6808      61726561 
 6808      00
 6809              	.LASF51:
 6810 00bd 756E6963 		.ascii	"unicode_list\000"
 6810      6F64655F 
 6810      6C697374 
 6810      00
 6811              	.LASF110:
 6812 00ca 6C657474 		.ascii	"letter_w\000"
 6812      65725F77 
 6812      00
 6813              	.LASF101:
 6814 00d3 7664625F 		.ascii	"vdb_buf_tmp\000"
 6814      6275665F 
 6814      746D7000 
 6815              	.LASF18:
 6816 00df 75696E74 		.ascii	"uint32_t\000"
 6816      33325F74 
 6816      00
 6817              	.LASF83:
 6818 00e8 6D656D5F 		.ascii	"mem_first\000"
 6818      66697273 
 6818      7400
 6819              	.LASF118:
 6820 00f2 77696474 		.ascii	"width_byte_scr\000"
 6820      685F6279 
 6820      74655F73 
 6820      637200
 6821              	.LASF65:
 6822 0101 7664625F 		.ascii	"vdb_wr\000"
ARM GAS  C:\Users\d3bug\AppData\Local\Temp\cc5D6foa.s 			page 147


 6822      777200
 6823              	.LASF88:
 6824 0108 73775F6D 		.ascii	"sw_mem_blend\000"
 6824      656D5F62 
 6824      6C656E64 
 6824      00
 6825              	.LASF15:
 6826 0115 696E7431 		.ascii	"int16_t\000"
 6826      365F7400 
 6827              	.LASF144:
 6828 011d 6C765F61 		.ascii	"lv_area_intersect\000"
 6828      7265615F 
 6828      696E7465 
 6828      72736563 
 6828      7400
 6829              	.LASF57:
 6830 012f 676C7970 		.ascii	"glyph_cnt\000"
 6830      685F636E 
 6830      7400
 6831              	.LASF12:
 6832 0139 6C6F6E67 		.ascii	"long long unsigned int\000"
 6832      206C6F6E 
 6832      6720756E 
 6832      7369676E 
 6832      65642069 
 6833              	.LASF19:
 6834 0150 4C565F4F 		.ascii	"LV_OPA_TRANSP\000"
 6834      50415F54 
 6834      52414E53 
 6834      5000
 6835              	.LASF146:
 6836 015e 6C765F66 		.ascii	"lv_font_get_bpp\000"
 6836      6F6E745F 
 6836      6765745F 
 6836      62707000 
 6837              	.LASF148:
 6838 016e 6C765F66 		.ascii	"lv_font_get_width\000"
 6838      6F6E745F 
 6838      6765745F 
 6838      77696474 
 6838      6800
 6839              	.LASF66:
 6840 0180 6C765F64 		.ascii	"lv_disp_drv_t\000"
 6840      6973705F 
 6840      6472765F 
 6840      7400
 6841              	.LASF5:
 6842 018e 5F5F7569 		.ascii	"__uint16_t\000"
 6842      6E743136 
 6842      5F7400
 6843              	.LASF92:
 6844 0199 7664625F 		.ascii	"vdb_p\000"
 6844      7000
 6845              	.LASF54:
 6846 019f 6E657874 		.ascii	"next_page\000"
 6846      5F706167 
 6846      6500
ARM GAS  C:\Users\d3bug\AppData\Local\Temp\cc5D6foa.s 			page 148


 6847              	.LASF149:
 6848 01a9 6C765F66 		.ascii	"lv_font_get_bitmap\000"
 6848      6F6E745F 
 6848      6765745F 
 6848      6269746D 
 6848      617000
 6849              	.LASF80:
 6850 01bc 636F6C6F 		.ascii	"color\000"
 6850      7200
 6851              	.LASF150:
 6852 01c2 474E5520 		.ascii	"GNU C11 5.4.1 20160609 (release) [ARM/embedded-5-br"
 6852      43313120 
 6852      352E342E 
 6852      31203230 
 6852      31363036 
 6853 01f5 616E6368 		.ascii	"anch revision 237715] -mcpu=cortex-m3 -mthumb -g -O"
 6853      20726576 
 6853      6973696F 
 6853      6E203233 
 6853      37373135 
 6854 0228 67202D66 		.ascii	"g -ffunction-sections -ffat-lto-objects\000"
 6854      66756E63 
 6854      74696F6E 
 6854      2D736563 
 6854      74696F6E 
 6855              	.LASF119:
 6856 0250 77696474 		.ascii	"width_byte_bpp\000"
 6856      685F6279 
 6856      74655F62 
 6856      707000
 6857              	.LASF98:
 6858 025f 7265735F 		.ascii	"res_a\000"
 6858      6100
 6859              	.LASF135:
 6860 0265 70785F63 		.ascii	"px_color\000"
 6860      6F6C6F72 
 6860      00
 6861              	.LASF104:
 6862 026e 6C657474 		.ascii	"letter\000"
 6862      657200
 6863              	.LASF59:
 6864 0275 5F426F6F 		.ascii	"_Bool\000"
 6864      6C00
 6865              	.LASF124:
 6866 027b 6C657474 		.ascii	"letter_px\000"
 6866      65725F70 
 6866      7800
 6867              	.LASF134:
 6868 0285 6D61705F 		.ascii	"map_useful_w\000"
 6868      75736566 
 6868      756C5F77 
 6868      00
 6869              	.LASF60:
 6870 0292 5F6C765F 		.ascii	"_lv_font_struct\000"
 6870      666F6E74 
 6870      5F737472 
 6870      75637400 
ARM GAS  C:\Users\d3bug\AppData\Local\Temp\cc5D6foa.s 			page 149


 6871              	.LASF137:
 6872 02a2 6C617374 		.ascii	"last_img_px\000"
 6872      5F696D67 
 6872      5F707800 
 6873              	.LASF77:
 6874 02ae 666F6E74 		.ascii	"font_p\000"
 6874      5F7000
 6875              	.LASF136:
 6876 02b5 6368726F 		.ascii	"chroma_key_color\000"
 6876      6D615F6B 
 6876      65795F63 
 6876      6F6C6F72 
 6876      00
 6877              	.LASF63:
 6878 02c6 64697370 		.ascii	"disp_fill\000"
 6878      5F66696C 
 6878      6C00
 6879              	.LASF117:
 6880 02d0 636F6C5F 		.ascii	"col_byte_cnt\000"
 6880      62797465 
 6880      5F636E74 
 6880      00
 6881              	.LASF84:
 6882 02dd 636F7079 		.ascii	"copy_size\000"
 6882      5F73697A 
 6882      6500
 6883              	.LASF40:
 6884 02e7 63686172 		.ascii	"char\000"
 6884      00
 6885              	.LASF120:
 6886 02ec 636F6C5F 		.ascii	"col_start\000"
 6886      73746172 
 6886      7400
 6887              	.LASF152:
 6888 02f6 433A5C55 		.ascii	"C:\\Users\\d3bug\\Documents\\Creator\\lvgl_ssd1306\\"
 6888      73657273 
 6888      5C643362 
 6888      75675C44 
 6888      6F63756D 
 6889 0324 68656C6C 		.ascii	"hello_world_label.cydsn\000"
 6889      6F5F776F 
 6889      726C645F 
 6889      6C616265 
 6889      6C2E6379 
 6890              	.LASF64:
 6891 033c 64697370 		.ascii	"disp_map\000"
 6891      5F6D6170 
 6891      00
 6892              	.LASF147:
 6893 0345 6C765F66 		.ascii	"lv_font_is_monospace\000"
 6893      6F6E745F 
 6893      69735F6D 
 6893      6F6E6F73 
 6893      70616365 
 6894              	.LASF46:
 6895 035a 6C765F66 		.ascii	"lv_font_glyph_dsc_t\000"
 6895      6F6E745F 
ARM GAS  C:\Users\d3bug\AppData\Local\Temp\cc5D6foa.s 			page 150


 6895      676C7970 
 6895      685F6473 
 6895      635F7400 
 6896              	.LASF35:
 6897 036e 6C765F63 		.ascii	"lv_color1_t\000"
 6897      6F6C6F72 
 6897      315F7400 
 6898              	.LASF14:
 6899 037a 75696E74 		.ascii	"uint8_t\000"
 6899      385F7400 
 6900              	.LASF68:
 6901 0382 64726976 		.ascii	"driver\000"
 6901      657200
 6902              	.LASF71:
 6903 0389 61726561 		.ascii	"area\000"
 6903      00
 6904              	.LASF86:
 6905 038e 6F70615F 		.ascii	"opa_tmp\000"
 6905      746D7000 
 6906              	.LASF96:
 6907 0396 6C765F76 		.ascii	"lv_vfill\000"
 6907      66696C6C 
 6907      00
 6908              	.LASF21:
 6909 039f 4C565F4F 		.ascii	"LV_OPA_10\000"
 6909      50415F31 
 6909      3000
 6910              	.LASF11:
 6911 03a9 6C6F6E67 		.ascii	"long long int\000"
 6911      206C6F6E 
 6911      6720696E 
 6911      7400
 6912              	.LASF107:
 6913 03b7 62707034 		.ascii	"bpp4_opa_table\000"
 6913      5F6F7061 
 6913      5F746162 
 6913      6C6500
 6914              	.LASF87:
 6915 03c6 73775F63 		.ascii	"sw_color_fill\000"
 6915      6F6C6F72 
 6915      5F66696C 
 6915      6C00
 6916              	.LASF113:
 6917 03d4 6D61736B 		.ascii	"mask_init\000"
 6917      5F696E69 
 6917      7400
 6918              	.LASF73:
 6919 03de 6C765F61 		.ascii	"lv_area_get_width\000"
 6919      7265615F 
 6919      6765745F 
 6919      77696474 
 6919      6800
 6920              	.LASF3:
 6921 03f0 5F5F696E 		.ascii	"__int16_t\000"
 6921      7431365F 
 6921      7400
 6922              	.LASF94:
ARM GAS  C:\Users\d3bug\AppData\Local\Temp\cc5D6foa.s 			page 151


 6923 03fa 7664625F 		.ascii	"vdb_px_p\000"
 6923      70785F70 
 6923      00
 6924              	.LASF67:
 6925 0403 5F646973 		.ascii	"_disp_t\000"
 6925      705F7400 
 6926              	.LASF145:
 6927 040b 6C765F66 		.ascii	"lv_font_get_real_width\000"
 6927      6F6E745F 
 6927      6765745F 
 6927      7265616C 
 6927      5F776964 
 6928              	.LASF22:
 6929 0422 4C565F4F 		.ascii	"LV_OPA_20\000"
 6929      50415F32 
 6929      3000
 6930              	.LASF82:
 6931 042c 64697370 		.ascii	"disp\000"
 6931      00
 6932              	.LASF49:
 6933 0431 676C7970 		.ascii	"glyph_bitmap\000"
 6933      685F6269 
 6933      746D6170 
 6933      00
 6934              	.LASF114:
 6935 043e 6D61736B 		.ascii	"mask\000"
 6935      00
 6936              	.LASF36:
 6937 0443 6C765F63 		.ascii	"lv_color_t\000"
 6937      6F6C6F72 
 6937      5F7400
 6938              	.LASF111:
 6939 044e 6C657474 		.ascii	"letter_h\000"
 6939      65725F68 
 6939      00
 6940              	.LASF75:
 6941 0457 61726561 		.ascii	"area_p\000"
 6941      5F7000
 6942              	.LASF33:
 6943 045e 67726565 		.ascii	"green\000"
 6943      6E00
 6944              	.LASF23:
 6945 0464 4C565F4F 		.ascii	"LV_OPA_30\000"
 6945      50415F33 
 6945      3000
 6946              	.LASF38:
 6947 046e 6C6F6E67 		.ascii	"long double\000"
 6947      20646F75 
 6947      626C6500 
 6948              	.LASF16:
 6949 047a 75696E74 		.ascii	"uint16_t\000"
 6949      31365F74 
 6949      00
 6950              	.LASF62:
 6951 0483 64697370 		.ascii	"disp_flush\000"
 6951      5F666C75 
 6951      736800
ARM GAS  C:\Users\d3bug\AppData\Local\Temp\cc5D6foa.s 			page 152


 6952              	.LASF74:
 6953 048e 6C765F63 		.ascii	"lv_color_mix\000"
 6953      6F6C6F72 
 6953      5F6D6978 
 6953      00
 6954              	.LASF143:
 6955 049b 6C765F6C 		.ascii	"lv_log_add\000"
 6955      6F675F61 
 6955      646400
 6956              	.LASF139:
 6957 04a6 6F70615F 		.ascii	"opa_result\000"
 6957      72657375 
 6957      6C7400
 6958              	.LASF130:
 6959 04b1 7265636F 		.ascii	"recolor_opa\000"
 6959      6C6F725F 
 6959      6F706100 
 6960              	.LASF58:
 6961 04bd 6C765F66 		.ascii	"lv_font_t\000"
 6961      6F6E745F 
 6961      7400
 6962              	.LASF132:
 6963 04c7 70785F73 		.ascii	"px_size_byte\000"
 6963      697A655F 
 6963      62797465 
 6963      00
 6964              	.LASF131:
 6965 04d4 6D61736B 		.ascii	"masked_a\000"
 6965      65645F61 
 6965      00
 6966              	.LASF4:
 6967 04dd 73686F72 		.ascii	"short int\000"
 6967      7420696E 
 6967      7400
 6968              	.LASF37:
 6969 04e7 6C765F6F 		.ascii	"lv_opa_t\000"
 6969      70615F74 
 6969      00
 6970              	.LASF8:
 6971 04f0 6C6F6E67 		.ascii	"long int\000"
 6971      20696E74 
 6971      00
 6972              	.LASF24:
 6973 04f9 4C565F4F 		.ascii	"LV_OPA_40\000"
 6973      50415F34 
 6973      3000
 6974              	.LASF115:
 6975 0503 6D61705F 		.ascii	"map_p\000"
 6975      7000
 6976              	.LASF128:
 6977 0509 616C7068 		.ascii	"alpha_byte\000"
 6977      615F6279 
 6977      746500
 6978              	.LASF90:
 6979 0514 6C656E67 		.ascii	"length\000"
 6979      746800
 6980              	.LASF99:
ARM GAS  C:\Users\d3bug\AppData\Local\Temp\cc5D6foa.s 			page 153


 6981 051b 756E696F 		.ascii	"union_ok\000"
 6981      6E5F6F6B 
 6981      00
 6982              	.LASF72:
 6983 0524 6C765F76 		.ascii	"lv_vdb_t\000"
 6983      64625F74 
 6983      00
 6984              	.LASF55:
 6985 052d 685F7078 		.ascii	"h_px\000"
 6985      00
 6986              	.LASF32:
 6987 0532 626C7565 		.ascii	"blue\000"
 6987      00
 6988              	.LASF41:
 6989 0537 6C765F63 		.ascii	"lv_coord_t\000"
 6989      6F6F7264 
 6989      5F7400
 6990              	.LASF30:
 6991 0542 4C565F4F 		.ascii	"LV_OPA_100\000"
 6991      50415F31 
 6991      303000
 6992              	.LASF2:
 6993 054d 5F5F7569 		.ascii	"__uint8_t\000"
 6993      6E74385F 
 6993      7400
 6994              	.LASF25:
 6995 0557 4C565F4F 		.ascii	"LV_OPA_50\000"
 6995      50415F35 
 6995      3000
 6996              	.LASF125:
 6997 0561 70785F6F 		.ascii	"px_opa\000"
 6997      706100
 6998              	.LASF81:
 6999 0568 6D656D5F 		.ascii	"mem_width\000"
 6999      77696474 
 6999      6800
 7000              	.LASF39:
 7001 0572 73697A65 		.ascii	"sizetype\000"
 7001      74797065 
 7001      00
 7002              	.LASF79:
 7003 057b 66696C6C 		.ascii	"fill_area\000"
 7003      5F617265 
 7003      6100
 7004              	.LASF10:
 7005 0585 6C6F6E67 		.ascii	"long unsigned int\000"
 7005      20756E73 
 7005      69676E65 
 7005      6420696E 
 7005      7400
 7006              	.LASF126:
 7007 0597 6C765F76 		.ascii	"lv_vmap\000"
 7007      6D617000 
 7008              	.LASF56:
 7009 059f 6D6F6E6F 		.ascii	"monospace\000"
 7009      73706163 
 7009      6500
ARM GAS  C:\Users\d3bug\AppData\Local\Temp\cc5D6foa.s 			page 154


 7010              	.LASF151:
 7011 05a9 2E2E5C6C 		.ascii	"..\\lvgl\\lv_draw\\lv_draw_vbasic.c\000"
 7011      76676C5C 
 7011      6C765F64 
 7011      7261775C 
 7011      6C765F64 
 7012              	.LASF142:
 7013 05ca 6C765F76 		.ascii	"lv_vdb_get\000"
 7013      64625F67 
 7013      657400
 7014              	.LASF97:
 7015 05d5 636F7264 		.ascii	"cords_p\000"
 7015      735F7000 
 7016              	.LASF17:
 7017 05dd 696E7433 		.ascii	"int32_t\000"
 7017      325F7400 
 7018              	.LASF45:
 7019 05e5 676C7970 		.ascii	"glyph_index\000"
 7019      685F696E 
 7019      64657800 
 7020              	.LASF121:
 7021 05f1 636F6C5F 		.ascii	"col_end\000"
 7021      656E6400 
 7022              	.LASF138:
 7023 05f9 7265636F 		.ascii	"recolored_px\000"
 7023      6C6F7265 
 7023      645F7078 
 7023      00
 7024              	.LASF95:
 7025 0606 6C765F76 		.ascii	"lv_vpx\000"
 7025      707800
 7026              	.LASF122:
 7027 060d 726F775F 		.ascii	"row_start\000"
 7027      73746172 
 7027      7400
 7028              	.LASF26:
 7029 0617 4C565F4F 		.ascii	"LV_OPA_60\000"
 7029      50415F36 
 7029      3000
 7030              	.LASF91:
 7031 0621 6D61736B 		.ascii	"mask_p\000"
 7031      5F7000
 7032              	.LASF1:
 7033 0628 756E7369 		.ascii	"unsigned char\000"
 7033      676E6564 
 7033      20636861 
 7033      7200
 7034              	.LASF9:
 7035 0636 5F5F7569 		.ascii	"__uint32_t\000"
 7035      6E743332 
 7035      5F7400
 7036              	.LASF44:
 7037 0641 775F7078 		.ascii	"w_px\000"
 7037      00
 7038              	.LASF133:
 7039 0646 6D61705F 		.ascii	"map_width\000"
 7039      77696474 
ARM GAS  C:\Users\d3bug\AppData\Local\Temp\cc5D6foa.s 			page 155


 7039      6800
 7040              	.LASF93:
 7041 0650 7664625F 		.ascii	"vdb_width\000"
 7041      77696474 
 7041      6800
 7042              	.LASF70:
 7043 065a 6C765F64 		.ascii	"lv_disp_t\000"
 7043      6973705F 
 7043      7400
 7044              	.LASF27:
 7045 0664 4C565F4F 		.ascii	"LV_OPA_70\000"
 7045      50415F37 
 7045      3000
 7046              	.LASF53:
 7047 066e 6765745F 		.ascii	"get_width\000"
 7047      77696474 
 7047      6800
 7048              	.LASF112:
 7049 0678 6270705F 		.ascii	"bpp_opa_table\000"
 7049      6F70615F 
 7049      7461626C 
 7049      6500
 7050              	.LASF141:
 7051 0686 6C765F64 		.ascii	"lv_disp_get_active\000"
 7051      6973705F 
 7051      6765745F 
 7051      61637469 
 7051      766500
 7052              	.LASF43:
 7053 0699 6C765F61 		.ascii	"lv_area_t\000"
 7053      7265615F 
 7053      7400
 7054              	.LASF0:
 7055 06a3 7369676E 		.ascii	"signed char\000"
 7055      65642063 
 7055      68617200 
 7056              	.LASF103:
 7057 06af 706F735F 		.ascii	"pos_p\000"
 7057      7000
 7058              	.LASF102:
 7059 06b5 6C765F76 		.ascii	"lv_vletter\000"
 7059      6C657474 
 7059      657200
 7060              	.LASF6:
 7061 06c0 73686F72 		.ascii	"short unsigned int\000"
 7061      7420756E 
 7061      7369676E 
 7061      65642069 
 7061      6E7400
 7062              	.LASF108:
 7063 06d3 706F735F 		.ascii	"pos_x\000"
 7063      7800
 7064              	.LASF109:
 7065 06d9 706F735F 		.ascii	"pos_y\000"
 7065      7900
 7066              	.LASF153:
 7067 06df 6D656D63 		.ascii	"memcpy\000"
ARM GAS  C:\Users\d3bug\AppData\Local\Temp\cc5D6foa.s 			page 156


 7067      707900
 7068              	.LASF116:
 7069 06e6 636F6C5F 		.ascii	"col_bit\000"
 7069      62697400 
 7070              	.LASF129:
 7071 06ee 7265636F 		.ascii	"recolor\000"
 7071      6C6F7200 
 7072              	.LASF123:
 7073 06f6 726F775F 		.ascii	"row_end\000"
 7073      656E6400 
 7074              	.LASF50:
 7075 06fe 676C7970 		.ascii	"glyph_dsc\000"
 7075      685F6473 
 7075      6300
 7076              	.LASF28:
 7077 0708 4C565F4F 		.ascii	"LV_OPA_80\000"
 7077      50415F38 
 7077      3000
 7078              	.LASF47:
 7079 0712 756E6963 		.ascii	"unicode_first\000"
 7079      6F64655F 
 7079      66697273 
 7079      7400
 7080              	.LASF48:
 7081 0720 756E6963 		.ascii	"unicode_last\000"
 7081      6F64655F 
 7081      6C617374 
 7081      00
 7082              	.LASF85:
 7083 072d 62675F74 		.ascii	"bg_tmp\000"
 7083      6D7000
 7084              	.LASF89:
 7085 0734 64657374 		.ascii	"dest\000"
 7085      00
 7086              		.ident	"GCC: (GNU Tools for ARM Embedded Processors) 5.4.1 20160609 (release) [ARM/embedded-5-bran
