ARM GAS  C:\Users\d3bug\AppData\Local\Temp\ccg1LD4z.s 			page 1


   1              		.syntax unified
   2              		.cpu cortex-m3
   3              		.fpu softvfp
   4              		.eabi_attribute 20, 1
   5              		.eabi_attribute 21, 1
   6              		.eabi_attribute 23, 3
   7              		.eabi_attribute 24, 1
   8              		.eabi_attribute 25, 1
   9              		.eabi_attribute 26, 1
  10              		.eabi_attribute 30, 1
  11              		.eabi_attribute 34, 1
  12              		.eabi_attribute 18, 4
  13              		.thumb
  14              		.syntax unified
  15              		.file	"lv_draw_line.c"
  16              		.text
  17              	.Ltext0:
  18              		.cfi_sections	.debug_frame
  19              		.section	.text.line_draw_hor,"ax",%progbits
  20              		.align	2
  21              		.thumb
  22              		.thumb_func
  23              		.type	line_draw_hor, %function
  24              	line_draw_hor:
  25              	.LFB14:
  26              		.file 1 "..\\lvgl\\lv_draw\\lv_draw_line.c"
   1:..\lvgl\lv_draw/lv_draw_line.c **** /**
   2:..\lvgl\lv_draw/lv_draw_line.c ****  * @file lv_draw_line.c
   3:..\lvgl\lv_draw/lv_draw_line.c ****  *
   4:..\lvgl\lv_draw/lv_draw_line.c ****  */
   5:..\lvgl\lv_draw/lv_draw_line.c **** 
   6:..\lvgl\lv_draw/lv_draw_line.c **** /*********************
   7:..\lvgl\lv_draw/lv_draw_line.c ****  *      INCLUDES
   8:..\lvgl\lv_draw/lv_draw_line.c ****  *********************/
   9:..\lvgl\lv_draw/lv_draw_line.c **** #include <stdio.h>
  10:..\lvgl\lv_draw/lv_draw_line.c **** #include <stdbool.h>
  11:..\lvgl\lv_draw/lv_draw_line.c **** #include "lv_draw.h"
  12:..\lvgl\lv_draw/lv_draw_line.c **** #include "../lv_misc/lv_math.h"
  13:..\lvgl\lv_draw/lv_draw_line.c **** 
  14:..\lvgl\lv_draw/lv_draw_line.c **** /*********************
  15:..\lvgl\lv_draw/lv_draw_line.c ****  *      DEFINES
  16:..\lvgl\lv_draw/lv_draw_line.c ****  *********************/
  17:..\lvgl\lv_draw/lv_draw_line.c **** #if LV_COMPILER_VLA_SUPPORTED == 0
  18:..\lvgl\lv_draw/lv_draw_line.c **** #define LINE_MAX_WIDTH        64
  19:..\lvgl\lv_draw/lv_draw_line.c **** #endif
  20:..\lvgl\lv_draw/lv_draw_line.c **** 
  21:..\lvgl\lv_draw/lv_draw_line.c **** /**********************
  22:..\lvgl\lv_draw/lv_draw_line.c ****  *      TYPEDEFS
  23:..\lvgl\lv_draw/lv_draw_line.c ****  **********************/
  24:..\lvgl\lv_draw/lv_draw_line.c **** 
  25:..\lvgl\lv_draw/lv_draw_line.c **** typedef struct {
  26:..\lvgl\lv_draw/lv_draw_line.c ****     lv_point_t p1;
  27:..\lvgl\lv_draw/lv_draw_line.c ****     lv_point_t p2;
  28:..\lvgl\lv_draw/lv_draw_line.c ****     lv_point_t p_act;
  29:..\lvgl\lv_draw/lv_draw_line.c ****     lv_coord_t dx;
  30:..\lvgl\lv_draw/lv_draw_line.c ****     lv_coord_t sx;      /*-1: x1 < x2; 1: x2 >= x1*/
  31:..\lvgl\lv_draw/lv_draw_line.c ****     lv_coord_t dy;
ARM GAS  C:\Users\d3bug\AppData\Local\Temp\ccg1LD4z.s 			page 2


  32:..\lvgl\lv_draw/lv_draw_line.c ****     lv_coord_t sy;      /*-1: y1 < y2; 1: y2 >= y1*/
  33:..\lvgl\lv_draw/lv_draw_line.c ****     lv_coord_t err;
  34:..\lvgl\lv_draw/lv_draw_line.c ****     lv_coord_t e2;
  35:..\lvgl\lv_draw/lv_draw_line.c ****     bool hor;   /*Rather horizontal or vertical*/
  36:..\lvgl\lv_draw/lv_draw_line.c **** } line_draw_t;
  37:..\lvgl\lv_draw/lv_draw_line.c **** 
  38:..\lvgl\lv_draw/lv_draw_line.c **** typedef struct {
  39:..\lvgl\lv_draw/lv_draw_line.c ****     lv_coord_t width;
  40:..\lvgl\lv_draw/lv_draw_line.c ****     lv_coord_t width_1;
  41:..\lvgl\lv_draw/lv_draw_line.c ****     lv_coord_t width_half;
  42:..\lvgl\lv_draw/lv_draw_line.c **** } line_width_t;
  43:..\lvgl\lv_draw/lv_draw_line.c **** 
  44:..\lvgl\lv_draw/lv_draw_line.c **** /**********************
  45:..\lvgl\lv_draw/lv_draw_line.c ****  *  STATIC PROTOTYPES
  46:..\lvgl\lv_draw/lv_draw_line.c ****  **********************/
  47:..\lvgl\lv_draw/lv_draw_line.c **** static void line_draw_hor(line_draw_t * main_line, const lv_area_t * mask, const lv_style_t * style
  48:..\lvgl\lv_draw/lv_draw_line.c **** static void line_draw_ver(line_draw_t * main_line, const lv_area_t * mask, const lv_style_t * style
  49:..\lvgl\lv_draw/lv_draw_line.c **** static void line_draw_skew(line_draw_t * main_line, bool dir_ori, const lv_area_t * mask, const lv_
  50:..\lvgl\lv_draw/lv_draw_line.c **** static void line_init(line_draw_t * line, const lv_point_t * p1, const lv_point_t * p2);
  51:..\lvgl\lv_draw/lv_draw_line.c **** static bool line_next(line_draw_t * line);
  52:..\lvgl\lv_draw/lv_draw_line.c **** static bool line_next_y(line_draw_t * line);
  53:..\lvgl\lv_draw/lv_draw_line.c **** static bool line_next_x(line_draw_t * line);
  54:..\lvgl\lv_draw/lv_draw_line.c **** 
  55:..\lvgl\lv_draw/lv_draw_line.c **** /**********************
  56:..\lvgl\lv_draw/lv_draw_line.c ****  *  STATIC VARIABLES
  57:..\lvgl\lv_draw/lv_draw_line.c ****  **********************/
  58:..\lvgl\lv_draw/lv_draw_line.c **** 
  59:..\lvgl\lv_draw/lv_draw_line.c **** /**********************
  60:..\lvgl\lv_draw/lv_draw_line.c ****  *      MACROS
  61:..\lvgl\lv_draw/lv_draw_line.c ****  **********************/
  62:..\lvgl\lv_draw/lv_draw_line.c **** 
  63:..\lvgl\lv_draw/lv_draw_line.c **** /**********************
  64:..\lvgl\lv_draw/lv_draw_line.c ****  *   GLOBAL FUNCTIONS
  65:..\lvgl\lv_draw/lv_draw_line.c ****  **********************/
  66:..\lvgl\lv_draw/lv_draw_line.c **** 
  67:..\lvgl\lv_draw/lv_draw_line.c **** /**
  68:..\lvgl\lv_draw/lv_draw_line.c ****  * Draw a line
  69:..\lvgl\lv_draw/lv_draw_line.c ****  * @param point1 first point of the line
  70:..\lvgl\lv_draw/lv_draw_line.c ****  * @param point2 second point of the line
  71:..\lvgl\lv_draw/lv_draw_line.c ****  * @param mask the line will be drawn only on this area
  72:..\lvgl\lv_draw/lv_draw_line.c ****  * @param style pointer to a line's style
  73:..\lvgl\lv_draw/lv_draw_line.c ****  * @param opa_scale scale down all opacities by the factor
  74:..\lvgl\lv_draw/lv_draw_line.c ****  */
  75:..\lvgl\lv_draw/lv_draw_line.c **** void lv_draw_line(const lv_point_t * point1, const lv_point_t * point2, const lv_area_t * mask,
  76:..\lvgl\lv_draw/lv_draw_line.c ****         const lv_style_t * style, lv_opa_t opa_scale)
  77:..\lvgl\lv_draw/lv_draw_line.c **** {
  78:..\lvgl\lv_draw/lv_draw_line.c **** 
  79:..\lvgl\lv_draw/lv_draw_line.c ****     if(style->line.width == 0) return;
  80:..\lvgl\lv_draw/lv_draw_line.c ****     if(point1->x == point2->x && point1->y == point2->y) return;
  81:..\lvgl\lv_draw/lv_draw_line.c **** 
  82:..\lvgl\lv_draw/lv_draw_line.c ****     line_draw_t main_line;
  83:..\lvgl\lv_draw/lv_draw_line.c ****     lv_point_t p1;
  84:..\lvgl\lv_draw/lv_draw_line.c ****     lv_point_t p2;
  85:..\lvgl\lv_draw/lv_draw_line.c **** 
  86:..\lvgl\lv_draw/lv_draw_line.c ****     /*If the line if rather vertical then be sure y1 < y2 else x1 < x2*/
  87:..\lvgl\lv_draw/lv_draw_line.c **** 
  88:..\lvgl\lv_draw/lv_draw_line.c ****     if(LV_MATH_ABS(point1->x - point2->x) > LV_MATH_ABS(point1->y - point2->y)) {
ARM GAS  C:\Users\d3bug\AppData\Local\Temp\ccg1LD4z.s 			page 3


  89:..\lvgl\lv_draw/lv_draw_line.c **** 
  90:..\lvgl\lv_draw/lv_draw_line.c ****         /*Steps less in y then x -> rather horizontal*/
  91:..\lvgl\lv_draw/lv_draw_line.c ****         if(point1->x < point2->x) {
  92:..\lvgl\lv_draw/lv_draw_line.c ****             p1.x = point1->x;
  93:..\lvgl\lv_draw/lv_draw_line.c ****             p1.y = point1->y;
  94:..\lvgl\lv_draw/lv_draw_line.c ****             p2.x = point2->x;
  95:..\lvgl\lv_draw/lv_draw_line.c ****             p2.y = point2->y;
  96:..\lvgl\lv_draw/lv_draw_line.c ****         } else {
  97:..\lvgl\lv_draw/lv_draw_line.c ****             p1.x = point2->x;
  98:..\lvgl\lv_draw/lv_draw_line.c ****             p1.y = point2->y;
  99:..\lvgl\lv_draw/lv_draw_line.c ****             p2.x = point1->x;
 100:..\lvgl\lv_draw/lv_draw_line.c ****             p2.y = point1->y;
 101:..\lvgl\lv_draw/lv_draw_line.c ****         }
 102:..\lvgl\lv_draw/lv_draw_line.c ****     } else {
 103:..\lvgl\lv_draw/lv_draw_line.c ****         /*Steps less in x then y -> rather vertical*/
 104:..\lvgl\lv_draw/lv_draw_line.c ****         if(point1->y < point2->y) {
 105:..\lvgl\lv_draw/lv_draw_line.c ****             p1.x = point1->x;
 106:..\lvgl\lv_draw/lv_draw_line.c ****             p1.y = point1->y;
 107:..\lvgl\lv_draw/lv_draw_line.c ****             p2.x = point2->x;
 108:..\lvgl\lv_draw/lv_draw_line.c ****             p2.y = point2->y;
 109:..\lvgl\lv_draw/lv_draw_line.c ****         } else {
 110:..\lvgl\lv_draw/lv_draw_line.c ****             p1.x = point2->x;
 111:..\lvgl\lv_draw/lv_draw_line.c ****             p1.y = point2->y;
 112:..\lvgl\lv_draw/lv_draw_line.c ****             p2.x = point1->x;
 113:..\lvgl\lv_draw/lv_draw_line.c ****             p2.y = point1->y;
 114:..\lvgl\lv_draw/lv_draw_line.c ****         }
 115:..\lvgl\lv_draw/lv_draw_line.c ****     }
 116:..\lvgl\lv_draw/lv_draw_line.c **** 
 117:..\lvgl\lv_draw/lv_draw_line.c ****     line_init(&main_line, &p1, &p2);
 118:..\lvgl\lv_draw/lv_draw_line.c **** 
 119:..\lvgl\lv_draw/lv_draw_line.c **** 
 120:..\lvgl\lv_draw/lv_draw_line.c ****     /*Special case draw a horizontal line*/
 121:..\lvgl\lv_draw/lv_draw_line.c ****     if(main_line.p1.y == main_line.p2.y) {
 122:..\lvgl\lv_draw/lv_draw_line.c ****         line_draw_hor(&main_line, mask, style, opa_scale);
 123:..\lvgl\lv_draw/lv_draw_line.c ****     }
 124:..\lvgl\lv_draw/lv_draw_line.c ****     /*Special case draw a vertical line*/
 125:..\lvgl\lv_draw/lv_draw_line.c ****     else if(main_line.p1.x == main_line.p2.x) {
 126:..\lvgl\lv_draw/lv_draw_line.c ****         line_draw_ver(&main_line, mask, style, opa_scale);
 127:..\lvgl\lv_draw/lv_draw_line.c ****     }
 128:..\lvgl\lv_draw/lv_draw_line.c ****     /*Arbitrary skew line*/
 129:..\lvgl\lv_draw/lv_draw_line.c ****     else {
 130:..\lvgl\lv_draw/lv_draw_line.c ****         bool dir_ori = false;
 131:..\lvgl\lv_draw/lv_draw_line.c **** #if LV_ANTIALIAS
 132:..\lvgl\lv_draw/lv_draw_line.c ****         lv_point_t p_tmp;
 133:..\lvgl\lv_draw/lv_draw_line.c **** 
 134:..\lvgl\lv_draw/lv_draw_line.c ****         if(main_line.hor) {
 135:..\lvgl\lv_draw/lv_draw_line.c ****             if(main_line.p1.y < main_line.p2.y) {
 136:..\lvgl\lv_draw/lv_draw_line.c ****                 dir_ori = true;
 137:..\lvgl\lv_draw/lv_draw_line.c ****                 p_tmp.x = main_line.p2.x;
 138:..\lvgl\lv_draw/lv_draw_line.c ****                 p_tmp.y = main_line.p2.y - 1;
 139:..\lvgl\lv_draw/lv_draw_line.c ****                 line_init(&main_line, &p1, &p_tmp);
 140:..\lvgl\lv_draw/lv_draw_line.c ****                 main_line.sy = LV_MATH_ABS(main_line.sy);   /*The sign can change if the line becom
 141:..\lvgl\lv_draw/lv_draw_line.c ****             }
 142:..\lvgl\lv_draw/lv_draw_line.c ****             else if(main_line.p1.y > main_line.p2.y) {
 143:..\lvgl\lv_draw/lv_draw_line.c ****                 dir_ori = false;
 144:..\lvgl\lv_draw/lv_draw_line.c ****                 p_tmp.x = main_line.p2.x;
 145:..\lvgl\lv_draw/lv_draw_line.c ****                 p_tmp.y = main_line.p2.y + 1;
ARM GAS  C:\Users\d3bug\AppData\Local\Temp\ccg1LD4z.s 			page 4


 146:..\lvgl\lv_draw/lv_draw_line.c ****                 line_init(&main_line, &p1, &p_tmp);
 147:..\lvgl\lv_draw/lv_draw_line.c ****                 main_line.sy = -LV_MATH_ABS(main_line.sy);  /*The sign can change if the line becom
 148:..\lvgl\lv_draw/lv_draw_line.c ****             }
 149:..\lvgl\lv_draw/lv_draw_line.c ****         }
 150:..\lvgl\lv_draw/lv_draw_line.c ****         else {
 151:..\lvgl\lv_draw/lv_draw_line.c ****             if(main_line.p1.x < main_line.p2.x) {
 152:..\lvgl\lv_draw/lv_draw_line.c ****                 dir_ori = true;
 153:..\lvgl\lv_draw/lv_draw_line.c ****                 p_tmp.x = main_line.p2.x - 1;
 154:..\lvgl\lv_draw/lv_draw_line.c ****                 p_tmp.y = main_line.p2.y;
 155:..\lvgl\lv_draw/lv_draw_line.c ****                 line_init(&main_line, &p1, &p_tmp);
 156:..\lvgl\lv_draw/lv_draw_line.c ****                 main_line.sx = LV_MATH_ABS(main_line.sx);   /*The sign can change if the line becom
 157:..\lvgl\lv_draw/lv_draw_line.c ****             }
 158:..\lvgl\lv_draw/lv_draw_line.c ****             else if(main_line.p1.x > main_line.p2.x) {
 159:..\lvgl\lv_draw/lv_draw_line.c ****                 dir_ori = false;
 160:..\lvgl\lv_draw/lv_draw_line.c ****                 p_tmp.x = main_line.p2.x + 1;
 161:..\lvgl\lv_draw/lv_draw_line.c ****                 p_tmp.y = main_line.p2.y;
 162:..\lvgl\lv_draw/lv_draw_line.c ****                 line_init(&main_line, &p1, &p_tmp);
 163:..\lvgl\lv_draw/lv_draw_line.c ****                 main_line.sx = -LV_MATH_ABS(main_line.sx);  /*The sign can change if the line becom
 164:..\lvgl\lv_draw/lv_draw_line.c ****             }
 165:..\lvgl\lv_draw/lv_draw_line.c ****         }
 166:..\lvgl\lv_draw/lv_draw_line.c **** #endif
 167:..\lvgl\lv_draw/lv_draw_line.c ****         line_draw_skew(&main_line, dir_ori, mask, style, opa_scale);
 168:..\lvgl\lv_draw/lv_draw_line.c ****     }
 169:..\lvgl\lv_draw/lv_draw_line.c **** }
 170:..\lvgl\lv_draw/lv_draw_line.c **** 
 171:..\lvgl\lv_draw/lv_draw_line.c **** 
 172:..\lvgl\lv_draw/lv_draw_line.c **** /**********************
 173:..\lvgl\lv_draw/lv_draw_line.c ****  *   STATIC FUNCTIONS
 174:..\lvgl\lv_draw/lv_draw_line.c ****  **********************/
 175:..\lvgl\lv_draw/lv_draw_line.c **** 
 176:..\lvgl\lv_draw/lv_draw_line.c **** 
 177:..\lvgl\lv_draw/lv_draw_line.c **** static void line_draw_hor(line_draw_t * main_line, const lv_area_t * mask, const lv_style_t * style
 178:..\lvgl\lv_draw/lv_draw_line.c **** {
  27              		.loc 1 178 0
  28              		.cfi_startproc
  29              		@ args = 0, pretend = 0, frame = 8
  30              		@ frame_needed = 0, uses_anonymous_args = 0
  31              	.LVL0:
  32 0000 F0B5     		push	{r4, r5, r6, r7, lr}
  33              		.cfi_def_cfa_offset 20
  34              		.cfi_offset 4, -20
  35              		.cfi_offset 5, -16
  36              		.cfi_offset 6, -12
  37              		.cfi_offset 7, -8
  38              		.cfi_offset 14, -4
  39 0002 83B0     		sub	sp, sp, #12
  40              		.cfi_def_cfa_offset 32
 179:..\lvgl\lv_draw/lv_draw_line.c ****     lv_coord_t width = style->line.width - 1;
  41              		.loc 1 179 0
  42 0004 B2F93250 		ldrsh	r5, [r2, #50]
  43 0008 013D     		subs	r5, r5, #1
  44 000a 2DB2     		sxth	r5, r5
  45              	.LVL1:
 180:..\lvgl\lv_draw/lv_draw_line.c ****     lv_coord_t width_half = width >> 1;
  46              		.loc 1 180 0
  47 000c 6C10     		asrs	r4, r5, #1
  48              	.LVL2:
ARM GAS  C:\Users\d3bug\AppData\Local\Temp\ccg1LD4z.s 			page 5


 181:..\lvgl\lv_draw/lv_draw_line.c ****     lv_coord_t width_1 = width & 0x1;
  49              		.loc 1 181 0
  50 000e 05F00106 		and	r6, r5, #1
  51              	.LVL3:
 182:..\lvgl\lv_draw/lv_draw_line.c ****     lv_opa_t opa = opa_scale == LV_OPA_COVER ? style->line.opa : (uint16_t)((uint16_t) style->line.
  52              		.loc 1 182 0
  53 0012 FF2B     		cmp	r3, #255
  54 0014 02D1     		bne	.L2
  55              		.loc 1 182 0 is_stmt 0 discriminator 1
  56 0016 92F83430 		ldrb	r3, [r2, #52]	@ zero_extendqisi2
  57              	.LVL4:
  58 001a 05E0     		b	.L3
  59              	.LVL5:
  60              	.L2:
  61              		.loc 1 182 0 discriminator 2
  62 001c 92F83450 		ldrb	r5, [r2, #52]	@ zero_extendqisi2
  63              	.LVL6:
  64 0020 05FB03F3 		mul	r3, r5, r3
  65              	.LVL7:
  66 0024 C3F30723 		ubfx	r3, r3, #8, #8
  67              	.L3:
  68              	.LVL8:
 183:..\lvgl\lv_draw/lv_draw_line.c **** 
 184:..\lvgl\lv_draw/lv_draw_line.c ****     lv_area_t act_area;
 185:..\lvgl\lv_draw/lv_draw_line.c ****     act_area.x1 = main_line->p1.x;
  69              		.loc 1 185 0 is_stmt 1 discriminator 4
  70 0028 B0F900E0 		ldrsh	lr, [r0]
 186:..\lvgl\lv_draw/lv_draw_line.c ****     act_area.x2 = main_line->p2.x;
  71              		.loc 1 186 0 discriminator 4
  72 002c B0F90470 		ldrsh	r7, [r0, #4]
 187:..\lvgl\lv_draw/lv_draw_line.c ****     act_area.y1 = main_line->p1.y - width_half - width_1;
  73              		.loc 1 187 0 discriminator 4
  74 0030 B0F90250 		ldrsh	r5, [r0, #2]
  75 0034 1FFA84FC 		uxth	ip, r4
  76 0038 CCEB0505 		rsb	r5, ip, r5
  77 003c AD1B     		subs	r5, r5, r6
  78 003e 2DB2     		sxth	r5, r5
 188:..\lvgl\lv_draw/lv_draw_line.c ****     act_area.y2 = main_line->p2.y + width_half ;
  79              		.loc 1 188 0 discriminator 4
  80 0040 B0F90640 		ldrsh	r4, [r0, #6]
  81              	.LVL9:
  82 0044 6444     		add	r4, r4, ip
  83 0046 20B2     		sxth	r0, r4
  84              	.LVL10:
 189:..\lvgl\lv_draw/lv_draw_line.c **** 
 190:..\lvgl\lv_draw/lv_draw_line.c ****     lv_area_t draw_area;
 191:..\lvgl\lv_draw/lv_draw_line.c ****     draw_area.x1 = LV_MATH_MIN(act_area.x1, act_area.x2);
  85              		.loc 1 191 0 discriminator 4
  86 0048 7446     		mov	r4, lr
  87 004a BE45     		cmp	lr, r7
  88 004c A8BF     		it	ge
  89 004e 3C46     		movge	r4, r7
  90 0050 ADF80040 		strh	r4, [sp]	@ movhi
 192:..\lvgl\lv_draw/lv_draw_line.c ****     draw_area.x2 = LV_MATH_MAX(act_area.x1, act_area.x2);
  91              		.loc 1 192 0 discriminator 4
  92 0054 7745     		cmp	r7, lr
  93 0056 B8BF     		it	lt
ARM GAS  C:\Users\d3bug\AppData\Local\Temp\ccg1LD4z.s 			page 6


  94 0058 7746     		movlt	r7, lr
  95 005a ADF80470 		strh	r7, [sp, #4]	@ movhi
 193:..\lvgl\lv_draw/lv_draw_line.c ****     draw_area.y1 = LV_MATH_MIN(act_area.y1, act_area.y2);
  96              		.loc 1 193 0 discriminator 4
  97 005e 2C46     		mov	r4, r5
  98 0060 8542     		cmp	r5, r0
  99 0062 A8BF     		it	ge
 100 0064 0446     		movge	r4, r0
 101 0066 ADF80240 		strh	r4, [sp, #2]	@ movhi
 194:..\lvgl\lv_draw/lv_draw_line.c ****     draw_area.y2 = LV_MATH_MAX(act_area.y1, act_area.y2);
 102              		.loc 1 194 0 discriminator 4
 103 006a A842     		cmp	r0, r5
 104 006c B8BF     		it	lt
 105 006e 2846     		movlt	r0, r5
 106 0070 ADF80600 		strh	r0, [sp, #6]	@ movhi
 195:..\lvgl\lv_draw/lv_draw_line.c ****     fill_fp(&draw_area, mask, style->line.color, opa);
 107              		.loc 1 195 0 discriminator 4
 108 0074 0348     		ldr	r0, .L5
 109 0076 0468     		ldr	r4, [r0]
 110 0078 92F83020 		ldrb	r2, [r2, #48]	@ zero_extendqisi2
 111              	.LVL11:
 112 007c 6846     		mov	r0, sp
 113 007e A047     		blx	r4
 114              	.LVL12:
 196:..\lvgl\lv_draw/lv_draw_line.c **** }
 115              		.loc 1 196 0 discriminator 4
 116 0080 03B0     		add	sp, sp, #12
 117              		.cfi_def_cfa_offset 20
 118              		@ sp needed
 119 0082 F0BD     		pop	{r4, r5, r6, r7, pc}
 120              	.LVL13:
 121              	.L6:
 122              		.align	2
 123              	.L5:
 124 0084 00000000 		.word	fill_fp
 125              		.cfi_endproc
 126              	.LFE14:
 127              		.size	line_draw_hor, .-line_draw_hor
 128              		.section	.text.line_draw_ver,"ax",%progbits
 129              		.align	2
 130              		.thumb
 131              		.thumb_func
 132              		.type	line_draw_ver, %function
 133              	line_draw_ver:
 134              	.LFB15:
 197:..\lvgl\lv_draw/lv_draw_line.c **** 
 198:..\lvgl\lv_draw/lv_draw_line.c **** static void line_draw_ver(line_draw_t * main_line, const lv_area_t * mask, const lv_style_t * style
 199:..\lvgl\lv_draw/lv_draw_line.c **** {
 135              		.loc 1 199 0
 136              		.cfi_startproc
 137              		@ args = 0, pretend = 0, frame = 8
 138              		@ frame_needed = 0, uses_anonymous_args = 0
 139              	.LVL14:
 140 0000 F0B5     		push	{r4, r5, r6, r7, lr}
 141              		.cfi_def_cfa_offset 20
 142              		.cfi_offset 4, -20
 143              		.cfi_offset 5, -16
ARM GAS  C:\Users\d3bug\AppData\Local\Temp\ccg1LD4z.s 			page 7


 144              		.cfi_offset 6, -12
 145              		.cfi_offset 7, -8
 146              		.cfi_offset 14, -4
 147 0002 83B0     		sub	sp, sp, #12
 148              		.cfi_def_cfa_offset 32
 200:..\lvgl\lv_draw/lv_draw_line.c ****     lv_coord_t width = style->line.width - 1;
 149              		.loc 1 200 0
 150 0004 B2F93240 		ldrsh	r4, [r2, #50]
 151 0008 013C     		subs	r4, r4, #1
 152 000a 24B2     		sxth	r4, r4
 153              	.LVL15:
 201:..\lvgl\lv_draw/lv_draw_line.c ****     lv_coord_t width_half = width >> 1;
 154              		.loc 1 201 0
 155 000c 6510     		asrs	r5, r4, #1
 156              	.LVL16:
 202:..\lvgl\lv_draw/lv_draw_line.c ****     lv_coord_t width_1 = width & 0x1;
 157              		.loc 1 202 0
 158 000e 04F00104 		and	r4, r4, #1
 159              	.LVL17:
 203:..\lvgl\lv_draw/lv_draw_line.c ****     lv_opa_t opa = opa_scale == LV_OPA_COVER ? style->line.opa : (uint16_t)((uint16_t) style->line.
 160              		.loc 1 203 0
 161 0012 FF2B     		cmp	r3, #255
 162 0014 02D1     		bne	.L8
 163              		.loc 1 203 0 is_stmt 0 discriminator 1
 164 0016 92F83430 		ldrb	r3, [r2, #52]	@ zero_extendqisi2
 165              	.LVL18:
 166 001a 05E0     		b	.L9
 167              	.LVL19:
 168              	.L8:
 169              		.loc 1 203 0 discriminator 2
 170 001c 92F83460 		ldrb	r6, [r2, #52]	@ zero_extendqisi2
 171 0020 06FB03F3 		mul	r3, r6, r3
 172              	.LVL20:
 173 0024 C3F30723 		ubfx	r3, r3, #8, #8
 174              	.L9:
 175              	.LVL21:
 204:..\lvgl\lv_draw/lv_draw_line.c **** 
 205:..\lvgl\lv_draw/lv_draw_line.c **** 
 206:..\lvgl\lv_draw/lv_draw_line.c ****     lv_area_t act_area;
 207:..\lvgl\lv_draw/lv_draw_line.c ****     act_area.x1 = main_line->p1.x - width_half;
 176              		.loc 1 207 0 is_stmt 1 discriminator 4
 177 0028 B0F90060 		ldrsh	r6, [r0]
 178 002c ADB2     		uxth	r5, r5
 179 002e 761B     		subs	r6, r6, r5
 180 0030 36B2     		sxth	r6, r6
 208:..\lvgl\lv_draw/lv_draw_line.c ****     act_area.x2 = main_line->p2.x + width_half + width_1;
 181              		.loc 1 208 0 discriminator 4
 182 0032 B0F90470 		ldrsh	r7, [r0, #4]
 183 0036 3D44     		add	r5, r5, r7
 184              	.LVL22:
 185 0038 2544     		add	r5, r5, r4
 186 003a 2CB2     		sxth	r4, r5
 187              	.LVL23:
 209:..\lvgl\lv_draw/lv_draw_line.c ****     act_area.y1 = main_line->p1.y;
 188              		.loc 1 209 0 discriminator 4
 189 003c B0F90250 		ldrsh	r5, [r0, #2]
 210:..\lvgl\lv_draw/lv_draw_line.c ****     act_area.y2 = main_line->p2.y;
ARM GAS  C:\Users\d3bug\AppData\Local\Temp\ccg1LD4z.s 			page 8


 190              		.loc 1 210 0 discriminator 4
 191 0040 B0F90600 		ldrsh	r0, [r0, #6]
 192              	.LVL24:
 211:..\lvgl\lv_draw/lv_draw_line.c **** 
 212:..\lvgl\lv_draw/lv_draw_line.c ****     lv_area_t draw_area;
 213:..\lvgl\lv_draw/lv_draw_line.c ****     draw_area.x1 = LV_MATH_MIN(act_area.x1, act_area.x2);
 193              		.loc 1 213 0 discriminator 4
 194 0044 3746     		mov	r7, r6
 195 0046 A642     		cmp	r6, r4
 196 0048 A8BF     		it	ge
 197 004a 2746     		movge	r7, r4
 198 004c ADF80070 		strh	r7, [sp]	@ movhi
 214:..\lvgl\lv_draw/lv_draw_line.c ****     draw_area.x2 = LV_MATH_MAX(act_area.x1, act_area.x2);
 199              		.loc 1 214 0 discriminator 4
 200 0050 B442     		cmp	r4, r6
 201 0052 B8BF     		it	lt
 202 0054 3446     		movlt	r4, r6
 203 0056 ADF80440 		strh	r4, [sp, #4]	@ movhi
 215:..\lvgl\lv_draw/lv_draw_line.c ****     draw_area.y1 = LV_MATH_MIN(act_area.y1, act_area.y2);
 204              		.loc 1 215 0 discriminator 4
 205 005a 2C46     		mov	r4, r5
 206 005c 8542     		cmp	r5, r0
 207 005e A8BF     		it	ge
 208 0060 0446     		movge	r4, r0
 209 0062 ADF80240 		strh	r4, [sp, #2]	@ movhi
 216:..\lvgl\lv_draw/lv_draw_line.c ****     draw_area.y2 = LV_MATH_MAX(act_area.y1, act_area.y2);
 210              		.loc 1 216 0 discriminator 4
 211 0066 A842     		cmp	r0, r5
 212 0068 B8BF     		it	lt
 213 006a 2846     		movlt	r0, r5
 214 006c ADF80600 		strh	r0, [sp, #6]	@ movhi
 217:..\lvgl\lv_draw/lv_draw_line.c ****     fill_fp(&draw_area, mask, style->line.color, opa);
 215              		.loc 1 217 0 discriminator 4
 216 0070 0348     		ldr	r0, .L11
 217 0072 0468     		ldr	r4, [r0]
 218 0074 92F83020 		ldrb	r2, [r2, #48]	@ zero_extendqisi2
 219              	.LVL25:
 220 0078 6846     		mov	r0, sp
 221 007a A047     		blx	r4
 222              	.LVL26:
 218:..\lvgl\lv_draw/lv_draw_line.c **** }
 223              		.loc 1 218 0 discriminator 4
 224 007c 03B0     		add	sp, sp, #12
 225              		.cfi_def_cfa_offset 20
 226              		@ sp needed
 227 007e F0BD     		pop	{r4, r5, r6, r7, pc}
 228              	.L12:
 229              		.align	2
 230              	.L11:
 231 0080 00000000 		.word	fill_fp
 232              		.cfi_endproc
 233              	.LFE15:
 234              		.size	line_draw_ver, .-line_draw_ver
 235              		.section	.text.line_init,"ax",%progbits
 236              		.align	2
 237              		.thumb
 238              		.thumb_func
ARM GAS  C:\Users\d3bug\AppData\Local\Temp\ccg1LD4z.s 			page 9


 239              		.type	line_init, %function
 240              	line_init:
 241              	.LFB17:
 219:..\lvgl\lv_draw/lv_draw_line.c **** 
 220:..\lvgl\lv_draw/lv_draw_line.c **** static void line_draw_skew(line_draw_t * main_line, bool dir_ori, const lv_area_t * mask, const lv_
 221:..\lvgl\lv_draw/lv_draw_line.c **** {
 222:..\lvgl\lv_draw/lv_draw_line.c **** 
 223:..\lvgl\lv_draw/lv_draw_line.c ****     lv_opa_t opa = opa_scale == LV_OPA_COVER ? style->line.opa : (uint16_t)((uint16_t) style->line.
 224:..\lvgl\lv_draw/lv_draw_line.c **** 
 225:..\lvgl\lv_draw/lv_draw_line.c ****     lv_point_t vect_main, vect_norm;
 226:..\lvgl\lv_draw/lv_draw_line.c ****     vect_main.x = main_line->p2.x - main_line->p1.x;
 227:..\lvgl\lv_draw/lv_draw_line.c ****     vect_main.y = main_line->p2.y - main_line->p1.y;
 228:..\lvgl\lv_draw/lv_draw_line.c **** 
 229:..\lvgl\lv_draw/lv_draw_line.c ****     if(main_line->hor) {
 230:..\lvgl\lv_draw/lv_draw_line.c ****         if(main_line->p1.y < main_line->p2.y + dir_ori) {
 231:..\lvgl\lv_draw/lv_draw_line.c ****             vect_norm.x = - vect_main.y;
 232:..\lvgl\lv_draw/lv_draw_line.c ****             vect_norm.y = vect_main.x;
 233:..\lvgl\lv_draw/lv_draw_line.c ****         } else {
 234:..\lvgl\lv_draw/lv_draw_line.c ****             vect_norm.x = vect_main.y;
 235:..\lvgl\lv_draw/lv_draw_line.c ****             vect_norm.y = -vect_main.x;
 236:..\lvgl\lv_draw/lv_draw_line.c ****         }
 237:..\lvgl\lv_draw/lv_draw_line.c ****     } else {
 238:..\lvgl\lv_draw/lv_draw_line.c ****         if(main_line->p1.x < main_line->p2.x + dir_ori) {
 239:..\lvgl\lv_draw/lv_draw_line.c ****             vect_norm.x = vect_main.y;
 240:..\lvgl\lv_draw/lv_draw_line.c ****             vect_norm.y = - vect_main.x;
 241:..\lvgl\lv_draw/lv_draw_line.c ****         } else {
 242:..\lvgl\lv_draw/lv_draw_line.c ****             vect_norm.x = - vect_main.y;
 243:..\lvgl\lv_draw/lv_draw_line.c ****             vect_norm.y = vect_main.x;
 244:..\lvgl\lv_draw/lv_draw_line.c ****         }
 245:..\lvgl\lv_draw/lv_draw_line.c ****     }
 246:..\lvgl\lv_draw/lv_draw_line.c **** 
 247:..\lvgl\lv_draw/lv_draw_line.c ****     /* In case of a short but tick line the perpendicular ending is longer then the real line.
 248:..\lvgl\lv_draw/lv_draw_line.c ****      * it would break the calculations so make the normal vector larger*/
 249:..\lvgl\lv_draw/lv_draw_line.c ****     vect_norm.x = vect_norm.x << 4;
 250:..\lvgl\lv_draw/lv_draw_line.c ****     vect_norm.y = vect_norm.y << 4;
 251:..\lvgl\lv_draw/lv_draw_line.c **** 
 252:..\lvgl\lv_draw/lv_draw_line.c ****     lv_coord_t width;
 253:..\lvgl\lv_draw/lv_draw_line.c ****     width = style->line.width;
 254:..\lvgl\lv_draw/lv_draw_line.c **** 
 255:..\lvgl\lv_draw/lv_draw_line.c ****     /* The pattern stores the points of the line ending. It has the good direction and length.
 256:..\lvgl\lv_draw/lv_draw_line.c ****      * The worth case is the 45° line where pattern can have 1.41 x `width` points*/
 257:..\lvgl\lv_draw/lv_draw_line.c **** #if LV_COMPILER_VLA_SUPPORTED
 258:..\lvgl\lv_draw/lv_draw_line.c ****     lv_point_t pattern[width * 2];
 259:..\lvgl\lv_draw/lv_draw_line.c **** #else
 260:..\lvgl\lv_draw/lv_draw_line.c ****     lv_point_t pattern[LINE_MAX_WIDTH];
 261:..\lvgl\lv_draw/lv_draw_line.c **** #endif
 262:..\lvgl\lv_draw/lv_draw_line.c ****     lv_coord_t i = 0;
 263:..\lvgl\lv_draw/lv_draw_line.c **** 
 264:..\lvgl\lv_draw/lv_draw_line.c ****     /*Create a perpendicular pattern (a small line)*/
 265:..\lvgl\lv_draw/lv_draw_line.c ****     if(width != 0) {
 266:..\lvgl\lv_draw/lv_draw_line.c ****         line_draw_t pattern_line;
 267:..\lvgl\lv_draw/lv_draw_line.c ****         lv_point_t p0 = {0, 0};
 268:..\lvgl\lv_draw/lv_draw_line.c ****         line_init(&pattern_line, &p0, &vect_norm);
 269:..\lvgl\lv_draw/lv_draw_line.c **** 
 270:..\lvgl\lv_draw/lv_draw_line.c ****         uint32_t width_sqr = width * width;
 271:..\lvgl\lv_draw/lv_draw_line.c ****         /* Run for a lot of times. Meanwhile the real width will be determined as well */
 272:..\lvgl\lv_draw/lv_draw_line.c ****         for(i = 0; i < (lv_coord_t)sizeof(pattern); i ++) {
ARM GAS  C:\Users\d3bug\AppData\Local\Temp\ccg1LD4z.s 			page 10


 273:..\lvgl\lv_draw/lv_draw_line.c ****             pattern[i].x = pattern_line.p_act.x;
 274:..\lvgl\lv_draw/lv_draw_line.c ****             pattern[i].y = pattern_line.p_act.y;
 275:..\lvgl\lv_draw/lv_draw_line.c **** 
 276:..\lvgl\lv_draw/lv_draw_line.c ****             /*Finish the pattern line if it's length equal to the desired width (Use Pythagoras the
 277:..\lvgl\lv_draw/lv_draw_line.c ****             uint32_t  sqr = pattern_line.p_act.x * pattern_line.p_act.x + pattern_line.p_act.y * pa
 278:..\lvgl\lv_draw/lv_draw_line.c ****             if(sqr >= width_sqr) {
 279:..\lvgl\lv_draw/lv_draw_line.c ****                 width = i;
 280:..\lvgl\lv_draw/lv_draw_line.c **** #if LV_ANTIALIAS
 281:..\lvgl\lv_draw/lv_draw_line.c ****                 width--;
 282:..\lvgl\lv_draw/lv_draw_line.c **** #endif
 283:..\lvgl\lv_draw/lv_draw_line.c ****                 break;
 284:..\lvgl\lv_draw/lv_draw_line.c ****             }
 285:..\lvgl\lv_draw/lv_draw_line.c **** 
 286:..\lvgl\lv_draw/lv_draw_line.c ****             line_next(&pattern_line);
 287:..\lvgl\lv_draw/lv_draw_line.c ****         }
 288:..\lvgl\lv_draw/lv_draw_line.c ****     }
 289:..\lvgl\lv_draw/lv_draw_line.c **** 
 290:..\lvgl\lv_draw/lv_draw_line.c **** #if LV_ANTIALIAS
 291:..\lvgl\lv_draw/lv_draw_line.c ****     lv_coord_t width_safe = width;
 292:..\lvgl\lv_draw/lv_draw_line.c ****     if(width == 0) width_safe = 1;
 293:..\lvgl\lv_draw/lv_draw_line.c **** 
 294:..\lvgl\lv_draw/lv_draw_line.c ****     lv_coord_t aa_last_corner;
 295:..\lvgl\lv_draw/lv_draw_line.c ****     aa_last_corner = 0;
 296:..\lvgl\lv_draw/lv_draw_line.c **** #endif
 297:..\lvgl\lv_draw/lv_draw_line.c **** 
 298:..\lvgl\lv_draw/lv_draw_line.c ****     lv_coord_t x_center_ofs = 0;
 299:..\lvgl\lv_draw/lv_draw_line.c ****     lv_coord_t y_center_ofs = 0;
 300:..\lvgl\lv_draw/lv_draw_line.c **** 
 301:..\lvgl\lv_draw/lv_draw_line.c ****     if(width != 0) {
 302:..\lvgl\lv_draw/lv_draw_line.c ****         x_center_ofs = pattern[width - 1].x / 2;
 303:..\lvgl\lv_draw/lv_draw_line.c ****         y_center_ofs = pattern[width - 1].y / 2;
 304:..\lvgl\lv_draw/lv_draw_line.c ****     }
 305:..\lvgl\lv_draw/lv_draw_line.c ****     else {
 306:..\lvgl\lv_draw/lv_draw_line.c ****         if(main_line->hor && main_line->p1.y >= main_line->p2.y + dir_ori) pattern[0].y --;
 307:..\lvgl\lv_draw/lv_draw_line.c ****         if(!main_line->hor && main_line->p1.x >= main_line->p2.x + dir_ori) pattern[0].x --;
 308:..\lvgl\lv_draw/lv_draw_line.c ****     }
 309:..\lvgl\lv_draw/lv_draw_line.c **** 
 310:..\lvgl\lv_draw/lv_draw_line.c ****     /* Make the coordinates relative to the center */
 311:..\lvgl\lv_draw/lv_draw_line.c ****     for(i = 0; i < width; i++) {
 312:..\lvgl\lv_draw/lv_draw_line.c ****         pattern[i].x -= x_center_ofs;
 313:..\lvgl\lv_draw/lv_draw_line.c ****         pattern[i].y -= y_center_ofs;
 314:..\lvgl\lv_draw/lv_draw_line.c **** #if LV_ANTIALIAS
 315:..\lvgl\lv_draw/lv_draw_line.c ****         if(i != 0) {
 316:..\lvgl\lv_draw/lv_draw_line.c ****             if(main_line->hor) {
 317:..\lvgl\lv_draw/lv_draw_line.c ****                 if(pattern[i - 1].x != pattern[i].x) {
 318:..\lvgl\lv_draw/lv_draw_line.c ****                     lv_coord_t seg_w = pattern[i].y - pattern[aa_last_corner].y;
 319:..\lvgl\lv_draw/lv_draw_line.c ****                     if(main_line->sy < 0) {
 320:..\lvgl\lv_draw/lv_draw_line.c ****                         lv_draw_aa_ver_seg(main_line->p1.x + pattern[aa_last_corner].x - 1, main_li
 321:..\lvgl\lv_draw/lv_draw_line.c ****                                 seg_w, mask, style->line.color, opa);
 322:..\lvgl\lv_draw/lv_draw_line.c **** 
 323:..\lvgl\lv_draw/lv_draw_line.c ****                         lv_draw_aa_ver_seg(main_line->p2.x + pattern[aa_last_corner].x + 1, main_li
 324:..\lvgl\lv_draw/lv_draw_line.c ****                                 -seg_w, mask, style->line.color, opa);
 325:..\lvgl\lv_draw/lv_draw_line.c ****                     } else {
 326:..\lvgl\lv_draw/lv_draw_line.c ****                         lv_draw_aa_ver_seg(main_line->p1.x + pattern[aa_last_corner].x - 1, main_li
 327:..\lvgl\lv_draw/lv_draw_line.c ****                                 seg_w, mask, style->line.color, opa);
 328:..\lvgl\lv_draw/lv_draw_line.c **** 
 329:..\lvgl\lv_draw/lv_draw_line.c ****                         lv_draw_aa_ver_seg(main_line->p2.x + pattern[aa_last_corner].x + 1, main_li
ARM GAS  C:\Users\d3bug\AppData\Local\Temp\ccg1LD4z.s 			page 11


 330:..\lvgl\lv_draw/lv_draw_line.c ****                                 -seg_w, mask, style->line.color, opa);
 331:..\lvgl\lv_draw/lv_draw_line.c ****                     }
 332:..\lvgl\lv_draw/lv_draw_line.c ****                     aa_last_corner = i;
 333:..\lvgl\lv_draw/lv_draw_line.c ****                 }
 334:..\lvgl\lv_draw/lv_draw_line.c ****             } else {
 335:..\lvgl\lv_draw/lv_draw_line.c ****                 if(pattern[i - 1].y != pattern[i].y) {
 336:..\lvgl\lv_draw/lv_draw_line.c ****                     lv_coord_t seg_w = pattern[i].x - pattern[aa_last_corner].x;
 337:..\lvgl\lv_draw/lv_draw_line.c ****                     if(main_line->sx < 0) {
 338:..\lvgl\lv_draw/lv_draw_line.c ****                         lv_draw_aa_hor_seg(main_line->p1.x + pattern[aa_last_corner].x + seg_w + 1,
 339:..\lvgl\lv_draw/lv_draw_line.c ****                                 seg_w, mask, style->line.color, opa);
 340:..\lvgl\lv_draw/lv_draw_line.c **** 
 341:..\lvgl\lv_draw/lv_draw_line.c ****                         lv_draw_aa_hor_seg(main_line->p2.x + pattern[aa_last_corner].x + seg_w + 1,
 342:..\lvgl\lv_draw/lv_draw_line.c ****                                 -seg_w, mask, style->line.color, opa);
 343:..\lvgl\lv_draw/lv_draw_line.c ****                     } else {
 344:..\lvgl\lv_draw/lv_draw_line.c ****                         lv_draw_aa_hor_seg(main_line->p1.x + pattern[aa_last_corner].x, main_line->
 345:..\lvgl\lv_draw/lv_draw_line.c ****                                 seg_w, mask, style->line.color, opa);
 346:..\lvgl\lv_draw/lv_draw_line.c **** 
 347:..\lvgl\lv_draw/lv_draw_line.c ****                         lv_draw_aa_hor_seg(main_line->p2.x + pattern[aa_last_corner].x, main_line->
 348:..\lvgl\lv_draw/lv_draw_line.c ****                                 -seg_w, mask, style->line.color, opa);
 349:..\lvgl\lv_draw/lv_draw_line.c ****                     }
 350:..\lvgl\lv_draw/lv_draw_line.c ****                     aa_last_corner = i;
 351:..\lvgl\lv_draw/lv_draw_line.c ****                 }
 352:..\lvgl\lv_draw/lv_draw_line.c ****             }
 353:..\lvgl\lv_draw/lv_draw_line.c **** 
 354:..\lvgl\lv_draw/lv_draw_line.c ****         }
 355:..\lvgl\lv_draw/lv_draw_line.c **** #endif
 356:..\lvgl\lv_draw/lv_draw_line.c ****     }
 357:..\lvgl\lv_draw/lv_draw_line.c **** 
 358:..\lvgl\lv_draw/lv_draw_line.c **** 
 359:..\lvgl\lv_draw/lv_draw_line.c **** 
 360:..\lvgl\lv_draw/lv_draw_line.c **** #if LV_ANTIALIAS
 361:..\lvgl\lv_draw/lv_draw_line.c ****     /*Add the last part of anti-aliasing for the perpendicular ending*/
 362:..\lvgl\lv_draw/lv_draw_line.c ****     if(width != 0) {    /*Due to rounding error with very thin lines it looks ugly*/
 363:..\lvgl\lv_draw/lv_draw_line.c ****         if(main_line->hor) {
 364:..\lvgl\lv_draw/lv_draw_line.c ****             lv_coord_t seg_w = pattern[width_safe - 1].y - pattern[aa_last_corner].y;
 365:..\lvgl\lv_draw/lv_draw_line.c ****             if(main_line->sy < 0) {
 366:..\lvgl\lv_draw/lv_draw_line.c ****                 lv_draw_aa_ver_seg(main_line->p1.x + pattern[aa_last_corner].x - 1, main_line->p1.y
 367:..\lvgl\lv_draw/lv_draw_line.c ****                         seg_w + main_line->sy, mask, style->line.color, opa);
 368:..\lvgl\lv_draw/lv_draw_line.c **** 
 369:..\lvgl\lv_draw/lv_draw_line.c ****                 lv_draw_aa_ver_seg(main_line->p2.x + pattern[aa_last_corner].x + 1, main_line->p2.y
 370:..\lvgl\lv_draw/lv_draw_line.c ****                         -(seg_w + main_line->sy), mask, style->line.color, opa);
 371:..\lvgl\lv_draw/lv_draw_line.c **** 
 372:..\lvgl\lv_draw/lv_draw_line.c ****             } else {
 373:..\lvgl\lv_draw/lv_draw_line.c ****                 lv_draw_aa_ver_seg(main_line->p1.x + pattern[aa_last_corner].x - 1, main_line->p1.y
 374:..\lvgl\lv_draw/lv_draw_line.c ****                         seg_w + main_line->sy, mask, style->line.color, opa);
 375:..\lvgl\lv_draw/lv_draw_line.c **** 
 376:..\lvgl\lv_draw/lv_draw_line.c ****                 lv_draw_aa_ver_seg(main_line->p2.x + pattern[aa_last_corner].x + 1, main_line->p2.y
 377:..\lvgl\lv_draw/lv_draw_line.c ****                         -(seg_w + main_line->sy), mask, style->line.color, opa);
 378:..\lvgl\lv_draw/lv_draw_line.c ****             }
 379:..\lvgl\lv_draw/lv_draw_line.c ****         } else {
 380:..\lvgl\lv_draw/lv_draw_line.c ****             lv_coord_t seg_w = pattern[width_safe - 1].x - pattern[aa_last_corner].x;
 381:..\lvgl\lv_draw/lv_draw_line.c ****             if(main_line->sx < 0) {
 382:..\lvgl\lv_draw/lv_draw_line.c ****                 lv_draw_aa_hor_seg(main_line->p1.x + pattern[aa_last_corner].x + seg_w, main_line->
 383:..\lvgl\lv_draw/lv_draw_line.c ****                         seg_w + main_line->sx, mask, style->line.color, opa);
 384:..\lvgl\lv_draw/lv_draw_line.c **** 
 385:..\lvgl\lv_draw/lv_draw_line.c ****                 lv_draw_aa_hor_seg(main_line->p2.x + pattern[aa_last_corner].x + seg_w, main_line->
 386:..\lvgl\lv_draw/lv_draw_line.c ****                         -(seg_w + main_line->sx), mask, style->line.color, opa);
ARM GAS  C:\Users\d3bug\AppData\Local\Temp\ccg1LD4z.s 			page 12


 387:..\lvgl\lv_draw/lv_draw_line.c **** 
 388:..\lvgl\lv_draw/lv_draw_line.c ****             } else {
 389:..\lvgl\lv_draw/lv_draw_line.c ****                 lv_draw_aa_hor_seg(main_line->p1.x + pattern[aa_last_corner].x, main_line->p1.y + p
 390:..\lvgl\lv_draw/lv_draw_line.c ****                         seg_w + main_line->sx, mask, style->line.color, opa);
 391:..\lvgl\lv_draw/lv_draw_line.c **** 
 392:..\lvgl\lv_draw/lv_draw_line.c ****                 lv_draw_aa_hor_seg(main_line->p2.x + pattern[aa_last_corner].x, main_line->p2.y + p
 393:..\lvgl\lv_draw/lv_draw_line.c ****                         -(seg_w + main_line->sx), mask, style->line.color, opa);
 394:..\lvgl\lv_draw/lv_draw_line.c ****             }
 395:..\lvgl\lv_draw/lv_draw_line.c **** 
 396:..\lvgl\lv_draw/lv_draw_line.c ****         }
 397:..\lvgl\lv_draw/lv_draw_line.c ****     }
 398:..\lvgl\lv_draw/lv_draw_line.c **** #endif
 399:..\lvgl\lv_draw/lv_draw_line.c **** 
 400:..\lvgl\lv_draw/lv_draw_line.c **** #if LV_ANTIALIAS
 401:..\lvgl\lv_draw/lv_draw_line.c **** 
 402:..\lvgl\lv_draw/lv_draw_line.c ****     /*Shift the anti aliasing on the edges (-1, 1 or 0 (zero only in case width == 0))*/
 403:..\lvgl\lv_draw/lv_draw_line.c ****     lv_coord_t aa_shift1;
 404:..\lvgl\lv_draw/lv_draw_line.c ****     lv_coord_t aa_shift2;
 405:..\lvgl\lv_draw/lv_draw_line.c **** 
 406:..\lvgl\lv_draw/lv_draw_line.c ****     if(main_line->hor == false) {
 407:..\lvgl\lv_draw/lv_draw_line.c ****         if(main_line->sx < 0) {
 408:..\lvgl\lv_draw/lv_draw_line.c ****             aa_shift1 = -1;
 409:..\lvgl\lv_draw/lv_draw_line.c ****             aa_shift2 = width == 0 ? 0 : aa_shift1;
 410:..\lvgl\lv_draw/lv_draw_line.c ****         } else {
 411:..\lvgl\lv_draw/lv_draw_line.c ****             aa_shift2 = 1;
 412:..\lvgl\lv_draw/lv_draw_line.c ****             aa_shift1 = width == 0 ? 0 : aa_shift2;
 413:..\lvgl\lv_draw/lv_draw_line.c ****         }
 414:..\lvgl\lv_draw/lv_draw_line.c ****     } else {
 415:..\lvgl\lv_draw/lv_draw_line.c ****         if(main_line->sy < 0) {
 416:..\lvgl\lv_draw/lv_draw_line.c ****             aa_shift1 = -1;
 417:..\lvgl\lv_draw/lv_draw_line.c ****             aa_shift2 = width == 0 ? 0 : aa_shift1;
 418:..\lvgl\lv_draw/lv_draw_line.c ****         } else {
 419:..\lvgl\lv_draw/lv_draw_line.c ****             aa_shift2 = 1;
 420:..\lvgl\lv_draw/lv_draw_line.c ****             aa_shift1 = width == 0 ? 0 : aa_shift2;
 421:..\lvgl\lv_draw/lv_draw_line.c ****         }
 422:..\lvgl\lv_draw/lv_draw_line.c ****     }
 423:..\lvgl\lv_draw/lv_draw_line.c **** 
 424:..\lvgl\lv_draw/lv_draw_line.c **** #endif
 425:..\lvgl\lv_draw/lv_draw_line.c **** 
 426:..\lvgl\lv_draw/lv_draw_line.c ****     volatile lv_point_t prev_p;
 427:..\lvgl\lv_draw/lv_draw_line.c ****     prev_p.x = main_line->p1.x;
 428:..\lvgl\lv_draw/lv_draw_line.c ****     prev_p.y = main_line->p1.y;
 429:..\lvgl\lv_draw/lv_draw_line.c ****     lv_area_t draw_area;
 430:..\lvgl\lv_draw/lv_draw_line.c ****     bool first_run = true;
 431:..\lvgl\lv_draw/lv_draw_line.c **** 
 432:..\lvgl\lv_draw/lv_draw_line.c ****     if(main_line->hor) {
 433:..\lvgl\lv_draw/lv_draw_line.c ****         while(line_next_y(main_line)) {
 434:..\lvgl\lv_draw/lv_draw_line.c ****             for(i = 0; i < width; i++) {
 435:..\lvgl\lv_draw/lv_draw_line.c ****                 draw_area.x1 = prev_p.x + pattern[i].x;
 436:..\lvgl\lv_draw/lv_draw_line.c ****                 draw_area.y1 = prev_p.y + pattern[i].y;
 437:..\lvgl\lv_draw/lv_draw_line.c ****                 draw_area.x2 = draw_area.x1 + main_line->p_act.x - prev_p.x - 1;
 438:..\lvgl\lv_draw/lv_draw_line.c ****                 draw_area.y2 = draw_area.y1;
 439:..\lvgl\lv_draw/lv_draw_line.c ****                 fill_fp(&draw_area, mask, style->line.color, opa);
 440:..\lvgl\lv_draw/lv_draw_line.c **** 
 441:..\lvgl\lv_draw/lv_draw_line.c ****                 /* Fill the gaps
 442:..\lvgl\lv_draw/lv_draw_line.c ****                  * When stepping in y one pixel remains empty on every corner (don't do this on the
 443:..\lvgl\lv_draw/lv_draw_line.c ****                 if(i != 0 && pattern[i].x != pattern[i - 1].x && !first_run) {
ARM GAS  C:\Users\d3bug\AppData\Local\Temp\ccg1LD4z.s 			page 13


 444:..\lvgl\lv_draw/lv_draw_line.c ****                     px_fp(draw_area.x1, draw_area.y1 - main_line->sy, mask, style->line.color, opa)
 445:..\lvgl\lv_draw/lv_draw_line.c ****                 }
 446:..\lvgl\lv_draw/lv_draw_line.c ****             }
 447:..\lvgl\lv_draw/lv_draw_line.c **** 
 448:..\lvgl\lv_draw/lv_draw_line.c **** #if LV_ANTIALIAS
 449:..\lvgl\lv_draw/lv_draw_line.c ****             lv_draw_aa_hor_seg(prev_p.x + pattern[0].x, prev_p.y + pattern[0].y - aa_shift1,
 450:..\lvgl\lv_draw/lv_draw_line.c ****                     -(main_line->p_act.x - prev_p.x), mask, style->line.color, opa);
 451:..\lvgl\lv_draw/lv_draw_line.c ****             lv_draw_aa_hor_seg(prev_p.x + pattern[width_safe - 1].x, prev_p.y + pattern[width_safe 
 452:..\lvgl\lv_draw/lv_draw_line.c ****                     main_line->p_act.x - prev_p.x, mask, style->line.color, opa);
 453:..\lvgl\lv_draw/lv_draw_line.c **** #endif
 454:..\lvgl\lv_draw/lv_draw_line.c **** 
 455:..\lvgl\lv_draw/lv_draw_line.c ****             first_run = false;
 456:..\lvgl\lv_draw/lv_draw_line.c **** 
 457:..\lvgl\lv_draw/lv_draw_line.c ****             prev_p.x = main_line->p_act.x;
 458:..\lvgl\lv_draw/lv_draw_line.c ****             prev_p.y = main_line->p_act.y;
 459:..\lvgl\lv_draw/lv_draw_line.c ****         }
 460:..\lvgl\lv_draw/lv_draw_line.c **** 
 461:..\lvgl\lv_draw/lv_draw_line.c ****         for(i = 0; i < width; i++) {
 462:..\lvgl\lv_draw/lv_draw_line.c ****             draw_area.x1 = prev_p.x + pattern[i].x;
 463:..\lvgl\lv_draw/lv_draw_line.c ****             draw_area.y1 = prev_p.y + pattern[i].y;
 464:..\lvgl\lv_draw/lv_draw_line.c ****             draw_area.x2 = draw_area.x1 + main_line->p_act.x - prev_p.x;
 465:..\lvgl\lv_draw/lv_draw_line.c ****             draw_area.y2 = draw_area.y1;
 466:..\lvgl\lv_draw/lv_draw_line.c ****             fill_fp(&draw_area, mask, style->line.color, opa);
 467:..\lvgl\lv_draw/lv_draw_line.c **** 
 468:..\lvgl\lv_draw/lv_draw_line.c ****             /* Fill the gaps
 469:..\lvgl\lv_draw/lv_draw_line.c ****              * When stepping in y one pixel remains empty on every corner */
 470:..\lvgl\lv_draw/lv_draw_line.c ****             if(i != 0 && pattern[i].x != pattern[i - 1].x && !first_run) {
 471:..\lvgl\lv_draw/lv_draw_line.c ****                 px_fp(draw_area.x1, draw_area.y1 - main_line->sy, mask, style->line.color, opa);
 472:..\lvgl\lv_draw/lv_draw_line.c ****             }
 473:..\lvgl\lv_draw/lv_draw_line.c ****         }
 474:..\lvgl\lv_draw/lv_draw_line.c **** 
 475:..\lvgl\lv_draw/lv_draw_line.c **** #if LV_ANTIALIAS
 476:..\lvgl\lv_draw/lv_draw_line.c ****         lv_draw_aa_hor_seg(prev_p.x + pattern[0].x, prev_p.y + pattern[0].y - aa_shift1,
 477:..\lvgl\lv_draw/lv_draw_line.c ****                 -(main_line->p_act.x - prev_p.x + 1), mask, style->line.color, opa);
 478:..\lvgl\lv_draw/lv_draw_line.c ****         lv_draw_aa_hor_seg(prev_p.x + pattern[width_safe - 1].x, prev_p.y + pattern[width_safe - 1]
 479:..\lvgl\lv_draw/lv_draw_line.c ****                 main_line->p_act.x - prev_p.x + 1, mask, style->line.color, opa);
 480:..\lvgl\lv_draw/lv_draw_line.c **** #endif
 481:..\lvgl\lv_draw/lv_draw_line.c ****     }
 482:..\lvgl\lv_draw/lv_draw_line.c ****     /*Rather a vertical line*/
 483:..\lvgl\lv_draw/lv_draw_line.c ****     else {
 484:..\lvgl\lv_draw/lv_draw_line.c **** 
 485:..\lvgl\lv_draw/lv_draw_line.c ****         while(line_next_x(main_line)) {
 486:..\lvgl\lv_draw/lv_draw_line.c ****             for(i = 0; i < width; i++) {
 487:..\lvgl\lv_draw/lv_draw_line.c ****                 draw_area.x1 = prev_p.x + pattern[i].x;
 488:..\lvgl\lv_draw/lv_draw_line.c ****                 draw_area.y1 = prev_p.y + pattern[i].y;
 489:..\lvgl\lv_draw/lv_draw_line.c ****                 draw_area.x2 = draw_area.x1;
 490:..\lvgl\lv_draw/lv_draw_line.c ****                 draw_area.y2 = draw_area.y1 + main_line->p_act.y - prev_p.y - 1;
 491:..\lvgl\lv_draw/lv_draw_line.c **** 
 492:..\lvgl\lv_draw/lv_draw_line.c ****                 fill_fp(&draw_area, mask, style->line.color, opa);
 493:..\lvgl\lv_draw/lv_draw_line.c **** 
 494:..\lvgl\lv_draw/lv_draw_line.c ****                 /* Fill the gaps
 495:..\lvgl\lv_draw/lv_draw_line.c ****                  * When stepping in x one pixel remains empty on every corner (don't do this on the
 496:..\lvgl\lv_draw/lv_draw_line.c ****                 if(i != 0 && pattern[i].y != pattern[i - 1].y && !first_run) {
 497:..\lvgl\lv_draw/lv_draw_line.c ****                     px_fp(draw_area.x1 - main_line->sx, draw_area.y1, mask, style->line.color, opa)
 498:..\lvgl\lv_draw/lv_draw_line.c ****                 }
 499:..\lvgl\lv_draw/lv_draw_line.c **** 
 500:..\lvgl\lv_draw/lv_draw_line.c ****             }
ARM GAS  C:\Users\d3bug\AppData\Local\Temp\ccg1LD4z.s 			page 14


 501:..\lvgl\lv_draw/lv_draw_line.c **** 
 502:..\lvgl\lv_draw/lv_draw_line.c **** #if LV_ANTIALIAS
 503:..\lvgl\lv_draw/lv_draw_line.c ****             lv_draw_aa_ver_seg(prev_p.x + pattern[0].x - aa_shift1, prev_p.y + pattern[0].y,
 504:..\lvgl\lv_draw/lv_draw_line.c ****                     -(main_line->p_act.y - prev_p.y), mask, style->line.color, opa);
 505:..\lvgl\lv_draw/lv_draw_line.c ****             lv_draw_aa_ver_seg(prev_p.x + pattern[width_safe - 1].x + aa_shift2, prev_p.y + pattern
 506:..\lvgl\lv_draw/lv_draw_line.c ****                     main_line->p_act.y - prev_p.y, mask, style->line.color, opa);
 507:..\lvgl\lv_draw/lv_draw_line.c **** #endif
 508:..\lvgl\lv_draw/lv_draw_line.c **** 
 509:..\lvgl\lv_draw/lv_draw_line.c ****             first_run = false;
 510:..\lvgl\lv_draw/lv_draw_line.c **** 
 511:..\lvgl\lv_draw/lv_draw_line.c ****             prev_p.x = main_line->p_act.x;
 512:..\lvgl\lv_draw/lv_draw_line.c ****             prev_p.y = main_line->p_act.y;
 513:..\lvgl\lv_draw/lv_draw_line.c ****         }
 514:..\lvgl\lv_draw/lv_draw_line.c **** 
 515:..\lvgl\lv_draw/lv_draw_line.c ****         /*Draw the last part*/
 516:..\lvgl\lv_draw/lv_draw_line.c ****         for(i = 0; i < width; i++) {
 517:..\lvgl\lv_draw/lv_draw_line.c ****             draw_area.x1 = prev_p.x + pattern[i].x;
 518:..\lvgl\lv_draw/lv_draw_line.c ****             draw_area.y1 = prev_p.y + pattern[i].y;
 519:..\lvgl\lv_draw/lv_draw_line.c ****             draw_area.x2 = draw_area.x1;
 520:..\lvgl\lv_draw/lv_draw_line.c ****             draw_area.y2 = draw_area.y1 + main_line->p_act.y - prev_p.y;
 521:..\lvgl\lv_draw/lv_draw_line.c **** 
 522:..\lvgl\lv_draw/lv_draw_line.c ****             fill_fp(&draw_area, mask, style->line.color, opa);
 523:..\lvgl\lv_draw/lv_draw_line.c **** 
 524:..\lvgl\lv_draw/lv_draw_line.c ****             /* Fill the gaps
 525:..\lvgl\lv_draw/lv_draw_line.c ****              * When stepping in x one pixel remains empty on every corner */
 526:..\lvgl\lv_draw/lv_draw_line.c ****             if(i != 0 && pattern[i].y != pattern[i - 1].y && !first_run) {
 527:..\lvgl\lv_draw/lv_draw_line.c ****                 px_fp(draw_area.x1 - main_line->sx, draw_area.y1, mask, style->line.color, opa);
 528:..\lvgl\lv_draw/lv_draw_line.c ****             }
 529:..\lvgl\lv_draw/lv_draw_line.c ****         }
 530:..\lvgl\lv_draw/lv_draw_line.c **** 
 531:..\lvgl\lv_draw/lv_draw_line.c **** #if LV_ANTIALIAS
 532:..\lvgl\lv_draw/lv_draw_line.c ****         lv_draw_aa_ver_seg(prev_p.x + pattern[0].x - aa_shift1, prev_p.y + pattern[0].y,
 533:..\lvgl\lv_draw/lv_draw_line.c ****                 -(main_line->p_act.y - prev_p.y + 1), mask, style->line.color, opa);
 534:..\lvgl\lv_draw/lv_draw_line.c ****         lv_draw_aa_ver_seg(prev_p.x + pattern[width_safe - 1].x + aa_shift2, prev_p.y + pattern[wid
 535:..\lvgl\lv_draw/lv_draw_line.c ****                 main_line->p_act.y - prev_p.y + 1, mask, style->line.color, opa);
 536:..\lvgl\lv_draw/lv_draw_line.c **** #endif
 537:..\lvgl\lv_draw/lv_draw_line.c ****     }
 538:..\lvgl\lv_draw/lv_draw_line.c **** }
 539:..\lvgl\lv_draw/lv_draw_line.c **** 
 540:..\lvgl\lv_draw/lv_draw_line.c **** 
 541:..\lvgl\lv_draw/lv_draw_line.c **** static void line_init(line_draw_t * line, const lv_point_t * p1, const lv_point_t * p2)
 542:..\lvgl\lv_draw/lv_draw_line.c **** {
 242              		.loc 1 542 0
 243              		.cfi_startproc
 244              		@ args = 0, pretend = 0, frame = 0
 245              		@ frame_needed = 0, uses_anonymous_args = 0
 246              		@ link register save eliminated.
 247              	.LVL27:
 248 0000 70B4     		push	{r4, r5, r6}
 249              		.cfi_def_cfa_offset 12
 250              		.cfi_offset 4, -12
 251              		.cfi_offset 5, -8
 252              		.cfi_offset 6, -4
 543:..\lvgl\lv_draw/lv_draw_line.c ****     line->p1.x = p1->x;
 253              		.loc 1 543 0
 254 0002 B1F90050 		ldrsh	r5, [r1]
 255 0006 0580     		strh	r5, [r0]	@ movhi
ARM GAS  C:\Users\d3bug\AppData\Local\Temp\ccg1LD4z.s 			page 15


 544:..\lvgl\lv_draw/lv_draw_line.c ****     line->p1.y = p1->y;
 256              		.loc 1 544 0
 257 0008 B1F90240 		ldrsh	r4, [r1, #2]
 258 000c 4480     		strh	r4, [r0, #2]	@ movhi
 545:..\lvgl\lv_draw/lv_draw_line.c ****     line->p2.x = p2->x;
 259              		.loc 1 545 0
 260 000e B2F90060 		ldrsh	r6, [r2]
 261 0012 8680     		strh	r6, [r0, #4]	@ movhi
 546:..\lvgl\lv_draw/lv_draw_line.c ****     line->p2.y = p2->y;
 262              		.loc 1 546 0
 263 0014 B2F90210 		ldrsh	r1, [r2, #2]
 264              	.LVL28:
 265 0018 C180     		strh	r1, [r0, #6]	@ movhi
 547:..\lvgl\lv_draw/lv_draw_line.c **** 
 548:..\lvgl\lv_draw/lv_draw_line.c ****     line->dx = LV_MATH_ABS(line->p2.x - line->p1.x);
 266              		.loc 1 548 0
 267 001a 731B     		subs	r3, r6, r5
 268 001c 002B     		cmp	r3, #0
 269 001e B8BF     		it	lt
 270 0020 5B42     		rsblt	r3, r3, #0
 271 0022 1BB2     		sxth	r3, r3
 272 0024 8381     		strh	r3, [r0, #12]	@ movhi
 549:..\lvgl\lv_draw/lv_draw_line.c ****     line->sx = line->p1.x < line->p2.x ? 1 : -1;
 273              		.loc 1 549 0
 274 0026 B542     		cmp	r5, r6
 275 0028 01DA     		bge	.L18
 276 002a 0122     		movs	r2, #1
 277              	.LVL29:
 278 002c 01E0     		b	.L14
 279              	.LVL30:
 280              	.L18:
 281 002e 4FF0FF32 		mov	r2, #-1
 282              	.LVL31:
 283              	.L14:
 284              		.loc 1 549 0 is_stmt 0 discriminator 4
 285 0032 C281     		strh	r2, [r0, #14]	@ movhi
 550:..\lvgl\lv_draw/lv_draw_line.c ****     line->dy = LV_MATH_ABS(line->p2.y - line->p1.y);
 286              		.loc 1 550 0 is_stmt 1 discriminator 4
 287 0034 0A1B     		subs	r2, r1, r4
 288 0036 002A     		cmp	r2, #0
 289 0038 B8BF     		it	lt
 290 003a 5242     		rsblt	r2, r2, #0
 291 003c 12B2     		sxth	r2, r2
 292 003e 0282     		strh	r2, [r0, #16]	@ movhi
 551:..\lvgl\lv_draw/lv_draw_line.c ****     line->sy = line->p1.y < line->p2.y ? 1 : -1;
 293              		.loc 1 551 0 discriminator 4
 294 0040 8C42     		cmp	r4, r1
 295 0042 01DA     		bge	.L19
 296              		.loc 1 551 0 is_stmt 0
 297 0044 0121     		movs	r1, #1
 298 0046 01E0     		b	.L15
 299              	.L19:
 300 0048 4FF0FF31 		mov	r1, #-1
 301              	.L15:
 302              		.loc 1 551 0 discriminator 4
 303 004c 4182     		strh	r1, [r0, #18]	@ movhi
 552:..\lvgl\lv_draw/lv_draw_line.c ****     line->err = (line->dx > line->dy ? line->dx : -line->dy) / 2;
ARM GAS  C:\Users\d3bug\AppData\Local\Temp\ccg1LD4z.s 			page 16


 304              		.loc 1 552 0 is_stmt 1 discriminator 4
 305 004e 9342     		cmp	r3, r2
 306 0050 03DD     		ble	.L16
 307              		.loc 1 552 0 is_stmt 0 discriminator 1
 308 0052 03EBD371 		add	r1, r3, r3, lsr #31
 309 0056 4910     		asrs	r1, r1, #1
 310 0058 04E0     		b	.L17
 311              	.L16:
 312              		.loc 1 552 0 discriminator 2
 313 005a 5142     		negs	r1, r2
 314 005c 01EBD171 		add	r1, r1, r1, lsr #31
 315 0060 41F34F01 		sbfx	r1, r1, #1, #16
 316              	.L17:
 317              		.loc 1 552 0 discriminator 4
 318 0064 8182     		strh	r1, [r0, #20]	@ movhi
 553:..\lvgl\lv_draw/lv_draw_line.c ****     line->e2 = 0;
 319              		.loc 1 553 0 is_stmt 1 discriminator 4
 320 0066 0021     		movs	r1, #0
 321 0068 C182     		strh	r1, [r0, #22]	@ movhi
 554:..\lvgl\lv_draw/lv_draw_line.c ****     line->hor = line->dx > line->dy ? true : false; /*Rather horizontal or vertical*/
 322              		.loc 1 554 0 discriminator 4
 323 006a 9342     		cmp	r3, r2
 324 006c D4BF     		ite	le
 325 006e 0023     		movle	r3, #0
 326 0070 0123     		movgt	r3, #1
 327 0072 0376     		strb	r3, [r0, #24]
 555:..\lvgl\lv_draw/lv_draw_line.c **** 
 556:..\lvgl\lv_draw/lv_draw_line.c ****     line->p_act.x = line->p1.x;
 328              		.loc 1 556 0 discriminator 4
 329 0074 0581     		strh	r5, [r0, #8]	@ movhi
 557:..\lvgl\lv_draw/lv_draw_line.c ****     line->p_act.y = line->p1.y;
 330              		.loc 1 557 0 discriminator 4
 331 0076 4481     		strh	r4, [r0, #10]	@ movhi
 558:..\lvgl\lv_draw/lv_draw_line.c **** }
 332              		.loc 1 558 0 discriminator 4
 333 0078 70BC     		pop	{r4, r5, r6}
 334              		.cfi_restore 6
 335              		.cfi_restore 5
 336              		.cfi_restore 4
 337              		.cfi_def_cfa_offset 0
 338 007a 7047     		bx	lr
 339              		.cfi_endproc
 340              	.LFE17:
 341              		.size	line_init, .-line_init
 342              		.section	.text.line_next,"ax",%progbits
 343              		.align	2
 344              		.thumb
 345              		.thumb_func
 346              		.type	line_next, %function
 347              	line_next:
 348              	.LFB18:
 559:..\lvgl\lv_draw/lv_draw_line.c **** 
 560:..\lvgl\lv_draw/lv_draw_line.c **** static bool line_next(line_draw_t * line)
 561:..\lvgl\lv_draw/lv_draw_line.c **** {
 349              		.loc 1 561 0
 350              		.cfi_startproc
 351              		@ args = 0, pretend = 0, frame = 0
ARM GAS  C:\Users\d3bug\AppData\Local\Temp\ccg1LD4z.s 			page 17


 352              		@ frame_needed = 0, uses_anonymous_args = 0
 353              		@ link register save eliminated.
 354              	.LVL32:
 355 0000 10B4     		push	{r4}
 356              		.cfi_def_cfa_offset 4
 357              		.cfi_offset 4, -4
 562:..\lvgl\lv_draw/lv_draw_line.c ****     if(line->p_act.x == line->p2.x && line->p_act.y == line->p2.y) return false;
 358              		.loc 1 562 0
 359 0002 B0F90820 		ldrsh	r2, [r0, #8]
 360 0006 B0F90430 		ldrsh	r3, [r0, #4]
 361 000a 9A42     		cmp	r2, r3
 362 000c 05D1     		bne	.L22
 363              		.loc 1 562 0 is_stmt 0 discriminator 1
 364 000e B0F90A10 		ldrsh	r1, [r0, #10]
 365 0012 B0F90630 		ldrsh	r3, [r0, #6]
 366 0016 9942     		cmp	r1, r3
 367 0018 1DD0     		beq	.L25
 368              	.L22:
 563:..\lvgl\lv_draw/lv_draw_line.c ****     line->e2 = line->err;
 369              		.loc 1 563 0 is_stmt 1
 370 001a B0F91430 		ldrsh	r3, [r0, #20]
 371 001e C382     		strh	r3, [r0, #22]	@ movhi
 564:..\lvgl\lv_draw/lv_draw_line.c ****     if(line->e2 > -line->dx) {
 372              		.loc 1 564 0
 373 0020 B0F90C10 		ldrsh	r1, [r0, #12]
 374 0024 4C42     		negs	r4, r1
 375 0026 A342     		cmp	r3, r4
 376 0028 07DD     		ble	.L24
 565:..\lvgl\lv_draw/lv_draw_line.c ****         line->err -= line->dy;
 377              		.loc 1 565 0
 378 002a B0F91040 		ldrsh	r4, [r0, #16]
 379 002e 1C1B     		subs	r4, r3, r4
 380 0030 8482     		strh	r4, [r0, #20]	@ movhi
 566:..\lvgl\lv_draw/lv_draw_line.c ****         line->p_act.x += line->sx;
 381              		.loc 1 566 0
 382 0032 B0F90E40 		ldrsh	r4, [r0, #14]
 383 0036 2244     		add	r2, r2, r4
 384 0038 0281     		strh	r2, [r0, #8]	@ movhi
 385              	.L24:
 567:..\lvgl\lv_draw/lv_draw_line.c ****     }
 568:..\lvgl\lv_draw/lv_draw_line.c ****     if(line->e2 < line->dy) {
 386              		.loc 1 568 0
 387 003a B0F91020 		ldrsh	r2, [r0, #16]
 388 003e 9342     		cmp	r3, r2
 389 0040 0BDA     		bge	.L26
 569:..\lvgl\lv_draw/lv_draw_line.c ****         line->err += line->dx;
 390              		.loc 1 569 0
 391 0042 838A     		ldrh	r3, [r0, #20]
 392 0044 1944     		add	r1, r1, r3
 393 0046 8182     		strh	r1, [r0, #20]	@ movhi
 570:..\lvgl\lv_draw/lv_draw_line.c ****         line->p_act.y += line->sy;
 394              		.loc 1 570 0
 395 0048 B0F91220 		ldrsh	r2, [r0, #18]
 396 004c 4389     		ldrh	r3, [r0, #10]
 397 004e 1344     		add	r3, r3, r2
 398 0050 4381     		strh	r3, [r0, #10]	@ movhi
 571:..\lvgl\lv_draw/lv_draw_line.c ****     }
ARM GAS  C:\Users\d3bug\AppData\Local\Temp\ccg1LD4z.s 			page 18


 572:..\lvgl\lv_draw/lv_draw_line.c ****     return true;
 399              		.loc 1 572 0
 400 0052 0120     		movs	r0, #1
 401              	.LVL33:
 402 0054 02E0     		b	.L23
 403              	.LVL34:
 404              	.L25:
 562:..\lvgl\lv_draw/lv_draw_line.c ****     line->e2 = line->err;
 405              		.loc 1 562 0
 406 0056 0020     		movs	r0, #0
 407              	.LVL35:
 408 0058 00E0     		b	.L23
 409              	.LVL36:
 410              	.L26:
 411              		.loc 1 572 0
 412 005a 0120     		movs	r0, #1
 413              	.LVL37:
 414              	.L23:
 573:..\lvgl\lv_draw/lv_draw_line.c **** }
 415              		.loc 1 573 0
 416 005c 10BC     		pop	{r4}
 417              		.cfi_restore 4
 418              		.cfi_def_cfa_offset 0
 419 005e 7047     		bx	lr
 420              		.cfi_endproc
 421              	.LFE18:
 422              		.size	line_next, .-line_next
 423              		.section	.text.line_next_y,"ax",%progbits
 424              		.align	2
 425              		.thumb
 426              		.thumb_func
 427              		.type	line_next_y, %function
 428              	line_next_y:
 429              	.LFB19:
 574:..\lvgl\lv_draw/lv_draw_line.c **** 
 575:..\lvgl\lv_draw/lv_draw_line.c **** /**
 576:..\lvgl\lv_draw/lv_draw_line.c ****  * Iterate until step one in y direction.
 577:..\lvgl\lv_draw/lv_draw_line.c ****  * @param line
 578:..\lvgl\lv_draw/lv_draw_line.c ****  * @return
 579:..\lvgl\lv_draw/lv_draw_line.c ****  */
 580:..\lvgl\lv_draw/lv_draw_line.c **** static bool line_next_y(line_draw_t * line)
 581:..\lvgl\lv_draw/lv_draw_line.c **** {
 430              		.loc 1 581 0
 431              		.cfi_startproc
 432              		@ args = 0, pretend = 0, frame = 0
 433              		@ frame_needed = 0, uses_anonymous_args = 0
 434              	.LVL38:
 435 0000 38B5     		push	{r3, r4, r5, lr}
 436              		.cfi_def_cfa_offset 16
 437              		.cfi_offset 3, -16
 438              		.cfi_offset 4, -12
 439              		.cfi_offset 5, -8
 440              		.cfi_offset 14, -4
 441 0002 0446     		mov	r4, r0
 582:..\lvgl\lv_draw/lv_draw_line.c ****     lv_coord_t last_y = line->p_act.y;
 442              		.loc 1 582 0
 443 0004 B0F90A50 		ldrsh	r5, [r0, #10]
ARM GAS  C:\Users\d3bug\AppData\Local\Temp\ccg1LD4z.s 			page 19


 444              	.LVL39:
 445              	.L30:
 583:..\lvgl\lv_draw/lv_draw_line.c **** 
 584:..\lvgl\lv_draw/lv_draw_line.c ****     do {
 585:..\lvgl\lv_draw/lv_draw_line.c ****         if(!line_next(line)) return false;
 446              		.loc 1 585 0
 447 0008 2046     		mov	r0, r4
 448 000a FFF7FEFF 		bl	line_next
 449              	.LVL40:
 450 000e 0246     		mov	r2, r0
 451 0010 18B1     		cbz	r0, .L29
 586:..\lvgl\lv_draw/lv_draw_line.c ****     } while(last_y == line->p_act.y);
 452              		.loc 1 586 0
 453 0012 B4F90A30 		ldrsh	r3, [r4, #10]
 454 0016 9D42     		cmp	r5, r3
 455 0018 F6D0     		beq	.L30
 456              	.L29:
 587:..\lvgl\lv_draw/lv_draw_line.c **** 
 588:..\lvgl\lv_draw/lv_draw_line.c ****     return true;
 589:..\lvgl\lv_draw/lv_draw_line.c **** 
 590:..\lvgl\lv_draw/lv_draw_line.c **** }
 457              		.loc 1 590 0
 458 001a 1046     		mov	r0, r2
 459 001c 38BD     		pop	{r3, r4, r5, pc}
 460              		.cfi_endproc
 461              	.LFE19:
 462              		.size	line_next_y, .-line_next_y
 463 001e 00BF     		.section	.text.line_next_x,"ax",%progbits
 464              		.align	2
 465              		.thumb
 466              		.thumb_func
 467              		.type	line_next_x, %function
 468              	line_next_x:
 469              	.LFB20:
 591:..\lvgl\lv_draw/lv_draw_line.c **** 
 592:..\lvgl\lv_draw/lv_draw_line.c **** /**
 593:..\lvgl\lv_draw/lv_draw_line.c ****  * Iterate until step one in x direction.
 594:..\lvgl\lv_draw/lv_draw_line.c ****  * @param line
 595:..\lvgl\lv_draw/lv_draw_line.c ****  * @return
 596:..\lvgl\lv_draw/lv_draw_line.c ****  */
 597:..\lvgl\lv_draw/lv_draw_line.c **** static bool line_next_x(line_draw_t * line)
 598:..\lvgl\lv_draw/lv_draw_line.c **** {
 470              		.loc 1 598 0
 471              		.cfi_startproc
 472              		@ args = 0, pretend = 0, frame = 0
 473              		@ frame_needed = 0, uses_anonymous_args = 0
 474              	.LVL41:
 475 0000 38B5     		push	{r3, r4, r5, lr}
 476              		.cfi_def_cfa_offset 16
 477              		.cfi_offset 3, -16
 478              		.cfi_offset 4, -12
 479              		.cfi_offset 5, -8
 480              		.cfi_offset 14, -4
 481 0002 0446     		mov	r4, r0
 599:..\lvgl\lv_draw/lv_draw_line.c ****     lv_coord_t last_x = line->p_act.x;
 482              		.loc 1 599 0
 483 0004 B0F90850 		ldrsh	r5, [r0, #8]
ARM GAS  C:\Users\d3bug\AppData\Local\Temp\ccg1LD4z.s 			page 20


 484              	.LVL42:
 485              	.L34:
 600:..\lvgl\lv_draw/lv_draw_line.c **** 
 601:..\lvgl\lv_draw/lv_draw_line.c ****     do {
 602:..\lvgl\lv_draw/lv_draw_line.c ****         if(!line_next(line)) return false;
 486              		.loc 1 602 0
 487 0008 2046     		mov	r0, r4
 488 000a FFF7FEFF 		bl	line_next
 489              	.LVL43:
 490 000e 0246     		mov	r2, r0
 491 0010 18B1     		cbz	r0, .L33
 603:..\lvgl\lv_draw/lv_draw_line.c ****     } while(last_x == line->p_act.x);
 492              		.loc 1 603 0
 493 0012 B4F90830 		ldrsh	r3, [r4, #8]
 494 0016 9D42     		cmp	r5, r3
 495 0018 F6D0     		beq	.L34
 496              	.L33:
 604:..\lvgl\lv_draw/lv_draw_line.c **** 
 605:..\lvgl\lv_draw/lv_draw_line.c ****     return true;
 606:..\lvgl\lv_draw/lv_draw_line.c **** 
 607:..\lvgl\lv_draw/lv_draw_line.c **** }
 497              		.loc 1 607 0
 498 001a 1046     		mov	r0, r2
 499 001c 38BD     		pop	{r3, r4, r5, pc}
 500              		.cfi_endproc
 501              	.LFE20:
 502              		.size	line_next_x, .-line_next_x
 503 001e 00BF     		.section	.text.line_draw_skew,"ax",%progbits
 504              		.align	2
 505              		.thumb
 506              		.thumb_func
 507              		.type	line_draw_skew, %function
 508              	line_draw_skew:
 509              	.LFB16:
 221:..\lvgl\lv_draw/lv_draw_line.c **** 
 510              		.loc 1 221 0
 511              		.cfi_startproc
 512              		@ args = 4, pretend = 0, frame = 72
 513              		@ frame_needed = 1, uses_anonymous_args = 0
 514              	.LVL44:
 515 0000 2DE9F04F 		push	{r4, r5, r6, r7, r8, r9, r10, fp, lr}
 516              		.cfi_def_cfa_offset 36
 517              		.cfi_offset 4, -36
 518              		.cfi_offset 5, -32
 519              		.cfi_offset 6, -28
 520              		.cfi_offset 7, -24
 521              		.cfi_offset 8, -20
 522              		.cfi_offset 9, -16
 523              		.cfi_offset 10, -12
 524              		.cfi_offset 11, -8
 525              		.cfi_offset 14, -4
 526 0004 95B0     		sub	sp, sp, #84
 527              		.cfi_def_cfa_offset 120
 528 0006 02AF     		add	r7, sp, #8
 529              		.cfi_def_cfa 7, 112
 530 0008 0546     		mov	r5, r0
 531 000a B960     		str	r1, [r7, #8]
ARM GAS  C:\Users\d3bug\AppData\Local\Temp\ccg1LD4z.s 			page 21


 532 000c 3A61     		str	r2, [r7, #16]
 533 000e 1E46     		mov	r6, r3
 534 0010 97F87020 		ldrb	r2, [r7, #112]	@ zero_extendqisi2
 535              	.LVL45:
 223:..\lvgl\lv_draw/lv_draw_line.c **** 
 536              		.loc 1 223 0
 537 0014 FF2A     		cmp	r2, #255
 538 0016 03D1     		bne	.L37
 223:..\lvgl\lv_draw/lv_draw_line.c **** 
 539              		.loc 1 223 0 is_stmt 0 discriminator 1
 540 0018 93F83430 		ldrb	r3, [r3, #52]	@ zero_extendqisi2
 541              	.LVL46:
 542 001c 7B61     		str	r3, [r7, #20]
 543 001e 06E0     		b	.L38
 544              	.LVL47:
 545              	.L37:
 223:..\lvgl\lv_draw/lv_draw_line.c **** 
 546              		.loc 1 223 0 discriminator 2
 547 0020 93F83430 		ldrb	r3, [r3, #52]	@ zero_extendqisi2
 548              	.LVL48:
 549 0024 03FB02F3 		mul	r3, r3, r2
 550 0028 C3F30723 		ubfx	r3, r3, #8, #8
 551 002c 7B61     		str	r3, [r7, #20]
 552              	.L38:
 553              	.LVL49:
 226:..\lvgl\lv_draw/lv_draw_line.c ****     vect_main.y = main_line->p2.y - main_line->p1.y;
 554              		.loc 1 226 0 is_stmt 1 discriminator 4
 555 002e B5F90410 		ldrsh	r1, [r5, #4]
 556              	.LVL50:
 557 0032 B5F90040 		ldrsh	r4, [r5]
 558 0036 0A1B     		subs	r2, r1, r4
 559 0038 92B2     		uxth	r2, r2
 560 003a 0FFA82F8 		sxth	r8, r2
 227:..\lvgl\lv_draw/lv_draw_line.c **** 
 561              		.loc 1 227 0 discriminator 4
 562 003e B5F90600 		ldrsh	r0, [r5, #6]
 563              	.LVL51:
 564 0042 B5F902E0 		ldrsh	lr, [r5, #2]
 565 0046 CEEB0003 		rsb	r3, lr, r0
 566 004a 9BB2     		uxth	r3, r3
 567 004c 0FFA83F9 		sxth	r9, r3
 229:..\lvgl\lv_draw/lv_draw_line.c ****         if(main_line->p1.y < main_line->p2.y + dir_ori) {
 568              		.loc 1 229 0 discriminator 4
 569 0050 95F818C0 		ldrb	ip, [r5, #24]	@ zero_extendqisi2
 570 0054 BCF1000F 		cmp	ip, #0
 571 0058 0FD0     		beq	.L39
 230:..\lvgl\lv_draw/lv_draw_line.c ****             vect_norm.x = - vect_main.y;
 572              		.loc 1 230 0
 573 005a B968     		ldr	r1, [r7, #8]
 574 005c 0844     		add	r0, r0, r1
 575 005e 8645     		cmp	lr, r0
 576 0060 05DA     		bge	.L40
 231:..\lvgl\lv_draw/lv_draw_line.c ****             vect_norm.y = vect_main.x;
 577              		.loc 1 231 0
 578 0062 5B42     		negs	r3, r3
 579 0064 A7F84430 		strh	r3, [r7, #68]	@ movhi
 232:..\lvgl\lv_draw/lv_draw_line.c ****         } else {
ARM GAS  C:\Users\d3bug\AppData\Local\Temp\ccg1LD4z.s 			page 22


 580              		.loc 1 232 0
 581 0068 A7F84680 		strh	r8, [r7, #70]	@ movhi
 582 006c 14E0     		b	.L41
 583              	.L40:
 234:..\lvgl\lv_draw/lv_draw_line.c ****             vect_norm.y = -vect_main.x;
 584              		.loc 1 234 0
 585 006e A7F84490 		strh	r9, [r7, #68]	@ movhi
 235:..\lvgl\lv_draw/lv_draw_line.c ****         }
 586              		.loc 1 235 0
 587 0072 5242     		negs	r2, r2
 588 0074 A7F84620 		strh	r2, [r7, #70]	@ movhi
 589 0078 0EE0     		b	.L41
 590              	.L39:
 238:..\lvgl\lv_draw/lv_draw_line.c ****             vect_norm.x = vect_main.y;
 591              		.loc 1 238 0
 592 007a B868     		ldr	r0, [r7, #8]
 593 007c 0144     		add	r1, r1, r0
 594 007e 8C42     		cmp	r4, r1
 595 0080 05DA     		bge	.L42
 239:..\lvgl\lv_draw/lv_draw_line.c ****             vect_norm.y = - vect_main.x;
 596              		.loc 1 239 0
 597 0082 A7F84490 		strh	r9, [r7, #68]	@ movhi
 240:..\lvgl\lv_draw/lv_draw_line.c ****         } else {
 598              		.loc 1 240 0
 599 0086 5242     		negs	r2, r2
 600 0088 A7F84620 		strh	r2, [r7, #70]	@ movhi
 601 008c 04E0     		b	.L41
 602              	.L42:
 242:..\lvgl\lv_draw/lv_draw_line.c ****             vect_norm.y = vect_main.x;
 603              		.loc 1 242 0
 604 008e 5B42     		negs	r3, r3
 605 0090 A7F84430 		strh	r3, [r7, #68]	@ movhi
 243:..\lvgl\lv_draw/lv_draw_line.c ****         }
 606              		.loc 1 243 0
 607 0094 A7F84680 		strh	r8, [r7, #70]	@ movhi
 608              	.L41:
 249:..\lvgl\lv_draw/lv_draw_line.c ****     vect_norm.y = vect_norm.y << 4;
 609              		.loc 1 249 0
 610 0098 B7F94430 		ldrsh	r3, [r7, #68]
 611 009c 1B01     		lsls	r3, r3, #4
 612 009e A7F84430 		strh	r3, [r7, #68]	@ movhi
 250:..\lvgl\lv_draw/lv_draw_line.c **** 
 613              		.loc 1 250 0
 614 00a2 B7F94630 		ldrsh	r3, [r7, #70]
 615 00a6 1B01     		lsls	r3, r3, #4
 616 00a8 A7F84630 		strh	r3, [r7, #70]	@ movhi
 253:..\lvgl\lv_draw/lv_draw_line.c **** 
 617              		.loc 1 253 0
 618 00ac B6F932B0 		ldrsh	fp, [r6, #50]
 619              	.LVL52:
 258:..\lvgl\lv_draw/lv_draw_line.c **** #else
 620              		.loc 1 258 0
 621 00b0 4FEA4B09 		lsl	r9, fp, #1
 622              	.LVL53:
 623 00b4 4FEACB03 		lsl	r3, fp, #3
 624 00b8 0833     		adds	r3, r3, #8
 625 00ba ADEB030D 		sub	sp, sp, r3
ARM GAS  C:\Users\d3bug\AppData\Local\Temp\ccg1LD4z.s 			page 23


 626 00be 02AC     		add	r4, sp, #8
 627              	.LVL54:
 265:..\lvgl\lv_draw/lv_draw_line.c ****         line_draw_t pattern_line;
 628              		.loc 1 265 0
 629 00c0 BBF1000F 		cmp	fp, #0
 630 00c4 35D0     		beq	.L43
 631              	.LBB2:
 267:..\lvgl\lv_draw/lv_draw_line.c ****         line_init(&pattern_line, &p0, &vect_norm);
 632              		.loc 1 267 0
 633 00c6 4FF00008 		mov	r8, #0
 634 00ca A7F81880 		strh	r8, [r7, #24]	@ movhi
 635 00ce A7F81A80 		strh	r8, [r7, #26]	@ movhi
 268:..\lvgl\lv_draw/lv_draw_line.c **** 
 636              		.loc 1 268 0
 637 00d2 07F14402 		add	r2, r7, #68
 638 00d6 07F11801 		add	r1, r7, #24
 639 00da 07F11C00 		add	r0, r7, #28
 640 00de FFF7FEFF 		bl	line_init
 641              	.LVL55:
 270:..\lvgl\lv_draw/lv_draw_line.c ****         /* Run for a lot of times. Meanwhile the real width will be determined as well */
 642              		.loc 1 270 0
 643 00e2 0BFB0BFA 		mul	r10, fp, fp
 644              	.LVL56:
 272:..\lvgl\lv_draw/lv_draw_line.c ****             pattern[i].x = pattern_line.p_act.x;
 645              		.loc 1 272 0
 646 00e6 1FE0     		b	.L44
 647              	.LVL57:
 648              	.L47:
 649              	.LBB3:
 273:..\lvgl\lv_draw/lv_draw_line.c ****             pattern[i].y = pattern_line.p_act.y;
 650              		.loc 1 273 0
 651 00e8 B7F92430 		ldrsh	r3, [r7, #36]
 652 00ec 24F82830 		strh	r3, [r4, r8, lsl #2]	@ movhi
 274:..\lvgl\lv_draw/lv_draw_line.c **** 
 653              		.loc 1 274 0
 654 00f0 B7F92620 		ldrsh	r2, [r7, #38]
 655 00f4 04EB8803 		add	r3, r4, r8, lsl #2
 656 00f8 5A80     		strh	r2, [r3, #2]	@ movhi
 277:..\lvgl\lv_draw/lv_draw_line.c ****             if(sqr >= width_sqr) {
 657              		.loc 1 277 0
 658 00fa B7F92430 		ldrsh	r3, [r7, #36]
 659 00fe B7F92620 		ldrsh	r2, [r7, #38]
 660 0102 02FB02F2 		mul	r2, r2, r2
 661 0106 03FB0323 		mla	r3, r3, r3, r2
 662              	.LVL58:
 278:..\lvgl\lv_draw/lv_draw_line.c ****                 width = i;
 663              		.loc 1 278 0
 664 010a 9A45     		cmp	r10, r3
 665 010c 04D8     		bhi	.L45
 666              	.LVL59:
 281:..\lvgl\lv_draw/lv_draw_line.c **** #endif
 667              		.loc 1 281 0
 668 010e 08F1FF38 		add	r8, r8, #-1
 669              	.LVL60:
 670 0112 0FFA88FB 		sxth	fp, r8
 671              	.LVL61:
 283:..\lvgl\lv_draw/lv_draw_line.c ****             }
ARM GAS  C:\Users\d3bug\AppData\Local\Temp\ccg1LD4z.s 			page 24


 672              		.loc 1 283 0
 673 0116 0CE0     		b	.L43
 674              	.LVL62:
 675              	.L45:
 286:..\lvgl\lv_draw/lv_draw_line.c ****         }
 676              		.loc 1 286 0 discriminator 2
 677 0118 07F11C00 		add	r0, r7, #28
 678 011c FFF7FEFF 		bl	line_next
 679              	.LVL63:
 680              	.LBE3:
 272:..\lvgl\lv_draw/lv_draw_line.c ****             pattern[i].x = pattern_line.p_act.x;
 681              		.loc 1 272 0 discriminator 2
 682 0120 08F10108 		add	r8, r8, #1
 683              	.LVL64:
 684 0124 0FFA88F8 		sxth	r8, r8
 685              	.LVL65:
 686              	.L44:
 272:..\lvgl\lv_draw/lv_draw_line.c ****             pattern[i].x = pattern_line.p_act.x;
 687              		.loc 1 272 0 is_stmt 0 discriminator 1
 688 0128 4FEA8903 		lsl	r3, r9, #2
 689 012c 1BB2     		sxth	r3, r3
 690 012e 9845     		cmp	r8, r3
 691 0130 DADB     		blt	.L47
 692              	.LVL66:
 693              	.L43:
 694              	.LBE2:
 292:..\lvgl\lv_draw/lv_draw_line.c **** 
 695              		.loc 1 292 0 is_stmt 1
 696 0132 BBF1000F 		cmp	fp, #0
 697 0136 02D0     		beq	.L81
 291:..\lvgl\lv_draw/lv_draw_line.c ****     if(width == 0) width_safe = 1;
 698              		.loc 1 291 0
 699 0138 C7F80CB0 		str	fp, [r7, #12]
 700 013c 01E0     		b	.L48
 701              	.L81:
 292:..\lvgl\lv_draw/lv_draw_line.c **** 
 702              		.loc 1 292 0
 703 013e 0123     		movs	r3, #1
 704 0140 FB60     		str	r3, [r7, #12]
 705              	.L48:
 706              	.LVL67:
 301:..\lvgl\lv_draw/lv_draw_line.c ****         x_center_ofs = pattern[width - 1].x / 2;
 707              		.loc 1 301 0
 708 0142 BBF1000F 		cmp	fp, #0
 709 0146 10D0     		beq	.L49
 302:..\lvgl\lv_draw/lv_draw_line.c ****         y_center_ofs = pattern[width - 1].y / 2;
 710              		.loc 1 302 0
 711 0148 0BF1FF33 		add	r3, fp, #-1
 712 014c 34F92320 		ldrsh	r2, [r4, r3, lsl #2]
 713 0150 02EBD272 		add	r2, r2, r2, lsr #31
 714 0154 5210     		asrs	r2, r2, #1
 715 0156 BA60     		str	r2, [r7, #8]
 716              	.LVL68:
 303:..\lvgl\lv_draw/lv_draw_line.c ****     }
 717              		.loc 1 303 0
 718 0158 04EB8303 		add	r3, r4, r3, lsl #2
 719 015c B3F90230 		ldrsh	r3, [r3, #2]
ARM GAS  C:\Users\d3bug\AppData\Local\Temp\ccg1LD4z.s 			page 25


 720 0160 03EBD373 		add	r3, r3, r3, lsr #31
 721 0164 5B10     		asrs	r3, r3, #1
 722 0166 7B60     		str	r3, [r7, #4]
 723              	.LVL69:
 724 0168 26E0     		b	.L50
 725              	.LVL70:
 726              	.L49:
 306:..\lvgl\lv_draw/lv_draw_line.c ****         if(!main_line->hor && main_line->p1.x >= main_line->p2.x + dir_ori) pattern[0].x --;
 727              		.loc 1 306 0
 728 016a 2B7E     		ldrb	r3, [r5, #24]	@ zero_extendqisi2
 729 016c 5BB1     		cbz	r3, .L51
 306:..\lvgl\lv_draw/lv_draw_line.c ****         if(!main_line->hor && main_line->p1.x >= main_line->p2.x + dir_ori) pattern[0].x --;
 730              		.loc 1 306 0 is_stmt 0 discriminator 1
 731 016e B5F90220 		ldrsh	r2, [r5, #2]
 732 0172 B5F90630 		ldrsh	r3, [r5, #6]
 733 0176 B968     		ldr	r1, [r7, #8]
 734 0178 0B44     		add	r3, r3, r1
 735 017a 9A42     		cmp	r2, r3
 736 017c 03DB     		blt	.L51
 306:..\lvgl\lv_draw/lv_draw_line.c ****         if(!main_line->hor && main_line->p1.x >= main_line->p2.x + dir_ori) pattern[0].x --;
 737              		.loc 1 306 0 discriminator 2
 738 017e B4F90230 		ldrsh	r3, [r4, #2]
 739 0182 013B     		subs	r3, r3, #1
 740 0184 6380     		strh	r3, [r4, #2]	@ movhi
 741              	.L51:
 307:..\lvgl\lv_draw/lv_draw_line.c ****     }
 742              		.loc 1 307 0 is_stmt 1
 743 0186 2B7E     		ldrb	r3, [r5, #24]	@ zero_extendqisi2
 744 0188 7BB9     		cbnz	r3, .L82
 307:..\lvgl\lv_draw/lv_draw_line.c ****     }
 745              		.loc 1 307 0 is_stmt 0 discriminator 1
 746 018a B5F90030 		ldrsh	r3, [r5]
 747 018e B5F90420 		ldrsh	r2, [r5, #4]
 748 0192 B968     		ldr	r1, [r7, #8]
 749 0194 0A44     		add	r2, r2, r1
 750 0196 9342     		cmp	r3, r2
 751 0198 0BDB     		blt	.L83
 307:..\lvgl\lv_draw/lv_draw_line.c ****     }
 752              		.loc 1 307 0 discriminator 2
 753 019a B4F90030 		ldrsh	r3, [r4]
 754 019e 013B     		subs	r3, r3, #1
 755 01a0 2380     		strh	r3, [r4]	@ movhi
 299:..\lvgl\lv_draw/lv_draw_line.c **** 
 756              		.loc 1 299 0 is_stmt 1 discriminator 2
 757 01a2 0023     		movs	r3, #0
 758 01a4 7B60     		str	r3, [r7, #4]
 298:..\lvgl\lv_draw/lv_draw_line.c ****     lv_coord_t y_center_ofs = 0;
 759              		.loc 1 298 0 discriminator 2
 760 01a6 BB60     		str	r3, [r7, #8]
 761 01a8 06E0     		b	.L50
 762              	.L82:
 299:..\lvgl\lv_draw/lv_draw_line.c **** 
 763              		.loc 1 299 0
 764 01aa 0023     		movs	r3, #0
 765 01ac 7B60     		str	r3, [r7, #4]
 298:..\lvgl\lv_draw/lv_draw_line.c ****     lv_coord_t y_center_ofs = 0;
 766              		.loc 1 298 0
ARM GAS  C:\Users\d3bug\AppData\Local\Temp\ccg1LD4z.s 			page 26


 767 01ae BB60     		str	r3, [r7, #8]
 768 01b0 02E0     		b	.L50
 769              	.L83:
 299:..\lvgl\lv_draw/lv_draw_line.c **** 
 770              		.loc 1 299 0
 771 01b2 0023     		movs	r3, #0
 772 01b4 7B60     		str	r3, [r7, #4]
 298:..\lvgl\lv_draw/lv_draw_line.c ****     lv_coord_t y_center_ofs = 0;
 773              		.loc 1 298 0
 774 01b6 BB60     		str	r3, [r7, #8]
 775              	.LVL71:
 776              	.L50:
 295:..\lvgl\lv_draw/lv_draw_line.c **** #endif
 777              		.loc 1 295 0
 778 01b8 4FF0000A 		mov	r10, #0
 779 01bc 2346     		mov	r3, r4
 780 01be 5446     		mov	r4, r10
 781              	.LVL72:
 782 01c0 9846     		mov	r8, r3
 311:..\lvgl\lv_draw/lv_draw_line.c ****         pattern[i].x -= x_center_ofs;
 783              		.loc 1 311 0
 784 01c2 12E1     		b	.L52
 785              	.LVL73:
 786              	.L57:
 312:..\lvgl\lv_draw/lv_draw_line.c ****         pattern[i].y -= y_center_ofs;
 787              		.loc 1 312 0
 788 01c4 38F82430 		ldrh	r3, [r8, r4, lsl #2]
 789 01c8 B968     		ldr	r1, [r7, #8]
 790 01ca 5B1A     		subs	r3, r3, r1
 791 01cc 28F82430 		strh	r3, [r8, r4, lsl #2]	@ movhi
 313:..\lvgl\lv_draw/lv_draw_line.c **** #if LV_ANTIALIAS
 792              		.loc 1 313 0
 793 01d0 08EB8403 		add	r3, r8, r4, lsl #2
 794 01d4 B3F80290 		ldrh	r9, [r3, #2]
 795 01d8 7968     		ldr	r1, [r7, #4]
 796 01da C1EB0909 		rsb	r9, r1, r9
 797 01de 1FFA89F9 		uxth	r9, r9
 798 01e2 0FFA89F1 		sxth	r1, r9
 799 01e6 5980     		strh	r1, [r3, #2]	@ movhi
 315:..\lvgl\lv_draw/lv_draw_line.c ****             if(main_line->hor) {
 800              		.loc 1 315 0
 801 01e8 002C     		cmp	r4, #0
 802 01ea 00F0FC80 		beq	.L53
 316:..\lvgl\lv_draw/lv_draw_line.c ****                 if(pattern[i - 1].x != pattern[i].x) {
 803              		.loc 1 316 0
 804 01ee 2B7E     		ldrb	r3, [r5, #24]	@ zero_extendqisi2
 805 01f0 002B     		cmp	r3, #0
 806 01f2 7AD0     		beq	.L54
 317:..\lvgl\lv_draw/lv_draw_line.c ****                     lv_coord_t seg_w = pattern[i].y - pattern[aa_last_corner].y;
 807              		.loc 1 317 0
 808 01f4 631E     		subs	r3, r4, #1
 809 01f6 38F92310 		ldrsh	r1, [r8, r3, lsl #2]
 810 01fa 38F92430 		ldrsh	r3, [r8, r4, lsl #2]
 811 01fe 9942     		cmp	r1, r3
 812 0200 00F0F180 		beq	.L53
 813              	.LBB4:
 318:..\lvgl\lv_draw/lv_draw_line.c ****                     if(main_line->sy < 0) {
ARM GAS  C:\Users\d3bug\AppData\Local\Temp\ccg1LD4z.s 			page 27


 814              		.loc 1 318 0
 815 0204 08EB8A03 		add	r3, r8, r10, lsl #2
 816 0208 5988     		ldrh	r1, [r3, #2]
 817 020a C1EB0909 		rsb	r9, r1, r9
 818 020e 1FFA89F9 		uxth	r9, r9
 819 0212 0FFA89F2 		sxth	r2, r9
 820              	.LVL74:
 319:..\lvgl\lv_draw/lv_draw_line.c ****                         lv_draw_aa_ver_seg(main_line->p1.x + pattern[aa_last_corner].x - 1, main_li
 821              		.loc 1 319 0
 822 0216 B5F91230 		ldrsh	r3, [r5, #18]
 823 021a 002B     		cmp	r3, #0
 824 021c 34DA     		bge	.L55
 320:..\lvgl\lv_draw/lv_draw_line.c ****                                 seg_w, mask, style->line.color, opa);
 825              		.loc 1 320 0
 826 021e B5F90000 		ldrsh	r0, [r5]
 827 0222 38F92A30 		ldrsh	r3, [r8, r10, lsl #2]
 828 0226 B5F902E0 		ldrsh	lr, [r5, #2]
 829 022a 7144     		add	r1, r1, lr
 830 022c 4944     		add	r1, r1, r9
 831 022e 0131     		adds	r1, r1, #1
 832 0230 1844     		add	r0, r0, r3
 833 0232 0138     		subs	r0, r0, #1
 834 0234 7B69     		ldr	r3, [r7, #20]
 835 0236 0193     		str	r3, [sp, #4]
 836 0238 96F83030 		ldrb	r3, [r6, #48]	@ zero_extendqisi2
 837 023c 8DF80030 		strb	r3, [sp]
 838 0240 3B69     		ldr	r3, [r7, #16]
 839 0242 09B2     		sxth	r1, r1
 840 0244 00B2     		sxth	r0, r0
 841 0246 FFF7FEFF 		bl	lv_draw_aa_ver_seg
 842              	.LVL75:
 323:..\lvgl\lv_draw/lv_draw_line.c ****                                 -seg_w, mask, style->line.color, opa);
 843              		.loc 1 323 0
 844 024a B5F90400 		ldrsh	r0, [r5, #4]
 845 024e 38F92A30 		ldrsh	r3, [r8, r10, lsl #2]
 846 0252 B5F906E0 		ldrsh	lr, [r5, #6]
 847 0256 08EB8A0A 		add	r10, r8, r10, lsl #2
 848              	.LVL76:
 849 025a BAF90210 		ldrsh	r1, [r10, #2]
 850 025e C9F10002 		rsb	r2, r9, #0
 851 0262 7144     		add	r1, r1, lr
 852 0264 4944     		add	r1, r1, r9
 853 0266 0131     		adds	r1, r1, #1
 854 0268 1844     		add	r0, r0, r3
 855 026a 0130     		adds	r0, r0, #1
 856 026c 7B69     		ldr	r3, [r7, #20]
 857 026e 0193     		str	r3, [sp, #4]
 858 0270 96F83030 		ldrb	r3, [r6, #48]	@ zero_extendqisi2
 859 0274 8DF80030 		strb	r3, [sp]
 860 0278 3B69     		ldr	r3, [r7, #16]
 861 027a 12B2     		sxth	r2, r2
 862 027c 09B2     		sxth	r1, r1
 863 027e 00B2     		sxth	r0, r0
 864 0280 FFF7FEFF 		bl	lv_draw_aa_ver_seg
 865              	.LVL77:
 332:..\lvgl\lv_draw/lv_draw_line.c ****                 }
 866              		.loc 1 332 0
ARM GAS  C:\Users\d3bug\AppData\Local\Temp\ccg1LD4z.s 			page 28


 867 0284 A246     		mov	r10, r4
 868 0286 AEE0     		b	.L53
 869              	.LVL78:
 870              	.L55:
 326:..\lvgl\lv_draw/lv_draw_line.c ****                                 seg_w, mask, style->line.color, opa);
 871              		.loc 1 326 0
 872 0288 B5F90000 		ldrsh	r0, [r5]
 873 028c 38F92A30 		ldrsh	r3, [r8, r10, lsl #2]
 874 0290 B5F902E0 		ldrsh	lr, [r5, #2]
 875 0294 7144     		add	r1, r1, lr
 876 0296 1844     		add	r0, r0, r3
 877 0298 0138     		subs	r0, r0, #1
 878 029a 7B69     		ldr	r3, [r7, #20]
 879 029c 0193     		str	r3, [sp, #4]
 880 029e 96F83030 		ldrb	r3, [r6, #48]	@ zero_extendqisi2
 881 02a2 8DF80030 		strb	r3, [sp]
 882 02a6 3B69     		ldr	r3, [r7, #16]
 883 02a8 09B2     		sxth	r1, r1
 884 02aa 00B2     		sxth	r0, r0
 885 02ac FFF7FEFF 		bl	lv_draw_aa_ver_seg
 886              	.LVL79:
 329:..\lvgl\lv_draw/lv_draw_line.c ****                                 -seg_w, mask, style->line.color, opa);
 887              		.loc 1 329 0
 888 02b0 B5F90400 		ldrsh	r0, [r5, #4]
 889 02b4 38F92A30 		ldrsh	r3, [r8, r10, lsl #2]
 890 02b8 B5F906E0 		ldrsh	lr, [r5, #6]
 891 02bc 08EB8A0A 		add	r10, r8, r10, lsl #2
 892              	.LVL80:
 893 02c0 BAF90210 		ldrsh	r1, [r10, #2]
 894 02c4 C9F10002 		rsb	r2, r9, #0
 895 02c8 7144     		add	r1, r1, lr
 896 02ca 1844     		add	r0, r0, r3
 897 02cc 0130     		adds	r0, r0, #1
 898 02ce 7B69     		ldr	r3, [r7, #20]
 899 02d0 0193     		str	r3, [sp, #4]
 900 02d2 96F83030 		ldrb	r3, [r6, #48]	@ zero_extendqisi2
 901 02d6 8DF80030 		strb	r3, [sp]
 902 02da 3B69     		ldr	r3, [r7, #16]
 903 02dc 12B2     		sxth	r2, r2
 904 02de 09B2     		sxth	r1, r1
 905 02e0 00B2     		sxth	r0, r0
 906 02e2 FFF7FEFF 		bl	lv_draw_aa_ver_seg
 907              	.LVL81:
 332:..\lvgl\lv_draw/lv_draw_line.c ****                 }
 908              		.loc 1 332 0
 909 02e6 A246     		mov	r10, r4
 910 02e8 7DE0     		b	.L53
 911              	.LVL82:
 912              	.L54:
 913              	.LBE4:
 335:..\lvgl\lv_draw/lv_draw_line.c ****                     lv_coord_t seg_w = pattern[i].x - pattern[aa_last_corner].x;
 914              		.loc 1 335 0
 915 02ea 631E     		subs	r3, r4, #1
 916 02ec 08EB8303 		add	r3, r8, r3, lsl #2
 917 02f0 B3F90230 		ldrsh	r3, [r3, #2]
 918 02f4 9942     		cmp	r1, r3
 919 02f6 76D0     		beq	.L53
ARM GAS  C:\Users\d3bug\AppData\Local\Temp\ccg1LD4z.s 			page 29


 920              	.LBB5:
 336:..\lvgl\lv_draw/lv_draw_line.c ****                     if(main_line->sx < 0) {
 921              		.loc 1 336 0
 922 02f8 38F92490 		ldrsh	r9, [r8, r4, lsl #2]
 923 02fc 38F82A00 		ldrh	r0, [r8, r10, lsl #2]
 924 0300 C0EB0909 		rsb	r9, r0, r9
 925 0304 1FFA89F9 		uxth	r9, r9
 926 0308 0FFA89F2 		sxth	r2, r9
 927              	.LVL83:
 337:..\lvgl\lv_draw/lv_draw_line.c ****                         lv_draw_aa_hor_seg(main_line->p1.x + pattern[aa_last_corner].x + seg_w + 1,
 928              		.loc 1 337 0
 929 030c B5F90E30 		ldrsh	r3, [r5, #14]
 930 0310 002B     		cmp	r3, #0
 931 0312 36DA     		bge	.L56
 338:..\lvgl\lv_draw/lv_draw_line.c ****                                 seg_w, mask, style->line.color, opa);
 932              		.loc 1 338 0
 933 0314 B5F90030 		ldrsh	r3, [r5]
 934 0318 B5F902E0 		ldrsh	lr, [r5, #2]
 935 031c 08EB8A01 		add	r1, r8, r10, lsl #2
 936 0320 3960     		str	r1, [r7]
 937 0322 B1F90210 		ldrsh	r1, [r1, #2]
 938 0326 7144     		add	r1, r1, lr
 939 0328 0139     		subs	r1, r1, #1
 940 032a 1844     		add	r0, r0, r3
 941 032c 4844     		add	r0, r0, r9
 942 032e 0130     		adds	r0, r0, #1
 943 0330 7B69     		ldr	r3, [r7, #20]
 944 0332 0193     		str	r3, [sp, #4]
 945 0334 96F83030 		ldrb	r3, [r6, #48]	@ zero_extendqisi2
 946 0338 8DF80030 		strb	r3, [sp]
 947 033c 3B69     		ldr	r3, [r7, #16]
 948 033e 09B2     		sxth	r1, r1
 949 0340 00B2     		sxth	r0, r0
 950 0342 FFF7FEFF 		bl	lv_draw_aa_hor_seg
 951              	.LVL84:
 341:..\lvgl\lv_draw/lv_draw_line.c ****                                 -seg_w, mask, style->line.color, opa);
 952              		.loc 1 341 0
 953 0346 B5F90400 		ldrsh	r0, [r5, #4]
 954 034a 38F92A30 		ldrsh	r3, [r8, r10, lsl #2]
 955 034e B5F906E0 		ldrsh	lr, [r5, #6]
 956 0352 3968     		ldr	r1, [r7]
 957 0354 B1F90210 		ldrsh	r1, [r1, #2]
 958 0358 C9F10002 		rsb	r2, r9, #0
 959 035c 7144     		add	r1, r1, lr
 960 035e 0131     		adds	r1, r1, #1
 961 0360 1844     		add	r0, r0, r3
 962 0362 4844     		add	r0, r0, r9
 963 0364 0130     		adds	r0, r0, #1
 964 0366 7B69     		ldr	r3, [r7, #20]
 965 0368 0193     		str	r3, [sp, #4]
 966 036a 96F83030 		ldrb	r3, [r6, #48]	@ zero_extendqisi2
 967 036e 8DF80030 		strb	r3, [sp]
 968 0372 3B69     		ldr	r3, [r7, #16]
 969 0374 12B2     		sxth	r2, r2
 970 0376 09B2     		sxth	r1, r1
 971 0378 00B2     		sxth	r0, r0
 972 037a FFF7FEFF 		bl	lv_draw_aa_hor_seg
ARM GAS  C:\Users\d3bug\AppData\Local\Temp\ccg1LD4z.s 			page 30


 973              	.LVL85:
 350:..\lvgl\lv_draw/lv_draw_line.c ****                 }
 974              		.loc 1 350 0
 975 037e A246     		mov	r10, r4
 976              	.LVL86:
 977 0380 31E0     		b	.L53
 978              	.LVL87:
 979              	.L56:
 344:..\lvgl\lv_draw/lv_draw_line.c ****                                 seg_w, mask, style->line.color, opa);
 980              		.loc 1 344 0
 981 0382 B5F900E0 		ldrsh	lr, [r5]
 982 0386 B5F90210 		ldrsh	r1, [r5, #2]
 983 038a 08EB8A03 		add	r3, r8, r10, lsl #2
 984 038e 3B60     		str	r3, [r7]
 985 0390 B3F90230 		ldrsh	r3, [r3, #2]
 986 0394 1944     		add	r1, r1, r3
 987 0396 0139     		subs	r1, r1, #1
 988 0398 7044     		add	r0, r0, lr
 989 039a 7B69     		ldr	r3, [r7, #20]
 990 039c 0193     		str	r3, [sp, #4]
 991 039e 96F83030 		ldrb	r3, [r6, #48]	@ zero_extendqisi2
 992 03a2 8DF80030 		strb	r3, [sp]
 993 03a6 3B69     		ldr	r3, [r7, #16]
 994 03a8 09B2     		sxth	r1, r1
 995 03aa 00B2     		sxth	r0, r0
 996 03ac FFF7FEFF 		bl	lv_draw_aa_hor_seg
 997              	.LVL88:
 347:..\lvgl\lv_draw/lv_draw_line.c ****                                 -seg_w, mask, style->line.color, opa);
 998              		.loc 1 347 0
 999 03b0 B5F904E0 		ldrsh	lr, [r5, #4]
 1000 03b4 38F92A00 		ldrsh	r0, [r8, r10, lsl #2]
 1001 03b8 B5F90610 		ldrsh	r1, [r5, #6]
 1002 03bc 3A68     		ldr	r2, [r7]
 1003 03be B2F90230 		ldrsh	r3, [r2, #2]
 1004 03c2 C9F10002 		rsb	r2, r9, #0
 1005 03c6 1944     		add	r1, r1, r3
 1006 03c8 0131     		adds	r1, r1, #1
 1007 03ca 7044     		add	r0, r0, lr
 1008 03cc 7B69     		ldr	r3, [r7, #20]
 1009 03ce 0193     		str	r3, [sp, #4]
 1010 03d0 96F83030 		ldrb	r3, [r6, #48]	@ zero_extendqisi2
 1011 03d4 8DF80030 		strb	r3, [sp]
 1012 03d8 3B69     		ldr	r3, [r7, #16]
 1013 03da 12B2     		sxth	r2, r2
 1014 03dc 09B2     		sxth	r1, r1
 1015 03de 00B2     		sxth	r0, r0
 1016 03e0 FFF7FEFF 		bl	lv_draw_aa_hor_seg
 1017              	.LVL89:
 350:..\lvgl\lv_draw/lv_draw_line.c ****                 }
 1018              		.loc 1 350 0
 1019 03e4 A246     		mov	r10, r4
 1020              	.LVL90:
 1021              	.L53:
 1022              	.LBE5:
 311:..\lvgl\lv_draw/lv_draw_line.c ****         pattern[i].x -= x_center_ofs;
 1023              		.loc 1 311 0 discriminator 2
 1024 03e6 0134     		adds	r4, r4, #1
ARM GAS  C:\Users\d3bug\AppData\Local\Temp\ccg1LD4z.s 			page 31


 1025              	.LVL91:
 1026 03e8 24B2     		sxth	r4, r4
 1027              	.LVL92:
 1028              	.L52:
 311:..\lvgl\lv_draw/lv_draw_line.c ****         pattern[i].x -= x_center_ofs;
 1029              		.loc 1 311 0 is_stmt 0 discriminator 1
 1030 03ea A345     		cmp	fp, r4
 1031 03ec 3FF7EAAE 		bgt	.L57
 1032 03f0 4446     		mov	r4, r8
 1033              	.LVL93:
 362:..\lvgl\lv_draw/lv_draw_line.c ****         if(main_line->hor) {
 1034              		.loc 1 362 0 is_stmt 1
 1035 03f2 BBF1000F 		cmp	fp, #0
 1036 03f6 00F0FD80 		beq	.L58
 1037              	.LVL94:
 363:..\lvgl\lv_draw/lv_draw_line.c ****             lv_coord_t seg_w = pattern[width_safe - 1].y - pattern[aa_last_corner].y;
 1038              		.loc 1 363 0
 1039 03fa 2B7E     		ldrb	r3, [r5, #24]	@ zero_extendqisi2
 1040 03fc 002B     		cmp	r3, #0
 1041 03fe 00F08180 		beq	.L59
 1042              	.LBB6:
 364:..\lvgl\lv_draw/lv_draw_line.c ****             if(main_line->sy < 0) {
 1043              		.loc 1 364 0
 1044 0402 FB68     		ldr	r3, [r7, #12]
 1045 0404 013B     		subs	r3, r3, #1
 1046 0406 08EB8303 		add	r3, r8, r3, lsl #2
 1047 040a B3F90280 		ldrsh	r8, [r3, #2]
 1048 040e 04EB8A03 		add	r3, r4, r10, lsl #2
 1049 0412 5988     		ldrh	r1, [r3, #2]
 1050 0414 C1EB0808 		rsb	r8, r1, r8
 1051 0418 1FFA88F8 		uxth	r8, r8
 1052              	.LVL95:
 365:..\lvgl\lv_draw/lv_draw_line.c ****                 lv_draw_aa_ver_seg(main_line->p1.x + pattern[aa_last_corner].x - 1, main_line->p1.y
 1053              		.loc 1 365 0
 1054 041c B5F91230 		ldrsh	r3, [r5, #18]
 1055 0420 002B     		cmp	r3, #0
 1056 0422 38DA     		bge	.L60
 366:..\lvgl\lv_draw/lv_draw_line.c ****                         seg_w + main_line->sy, mask, style->line.color, opa);
 1057              		.loc 1 366 0
 1058 0424 B5F900E0 		ldrsh	lr, [r5]
 1059 0428 34F92A00 		ldrsh	r0, [r4, r10, lsl #2]
 1060 042c B5F902C0 		ldrsh	ip, [r5, #2]
 1061 0430 08EB0302 		add	r2, r8, r3
 1062 0434 6144     		add	r1, r1, ip
 1063 0436 4144     		add	r1, r1, r8
 1064 0438 7044     		add	r0, r0, lr
 1065 043a 0138     		subs	r0, r0, #1
 1066 043c 7B69     		ldr	r3, [r7, #20]
 1067 043e 0193     		str	r3, [sp, #4]
 1068 0440 96F83030 		ldrb	r3, [r6, #48]	@ zero_extendqisi2
 1069 0444 8DF80030 		strb	r3, [sp]
 1070 0448 D7F81090 		ldr	r9, [r7, #16]
 1071 044c 4B46     		mov	r3, r9
 1072 044e 12B2     		sxth	r2, r2
 1073 0450 09B2     		sxth	r1, r1
 1074 0452 00B2     		sxth	r0, r0
 1075 0454 FFF7FEFF 		bl	lv_draw_aa_ver_seg
ARM GAS  C:\Users\d3bug\AppData\Local\Temp\ccg1LD4z.s 			page 32


 1076              	.LVL96:
 369:..\lvgl\lv_draw/lv_draw_line.c ****                         -(seg_w + main_line->sy), mask, style->line.color, opa);
 1077              		.loc 1 369 0
 1078 0458 B5F90400 		ldrsh	r0, [r5, #4]
 1079 045c 34F92A30 		ldrsh	r3, [r4, r10, lsl #2]
 1080 0460 B5F906E0 		ldrsh	lr, [r5, #6]
 1081 0464 04EB8A02 		add	r2, r4, r10, lsl #2
 1082 0468 B2F90210 		ldrsh	r1, [r2, #2]
 370:..\lvgl\lv_draw/lv_draw_line.c **** 
 1083              		.loc 1 370 0
 1084 046c B5F91220 		ldrsh	r2, [r5, #18]
 369:..\lvgl\lv_draw/lv_draw_line.c ****                         -(seg_w + main_line->sy), mask, style->line.color, opa);
 1085              		.loc 1 369 0
 1086 0470 4244     		add	r2, r2, r8
 1087 0472 5242     		negs	r2, r2
 1088 0474 7144     		add	r1, r1, lr
 1089 0476 4144     		add	r1, r1, r8
 1090 0478 1844     		add	r0, r0, r3
 1091 047a 0130     		adds	r0, r0, #1
 1092 047c 7B69     		ldr	r3, [r7, #20]
 1093 047e 0193     		str	r3, [sp, #4]
 1094 0480 96F83030 		ldrb	r3, [r6, #48]	@ zero_extendqisi2
 1095 0484 8DF80030 		strb	r3, [sp]
 1096 0488 4B46     		mov	r3, r9
 1097 048a 12B2     		sxth	r2, r2
 1098 048c 09B2     		sxth	r1, r1
 1099 048e 00B2     		sxth	r0, r0
 1100 0490 FFF7FEFF 		bl	lv_draw_aa_ver_seg
 1101              	.LVL97:
 1102 0494 AEE0     		b	.L58
 1103              	.L60:
 373:..\lvgl\lv_draw/lv_draw_line.c ****                         seg_w + main_line->sy, mask, style->line.color, opa);
 1104              		.loc 1 373 0
 1105 0496 B5F900E0 		ldrsh	lr, [r5]
 1106 049a 34F92A00 		ldrsh	r0, [r4, r10, lsl #2]
 1107 049e B5F902C0 		ldrsh	ip, [r5, #2]
 1108 04a2 08EB0302 		add	r2, r8, r3
 1109 04a6 6144     		add	r1, r1, ip
 1110 04a8 7044     		add	r0, r0, lr
 1111 04aa 0138     		subs	r0, r0, #1
 1112 04ac 7B69     		ldr	r3, [r7, #20]
 1113 04ae 0193     		str	r3, [sp, #4]
 1114 04b0 96F83030 		ldrb	r3, [r6, #48]	@ zero_extendqisi2
 1115 04b4 8DF80030 		strb	r3, [sp]
 1116 04b8 D7F81090 		ldr	r9, [r7, #16]
 1117 04bc 4B46     		mov	r3, r9
 1118 04be 12B2     		sxth	r2, r2
 1119 04c0 09B2     		sxth	r1, r1
 1120 04c2 00B2     		sxth	r0, r0
 1121 04c4 FFF7FEFF 		bl	lv_draw_aa_ver_seg
 1122              	.LVL98:
 376:..\lvgl\lv_draw/lv_draw_line.c ****                         -(seg_w + main_line->sy), mask, style->line.color, opa);
 1123              		.loc 1 376 0
 1124 04c8 B5F90400 		ldrsh	r0, [r5, #4]
 1125 04cc 34F92A30 		ldrsh	r3, [r4, r10, lsl #2]
 1126 04d0 B5F906E0 		ldrsh	lr, [r5, #6]
 1127 04d4 04EB8A02 		add	r2, r4, r10, lsl #2
ARM GAS  C:\Users\d3bug\AppData\Local\Temp\ccg1LD4z.s 			page 33


 1128 04d8 B2F90210 		ldrsh	r1, [r2, #2]
 377:..\lvgl\lv_draw/lv_draw_line.c ****             }
 1129              		.loc 1 377 0
 1130 04dc B5F91220 		ldrsh	r2, [r5, #18]
 376:..\lvgl\lv_draw/lv_draw_line.c ****                         -(seg_w + main_line->sy), mask, style->line.color, opa);
 1131              		.loc 1 376 0
 1132 04e0 4244     		add	r2, r2, r8
 1133 04e2 5242     		negs	r2, r2
 1134 04e4 7144     		add	r1, r1, lr
 1135 04e6 1844     		add	r0, r0, r3
 1136 04e8 0130     		adds	r0, r0, #1
 1137 04ea 7B69     		ldr	r3, [r7, #20]
 1138 04ec 0193     		str	r3, [sp, #4]
 1139 04ee 96F83030 		ldrb	r3, [r6, #48]	@ zero_extendqisi2
 1140 04f2 8DF80030 		strb	r3, [sp]
 1141 04f6 4B46     		mov	r3, r9
 1142 04f8 12B2     		sxth	r2, r2
 1143 04fa 09B2     		sxth	r1, r1
 1144 04fc 00B2     		sxth	r0, r0
 1145 04fe FFF7FEFF 		bl	lv_draw_aa_ver_seg
 1146              	.LVL99:
 1147 0502 77E0     		b	.L58
 1148              	.LVL100:
 1149              	.L59:
 1150              	.LBE6:
 1151              	.LBB7:
 380:..\lvgl\lv_draw/lv_draw_line.c ****             if(main_line->sx < 0) {
 1152              		.loc 1 380 0
 1153 0504 FB68     		ldr	r3, [r7, #12]
 1154 0506 013B     		subs	r3, r3, #1
 1155 0508 38F92390 		ldrsh	r9, [r8, r3, lsl #2]
 1156 050c 38F82A30 		ldrh	r3, [r8, r10, lsl #2]
 1157 0510 C3EB0909 		rsb	r9, r3, r9
 1158 0514 1FFA89F9 		uxth	r9, r9
 1159              	.LVL101:
 381:..\lvgl\lv_draw/lv_draw_line.c ****                 lv_draw_aa_hor_seg(main_line->p1.x + pattern[aa_last_corner].x + seg_w, main_line->
 1160              		.loc 1 381 0
 1161 0518 B5F90E20 		ldrsh	r2, [r5, #14]
 1162 051c 002A     		cmp	r2, #0
 1163 051e 36DA     		bge	.L61
 382:..\lvgl\lv_draw/lv_draw_line.c ****                         seg_w + main_line->sx, mask, style->line.color, opa);
 1164              		.loc 1 382 0
 1165 0520 B5F90000 		ldrsh	r0, [r5]
 1166 0524 B5F902E0 		ldrsh	lr, [r5, #2]
 1167 0528 08EB8A08 		add	r8, r8, r10, lsl #2
 1168 052c B8F90210 		ldrsh	r1, [r8, #2]
 1169 0530 4A44     		add	r2, r2, r9
 1170 0532 7144     		add	r1, r1, lr
 1171 0534 0139     		subs	r1, r1, #1
 1172 0536 0344     		add	r3, r3, r0
 1173 0538 09EB0300 		add	r0, r9, r3
 1174 053c 7B69     		ldr	r3, [r7, #20]
 1175 053e 0193     		str	r3, [sp, #4]
 1176 0540 96F83030 		ldrb	r3, [r6, #48]	@ zero_extendqisi2
 1177 0544 8DF80030 		strb	r3, [sp]
 1178 0548 3B69     		ldr	r3, [r7, #16]
 1179 054a 12B2     		sxth	r2, r2
ARM GAS  C:\Users\d3bug\AppData\Local\Temp\ccg1LD4z.s 			page 34


 1180 054c 09B2     		sxth	r1, r1
 1181 054e 00B2     		sxth	r0, r0
 1182 0550 FFF7FEFF 		bl	lv_draw_aa_hor_seg
 1183              	.LVL102:
 385:..\lvgl\lv_draw/lv_draw_line.c ****                         -(seg_w + main_line->sx), mask, style->line.color, opa);
 1184              		.loc 1 385 0
 1185 0554 B5F90400 		ldrsh	r0, [r5, #4]
 1186 0558 34F92A30 		ldrsh	r3, [r4, r10, lsl #2]
 1187 055c B5F906E0 		ldrsh	lr, [r5, #6]
 1188 0560 B8F90210 		ldrsh	r1, [r8, #2]
 386:..\lvgl\lv_draw/lv_draw_line.c **** 
 1189              		.loc 1 386 0
 1190 0564 B5F90E20 		ldrsh	r2, [r5, #14]
 385:..\lvgl\lv_draw/lv_draw_line.c ****                         -(seg_w + main_line->sx), mask, style->line.color, opa);
 1191              		.loc 1 385 0
 1192 0568 4A44     		add	r2, r2, r9
 1193 056a 5242     		negs	r2, r2
 1194 056c 7144     		add	r1, r1, lr
 1195 056e 0131     		adds	r1, r1, #1
 1196 0570 1844     		add	r0, r0, r3
 1197 0572 4844     		add	r0, r0, r9
 1198 0574 7B69     		ldr	r3, [r7, #20]
 1199 0576 0193     		str	r3, [sp, #4]
 1200 0578 96F83030 		ldrb	r3, [r6, #48]	@ zero_extendqisi2
 1201 057c 8DF80030 		strb	r3, [sp]
 1202 0580 3B69     		ldr	r3, [r7, #16]
 1203 0582 12B2     		sxth	r2, r2
 1204 0584 09B2     		sxth	r1, r1
 1205 0586 00B2     		sxth	r0, r0
 1206 0588 FFF7FEFF 		bl	lv_draw_aa_hor_seg
 1207              	.LVL103:
 1208 058c 32E0     		b	.L58
 1209              	.L61:
 389:..\lvgl\lv_draw/lv_draw_line.c ****                         seg_w + main_line->sx, mask, style->line.color, opa);
 1210              		.loc 1 389 0
 1211 058e B5F90000 		ldrsh	r0, [r5]
 1212 0592 B5F902E0 		ldrsh	lr, [r5, #2]
 1213 0596 08EB8A08 		add	r8, r8, r10, lsl #2
 1214 059a B8F90210 		ldrsh	r1, [r8, #2]
 1215 059e 4A44     		add	r2, r2, r9
 1216 05a0 7144     		add	r1, r1, lr
 1217 05a2 0139     		subs	r1, r1, #1
 1218 05a4 1844     		add	r0, r0, r3
 1219 05a6 7B69     		ldr	r3, [r7, #20]
 1220 05a8 0193     		str	r3, [sp, #4]
 1221 05aa 96F83030 		ldrb	r3, [r6, #48]	@ zero_extendqisi2
 1222 05ae 8DF80030 		strb	r3, [sp]
 1223 05b2 3B69     		ldr	r3, [r7, #16]
 1224 05b4 12B2     		sxth	r2, r2
 1225 05b6 09B2     		sxth	r1, r1
 1226 05b8 00B2     		sxth	r0, r0
 1227 05ba FFF7FEFF 		bl	lv_draw_aa_hor_seg
 1228              	.LVL104:
 392:..\lvgl\lv_draw/lv_draw_line.c ****                         -(seg_w + main_line->sx), mask, style->line.color, opa);
 1229              		.loc 1 392 0
 1230 05be B5F904E0 		ldrsh	lr, [r5, #4]
 1231 05c2 34F92A00 		ldrsh	r0, [r4, r10, lsl #2]
ARM GAS  C:\Users\d3bug\AppData\Local\Temp\ccg1LD4z.s 			page 35


 1232 05c6 B5F90610 		ldrsh	r1, [r5, #6]
 1233 05ca B8F90230 		ldrsh	r3, [r8, #2]
 393:..\lvgl\lv_draw/lv_draw_line.c ****             }
 1234              		.loc 1 393 0
 1235 05ce B5F90E20 		ldrsh	r2, [r5, #14]
 392:..\lvgl\lv_draw/lv_draw_line.c ****                         -(seg_w + main_line->sx), mask, style->line.color, opa);
 1236              		.loc 1 392 0
 1237 05d2 4A44     		add	r2, r2, r9
 1238 05d4 5242     		negs	r2, r2
 1239 05d6 1944     		add	r1, r1, r3
 1240 05d8 0131     		adds	r1, r1, #1
 1241 05da 7044     		add	r0, r0, lr
 1242 05dc 7B69     		ldr	r3, [r7, #20]
 1243 05de 0193     		str	r3, [sp, #4]
 1244 05e0 96F83030 		ldrb	r3, [r6, #48]	@ zero_extendqisi2
 1245 05e4 8DF80030 		strb	r3, [sp]
 1246 05e8 3B69     		ldr	r3, [r7, #16]
 1247 05ea 12B2     		sxth	r2, r2
 1248 05ec 09B2     		sxth	r1, r1
 1249 05ee 00B2     		sxth	r0, r0
 1250 05f0 FFF7FEFF 		bl	lv_draw_aa_hor_seg
 1251              	.LVL105:
 1252              	.L58:
 1253              	.LBE7:
 406:..\lvgl\lv_draw/lv_draw_line.c ****         if(main_line->sx < 0) {
 1254              		.loc 1 406 0
 1255 05f4 2B7E     		ldrb	r3, [r5, #24]	@ zero_extendqisi2
 1256 05f6 93B9     		cbnz	r3, .L62
 407:..\lvgl\lv_draw/lv_draw_line.c ****             aa_shift1 = -1;
 1257              		.loc 1 407 0
 1258 05f8 B5F90E20 		ldrsh	r2, [r5, #14]
 1259 05fc 002A     		cmp	r2, #0
 1260 05fe 07DA     		bge	.L63
 1261              	.LVL106:
 409:..\lvgl\lv_draw/lv_draw_line.c ****         } else {
 1262              		.loc 1 409 0
 1263 0600 BBF1000F 		cmp	fp, #0
 1264 0604 1ED0     		beq	.L84
 1265 0606 4FF0FF32 		mov	r2, #-1
 1266 060a 7A60     		str	r2, [r7, #4]
 408:..\lvgl\lv_draw/lv_draw_line.c ****             aa_shift2 = width == 0 ? 0 : aa_shift1;
 1267              		.loc 1 408 0
 1268 060c BA60     		str	r2, [r7, #8]
 1269 060e 2EE0     		b	.L64
 1270              	.LVL107:
 1271              	.L63:
 412:..\lvgl\lv_draw/lv_draw_line.c ****         }
 1272              		.loc 1 412 0
 1273 0610 BBF1000F 		cmp	fp, #0
 1274 0614 1CD0     		beq	.L85
 411:..\lvgl\lv_draw/lv_draw_line.c ****             aa_shift1 = width == 0 ? 0 : aa_shift2;
 1275              		.loc 1 411 0
 1276 0616 0122     		movs	r2, #1
 1277 0618 7A60     		str	r2, [r7, #4]
 412:..\lvgl\lv_draw/lv_draw_line.c ****         }
 1278              		.loc 1 412 0
 1279 061a BA60     		str	r2, [r7, #8]
ARM GAS  C:\Users\d3bug\AppData\Local\Temp\ccg1LD4z.s 			page 36


 1280 061c 27E0     		b	.L64
 1281              	.LVL108:
 1282              	.L62:
 415:..\lvgl\lv_draw/lv_draw_line.c ****             aa_shift1 = -1;
 1283              		.loc 1 415 0
 1284 061e B5F91220 		ldrsh	r2, [r5, #18]
 1285 0622 002A     		cmp	r2, #0
 1286 0624 07DA     		bge	.L65
 1287              	.LVL109:
 417:..\lvgl\lv_draw/lv_draw_line.c ****         } else {
 1288              		.loc 1 417 0
 1289 0626 BBF1000F 		cmp	fp, #0
 1290 062a 16D0     		beq	.L86
 1291 062c 4FF0FF32 		mov	r2, #-1
 1292 0630 7A60     		str	r2, [r7, #4]
 416:..\lvgl\lv_draw/lv_draw_line.c ****             aa_shift2 = width == 0 ? 0 : aa_shift1;
 1293              		.loc 1 416 0
 1294 0632 BA60     		str	r2, [r7, #8]
 1295 0634 1BE0     		b	.L64
 1296              	.LVL110:
 1297              	.L65:
 420:..\lvgl\lv_draw/lv_draw_line.c ****         }
 1298              		.loc 1 420 0
 1299 0636 BBF1000F 		cmp	fp, #0
 1300 063a 14D0     		beq	.L87
 419:..\lvgl\lv_draw/lv_draw_line.c ****             aa_shift1 = width == 0 ? 0 : aa_shift2;
 1301              		.loc 1 419 0
 1302 063c 0122     		movs	r2, #1
 1303 063e 7A60     		str	r2, [r7, #4]
 420:..\lvgl\lv_draw/lv_draw_line.c ****         }
 1304              		.loc 1 420 0
 1305 0640 BA60     		str	r2, [r7, #8]
 1306 0642 14E0     		b	.L64
 1307              	.LVL111:
 1308              	.L84:
 409:..\lvgl\lv_draw/lv_draw_line.c ****         } else {
 1309              		.loc 1 409 0
 1310 0644 0022     		movs	r2, #0
 1311 0646 7A60     		str	r2, [r7, #4]
 408:..\lvgl\lv_draw/lv_draw_line.c ****             aa_shift2 = width == 0 ? 0 : aa_shift1;
 1312              		.loc 1 408 0
 1313 0648 4FF0FF32 		mov	r2, #-1
 1314 064c BA60     		str	r2, [r7, #8]
 1315 064e 0EE0     		b	.L64
 1316              	.LVL112:
 1317              	.L85:
 411:..\lvgl\lv_draw/lv_draw_line.c ****             aa_shift1 = width == 0 ? 0 : aa_shift2;
 1318              		.loc 1 411 0
 1319 0650 0122     		movs	r2, #1
 1320 0652 7A60     		str	r2, [r7, #4]
 412:..\lvgl\lv_draw/lv_draw_line.c ****         }
 1321              		.loc 1 412 0
 1322 0654 0022     		movs	r2, #0
 1323 0656 BA60     		str	r2, [r7, #8]
 1324 0658 09E0     		b	.L64
 1325              	.LVL113:
 1326              	.L86:
ARM GAS  C:\Users\d3bug\AppData\Local\Temp\ccg1LD4z.s 			page 37


 417:..\lvgl\lv_draw/lv_draw_line.c ****         } else {
 1327              		.loc 1 417 0
 1328 065a 0022     		movs	r2, #0
 1329 065c 7A60     		str	r2, [r7, #4]
 416:..\lvgl\lv_draw/lv_draw_line.c ****             aa_shift2 = width == 0 ? 0 : aa_shift1;
 1330              		.loc 1 416 0
 1331 065e 4FF0FF32 		mov	r2, #-1
 1332 0662 BA60     		str	r2, [r7, #8]
 1333 0664 03E0     		b	.L64
 1334              	.LVL114:
 1335              	.L87:
 419:..\lvgl\lv_draw/lv_draw_line.c ****             aa_shift1 = width == 0 ? 0 : aa_shift2;
 1336              		.loc 1 419 0
 1337 0666 0122     		movs	r2, #1
 1338 0668 7A60     		str	r2, [r7, #4]
 420:..\lvgl\lv_draw/lv_draw_line.c ****         }
 1339              		.loc 1 420 0
 1340 066a 0022     		movs	r2, #0
 1341 066c BA60     		str	r2, [r7, #8]
 1342              	.LVL115:
 1343              	.L64:
 427:..\lvgl\lv_draw/lv_draw_line.c ****     prev_p.y = main_line->p1.y;
 1344              		.loc 1 427 0
 1345 066e B5F90020 		ldrsh	r2, [r5]
 1346 0672 A7F84020 		strh	r2, [r7, #64]	@ movhi
 428:..\lvgl\lv_draw/lv_draw_line.c ****     lv_area_t draw_area;
 1347              		.loc 1 428 0
 1348 0676 B5F90220 		ldrsh	r2, [r5, #2]
 1349 067a A7F84220 		strh	r2, [r7, #66]	@ movhi
 1350              	.LVL116:
 432:..\lvgl\lv_draw/lv_draw_line.c ****         while(line_next_y(main_line)) {
 1351              		.loc 1 432 0
 1352 067e 002B     		cmp	r3, #0
 1353 0680 40F09380 		bne	.L88
 1354 0684 4FF0010A 		mov	r10, #1
 1355              	.LVL117:
 1356 0688 A046     		mov	r8, r4
 1357 068a A946     		mov	r9, r5
 1358 068c B7E1     		b	.L67
 1359              	.LVL118:
 1360              	.L69:
 435:..\lvgl\lv_draw/lv_draw_line.c ****                 draw_area.y1 = prev_p.y + pattern[i].y;
 1361              		.loc 1 435 0
 1362 068e B7F84030 		ldrh	r3, [r7, #64]
 1363 0692 38F92420 		ldrsh	r2, [r8, r4, lsl #2]
 1364 0696 1344     		add	r3, r3, r2
 1365 0698 9BB2     		uxth	r3, r3
 1366 069a 3B87     		strh	r3, [r7, #56]	@ movhi
 436:..\lvgl\lv_draw/lv_draw_line.c ****                 draw_area.x2 = draw_area.x1 + main_line->p_act.x - prev_p.x - 1;
 1367              		.loc 1 436 0
 1368 069c B7F84220 		ldrh	r2, [r7, #66]
 1369 06a0 08EB8401 		add	r1, r8, r4, lsl #2
 1370 06a4 B1F90210 		ldrsh	r1, [r1, #2]
 1371 06a8 1144     		add	r1, r1, r2
 1372 06aa 09B2     		sxth	r1, r1
 1373 06ac 7987     		strh	r1, [r7, #58]	@ movhi
 437:..\lvgl\lv_draw/lv_draw_line.c ****                 draw_area.y2 = draw_area.y1;
ARM GAS  C:\Users\d3bug\AppData\Local\Temp\ccg1LD4z.s 			page 38


 1374              		.loc 1 437 0
 1375 06ae B9F90820 		ldrsh	r2, [r9, #8]
 1376 06b2 B7F84000 		ldrh	r0, [r7, #64]
 1377 06b6 1344     		add	r3, r3, r2
 1378 06b8 1B1A     		subs	r3, r3, r0
 1379 06ba 013B     		subs	r3, r3, #1
 1380 06bc BB87     		strh	r3, [r7, #60]	@ movhi
 438:..\lvgl\lv_draw/lv_draw_line.c ****                 fill_fp(&draw_area, mask, style->line.color, opa);
 1381              		.loc 1 438 0
 1382 06be F987     		strh	r1, [r7, #62]	@ movhi
 439:..\lvgl\lv_draw/lv_draw_line.c **** 
 1383              		.loc 1 439 0
 1384 06c0 A64B     		ldr	r3, .L92
 1385 06c2 1D68     		ldr	r5, [r3]
 1386 06c4 7B69     		ldr	r3, [r7, #20]
 1387 06c6 96F83020 		ldrb	r2, [r6, #48]	@ zero_extendqisi2
 1388 06ca 3969     		ldr	r1, [r7, #16]
 1389 06cc 07F13800 		add	r0, r7, #56
 1390              	.LVL119:
 1391 06d0 A847     		blx	r5
 1392              	.LVL120:
 443:..\lvgl\lv_draw/lv_draw_line.c ****                     px_fp(draw_area.x1, draw_area.y1 - main_line->sy, mask, style->line.color, opa)
 1393              		.loc 1 443 0
 1394 06d2 CCB1     		cbz	r4, .L68
 443:..\lvgl\lv_draw/lv_draw_line.c ****                     px_fp(draw_area.x1, draw_area.y1 - main_line->sy, mask, style->line.color, opa)
 1395              		.loc 1 443 0 is_stmt 0 discriminator 1
 1396 06d4 38F92420 		ldrsh	r2, [r8, r4, lsl #2]
 1397 06d8 631E     		subs	r3, r4, #1
 1398 06da 38F92330 		ldrsh	r3, [r8, r3, lsl #2]
 1399 06de 9A42     		cmp	r2, r3
 1400 06e0 12D0     		beq	.L68
 443:..\lvgl\lv_draw/lv_draw_line.c ****                     px_fp(draw_area.x1, draw_area.y1 - main_line->sy, mask, style->line.color, opa)
 1401              		.loc 1 443 0 discriminator 2
 1402 06e2 BAF1000F 		cmp	r10, #0
 1403 06e6 0FD1     		bne	.L68
 444:..\lvgl\lv_draw/lv_draw_line.c ****                 }
 1404              		.loc 1 444 0 is_stmt 1
 1405 06e8 B7F93A20 		ldrsh	r2, [r7, #58]
 1406 06ec B9F91210 		ldrsh	r1, [r9, #18]
 1407 06f0 96F83030 		ldrb	r3, [r6, #48]	@ zero_extendqisi2
 1408 06f4 511A     		subs	r1, r2, r1
 1409 06f6 B7F93800 		ldrsh	r0, [r7, #56]
 1410 06fa 7A69     		ldr	r2, [r7, #20]
 1411 06fc 0092     		str	r2, [sp]
 1412 06fe 984A     		ldr	r2, .L92+4
 1413 0700 1568     		ldr	r5, [r2]
 1414 0702 3A69     		ldr	r2, [r7, #16]
 1415 0704 09B2     		sxth	r1, r1
 1416 0706 A847     		blx	r5
 1417              	.LVL121:
 1418              	.L68:
 434:..\lvgl\lv_draw/lv_draw_line.c ****                 draw_area.x1 = prev_p.x + pattern[i].x;
 1419              		.loc 1 434 0 discriminator 2
 1420 0708 0134     		adds	r4, r4, #1
 1421              	.LVL122:
 1422 070a 24B2     		sxth	r4, r4
 1423              	.LVL123:
ARM GAS  C:\Users\d3bug\AppData\Local\Temp\ccg1LD4z.s 			page 39


 1424 070c 00E0     		b	.L70
 1425              	.LVL124:
 1426              	.L89:
 1427 070e 0024     		movs	r4, #0
 1428              	.L70:
 1429              	.LVL125:
 434:..\lvgl\lv_draw/lv_draw_line.c ****                 draw_area.x1 = prev_p.x + pattern[i].x;
 1430              		.loc 1 434 0 is_stmt 0 discriminator 1
 1431 0710 A345     		cmp	fp, r4
 1432 0712 BCDC     		bgt	.L69
 449:..\lvgl\lv_draw/lv_draw_line.c ****                     -(main_line->p_act.x - prev_p.x), mask, style->line.color, opa);
 1433              		.loc 1 449 0 is_stmt 1
 1434 0714 B7F84000 		ldrh	r0, [r7, #64]
 1435 0718 B8F90040 		ldrsh	r4, [r8]
 1436              	.LVL126:
 1437 071c B7F84230 		ldrh	r3, [r7, #66]
 1438 0720 B8F90210 		ldrsh	r1, [r8, #2]
 450:..\lvgl\lv_draw/lv_draw_line.c ****             lv_draw_aa_hor_seg(prev_p.x + pattern[width_safe - 1].x, prev_p.y + pattern[width_safe 
 1439              		.loc 1 450 0
 1440 0724 B7F84050 		ldrh	r5, [r7, #64]
 1441 0728 B9F90820 		ldrsh	r2, [r9, #8]
 449:..\lvgl\lv_draw/lv_draw_line.c ****                     -(main_line->p_act.x - prev_p.x), mask, style->line.color, opa);
 1442              		.loc 1 449 0
 1443 072c AA1A     		subs	r2, r5, r2
 1444 072e 1944     		add	r1, r1, r3
 1445 0730 BB68     		ldr	r3, [r7, #8]
 1446 0732 C91A     		subs	r1, r1, r3
 1447 0734 2044     		add	r0, r0, r4
 1448 0736 7B69     		ldr	r3, [r7, #20]
 1449 0738 0193     		str	r3, [sp, #4]
 1450 073a 96F83030 		ldrb	r3, [r6, #48]	@ zero_extendqisi2
 1451 073e 8DF80030 		strb	r3, [sp]
 1452 0742 D7F810A0 		ldr	r10, [r7, #16]
 1453              	.LVL127:
 1454 0746 5346     		mov	r3, r10
 1455 0748 12B2     		sxth	r2, r2
 1456 074a 09B2     		sxth	r1, r1
 1457 074c 00B2     		sxth	r0, r0
 1458 074e FFF7FEFF 		bl	lv_draw_aa_hor_seg
 1459              	.LVL128:
 451:..\lvgl\lv_draw/lv_draw_line.c ****                     main_line->p_act.x - prev_p.x, mask, style->line.color, opa);
 1460              		.loc 1 451 0
 1461 0752 B7F84000 		ldrh	r0, [r7, #64]
 1462 0756 FA68     		ldr	r2, [r7, #12]
 1463 0758 531E     		subs	r3, r2, #1
 1464 075a 38F92340 		ldrsh	r4, [r8, r3, lsl #2]
 1465 075e B7F84210 		ldrh	r1, [r7, #66]
 1466 0762 08EB8303 		add	r3, r8, r3, lsl #2
 1467 0766 B3F90230 		ldrsh	r3, [r3, #2]
 452:..\lvgl\lv_draw/lv_draw_line.c **** #endif
 1468              		.loc 1 452 0
 1469 076a B9F90850 		ldrsh	r5, [r9, #8]
 1470 076e B7F84020 		ldrh	r2, [r7, #64]
 451:..\lvgl\lv_draw/lv_draw_line.c ****                     main_line->p_act.x - prev_p.x, mask, style->line.color, opa);
 1471              		.loc 1 451 0
 1472 0772 AA1A     		subs	r2, r5, r2
 1473 0774 1944     		add	r1, r1, r3
ARM GAS  C:\Users\d3bug\AppData\Local\Temp\ccg1LD4z.s 			page 40


 1474 0776 7D68     		ldr	r5, [r7, #4]
 1475 0778 2944     		add	r1, r1, r5
 1476 077a 2044     		add	r0, r0, r4
 1477 077c 7C69     		ldr	r4, [r7, #20]
 1478 077e 0194     		str	r4, [sp, #4]
 1479 0780 96F83030 		ldrb	r3, [r6, #48]	@ zero_extendqisi2
 1480 0784 8DF80030 		strb	r3, [sp]
 1481 0788 5346     		mov	r3, r10
 1482 078a 12B2     		sxth	r2, r2
 1483 078c 09B2     		sxth	r1, r1
 1484 078e 00B2     		sxth	r0, r0
 1485 0790 FFF7FEFF 		bl	lv_draw_aa_hor_seg
 1486              	.LVL129:
 457:..\lvgl\lv_draw/lv_draw_line.c ****             prev_p.y = main_line->p_act.y;
 1487              		.loc 1 457 0
 1488 0794 B9F90830 		ldrsh	r3, [r9, #8]
 1489 0798 A7F84030 		strh	r3, [r7, #64]	@ movhi
 458:..\lvgl\lv_draw/lv_draw_line.c ****         }
 1490              		.loc 1 458 0
 1491 079c B9F90A30 		ldrsh	r3, [r9, #10]
 1492 07a0 A7F84230 		strh	r3, [r7, #66]	@ movhi
 455:..\lvgl\lv_draw/lv_draw_line.c **** 
 1493              		.loc 1 455 0
 1494 07a4 4FF0000A 		mov	r10, #0
 1495 07a8 03E0     		b	.L66
 1496              	.LVL130:
 1497              	.L88:
 1498 07aa 4FF0010A 		mov	r10, #1
 1499              	.LVL131:
 1500 07ae A046     		mov	r8, r4
 1501 07b0 A946     		mov	r9, r5
 1502              	.LVL132:
 1503              	.L66:
 433:..\lvgl\lv_draw/lv_draw_line.c ****             for(i = 0; i < width; i++) {
 1504              		.loc 1 433 0
 1505 07b2 4846     		mov	r0, r9
 1506 07b4 FFF7FEFF 		bl	line_next_y
 1507              	.LVL133:
 1508 07b8 0028     		cmp	r0, #0
 1509 07ba A8D1     		bne	.L89
 1510 07bc 4446     		mov	r4, r8
 1511 07be 4FF00008 		mov	r8, #0
 1512              	.LVL134:
 1513 07c2 2346     		mov	r3, r4
 1514 07c4 4446     		mov	r4, r8
 1515              	.LVL135:
 1516 07c6 9846     		mov	r8, r3
 1517 07c8 3DE0     		b	.L71
 1518              	.LVL136:
 1519              	.L73:
 462:..\lvgl\lv_draw/lv_draw_line.c ****             draw_area.y1 = prev_p.y + pattern[i].y;
 1520              		.loc 1 462 0
 1521 07ca B7F84030 		ldrh	r3, [r7, #64]
 1522 07ce 38F92420 		ldrsh	r2, [r8, r4, lsl #2]
 1523 07d2 1A44     		add	r2, r2, r3
 1524 07d4 92B2     		uxth	r2, r2
 1525 07d6 3A87     		strh	r2, [r7, #56]	@ movhi
ARM GAS  C:\Users\d3bug\AppData\Local\Temp\ccg1LD4z.s 			page 41


 463:..\lvgl\lv_draw/lv_draw_line.c ****             draw_area.x2 = draw_area.x1 + main_line->p_act.x - prev_p.x;
 1526              		.loc 1 463 0
 1527 07d8 B7F84230 		ldrh	r3, [r7, #66]
 1528 07dc 08EB8401 		add	r1, r8, r4, lsl #2
 1529 07e0 B1F90210 		ldrsh	r1, [r1, #2]
 1530 07e4 0B44     		add	r3, r3, r1
 1531 07e6 1BB2     		sxth	r3, r3
 1532 07e8 7B87     		strh	r3, [r7, #58]	@ movhi
 464:..\lvgl\lv_draw/lv_draw_line.c ****             draw_area.y2 = draw_area.y1;
 1533              		.loc 1 464 0
 1534 07ea B9F90810 		ldrsh	r1, [r9, #8]
 1535 07ee B7F84000 		ldrh	r0, [r7, #64]
 1536 07f2 0A44     		add	r2, r2, r1
 1537 07f4 121A     		subs	r2, r2, r0
 1538 07f6 BA87     		strh	r2, [r7, #60]	@ movhi
 465:..\lvgl\lv_draw/lv_draw_line.c ****             fill_fp(&draw_area, mask, style->line.color, opa);
 1539              		.loc 1 465 0
 1540 07f8 FB87     		strh	r3, [r7, #62]	@ movhi
 466:..\lvgl\lv_draw/lv_draw_line.c **** 
 1541              		.loc 1 466 0
 1542 07fa 584B     		ldr	r3, .L92
 1543 07fc 1D68     		ldr	r5, [r3]
 1544 07fe 7B69     		ldr	r3, [r7, #20]
 1545 0800 96F83020 		ldrb	r2, [r6, #48]	@ zero_extendqisi2
 1546 0804 3969     		ldr	r1, [r7, #16]
 1547 0806 07F13800 		add	r0, r7, #56
 1548              	.LVL137:
 1549 080a A847     		blx	r5
 1550              	.LVL138:
 470:..\lvgl\lv_draw/lv_draw_line.c ****                 px_fp(draw_area.x1, draw_area.y1 - main_line->sy, mask, style->line.color, opa);
 1551              		.loc 1 470 0
 1552 080c CCB1     		cbz	r4, .L72
 470:..\lvgl\lv_draw/lv_draw_line.c ****                 px_fp(draw_area.x1, draw_area.y1 - main_line->sy, mask, style->line.color, opa);
 1553              		.loc 1 470 0 is_stmt 0 discriminator 1
 1554 080e 38F92420 		ldrsh	r2, [r8, r4, lsl #2]
 1555 0812 631E     		subs	r3, r4, #1
 1556 0814 38F92330 		ldrsh	r3, [r8, r3, lsl #2]
 1557 0818 9A42     		cmp	r2, r3
 1558 081a 12D0     		beq	.L72
 470:..\lvgl\lv_draw/lv_draw_line.c ****                 px_fp(draw_area.x1, draw_area.y1 - main_line->sy, mask, style->line.color, opa);
 1559              		.loc 1 470 0 discriminator 2
 1560 081c BAF1000F 		cmp	r10, #0
 1561 0820 0FD1     		bne	.L72
 471:..\lvgl\lv_draw/lv_draw_line.c ****             }
 1562              		.loc 1 471 0 is_stmt 1
 1563 0822 B7F93A20 		ldrsh	r2, [r7, #58]
 1564 0826 B9F91210 		ldrsh	r1, [r9, #18]
 1565 082a 96F83030 		ldrb	r3, [r6, #48]	@ zero_extendqisi2
 1566 082e 511A     		subs	r1, r2, r1
 1567 0830 B7F93800 		ldrsh	r0, [r7, #56]
 1568 0834 7A69     		ldr	r2, [r7, #20]
 1569 0836 0092     		str	r2, [sp]
 1570 0838 494A     		ldr	r2, .L92+4
 1571 083a 1568     		ldr	r5, [r2]
 1572 083c 3A69     		ldr	r2, [r7, #16]
 1573 083e 09B2     		sxth	r1, r1
 1574 0840 A847     		blx	r5
ARM GAS  C:\Users\d3bug\AppData\Local\Temp\ccg1LD4z.s 			page 42


 1575              	.LVL139:
 1576              	.L72:
 461:..\lvgl\lv_draw/lv_draw_line.c ****             draw_area.x1 = prev_p.x + pattern[i].x;
 1577              		.loc 1 461 0 discriminator 2
 1578 0842 0134     		adds	r4, r4, #1
 1579              	.LVL140:
 1580 0844 24B2     		sxth	r4, r4
 1581              	.LVL141:
 1582              	.L71:
 461:..\lvgl\lv_draw/lv_draw_line.c ****             draw_area.x1 = prev_p.x + pattern[i].x;
 1583              		.loc 1 461 0 is_stmt 0 discriminator 1
 1584 0846 A345     		cmp	fp, r4
 1585 0848 BFDC     		bgt	.L73
 1586 084a 4446     		mov	r4, r8
 1587              	.LVL142:
 476:..\lvgl\lv_draw/lv_draw_line.c ****                 -(main_line->p_act.x - prev_p.x + 1), mask, style->line.color, opa);
 1588              		.loc 1 476 0 is_stmt 1
 1589 084c B7F84000 		ldrh	r0, [r7, #64]
 1590 0850 B8F900E0 		ldrsh	lr, [r8]
 1591 0854 B7F84230 		ldrh	r3, [r7, #66]
 1592 0858 B8F90210 		ldrsh	r1, [r8, #2]
 477:..\lvgl\lv_draw/lv_draw_line.c ****         lv_draw_aa_hor_seg(prev_p.x + pattern[width_safe - 1].x, prev_p.y + pattern[width_safe - 1]
 1593              		.loc 1 477 0
 1594 085c B9F90820 		ldrsh	r2, [r9, #8]
 1595 0860 B7F840C0 		ldrh	ip, [r7, #64]
 476:..\lvgl\lv_draw/lv_draw_line.c ****                 -(main_line->p_act.x - prev_p.x + 1), mask, style->line.color, opa);
 1596              		.loc 1 476 0
 1597 0864 CCEB0202 		rsb	r2, ip, r2
 1598 0868 D243     		mvns	r2, r2
 1599 086a 1944     		add	r1, r1, r3
 1600 086c BB68     		ldr	r3, [r7, #8]
 1601 086e C91A     		subs	r1, r1, r3
 1602 0870 7044     		add	r0, r0, lr
 1603 0872 7B69     		ldr	r3, [r7, #20]
 1604 0874 0193     		str	r3, [sp, #4]
 1605 0876 96F83030 		ldrb	r3, [r6, #48]	@ zero_extendqisi2
 1606 087a 8DF80030 		strb	r3, [sp]
 1607 087e D7F81080 		ldr	r8, [r7, #16]
 1608              	.LVL143:
 1609 0882 4346     		mov	r3, r8
 1610 0884 12B2     		sxth	r2, r2
 1611 0886 09B2     		sxth	r1, r1
 1612 0888 00B2     		sxth	r0, r0
 1613 088a FFF7FEFF 		bl	lv_draw_aa_hor_seg
 1614              	.LVL144:
 478:..\lvgl\lv_draw/lv_draw_line.c ****                 main_line->p_act.x - prev_p.x + 1, mask, style->line.color, opa);
 1615              		.loc 1 478 0
 1616 088e B7F84000 		ldrh	r0, [r7, #64]
 1617 0892 FA68     		ldr	r2, [r7, #12]
 1618 0894 531E     		subs	r3, r2, #1
 1619 0896 34F923E0 		ldrsh	lr, [r4, r3, lsl #2]
 1620 089a B7F84210 		ldrh	r1, [r7, #66]
 1621 089e 04EB8303 		add	r3, r4, r3, lsl #2
 1622 08a2 B3F90240 		ldrsh	r4, [r3, #2]
 1623              	.LVL145:
 479:..\lvgl\lv_draw/lv_draw_line.c **** #endif
 1624              		.loc 1 479 0
ARM GAS  C:\Users\d3bug\AppData\Local\Temp\ccg1LD4z.s 			page 43


 1625 08a6 B9F90830 		ldrsh	r3, [r9, #8]
 1626 08aa B7F84020 		ldrh	r2, [r7, #64]
 478:..\lvgl\lv_draw/lv_draw_line.c ****                 main_line->p_act.x - prev_p.x + 1, mask, style->line.color, opa);
 1627              		.loc 1 478 0
 1628 08ae 9A1A     		subs	r2, r3, r2
 1629 08b0 0132     		adds	r2, r2, #1
 1630 08b2 2144     		add	r1, r1, r4
 1631 08b4 7D68     		ldr	r5, [r7, #4]
 1632 08b6 2944     		add	r1, r1, r5
 1633 08b8 7044     		add	r0, r0, lr
 1634 08ba 7C69     		ldr	r4, [r7, #20]
 1635 08bc 0194     		str	r4, [sp, #4]
 1636 08be 96F83030 		ldrb	r3, [r6, #48]	@ zero_extendqisi2
 1637 08c2 8DF80030 		strb	r3, [sp]
 1638 08c6 4346     		mov	r3, r8
 1639 08c8 12B2     		sxth	r2, r2
 1640 08ca 09B2     		sxth	r1, r1
 1641 08cc 00B2     		sxth	r0, r0
 1642 08ce FFF7FEFF 		bl	lv_draw_aa_hor_seg
 1643              	.LVL146:
 1644 08d2 28E1     		b	.L36
 1645              	.LVL147:
 1646              	.L76:
 487:..\lvgl\lv_draw/lv_draw_line.c ****                 draw_area.y1 = prev_p.y + pattern[i].y;
 1647              		.loc 1 487 0
 1648 08d4 B7F84030 		ldrh	r3, [r7, #64]
 1649 08d8 38F92420 		ldrsh	r2, [r8, r4, lsl #2]
 1650 08dc 1A44     		add	r2, r2, r3
 1651 08de 12B2     		sxth	r2, r2
 1652 08e0 3A87     		strh	r2, [r7, #56]	@ movhi
 488:..\lvgl\lv_draw/lv_draw_line.c ****                 draw_area.x2 = draw_area.x1;
 1653              		.loc 1 488 0
 1654 08e2 B7F84230 		ldrh	r3, [r7, #66]
 1655 08e6 08EB8401 		add	r1, r8, r4, lsl #2
 1656 08ea B1F90210 		ldrsh	r1, [r1, #2]
 1657 08ee 0B44     		add	r3, r3, r1
 1658 08f0 9BB2     		uxth	r3, r3
 1659 08f2 7B87     		strh	r3, [r7, #58]	@ movhi
 489:..\lvgl\lv_draw/lv_draw_line.c ****                 draw_area.y2 = draw_area.y1 + main_line->p_act.y - prev_p.y - 1;
 1660              		.loc 1 489 0
 1661 08f4 BA87     		strh	r2, [r7, #60]	@ movhi
 490:..\lvgl\lv_draw/lv_draw_line.c **** 
 1662              		.loc 1 490 0
 1663 08f6 B9F90A20 		ldrsh	r2, [r9, #10]
 1664 08fa B7F84210 		ldrh	r1, [r7, #66]
 1665 08fe 1344     		add	r3, r3, r2
 1666 0900 5B1A     		subs	r3, r3, r1
 1667 0902 013B     		subs	r3, r3, #1
 1668 0904 FB87     		strh	r3, [r7, #62]	@ movhi
 492:..\lvgl\lv_draw/lv_draw_line.c **** 
 1669              		.loc 1 492 0
 1670 0906 154B     		ldr	r3, .L92
 1671 0908 1D68     		ldr	r5, [r3]
 1672 090a 7B69     		ldr	r3, [r7, #20]
 1673 090c 96F83020 		ldrb	r2, [r6, #48]	@ zero_extendqisi2
 1674 0910 3969     		ldr	r1, [r7, #16]
 1675 0912 07F13800 		add	r0, r7, #56
ARM GAS  C:\Users\d3bug\AppData\Local\Temp\ccg1LD4z.s 			page 44


 1676              	.LVL148:
 1677 0916 A847     		blx	r5
 1678              	.LVL149:
 496:..\lvgl\lv_draw/lv_draw_line.c ****                     px_fp(draw_area.x1 - main_line->sx, draw_area.y1, mask, style->line.color, opa)
 1679              		.loc 1 496 0
 1680 0918 ECB1     		cbz	r4, .L75
 496:..\lvgl\lv_draw/lv_draw_line.c ****                     px_fp(draw_area.x1 - main_line->sx, draw_area.y1, mask, style->line.color, opa)
 1681              		.loc 1 496 0 is_stmt 0 discriminator 1
 1682 091a 08EB8403 		add	r3, r8, r4, lsl #2
 1683 091e B3F90220 		ldrsh	r2, [r3, #2]
 1684 0922 631E     		subs	r3, r4, #1
 1685 0924 08EB8303 		add	r3, r8, r3, lsl #2
 1686 0928 B3F90230 		ldrsh	r3, [r3, #2]
 1687 092c 9A42     		cmp	r2, r3
 1688 092e 12D0     		beq	.L75
 496:..\lvgl\lv_draw/lv_draw_line.c ****                     px_fp(draw_area.x1 - main_line->sx, draw_area.y1, mask, style->line.color, opa)
 1689              		.loc 1 496 0 discriminator 2
 1690 0930 BAF1000F 		cmp	r10, #0
 1691 0934 0FD1     		bne	.L75
 497:..\lvgl\lv_draw/lv_draw_line.c ****                 }
 1692              		.loc 1 497 0 is_stmt 1
 1693 0936 B7F93800 		ldrsh	r0, [r7, #56]
 1694 093a B9F90E20 		ldrsh	r2, [r9, #14]
 1695 093e 96F83030 		ldrb	r3, [r6, #48]	@ zero_extendqisi2
 1696 0942 B7F93A10 		ldrsh	r1, [r7, #58]
 1697 0946 801A     		subs	r0, r0, r2
 1698 0948 7A69     		ldr	r2, [r7, #20]
 1699 094a 0092     		str	r2, [sp]
 1700 094c 044A     		ldr	r2, .L92+4
 1701 094e 1568     		ldr	r5, [r2]
 1702 0950 3A69     		ldr	r2, [r7, #16]
 1703 0952 00B2     		sxth	r0, r0
 1704 0954 A847     		blx	r5
 1705              	.LVL150:
 1706              	.L75:
 486:..\lvgl\lv_draw/lv_draw_line.c ****                 draw_area.x1 = prev_p.x + pattern[i].x;
 1707              		.loc 1 486 0 discriminator 2
 1708 0956 0134     		adds	r4, r4, #1
 1709              	.LVL151:
 1710 0958 24B2     		sxth	r4, r4
 1711              	.LVL152:
 1712 095a 04E0     		b	.L77
 1713              	.L93:
 1714              		.align	2
 1715              	.L92:
 1716 095c 00000000 		.word	fill_fp
 1717 0960 00000000 		.word	px_fp
 1718              	.LVL153:
 1719              	.L90:
 1720 0964 0024     		movs	r4, #0
 1721              	.L77:
 1722              	.LVL154:
 486:..\lvgl\lv_draw/lv_draw_line.c ****                 draw_area.x1 = prev_p.x + pattern[i].x;
 1723              		.loc 1 486 0 is_stmt 0 discriminator 1
 1724 0966 A345     		cmp	fp, r4
 1725 0968 B4DC     		bgt	.L76
 503:..\lvgl\lv_draw/lv_draw_line.c ****                     -(main_line->p_act.y - prev_p.y), mask, style->line.color, opa);
ARM GAS  C:\Users\d3bug\AppData\Local\Temp\ccg1LD4z.s 			page 45


 1726              		.loc 1 503 0 is_stmt 1
 1727 096a B7F84030 		ldrh	r3, [r7, #64]
 1728 096e B8F90000 		ldrsh	r0, [r8]
 1729 0972 B7F84210 		ldrh	r1, [r7, #66]
 1730 0976 B8F90240 		ldrsh	r4, [r8, #2]
 1731              	.LVL155:
 504:..\lvgl\lv_draw/lv_draw_line.c ****             lv_draw_aa_ver_seg(prev_p.x + pattern[width_safe - 1].x + aa_shift2, prev_p.y + pattern
 1732              		.loc 1 504 0
 1733 097a B7F84250 		ldrh	r5, [r7, #66]
 1734 097e B9F90A20 		ldrsh	r2, [r9, #10]
 503:..\lvgl\lv_draw/lv_draw_line.c ****                     -(main_line->p_act.y - prev_p.y), mask, style->line.color, opa);
 1735              		.loc 1 503 0
 1736 0982 AA1A     		subs	r2, r5, r2
 1737 0984 2144     		add	r1, r1, r4
 1738 0986 1844     		add	r0, r0, r3
 1739 0988 BB68     		ldr	r3, [r7, #8]
 1740 098a C01A     		subs	r0, r0, r3
 1741 098c 7B69     		ldr	r3, [r7, #20]
 1742 098e 0193     		str	r3, [sp, #4]
 1743 0990 96F83030 		ldrb	r3, [r6, #48]	@ zero_extendqisi2
 1744 0994 8DF80030 		strb	r3, [sp]
 1745 0998 D7F810A0 		ldr	r10, [r7, #16]
 1746              	.LVL156:
 1747 099c 5346     		mov	r3, r10
 1748 099e 12B2     		sxth	r2, r2
 1749 09a0 09B2     		sxth	r1, r1
 1750 09a2 00B2     		sxth	r0, r0
 1751 09a4 FFF7FEFF 		bl	lv_draw_aa_ver_seg
 1752              	.LVL157:
 505:..\lvgl\lv_draw/lv_draw_line.c ****                     main_line->p_act.y - prev_p.y, mask, style->line.color, opa);
 1753              		.loc 1 505 0
 1754 09a8 B7F84000 		ldrh	r0, [r7, #64]
 1755 09ac FA68     		ldr	r2, [r7, #12]
 1756 09ae 531E     		subs	r3, r2, #1
 1757 09b0 38F92340 		ldrsh	r4, [r8, r3, lsl #2]
 1758 09b4 B7F84210 		ldrh	r1, [r7, #66]
 1759 09b8 08EB8303 		add	r3, r8, r3, lsl #2
 1760 09bc B3F90230 		ldrsh	r3, [r3, #2]
 506:..\lvgl\lv_draw/lv_draw_line.c **** #endif
 1761              		.loc 1 506 0
 1762 09c0 B9F90A50 		ldrsh	r5, [r9, #10]
 1763 09c4 B7F84220 		ldrh	r2, [r7, #66]
 505:..\lvgl\lv_draw/lv_draw_line.c ****                     main_line->p_act.y - prev_p.y, mask, style->line.color, opa);
 1764              		.loc 1 505 0
 1765 09c8 AA1A     		subs	r2, r5, r2
 1766 09ca 1944     		add	r1, r1, r3
 1767 09cc 2044     		add	r0, r0, r4
 1768 09ce 7D68     		ldr	r5, [r7, #4]
 1769 09d0 2844     		add	r0, r0, r5
 1770 09d2 7C69     		ldr	r4, [r7, #20]
 1771 09d4 0194     		str	r4, [sp, #4]
 1772 09d6 96F83030 		ldrb	r3, [r6, #48]	@ zero_extendqisi2
 1773 09da 8DF80030 		strb	r3, [sp]
 1774 09de 5346     		mov	r3, r10
 1775 09e0 12B2     		sxth	r2, r2
 1776 09e2 09B2     		sxth	r1, r1
 1777 09e4 00B2     		sxth	r0, r0
ARM GAS  C:\Users\d3bug\AppData\Local\Temp\ccg1LD4z.s 			page 46


 1778 09e6 FFF7FEFF 		bl	lv_draw_aa_ver_seg
 1779              	.LVL158:
 511:..\lvgl\lv_draw/lv_draw_line.c ****             prev_p.y = main_line->p_act.y;
 1780              		.loc 1 511 0
 1781 09ea B9F90830 		ldrsh	r3, [r9, #8]
 1782 09ee A7F84030 		strh	r3, [r7, #64]	@ movhi
 512:..\lvgl\lv_draw/lv_draw_line.c ****         }
 1783              		.loc 1 512 0
 1784 09f2 B9F90A30 		ldrsh	r3, [r9, #10]
 1785 09f6 A7F84230 		strh	r3, [r7, #66]	@ movhi
 509:..\lvgl\lv_draw/lv_draw_line.c **** 
 1786              		.loc 1 509 0
 1787 09fa 4FF0000A 		mov	r10, #0
 1788              	.LVL159:
 1789              	.L67:
 485:..\lvgl\lv_draw/lv_draw_line.c ****             for(i = 0; i < width; i++) {
 1790              		.loc 1 485 0
 1791 09fe 4846     		mov	r0, r9
 1792 0a00 FFF7FEFF 		bl	line_next_x
 1793              	.LVL160:
 1794 0a04 0028     		cmp	r0, #0
 1795 0a06 ADD1     		bne	.L90
 1796 0a08 4446     		mov	r4, r8
 1797 0a0a 4FF00008 		mov	r8, #0
 1798              	.LVL161:
 1799 0a0e 2346     		mov	r3, r4
 1800 0a10 4446     		mov	r4, r8
 1801              	.LVL162:
 1802 0a12 9846     		mov	r8, r3
 1803 0a14 41E0     		b	.L78
 1804              	.LVL163:
 1805              	.L80:
 517:..\lvgl\lv_draw/lv_draw_line.c ****             draw_area.y1 = prev_p.y + pattern[i].y;
 1806              		.loc 1 517 0
 1807 0a16 B7F84030 		ldrh	r3, [r7, #64]
 1808 0a1a 38F92420 		ldrsh	r2, [r8, r4, lsl #2]
 1809 0a1e 1A44     		add	r2, r2, r3
 1810 0a20 12B2     		sxth	r2, r2
 1811 0a22 3A87     		strh	r2, [r7, #56]	@ movhi
 518:..\lvgl\lv_draw/lv_draw_line.c ****             draw_area.x2 = draw_area.x1;
 1812              		.loc 1 518 0
 1813 0a24 B7F84230 		ldrh	r3, [r7, #66]
 1814 0a28 08EB8401 		add	r1, r8, r4, lsl #2
 1815 0a2c B1F90210 		ldrsh	r1, [r1, #2]
 1816 0a30 0B44     		add	r3, r3, r1
 1817 0a32 9BB2     		uxth	r3, r3
 1818 0a34 7B87     		strh	r3, [r7, #58]	@ movhi
 519:..\lvgl\lv_draw/lv_draw_line.c ****             draw_area.y2 = draw_area.y1 + main_line->p_act.y - prev_p.y;
 1819              		.loc 1 519 0
 1820 0a36 BA87     		strh	r2, [r7, #60]	@ movhi
 520:..\lvgl\lv_draw/lv_draw_line.c **** 
 1821              		.loc 1 520 0
 1822 0a38 B9F90A20 		ldrsh	r2, [r9, #10]
 1823 0a3c B7F84210 		ldrh	r1, [r7, #66]
 1824 0a40 1344     		add	r3, r3, r2
 1825 0a42 5B1A     		subs	r3, r3, r1
 1826 0a44 FB87     		strh	r3, [r7, #62]	@ movhi
ARM GAS  C:\Users\d3bug\AppData\Local\Temp\ccg1LD4z.s 			page 47


 522:..\lvgl\lv_draw/lv_draw_line.c **** 
 1827              		.loc 1 522 0
 1828 0a46 3A4B     		ldr	r3, .L94
 1829 0a48 1D68     		ldr	r5, [r3]
 1830 0a4a 7B69     		ldr	r3, [r7, #20]
 1831 0a4c 96F83020 		ldrb	r2, [r6, #48]	@ zero_extendqisi2
 1832 0a50 3969     		ldr	r1, [r7, #16]
 1833 0a52 07F13800 		add	r0, r7, #56
 1834              	.LVL164:
 1835 0a56 A847     		blx	r5
 1836              	.LVL165:
 526:..\lvgl\lv_draw/lv_draw_line.c ****                 px_fp(draw_area.x1 - main_line->sx, draw_area.y1, mask, style->line.color, opa);
 1837              		.loc 1 526 0
 1838 0a58 ECB1     		cbz	r4, .L79
 526:..\lvgl\lv_draw/lv_draw_line.c ****                 px_fp(draw_area.x1 - main_line->sx, draw_area.y1, mask, style->line.color, opa);
 1839              		.loc 1 526 0 is_stmt 0 discriminator 1
 1840 0a5a 08EB8403 		add	r3, r8, r4, lsl #2
 1841 0a5e B3F90220 		ldrsh	r2, [r3, #2]
 1842 0a62 631E     		subs	r3, r4, #1
 1843 0a64 08EB8303 		add	r3, r8, r3, lsl #2
 1844 0a68 B3F90230 		ldrsh	r3, [r3, #2]
 1845 0a6c 9A42     		cmp	r2, r3
 1846 0a6e 12D0     		beq	.L79
 526:..\lvgl\lv_draw/lv_draw_line.c ****                 px_fp(draw_area.x1 - main_line->sx, draw_area.y1, mask, style->line.color, opa);
 1847              		.loc 1 526 0 discriminator 2
 1848 0a70 BAF1000F 		cmp	r10, #0
 1849 0a74 0FD1     		bne	.L79
 527:..\lvgl\lv_draw/lv_draw_line.c ****             }
 1850              		.loc 1 527 0 is_stmt 1
 1851 0a76 B7F93800 		ldrsh	r0, [r7, #56]
 1852 0a7a B9F90E20 		ldrsh	r2, [r9, #14]
 1853 0a7e 96F83030 		ldrb	r3, [r6, #48]	@ zero_extendqisi2
 1854 0a82 B7F93A10 		ldrsh	r1, [r7, #58]
 1855 0a86 801A     		subs	r0, r0, r2
 1856 0a88 7A69     		ldr	r2, [r7, #20]
 1857 0a8a 0092     		str	r2, [sp]
 1858 0a8c 294A     		ldr	r2, .L94+4
 1859 0a8e 1568     		ldr	r5, [r2]
 1860 0a90 3A69     		ldr	r2, [r7, #16]
 1861 0a92 00B2     		sxth	r0, r0
 1862 0a94 A847     		blx	r5
 1863              	.LVL166:
 1864              	.L79:
 516:..\lvgl\lv_draw/lv_draw_line.c ****             draw_area.x1 = prev_p.x + pattern[i].x;
 1865              		.loc 1 516 0 discriminator 2
 1866 0a96 0134     		adds	r4, r4, #1
 1867              	.LVL167:
 1868 0a98 24B2     		sxth	r4, r4
 1869              	.LVL168:
 1870              	.L78:
 516:..\lvgl\lv_draw/lv_draw_line.c ****             draw_area.x1 = prev_p.x + pattern[i].x;
 1871              		.loc 1 516 0 is_stmt 0 discriminator 1
 1872 0a9a A345     		cmp	fp, r4
 1873 0a9c BBDC     		bgt	.L80
 1874 0a9e 4446     		mov	r4, r8
 1875              	.LVL169:
 532:..\lvgl\lv_draw/lv_draw_line.c ****                 -(main_line->p_act.y - prev_p.y + 1), mask, style->line.color, opa);
ARM GAS  C:\Users\d3bug\AppData\Local\Temp\ccg1LD4z.s 			page 48


 1876              		.loc 1 532 0 is_stmt 1
 1877 0aa0 B7F84030 		ldrh	r3, [r7, #64]
 1878 0aa4 B8F90000 		ldrsh	r0, [r8]
 1879 0aa8 B7F84210 		ldrh	r1, [r7, #66]
 1880 0aac B8F902E0 		ldrsh	lr, [r8, #2]
 533:..\lvgl\lv_draw/lv_draw_line.c ****         lv_draw_aa_ver_seg(prev_p.x + pattern[width_safe - 1].x + aa_shift2, prev_p.y + pattern[wid
 1881              		.loc 1 533 0
 1882 0ab0 B9F90A20 		ldrsh	r2, [r9, #10]
 1883 0ab4 B7F842C0 		ldrh	ip, [r7, #66]
 532:..\lvgl\lv_draw/lv_draw_line.c ****                 -(main_line->p_act.y - prev_p.y + 1), mask, style->line.color, opa);
 1884              		.loc 1 532 0
 1885 0ab8 CCEB0202 		rsb	r2, ip, r2
 1886 0abc D243     		mvns	r2, r2
 1887 0abe 7144     		add	r1, r1, lr
 1888 0ac0 1844     		add	r0, r0, r3
 1889 0ac2 BB68     		ldr	r3, [r7, #8]
 1890 0ac4 C01A     		subs	r0, r0, r3
 1891 0ac6 7B69     		ldr	r3, [r7, #20]
 1892 0ac8 0193     		str	r3, [sp, #4]
 1893 0aca 96F83030 		ldrb	r3, [r6, #48]	@ zero_extendqisi2
 1894 0ace 8DF80030 		strb	r3, [sp]
 1895 0ad2 D7F81080 		ldr	r8, [r7, #16]
 1896              	.LVL170:
 1897 0ad6 4346     		mov	r3, r8
 1898 0ad8 12B2     		sxth	r2, r2
 1899 0ada 09B2     		sxth	r1, r1
 1900 0adc 00B2     		sxth	r0, r0
 1901 0ade FFF7FEFF 		bl	lv_draw_aa_ver_seg
 1902              	.LVL171:
 534:..\lvgl\lv_draw/lv_draw_line.c ****                 main_line->p_act.y - prev_p.y + 1, mask, style->line.color, opa);
 1903              		.loc 1 534 0
 1904 0ae2 B7F84000 		ldrh	r0, [r7, #64]
 1905 0ae6 FA68     		ldr	r2, [r7, #12]
 1906 0ae8 531E     		subs	r3, r2, #1
 1907 0aea 34F923E0 		ldrsh	lr, [r4, r3, lsl #2]
 1908 0aee B7F84210 		ldrh	r1, [r7, #66]
 1909 0af2 04EB8304 		add	r4, r4, r3, lsl #2
 1910              	.LVL172:
 1911 0af6 B4F90240 		ldrsh	r4, [r4, #2]
 535:..\lvgl\lv_draw/lv_draw_line.c **** #endif
 1912              		.loc 1 535 0
 1913 0afa B9F90A30 		ldrsh	r3, [r9, #10]
 1914 0afe B7F84220 		ldrh	r2, [r7, #66]
 534:..\lvgl\lv_draw/lv_draw_line.c ****                 main_line->p_act.y - prev_p.y + 1, mask, style->line.color, opa);
 1915              		.loc 1 534 0
 1916 0b02 9A1A     		subs	r2, r3, r2
 1917 0b04 0132     		adds	r2, r2, #1
 1918 0b06 2144     		add	r1, r1, r4
 1919 0b08 7044     		add	r0, r0, lr
 1920 0b0a 7D68     		ldr	r5, [r7, #4]
 1921 0b0c 2844     		add	r0, r0, r5
 1922 0b0e 7C69     		ldr	r4, [r7, #20]
 1923 0b10 0194     		str	r4, [sp, #4]
 1924 0b12 96F83030 		ldrb	r3, [r6, #48]	@ zero_extendqisi2
 1925 0b16 8DF80030 		strb	r3, [sp]
 1926 0b1a 4346     		mov	r3, r8
 1927 0b1c 12B2     		sxth	r2, r2
ARM GAS  C:\Users\d3bug\AppData\Local\Temp\ccg1LD4z.s 			page 49


 1928 0b1e 09B2     		sxth	r1, r1
 1929 0b20 00B2     		sxth	r0, r0
 1930 0b22 FFF7FEFF 		bl	lv_draw_aa_ver_seg
 1931              	.LVL173:
 1932              	.L36:
 538:..\lvgl\lv_draw/lv_draw_line.c **** 
 1933              		.loc 1 538 0
 1934 0b26 4C37     		adds	r7, r7, #76
 1935              		.cfi_def_cfa_offset 36
 1936              	.LVL174:
 1937 0b28 BD46     		mov	sp, r7
 1938              		.cfi_def_cfa_register 13
 1939              	.LVL175:
 1940              		@ sp needed
 1941 0b2a BDE8F08F 		pop	{r4, r5, r6, r7, r8, r9, r10, fp, pc}
 1942              	.LVL176:
 1943              	.L95:
 1944 0b2e 00BF     		.align	2
 1945              	.L94:
 1946 0b30 00000000 		.word	fill_fp
 1947 0b34 00000000 		.word	px_fp
 1948              		.cfi_endproc
 1949              	.LFE16:
 1950              		.size	line_draw_skew, .-line_draw_skew
 1951              		.section	.text.lv_draw_line,"ax",%progbits
 1952              		.align	2
 1953              		.global	lv_draw_line
 1954              		.thumb
 1955              		.thumb_func
 1956              		.type	lv_draw_line, %function
 1957              	lv_draw_line:
 1958              	.LFB13:
  77:..\lvgl\lv_draw/lv_draw_line.c **** 
 1959              		.loc 1 77 0
 1960              		.cfi_startproc
 1961              		@ args = 4, pretend = 0, frame = 40
 1962              		@ frame_needed = 0, uses_anonymous_args = 0
 1963              	.LVL177:
 1964 0000 2DE9F041 		push	{r4, r5, r6, r7, r8, lr}
 1965              		.cfi_def_cfa_offset 24
 1966              		.cfi_offset 4, -24
 1967              		.cfi_offset 5, -20
 1968              		.cfi_offset 6, -16
 1969              		.cfi_offset 7, -12
 1970              		.cfi_offset 8, -8
 1971              		.cfi_offset 14, -4
 1972 0004 8CB0     		sub	sp, sp, #48
 1973              		.cfi_def_cfa_offset 72
 1974 0006 9DF84860 		ldrb	r6, [sp, #72]	@ zero_extendqisi2
  79:..\lvgl\lv_draw/lv_draw_line.c ****     if(point1->x == point2->x && point1->y == point2->y) return;
 1975              		.loc 1 79 0
 1976 000a B3F93240 		ldrsh	r4, [r3, #50]
 1977 000e 002C     		cmp	r4, #0
 1978 0010 00F0D780 		beq	.L96
  80:..\lvgl\lv_draw/lv_draw_line.c **** 
 1979              		.loc 1 80 0
 1980 0014 B0F90050 		ldrsh	r5, [r0]
ARM GAS  C:\Users\d3bug\AppData\Local\Temp\ccg1LD4z.s 			page 50


 1981 0018 B1F90040 		ldrsh	r4, [r1]
 1982 001c A542     		cmp	r5, r4
 1983 001e 06D1     		bne	.L98
  80:..\lvgl\lv_draw/lv_draw_line.c **** 
 1984              		.loc 1 80 0 is_stmt 0 discriminator 1
 1985 0020 B0F902E0 		ldrsh	lr, [r0, #2]
 1986 0024 B1F90270 		ldrsh	r7, [r1, #2]
 1987 0028 BE45     		cmp	lr, r7
 1988 002a 00F0CA80 		beq	.L96
 1989              	.L98:
  88:..\lvgl\lv_draw/lv_draw_line.c **** 
 1990              		.loc 1 88 0 is_stmt 1
 1991 002e C4EB050E 		rsb	lr, r4, r5
 1992 0032 BEF1000F 		cmp	lr, #0
 1993 0036 B8BF     		it	lt
 1994 0038 CEF1000E 		rsblt	lr, lr, #0
 1995 003c B0F90280 		ldrsh	r8, [r0, #2]
 1996 0040 B1F902C0 		ldrsh	ip, [r1, #2]
 1997 0044 CCEB0807 		rsb	r7, ip, r8
 1998 0048 002F     		cmp	r7, #0
 1999 004a B8BF     		it	lt
 2000 004c 7F42     		rsblt	r7, r7, #0
 2001 004e BE45     		cmp	lr, r7
 2002 0050 1BDD     		ble	.L99
  91:..\lvgl\lv_draw/lv_draw_line.c ****             p1.x = point1->x;
 2003              		.loc 1 91 0
 2004 0052 A542     		cmp	r5, r4
 2005 0054 0CDA     		bge	.L100
  92:..\lvgl\lv_draw/lv_draw_line.c ****             p1.y = point1->y;
 2006              		.loc 1 92 0
 2007 0056 ADF81050 		strh	r5, [sp, #16]	@ movhi
  93:..\lvgl\lv_draw/lv_draw_line.c ****             p2.x = point2->x;
 2008              		.loc 1 93 0
 2009 005a ADF81280 		strh	r8, [sp, #18]	@ movhi
  94:..\lvgl\lv_draw/lv_draw_line.c ****             p2.y = point2->y;
 2010              		.loc 1 94 0
 2011 005e B1F90000 		ldrsh	r0, [r1]
 2012              	.LVL178:
 2013 0062 ADF80C00 		strh	r0, [sp, #12]	@ movhi
  95:..\lvgl\lv_draw/lv_draw_line.c ****         } else {
 2014              		.loc 1 95 0
 2015 0066 B1F90210 		ldrsh	r1, [r1, #2]
 2016              	.LVL179:
 2017 006a ADF80E10 		strh	r1, [sp, #14]	@ movhi
 2018 006e 27E0     		b	.L101
 2019              	.LVL180:
 2020              	.L100:
  97:..\lvgl\lv_draw/lv_draw_line.c ****             p1.y = point2->y;
 2021              		.loc 1 97 0
 2022 0070 ADF81040 		strh	r4, [sp, #16]	@ movhi
  98:..\lvgl\lv_draw/lv_draw_line.c ****             p2.x = point1->x;
 2023              		.loc 1 98 0
 2024 0074 ADF812C0 		strh	ip, [sp, #18]	@ movhi
  99:..\lvgl\lv_draw/lv_draw_line.c ****             p2.y = point1->y;
 2025              		.loc 1 99 0
 2026 0078 B0F90010 		ldrsh	r1, [r0]
 2027              	.LVL181:
ARM GAS  C:\Users\d3bug\AppData\Local\Temp\ccg1LD4z.s 			page 51


 2028 007c ADF80C10 		strh	r1, [sp, #12]	@ movhi
 100:..\lvgl\lv_draw/lv_draw_line.c ****         }
 2029              		.loc 1 100 0
 2030 0080 B0F90210 		ldrsh	r1, [r0, #2]
 2031 0084 ADF80E10 		strh	r1, [sp, #14]	@ movhi
 2032 0088 1AE0     		b	.L101
 2033              	.LVL182:
 2034              	.L99:
 104:..\lvgl\lv_draw/lv_draw_line.c ****             p1.x = point1->x;
 2035              		.loc 1 104 0
 2036 008a E045     		cmp	r8, ip
 2037 008c 0CDA     		bge	.L102
 105:..\lvgl\lv_draw/lv_draw_line.c ****             p1.y = point1->y;
 2038              		.loc 1 105 0
 2039 008e ADF81050 		strh	r5, [sp, #16]	@ movhi
 106:..\lvgl\lv_draw/lv_draw_line.c ****             p2.x = point2->x;
 2040              		.loc 1 106 0
 2041 0092 ADF81280 		strh	r8, [sp, #18]	@ movhi
 107:..\lvgl\lv_draw/lv_draw_line.c ****             p2.y = point2->y;
 2042              		.loc 1 107 0
 2043 0096 B1F90000 		ldrsh	r0, [r1]
 2044              	.LVL183:
 2045 009a ADF80C00 		strh	r0, [sp, #12]	@ movhi
 108:..\lvgl\lv_draw/lv_draw_line.c ****         } else {
 2046              		.loc 1 108 0
 2047 009e B1F90210 		ldrsh	r1, [r1, #2]
 2048              	.LVL184:
 2049 00a2 ADF80E10 		strh	r1, [sp, #14]	@ movhi
 2050 00a6 0BE0     		b	.L101
 2051              	.LVL185:
 2052              	.L102:
 110:..\lvgl\lv_draw/lv_draw_line.c ****             p1.y = point2->y;
 2053              		.loc 1 110 0
 2054 00a8 ADF81040 		strh	r4, [sp, #16]	@ movhi
 111:..\lvgl\lv_draw/lv_draw_line.c ****             p2.x = point1->x;
 2055              		.loc 1 111 0
 2056 00ac ADF812C0 		strh	ip, [sp, #18]	@ movhi
 112:..\lvgl\lv_draw/lv_draw_line.c ****             p2.y = point1->y;
 2057              		.loc 1 112 0
 2058 00b0 B0F90010 		ldrsh	r1, [r0]
 2059              	.LVL186:
 2060 00b4 ADF80C10 		strh	r1, [sp, #12]	@ movhi
 113:..\lvgl\lv_draw/lv_draw_line.c ****         }
 2061              		.loc 1 113 0
 2062 00b8 B0F90210 		ldrsh	r1, [r0, #2]
 2063 00bc ADF80E10 		strh	r1, [sp, #14]	@ movhi
 2064              	.LVL187:
 2065              	.L101:
 2066 00c0 1C46     		mov	r4, r3
 2067 00c2 1546     		mov	r5, r2
 117:..\lvgl\lv_draw/lv_draw_line.c **** 
 2068              		.loc 1 117 0
 2069 00c4 03AA     		add	r2, sp, #12
 2070              	.LVL188:
 2071 00c6 04A9     		add	r1, sp, #16
 2072 00c8 05A8     		add	r0, sp, #20
 2073 00ca FFF7FEFF 		bl	line_init
ARM GAS  C:\Users\d3bug\AppData\Local\Temp\ccg1LD4z.s 			page 52


 2074              	.LVL189:
 121:..\lvgl\lv_draw/lv_draw_line.c ****         line_draw_hor(&main_line, mask, style, opa_scale);
 2075              		.loc 1 121 0
 2076 00ce BDF91610 		ldrsh	r1, [sp, #22]
 2077 00d2 BDF91A30 		ldrsh	r3, [sp, #26]
 2078 00d6 9942     		cmp	r1, r3
 2079 00d8 06D1     		bne	.L103
 122:..\lvgl\lv_draw/lv_draw_line.c ****     }
 2080              		.loc 1 122 0
 2081 00da 3346     		mov	r3, r6
 2082 00dc 2246     		mov	r2, r4
 2083 00de 2946     		mov	r1, r5
 2084 00e0 05A8     		add	r0, sp, #20
 2085 00e2 FFF7FEFF 		bl	line_draw_hor
 2086              	.LVL190:
 2087 00e6 6CE0     		b	.L96
 2088              	.L103:
 125:..\lvgl\lv_draw/lv_draw_line.c ****         line_draw_ver(&main_line, mask, style, opa_scale);
 2089              		.loc 1 125 0
 2090 00e8 BDF91400 		ldrsh	r0, [sp, #20]
 2091 00ec BDF91820 		ldrsh	r2, [sp, #24]
 2092 00f0 9042     		cmp	r0, r2
 2093 00f2 06D1     		bne	.L105
 126:..\lvgl\lv_draw/lv_draw_line.c ****     }
 2094              		.loc 1 126 0
 2095 00f4 3346     		mov	r3, r6
 2096 00f6 2246     		mov	r2, r4
 2097 00f8 2946     		mov	r1, r5
 2098 00fa 05A8     		add	r0, sp, #20
 2099 00fc FFF7FEFF 		bl	line_draw_ver
 2100              	.LVL191:
 2101 0100 5FE0     		b	.L96
 2102              	.L105:
 2103              	.LVL192:
 2104              	.LBB8:
 134:..\lvgl\lv_draw/lv_draw_line.c ****             if(main_line.p1.y < main_line.p2.y) {
 2105              		.loc 1 134 0
 2106 0102 9DF82C70 		ldrb	r7, [sp, #44]	@ zero_extendqisi2
 2107 0106 4FB3     		cbz	r7, .L106
 135:..\lvgl\lv_draw/lv_draw_line.c ****                 dir_ori = true;
 2108              		.loc 1 135 0
 2109 0108 9942     		cmp	r1, r3
 2110 010a 12DA     		bge	.L107
 2111              	.LVL193:
 137:..\lvgl\lv_draw/lv_draw_line.c ****                 p_tmp.y = main_line.p2.y - 1;
 2112              		.loc 1 137 0
 2113 010c ADF80820 		strh	r2, [sp, #8]	@ movhi
 138:..\lvgl\lv_draw/lv_draw_line.c ****                 line_init(&main_line, &p1, &p_tmp);
 2114              		.loc 1 138 0
 2115 0110 013B     		subs	r3, r3, #1
 2116 0112 ADF80A30 		strh	r3, [sp, #10]	@ movhi
 139:..\lvgl\lv_draw/lv_draw_line.c ****                 main_line.sy = LV_MATH_ABS(main_line.sy);   /*The sign can change if the line becom
 2117              		.loc 1 139 0
 2118 0116 02AA     		add	r2, sp, #8
 2119 0118 04A9     		add	r1, sp, #16
 2120 011a 05A8     		add	r0, sp, #20
 2121 011c FFF7FEFF 		bl	line_init
ARM GAS  C:\Users\d3bug\AppData\Local\Temp\ccg1LD4z.s 			page 53


 2122              	.LVL194:
 140:..\lvgl\lv_draw/lv_draw_line.c ****             }
 2123              		.loc 1 140 0
 2124 0120 BDF92630 		ldrsh	r3, [sp, #38]
 2125 0124 002B     		cmp	r3, #0
 2126 0126 B8BF     		it	lt
 2127 0128 5B42     		rsblt	r3, r3, #0
 2128 012a ADF82630 		strh	r3, [sp, #38]	@ movhi
 136:..\lvgl\lv_draw/lv_draw_line.c ****                 p_tmp.x = main_line.p2.x;
 2129              		.loc 1 136 0
 2130 012e 0121     		movs	r1, #1
 2131 0130 41E0     		b	.L108
 2132              	.LVL195:
 2133              	.L107:
 142:..\lvgl\lv_draw/lv_draw_line.c ****                 dir_ori = false;
 2134              		.loc 1 142 0
 2135 0132 9942     		cmp	r1, r3
 2136 0134 3CDD     		ble	.L111
 144:..\lvgl\lv_draw/lv_draw_line.c ****                 p_tmp.y = main_line.p2.y + 1;
 2137              		.loc 1 144 0
 2138 0136 ADF80820 		strh	r2, [sp, #8]	@ movhi
 145:..\lvgl\lv_draw/lv_draw_line.c ****                 line_init(&main_line, &p1, &p_tmp);
 2139              		.loc 1 145 0
 2140 013a 0133     		adds	r3, r3, #1
 2141 013c ADF80A30 		strh	r3, [sp, #10]	@ movhi
 146:..\lvgl\lv_draw/lv_draw_line.c ****                 main_line.sy = -LV_MATH_ABS(main_line.sy);  /*The sign can change if the line becom
 2142              		.loc 1 146 0
 2143 0140 02AA     		add	r2, sp, #8
 2144 0142 04A9     		add	r1, sp, #16
 2145 0144 05A8     		add	r0, sp, #20
 2146 0146 FFF7FEFF 		bl	line_init
 2147              	.LVL196:
 147:..\lvgl\lv_draw/lv_draw_line.c ****             }
 2148              		.loc 1 147 0
 2149 014a BDF92630 		ldrsh	r3, [sp, #38]
 2150 014e 002B     		cmp	r3, #0
 2151 0150 C8BF     		it	gt
 2152 0152 5B42     		rsbgt	r3, r3, #0
 2153 0154 ADF82630 		strh	r3, [sp, #38]	@ movhi
 143:..\lvgl\lv_draw/lv_draw_line.c ****                 p_tmp.x = main_line.p2.x;
 2154              		.loc 1 143 0
 2155 0158 0021     		movs	r1, #0
 2156 015a 2CE0     		b	.L108
 2157              	.L106:
 151:..\lvgl\lv_draw/lv_draw_line.c ****                 dir_ori = true;
 2158              		.loc 1 151 0
 2159 015c 9042     		cmp	r0, r2
 2160 015e 12DA     		bge	.L109
 2161              	.LVL197:
 153:..\lvgl\lv_draw/lv_draw_line.c ****                 p_tmp.y = main_line.p2.y;
 2162              		.loc 1 153 0
 2163 0160 013A     		subs	r2, r2, #1
 2164 0162 ADF80820 		strh	r2, [sp, #8]	@ movhi
 154:..\lvgl\lv_draw/lv_draw_line.c ****                 line_init(&main_line, &p1, &p_tmp);
 2165              		.loc 1 154 0
 2166 0166 ADF80A30 		strh	r3, [sp, #10]	@ movhi
 155:..\lvgl\lv_draw/lv_draw_line.c ****                 main_line.sx = LV_MATH_ABS(main_line.sx);   /*The sign can change if the line becom
ARM GAS  C:\Users\d3bug\AppData\Local\Temp\ccg1LD4z.s 			page 54


 2167              		.loc 1 155 0
 2168 016a 02AA     		add	r2, sp, #8
 2169 016c 04A9     		add	r1, sp, #16
 2170 016e 05A8     		add	r0, sp, #20
 2171 0170 FFF7FEFF 		bl	line_init
 2172              	.LVL198:
 156:..\lvgl\lv_draw/lv_draw_line.c ****             }
 2173              		.loc 1 156 0
 2174 0174 BDF92230 		ldrsh	r3, [sp, #34]
 2175 0178 002B     		cmp	r3, #0
 2176 017a B8BF     		it	lt
 2177 017c 5B42     		rsblt	r3, r3, #0
 2178 017e ADF82230 		strh	r3, [sp, #34]	@ movhi
 152:..\lvgl\lv_draw/lv_draw_line.c ****                 p_tmp.x = main_line.p2.x - 1;
 2179              		.loc 1 152 0
 2180 0182 0121     		movs	r1, #1
 2181 0184 17E0     		b	.L108
 2182              	.LVL199:
 2183              	.L109:
 158:..\lvgl\lv_draw/lv_draw_line.c ****                 dir_ori = false;
 2184              		.loc 1 158 0
 2185 0186 9042     		cmp	r0, r2
 2186 0188 14DD     		ble	.L112
 160:..\lvgl\lv_draw/lv_draw_line.c ****                 p_tmp.y = main_line.p2.y;
 2187              		.loc 1 160 0
 2188 018a 0132     		adds	r2, r2, #1
 2189 018c ADF80820 		strh	r2, [sp, #8]	@ movhi
 161:..\lvgl\lv_draw/lv_draw_line.c ****                 line_init(&main_line, &p1, &p_tmp);
 2190              		.loc 1 161 0
 2191 0190 ADF80A30 		strh	r3, [sp, #10]	@ movhi
 162:..\lvgl\lv_draw/lv_draw_line.c ****                 main_line.sx = -LV_MATH_ABS(main_line.sx);  /*The sign can change if the line becom
 2192              		.loc 1 162 0
 2193 0194 02AA     		add	r2, sp, #8
 2194 0196 04A9     		add	r1, sp, #16
 2195 0198 05A8     		add	r0, sp, #20
 2196 019a FFF7FEFF 		bl	line_init
 2197              	.LVL200:
 163:..\lvgl\lv_draw/lv_draw_line.c ****             }
 2198              		.loc 1 163 0
 2199 019e BDF92230 		ldrsh	r3, [sp, #34]
 2200 01a2 002B     		cmp	r3, #0
 2201 01a4 C8BF     		it	gt
 2202 01a6 5B42     		rsbgt	r3, r3, #0
 2203 01a8 ADF82230 		strh	r3, [sp, #34]	@ movhi
 159:..\lvgl\lv_draw/lv_draw_line.c ****                 p_tmp.x = main_line.p2.x + 1;
 2204              		.loc 1 159 0
 2205 01ac 0021     		movs	r1, #0
 2206 01ae 02E0     		b	.L108
 2207              	.L111:
 130:..\lvgl\lv_draw/lv_draw_line.c **** #if LV_ANTIALIAS
 2208              		.loc 1 130 0
 2209 01b0 0021     		movs	r1, #0
 2210 01b2 00E0     		b	.L108
 2211              	.L112:
 2212 01b4 0021     		movs	r1, #0
 2213              	.LVL201:
 2214              	.L108:
ARM GAS  C:\Users\d3bug\AppData\Local\Temp\ccg1LD4z.s 			page 55


 167:..\lvgl\lv_draw/lv_draw_line.c ****     }
 2215              		.loc 1 167 0 discriminator 1
 2216 01b6 0096     		str	r6, [sp]
 2217 01b8 2346     		mov	r3, r4
 2218 01ba 2A46     		mov	r2, r5
 2219 01bc 05A8     		add	r0, sp, #20
 2220 01be FFF7FEFF 		bl	line_draw_skew
 2221              	.LVL202:
 2222              	.L96:
 2223              	.LBE8:
 169:..\lvgl\lv_draw/lv_draw_line.c **** 
 2224              		.loc 1 169 0
 2225 01c2 0CB0     		add	sp, sp, #48
 2226              		.cfi_def_cfa_offset 24
 2227              		@ sp needed
 2228 01c4 BDE8F081 		pop	{r4, r5, r6, r7, r8, pc}
 2229              		.cfi_endproc
 2230              	.LFE13:
 2231              		.size	lv_draw_line, .-lv_draw_line
 2232              		.text
 2233              	.Letext0:
 2234              		.file 2 "c:\\program files (x86)\\cypress\\psoc creator\\4.2\\psoc creator\\import\\gnu\\arm\\5.4.
 2235              		.file 3 "c:\\program files (x86)\\cypress\\psoc creator\\4.2\\psoc creator\\import\\gnu\\arm\\5.4.
 2236              		.file 4 "..\\lvgl\\lv_draw\\../lv_core/../lv_misc/lv_color.h"
 2237              		.file 5 "..\\lvgl\\lv_draw\\../lv_core/../lv_misc/lv_area.h"
 2238              		.file 6 "..\\lvgl\\lv_draw\\../lv_core/../lv_misc/lv_font.h"
 2239              		.file 7 "..\\lvgl\\lv_draw\\../lv_core/lv_style.h"
 2240              		.file 8 "..\\lvgl\\lv_draw\\lv_draw.h"