ARM GAS  C:\Users\d3bug\AppData\Local\Temp\ccPpCIYA.s 			page 1


   1              		.syntax unified
   2              		.cpu cortex-m3
   3              		.fpu softvfp
   4              		.eabi_attribute 20, 1
   5              		.eabi_attribute 21, 1
   6              		.eabi_attribute 23, 3
   7              		.eabi_attribute 24, 1
   8              		.eabi_attribute 25, 1
   9              		.eabi_attribute 26, 1
  10              		.eabi_attribute 30, 1
  11              		.eabi_attribute 34, 1
  12              		.eabi_attribute 18, 4
  13              		.thumb
  14              		.syntax unified
  15              		.file	"lv_draw_rect.c"
  16              		.text
  17              	.Ltext0:
  18              		.cfi_sections	.debug_frame
  19              		.section	.text.lv_draw_cont_radius_corr,"ax",%progbits
  20              		.align	2
  21              		.thumb
  22              		.thumb_func
  23              		.type	lv_draw_cont_radius_corr, %function
  24              	lv_draw_cont_radius_corr:
  25              	.LFB17:
  26              		.file 1 "..\\lvgl\\lv_draw\\lv_draw_rect.c"
   1:..\lvgl\lv_draw/lv_draw_rect.c **** /**
   2:..\lvgl\lv_draw/lv_draw_rect.c ****  * @file lv_draw_rect.c
   3:..\lvgl\lv_draw/lv_draw_rect.c ****  *
   4:..\lvgl\lv_draw/lv_draw_rect.c ****  */
   5:..\lvgl\lv_draw/lv_draw_rect.c **** 
   6:..\lvgl\lv_draw/lv_draw_rect.c **** /*********************
   7:..\lvgl\lv_draw/lv_draw_rect.c ****  *      INCLUDES
   8:..\lvgl\lv_draw/lv_draw_rect.c ****  *********************/
   9:..\lvgl\lv_draw/lv_draw_rect.c **** #include "lv_draw_rect.h"
  10:..\lvgl\lv_draw/lv_draw_rect.c **** #include "../lv_misc/lv_circ.h"
  11:..\lvgl\lv_draw/lv_draw_rect.c **** #include "../lv_misc/lv_math.h"
  12:..\lvgl\lv_draw/lv_draw_rect.c **** 
  13:..\lvgl\lv_draw/lv_draw_rect.c **** /*********************
  14:..\lvgl\lv_draw/lv_draw_rect.c ****  *      DEFINES
  15:..\lvgl\lv_draw/lv_draw_rect.c ****  *********************/
  16:..\lvgl\lv_draw/lv_draw_rect.c **** #define CIRCLE_AA_NON_LINEAR_OPA_THRESHOLD  5   /*Circle segment greater then this value will be an
  17:..\lvgl\lv_draw/lv_draw_rect.c **** 
  18:..\lvgl\lv_draw/lv_draw_rect.c **** #define SHADOW_OPA_EXTRA_PRECISION      8       /*Calculate with 2^x bigger shadow opacity values t
  19:..\lvgl\lv_draw/lv_draw_rect.c **** #define SHADOW_BOTTOM_AA_EXTRA_RADIUS   3       /*Add extra radius with LV_SHADOW_BOTTOM to cover a
  20:..\lvgl\lv_draw/lv_draw_rect.c **** 
  21:..\lvgl\lv_draw/lv_draw_rect.c **** /**********************
  22:..\lvgl\lv_draw/lv_draw_rect.c ****  *      TYPEDEFS
  23:..\lvgl\lv_draw/lv_draw_rect.c ****  **********************/
  24:..\lvgl\lv_draw/lv_draw_rect.c **** 
  25:..\lvgl\lv_draw/lv_draw_rect.c **** /**********************
  26:..\lvgl\lv_draw/lv_draw_rect.c ****  *  STATIC PROTOTYPES
  27:..\lvgl\lv_draw/lv_draw_rect.c ****  **********************/
  28:..\lvgl\lv_draw/lv_draw_rect.c **** static void lv_draw_rect_main_mid(const lv_area_t * coords, const lv_area_t * mask, const lv_style_
  29:..\lvgl\lv_draw/lv_draw_rect.c **** static void lv_draw_rect_main_corner(const lv_area_t * coords, const lv_area_t * mask, const lv_sty
  30:..\lvgl\lv_draw/lv_draw_rect.c **** static void lv_draw_rect_border_straight(const lv_area_t * coords, const lv_area_t * mask, const lv
  31:..\lvgl\lv_draw/lv_draw_rect.c **** static void lv_draw_rect_border_corner(const lv_area_t * coords, const lv_area_t * mask, const lv_s
ARM GAS  C:\Users\d3bug\AppData\Local\Temp\ccPpCIYA.s 			page 2


  32:..\lvgl\lv_draw/lv_draw_rect.c **** 
  33:..\lvgl\lv_draw/lv_draw_rect.c **** #if USE_LV_SHADOW && LV_VDB_SIZE
  34:..\lvgl\lv_draw/lv_draw_rect.c **** static void lv_draw_shadow(const lv_area_t * coords, const lv_area_t * mask, const lv_style_t * sty
  35:..\lvgl\lv_draw/lv_draw_rect.c **** static void lv_draw_shadow_full(const lv_area_t * coords, const lv_area_t * mask, const  lv_style_t
  36:..\lvgl\lv_draw/lv_draw_rect.c **** static void lv_draw_shadow_bottom(const lv_area_t * coords, const lv_area_t * mask, const lv_style_
  37:..\lvgl\lv_draw/lv_draw_rect.c **** static void lv_draw_shadow_full_straight(const lv_area_t * coords, const lv_area_t * mask, const lv
  38:..\lvgl\lv_draw/lv_draw_rect.c **** #endif
  39:..\lvgl\lv_draw/lv_draw_rect.c **** 
  40:..\lvgl\lv_draw/lv_draw_rect.c **** static uint16_t lv_draw_cont_radius_corr(uint16_t r, lv_coord_t w, lv_coord_t h);
  41:..\lvgl\lv_draw/lv_draw_rect.c **** 
  42:..\lvgl\lv_draw/lv_draw_rect.c **** #if LV_ANTIALIAS
  43:..\lvgl\lv_draw/lv_draw_rect.c **** static lv_opa_t antialias_get_opa_circ(lv_coord_t seg, lv_coord_t px_id, lv_opa_t opa);
  44:..\lvgl\lv_draw/lv_draw_rect.c **** #endif
  45:..\lvgl\lv_draw/lv_draw_rect.c **** 
  46:..\lvgl\lv_draw/lv_draw_rect.c **** /**********************
  47:..\lvgl\lv_draw/lv_draw_rect.c ****  *  STATIC VARIABLES
  48:..\lvgl\lv_draw/lv_draw_rect.c ****  **********************/
  49:..\lvgl\lv_draw/lv_draw_rect.c **** 
  50:..\lvgl\lv_draw/lv_draw_rect.c **** /**********************
  51:..\lvgl\lv_draw/lv_draw_rect.c ****  *      MACROS
  52:..\lvgl\lv_draw/lv_draw_rect.c ****  **********************/
  53:..\lvgl\lv_draw/lv_draw_rect.c **** 
  54:..\lvgl\lv_draw/lv_draw_rect.c **** /**********************
  55:..\lvgl\lv_draw/lv_draw_rect.c ****  *   GLOBAL FUNCTIONS
  56:..\lvgl\lv_draw/lv_draw_rect.c ****  **********************/
  57:..\lvgl\lv_draw/lv_draw_rect.c **** 
  58:..\lvgl\lv_draw/lv_draw_rect.c **** /**
  59:..\lvgl\lv_draw/lv_draw_rect.c ****  * Draw a rectangle
  60:..\lvgl\lv_draw/lv_draw_rect.c ****  * @param coords the coordinates of the rectangle
  61:..\lvgl\lv_draw/lv_draw_rect.c ****  * @param mask the rectangle will be drawn only in this mask
  62:..\lvgl\lv_draw/lv_draw_rect.c ****  * @param style pointer to a style
  63:..\lvgl\lv_draw/lv_draw_rect.c ****  * @param opa_scale scale down all opacities by the factor
  64:..\lvgl\lv_draw/lv_draw_rect.c ****  */
  65:..\lvgl\lv_draw/lv_draw_rect.c **** void lv_draw_rect(const lv_area_t * coords, const lv_area_t * mask, const lv_style_t * style, lv_op
  66:..\lvgl\lv_draw/lv_draw_rect.c **** {
  67:..\lvgl\lv_draw/lv_draw_rect.c ****     if(lv_area_get_height(coords) < 1 || lv_area_get_width(coords) < 1) return;
  68:..\lvgl\lv_draw/lv_draw_rect.c **** 
  69:..\lvgl\lv_draw/lv_draw_rect.c **** #if USE_LV_SHADOW && LV_VDB_SIZE
  70:..\lvgl\lv_draw/lv_draw_rect.c ****     if(style->body.shadow.width != 0) {
  71:..\lvgl\lv_draw/lv_draw_rect.c ****         lv_draw_shadow(coords, mask, style, opa_scale);
  72:..\lvgl\lv_draw/lv_draw_rect.c ****     }
  73:..\lvgl\lv_draw/lv_draw_rect.c **** #endif
  74:..\lvgl\lv_draw/lv_draw_rect.c ****     if(style->body.empty == 0 && style->body.opa >= LV_OPA_MIN) {
  75:..\lvgl\lv_draw/lv_draw_rect.c ****         lv_draw_rect_main_mid(coords, mask, style, opa_scale);
  76:..\lvgl\lv_draw/lv_draw_rect.c **** 
  77:..\lvgl\lv_draw/lv_draw_rect.c ****         if(style->body.radius != 0) {
  78:..\lvgl\lv_draw/lv_draw_rect.c ****             lv_draw_rect_main_corner(coords, mask, style, opa_scale);
  79:..\lvgl\lv_draw/lv_draw_rect.c ****         }
  80:..\lvgl\lv_draw/lv_draw_rect.c ****     }
  81:..\lvgl\lv_draw/lv_draw_rect.c **** 
  82:..\lvgl\lv_draw/lv_draw_rect.c ****     if(style->body.border.width != 0 && style->body.border.part != LV_BORDER_NONE && style->body.bo
  83:..\lvgl\lv_draw/lv_draw_rect.c ****         lv_draw_rect_border_straight(coords, mask, style, opa_scale);
  84:..\lvgl\lv_draw/lv_draw_rect.c **** 
  85:..\lvgl\lv_draw/lv_draw_rect.c ****         if(style->body.radius != 0) {
  86:..\lvgl\lv_draw/lv_draw_rect.c ****             lv_draw_rect_border_corner(coords, mask, style, opa_scale);
  87:..\lvgl\lv_draw/lv_draw_rect.c ****         }
  88:..\lvgl\lv_draw/lv_draw_rect.c ****     }
ARM GAS  C:\Users\d3bug\AppData\Local\Temp\ccPpCIYA.s 			page 3


  89:..\lvgl\lv_draw/lv_draw_rect.c **** }
  90:..\lvgl\lv_draw/lv_draw_rect.c **** 
  91:..\lvgl\lv_draw/lv_draw_rect.c **** /**********************
  92:..\lvgl\lv_draw/lv_draw_rect.c ****  *   STATIC FUNCTIONS
  93:..\lvgl\lv_draw/lv_draw_rect.c ****  **********************/
  94:..\lvgl\lv_draw/lv_draw_rect.c **** 
  95:..\lvgl\lv_draw/lv_draw_rect.c **** /**
  96:..\lvgl\lv_draw/lv_draw_rect.c ****  * Draw the middle part (rectangular) of a rectangle
  97:..\lvgl\lv_draw/lv_draw_rect.c ****  * @param coords the coordinates of the original rectangle
  98:..\lvgl\lv_draw/lv_draw_rect.c ****  * @param mask the rectangle will be drawn only  on this area
  99:..\lvgl\lv_draw/lv_draw_rect.c ****  * @param rects_p pointer to a rectangle style
 100:..\lvgl\lv_draw/lv_draw_rect.c ****  * @param opa_scale scale down all opacities by the factor
 101:..\lvgl\lv_draw/lv_draw_rect.c ****  */
 102:..\lvgl\lv_draw/lv_draw_rect.c **** static void lv_draw_rect_main_mid(const lv_area_t * coords, const lv_area_t * mask, const lv_style_
 103:..\lvgl\lv_draw/lv_draw_rect.c **** {
 104:..\lvgl\lv_draw/lv_draw_rect.c ****     uint16_t radius = style->body.radius;
 105:..\lvgl\lv_draw/lv_draw_rect.c **** 
 106:..\lvgl\lv_draw/lv_draw_rect.c ****     lv_color_t mcolor = style->body.main_color;
 107:..\lvgl\lv_draw/lv_draw_rect.c ****     lv_color_t gcolor = style->body.grad_color;
 108:..\lvgl\lv_draw/lv_draw_rect.c ****     uint8_t mix;
 109:..\lvgl\lv_draw/lv_draw_rect.c ****     lv_coord_t height = lv_area_get_height(coords);
 110:..\lvgl\lv_draw/lv_draw_rect.c ****     lv_coord_t width = lv_area_get_width(coords);
 111:..\lvgl\lv_draw/lv_draw_rect.c ****     lv_opa_t opa = opa_scale == LV_OPA_COVER ? style->body.opa : (uint16_t)((uint16_t) style->body.
 112:..\lvgl\lv_draw/lv_draw_rect.c **** 
 113:..\lvgl\lv_draw/lv_draw_rect.c ****     radius = lv_draw_cont_radius_corr(radius, width, height);
 114:..\lvgl\lv_draw/lv_draw_rect.c **** 
 115:..\lvgl\lv_draw/lv_draw_rect.c ****     /*If the radius is too big then there is no body*/
 116:..\lvgl\lv_draw/lv_draw_rect.c ****     if(radius > height / 2)  return;
 117:..\lvgl\lv_draw/lv_draw_rect.c **** 
 118:..\lvgl\lv_draw/lv_draw_rect.c ****     lv_area_t work_area;
 119:..\lvgl\lv_draw/lv_draw_rect.c ****     work_area.x1 = coords->x1;
 120:..\lvgl\lv_draw/lv_draw_rect.c ****     work_area.x2 = coords->x2;
 121:..\lvgl\lv_draw/lv_draw_rect.c **** 
 122:..\lvgl\lv_draw/lv_draw_rect.c ****     if(mcolor.full == gcolor.full) {
 123:..\lvgl\lv_draw/lv_draw_rect.c ****         work_area.y1 = coords->y1 + radius;
 124:..\lvgl\lv_draw/lv_draw_rect.c ****         work_area.y2 = coords->y2 - radius;
 125:..\lvgl\lv_draw/lv_draw_rect.c **** 
 126:..\lvgl\lv_draw/lv_draw_rect.c ****         if(style->body.radius != 0) {
 127:..\lvgl\lv_draw/lv_draw_rect.c **** #if LV_ANTIALIAS
 128:..\lvgl\lv_draw/lv_draw_rect.c ****             work_area.y1 += 2;
 129:..\lvgl\lv_draw/lv_draw_rect.c ****             work_area.y2 -= 2;
 130:..\lvgl\lv_draw/lv_draw_rect.c **** #else
 131:..\lvgl\lv_draw/lv_draw_rect.c ****             work_area.y1 += 1;
 132:..\lvgl\lv_draw/lv_draw_rect.c ****             work_area.y2 -= 1;
 133:..\lvgl\lv_draw/lv_draw_rect.c **** #endif
 134:..\lvgl\lv_draw/lv_draw_rect.c ****         }
 135:..\lvgl\lv_draw/lv_draw_rect.c **** 
 136:..\lvgl\lv_draw/lv_draw_rect.c ****         fill_fp(&work_area, mask, mcolor, opa);
 137:..\lvgl\lv_draw/lv_draw_rect.c ****     } else {
 138:..\lvgl\lv_draw/lv_draw_rect.c ****         lv_coord_t row;
 139:..\lvgl\lv_draw/lv_draw_rect.c ****         lv_coord_t row_start = coords->y1 + radius;
 140:..\lvgl\lv_draw/lv_draw_rect.c ****         lv_coord_t row_end = coords->y2 - radius;
 141:..\lvgl\lv_draw/lv_draw_rect.c ****         lv_color_t act_color;
 142:..\lvgl\lv_draw/lv_draw_rect.c **** 
 143:..\lvgl\lv_draw/lv_draw_rect.c ****         if(style->body.radius != 0) {
 144:..\lvgl\lv_draw/lv_draw_rect.c **** #if LV_ANTIALIAS
 145:..\lvgl\lv_draw/lv_draw_rect.c ****             row_start += 2;
ARM GAS  C:\Users\d3bug\AppData\Local\Temp\ccPpCIYA.s 			page 4


 146:..\lvgl\lv_draw/lv_draw_rect.c ****             row_end -= 2;
 147:..\lvgl\lv_draw/lv_draw_rect.c **** #else
 148:..\lvgl\lv_draw/lv_draw_rect.c ****             row_start += 1;
 149:..\lvgl\lv_draw/lv_draw_rect.c ****             row_end -= 1;
 150:..\lvgl\lv_draw/lv_draw_rect.c **** #endif
 151:..\lvgl\lv_draw/lv_draw_rect.c ****         }
 152:..\lvgl\lv_draw/lv_draw_rect.c ****         if(row_start < 0) row_start = 0;
 153:..\lvgl\lv_draw/lv_draw_rect.c **** 
 154:..\lvgl\lv_draw/lv_draw_rect.c ****         for(row = row_start; row <= row_end; row ++) {
 155:..\lvgl\lv_draw/lv_draw_rect.c ****             work_area.y1 = row;
 156:..\lvgl\lv_draw/lv_draw_rect.c ****             work_area.y2 = row;
 157:..\lvgl\lv_draw/lv_draw_rect.c ****             mix = (uint32_t)((uint32_t)(coords->y2 - work_area.y1) * 255) / height;
 158:..\lvgl\lv_draw/lv_draw_rect.c ****             act_color = lv_color_mix(mcolor, gcolor, mix);
 159:..\lvgl\lv_draw/lv_draw_rect.c **** 
 160:..\lvgl\lv_draw/lv_draw_rect.c ****             fill_fp(&work_area, mask, act_color, opa);
 161:..\lvgl\lv_draw/lv_draw_rect.c ****         }
 162:..\lvgl\lv_draw/lv_draw_rect.c ****     }
 163:..\lvgl\lv_draw/lv_draw_rect.c **** }
 164:..\lvgl\lv_draw/lv_draw_rect.c **** /**
 165:..\lvgl\lv_draw/lv_draw_rect.c ****  * Draw the top and bottom parts (corners) of a rectangle
 166:..\lvgl\lv_draw/lv_draw_rect.c ****  * @param coords the coordinates of the original rectangle
 167:..\lvgl\lv_draw/lv_draw_rect.c ****  * @param mask the rectangle will be drawn only  on this area
 168:..\lvgl\lv_draw/lv_draw_rect.c ****  * @param rects_p pointer to a rectangle style
 169:..\lvgl\lv_draw/lv_draw_rect.c ****  * @param opa_scale scale down all opacities by the factor
 170:..\lvgl\lv_draw/lv_draw_rect.c ****  */
 171:..\lvgl\lv_draw/lv_draw_rect.c **** static void lv_draw_rect_main_corner(const lv_area_t * coords, const lv_area_t * mask, const lv_sty
 172:..\lvgl\lv_draw/lv_draw_rect.c **** {
 173:..\lvgl\lv_draw/lv_draw_rect.c ****     uint16_t radius = style->body.radius;
 174:..\lvgl\lv_draw/lv_draw_rect.c **** 
 175:..\lvgl\lv_draw/lv_draw_rect.c ****     lv_color_t mcolor = style->body.main_color;
 176:..\lvgl\lv_draw/lv_draw_rect.c ****     lv_color_t gcolor = style->body.grad_color;
 177:..\lvgl\lv_draw/lv_draw_rect.c ****     lv_color_t act_color;
 178:..\lvgl\lv_draw/lv_draw_rect.c ****     lv_opa_t opa = opa_scale == LV_OPA_COVER ? style->body.opa : (uint16_t)((uint16_t) style->body.
 179:..\lvgl\lv_draw/lv_draw_rect.c ****     uint8_t mix;
 180:..\lvgl\lv_draw/lv_draw_rect.c ****     lv_coord_t height = lv_area_get_height(coords);
 181:..\lvgl\lv_draw/lv_draw_rect.c ****     lv_coord_t width = lv_area_get_width(coords);
 182:..\lvgl\lv_draw/lv_draw_rect.c **** 
 183:..\lvgl\lv_draw/lv_draw_rect.c ****     radius = lv_draw_cont_radius_corr(radius, width, height);
 184:..\lvgl\lv_draw/lv_draw_rect.c **** 
 185:..\lvgl\lv_draw/lv_draw_rect.c ****     lv_point_t lt_origo;   /*Left  Top    origo*/
 186:..\lvgl\lv_draw/lv_draw_rect.c ****     lv_point_t lb_origo;   /*Left  Bottom origo*/
 187:..\lvgl\lv_draw/lv_draw_rect.c ****     lv_point_t rt_origo;   /*Right Top    origo*/
 188:..\lvgl\lv_draw/lv_draw_rect.c ****     lv_point_t rb_origo;   /*Left  Bottom origo*/
 189:..\lvgl\lv_draw/lv_draw_rect.c **** 
 190:..\lvgl\lv_draw/lv_draw_rect.c ****     lt_origo.x = coords->x1 + radius + LV_ANTIALIAS;
 191:..\lvgl\lv_draw/lv_draw_rect.c ****     lt_origo.y = coords->y1 + radius + LV_ANTIALIAS;
 192:..\lvgl\lv_draw/lv_draw_rect.c **** 
 193:..\lvgl\lv_draw/lv_draw_rect.c ****     lb_origo.x = coords->x1 + radius + LV_ANTIALIAS;
 194:..\lvgl\lv_draw/lv_draw_rect.c ****     lb_origo.y = coords->y2 - radius - LV_ANTIALIAS;
 195:..\lvgl\lv_draw/lv_draw_rect.c **** 
 196:..\lvgl\lv_draw/lv_draw_rect.c ****     rt_origo.x = coords->x2 - radius - LV_ANTIALIAS;
 197:..\lvgl\lv_draw/lv_draw_rect.c ****     rt_origo.y = coords->y1 + radius + LV_ANTIALIAS;
 198:..\lvgl\lv_draw/lv_draw_rect.c **** 
 199:..\lvgl\lv_draw/lv_draw_rect.c ****     rb_origo.x = coords->x2 - radius - LV_ANTIALIAS;
 200:..\lvgl\lv_draw/lv_draw_rect.c ****     rb_origo.y = coords->y2 - radius - LV_ANTIALIAS;
 201:..\lvgl\lv_draw/lv_draw_rect.c **** 
 202:..\lvgl\lv_draw/lv_draw_rect.c ****     lv_area_t edge_top_area;
ARM GAS  C:\Users\d3bug\AppData\Local\Temp\ccPpCIYA.s 			page 5


 203:..\lvgl\lv_draw/lv_draw_rect.c ****     lv_area_t mid_top_area;
 204:..\lvgl\lv_draw/lv_draw_rect.c ****     lv_area_t mid_bot_area;
 205:..\lvgl\lv_draw/lv_draw_rect.c ****     lv_area_t edge_bot_area;
 206:..\lvgl\lv_draw/lv_draw_rect.c **** 
 207:..\lvgl\lv_draw/lv_draw_rect.c ****     lv_point_t cir;
 208:..\lvgl\lv_draw/lv_draw_rect.c ****     lv_coord_t cir_tmp;
 209:..\lvgl\lv_draw/lv_draw_rect.c ****     lv_circ_init(&cir, &cir_tmp, radius);
 210:..\lvgl\lv_draw/lv_draw_rect.c **** 
 211:..\lvgl\lv_draw/lv_draw_rect.c ****     /*Init the areas*/
 212:..\lvgl\lv_draw/lv_draw_rect.c ****     lv_area_set(&mid_bot_area,  lb_origo.x + LV_CIRC_OCT4_X(cir),
 213:..\lvgl\lv_draw/lv_draw_rect.c ****                 lb_origo.y + LV_CIRC_OCT4_Y(cir),
 214:..\lvgl\lv_draw/lv_draw_rect.c ****                 rb_origo.x + LV_CIRC_OCT1_X(cir),
 215:..\lvgl\lv_draw/lv_draw_rect.c ****                 rb_origo.y + LV_CIRC_OCT1_Y(cir));
 216:..\lvgl\lv_draw/lv_draw_rect.c **** 
 217:..\lvgl\lv_draw/lv_draw_rect.c ****     lv_area_set(&edge_bot_area, lb_origo.x + LV_CIRC_OCT3_X(cir),
 218:..\lvgl\lv_draw/lv_draw_rect.c ****                 lb_origo.y + LV_CIRC_OCT3_Y(cir),
 219:..\lvgl\lv_draw/lv_draw_rect.c ****                 rb_origo.x + LV_CIRC_OCT2_X(cir),
 220:..\lvgl\lv_draw/lv_draw_rect.c ****                 rb_origo.y + LV_CIRC_OCT2_Y(cir));
 221:..\lvgl\lv_draw/lv_draw_rect.c **** 
 222:..\lvgl\lv_draw/lv_draw_rect.c ****     lv_area_set(&mid_top_area,  lt_origo.x + LV_CIRC_OCT5_X(cir),
 223:..\lvgl\lv_draw/lv_draw_rect.c ****                 lt_origo.y + LV_CIRC_OCT5_Y(cir),
 224:..\lvgl\lv_draw/lv_draw_rect.c ****                 rt_origo.x + LV_CIRC_OCT8_X(cir),
 225:..\lvgl\lv_draw/lv_draw_rect.c ****                 rt_origo.y + LV_CIRC_OCT8_Y(cir));
 226:..\lvgl\lv_draw/lv_draw_rect.c **** 
 227:..\lvgl\lv_draw/lv_draw_rect.c ****     lv_area_set(&edge_top_area, lt_origo.x + LV_CIRC_OCT6_X(cir),
 228:..\lvgl\lv_draw/lv_draw_rect.c ****                 lt_origo.y + LV_CIRC_OCT6_Y(cir),
 229:..\lvgl\lv_draw/lv_draw_rect.c ****                 rt_origo.x + LV_CIRC_OCT7_X(cir),
 230:..\lvgl\lv_draw/lv_draw_rect.c ****                 rt_origo.y + LV_CIRC_OCT7_Y(cir));
 231:..\lvgl\lv_draw/lv_draw_rect.c **** #if LV_ANTIALIAS
 232:..\lvgl\lv_draw/lv_draw_rect.c ****     /*Store some internal states for anti-aliasing*/
 233:..\lvgl\lv_draw/lv_draw_rect.c ****     lv_coord_t out_y_seg_start = 0;
 234:..\lvgl\lv_draw/lv_draw_rect.c ****     lv_coord_t out_y_seg_end = 0;
 235:..\lvgl\lv_draw/lv_draw_rect.c ****     lv_coord_t out_x_last = radius;
 236:..\lvgl\lv_draw/lv_draw_rect.c **** 
 237:..\lvgl\lv_draw/lv_draw_rect.c ****     lv_color_t aa_color_hor_top;
 238:..\lvgl\lv_draw/lv_draw_rect.c ****     lv_color_t aa_color_hor_bottom;
 239:..\lvgl\lv_draw/lv_draw_rect.c ****     lv_color_t aa_color_ver;
 240:..\lvgl\lv_draw/lv_draw_rect.c **** #endif
 241:..\lvgl\lv_draw/lv_draw_rect.c **** 
 242:..\lvgl\lv_draw/lv_draw_rect.c ****     while(lv_circ_cont(&cir)) {
 243:..\lvgl\lv_draw/lv_draw_rect.c **** #if LV_ANTIALIAS != 0
 244:..\lvgl\lv_draw/lv_draw_rect.c ****         /*New step in y on the outter circle*/
 245:..\lvgl\lv_draw/lv_draw_rect.c ****         if(out_x_last != cir.x) {
 246:..\lvgl\lv_draw/lv_draw_rect.c ****             out_y_seg_end = cir.y;
 247:..\lvgl\lv_draw/lv_draw_rect.c ****             lv_coord_t seg_size = out_y_seg_end - out_y_seg_start;
 248:..\lvgl\lv_draw/lv_draw_rect.c ****             lv_point_t aa_p;
 249:..\lvgl\lv_draw/lv_draw_rect.c **** 
 250:..\lvgl\lv_draw/lv_draw_rect.c ****             aa_p.x = out_x_last;
 251:..\lvgl\lv_draw/lv_draw_rect.c ****             aa_p.y = out_y_seg_start;
 252:..\lvgl\lv_draw/lv_draw_rect.c **** 
 253:..\lvgl\lv_draw/lv_draw_rect.c ****             mix = (uint32_t)((uint32_t)(radius - out_x_last) * 255) / height;
 254:..\lvgl\lv_draw/lv_draw_rect.c ****             aa_color_hor_top = lv_color_mix(gcolor, mcolor, mix);
 255:..\lvgl\lv_draw/lv_draw_rect.c ****             aa_color_hor_bottom = lv_color_mix(mcolor, gcolor, mix);
 256:..\lvgl\lv_draw/lv_draw_rect.c **** 
 257:..\lvgl\lv_draw/lv_draw_rect.c ****             lv_coord_t i;
 258:..\lvgl\lv_draw/lv_draw_rect.c ****             for(i = 0; i  < seg_size; i++) {
 259:..\lvgl\lv_draw/lv_draw_rect.c ****                 lv_opa_t aa_opa;
ARM GAS  C:\Users\d3bug\AppData\Local\Temp\ccPpCIYA.s 			page 6


 260:..\lvgl\lv_draw/lv_draw_rect.c ****                 if(seg_size > CIRCLE_AA_NON_LINEAR_OPA_THRESHOLD) {    /*Use non-linear opa mapping
 261:..\lvgl\lv_draw/lv_draw_rect.c ****                     aa_opa = antialias_get_opa_circ(seg_size, i, opa);
 262:..\lvgl\lv_draw/lv_draw_rect.c ****                 } else {
 263:..\lvgl\lv_draw/lv_draw_rect.c ****                     aa_opa = opa - lv_draw_aa_get_opa(seg_size, i, opa);
 264:..\lvgl\lv_draw/lv_draw_rect.c ****                 }
 265:..\lvgl\lv_draw/lv_draw_rect.c **** 
 266:..\lvgl\lv_draw/lv_draw_rect.c ****                 px_fp(rb_origo.x + LV_CIRC_OCT2_X(aa_p) + i, rb_origo.y + LV_CIRC_OCT2_Y(aa_p) + 1,
 267:..\lvgl\lv_draw/lv_draw_rect.c ****                 px_fp(lb_origo.x + LV_CIRC_OCT3_X(aa_p) - i, lb_origo.y + LV_CIRC_OCT3_Y(aa_p) + 1,
 268:..\lvgl\lv_draw/lv_draw_rect.c ****                 px_fp(lt_origo.x + LV_CIRC_OCT6_X(aa_p) - i, lt_origo.y + LV_CIRC_OCT6_Y(aa_p) - 1,
 269:..\lvgl\lv_draw/lv_draw_rect.c ****                 px_fp(rt_origo.x + LV_CIRC_OCT7_X(aa_p) + i, rt_origo.y + LV_CIRC_OCT7_Y(aa_p) - 1,
 270:..\lvgl\lv_draw/lv_draw_rect.c **** 
 271:..\lvgl\lv_draw/lv_draw_rect.c ****                 mix = (uint32_t)((uint32_t)(radius - out_y_seg_start + i) * 255) / height;
 272:..\lvgl\lv_draw/lv_draw_rect.c ****                 aa_color_ver = lv_color_mix(mcolor, gcolor, mix);
 273:..\lvgl\lv_draw/lv_draw_rect.c ****                 px_fp(rb_origo.x + LV_CIRC_OCT1_X(aa_p) + 1, rb_origo.y + LV_CIRC_OCT1_Y(aa_p) + i,
 274:..\lvgl\lv_draw/lv_draw_rect.c ****                 px_fp(lb_origo.x + LV_CIRC_OCT4_X(aa_p) - 1, lb_origo.y + LV_CIRC_OCT4_Y(aa_p) + i,
 275:..\lvgl\lv_draw/lv_draw_rect.c **** 
 276:..\lvgl\lv_draw/lv_draw_rect.c ****                 aa_color_ver = lv_color_mix(gcolor, mcolor, mix);
 277:..\lvgl\lv_draw/lv_draw_rect.c ****                 px_fp(lt_origo.x + LV_CIRC_OCT5_X(aa_p) - 1, lt_origo.y + LV_CIRC_OCT5_Y(aa_p) - i,
 278:..\lvgl\lv_draw/lv_draw_rect.c ****                 px_fp(rt_origo.x + LV_CIRC_OCT8_X(aa_p) + 1, rt_origo.y + LV_CIRC_OCT8_Y(aa_p) - i,
 279:..\lvgl\lv_draw/lv_draw_rect.c ****             }
 280:..\lvgl\lv_draw/lv_draw_rect.c **** 
 281:..\lvgl\lv_draw/lv_draw_rect.c ****             out_x_last = cir.x;
 282:..\lvgl\lv_draw/lv_draw_rect.c ****             out_y_seg_start = out_y_seg_end;
 283:..\lvgl\lv_draw/lv_draw_rect.c ****         }
 284:..\lvgl\lv_draw/lv_draw_rect.c **** #endif
 285:..\lvgl\lv_draw/lv_draw_rect.c ****         uint8_t edge_top_refr = 0;
 286:..\lvgl\lv_draw/lv_draw_rect.c ****         uint8_t mid_top_refr = 0;
 287:..\lvgl\lv_draw/lv_draw_rect.c ****         uint8_t mid_bot_refr = 0;
 288:..\lvgl\lv_draw/lv_draw_rect.c ****         uint8_t edge_bot_refr = 0;
 289:..\lvgl\lv_draw/lv_draw_rect.c **** 
 290:..\lvgl\lv_draw/lv_draw_rect.c ****         /* If a new row coming draw the previous
 291:..\lvgl\lv_draw/lv_draw_rect.c ****          * The y coordinate can remain the same so wait for a new*/
 292:..\lvgl\lv_draw/lv_draw_rect.c ****         if(mid_bot_area.y1 != LV_CIRC_OCT4_Y(cir) + lb_origo.y) mid_bot_refr = 1;
 293:..\lvgl\lv_draw/lv_draw_rect.c **** 
 294:..\lvgl\lv_draw/lv_draw_rect.c ****         if(edge_bot_area.y1 != LV_CIRC_OCT2_Y(cir) + lb_origo.y) edge_bot_refr = 1;
 295:..\lvgl\lv_draw/lv_draw_rect.c **** 
 296:..\lvgl\lv_draw/lv_draw_rect.c ****         if(mid_top_area.y1 != LV_CIRC_OCT8_Y(cir) + lt_origo.y) mid_top_refr = 1;
 297:..\lvgl\lv_draw/lv_draw_rect.c **** 
 298:..\lvgl\lv_draw/lv_draw_rect.c ****         if(edge_top_area.y1 != LV_CIRC_OCT7_Y(cir) + lt_origo.y) edge_top_refr = 1;
 299:..\lvgl\lv_draw/lv_draw_rect.c **** 
 300:..\lvgl\lv_draw/lv_draw_rect.c ****         /*Draw the areas which are not disabled*/
 301:..\lvgl\lv_draw/lv_draw_rect.c ****         if(edge_top_refr != 0) {
 302:..\lvgl\lv_draw/lv_draw_rect.c ****             if(mcolor.full == gcolor.full) act_color = mcolor;
 303:..\lvgl\lv_draw/lv_draw_rect.c ****             else {
 304:..\lvgl\lv_draw/lv_draw_rect.c ****                 mix = (uint32_t)((uint32_t)(coords->y2 - edge_top_area.y1)  * 255) / height;
 305:..\lvgl\lv_draw/lv_draw_rect.c ****                 act_color = lv_color_mix(mcolor, gcolor, mix);
 306:..\lvgl\lv_draw/lv_draw_rect.c ****             }
 307:..\lvgl\lv_draw/lv_draw_rect.c ****             fill_fp(&edge_top_area, mask, act_color, opa);
 308:..\lvgl\lv_draw/lv_draw_rect.c ****         }
 309:..\lvgl\lv_draw/lv_draw_rect.c **** 
 310:..\lvgl\lv_draw/lv_draw_rect.c ****         if(mid_top_refr != 0) {
 311:..\lvgl\lv_draw/lv_draw_rect.c ****             if(mcolor.full == gcolor.full) act_color = mcolor;
 312:..\lvgl\lv_draw/lv_draw_rect.c ****             else {
 313:..\lvgl\lv_draw/lv_draw_rect.c ****                 mix = (uint32_t)((uint32_t)(coords->y2 - mid_top_area.y1) * 255) / height;
 314:..\lvgl\lv_draw/lv_draw_rect.c ****                 act_color = lv_color_mix(mcolor, gcolor, mix);
 315:..\lvgl\lv_draw/lv_draw_rect.c ****             }
 316:..\lvgl\lv_draw/lv_draw_rect.c ****             fill_fp(&mid_top_area, mask, act_color, opa);
ARM GAS  C:\Users\d3bug\AppData\Local\Temp\ccPpCIYA.s 			page 7


 317:..\lvgl\lv_draw/lv_draw_rect.c ****         }
 318:..\lvgl\lv_draw/lv_draw_rect.c **** 
 319:..\lvgl\lv_draw/lv_draw_rect.c ****         if(mid_bot_refr != 0) {
 320:..\lvgl\lv_draw/lv_draw_rect.c ****             if(mcolor.full == gcolor.full) act_color = mcolor;
 321:..\lvgl\lv_draw/lv_draw_rect.c ****             else {
 322:..\lvgl\lv_draw/lv_draw_rect.c ****                 mix = (uint32_t)((uint32_t)(coords->y2 - mid_bot_area.y1) * 255) / height;
 323:..\lvgl\lv_draw/lv_draw_rect.c ****                 act_color = lv_color_mix(mcolor, gcolor, mix);
 324:..\lvgl\lv_draw/lv_draw_rect.c ****             }
 325:..\lvgl\lv_draw/lv_draw_rect.c ****             fill_fp(&mid_bot_area, mask, act_color, opa);
 326:..\lvgl\lv_draw/lv_draw_rect.c ****         }
 327:..\lvgl\lv_draw/lv_draw_rect.c **** 
 328:..\lvgl\lv_draw/lv_draw_rect.c ****         if(edge_bot_refr != 0) {
 329:..\lvgl\lv_draw/lv_draw_rect.c **** 
 330:..\lvgl\lv_draw/lv_draw_rect.c ****             if(mcolor.full == gcolor.full) act_color = mcolor;
 331:..\lvgl\lv_draw/lv_draw_rect.c ****             else {
 332:..\lvgl\lv_draw/lv_draw_rect.c ****                 mix = (uint32_t)((uint32_t)(coords->y2 - edge_bot_area.y1) * 255) / height;
 333:..\lvgl\lv_draw/lv_draw_rect.c ****                 act_color = lv_color_mix(mcolor, gcolor, mix);
 334:..\lvgl\lv_draw/lv_draw_rect.c ****             }
 335:..\lvgl\lv_draw/lv_draw_rect.c ****             fill_fp(&edge_bot_area, mask, act_color, opa);
 336:..\lvgl\lv_draw/lv_draw_rect.c ****         }
 337:..\lvgl\lv_draw/lv_draw_rect.c **** 
 338:..\lvgl\lv_draw/lv_draw_rect.c ****         /*Save the current coordinates*/
 339:..\lvgl\lv_draw/lv_draw_rect.c ****         lv_area_set(&mid_bot_area,  lb_origo.x + LV_CIRC_OCT4_X(cir),
 340:..\lvgl\lv_draw/lv_draw_rect.c ****                     lb_origo.y + LV_CIRC_OCT4_Y(cir),
 341:..\lvgl\lv_draw/lv_draw_rect.c ****                     rb_origo.x + LV_CIRC_OCT1_X(cir),
 342:..\lvgl\lv_draw/lv_draw_rect.c ****                     rb_origo.y + LV_CIRC_OCT1_Y(cir));
 343:..\lvgl\lv_draw/lv_draw_rect.c **** 
 344:..\lvgl\lv_draw/lv_draw_rect.c ****         lv_area_set(&edge_bot_area, lb_origo.x + LV_CIRC_OCT3_X(cir),
 345:..\lvgl\lv_draw/lv_draw_rect.c ****                     lb_origo.y + LV_CIRC_OCT3_Y(cir),
 346:..\lvgl\lv_draw/lv_draw_rect.c ****                     rb_origo.x + LV_CIRC_OCT2_X(cir),
 347:..\lvgl\lv_draw/lv_draw_rect.c ****                     rb_origo.y + LV_CIRC_OCT2_Y(cir));
 348:..\lvgl\lv_draw/lv_draw_rect.c **** 
 349:..\lvgl\lv_draw/lv_draw_rect.c ****         lv_area_set(&mid_top_area,  lt_origo.x + LV_CIRC_OCT5_X(cir),
 350:..\lvgl\lv_draw/lv_draw_rect.c ****                     lt_origo.y + LV_CIRC_OCT5_Y(cir),
 351:..\lvgl\lv_draw/lv_draw_rect.c ****                     rt_origo.x + LV_CIRC_OCT8_X(cir),
 352:..\lvgl\lv_draw/lv_draw_rect.c ****                     rt_origo.y + LV_CIRC_OCT8_Y(cir));
 353:..\lvgl\lv_draw/lv_draw_rect.c **** 
 354:..\lvgl\lv_draw/lv_draw_rect.c ****         lv_area_set(&edge_top_area, lt_origo.x + LV_CIRC_OCT6_X(cir),
 355:..\lvgl\lv_draw/lv_draw_rect.c ****                     lt_origo.y + LV_CIRC_OCT6_Y(cir),
 356:..\lvgl\lv_draw/lv_draw_rect.c ****                     rt_origo.x + LV_CIRC_OCT7_X(cir),
 357:..\lvgl\lv_draw/lv_draw_rect.c ****                     rt_origo.y + LV_CIRC_OCT7_Y(cir));
 358:..\lvgl\lv_draw/lv_draw_rect.c **** 
 359:..\lvgl\lv_draw/lv_draw_rect.c ****         lv_circ_next(&cir, &cir_tmp);
 360:..\lvgl\lv_draw/lv_draw_rect.c ****     }
 361:..\lvgl\lv_draw/lv_draw_rect.c **** 
 362:..\lvgl\lv_draw/lv_draw_rect.c ****     if(mcolor.full == gcolor.full) act_color = mcolor;
 363:..\lvgl\lv_draw/lv_draw_rect.c ****     else {
 364:..\lvgl\lv_draw/lv_draw_rect.c ****         mix = (uint32_t)((uint32_t)(coords->y2 - edge_top_area.y1)  * 255) / height;
 365:..\lvgl\lv_draw/lv_draw_rect.c ****         act_color = lv_color_mix(mcolor, gcolor, mix);
 366:..\lvgl\lv_draw/lv_draw_rect.c ****     }
 367:..\lvgl\lv_draw/lv_draw_rect.c ****     fill_fp(&edge_top_area, mask, act_color, opa);
 368:..\lvgl\lv_draw/lv_draw_rect.c **** 
 369:..\lvgl\lv_draw/lv_draw_rect.c ****     if(edge_top_area.y1 != mid_top_area.y1) {
 370:..\lvgl\lv_draw/lv_draw_rect.c **** 
 371:..\lvgl\lv_draw/lv_draw_rect.c ****         if(mcolor.full == gcolor.full) act_color = mcolor;
 372:..\lvgl\lv_draw/lv_draw_rect.c ****         else {
 373:..\lvgl\lv_draw/lv_draw_rect.c ****             mix = (uint32_t)((uint32_t)(coords->y2 - mid_top_area.y1) * 255) / height;
ARM GAS  C:\Users\d3bug\AppData\Local\Temp\ccPpCIYA.s 			page 8


 374:..\lvgl\lv_draw/lv_draw_rect.c ****             act_color = lv_color_mix(mcolor, gcolor, mix);
 375:..\lvgl\lv_draw/lv_draw_rect.c ****         }
 376:..\lvgl\lv_draw/lv_draw_rect.c ****         fill_fp(&mid_top_area, mask, act_color, opa);
 377:..\lvgl\lv_draw/lv_draw_rect.c ****     }
 378:..\lvgl\lv_draw/lv_draw_rect.c **** 
 379:..\lvgl\lv_draw/lv_draw_rect.c ****     if(mcolor.full == gcolor.full) act_color = mcolor;
 380:..\lvgl\lv_draw/lv_draw_rect.c ****     else {
 381:..\lvgl\lv_draw/lv_draw_rect.c ****         mix = (uint32_t)((uint32_t)(coords->y2 - mid_bot_area.y1) * 255) / height;
 382:..\lvgl\lv_draw/lv_draw_rect.c ****         act_color = lv_color_mix(mcolor, gcolor, mix);
 383:..\lvgl\lv_draw/lv_draw_rect.c ****     }
 384:..\lvgl\lv_draw/lv_draw_rect.c ****     fill_fp(&mid_bot_area, mask, act_color, opa);
 385:..\lvgl\lv_draw/lv_draw_rect.c **** 
 386:..\lvgl\lv_draw/lv_draw_rect.c ****     if(edge_bot_area.y1 != mid_bot_area.y1) {
 387:..\lvgl\lv_draw/lv_draw_rect.c **** 
 388:..\lvgl\lv_draw/lv_draw_rect.c ****         if(mcolor.full == gcolor.full) act_color = mcolor;
 389:..\lvgl\lv_draw/lv_draw_rect.c ****         else {
 390:..\lvgl\lv_draw/lv_draw_rect.c ****             mix = (uint32_t)((uint32_t)(coords->y2 - edge_bot_area.y1) * 255) / height;
 391:..\lvgl\lv_draw/lv_draw_rect.c ****             act_color = lv_color_mix(mcolor, gcolor, mix);
 392:..\lvgl\lv_draw/lv_draw_rect.c ****         }
 393:..\lvgl\lv_draw/lv_draw_rect.c ****         fill_fp(&edge_bot_area, mask, act_color, opa);
 394:..\lvgl\lv_draw/lv_draw_rect.c ****     }
 395:..\lvgl\lv_draw/lv_draw_rect.c **** 
 396:..\lvgl\lv_draw/lv_draw_rect.c **** 
 397:..\lvgl\lv_draw/lv_draw_rect.c **** #if LV_ANTIALIAS
 398:..\lvgl\lv_draw/lv_draw_rect.c ****     /*The first and the last line is not drawn*/
 399:..\lvgl\lv_draw/lv_draw_rect.c ****     edge_top_area.x1 = coords->x1 + radius + 2;
 400:..\lvgl\lv_draw/lv_draw_rect.c ****     edge_top_area.x2 = coords->x2 - radius - 2;
 401:..\lvgl\lv_draw/lv_draw_rect.c ****     edge_top_area.y1 = coords->y1;
 402:..\lvgl\lv_draw/lv_draw_rect.c ****     edge_top_area.y2 = coords->y1;
 403:..\lvgl\lv_draw/lv_draw_rect.c ****     fill_fp(&edge_top_area, mask, style->body.main_color, opa);
 404:..\lvgl\lv_draw/lv_draw_rect.c **** 
 405:..\lvgl\lv_draw/lv_draw_rect.c ****     edge_top_area.y1 = coords->y2;
 406:..\lvgl\lv_draw/lv_draw_rect.c ****     edge_top_area.y2 = coords->y2;
 407:..\lvgl\lv_draw/lv_draw_rect.c ****     fill_fp(&edge_top_area, mask, style->body.grad_color, opa);
 408:..\lvgl\lv_draw/lv_draw_rect.c **** 
 409:..\lvgl\lv_draw/lv_draw_rect.c ****     /*Last parts of the anti-alias*/
 410:..\lvgl\lv_draw/lv_draw_rect.c ****     out_y_seg_end = cir.y;
 411:..\lvgl\lv_draw/lv_draw_rect.c ****     lv_coord_t seg_size = out_y_seg_end - out_y_seg_start;
 412:..\lvgl\lv_draw/lv_draw_rect.c ****     lv_point_t aa_p;
 413:..\lvgl\lv_draw/lv_draw_rect.c **** 
 414:..\lvgl\lv_draw/lv_draw_rect.c ****     aa_p.x = out_x_last;
 415:..\lvgl\lv_draw/lv_draw_rect.c ****     aa_p.y = out_y_seg_start;
 416:..\lvgl\lv_draw/lv_draw_rect.c **** 
 417:..\lvgl\lv_draw/lv_draw_rect.c ****     mix = (uint32_t)((uint32_t)(radius - out_x_last) * 255) / height;
 418:..\lvgl\lv_draw/lv_draw_rect.c ****     aa_color_hor_bottom = lv_color_mix(gcolor, mcolor, mix);
 419:..\lvgl\lv_draw/lv_draw_rect.c ****     aa_color_hor_top = lv_color_mix(mcolor, gcolor, mix);
 420:..\lvgl\lv_draw/lv_draw_rect.c **** 
 421:..\lvgl\lv_draw/lv_draw_rect.c ****     lv_coord_t i;
 422:..\lvgl\lv_draw/lv_draw_rect.c ****     for(i = 0; i  < seg_size; i++) {
 423:..\lvgl\lv_draw/lv_draw_rect.c ****         lv_opa_t aa_opa = opa - lv_draw_aa_get_opa(seg_size, i, opa);
 424:..\lvgl\lv_draw/lv_draw_rect.c ****         px_fp(rb_origo.x + LV_CIRC_OCT2_X(aa_p) + i, rb_origo.y + LV_CIRC_OCT2_Y(aa_p) + 1, mask, a
 425:..\lvgl\lv_draw/lv_draw_rect.c ****         px_fp(lb_origo.x + LV_CIRC_OCT3_X(aa_p) - i, lb_origo.y + LV_CIRC_OCT3_Y(aa_p) + 1, mask, a
 426:..\lvgl\lv_draw/lv_draw_rect.c ****         px_fp(lt_origo.x + LV_CIRC_OCT6_X(aa_p) - i, lt_origo.y + LV_CIRC_OCT6_Y(aa_p) - 1, mask, a
 427:..\lvgl\lv_draw/lv_draw_rect.c ****         px_fp(rt_origo.x + LV_CIRC_OCT7_X(aa_p) + i, rt_origo.y + LV_CIRC_OCT7_Y(aa_p) - 1, mask, a
 428:..\lvgl\lv_draw/lv_draw_rect.c **** 
 429:..\lvgl\lv_draw/lv_draw_rect.c ****         mix = (uint32_t)((uint32_t)(radius - out_y_seg_start + i) * 255) / height;
 430:..\lvgl\lv_draw/lv_draw_rect.c ****         aa_color_ver = lv_color_mix(mcolor, gcolor, mix);
ARM GAS  C:\Users\d3bug\AppData\Local\Temp\ccPpCIYA.s 			page 9


 431:..\lvgl\lv_draw/lv_draw_rect.c ****         px_fp(rb_origo.x + LV_CIRC_OCT1_X(aa_p) + 1, rb_origo.y + LV_CIRC_OCT1_Y(aa_p) + i, mask, a
 432:..\lvgl\lv_draw/lv_draw_rect.c ****         px_fp(lb_origo.x + LV_CIRC_OCT4_X(aa_p) - 1, lb_origo.y + LV_CIRC_OCT4_Y(aa_p) + i, mask, a
 433:..\lvgl\lv_draw/lv_draw_rect.c **** 
 434:..\lvgl\lv_draw/lv_draw_rect.c ****         aa_color_ver = lv_color_mix(gcolor, mcolor, mix);
 435:..\lvgl\lv_draw/lv_draw_rect.c ****         px_fp(lt_origo.x + LV_CIRC_OCT5_X(aa_p) - 1, lt_origo.y + LV_CIRC_OCT5_Y(aa_p) - i, mask, a
 436:..\lvgl\lv_draw/lv_draw_rect.c ****         px_fp(rt_origo.x + LV_CIRC_OCT8_X(aa_p) + 1, rt_origo.y + LV_CIRC_OCT8_Y(aa_p) - i, mask, a
 437:..\lvgl\lv_draw/lv_draw_rect.c ****     }
 438:..\lvgl\lv_draw/lv_draw_rect.c **** 
 439:..\lvgl\lv_draw/lv_draw_rect.c ****     /*In some cases the last pixel is not drawn*/
 440:..\lvgl\lv_draw/lv_draw_rect.c ****     if(LV_MATH_ABS(aa_p.x - aa_p.y) == seg_size) {
 441:..\lvgl\lv_draw/lv_draw_rect.c ****         aa_p.x = out_x_last;
 442:..\lvgl\lv_draw/lv_draw_rect.c ****         aa_p.y = out_x_last;
 443:..\lvgl\lv_draw/lv_draw_rect.c **** 
 444:..\lvgl\lv_draw/lv_draw_rect.c ****         mix = (uint32_t)((uint32_t)(out_x_last) * 255) / height;
 445:..\lvgl\lv_draw/lv_draw_rect.c ****         aa_color_hor_top = lv_color_mix(gcolor, mcolor, mix);
 446:..\lvgl\lv_draw/lv_draw_rect.c ****         aa_color_hor_bottom = lv_color_mix(mcolor, gcolor, mix);
 447:..\lvgl\lv_draw/lv_draw_rect.c **** 
 448:..\lvgl\lv_draw/lv_draw_rect.c ****         lv_opa_t aa_opa = opa >> 1;
 449:..\lvgl\lv_draw/lv_draw_rect.c ****         px_fp(rb_origo.x + LV_CIRC_OCT2_X(aa_p), rb_origo.y + LV_CIRC_OCT2_Y(aa_p), mask, aa_color_
 450:..\lvgl\lv_draw/lv_draw_rect.c ****         px_fp(lb_origo.x + LV_CIRC_OCT4_X(aa_p), lb_origo.y + LV_CIRC_OCT4_Y(aa_p), mask, aa_color_
 451:..\lvgl\lv_draw/lv_draw_rect.c ****         px_fp(lt_origo.x + LV_CIRC_OCT6_X(aa_p), lt_origo.y + LV_CIRC_OCT6_Y(aa_p), mask, aa_color_
 452:..\lvgl\lv_draw/lv_draw_rect.c ****         px_fp(rt_origo.x + LV_CIRC_OCT8_X(aa_p), rt_origo.y + LV_CIRC_OCT8_Y(aa_p), mask, aa_color_
 453:..\lvgl\lv_draw/lv_draw_rect.c ****     }
 454:..\lvgl\lv_draw/lv_draw_rect.c **** 
 455:..\lvgl\lv_draw/lv_draw_rect.c **** #endif
 456:..\lvgl\lv_draw/lv_draw_rect.c **** 
 457:..\lvgl\lv_draw/lv_draw_rect.c **** 
 458:..\lvgl\lv_draw/lv_draw_rect.c **** }
 459:..\lvgl\lv_draw/lv_draw_rect.c **** 
 460:..\lvgl\lv_draw/lv_draw_rect.c **** /**
 461:..\lvgl\lv_draw/lv_draw_rect.c ****  * Draw the straight parts of a rectangle border
 462:..\lvgl\lv_draw/lv_draw_rect.c ****  * @param coords the coordinates of the original rectangle
 463:..\lvgl\lv_draw/lv_draw_rect.c ****  * @param mask_ the rectangle will be drawn only  on this area
 464:..\lvgl\lv_draw/lv_draw_rect.c ****  * @param rstyle pointer to a rectangle style
 465:..\lvgl\lv_draw/lv_draw_rect.c ****  * @param opa_scale scale down all opacities by the factor
 466:..\lvgl\lv_draw/lv_draw_rect.c ****  */
 467:..\lvgl\lv_draw/lv_draw_rect.c **** static void lv_draw_rect_border_straight(const lv_area_t * coords, const lv_area_t * mask, const lv
 468:..\lvgl\lv_draw/lv_draw_rect.c **** {
 469:..\lvgl\lv_draw/lv_draw_rect.c ****     uint16_t radius = style->body.radius;
 470:..\lvgl\lv_draw/lv_draw_rect.c **** 
 471:..\lvgl\lv_draw/lv_draw_rect.c ****     lv_coord_t width = lv_area_get_width(coords);
 472:..\lvgl\lv_draw/lv_draw_rect.c ****     lv_coord_t height = lv_area_get_height(coords);
 473:..\lvgl\lv_draw/lv_draw_rect.c ****     uint16_t bwidth = style->body.border.width;
 474:..\lvgl\lv_draw/lv_draw_rect.c ****     lv_opa_t opa = opa_scale == LV_OPA_COVER ? style->body.border.opa : (uint16_t)((uint16_t) style
 475:..\lvgl\lv_draw/lv_draw_rect.c ****     lv_border_part_t part = style->body.border.part;
 476:..\lvgl\lv_draw/lv_draw_rect.c ****     lv_color_t color = style->body.border.color;
 477:..\lvgl\lv_draw/lv_draw_rect.c ****     lv_area_t work_area;
 478:..\lvgl\lv_draw/lv_draw_rect.c ****     lv_coord_t length_corr = 0;
 479:..\lvgl\lv_draw/lv_draw_rect.c ****     lv_coord_t corner_size = 0;
 480:..\lvgl\lv_draw/lv_draw_rect.c **** 
 481:..\lvgl\lv_draw/lv_draw_rect.c ****     /*the 0 px border width drawn as 1 px, so decrement the b_width*/
 482:..\lvgl\lv_draw/lv_draw_rect.c ****     bwidth--;
 483:..\lvgl\lv_draw/lv_draw_rect.c **** 
 484:..\lvgl\lv_draw/lv_draw_rect.c ****     radius = lv_draw_cont_radius_corr(radius, width, height);
 485:..\lvgl\lv_draw/lv_draw_rect.c **** 
 486:..\lvgl\lv_draw/lv_draw_rect.c ****     if(radius < bwidth) {
 487:..\lvgl\lv_draw/lv_draw_rect.c ****         length_corr = bwidth - radius - LV_ANTIALIAS;
ARM GAS  C:\Users\d3bug\AppData\Local\Temp\ccPpCIYA.s 			page 10


 488:..\lvgl\lv_draw/lv_draw_rect.c ****         corner_size = bwidth;
 489:..\lvgl\lv_draw/lv_draw_rect.c ****     } else {
 490:..\lvgl\lv_draw/lv_draw_rect.c ****         corner_size = radius + LV_ANTIALIAS;
 491:..\lvgl\lv_draw/lv_draw_rect.c ****     }
 492:..\lvgl\lv_draw/lv_draw_rect.c **** 
 493:..\lvgl\lv_draw/lv_draw_rect.c ****     /*If radius == 0 is a special case*/
 494:..\lvgl\lv_draw/lv_draw_rect.c ****     if(style->body.radius == 0) {
 495:..\lvgl\lv_draw/lv_draw_rect.c ****         /*Left top corner*/
 496:..\lvgl\lv_draw/lv_draw_rect.c ****         if(part & LV_BORDER_TOP) {
 497:..\lvgl\lv_draw/lv_draw_rect.c ****             work_area.x1 = coords->x1;
 498:..\lvgl\lv_draw/lv_draw_rect.c ****             work_area.x2 = coords->x2;
 499:..\lvgl\lv_draw/lv_draw_rect.c ****             work_area.y1 = coords->y1;
 500:..\lvgl\lv_draw/lv_draw_rect.c ****             work_area.y2 = coords->y1 + bwidth;
 501:..\lvgl\lv_draw/lv_draw_rect.c ****             fill_fp(&work_area, mask, color, opa);
 502:..\lvgl\lv_draw/lv_draw_rect.c ****         }
 503:..\lvgl\lv_draw/lv_draw_rect.c **** 
 504:..\lvgl\lv_draw/lv_draw_rect.c ****         /*Right top corner*/
 505:..\lvgl\lv_draw/lv_draw_rect.c ****         if(part & LV_BORDER_RIGHT) {
 506:..\lvgl\lv_draw/lv_draw_rect.c ****             work_area.x1 = coords->x2 - bwidth;
 507:..\lvgl\lv_draw/lv_draw_rect.c ****             work_area.x2 = coords->x2;
 508:..\lvgl\lv_draw/lv_draw_rect.c ****             work_area.y1 = coords->y1 + (part & LV_BORDER_TOP ? bwidth + 1 : 0);
 509:..\lvgl\lv_draw/lv_draw_rect.c ****             work_area.y2 = coords->y2 - (part & LV_BORDER_BOTTOM ? bwidth + 1 : 0);
 510:..\lvgl\lv_draw/lv_draw_rect.c ****             fill_fp(&work_area, mask, color, opa);
 511:..\lvgl\lv_draw/lv_draw_rect.c ****         }
 512:..\lvgl\lv_draw/lv_draw_rect.c **** 
 513:..\lvgl\lv_draw/lv_draw_rect.c ****         /*Left bottom corner*/
 514:..\lvgl\lv_draw/lv_draw_rect.c ****         if(part & LV_BORDER_LEFT) {
 515:..\lvgl\lv_draw/lv_draw_rect.c ****             work_area.x1 = coords->x1;
 516:..\lvgl\lv_draw/lv_draw_rect.c ****             work_area.x2 = coords->x1 + bwidth;
 517:..\lvgl\lv_draw/lv_draw_rect.c ****             work_area.y1 = coords->y1 + (part & LV_BORDER_TOP ? bwidth + 1 : 0);
 518:..\lvgl\lv_draw/lv_draw_rect.c ****             work_area.y2 = coords->y2 - (part & LV_BORDER_BOTTOM ? bwidth + 1 : 0);
 519:..\lvgl\lv_draw/lv_draw_rect.c ****             fill_fp(&work_area, mask, color, opa);
 520:..\lvgl\lv_draw/lv_draw_rect.c ****         }
 521:..\lvgl\lv_draw/lv_draw_rect.c **** 
 522:..\lvgl\lv_draw/lv_draw_rect.c ****         /*Right bottom corner*/
 523:..\lvgl\lv_draw/lv_draw_rect.c ****         if(part & LV_BORDER_BOTTOM) {
 524:..\lvgl\lv_draw/lv_draw_rect.c ****             work_area.x1 = coords->x1;
 525:..\lvgl\lv_draw/lv_draw_rect.c ****             work_area.x2 = coords->x2;
 526:..\lvgl\lv_draw/lv_draw_rect.c ****             work_area.y1 = coords->y2 - bwidth;
 527:..\lvgl\lv_draw/lv_draw_rect.c ****             work_area.y2 = coords->y2;
 528:..\lvgl\lv_draw/lv_draw_rect.c ****             fill_fp(&work_area, mask, color, opa);
 529:..\lvgl\lv_draw/lv_draw_rect.c ****         }
 530:..\lvgl\lv_draw/lv_draw_rect.c ****         return;
 531:..\lvgl\lv_draw/lv_draw_rect.c ****     }
 532:..\lvgl\lv_draw/lv_draw_rect.c **** 
 533:..\lvgl\lv_draw/lv_draw_rect.c ****     /* Modify the corner_size if corner is drawn */
 534:..\lvgl\lv_draw/lv_draw_rect.c ****     corner_size ++;
 535:..\lvgl\lv_draw/lv_draw_rect.c **** 
 536:..\lvgl\lv_draw/lv_draw_rect.c ****     /*Depending one which part's are drawn modify the area lengths */
 537:..\lvgl\lv_draw/lv_draw_rect.c ****     if(part & LV_BORDER_TOP) work_area.y1 = coords->y1 + corner_size;
 538:..\lvgl\lv_draw/lv_draw_rect.c ****     else  work_area.y1 = coords->y1 + radius;
 539:..\lvgl\lv_draw/lv_draw_rect.c **** 
 540:..\lvgl\lv_draw/lv_draw_rect.c ****     if(part & LV_BORDER_BOTTOM) work_area.y2 = coords->y2 - corner_size;
 541:..\lvgl\lv_draw/lv_draw_rect.c ****     else work_area.y2 = coords->y2 - radius;
 542:..\lvgl\lv_draw/lv_draw_rect.c **** 
 543:..\lvgl\lv_draw/lv_draw_rect.c ****     /*Left border*/
 544:..\lvgl\lv_draw/lv_draw_rect.c ****     if(part & LV_BORDER_LEFT) {
ARM GAS  C:\Users\d3bug\AppData\Local\Temp\ccPpCIYA.s 			page 11


 545:..\lvgl\lv_draw/lv_draw_rect.c ****         work_area.x1 = coords->x1;
 546:..\lvgl\lv_draw/lv_draw_rect.c ****         work_area.x2 = work_area.x1 + bwidth;
 547:..\lvgl\lv_draw/lv_draw_rect.c ****         fill_fp(&work_area, mask, color, opa);
 548:..\lvgl\lv_draw/lv_draw_rect.c ****     }
 549:..\lvgl\lv_draw/lv_draw_rect.c **** 
 550:..\lvgl\lv_draw/lv_draw_rect.c ****     /*Right border*/
 551:..\lvgl\lv_draw/lv_draw_rect.c ****     if(part & LV_BORDER_RIGHT) {
 552:..\lvgl\lv_draw/lv_draw_rect.c ****         work_area.x2 = coords->x2;
 553:..\lvgl\lv_draw/lv_draw_rect.c ****         work_area.x1 = work_area.x2 - bwidth;
 554:..\lvgl\lv_draw/lv_draw_rect.c ****         fill_fp(&work_area, mask, color, opa);
 555:..\lvgl\lv_draw/lv_draw_rect.c ****     }
 556:..\lvgl\lv_draw/lv_draw_rect.c **** 
 557:..\lvgl\lv_draw/lv_draw_rect.c ****     work_area.x1 = coords->x1 + corner_size - length_corr;
 558:..\lvgl\lv_draw/lv_draw_rect.c ****     work_area.x2 = coords->x2 - corner_size + length_corr;
 559:..\lvgl\lv_draw/lv_draw_rect.c **** 
 560:..\lvgl\lv_draw/lv_draw_rect.c ****     /*Upper border*/
 561:..\lvgl\lv_draw/lv_draw_rect.c ****     if(part & LV_BORDER_TOP) {
 562:..\lvgl\lv_draw/lv_draw_rect.c ****         work_area.y1 = coords->y1;
 563:..\lvgl\lv_draw/lv_draw_rect.c ****         work_area.y2 = coords->y1 + bwidth;
 564:..\lvgl\lv_draw/lv_draw_rect.c ****         fill_fp(&work_area, mask, color, opa);
 565:..\lvgl\lv_draw/lv_draw_rect.c ****     }
 566:..\lvgl\lv_draw/lv_draw_rect.c **** 
 567:..\lvgl\lv_draw/lv_draw_rect.c ****     /*Lower border*/
 568:..\lvgl\lv_draw/lv_draw_rect.c ****     if(part & LV_BORDER_BOTTOM) {
 569:..\lvgl\lv_draw/lv_draw_rect.c ****         work_area.y2 = coords->y2;
 570:..\lvgl\lv_draw/lv_draw_rect.c ****         work_area.y1 = work_area.y2 - bwidth;
 571:..\lvgl\lv_draw/lv_draw_rect.c ****         fill_fp(&work_area, mask, color, opa);
 572:..\lvgl\lv_draw/lv_draw_rect.c ****     }
 573:..\lvgl\lv_draw/lv_draw_rect.c **** 
 574:..\lvgl\lv_draw/lv_draw_rect.c ****     /*Draw the a remaining rectangles if the radius is smaller then bwidth */
 575:..\lvgl\lv_draw/lv_draw_rect.c ****     if(length_corr != 0) {
 576:..\lvgl\lv_draw/lv_draw_rect.c ****         /*Left top correction*/
 577:..\lvgl\lv_draw/lv_draw_rect.c ****         if((part & LV_BORDER_TOP) && (part & LV_BORDER_LEFT)) {
 578:..\lvgl\lv_draw/lv_draw_rect.c ****             work_area.x1 = coords->x1;
 579:..\lvgl\lv_draw/lv_draw_rect.c ****             work_area.x2 = coords->x1 + radius + LV_ANTIALIAS;
 580:..\lvgl\lv_draw/lv_draw_rect.c ****             work_area.y1 = coords->y1 + radius + 1 + LV_ANTIALIAS;
 581:..\lvgl\lv_draw/lv_draw_rect.c ****             work_area.y2 = coords->y1 + bwidth;
 582:..\lvgl\lv_draw/lv_draw_rect.c ****             fill_fp(&work_area, mask, color, opa);
 583:..\lvgl\lv_draw/lv_draw_rect.c ****         }
 584:..\lvgl\lv_draw/lv_draw_rect.c **** 
 585:..\lvgl\lv_draw/lv_draw_rect.c ****         /*Right top correction*/
 586:..\lvgl\lv_draw/lv_draw_rect.c ****         if((part & LV_BORDER_TOP) && (part & LV_BORDER_RIGHT)) {
 587:..\lvgl\lv_draw/lv_draw_rect.c ****             work_area.x1 = coords->x2 - radius - LV_ANTIALIAS;
 588:..\lvgl\lv_draw/lv_draw_rect.c ****             work_area.x2 = coords->x2;
 589:..\lvgl\lv_draw/lv_draw_rect.c ****             work_area.y1 = coords->y1 + radius + 1 + LV_ANTIALIAS;
 590:..\lvgl\lv_draw/lv_draw_rect.c ****             work_area.y2 = coords->y1 + bwidth;
 591:..\lvgl\lv_draw/lv_draw_rect.c ****             fill_fp(&work_area, mask, color, opa);
 592:..\lvgl\lv_draw/lv_draw_rect.c ****         }
 593:..\lvgl\lv_draw/lv_draw_rect.c **** 
 594:..\lvgl\lv_draw/lv_draw_rect.c ****         /*Left bottom correction*/
 595:..\lvgl\lv_draw/lv_draw_rect.c ****         if((part & LV_BORDER_BOTTOM) && (part & LV_BORDER_LEFT)) {
 596:..\lvgl\lv_draw/lv_draw_rect.c ****             work_area.x1 = coords->x1;
 597:..\lvgl\lv_draw/lv_draw_rect.c ****             work_area.x2 = coords->x1 + radius + LV_ANTIALIAS;
 598:..\lvgl\lv_draw/lv_draw_rect.c ****             work_area.y1 = coords->y2 - bwidth;
 599:..\lvgl\lv_draw/lv_draw_rect.c ****             work_area.y2 = coords->y2 - radius - 1 - LV_ANTIALIAS;
 600:..\lvgl\lv_draw/lv_draw_rect.c ****             fill_fp(&work_area, mask, color, opa);
 601:..\lvgl\lv_draw/lv_draw_rect.c ****         }
ARM GAS  C:\Users\d3bug\AppData\Local\Temp\ccPpCIYA.s 			page 12


 602:..\lvgl\lv_draw/lv_draw_rect.c **** 
 603:..\lvgl\lv_draw/lv_draw_rect.c ****         /*Right bottom correction*/
 604:..\lvgl\lv_draw/lv_draw_rect.c ****         if((part & LV_BORDER_BOTTOM) && (part & LV_BORDER_RIGHT)) {
 605:..\lvgl\lv_draw/lv_draw_rect.c ****             work_area.x1 = coords->x2 - radius - LV_ANTIALIAS;
 606:..\lvgl\lv_draw/lv_draw_rect.c ****             work_area.x2 = coords->x2;
 607:..\lvgl\lv_draw/lv_draw_rect.c ****             work_area.y1 = coords->y2 - bwidth;
 608:..\lvgl\lv_draw/lv_draw_rect.c ****             work_area.y2 = coords->y2 - radius - 1 - LV_ANTIALIAS;
 609:..\lvgl\lv_draw/lv_draw_rect.c ****             fill_fp(&work_area, mask, color, opa);
 610:..\lvgl\lv_draw/lv_draw_rect.c ****         }
 611:..\lvgl\lv_draw/lv_draw_rect.c ****     }
 612:..\lvgl\lv_draw/lv_draw_rect.c **** 
 613:..\lvgl\lv_draw/lv_draw_rect.c ****     /*If radius == 0 one px on the corners are not drawn by main drawer*/
 614:..\lvgl\lv_draw/lv_draw_rect.c ****     if(style->body.radius == 0) {
 615:..\lvgl\lv_draw/lv_draw_rect.c ****         /*Left top corner*/
 616:..\lvgl\lv_draw/lv_draw_rect.c ****         if(part & (LV_BORDER_TOP | LV_BORDER_LEFT)) {
 617:..\lvgl\lv_draw/lv_draw_rect.c ****             work_area.x1 = coords->x1;
 618:..\lvgl\lv_draw/lv_draw_rect.c ****             work_area.x2 = coords->x1 + LV_ANTIALIAS;
 619:..\lvgl\lv_draw/lv_draw_rect.c ****             work_area.y1 = coords->y1;
 620:..\lvgl\lv_draw/lv_draw_rect.c ****             work_area.y2 = coords->y1 + LV_ANTIALIAS;
 621:..\lvgl\lv_draw/lv_draw_rect.c ****             fill_fp(&work_area, mask, color, opa);
 622:..\lvgl\lv_draw/lv_draw_rect.c ****         }
 623:..\lvgl\lv_draw/lv_draw_rect.c **** 
 624:..\lvgl\lv_draw/lv_draw_rect.c ****         /*Right top corner*/
 625:..\lvgl\lv_draw/lv_draw_rect.c ****         if(part & (LV_BORDER_TOP | LV_BORDER_RIGHT)) {
 626:..\lvgl\lv_draw/lv_draw_rect.c ****             work_area.x1 = coords->x2 - LV_ANTIALIAS;
 627:..\lvgl\lv_draw/lv_draw_rect.c ****             work_area.x2 = coords->x2;
 628:..\lvgl\lv_draw/lv_draw_rect.c ****             work_area.y1 = coords->y1;
 629:..\lvgl\lv_draw/lv_draw_rect.c ****             work_area.y2 = coords->y1 + LV_ANTIALIAS;
 630:..\lvgl\lv_draw/lv_draw_rect.c ****             fill_fp(&work_area, mask, color, opa);
 631:..\lvgl\lv_draw/lv_draw_rect.c ****         }
 632:..\lvgl\lv_draw/lv_draw_rect.c **** 
 633:..\lvgl\lv_draw/lv_draw_rect.c ****         /*Left bottom corner*/
 634:..\lvgl\lv_draw/lv_draw_rect.c ****         if(part & (LV_BORDER_BOTTOM | LV_BORDER_LEFT)) {
 635:..\lvgl\lv_draw/lv_draw_rect.c ****             work_area.x1 = coords->x1;
 636:..\lvgl\lv_draw/lv_draw_rect.c ****             work_area.x2 = coords->x1 + LV_ANTIALIAS;
 637:..\lvgl\lv_draw/lv_draw_rect.c ****             work_area.y1 = coords->y2 - LV_ANTIALIAS;
 638:..\lvgl\lv_draw/lv_draw_rect.c ****             work_area.y2 = coords->y2;
 639:..\lvgl\lv_draw/lv_draw_rect.c ****             fill_fp(&work_area, mask, color, opa);
 640:..\lvgl\lv_draw/lv_draw_rect.c ****         }
 641:..\lvgl\lv_draw/lv_draw_rect.c **** 
 642:..\lvgl\lv_draw/lv_draw_rect.c ****         /*Right bottom corner*/
 643:..\lvgl\lv_draw/lv_draw_rect.c ****         if(part & (LV_BORDER_BOTTOM | LV_BORDER_RIGHT)) {
 644:..\lvgl\lv_draw/lv_draw_rect.c ****             work_area.x1 = coords->x2 - LV_ANTIALIAS;
 645:..\lvgl\lv_draw/lv_draw_rect.c ****             work_area.x2 = coords->x2;
 646:..\lvgl\lv_draw/lv_draw_rect.c ****             work_area.y1 = coords->y2 - LV_ANTIALIAS;
 647:..\lvgl\lv_draw/lv_draw_rect.c ****             work_area.y2 = coords->y2;
 648:..\lvgl\lv_draw/lv_draw_rect.c ****             fill_fp(&work_area, mask, color, opa);
 649:..\lvgl\lv_draw/lv_draw_rect.c ****         }
 650:..\lvgl\lv_draw/lv_draw_rect.c ****     }
 651:..\lvgl\lv_draw/lv_draw_rect.c **** }
 652:..\lvgl\lv_draw/lv_draw_rect.c **** 
 653:..\lvgl\lv_draw/lv_draw_rect.c **** 
 654:..\lvgl\lv_draw/lv_draw_rect.c **** /**
 655:..\lvgl\lv_draw/lv_draw_rect.c ****  * Draw the corners of a rectangle border
 656:..\lvgl\lv_draw/lv_draw_rect.c ****  * @param coords the coordinates of the original rectangle
 657:..\lvgl\lv_draw/lv_draw_rect.c ****  * @param mask the rectangle will be drawn only  on this area
 658:..\lvgl\lv_draw/lv_draw_rect.c ****  * @param style pointer to a style
ARM GAS  C:\Users\d3bug\AppData\Local\Temp\ccPpCIYA.s 			page 13


 659:..\lvgl\lv_draw/lv_draw_rect.c ****  * @param opa_scale scale down all opacities by the factor
 660:..\lvgl\lv_draw/lv_draw_rect.c ****  */
 661:..\lvgl\lv_draw/lv_draw_rect.c **** static void lv_draw_rect_border_corner(const lv_area_t * coords, const lv_area_t * mask, const  lv_
 662:..\lvgl\lv_draw/lv_draw_rect.c **** {
 663:..\lvgl\lv_draw/lv_draw_rect.c ****     uint16_t radius = style->body.radius ;
 664:..\lvgl\lv_draw/lv_draw_rect.c ****     uint16_t bwidth = style->body.border.width;
 665:..\lvgl\lv_draw/lv_draw_rect.c ****     lv_color_t color = style->body.border.color;
 666:..\lvgl\lv_draw/lv_draw_rect.c ****     lv_border_part_t part = style->body.border.part;
 667:..\lvgl\lv_draw/lv_draw_rect.c ****     lv_opa_t opa = opa_scale == LV_OPA_COVER ? style->body.border.opa : (uint16_t)((uint16_t) style
 668:..\lvgl\lv_draw/lv_draw_rect.c ****     /*0 px border width drawn as 1 px, so decrement the bwidth*/
 669:..\lvgl\lv_draw/lv_draw_rect.c ****     bwidth--;
 670:..\lvgl\lv_draw/lv_draw_rect.c **** 
 671:..\lvgl\lv_draw/lv_draw_rect.c **** #if LV_ANTIALIAS
 672:..\lvgl\lv_draw/lv_draw_rect.c ****     bwidth--;    /*Because of anti-aliasing the border seems one pixel ticker*/
 673:..\lvgl\lv_draw/lv_draw_rect.c **** #endif
 674:..\lvgl\lv_draw/lv_draw_rect.c **** 
 675:..\lvgl\lv_draw/lv_draw_rect.c ****     lv_coord_t width = lv_area_get_width(coords);
 676:..\lvgl\lv_draw/lv_draw_rect.c ****     lv_coord_t height = lv_area_get_height(coords);
 677:..\lvgl\lv_draw/lv_draw_rect.c **** 
 678:..\lvgl\lv_draw/lv_draw_rect.c ****     radius = lv_draw_cont_radius_corr(radius, width, height);
 679:..\lvgl\lv_draw/lv_draw_rect.c **** 
 680:..\lvgl\lv_draw/lv_draw_rect.c ****     lv_point_t lt_origo;   /*Left  Top    origo*/
 681:..\lvgl\lv_draw/lv_draw_rect.c ****     lv_point_t lb_origo;   /*Left  Bottom origo*/
 682:..\lvgl\lv_draw/lv_draw_rect.c ****     lv_point_t rt_origo;   /*Right Top    origo*/
 683:..\lvgl\lv_draw/lv_draw_rect.c ****     lv_point_t rb_origo;   /*Left  Bottom origo*/
 684:..\lvgl\lv_draw/lv_draw_rect.c **** 
 685:..\lvgl\lv_draw/lv_draw_rect.c ****     lt_origo.x = coords->x1 + radius + LV_ANTIALIAS;
 686:..\lvgl\lv_draw/lv_draw_rect.c ****     lt_origo.y = coords->y1 + radius + LV_ANTIALIAS;
 687:..\lvgl\lv_draw/lv_draw_rect.c **** 
 688:..\lvgl\lv_draw/lv_draw_rect.c ****     lb_origo.x = coords->x1 + radius + LV_ANTIALIAS;
 689:..\lvgl\lv_draw/lv_draw_rect.c ****     lb_origo.y = coords->y2 - radius - LV_ANTIALIAS;
 690:..\lvgl\lv_draw/lv_draw_rect.c **** 
 691:..\lvgl\lv_draw/lv_draw_rect.c ****     rt_origo.x = coords->x2 - radius - LV_ANTIALIAS;
 692:..\lvgl\lv_draw/lv_draw_rect.c ****     rt_origo.y = coords->y1 + radius + LV_ANTIALIAS;
 693:..\lvgl\lv_draw/lv_draw_rect.c **** 
 694:..\lvgl\lv_draw/lv_draw_rect.c ****     rb_origo.x = coords->x2 - radius - LV_ANTIALIAS;
 695:..\lvgl\lv_draw/lv_draw_rect.c ****     rb_origo.y = coords->y2 - radius - LV_ANTIALIAS;
 696:..\lvgl\lv_draw/lv_draw_rect.c **** 
 697:..\lvgl\lv_draw/lv_draw_rect.c ****     lv_point_t cir_out;
 698:..\lvgl\lv_draw/lv_draw_rect.c ****     lv_coord_t tmp_out;
 699:..\lvgl\lv_draw/lv_draw_rect.c ****     lv_circ_init(&cir_out, &tmp_out, radius);
 700:..\lvgl\lv_draw/lv_draw_rect.c **** 
 701:..\lvgl\lv_draw/lv_draw_rect.c ****     lv_point_t cir_in;
 702:..\lvgl\lv_draw/lv_draw_rect.c ****     lv_coord_t tmp_in;
 703:..\lvgl\lv_draw/lv_draw_rect.c ****     lv_coord_t radius_in = radius - bwidth;
 704:..\lvgl\lv_draw/lv_draw_rect.c **** 
 705:..\lvgl\lv_draw/lv_draw_rect.c ****     if(radius_in < 0) {
 706:..\lvgl\lv_draw/lv_draw_rect.c ****         radius_in = 0;
 707:..\lvgl\lv_draw/lv_draw_rect.c ****     }
 708:..\lvgl\lv_draw/lv_draw_rect.c **** 
 709:..\lvgl\lv_draw/lv_draw_rect.c ****     lv_circ_init(&cir_in, &tmp_in, radius_in);
 710:..\lvgl\lv_draw/lv_draw_rect.c **** 
 711:..\lvgl\lv_draw/lv_draw_rect.c ****     lv_area_t circ_area;
 712:..\lvgl\lv_draw/lv_draw_rect.c ****     lv_coord_t act_w1;
 713:..\lvgl\lv_draw/lv_draw_rect.c ****     lv_coord_t act_w2;
 714:..\lvgl\lv_draw/lv_draw_rect.c **** 
 715:..\lvgl\lv_draw/lv_draw_rect.c **** #if LV_ANTIALIAS
ARM GAS  C:\Users\d3bug\AppData\Local\Temp\ccPpCIYA.s 			page 14


 716:..\lvgl\lv_draw/lv_draw_rect.c ****     /*Store some internal states for anti-aliasing*/
 717:..\lvgl\lv_draw/lv_draw_rect.c ****     lv_coord_t out_y_seg_start = 0;
 718:..\lvgl\lv_draw/lv_draw_rect.c ****     lv_coord_t out_y_seg_end = 0;
 719:..\lvgl\lv_draw/lv_draw_rect.c ****     lv_coord_t out_x_last = radius;
 720:..\lvgl\lv_draw/lv_draw_rect.c **** 
 721:..\lvgl\lv_draw/lv_draw_rect.c **** 
 722:..\lvgl\lv_draw/lv_draw_rect.c ****     lv_coord_t in_y_seg_start = 0;
 723:..\lvgl\lv_draw/lv_draw_rect.c ****     lv_coord_t in_y_seg_end = 0;
 724:..\lvgl\lv_draw/lv_draw_rect.c ****     lv_coord_t in_x_last = radius - bwidth;
 725:..\lvgl\lv_draw/lv_draw_rect.c **** #endif
 726:..\lvgl\lv_draw/lv_draw_rect.c **** 
 727:..\lvgl\lv_draw/lv_draw_rect.c ****     while(cir_out.y <= cir_out.x) {
 728:..\lvgl\lv_draw/lv_draw_rect.c **** 
 729:..\lvgl\lv_draw/lv_draw_rect.c ****         /*Calculate the actual width to avoid overwriting pixels*/
 730:..\lvgl\lv_draw/lv_draw_rect.c ****         if(cir_in.y < cir_in.x) {
 731:..\lvgl\lv_draw/lv_draw_rect.c ****             act_w1 = cir_out.x - cir_in.x;
 732:..\lvgl\lv_draw/lv_draw_rect.c ****             act_w2 = act_w1;
 733:..\lvgl\lv_draw/lv_draw_rect.c ****         } else {
 734:..\lvgl\lv_draw/lv_draw_rect.c ****             act_w1 = cir_out.x - cir_out.y;
 735:..\lvgl\lv_draw/lv_draw_rect.c ****             act_w2 = act_w1 - 1;
 736:..\lvgl\lv_draw/lv_draw_rect.c ****         }
 737:..\lvgl\lv_draw/lv_draw_rect.c **** 
 738:..\lvgl\lv_draw/lv_draw_rect.c **** #if LV_ANTIALIAS != 0
 739:..\lvgl\lv_draw/lv_draw_rect.c ****         /*New step in y on the outter circle*/
 740:..\lvgl\lv_draw/lv_draw_rect.c ****         if(out_x_last != cir_out.x) {
 741:..\lvgl\lv_draw/lv_draw_rect.c ****             out_y_seg_end = cir_out.y;
 742:..\lvgl\lv_draw/lv_draw_rect.c ****             lv_coord_t seg_size = out_y_seg_end - out_y_seg_start;
 743:..\lvgl\lv_draw/lv_draw_rect.c ****             lv_point_t aa_p;
 744:..\lvgl\lv_draw/lv_draw_rect.c **** 
 745:..\lvgl\lv_draw/lv_draw_rect.c ****             aa_p.x = out_x_last;
 746:..\lvgl\lv_draw/lv_draw_rect.c ****             aa_p.y = out_y_seg_start;
 747:..\lvgl\lv_draw/lv_draw_rect.c **** 
 748:..\lvgl\lv_draw/lv_draw_rect.c ****             lv_coord_t i;
 749:..\lvgl\lv_draw/lv_draw_rect.c ****             for(i = 0; i  < seg_size; i++) {
 750:..\lvgl\lv_draw/lv_draw_rect.c ****                 lv_opa_t aa_opa;
 751:..\lvgl\lv_draw/lv_draw_rect.c **** 
 752:..\lvgl\lv_draw/lv_draw_rect.c ****                 if(seg_size > CIRCLE_AA_NON_LINEAR_OPA_THRESHOLD) {    /*Use non-linear opa mapping
 753:..\lvgl\lv_draw/lv_draw_rect.c ****                     aa_opa = antialias_get_opa_circ(seg_size, i, opa);
 754:..\lvgl\lv_draw/lv_draw_rect.c ****                 } else {
 755:..\lvgl\lv_draw/lv_draw_rect.c ****                     aa_opa = opa - lv_draw_aa_get_opa(seg_size, i, opa);
 756:..\lvgl\lv_draw/lv_draw_rect.c ****                 }
 757:..\lvgl\lv_draw/lv_draw_rect.c **** 
 758:..\lvgl\lv_draw/lv_draw_rect.c ****                 if((part & LV_BORDER_BOTTOM) && (part & LV_BORDER_RIGHT)) {
 759:..\lvgl\lv_draw/lv_draw_rect.c ****                     px_fp(rb_origo.x + LV_CIRC_OCT1_X(aa_p) + 1, rb_origo.y + LV_CIRC_OCT1_Y(aa_p) 
 760:..\lvgl\lv_draw/lv_draw_rect.c ****                     px_fp(rb_origo.x + LV_CIRC_OCT2_X(aa_p) + i, rb_origo.y + LV_CIRC_OCT2_Y(aa_p) 
 761:..\lvgl\lv_draw/lv_draw_rect.c ****                 }
 762:..\lvgl\lv_draw/lv_draw_rect.c **** 
 763:..\lvgl\lv_draw/lv_draw_rect.c ****                 if((part & LV_BORDER_BOTTOM) && (part & LV_BORDER_LEFT)) {
 764:..\lvgl\lv_draw/lv_draw_rect.c ****                     px_fp(lb_origo.x + LV_CIRC_OCT3_X(aa_p) - i, lb_origo.y + LV_CIRC_OCT3_Y(aa_p) 
 765:..\lvgl\lv_draw/lv_draw_rect.c ****                     px_fp(lb_origo.x + LV_CIRC_OCT4_X(aa_p) - 1, lb_origo.y + LV_CIRC_OCT4_Y(aa_p) 
 766:..\lvgl\lv_draw/lv_draw_rect.c ****                 }
 767:..\lvgl\lv_draw/lv_draw_rect.c **** 
 768:..\lvgl\lv_draw/lv_draw_rect.c **** 
 769:..\lvgl\lv_draw/lv_draw_rect.c ****                 if((part & LV_BORDER_TOP) && (part & LV_BORDER_LEFT)) {
 770:..\lvgl\lv_draw/lv_draw_rect.c ****                     px_fp(lt_origo.x + LV_CIRC_OCT5_X(aa_p) - 1, lt_origo.y + LV_CIRC_OCT5_Y(aa_p) 
 771:..\lvgl\lv_draw/lv_draw_rect.c ****                     px_fp(lt_origo.x + LV_CIRC_OCT6_X(aa_p) - i, lt_origo.y + LV_CIRC_OCT6_Y(aa_p) 
 772:..\lvgl\lv_draw/lv_draw_rect.c ****                 }
ARM GAS  C:\Users\d3bug\AppData\Local\Temp\ccPpCIYA.s 			page 15


 773:..\lvgl\lv_draw/lv_draw_rect.c **** 
 774:..\lvgl\lv_draw/lv_draw_rect.c ****                 if((part & LV_BORDER_TOP) && (part & LV_BORDER_RIGHT)) {
 775:..\lvgl\lv_draw/lv_draw_rect.c ****                     px_fp(rt_origo.x + LV_CIRC_OCT7_X(aa_p) + i, rt_origo.y + LV_CIRC_OCT7_Y(aa_p) 
 776:..\lvgl\lv_draw/lv_draw_rect.c ****                     px_fp(rt_origo.x + LV_CIRC_OCT8_X(aa_p) + 1, rt_origo.y + LV_CIRC_OCT8_Y(aa_p) 
 777:..\lvgl\lv_draw/lv_draw_rect.c ****                 }
 778:..\lvgl\lv_draw/lv_draw_rect.c ****             }
 779:..\lvgl\lv_draw/lv_draw_rect.c **** 
 780:..\lvgl\lv_draw/lv_draw_rect.c ****             out_x_last = cir_out.x;
 781:..\lvgl\lv_draw/lv_draw_rect.c ****             out_y_seg_start = out_y_seg_end;
 782:..\lvgl\lv_draw/lv_draw_rect.c ****         }
 783:..\lvgl\lv_draw/lv_draw_rect.c **** 
 784:..\lvgl\lv_draw/lv_draw_rect.c ****         /*New step in y on the inner circle*/
 785:..\lvgl\lv_draw/lv_draw_rect.c ****         if(in_x_last != cir_in.x) {
 786:..\lvgl\lv_draw/lv_draw_rect.c ****             in_y_seg_end = cir_out.y;
 787:..\lvgl\lv_draw/lv_draw_rect.c ****             lv_coord_t seg_size = in_y_seg_end - in_y_seg_start;
 788:..\lvgl\lv_draw/lv_draw_rect.c ****             lv_point_t aa_p;
 789:..\lvgl\lv_draw/lv_draw_rect.c **** 
 790:..\lvgl\lv_draw/lv_draw_rect.c ****             aa_p.x = in_x_last;
 791:..\lvgl\lv_draw/lv_draw_rect.c ****             aa_p.y = in_y_seg_start;
 792:..\lvgl\lv_draw/lv_draw_rect.c **** 
 793:..\lvgl\lv_draw/lv_draw_rect.c ****             lv_coord_t i;
 794:..\lvgl\lv_draw/lv_draw_rect.c ****             for(i = 0; i  < seg_size; i++) {
 795:..\lvgl\lv_draw/lv_draw_rect.c ****                 lv_opa_t aa_opa;
 796:..\lvgl\lv_draw/lv_draw_rect.c **** 
 797:..\lvgl\lv_draw/lv_draw_rect.c ****                 if(seg_size > CIRCLE_AA_NON_LINEAR_OPA_THRESHOLD) {    /*Use non-linear opa mapping
 798:..\lvgl\lv_draw/lv_draw_rect.c ****                     aa_opa = opa - antialias_get_opa_circ(seg_size, i, opa);
 799:..\lvgl\lv_draw/lv_draw_rect.c ****                 } else {
 800:..\lvgl\lv_draw/lv_draw_rect.c ****                     aa_opa = lv_draw_aa_get_opa(seg_size, i, opa);
 801:..\lvgl\lv_draw/lv_draw_rect.c ****                 }
 802:..\lvgl\lv_draw/lv_draw_rect.c **** 
 803:..\lvgl\lv_draw/lv_draw_rect.c ****                 if((part & LV_BORDER_BOTTOM) && (part & LV_BORDER_RIGHT)) {
 804:..\lvgl\lv_draw/lv_draw_rect.c ****                     px_fp(rb_origo.x + LV_CIRC_OCT1_X(aa_p) - 1, rb_origo.y + LV_CIRC_OCT1_Y(aa_p) 
 805:..\lvgl\lv_draw/lv_draw_rect.c ****                 }
 806:..\lvgl\lv_draw/lv_draw_rect.c **** 
 807:..\lvgl\lv_draw/lv_draw_rect.c ****                 if((part & LV_BORDER_BOTTOM) && (part & LV_BORDER_LEFT)) {
 808:..\lvgl\lv_draw/lv_draw_rect.c ****                     px_fp(lb_origo.x + LV_CIRC_OCT3_X(aa_p) - i, lb_origo.y + LV_CIRC_OCT3_Y(aa_p) 
 809:..\lvgl\lv_draw/lv_draw_rect.c ****                 }
 810:..\lvgl\lv_draw/lv_draw_rect.c **** 
 811:..\lvgl\lv_draw/lv_draw_rect.c ****                 if((part & LV_BORDER_TOP) && (part & LV_BORDER_LEFT)) {
 812:..\lvgl\lv_draw/lv_draw_rect.c ****                     px_fp(lt_origo.x + LV_CIRC_OCT5_X(aa_p) + 1, lt_origo.y + LV_CIRC_OCT5_Y(aa_p) 
 813:..\lvgl\lv_draw/lv_draw_rect.c ****                 }
 814:..\lvgl\lv_draw/lv_draw_rect.c **** 
 815:..\lvgl\lv_draw/lv_draw_rect.c ****                 if((part & LV_BORDER_TOP) && (part & LV_BORDER_RIGHT)) {
 816:..\lvgl\lv_draw/lv_draw_rect.c ****                     px_fp(rt_origo.x + LV_CIRC_OCT7_X(aa_p) + i, rt_origo.y + LV_CIRC_OCT7_Y(aa_p) 
 817:..\lvgl\lv_draw/lv_draw_rect.c ****                 }
 818:..\lvgl\lv_draw/lv_draw_rect.c **** 
 819:..\lvgl\lv_draw/lv_draw_rect.c ****                 /*Be sure the pixels on the middle are not drawn twice*/
 820:..\lvgl\lv_draw/lv_draw_rect.c ****                 if(LV_CIRC_OCT1_X(aa_p) - 1 != LV_CIRC_OCT2_X(aa_p) + i) {
 821:..\lvgl\lv_draw/lv_draw_rect.c ****                     if((part & LV_BORDER_BOTTOM) && (part & LV_BORDER_RIGHT)) {
 822:..\lvgl\lv_draw/lv_draw_rect.c ****                         px_fp(rb_origo.x + LV_CIRC_OCT2_X(aa_p) + i, rb_origo.y + LV_CIRC_OCT2_Y(aa
 823:..\lvgl\lv_draw/lv_draw_rect.c ****                     }
 824:..\lvgl\lv_draw/lv_draw_rect.c **** 
 825:..\lvgl\lv_draw/lv_draw_rect.c ****                     if((part & LV_BORDER_BOTTOM) && (part & LV_BORDER_LEFT)) {
 826:..\lvgl\lv_draw/lv_draw_rect.c ****                         px_fp(lb_origo.x + LV_CIRC_OCT4_X(aa_p) + 1, lb_origo.y + LV_CIRC_OCT4_Y(aa
 827:..\lvgl\lv_draw/lv_draw_rect.c ****                     }
 828:..\lvgl\lv_draw/lv_draw_rect.c **** 
 829:..\lvgl\lv_draw/lv_draw_rect.c ****                     if((part & LV_BORDER_TOP) && (part & LV_BORDER_LEFT)) {
ARM GAS  C:\Users\d3bug\AppData\Local\Temp\ccPpCIYA.s 			page 16


 830:..\lvgl\lv_draw/lv_draw_rect.c ****                         px_fp(lt_origo.x + LV_CIRC_OCT6_X(aa_p) - i, lt_origo.y + LV_CIRC_OCT6_Y(aa
 831:..\lvgl\lv_draw/lv_draw_rect.c ****                     }
 832:..\lvgl\lv_draw/lv_draw_rect.c **** 
 833:..\lvgl\lv_draw/lv_draw_rect.c ****                     if((part & LV_BORDER_TOP) && (part & LV_BORDER_RIGHT)) {
 834:..\lvgl\lv_draw/lv_draw_rect.c ****                         px_fp(rt_origo.x + LV_CIRC_OCT8_X(aa_p) - 1, rt_origo.y + LV_CIRC_OCT8_Y(aa
 835:..\lvgl\lv_draw/lv_draw_rect.c ****                     }
 836:..\lvgl\lv_draw/lv_draw_rect.c ****                 }
 837:..\lvgl\lv_draw/lv_draw_rect.c **** 
 838:..\lvgl\lv_draw/lv_draw_rect.c ****             }
 839:..\lvgl\lv_draw/lv_draw_rect.c **** 
 840:..\lvgl\lv_draw/lv_draw_rect.c ****             in_x_last = cir_in.x;
 841:..\lvgl\lv_draw/lv_draw_rect.c ****             in_y_seg_start = in_y_seg_end;
 842:..\lvgl\lv_draw/lv_draw_rect.c **** 
 843:..\lvgl\lv_draw/lv_draw_rect.c ****         }
 844:..\lvgl\lv_draw/lv_draw_rect.c **** 
 845:..\lvgl\lv_draw/lv_draw_rect.c **** #endif
 846:..\lvgl\lv_draw/lv_draw_rect.c **** 
 847:..\lvgl\lv_draw/lv_draw_rect.c **** 
 848:..\lvgl\lv_draw/lv_draw_rect.c ****         /*Draw the octets to the right bottom corner*/
 849:..\lvgl\lv_draw/lv_draw_rect.c ****         if((part & LV_BORDER_BOTTOM) && (part & LV_BORDER_RIGHT)) {
 850:..\lvgl\lv_draw/lv_draw_rect.c ****             circ_area.x1 = rb_origo.x + LV_CIRC_OCT1_X(cir_out) - act_w2;
 851:..\lvgl\lv_draw/lv_draw_rect.c ****             circ_area.x2 = rb_origo.x + LV_CIRC_OCT1_X(cir_out);
 852:..\lvgl\lv_draw/lv_draw_rect.c ****             circ_area.y1 = rb_origo.y + LV_CIRC_OCT1_Y(cir_out);
 853:..\lvgl\lv_draw/lv_draw_rect.c ****             circ_area.y2 = rb_origo.y + LV_CIRC_OCT1_Y(cir_out);
 854:..\lvgl\lv_draw/lv_draw_rect.c ****             fill_fp(&circ_area, mask, color, opa);
 855:..\lvgl\lv_draw/lv_draw_rect.c **** 
 856:..\lvgl\lv_draw/lv_draw_rect.c ****             circ_area.x1 = rb_origo.x + LV_CIRC_OCT2_X(cir_out);
 857:..\lvgl\lv_draw/lv_draw_rect.c ****             circ_area.x2 = rb_origo.x + LV_CIRC_OCT2_X(cir_out);
 858:..\lvgl\lv_draw/lv_draw_rect.c ****             circ_area.y1 = rb_origo.y + LV_CIRC_OCT2_Y(cir_out) - act_w1;
 859:..\lvgl\lv_draw/lv_draw_rect.c ****             circ_area.y2 = rb_origo.y + LV_CIRC_OCT2_Y(cir_out);
 860:..\lvgl\lv_draw/lv_draw_rect.c ****             fill_fp(&circ_area, mask, color, opa);
 861:..\lvgl\lv_draw/lv_draw_rect.c ****         }
 862:..\lvgl\lv_draw/lv_draw_rect.c **** 
 863:..\lvgl\lv_draw/lv_draw_rect.c ****         /*Draw the octets to the left bottom corner*/
 864:..\lvgl\lv_draw/lv_draw_rect.c ****         if((part & LV_BORDER_BOTTOM) && (part & LV_BORDER_LEFT)) {
 865:..\lvgl\lv_draw/lv_draw_rect.c ****             circ_area.x1 = lb_origo.x + LV_CIRC_OCT3_X(cir_out);
 866:..\lvgl\lv_draw/lv_draw_rect.c ****             circ_area.x2 = lb_origo.x + LV_CIRC_OCT3_X(cir_out);
 867:..\lvgl\lv_draw/lv_draw_rect.c ****             circ_area.y1 = lb_origo.y + LV_CIRC_OCT3_Y(cir_out) - act_w2;
 868:..\lvgl\lv_draw/lv_draw_rect.c ****             circ_area.y2 = lb_origo.y + LV_CIRC_OCT3_Y(cir_out);
 869:..\lvgl\lv_draw/lv_draw_rect.c ****             fill_fp(&circ_area, mask, color, opa);
 870:..\lvgl\lv_draw/lv_draw_rect.c **** 
 871:..\lvgl\lv_draw/lv_draw_rect.c ****             circ_area.x1 = lb_origo.x + LV_CIRC_OCT4_X(cir_out);
 872:..\lvgl\lv_draw/lv_draw_rect.c ****             circ_area.x2 = lb_origo.x + LV_CIRC_OCT4_X(cir_out) + act_w1;
 873:..\lvgl\lv_draw/lv_draw_rect.c ****             circ_area.y1 = lb_origo.y + LV_CIRC_OCT4_Y(cir_out);
 874:..\lvgl\lv_draw/lv_draw_rect.c ****             circ_area.y2 = lb_origo.y + LV_CIRC_OCT4_Y(cir_out);
 875:..\lvgl\lv_draw/lv_draw_rect.c ****             fill_fp(&circ_area, mask, color, opa);
 876:..\lvgl\lv_draw/lv_draw_rect.c ****         }
 877:..\lvgl\lv_draw/lv_draw_rect.c **** 
 878:..\lvgl\lv_draw/lv_draw_rect.c ****         /*Draw the octets to the left top corner*/
 879:..\lvgl\lv_draw/lv_draw_rect.c ****         if((part & LV_BORDER_TOP) && (part & LV_BORDER_LEFT)) {
 880:..\lvgl\lv_draw/lv_draw_rect.c ****             if(lb_origo.y + LV_CIRC_OCT4_Y(cir_out) > lt_origo.y + LV_CIRC_OCT5_Y(cir_out)) {
 881:..\lvgl\lv_draw/lv_draw_rect.c ****                 /*Don't draw if the lines are common in the middle*/
 882:..\lvgl\lv_draw/lv_draw_rect.c ****                 circ_area.x1 = lt_origo.x + LV_CIRC_OCT5_X(cir_out);
 883:..\lvgl\lv_draw/lv_draw_rect.c ****                 circ_area.x2 = lt_origo.x + LV_CIRC_OCT5_X(cir_out) + act_w2;
 884:..\lvgl\lv_draw/lv_draw_rect.c ****                 circ_area.y1 = lt_origo.y + LV_CIRC_OCT5_Y(cir_out);
 885:..\lvgl\lv_draw/lv_draw_rect.c ****                 circ_area.y2 = lt_origo.y + LV_CIRC_OCT5_Y(cir_out);
 886:..\lvgl\lv_draw/lv_draw_rect.c ****                 fill_fp(&circ_area, mask, color, opa);
ARM GAS  C:\Users\d3bug\AppData\Local\Temp\ccPpCIYA.s 			page 17


 887:..\lvgl\lv_draw/lv_draw_rect.c ****             }
 888:..\lvgl\lv_draw/lv_draw_rect.c **** 
 889:..\lvgl\lv_draw/lv_draw_rect.c ****             circ_area.x1 = lt_origo.x + LV_CIRC_OCT6_X(cir_out);
 890:..\lvgl\lv_draw/lv_draw_rect.c ****             circ_area.x2 = lt_origo.x + LV_CIRC_OCT6_X(cir_out);
 891:..\lvgl\lv_draw/lv_draw_rect.c ****             circ_area.y1 = lt_origo.y + LV_CIRC_OCT6_Y(cir_out);
 892:..\lvgl\lv_draw/lv_draw_rect.c ****             circ_area.y2 = lt_origo.y + LV_CIRC_OCT6_Y(cir_out) + act_w1;
 893:..\lvgl\lv_draw/lv_draw_rect.c ****             fill_fp(&circ_area, mask, color, opa);
 894:..\lvgl\lv_draw/lv_draw_rect.c ****         }
 895:..\lvgl\lv_draw/lv_draw_rect.c **** 
 896:..\lvgl\lv_draw/lv_draw_rect.c ****         /*Draw the octets to the right top corner*/
 897:..\lvgl\lv_draw/lv_draw_rect.c ****         if((part & LV_BORDER_TOP) && (part & LV_BORDER_RIGHT)) {
 898:..\lvgl\lv_draw/lv_draw_rect.c ****             circ_area.x1 = rt_origo.x + LV_CIRC_OCT7_X(cir_out);
 899:..\lvgl\lv_draw/lv_draw_rect.c ****             circ_area.x2 = rt_origo.x + LV_CIRC_OCT7_X(cir_out);
 900:..\lvgl\lv_draw/lv_draw_rect.c ****             circ_area.y1 = rt_origo.y + LV_CIRC_OCT7_Y(cir_out);
 901:..\lvgl\lv_draw/lv_draw_rect.c ****             circ_area.y2 = rt_origo.y + LV_CIRC_OCT7_Y(cir_out) + act_w2;
 902:..\lvgl\lv_draw/lv_draw_rect.c ****             fill_fp(&circ_area, mask, color, opa);
 903:..\lvgl\lv_draw/lv_draw_rect.c **** 
 904:..\lvgl\lv_draw/lv_draw_rect.c ****             /*Don't draw if the lines are common in the middle*/
 905:..\lvgl\lv_draw/lv_draw_rect.c ****             if(rb_origo.y + LV_CIRC_OCT1_Y(cir_out) > rt_origo.y + LV_CIRC_OCT8_Y(cir_out)) {
 906:..\lvgl\lv_draw/lv_draw_rect.c ****                 circ_area.x1 = rt_origo.x + LV_CIRC_OCT8_X(cir_out) - act_w1;
 907:..\lvgl\lv_draw/lv_draw_rect.c ****                 circ_area.x2 = rt_origo.x + LV_CIRC_OCT8_X(cir_out);
 908:..\lvgl\lv_draw/lv_draw_rect.c ****                 circ_area.y1 = rt_origo.y + LV_CIRC_OCT8_Y(cir_out);
 909:..\lvgl\lv_draw/lv_draw_rect.c ****                 circ_area.y2 = rt_origo.y + LV_CIRC_OCT8_Y(cir_out);
 910:..\lvgl\lv_draw/lv_draw_rect.c ****                 fill_fp(&circ_area, mask, color, opa);
 911:..\lvgl\lv_draw/lv_draw_rect.c ****             }
 912:..\lvgl\lv_draw/lv_draw_rect.c ****         }
 913:..\lvgl\lv_draw/lv_draw_rect.c ****         lv_circ_next(&cir_out, &tmp_out);
 914:..\lvgl\lv_draw/lv_draw_rect.c **** 
 915:..\lvgl\lv_draw/lv_draw_rect.c ****         /*The internal circle will be ready faster
 916:..\lvgl\lv_draw/lv_draw_rect.c ****          * so check it! */
 917:..\lvgl\lv_draw/lv_draw_rect.c ****         if(cir_in.y < cir_in.x) {
 918:..\lvgl\lv_draw/lv_draw_rect.c ****             lv_circ_next(&cir_in, &tmp_in);
 919:..\lvgl\lv_draw/lv_draw_rect.c ****         }
 920:..\lvgl\lv_draw/lv_draw_rect.c ****     }
 921:..\lvgl\lv_draw/lv_draw_rect.c **** 
 922:..\lvgl\lv_draw/lv_draw_rect.c **** 
 923:..\lvgl\lv_draw/lv_draw_rect.c **** #if LV_ANTIALIAS != 0
 924:..\lvgl\lv_draw/lv_draw_rect.c **** 
 925:..\lvgl\lv_draw/lv_draw_rect.c ****     /*Last parts of the outer anti-alias*/
 926:..\lvgl\lv_draw/lv_draw_rect.c ****     out_y_seg_end = cir_out.y;
 927:..\lvgl\lv_draw/lv_draw_rect.c ****     lv_coord_t seg_size = out_y_seg_end - out_y_seg_start;
 928:..\lvgl\lv_draw/lv_draw_rect.c ****     lv_point_t aa_p;
 929:..\lvgl\lv_draw/lv_draw_rect.c **** 
 930:..\lvgl\lv_draw/lv_draw_rect.c ****     aa_p.x = out_x_last;
 931:..\lvgl\lv_draw/lv_draw_rect.c ****     aa_p.y = out_y_seg_start;
 932:..\lvgl\lv_draw/lv_draw_rect.c **** 
 933:..\lvgl\lv_draw/lv_draw_rect.c ****     lv_coord_t i;
 934:..\lvgl\lv_draw/lv_draw_rect.c ****     for(i = 0; i  < seg_size; i++) {
 935:..\lvgl\lv_draw/lv_draw_rect.c ****         lv_opa_t aa_opa = opa - lv_draw_aa_get_opa(seg_size, i, opa);
 936:..\lvgl\lv_draw/lv_draw_rect.c ****         if((part & LV_BORDER_BOTTOM) && (part & LV_BORDER_RIGHT)) {
 937:..\lvgl\lv_draw/lv_draw_rect.c ****             px_fp(rb_origo.x + LV_CIRC_OCT1_X(aa_p) + 1, rb_origo.y + LV_CIRC_OCT1_Y(aa_p) + i, mas
 938:..\lvgl\lv_draw/lv_draw_rect.c ****             px_fp(rb_origo.x + LV_CIRC_OCT2_X(aa_p) + i, rb_origo.y + LV_CIRC_OCT2_Y(aa_p) + 1, mas
 939:..\lvgl\lv_draw/lv_draw_rect.c ****         }
 940:..\lvgl\lv_draw/lv_draw_rect.c **** 
 941:..\lvgl\lv_draw/lv_draw_rect.c ****         if((part & LV_BORDER_BOTTOM) && (part & LV_BORDER_LEFT)) {
 942:..\lvgl\lv_draw/lv_draw_rect.c ****             px_fp(lb_origo.x + LV_CIRC_OCT3_X(aa_p) - i, lb_origo.y + LV_CIRC_OCT3_Y(aa_p) + 1, mas
 943:..\lvgl\lv_draw/lv_draw_rect.c ****             px_fp(lb_origo.x + LV_CIRC_OCT4_X(aa_p) - 1, lb_origo.y + LV_CIRC_OCT4_Y(aa_p) + i, mas
ARM GAS  C:\Users\d3bug\AppData\Local\Temp\ccPpCIYA.s 			page 18


 944:..\lvgl\lv_draw/lv_draw_rect.c ****         }
 945:..\lvgl\lv_draw/lv_draw_rect.c **** 
 946:..\lvgl\lv_draw/lv_draw_rect.c ****         if((part & LV_BORDER_TOP) && (part & LV_BORDER_LEFT)) {
 947:..\lvgl\lv_draw/lv_draw_rect.c ****             px_fp(lt_origo.x + LV_CIRC_OCT5_X(aa_p) - 1, lt_origo.y + LV_CIRC_OCT5_Y(aa_p) - i, mas
 948:..\lvgl\lv_draw/lv_draw_rect.c ****             px_fp(lt_origo.x + LV_CIRC_OCT6_X(aa_p) - i, lt_origo.y + LV_CIRC_OCT6_Y(aa_p) - 1, mas
 949:..\lvgl\lv_draw/lv_draw_rect.c ****         }
 950:..\lvgl\lv_draw/lv_draw_rect.c **** 
 951:..\lvgl\lv_draw/lv_draw_rect.c ****         if((part & LV_BORDER_TOP) && (part & LV_BORDER_RIGHT)) {
 952:..\lvgl\lv_draw/lv_draw_rect.c ****             px_fp(rt_origo.x + LV_CIRC_OCT7_X(aa_p) + i, rt_origo.y + LV_CIRC_OCT7_Y(aa_p) - 1, mas
 953:..\lvgl\lv_draw/lv_draw_rect.c ****             px_fp(rt_origo.x + LV_CIRC_OCT8_X(aa_p) + 1, rt_origo.y + LV_CIRC_OCT8_Y(aa_p) - i, mas
 954:..\lvgl\lv_draw/lv_draw_rect.c ****         }
 955:..\lvgl\lv_draw/lv_draw_rect.c ****     }
 956:..\lvgl\lv_draw/lv_draw_rect.c **** 
 957:..\lvgl\lv_draw/lv_draw_rect.c ****     /*In some cases the last pixel in the outer middle is not drawn*/
 958:..\lvgl\lv_draw/lv_draw_rect.c ****     if(LV_MATH_ABS(aa_p.x - aa_p.y) == seg_size) {
 959:..\lvgl\lv_draw/lv_draw_rect.c ****         aa_p.x = out_x_last;
 960:..\lvgl\lv_draw/lv_draw_rect.c ****         aa_p.y = out_x_last;
 961:..\lvgl\lv_draw/lv_draw_rect.c **** 
 962:..\lvgl\lv_draw/lv_draw_rect.c ****         lv_opa_t aa_opa = opa >> 1;
 963:..\lvgl\lv_draw/lv_draw_rect.c **** 
 964:..\lvgl\lv_draw/lv_draw_rect.c ****         if((part & LV_BORDER_BOTTOM) && (part & LV_BORDER_RIGHT)) {
 965:..\lvgl\lv_draw/lv_draw_rect.c ****             px_fp(rb_origo.x + LV_CIRC_OCT2_X(aa_p), rb_origo.y + LV_CIRC_OCT2_Y(aa_p), mask, style
 966:..\lvgl\lv_draw/lv_draw_rect.c ****         }
 967:..\lvgl\lv_draw/lv_draw_rect.c **** 
 968:..\lvgl\lv_draw/lv_draw_rect.c ****         if((part & LV_BORDER_BOTTOM) && (part & LV_BORDER_LEFT)) {
 969:..\lvgl\lv_draw/lv_draw_rect.c ****             px_fp(lb_origo.x + LV_CIRC_OCT4_X(aa_p), lb_origo.y + LV_CIRC_OCT4_Y(aa_p), mask, style
 970:..\lvgl\lv_draw/lv_draw_rect.c ****         }
 971:..\lvgl\lv_draw/lv_draw_rect.c **** 
 972:..\lvgl\lv_draw/lv_draw_rect.c ****         if((part & LV_BORDER_TOP) && (part & LV_BORDER_LEFT)) {
 973:..\lvgl\lv_draw/lv_draw_rect.c ****             px_fp(lt_origo.x + LV_CIRC_OCT6_X(aa_p), lt_origo.y + LV_CIRC_OCT6_Y(aa_p), mask, style
 974:..\lvgl\lv_draw/lv_draw_rect.c ****         }
 975:..\lvgl\lv_draw/lv_draw_rect.c **** 
 976:..\lvgl\lv_draw/lv_draw_rect.c ****         if((part & LV_BORDER_TOP) && (part & LV_BORDER_RIGHT)) {
 977:..\lvgl\lv_draw/lv_draw_rect.c ****             px_fp(rt_origo.x + LV_CIRC_OCT8_X(aa_p), rt_origo.y + LV_CIRC_OCT8_Y(aa_p), mask, style
 978:..\lvgl\lv_draw/lv_draw_rect.c ****         }
 979:..\lvgl\lv_draw/lv_draw_rect.c ****     }
 980:..\lvgl\lv_draw/lv_draw_rect.c **** 
 981:..\lvgl\lv_draw/lv_draw_rect.c ****     /*Last parts of the inner anti-alias*/
 982:..\lvgl\lv_draw/lv_draw_rect.c ****     in_y_seg_end = cir_in.y;
 983:..\lvgl\lv_draw/lv_draw_rect.c ****     aa_p.x = in_x_last;
 984:..\lvgl\lv_draw/lv_draw_rect.c ****     aa_p.y = in_y_seg_start;
 985:..\lvgl\lv_draw/lv_draw_rect.c ****     seg_size = in_y_seg_end - in_y_seg_start;
 986:..\lvgl\lv_draw/lv_draw_rect.c **** 
 987:..\lvgl\lv_draw/lv_draw_rect.c ****     for(i = 0; i  < seg_size; i++) {
 988:..\lvgl\lv_draw/lv_draw_rect.c ****         lv_opa_t aa_opa =  lv_draw_aa_get_opa(seg_size, i, opa);
 989:..\lvgl\lv_draw/lv_draw_rect.c ****         if((part & LV_BORDER_BOTTOM) && (part & LV_BORDER_RIGHT)) {
 990:..\lvgl\lv_draw/lv_draw_rect.c ****             px_fp(rb_origo.x + LV_CIRC_OCT1_X(aa_p) - 1, rb_origo.y + LV_CIRC_OCT1_Y(aa_p) + i, mas
 991:..\lvgl\lv_draw/lv_draw_rect.c ****         }
 992:..\lvgl\lv_draw/lv_draw_rect.c **** 
 993:..\lvgl\lv_draw/lv_draw_rect.c ****         if((part & LV_BORDER_BOTTOM) && (part & LV_BORDER_LEFT)) {
 994:..\lvgl\lv_draw/lv_draw_rect.c ****             px_fp(lb_origo.x + LV_CIRC_OCT3_X(aa_p) - i, lb_origo.y + LV_CIRC_OCT3_Y(aa_p) - 1, mas
 995:..\lvgl\lv_draw/lv_draw_rect.c ****         }
 996:..\lvgl\lv_draw/lv_draw_rect.c **** 
 997:..\lvgl\lv_draw/lv_draw_rect.c ****         if((part & LV_BORDER_TOP) && (part & LV_BORDER_LEFT)) {
 998:..\lvgl\lv_draw/lv_draw_rect.c ****             px_fp(lt_origo.x + LV_CIRC_OCT5_X(aa_p) + 1, lt_origo.y + LV_CIRC_OCT5_Y(aa_p) - i, mas
 999:..\lvgl\lv_draw/lv_draw_rect.c ****         }
1000:..\lvgl\lv_draw/lv_draw_rect.c **** 
ARM GAS  C:\Users\d3bug\AppData\Local\Temp\ccPpCIYA.s 			page 19


1001:..\lvgl\lv_draw/lv_draw_rect.c ****         if((part & LV_BORDER_TOP) && (part & LV_BORDER_RIGHT)) {
1002:..\lvgl\lv_draw/lv_draw_rect.c ****             px_fp(rt_origo.x + LV_CIRC_OCT7_X(aa_p) + i, rt_origo.y + LV_CIRC_OCT7_Y(aa_p) + 1, mas
1003:..\lvgl\lv_draw/lv_draw_rect.c ****         }
1004:..\lvgl\lv_draw/lv_draw_rect.c **** 
1005:..\lvgl\lv_draw/lv_draw_rect.c ****         if(LV_CIRC_OCT1_X(aa_p) - 1 != LV_CIRC_OCT2_X(aa_p) + i) {
1006:..\lvgl\lv_draw/lv_draw_rect.c ****             if((part & LV_BORDER_BOTTOM) && (part & LV_BORDER_RIGHT)) {
1007:..\lvgl\lv_draw/lv_draw_rect.c ****                 px_fp(rb_origo.x + LV_CIRC_OCT2_X(aa_p) + i, rb_origo.y + LV_CIRC_OCT2_Y(aa_p) - 1,
1008:..\lvgl\lv_draw/lv_draw_rect.c ****             }
1009:..\lvgl\lv_draw/lv_draw_rect.c **** 
1010:..\lvgl\lv_draw/lv_draw_rect.c ****             if((part & LV_BORDER_BOTTOM) && (part & LV_BORDER_LEFT)) {
1011:..\lvgl\lv_draw/lv_draw_rect.c ****                 px_fp(lb_origo.x + LV_CIRC_OCT4_X(aa_p) + 1, lb_origo.y + LV_CIRC_OCT4_Y(aa_p) + i,
1012:..\lvgl\lv_draw/lv_draw_rect.c ****             }
1013:..\lvgl\lv_draw/lv_draw_rect.c **** 
1014:..\lvgl\lv_draw/lv_draw_rect.c ****             if((part & LV_BORDER_TOP) && (part & LV_BORDER_LEFT)) {
1015:..\lvgl\lv_draw/lv_draw_rect.c ****                 px_fp(lt_origo.x + LV_CIRC_OCT6_X(aa_p) - i, lt_origo.y + LV_CIRC_OCT6_Y(aa_p) + 1,
1016:..\lvgl\lv_draw/lv_draw_rect.c ****             }
1017:..\lvgl\lv_draw/lv_draw_rect.c **** 
1018:..\lvgl\lv_draw/lv_draw_rect.c ****             if((part & LV_BORDER_TOP) && (part & LV_BORDER_RIGHT)) {
1019:..\lvgl\lv_draw/lv_draw_rect.c ****                 px_fp(rt_origo.x + LV_CIRC_OCT8_X(aa_p) - 1, rt_origo.y + LV_CIRC_OCT8_Y(aa_p) - i,
1020:..\lvgl\lv_draw/lv_draw_rect.c ****             }
1021:..\lvgl\lv_draw/lv_draw_rect.c ****         }
1022:..\lvgl\lv_draw/lv_draw_rect.c ****     }
1023:..\lvgl\lv_draw/lv_draw_rect.c **** 
1024:..\lvgl\lv_draw/lv_draw_rect.c **** #endif
1025:..\lvgl\lv_draw/lv_draw_rect.c **** 
1026:..\lvgl\lv_draw/lv_draw_rect.c **** }
1027:..\lvgl\lv_draw/lv_draw_rect.c **** 
1028:..\lvgl\lv_draw/lv_draw_rect.c **** #if USE_LV_SHADOW && LV_VDB_SIZE
1029:..\lvgl\lv_draw/lv_draw_rect.c **** 
1030:..\lvgl\lv_draw/lv_draw_rect.c **** /**
1031:..\lvgl\lv_draw/lv_draw_rect.c ****  * Draw a shadow
1032:..\lvgl\lv_draw/lv_draw_rect.c ****  * @param rect pointer to rectangle object
1033:..\lvgl\lv_draw/lv_draw_rect.c ****  * @param mask pointer to a mask area (from the design functions)
1034:..\lvgl\lv_draw/lv_draw_rect.c ****  * @param opa_scale scale down all opacities by the factor
1035:..\lvgl\lv_draw/lv_draw_rect.c ****  */
1036:..\lvgl\lv_draw/lv_draw_rect.c **** static void lv_draw_shadow(const lv_area_t * coords, const lv_area_t * mask, const  lv_style_t * st
1037:..\lvgl\lv_draw/lv_draw_rect.c **** {
1038:..\lvgl\lv_draw/lv_draw_rect.c ****     /* If mask is in the middle of cords do not draw shadow*/
1039:..\lvgl\lv_draw/lv_draw_rect.c ****     lv_coord_t radius = style->body.radius;
1040:..\lvgl\lv_draw/lv_draw_rect.c ****     lv_coord_t width = lv_area_get_width(coords);
1041:..\lvgl\lv_draw/lv_draw_rect.c ****     lv_coord_t height = lv_area_get_height(coords);
1042:..\lvgl\lv_draw/lv_draw_rect.c ****     radius = lv_draw_cont_radius_corr(radius, width, height);
1043:..\lvgl\lv_draw/lv_draw_rect.c ****     lv_area_t area_tmp;
1044:..\lvgl\lv_draw/lv_draw_rect.c **** 
1045:..\lvgl\lv_draw/lv_draw_rect.c ****     /*Check horizontally without radius*/
1046:..\lvgl\lv_draw/lv_draw_rect.c ****     lv_area_copy(&area_tmp, coords);
1047:..\lvgl\lv_draw/lv_draw_rect.c ****     area_tmp.x1 += radius;
1048:..\lvgl\lv_draw/lv_draw_rect.c ****     area_tmp.x2 -= radius;
1049:..\lvgl\lv_draw/lv_draw_rect.c ****     if(lv_area_is_in(mask, &area_tmp) != false) return;
1050:..\lvgl\lv_draw/lv_draw_rect.c **** 
1051:..\lvgl\lv_draw/lv_draw_rect.c ****     /*Check vertically without radius*/
1052:..\lvgl\lv_draw/lv_draw_rect.c ****     lv_area_copy(&area_tmp, coords);
1053:..\lvgl\lv_draw/lv_draw_rect.c ****     area_tmp.y1 += radius;
1054:..\lvgl\lv_draw/lv_draw_rect.c ****     area_tmp.y2 -= radius;
1055:..\lvgl\lv_draw/lv_draw_rect.c ****     if(lv_area_is_in(mask, &area_tmp) != false) return;
1056:..\lvgl\lv_draw/lv_draw_rect.c **** 
1057:..\lvgl\lv_draw/lv_draw_rect.c ****     if(style->body.shadow.type == LV_SHADOW_FULL) {
ARM GAS  C:\Users\d3bug\AppData\Local\Temp\ccPpCIYA.s 			page 20


1058:..\lvgl\lv_draw/lv_draw_rect.c ****         lv_draw_shadow_full(coords, mask, style, opa_scale);
1059:..\lvgl\lv_draw/lv_draw_rect.c ****     } else if(style->body.shadow.type == LV_SHADOW_BOTTOM) {
1060:..\lvgl\lv_draw/lv_draw_rect.c ****         lv_draw_shadow_bottom(coords, mask, style, opa_scale);
1061:..\lvgl\lv_draw/lv_draw_rect.c ****     }
1062:..\lvgl\lv_draw/lv_draw_rect.c **** }
1063:..\lvgl\lv_draw/lv_draw_rect.c **** 
1064:..\lvgl\lv_draw/lv_draw_rect.c **** static void lv_draw_shadow_full(const lv_area_t * coords, const lv_area_t * mask, const lv_style_t 
1065:..\lvgl\lv_draw/lv_draw_rect.c **** {
1066:..\lvgl\lv_draw/lv_draw_rect.c **** 
1067:..\lvgl\lv_draw/lv_draw_rect.c ****     /* KNOWN ISSUE
1068:..\lvgl\lv_draw/lv_draw_rect.c ****      * The algorithm calculates the shadow only above the middle point of the radius (speaking abou
1069:..\lvgl\lv_draw/lv_draw_rect.c ****      * It causes an error because it doesn't consider how long the straight edge is which effects t
1070:..\lvgl\lv_draw/lv_draw_rect.c ****      * In addition the straight shadow is drawn from the middles point of the radius however
1071:..\lvgl\lv_draw/lv_draw_rect.c ****      * the ends of the straight parts still should be effected by the corner shadow.
1072:..\lvgl\lv_draw/lv_draw_rect.c ****      * It also causes an issue in opacity. A smaller radius means smaller average shadow opacity.
1073:..\lvgl\lv_draw/lv_draw_rect.c ****      * The solution should be to start `line` from `- swidth` and handle if the straight part is sh
1074:..\lvgl\lv_draw/lv_draw_rect.c ****      * the other corner. `col` also should start from `- swidth`
1075:..\lvgl\lv_draw/lv_draw_rect.c ****      */
1076:..\lvgl\lv_draw/lv_draw_rect.c **** 
1077:..\lvgl\lv_draw/lv_draw_rect.c **** 
1078:..\lvgl\lv_draw/lv_draw_rect.c ****     lv_coord_t radius = style->body.radius;
1079:..\lvgl\lv_draw/lv_draw_rect.c ****     lv_coord_t swidth = style->body.shadow.width;
1080:..\lvgl\lv_draw/lv_draw_rect.c **** 
1081:..\lvgl\lv_draw/lv_draw_rect.c ****     lv_coord_t width = lv_area_get_width(coords);
1082:..\lvgl\lv_draw/lv_draw_rect.c ****     lv_coord_t height = lv_area_get_height(coords);
1083:..\lvgl\lv_draw/lv_draw_rect.c **** 
1084:..\lvgl\lv_draw/lv_draw_rect.c ****     radius = lv_draw_cont_radius_corr(radius, width, height);
1085:..\lvgl\lv_draw/lv_draw_rect.c **** 
1086:..\lvgl\lv_draw/lv_draw_rect.c ****     radius += LV_ANTIALIAS;
1087:..\lvgl\lv_draw/lv_draw_rect.c **** 
1088:..\lvgl\lv_draw/lv_draw_rect.c **** #if LV_COMPILER_VLA_SUPPORTED
1089:..\lvgl\lv_draw/lv_draw_rect.c ****     lv_coord_t curve_x[radius + swidth + 1];     /*Stores the 'x' coordinates of a quarter circle.*
1090:..\lvgl\lv_draw/lv_draw_rect.c **** #else
1091:..\lvgl\lv_draw/lv_draw_rect.c **** # if LV_HOR_RES > LV_VER_RES
1092:..\lvgl\lv_draw/lv_draw_rect.c ****     lv_coord_t curve_x[LV_HOR_RES];
1093:..\lvgl\lv_draw/lv_draw_rect.c **** # else
1094:..\lvgl\lv_draw/lv_draw_rect.c ****     lv_coord_t curve_x[LV_VER_RES];
1095:..\lvgl\lv_draw/lv_draw_rect.c **** # endif
1096:..\lvgl\lv_draw/lv_draw_rect.c **** #endif
1097:..\lvgl\lv_draw/lv_draw_rect.c ****     memset(curve_x, 0, sizeof(curve_x));
1098:..\lvgl\lv_draw/lv_draw_rect.c ****     lv_point_t circ;
1099:..\lvgl\lv_draw/lv_draw_rect.c ****     lv_coord_t circ_tmp;
1100:..\lvgl\lv_draw/lv_draw_rect.c ****     lv_circ_init(&circ, &circ_tmp, radius);
1101:..\lvgl\lv_draw/lv_draw_rect.c ****     while(lv_circ_cont(&circ)) {
1102:..\lvgl\lv_draw/lv_draw_rect.c ****         curve_x[LV_CIRC_OCT1_Y(circ)] = LV_CIRC_OCT1_X(circ);
1103:..\lvgl\lv_draw/lv_draw_rect.c ****         curve_x[LV_CIRC_OCT2_Y(circ)] = LV_CIRC_OCT2_X(circ);
1104:..\lvgl\lv_draw/lv_draw_rect.c ****         lv_circ_next(&circ, &circ_tmp);
1105:..\lvgl\lv_draw/lv_draw_rect.c ****     }
1106:..\lvgl\lv_draw/lv_draw_rect.c ****     int16_t line;
1107:..\lvgl\lv_draw/lv_draw_rect.c **** 
1108:..\lvgl\lv_draw/lv_draw_rect.c ****     int16_t filter_width = 2 * swidth + 1;
1109:..\lvgl\lv_draw/lv_draw_rect.c **** #if LV_COMPILER_VLA_SUPPORTED
1110:..\lvgl\lv_draw/lv_draw_rect.c ****     uint32_t line_1d_blur[filter_width];
1111:..\lvgl\lv_draw/lv_draw_rect.c **** #else
1112:..\lvgl\lv_draw/lv_draw_rect.c **** # if LV_HOR_RES > LV_VER_RES
1113:..\lvgl\lv_draw/lv_draw_rect.c ****     uint32_t line_1d_blur[LV_HOR_RES];
1114:..\lvgl\lv_draw/lv_draw_rect.c **** # else
ARM GAS  C:\Users\d3bug\AppData\Local\Temp\ccPpCIYA.s 			page 21


1115:..\lvgl\lv_draw/lv_draw_rect.c ****     uint32_t line_1d_blur[LV_VER_RES];
1116:..\lvgl\lv_draw/lv_draw_rect.c **** # endif
1117:..\lvgl\lv_draw/lv_draw_rect.c **** #endif
1118:..\lvgl\lv_draw/lv_draw_rect.c ****     /*1D Blur horizontally*/
1119:..\lvgl\lv_draw/lv_draw_rect.c ****     lv_opa_t opa = opa_scale == LV_OPA_COVER ? style->body.opa : (uint16_t)((uint16_t) style->body.
1120:..\lvgl\lv_draw/lv_draw_rect.c ****     for(line = 0; line < filter_width; line++) {
1121:..\lvgl\lv_draw/lv_draw_rect.c ****         line_1d_blur[line] = (uint32_t)((uint32_t)(filter_width - line) * (opa * 2)  << SHADOW_OPA_
1122:..\lvgl\lv_draw/lv_draw_rect.c ****     }
1123:..\lvgl\lv_draw/lv_draw_rect.c **** 
1124:..\lvgl\lv_draw/lv_draw_rect.c ****     uint16_t col;
1125:..\lvgl\lv_draw/lv_draw_rect.c **** #if LV_COMPILER_VLA_SUPPORTED
1126:..\lvgl\lv_draw/lv_draw_rect.c ****     lv_opa_t line_2d_blur[radius + swidth + 1];
1127:..\lvgl\lv_draw/lv_draw_rect.c **** #else
1128:..\lvgl\lv_draw/lv_draw_rect.c **** # if LV_HOR_RES > LV_VER_RES
1129:..\lvgl\lv_draw/lv_draw_rect.c ****     lv_opa_t line_2d_blur[LV_HOR_RES];
1130:..\lvgl\lv_draw/lv_draw_rect.c **** # else
1131:..\lvgl\lv_draw/lv_draw_rect.c ****     lv_opa_t line_2d_blur[LV_VER_RES];
1132:..\lvgl\lv_draw/lv_draw_rect.c **** # endif
1133:..\lvgl\lv_draw/lv_draw_rect.c **** #endif
1134:..\lvgl\lv_draw/lv_draw_rect.c **** 
1135:..\lvgl\lv_draw/lv_draw_rect.c ****     lv_point_t point_rt;
1136:..\lvgl\lv_draw/lv_draw_rect.c ****     lv_point_t point_rb;
1137:..\lvgl\lv_draw/lv_draw_rect.c ****     lv_point_t point_lt;
1138:..\lvgl\lv_draw/lv_draw_rect.c ****     lv_point_t point_lb;
1139:..\lvgl\lv_draw/lv_draw_rect.c ****     lv_point_t ofs_rb;
1140:..\lvgl\lv_draw/lv_draw_rect.c ****     lv_point_t ofs_rt;
1141:..\lvgl\lv_draw/lv_draw_rect.c ****     lv_point_t ofs_lb;
1142:..\lvgl\lv_draw/lv_draw_rect.c ****     lv_point_t ofs_lt;
1143:..\lvgl\lv_draw/lv_draw_rect.c ****     ofs_rb.x = coords->x2 - radius - LV_ANTIALIAS;
1144:..\lvgl\lv_draw/lv_draw_rect.c ****     ofs_rb.y = coords->y2 - radius - LV_ANTIALIAS;
1145:..\lvgl\lv_draw/lv_draw_rect.c **** 
1146:..\lvgl\lv_draw/lv_draw_rect.c ****     ofs_rt.x = coords->x2 - radius - LV_ANTIALIAS;
1147:..\lvgl\lv_draw/lv_draw_rect.c ****     ofs_rt.y = coords->y1 + radius + LV_ANTIALIAS;
1148:..\lvgl\lv_draw/lv_draw_rect.c **** 
1149:..\lvgl\lv_draw/lv_draw_rect.c ****     ofs_lb.x = coords->x1 + radius + LV_ANTIALIAS;
1150:..\lvgl\lv_draw/lv_draw_rect.c ****     ofs_lb.y = coords->y2 - radius - LV_ANTIALIAS;
1151:..\lvgl\lv_draw/lv_draw_rect.c **** 
1152:..\lvgl\lv_draw/lv_draw_rect.c ****     ofs_lt.x = coords->x1 + radius + LV_ANTIALIAS;
1153:..\lvgl\lv_draw/lv_draw_rect.c ****     ofs_lt.y = coords->y1 + radius + LV_ANTIALIAS;
1154:..\lvgl\lv_draw/lv_draw_rect.c ****     bool line_ready;
1155:..\lvgl\lv_draw/lv_draw_rect.c ****     for(line = 0; line <= radius + swidth; line++) {        /*Check all rows and make the 1D blur t
1156:..\lvgl\lv_draw/lv_draw_rect.c ****         line_ready = false;
1157:..\lvgl\lv_draw/lv_draw_rect.c ****         for(col = 0; col <= radius + swidth; col++) {        /*Check all pixels in a 1D blur line (
1158:..\lvgl\lv_draw/lv_draw_rect.c **** 
1159:..\lvgl\lv_draw/lv_draw_rect.c ****             /*Sum the opacities from the lines above and below this 'row'*/
1160:..\lvgl\lv_draw/lv_draw_rect.c ****             int16_t line_rel;
1161:..\lvgl\lv_draw/lv_draw_rect.c ****             uint32_t px_opa_sum = 0;
1162:..\lvgl\lv_draw/lv_draw_rect.c ****             for(line_rel = -swidth; line_rel <= swidth; line_rel ++) {
1163:..\lvgl\lv_draw/lv_draw_rect.c ****                 /*Get the relative x position of the 'line_rel' to 'line'*/
1164:..\lvgl\lv_draw/lv_draw_rect.c ****                 int16_t col_rel;
1165:..\lvgl\lv_draw/lv_draw_rect.c ****                 if(line + line_rel < 0) {                       /*Below the radius, here is the blu
1166:..\lvgl\lv_draw/lv_draw_rect.c ****                     col_rel = radius - curve_x[line] - col;
1167:..\lvgl\lv_draw/lv_draw_rect.c ****                 } else if(line + line_rel > radius) {           /*Above the radius, here won't be m
1168:..\lvgl\lv_draw/lv_draw_rect.c ****                     break;
1169:..\lvgl\lv_draw/lv_draw_rect.c ****                 } else {                                        /*Blur from the curve*/
1170:..\lvgl\lv_draw/lv_draw_rect.c ****                     col_rel = curve_x[line + line_rel] - curve_x[line] - col;
1171:..\lvgl\lv_draw/lv_draw_rect.c ****                 }
ARM GAS  C:\Users\d3bug\AppData\Local\Temp\ccPpCIYA.s 			page 22


1172:..\lvgl\lv_draw/lv_draw_rect.c **** 
1173:..\lvgl\lv_draw/lv_draw_rect.c ****                 /*Add the value of the 1D blur on 'col_rel' position*/
1174:..\lvgl\lv_draw/lv_draw_rect.c ****                 if(col_rel < -swidth) {                         /*Outside of the blurred area. */
1175:..\lvgl\lv_draw/lv_draw_rect.c ****                     if(line_rel == -swidth) line_ready = true;  /*If no data even on the very first
1176:..\lvgl\lv_draw/lv_draw_rect.c ****                     break;                                      /*Break anyway because only smaller
1177:..\lvgl\lv_draw/lv_draw_rect.c ****                 } else if(col_rel > swidth) px_opa_sum += line_1d_blur[0];      /*Inside the not bl
1178:..\lvgl\lv_draw/lv_draw_rect.c ****                 else px_opa_sum += line_1d_blur[swidth - col_rel];              /*On the 1D blur (+
1179:..\lvgl\lv_draw/lv_draw_rect.c ****             }
1180:..\lvgl\lv_draw/lv_draw_rect.c **** 
1181:..\lvgl\lv_draw/lv_draw_rect.c ****             line_2d_blur[col] = px_opa_sum >> SHADOW_OPA_EXTRA_PRECISION;
1182:..\lvgl\lv_draw/lv_draw_rect.c ****             if(line_ready) {
1183:..\lvgl\lv_draw/lv_draw_rect.c ****                 col++;      /*To make this line to the last one ( drawing will go to '< col')*/
1184:..\lvgl\lv_draw/lv_draw_rect.c ****                 break;
1185:..\lvgl\lv_draw/lv_draw_rect.c ****             }
1186:..\lvgl\lv_draw/lv_draw_rect.c **** 
1187:..\lvgl\lv_draw/lv_draw_rect.c ****         }
1188:..\lvgl\lv_draw/lv_draw_rect.c **** 
1189:..\lvgl\lv_draw/lv_draw_rect.c ****         /*Flush the line*/
1190:..\lvgl\lv_draw/lv_draw_rect.c ****         point_rt.x = curve_x[line] + ofs_rt.x + 1;
1191:..\lvgl\lv_draw/lv_draw_rect.c ****         point_rt.y = ofs_rt.y - line;
1192:..\lvgl\lv_draw/lv_draw_rect.c **** 
1193:..\lvgl\lv_draw/lv_draw_rect.c ****         point_rb.x = curve_x[line] + ofs_rb.x + 1;
1194:..\lvgl\lv_draw/lv_draw_rect.c ****         point_rb.y = ofs_rb.y + line;
1195:..\lvgl\lv_draw/lv_draw_rect.c **** 
1196:..\lvgl\lv_draw/lv_draw_rect.c ****         point_lt.x = ofs_lt.x -  curve_x[line] - 1;
1197:..\lvgl\lv_draw/lv_draw_rect.c ****         point_lt.y = ofs_lt.y - line;
1198:..\lvgl\lv_draw/lv_draw_rect.c **** 
1199:..\lvgl\lv_draw/lv_draw_rect.c ****         point_lb.x = ofs_lb.x - curve_x[line] - 1;
1200:..\lvgl\lv_draw/lv_draw_rect.c ****         point_lb.y = ofs_lb.y + line;
1201:..\lvgl\lv_draw/lv_draw_rect.c **** 
1202:..\lvgl\lv_draw/lv_draw_rect.c ****         uint16_t d;
1203:..\lvgl\lv_draw/lv_draw_rect.c ****         for(d = 1; d < col; d++) {
1204:..\lvgl\lv_draw/lv_draw_rect.c **** 
1205:..\lvgl\lv_draw/lv_draw_rect.c ****             if(point_lt.x < ofs_lt.x && point_lt.y < ofs_lt.y) {
1206:..\lvgl\lv_draw/lv_draw_rect.c ****                 px_fp(point_lt.x, point_lt.y, mask, style->body.shadow.color, line_2d_blur[d]);
1207:..\lvgl\lv_draw/lv_draw_rect.c ****             }
1208:..\lvgl\lv_draw/lv_draw_rect.c **** 
1209:..\lvgl\lv_draw/lv_draw_rect.c ****             if(point_lb.x < ofs_lb.x && point_lb.y > ofs_lb.y) {
1210:..\lvgl\lv_draw/lv_draw_rect.c ****                 px_fp(point_lb.x, point_lb.y, mask, style->body.shadow.color, line_2d_blur[d]);
1211:..\lvgl\lv_draw/lv_draw_rect.c ****             }
1212:..\lvgl\lv_draw/lv_draw_rect.c **** 
1213:..\lvgl\lv_draw/lv_draw_rect.c ****             if(point_rt.x > ofs_rt.x && point_rt.y < ofs_rt.y) {
1214:..\lvgl\lv_draw/lv_draw_rect.c ****                 px_fp(point_rt.x, point_rt.y, mask, style->body.shadow.color, line_2d_blur[d]);
1215:..\lvgl\lv_draw/lv_draw_rect.c ****             }
1216:..\lvgl\lv_draw/lv_draw_rect.c **** 
1217:..\lvgl\lv_draw/lv_draw_rect.c ****             if(point_rb.x > ofs_rb.x && point_rb.y > ofs_rb.y) {
1218:..\lvgl\lv_draw/lv_draw_rect.c ****                 px_fp(point_rb.x, point_rb.y, mask, style->body.shadow.color, line_2d_blur[d]);
1219:..\lvgl\lv_draw/lv_draw_rect.c ****             }
1220:..\lvgl\lv_draw/lv_draw_rect.c **** 
1221:..\lvgl\lv_draw/lv_draw_rect.c ****             point_rb.x++;
1222:..\lvgl\lv_draw/lv_draw_rect.c ****             point_lb.x--;
1223:..\lvgl\lv_draw/lv_draw_rect.c **** 
1224:..\lvgl\lv_draw/lv_draw_rect.c ****             point_rt.x++;
1225:..\lvgl\lv_draw/lv_draw_rect.c ****             point_lt.x--;
1226:..\lvgl\lv_draw/lv_draw_rect.c ****         }
1227:..\lvgl\lv_draw/lv_draw_rect.c **** 
1228:..\lvgl\lv_draw/lv_draw_rect.c ****         /* Put the first line to the edges too.
ARM GAS  C:\Users\d3bug\AppData\Local\Temp\ccPpCIYA.s 			page 23


1229:..\lvgl\lv_draw/lv_draw_rect.c ****          * It is not correct because blur should be done below the corner too
1230:..\lvgl\lv_draw/lv_draw_rect.c ****          * but is is simple, fast and gives a good enough result*/
1231:..\lvgl\lv_draw/lv_draw_rect.c ****         if(line == 0) lv_draw_shadow_full_straight(coords, mask, style, line_2d_blur);
1232:..\lvgl\lv_draw/lv_draw_rect.c ****     }
1233:..\lvgl\lv_draw/lv_draw_rect.c **** }
1234:..\lvgl\lv_draw/lv_draw_rect.c **** 
1235:..\lvgl\lv_draw/lv_draw_rect.c **** 
1236:..\lvgl\lv_draw/lv_draw_rect.c **** static void lv_draw_shadow_bottom(const lv_area_t * coords, const lv_area_t * mask, const lv_style_
1237:..\lvgl\lv_draw/lv_draw_rect.c **** {
1238:..\lvgl\lv_draw/lv_draw_rect.c ****     lv_coord_t radius = style->body.radius;
1239:..\lvgl\lv_draw/lv_draw_rect.c ****     lv_coord_t swidth = style->body.shadow.width;
1240:..\lvgl\lv_draw/lv_draw_rect.c ****     lv_coord_t width = lv_area_get_width(coords);
1241:..\lvgl\lv_draw/lv_draw_rect.c ****     lv_coord_t height = lv_area_get_height(coords);
1242:..\lvgl\lv_draw/lv_draw_rect.c **** 
1243:..\lvgl\lv_draw/lv_draw_rect.c ****     radius = lv_draw_cont_radius_corr(radius, width, height);
1244:..\lvgl\lv_draw/lv_draw_rect.c ****     radius += LV_ANTIALIAS * SHADOW_BOTTOM_AA_EXTRA_RADIUS;
1245:..\lvgl\lv_draw/lv_draw_rect.c ****     swidth += LV_ANTIALIAS;
1246:..\lvgl\lv_draw/lv_draw_rect.c **** #if LV_COMPILER_VLA_SUPPORTED
1247:..\lvgl\lv_draw/lv_draw_rect.c ****     lv_coord_t curve_x[radius + 1];             /*Stores the 'x' coordinates of a quarter circle.*/
1248:..\lvgl\lv_draw/lv_draw_rect.c **** #else
1249:..\lvgl\lv_draw/lv_draw_rect.c **** # if LV_HOR_RES > LV_VER_RES
1250:..\lvgl\lv_draw/lv_draw_rect.c ****     lv_coord_t curve_x[LV_HOR_RES];
1251:..\lvgl\lv_draw/lv_draw_rect.c **** # else
1252:..\lvgl\lv_draw/lv_draw_rect.c ****     lv_coord_t curve_x[LV_VER_RES];
1253:..\lvgl\lv_draw/lv_draw_rect.c **** # endif
1254:..\lvgl\lv_draw/lv_draw_rect.c **** #endif
1255:..\lvgl\lv_draw/lv_draw_rect.c ****     lv_point_t circ;
1256:..\lvgl\lv_draw/lv_draw_rect.c ****     lv_coord_t circ_tmp;
1257:..\lvgl\lv_draw/lv_draw_rect.c ****     lv_circ_init(&circ, &circ_tmp, radius);
1258:..\lvgl\lv_draw/lv_draw_rect.c ****     while(lv_circ_cont(&circ)) {
1259:..\lvgl\lv_draw/lv_draw_rect.c ****         curve_x[LV_CIRC_OCT1_Y(circ)] = LV_CIRC_OCT1_X(circ);
1260:..\lvgl\lv_draw/lv_draw_rect.c ****         curve_x[LV_CIRC_OCT2_Y(circ)] = LV_CIRC_OCT2_X(circ);
1261:..\lvgl\lv_draw/lv_draw_rect.c ****         lv_circ_next(&circ, &circ_tmp);
1262:..\lvgl\lv_draw/lv_draw_rect.c ****     }
1263:..\lvgl\lv_draw/lv_draw_rect.c **** 
1264:..\lvgl\lv_draw/lv_draw_rect.c ****     int16_t col;
1265:..\lvgl\lv_draw/lv_draw_rect.c **** #if LV_COMPILER_VLA_SUPPORTED
1266:..\lvgl\lv_draw/lv_draw_rect.c ****     lv_opa_t line_1d_blur[swidth];
1267:..\lvgl\lv_draw/lv_draw_rect.c **** #else
1268:..\lvgl\lv_draw/lv_draw_rect.c **** # if LV_HOR_RES > LV_VER_RES
1269:..\lvgl\lv_draw/lv_draw_rect.c ****     lv_opa_t line_1d_blur[LV_HOR_RES];
1270:..\lvgl\lv_draw/lv_draw_rect.c **** # else
1271:..\lvgl\lv_draw/lv_draw_rect.c ****     lv_opa_t line_1d_blur[LV_VER_RES];
1272:..\lvgl\lv_draw/lv_draw_rect.c **** # endif
1273:..\lvgl\lv_draw/lv_draw_rect.c **** #endif
1274:..\lvgl\lv_draw/lv_draw_rect.c **** 
1275:..\lvgl\lv_draw/lv_draw_rect.c ****     lv_opa_t opa = opa_scale == LV_OPA_COVER ? style->body.opa : (uint16_t)((uint16_t) style->body.
1276:..\lvgl\lv_draw/lv_draw_rect.c ****     for(col = 0; col < swidth; col++) {
1277:..\lvgl\lv_draw/lv_draw_rect.c ****         line_1d_blur[col] = (uint32_t)((uint32_t)(swidth - col) * opa / 2) / (swidth);
1278:..\lvgl\lv_draw/lv_draw_rect.c ****     }
1279:..\lvgl\lv_draw/lv_draw_rect.c **** 
1280:..\lvgl\lv_draw/lv_draw_rect.c ****     lv_point_t point_l;
1281:..\lvgl\lv_draw/lv_draw_rect.c ****     lv_point_t point_r;
1282:..\lvgl\lv_draw/lv_draw_rect.c ****     lv_area_t area_mid;
1283:..\lvgl\lv_draw/lv_draw_rect.c ****     lv_point_t ofs_l;
1284:..\lvgl\lv_draw/lv_draw_rect.c ****     lv_point_t ofs_r;
1285:..\lvgl\lv_draw/lv_draw_rect.c **** 
ARM GAS  C:\Users\d3bug\AppData\Local\Temp\ccPpCIYA.s 			page 24


1286:..\lvgl\lv_draw/lv_draw_rect.c ****     ofs_l.x = coords->x1 + radius;
1287:..\lvgl\lv_draw/lv_draw_rect.c ****     ofs_l.y = coords->y2 - radius + 1 - LV_ANTIALIAS;
1288:..\lvgl\lv_draw/lv_draw_rect.c **** 
1289:..\lvgl\lv_draw/lv_draw_rect.c ****     ofs_r.x = coords->x2 - radius;
1290:..\lvgl\lv_draw/lv_draw_rect.c ****     ofs_r.y = coords->y2 - radius + 1 - LV_ANTIALIAS;
1291:..\lvgl\lv_draw/lv_draw_rect.c **** 
1292:..\lvgl\lv_draw/lv_draw_rect.c ****     for(col = 0; col <= radius; col++) {
1293:..\lvgl\lv_draw/lv_draw_rect.c ****         point_l.x = ofs_l.x - col ;
1294:..\lvgl\lv_draw/lv_draw_rect.c ****         point_l.y = ofs_l.y + curve_x[col];
1295:..\lvgl\lv_draw/lv_draw_rect.c **** 
1296:..\lvgl\lv_draw/lv_draw_rect.c ****         point_r.x = ofs_r.x + col;
1297:..\lvgl\lv_draw/lv_draw_rect.c ****         point_r.y = ofs_r.y + curve_x[col];
1298:..\lvgl\lv_draw/lv_draw_rect.c **** 
1299:..\lvgl\lv_draw/lv_draw_rect.c ****         lv_opa_t px_opa;
1300:..\lvgl\lv_draw/lv_draw_rect.c ****         int16_t diff = col == 0 ? 0 : curve_x[col - 1] - curve_x[col];
1301:..\lvgl\lv_draw/lv_draw_rect.c ****         uint16_t d;
1302:..\lvgl\lv_draw/lv_draw_rect.c ****         for(d = 0; d < swidth; d++) {
1303:..\lvgl\lv_draw/lv_draw_rect.c ****             /*When stepping a pixel in y calculate the average with the pixel from the prev. column
1304:..\lvgl\lv_draw/lv_draw_rect.c ****             if(diff == 0) {
1305:..\lvgl\lv_draw/lv_draw_rect.c ****                 px_opa = line_1d_blur[d];
1306:..\lvgl\lv_draw/lv_draw_rect.c ****             } else {
1307:..\lvgl\lv_draw/lv_draw_rect.c ****                 px_opa = (uint16_t)((uint16_t)line_1d_blur[d] + line_1d_blur[d - diff]) >> 1;
1308:..\lvgl\lv_draw/lv_draw_rect.c ****             }
1309:..\lvgl\lv_draw/lv_draw_rect.c ****             px_fp(point_l.x, point_l.y, mask, style->body.shadow.color, px_opa);
1310:..\lvgl\lv_draw/lv_draw_rect.c ****             point_l.y ++;
1311:..\lvgl\lv_draw/lv_draw_rect.c **** 
1312:..\lvgl\lv_draw/lv_draw_rect.c ****             /*Don't overdraw the pixel on the middle*/
1313:..\lvgl\lv_draw/lv_draw_rect.c ****             if(point_r.x > ofs_l.x) {
1314:..\lvgl\lv_draw/lv_draw_rect.c ****                 px_fp(point_r.x, point_r.y, mask, style->body.shadow.color, px_opa);
1315:..\lvgl\lv_draw/lv_draw_rect.c ****             }
1316:..\lvgl\lv_draw/lv_draw_rect.c ****             point_r.y ++;
1317:..\lvgl\lv_draw/lv_draw_rect.c ****         }
1318:..\lvgl\lv_draw/lv_draw_rect.c **** 
1319:..\lvgl\lv_draw/lv_draw_rect.c ****     }
1320:..\lvgl\lv_draw/lv_draw_rect.c **** 
1321:..\lvgl\lv_draw/lv_draw_rect.c ****     area_mid.x1 = ofs_l.x + 1;
1322:..\lvgl\lv_draw/lv_draw_rect.c ****     area_mid.y1 = ofs_l.y + radius;
1323:..\lvgl\lv_draw/lv_draw_rect.c ****     area_mid.x2 = ofs_r.x - 1;
1324:..\lvgl\lv_draw/lv_draw_rect.c ****     area_mid.y2 = area_mid.y1;
1325:..\lvgl\lv_draw/lv_draw_rect.c **** 
1326:..\lvgl\lv_draw/lv_draw_rect.c ****     uint16_t d;
1327:..\lvgl\lv_draw/lv_draw_rect.c ****     for(d = 0; d < swidth; d++) {
1328:..\lvgl\lv_draw/lv_draw_rect.c ****         fill_fp(&area_mid, mask, style->body.shadow.color, line_1d_blur[d]);
1329:..\lvgl\lv_draw/lv_draw_rect.c ****         area_mid.y1 ++;
1330:..\lvgl\lv_draw/lv_draw_rect.c ****         area_mid.y2 ++;
1331:..\lvgl\lv_draw/lv_draw_rect.c ****     }
1332:..\lvgl\lv_draw/lv_draw_rect.c **** }
1333:..\lvgl\lv_draw/lv_draw_rect.c **** 
1334:..\lvgl\lv_draw/lv_draw_rect.c **** static void lv_draw_shadow_full_straight(const lv_area_t * coords, const lv_area_t * mask, const lv
1335:..\lvgl\lv_draw/lv_draw_rect.c **** {
1336:..\lvgl\lv_draw/lv_draw_rect.c ****     lv_coord_t radius = style->body.radius;
1337:..\lvgl\lv_draw/lv_draw_rect.c ****     lv_coord_t swidth = style->body.shadow.width;// + LV_ANTIALIAS;
1338:..\lvgl\lv_draw/lv_draw_rect.c ****     lv_coord_t width = lv_area_get_width(coords);
1339:..\lvgl\lv_draw/lv_draw_rect.c ****     lv_coord_t height = lv_area_get_height(coords);
1340:..\lvgl\lv_draw/lv_draw_rect.c **** 
1341:..\lvgl\lv_draw/lv_draw_rect.c ****     radius = lv_draw_cont_radius_corr(radius, width, height);
1342:..\lvgl\lv_draw/lv_draw_rect.c ****     radius += LV_ANTIALIAS;
ARM GAS  C:\Users\d3bug\AppData\Local\Temp\ccPpCIYA.s 			page 25


1343:..\lvgl\lv_draw/lv_draw_rect.c **** 
1344:..\lvgl\lv_draw/lv_draw_rect.c ****     lv_area_t right_area;
1345:..\lvgl\lv_draw/lv_draw_rect.c ****     right_area.x1 = coords->x2 + 1 - LV_ANTIALIAS;
1346:..\lvgl\lv_draw/lv_draw_rect.c ****     right_area.y1 = coords->y1 + radius + LV_ANTIALIAS;
1347:..\lvgl\lv_draw/lv_draw_rect.c ****     right_area.x2 = right_area.x1;
1348:..\lvgl\lv_draw/lv_draw_rect.c ****     right_area.y2 = coords->y2 - radius - LV_ANTIALIAS;
1349:..\lvgl\lv_draw/lv_draw_rect.c **** 
1350:..\lvgl\lv_draw/lv_draw_rect.c ****     lv_area_t left_area;
1351:..\lvgl\lv_draw/lv_draw_rect.c ****     left_area.x1 = coords->x1 - 1 + LV_ANTIALIAS;
1352:..\lvgl\lv_draw/lv_draw_rect.c ****     left_area.y1 = coords->y1 + radius + LV_ANTIALIAS;
1353:..\lvgl\lv_draw/lv_draw_rect.c ****     left_area.x2 = left_area.x1;
1354:..\lvgl\lv_draw/lv_draw_rect.c ****     left_area.y2 = coords->y2 - radius - LV_ANTIALIAS;
1355:..\lvgl\lv_draw/lv_draw_rect.c **** 
1356:..\lvgl\lv_draw/lv_draw_rect.c ****     lv_area_t top_area;
1357:..\lvgl\lv_draw/lv_draw_rect.c ****     top_area.x1 = coords->x1 + radius + LV_ANTIALIAS;
1358:..\lvgl\lv_draw/lv_draw_rect.c ****     top_area.y1 = coords->y1 - 1 + LV_ANTIALIAS;
1359:..\lvgl\lv_draw/lv_draw_rect.c ****     top_area.x2 = coords->x2 - radius - LV_ANTIALIAS;
1360:..\lvgl\lv_draw/lv_draw_rect.c ****     top_area.y2 = top_area.y1;
1361:..\lvgl\lv_draw/lv_draw_rect.c **** 
1362:..\lvgl\lv_draw/lv_draw_rect.c ****     lv_area_t bottom_area;
1363:..\lvgl\lv_draw/lv_draw_rect.c ****     bottom_area.x1 = coords->x1 + radius + LV_ANTIALIAS;
1364:..\lvgl\lv_draw/lv_draw_rect.c ****     bottom_area.y1 = coords->y2 + 1 - LV_ANTIALIAS;
1365:..\lvgl\lv_draw/lv_draw_rect.c ****     bottom_area.x2 = coords->x2 - radius - LV_ANTIALIAS;
1366:..\lvgl\lv_draw/lv_draw_rect.c ****     bottom_area.y2 = bottom_area.y1;
1367:..\lvgl\lv_draw/lv_draw_rect.c **** 
1368:..\lvgl\lv_draw/lv_draw_rect.c ****     lv_opa_t opa_act;
1369:..\lvgl\lv_draw/lv_draw_rect.c ****     int16_t d;
1370:..\lvgl\lv_draw/lv_draw_rect.c ****     for(d = 1 /*+ LV_ANTIALIAS*/; d <= swidth/* - LV_ANTIALIAS*/; d++) {
1371:..\lvgl\lv_draw/lv_draw_rect.c ****         opa_act = map[d];
1372:..\lvgl\lv_draw/lv_draw_rect.c **** 
1373:..\lvgl\lv_draw/lv_draw_rect.c ****         fill_fp(&right_area, mask, style->body.shadow.color, opa_act);
1374:..\lvgl\lv_draw/lv_draw_rect.c ****         right_area.x1++;
1375:..\lvgl\lv_draw/lv_draw_rect.c ****         right_area.x2++;
1376:..\lvgl\lv_draw/lv_draw_rect.c **** 
1377:..\lvgl\lv_draw/lv_draw_rect.c ****         fill_fp(&left_area, mask, style->body.shadow.color, opa_act);
1378:..\lvgl\lv_draw/lv_draw_rect.c ****         left_area.x1--;
1379:..\lvgl\lv_draw/lv_draw_rect.c ****         left_area.x2--;
1380:..\lvgl\lv_draw/lv_draw_rect.c **** 
1381:..\lvgl\lv_draw/lv_draw_rect.c ****         fill_fp(&top_area, mask, style->body.shadow.color, opa_act);
1382:..\lvgl\lv_draw/lv_draw_rect.c ****         top_area.y1--;
1383:..\lvgl\lv_draw/lv_draw_rect.c ****         top_area.y2--;
1384:..\lvgl\lv_draw/lv_draw_rect.c **** 
1385:..\lvgl\lv_draw/lv_draw_rect.c ****         fill_fp(&bottom_area, mask, style->body.shadow.color, opa_act);
1386:..\lvgl\lv_draw/lv_draw_rect.c ****         bottom_area.y1++;
1387:..\lvgl\lv_draw/lv_draw_rect.c ****         bottom_area.y2++;
1388:..\lvgl\lv_draw/lv_draw_rect.c ****     }
1389:..\lvgl\lv_draw/lv_draw_rect.c **** }
1390:..\lvgl\lv_draw/lv_draw_rect.c **** 
1391:..\lvgl\lv_draw/lv_draw_rect.c **** #endif
1392:..\lvgl\lv_draw/lv_draw_rect.c **** 
1393:..\lvgl\lv_draw/lv_draw_rect.c **** 
1394:..\lvgl\lv_draw/lv_draw_rect.c **** static uint16_t lv_draw_cont_radius_corr(uint16_t r, lv_coord_t w, lv_coord_t h)
1395:..\lvgl\lv_draw/lv_draw_rect.c **** {
  27              		.loc 1 1395 0
  28              		.cfi_startproc
  29              		@ args = 0, pretend = 0, frame = 0
  30              		@ frame_needed = 0, uses_anonymous_args = 0
ARM GAS  C:\Users\d3bug\AppData\Local\Temp\ccPpCIYA.s 			page 26


  31              		@ link register save eliminated.
  32              	.LVL0:
1396:..\lvgl\lv_draw/lv_draw_rect.c ****     if(r >= (w >> 1)) {
  33              		.loc 1 1396 0
  34 0000 4910     		asrs	r1, r1, #1
  35              	.LVL1:
  36 0002 8842     		cmp	r0, r1
  37 0004 03DB     		blt	.L2
1397:..\lvgl\lv_draw/lv_draw_rect.c ****         r = (w >> 1);
  38              		.loc 1 1397 0
  39 0006 88B2     		uxth	r0, r1
  40              	.LVL2:
1398:..\lvgl\lv_draw/lv_draw_rect.c ****         if(r != 0) r--;
  41              		.loc 1 1398 0
  42 0008 08B1     		cbz	r0, .L2
  43              		.loc 1 1398 0 is_stmt 0 discriminator 1
  44 000a 0138     		subs	r0, r0, #1
  45              	.LVL3:
  46 000c 80B2     		uxth	r0, r0
  47              	.LVL4:
  48              	.L2:
1399:..\lvgl\lv_draw/lv_draw_rect.c ****     }
1400:..\lvgl\lv_draw/lv_draw_rect.c ****     if(r >= (h >> 1)) {
  49              		.loc 1 1400 0 is_stmt 1
  50 000e 5210     		asrs	r2, r2, #1
  51              	.LVL5:
  52 0010 9042     		cmp	r0, r2
  53 0012 03DB     		blt	.L3
1401:..\lvgl\lv_draw/lv_draw_rect.c ****         r = (h >> 1);
  54              		.loc 1 1401 0
  55 0014 90B2     		uxth	r0, r2
  56              	.LVL6:
1402:..\lvgl\lv_draw/lv_draw_rect.c ****         if(r != 0) r--;
  57              		.loc 1 1402 0
  58 0016 08B1     		cbz	r0, .L3
  59              		.loc 1 1402 0 is_stmt 0 discriminator 1
  60 0018 0138     		subs	r0, r0, #1
  61              	.LVL7:
  62 001a 80B2     		uxth	r0, r0
  63              	.LVL8:
  64              	.L3:
1403:..\lvgl\lv_draw/lv_draw_rect.c ****     }
1404:..\lvgl\lv_draw/lv_draw_rect.c **** 
1405:..\lvgl\lv_draw/lv_draw_rect.c ****     if(r > 0) r -= LV_ANTIALIAS;
  65              		.loc 1 1405 0 is_stmt 1
  66 001c 08B1     		cbz	r0, .L4
  67              		.loc 1 1405 0 is_stmt 0 discriminator 1
  68 001e 0138     		subs	r0, r0, #1
  69              	.LVL9:
  70 0020 80B2     		uxth	r0, r0
  71              	.LVL10:
  72              	.L4:
1406:..\lvgl\lv_draw/lv_draw_rect.c **** 
1407:..\lvgl\lv_draw/lv_draw_rect.c ****     return r;
1408:..\lvgl\lv_draw/lv_draw_rect.c **** }
  73              		.loc 1 1408 0 is_stmt 1
  74 0022 7047     		bx	lr
ARM GAS  C:\Users\d3bug\AppData\Local\Temp\ccPpCIYA.s 			page 27


  75              		.cfi_endproc
  76              	.LFE17:
  77              		.size	lv_draw_cont_radius_corr, .-lv_draw_cont_radius_corr
  78              		.section	.text.lv_draw_rect_main_mid,"ax",%progbits
  79              		.align	2
  80              		.thumb
  81              		.thumb_func
  82              		.type	lv_draw_rect_main_mid, %function
  83              	lv_draw_rect_main_mid:
  84              	.LFB13:
 103:..\lvgl\lv_draw/lv_draw_rect.c ****     uint16_t radius = style->body.radius;
  85              		.loc 1 103 0
  86              		.cfi_startproc
  87              		@ args = 0, pretend = 0, frame = 32
  88              		@ frame_needed = 0, uses_anonymous_args = 0
  89              	.LVL11:
  90 0000 2DE9F04F 		push	{r4, r5, r6, r7, r8, r9, r10, fp, lr}
  91              		.cfi_def_cfa_offset 36
  92              		.cfi_offset 4, -36
  93              		.cfi_offset 5, -32
  94              		.cfi_offset 6, -28
  95              		.cfi_offset 7, -24
  96              		.cfi_offset 8, -20
  97              		.cfi_offset 9, -16
  98              		.cfi_offset 10, -12
  99              		.cfi_offset 11, -8
 100              		.cfi_offset 14, -4
 101 0004 89B0     		sub	sp, sp, #36
 102              		.cfi_def_cfa_offset 72
 103 0006 0546     		mov	r5, r0
 104 0008 0091     		str	r1, [sp]
 105 000a 1746     		mov	r7, r2
 104:..\lvgl\lv_draw/lv_draw_rect.c **** 
 106              		.loc 1 104 0
 107 000c 9088     		ldrh	r0, [r2, #4]
 108              	.LVL12:
 106:..\lvgl\lv_draw/lv_draw_rect.c ****     lv_color_t gcolor = style->body.grad_color;
 109              		.loc 1 106 0
 110 000e 9278     		ldrb	r2, [r2, #2]	@ zero_extendqisi2
 111              	.LVL13:
 112 0010 0192     		str	r2, [sp, #4]
 113 0012 8DF80820 		strb	r2, [sp, #8]
 107:..\lvgl\lv_draw/lv_draw_rect.c ****     uint8_t mix;
 114              		.loc 1 107 0
 115 0016 FA78     		ldrb	r2, [r7, #3]	@ zero_extendqisi2
 116 0018 0492     		str	r2, [sp, #16]
 117 001a 8DF81720 		strb	r2, [sp, #23]
 118              	.LVL14:
 119              	.LBB73:
 120              	.LBB74:
 121              		.file 2 "..\\lvgl\\lv_draw\\../lv_core/../lv_misc/lv_area.h"
   1:..\lvgl\lv_draw\../lv_core/../lv_misc/lv_area.h **** /**
   2:..\lvgl\lv_draw\../lv_core/../lv_misc/lv_area.h ****  * @file lv_area.h
   3:..\lvgl\lv_draw\../lv_core/../lv_misc/lv_area.h ****  *
   4:..\lvgl\lv_draw\../lv_core/../lv_misc/lv_area.h ****  */
   5:..\lvgl\lv_draw\../lv_core/../lv_misc/lv_area.h **** 
   6:..\lvgl\lv_draw\../lv_core/../lv_misc/lv_area.h **** #ifndef LV_AREA_H
ARM GAS  C:\Users\d3bug\AppData\Local\Temp\ccPpCIYA.s 			page 28


   7:..\lvgl\lv_draw\../lv_core/../lv_misc/lv_area.h **** #define LV_AREA_H
   8:..\lvgl\lv_draw\../lv_core/../lv_misc/lv_area.h **** 
   9:..\lvgl\lv_draw\../lv_core/../lv_misc/lv_area.h **** #ifdef __cplusplus
  10:..\lvgl\lv_draw\../lv_core/../lv_misc/lv_area.h **** extern "C" {
  11:..\lvgl\lv_draw\../lv_core/../lv_misc/lv_area.h **** #endif
  12:..\lvgl\lv_draw\../lv_core/../lv_misc/lv_area.h **** 
  13:..\lvgl\lv_draw\../lv_core/../lv_misc/lv_area.h **** 
  14:..\lvgl\lv_draw\../lv_core/../lv_misc/lv_area.h **** /*********************
  15:..\lvgl\lv_draw\../lv_core/../lv_misc/lv_area.h ****  *      INCLUDES
  16:..\lvgl\lv_draw\../lv_core/../lv_misc/lv_area.h ****  *********************/
  17:..\lvgl\lv_draw\../lv_core/../lv_misc/lv_area.h **** #include <string.h>
  18:..\lvgl\lv_draw\../lv_core/../lv_misc/lv_area.h **** #include <stdbool.h>
  19:..\lvgl\lv_draw\../lv_core/../lv_misc/lv_area.h **** #include <stdint.h>
  20:..\lvgl\lv_draw\../lv_core/../lv_misc/lv_area.h **** 
  21:..\lvgl\lv_draw\../lv_core/../lv_misc/lv_area.h **** /*********************
  22:..\lvgl\lv_draw\../lv_core/../lv_misc/lv_area.h ****  *      DEFINES
  23:..\lvgl\lv_draw\../lv_core/../lv_misc/lv_area.h ****  *********************/
  24:..\lvgl\lv_draw\../lv_core/../lv_misc/lv_area.h **** #define LV_COORD_MAX     (16383)    /*To avoid overflow don't let the max [-32,32k] range */
  25:..\lvgl\lv_draw\../lv_core/../lv_misc/lv_area.h **** #define LV_COORD_MIN     (-16384)
  26:..\lvgl\lv_draw\../lv_core/../lv_misc/lv_area.h **** 
  27:..\lvgl\lv_draw\../lv_core/../lv_misc/lv_area.h **** /**********************
  28:..\lvgl\lv_draw\../lv_core/../lv_misc/lv_area.h ****  *      TYPEDEFS
  29:..\lvgl\lv_draw\../lv_core/../lv_misc/lv_area.h ****  **********************/
  30:..\lvgl\lv_draw\../lv_core/../lv_misc/lv_area.h **** typedef int16_t lv_coord_t;
  31:..\lvgl\lv_draw\../lv_core/../lv_misc/lv_area.h **** 
  32:..\lvgl\lv_draw\../lv_core/../lv_misc/lv_area.h **** typedef struct
  33:..\lvgl\lv_draw\../lv_core/../lv_misc/lv_area.h **** {
  34:..\lvgl\lv_draw\../lv_core/../lv_misc/lv_area.h ****     lv_coord_t x;
  35:..\lvgl\lv_draw\../lv_core/../lv_misc/lv_area.h ****     lv_coord_t y;
  36:..\lvgl\lv_draw\../lv_core/../lv_misc/lv_area.h **** } lv_point_t;
  37:..\lvgl\lv_draw\../lv_core/../lv_misc/lv_area.h **** 
  38:..\lvgl\lv_draw\../lv_core/../lv_misc/lv_area.h **** typedef struct
  39:..\lvgl\lv_draw\../lv_core/../lv_misc/lv_area.h **** {
  40:..\lvgl\lv_draw\../lv_core/../lv_misc/lv_area.h ****     lv_coord_t x1;
  41:..\lvgl\lv_draw\../lv_core/../lv_misc/lv_area.h ****     lv_coord_t y1;
  42:..\lvgl\lv_draw\../lv_core/../lv_misc/lv_area.h ****     lv_coord_t x2;
  43:..\lvgl\lv_draw\../lv_core/../lv_misc/lv_area.h ****     lv_coord_t y2;
  44:..\lvgl\lv_draw\../lv_core/../lv_misc/lv_area.h **** } lv_area_t;
  45:..\lvgl\lv_draw\../lv_core/../lv_misc/lv_area.h **** 
  46:..\lvgl\lv_draw\../lv_core/../lv_misc/lv_area.h **** /**********************
  47:..\lvgl\lv_draw\../lv_core/../lv_misc/lv_area.h ****  * GLOBAL PROTOTYPES
  48:..\lvgl\lv_draw\../lv_core/../lv_misc/lv_area.h ****  **********************/
  49:..\lvgl\lv_draw\../lv_core/../lv_misc/lv_area.h **** 
  50:..\lvgl\lv_draw\../lv_core/../lv_misc/lv_area.h **** /**
  51:..\lvgl\lv_draw\../lv_core/../lv_misc/lv_area.h ****  * Initialize an area
  52:..\lvgl\lv_draw\../lv_core/../lv_misc/lv_area.h ****  * @param area_p pointer to an area
  53:..\lvgl\lv_draw\../lv_core/../lv_misc/lv_area.h ****  * @param x1 left coordinate of the area
  54:..\lvgl\lv_draw\../lv_core/../lv_misc/lv_area.h ****  * @param y1 top coordinate of the area
  55:..\lvgl\lv_draw\../lv_core/../lv_misc/lv_area.h ****  * @param x2 right coordinate of the area
  56:..\lvgl\lv_draw\../lv_core/../lv_misc/lv_area.h ****  * @param y2 bottom coordinate of the area
  57:..\lvgl\lv_draw\../lv_core/../lv_misc/lv_area.h ****  */
  58:..\lvgl\lv_draw\../lv_core/../lv_misc/lv_area.h **** void lv_area_set(lv_area_t * area_p, lv_coord_t x1, lv_coord_t y1, lv_coord_t x2, lv_coord_t y2);
  59:..\lvgl\lv_draw\../lv_core/../lv_misc/lv_area.h **** 
  60:..\lvgl\lv_draw\../lv_core/../lv_misc/lv_area.h **** /**
  61:..\lvgl\lv_draw\../lv_core/../lv_misc/lv_area.h ****  * Copy an area
  62:..\lvgl\lv_draw\../lv_core/../lv_misc/lv_area.h ****  * @param dest pointer to the destination area
  63:..\lvgl\lv_draw\../lv_core/../lv_misc/lv_area.h ****  * @param src pointer to the source area
ARM GAS  C:\Users\d3bug\AppData\Local\Temp\ccPpCIYA.s 			page 29


  64:..\lvgl\lv_draw\../lv_core/../lv_misc/lv_area.h ****  */
  65:..\lvgl\lv_draw\../lv_core/../lv_misc/lv_area.h **** inline static void lv_area_copy(lv_area_t * dest, const lv_area_t * src)
  66:..\lvgl\lv_draw\../lv_core/../lv_misc/lv_area.h **** {
  67:..\lvgl\lv_draw\../lv_core/../lv_misc/lv_area.h ****     memcpy(dest, src, sizeof(lv_area_t));
  68:..\lvgl\lv_draw\../lv_core/../lv_misc/lv_area.h **** }
  69:..\lvgl\lv_draw\../lv_core/../lv_misc/lv_area.h **** 
  70:..\lvgl\lv_draw\../lv_core/../lv_misc/lv_area.h **** /**
  71:..\lvgl\lv_draw\../lv_core/../lv_misc/lv_area.h ****  * Get the width of an area
  72:..\lvgl\lv_draw\../lv_core/../lv_misc/lv_area.h ****  * @param area_p pointer to an area
  73:..\lvgl\lv_draw\../lv_core/../lv_misc/lv_area.h ****  * @return the width of the area (if x1 == x2 -> width = 1)
  74:..\lvgl\lv_draw\../lv_core/../lv_misc/lv_area.h ****  */
  75:..\lvgl\lv_draw\../lv_core/../lv_misc/lv_area.h **** static inline lv_coord_t lv_area_get_width(const lv_area_t * area_p)
  76:..\lvgl\lv_draw\../lv_core/../lv_misc/lv_area.h **** {
  77:..\lvgl\lv_draw\../lv_core/../lv_misc/lv_area.h ****     return area_p->x2 - area_p->x1 + 1;
  78:..\lvgl\lv_draw\../lv_core/../lv_misc/lv_area.h **** }
  79:..\lvgl\lv_draw\../lv_core/../lv_misc/lv_area.h **** 
  80:..\lvgl\lv_draw\../lv_core/../lv_misc/lv_area.h **** /**
  81:..\lvgl\lv_draw\../lv_core/../lv_misc/lv_area.h ****  * Get the height of an area
  82:..\lvgl\lv_draw\../lv_core/../lv_misc/lv_area.h ****  * @param area_p pointer to an area
  83:..\lvgl\lv_draw\../lv_core/../lv_misc/lv_area.h ****  * @return the height of the area (if y1 == y2 -> height = 1)
  84:..\lvgl\lv_draw\../lv_core/../lv_misc/lv_area.h ****  */
  85:..\lvgl\lv_draw\../lv_core/../lv_misc/lv_area.h **** static inline lv_coord_t lv_area_get_height(const lv_area_t * area_p)
  86:..\lvgl\lv_draw\../lv_core/../lv_misc/lv_area.h **** {
  87:..\lvgl\lv_draw\../lv_core/../lv_misc/lv_area.h ****     return area_p->y2 - area_p->y1 + 1;
 122              		.loc 2 87 0
 123 001e B5F80690 		ldrh	r9, [r5, #6]
 124 0022 B5F90240 		ldrsh	r4, [r5, #2]
 125 0026 C4EB0904 		rsb	r4, r4, r9
 126 002a 0134     		adds	r4, r4, #1
 127 002c 24B2     		sxth	r4, r4
 128              	.LVL15:
 129              	.LBE74:
 130              	.LBE73:
 131              	.LBB75:
 132              	.LBB76:
  77:..\lvgl\lv_draw\../lv_core/../lv_misc/lv_area.h **** }
 133              		.loc 2 77 0
 134 002e B5F904A0 		ldrsh	r10, [r5, #4]
 135 0032 B5F900B0 		ldrsh	fp, [r5]
 136 0036 CBEB0A01 		rsb	r1, fp, r10
 137              	.LVL16:
 138 003a 0131     		adds	r1, r1, #1
 139 003c 09B2     		sxth	r1, r1
 140              	.LVL17:
 141              	.LBE76:
 142              	.LBE75:
 111:..\lvgl\lv_draw/lv_draw_rect.c **** 
 143              		.loc 1 111 0
 144 003e FF2B     		cmp	r3, #255
 145 0040 01D1     		bne	.L6
 111:..\lvgl\lv_draw/lv_draw_rect.c **** 
 146              		.loc 1 111 0 is_stmt 0 discriminator 1
 147 0042 BE79     		ldrb	r6, [r7, #6]	@ zero_extendqisi2
 148 0044 04E0     		b	.L7
 149              	.L6:
 111:..\lvgl\lv_draw/lv_draw_rect.c **** 
 150              		.loc 1 111 0 discriminator 2
ARM GAS  C:\Users\d3bug\AppData\Local\Temp\ccPpCIYA.s 			page 30


 151 0046 BE79     		ldrb	r6, [r7, #6]	@ zero_extendqisi2
 152 0048 06FB03F3 		mul	r3, r6, r3
 153              	.LVL18:
 154 004c C3F30726 		ubfx	r6, r3, #8, #8
 155              	.L7:
 156              	.LVL19:
 113:..\lvgl\lv_draw/lv_draw_rect.c **** 
 157              		.loc 1 113 0 is_stmt 1 discriminator 4
 158 0050 2246     		mov	r2, r4
 159 0052 FFF7FEFF 		bl	lv_draw_cont_radius_corr
 160              	.LVL20:
 116:..\lvgl\lv_draw/lv_draw_rect.c **** 
 161              		.loc 1 116 0 discriminator 4
 162 0056 04EBD473 		add	r3, r4, r4, lsr #31
 163 005a B0EB630F 		cmp	r0, r3, asr #1
 164 005e 6ADC     		bgt	.L5
 119:..\lvgl\lv_draw/lv_draw_rect.c ****     work_area.x2 = coords->x2;
 165              		.loc 1 119 0
 166 0060 ADF818B0 		strh	fp, [sp, #24]	@ movhi
 120:..\lvgl\lv_draw/lv_draw_rect.c **** 
 167              		.loc 1 120 0
 168 0064 ADF81CA0 		strh	r10, [sp, #28]	@ movhi
 122:..\lvgl\lv_draw/lv_draw_rect.c ****         work_area.y1 = coords->y1 + radius;
 169              		.loc 1 122 0
 170 0068 049B     		ldr	r3, [sp, #16]
 171 006a 019A     		ldr	r2, [sp, #4]
 172 006c 5340     		eors	r3, r3, r2
 173 006e 13F0010F 		tst	r3, #1
 174 0072 1CD1     		bne	.L9
 123:..\lvgl\lv_draw/lv_draw_rect.c ****         work_area.y2 = coords->y2 - radius;
 175              		.loc 1 123 0
 176 0074 B5F90230 		ldrsh	r3, [r5, #2]
 177 0078 0344     		add	r3, r3, r0
 178 007a 9BB2     		uxth	r3, r3
 179 007c ADF81A30 		strh	r3, [sp, #26]	@ movhi
 124:..\lvgl\lv_draw/lv_draw_rect.c **** 
 180              		.loc 1 124 0
 181 0080 C0EB0900 		rsb	r0, r0, r9
 182              	.LVL21:
 183 0084 80B2     		uxth	r0, r0
 184 0086 ADF81E00 		strh	r0, [sp, #30]	@ movhi
 126:..\lvgl\lv_draw/lv_draw_rect.c **** #if LV_ANTIALIAS
 185              		.loc 1 126 0
 186 008a B7F90420 		ldrsh	r2, [r7, #4]
 187 008e 2AB1     		cbz	r2, .L10
 128:..\lvgl\lv_draw/lv_draw_rect.c ****             work_area.y2 -= 2;
 188              		.loc 1 128 0
 189 0090 0233     		adds	r3, r3, #2
 190 0092 ADF81A30 		strh	r3, [sp, #26]	@ movhi
 129:..\lvgl\lv_draw/lv_draw_rect.c **** #else
 191              		.loc 1 129 0
 192 0096 0238     		subs	r0, r0, #2
 193 0098 ADF81E00 		strh	r0, [sp, #30]	@ movhi
 194              	.L10:
 136:..\lvgl\lv_draw/lv_draw_rect.c ****     } else {
 195              		.loc 1 136 0
 196 009c 274B     		ldr	r3, .L22
ARM GAS  C:\Users\d3bug\AppData\Local\Temp\ccPpCIYA.s 			page 31


 197 009e 1C68     		ldr	r4, [r3]
 198 00a0 3346     		mov	r3, r6
 199 00a2 9DF80420 		ldrb	r2, [sp, #4]	@ zero_extendqisi2
 200 00a6 0099     		ldr	r1, [sp]
 201 00a8 06A8     		add	r0, sp, #24
 202 00aa A047     		blx	r4
 203              	.LVL22:
 204 00ac 43E0     		b	.L5
 205              	.LVL23:
 206              	.L9:
 207              	.LBB77:
 139:..\lvgl\lv_draw/lv_draw_rect.c ****         lv_coord_t row_end = coords->y2 - radius;
 208              		.loc 1 139 0
 209 00ae B5F90230 		ldrsh	r3, [r5, #2]
 210 00b2 0344     		add	r3, r3, r0
 211 00b4 9BB2     		uxth	r3, r3
 212 00b6 0FFA83FA 		sxth	r10, r3
 213              	.LVL24:
 140:..\lvgl\lv_draw/lv_draw_rect.c ****         lv_color_t act_color;
 214              		.loc 1 140 0
 215 00ba C0EB0900 		rsb	r0, r0, r9
 216              	.LVL25:
 217 00be 80B2     		uxth	r0, r0
 218 00c0 0FFA80FB 		sxth	fp, r0
 219              	.LVL26:
 143:..\lvgl\lv_draw/lv_draw_rect.c **** #if LV_ANTIALIAS
 220              		.loc 1 143 0
 221 00c4 B7F90420 		ldrsh	r2, [r7, #4]
 222 00c8 32B1     		cbz	r2, .L12
 145:..\lvgl\lv_draw/lv_draw_rect.c ****             row_end -= 2;
 223              		.loc 1 145 0
 224 00ca 03F1020A 		add	r10, r3, #2
 225              	.LVL27:
 226 00ce 0FFA8AFA 		sxth	r10, r10
 227              	.LVL28:
 146:..\lvgl\lv_draw/lv_draw_rect.c **** #else
 228              		.loc 1 146 0
 229 00d2 0238     		subs	r0, r0, #2
 230 00d4 0FFA80FB 		sxth	fp, r0
 231              	.LVL29:
 232              	.L12:
 152:..\lvgl\lv_draw/lv_draw_rect.c **** 
 233              		.loc 1 152 0
 234 00d8 BAF1000F 		cmp	r10, #0
 235 00dc 27DA     		bge	.L20
 236 00de 4FF0000A 		mov	r10, #0
 237              	.LVL30:
 238 00e2 9DF81790 		ldrb	r9, [sp, #23]	@ zero_extendqisi2
 239 00e6 24E0     		b	.L14
 240              	.LVL31:
 241              	.L17:
 155:..\lvgl\lv_draw/lv_draw_rect.c ****             work_area.y2 = row;
 242              		.loc 1 155 0 discriminator 3
 243 00e8 ADF81AA0 		strh	r10, [sp, #26]	@ movhi
 156:..\lvgl\lv_draw/lv_draw_rect.c ****             mix = (uint32_t)((uint32_t)(coords->y2 - work_area.y1) * 255) / height;
 244              		.loc 1 156 0 discriminator 3
 245 00ec ADF81EA0 		strh	r10, [sp, #30]	@ movhi
ARM GAS  C:\Users\d3bug\AppData\Local\Temp\ccPpCIYA.s 			page 32


 157:..\lvgl\lv_draw/lv_draw_rect.c ****             act_color = lv_color_mix(mcolor, gcolor, mix);
 246              		.loc 1 157 0 discriminator 3
 247 00f0 B5F90630 		ldrsh	r3, [r5, #6]
 248 00f4 CAEB0303 		rsb	r3, r10, r3
 249 00f8 C3EB0323 		rsb	r3, r3, r3, lsl #8
 250 00fc B3FBF4F3 		udiv	r3, r3, r4
 251              	.LVL32:
 252              	.LBB78:
 253              	.LBB79:
 254              		.file 3 "..\\lvgl\\lv_draw\\../lv_core/../lv_misc/lv_color.h"
   1:..\lvgl\lv_draw\../lv_core/../lv_misc/lv_color.h **** /**
   2:..\lvgl\lv_draw\../lv_core/../lv_misc/lv_color.h ****  * @file lv_color.h
   3:..\lvgl\lv_draw\../lv_core/../lv_misc/lv_color.h ****  *
   4:..\lvgl\lv_draw\../lv_core/../lv_misc/lv_color.h ****  */
   5:..\lvgl\lv_draw\../lv_core/../lv_misc/lv_color.h **** 
   6:..\lvgl\lv_draw\../lv_core/../lv_misc/lv_color.h **** #ifndef LV_COLOR_H
   7:..\lvgl\lv_draw\../lv_core/../lv_misc/lv_color.h **** #define LV_COLOR_H
   8:..\lvgl\lv_draw\../lv_core/../lv_misc/lv_color.h **** 
   9:..\lvgl\lv_draw\../lv_core/../lv_misc/lv_color.h **** #ifdef __cplusplus
  10:..\lvgl\lv_draw\../lv_core/../lv_misc/lv_color.h **** extern "C" {
  11:..\lvgl\lv_draw\../lv_core/../lv_misc/lv_color.h **** #endif
  12:..\lvgl\lv_draw\../lv_core/../lv_misc/lv_color.h **** 
  13:..\lvgl\lv_draw\../lv_core/../lv_misc/lv_color.h **** /*********************
  14:..\lvgl\lv_draw\../lv_core/../lv_misc/lv_color.h ****  *      INCLUDES
  15:..\lvgl\lv_draw\../lv_core/../lv_misc/lv_color.h ****  *********************/
  16:..\lvgl\lv_draw\../lv_core/../lv_misc/lv_color.h **** #ifdef LV_CONF_INCLUDE_SIMPLE
  17:..\lvgl\lv_draw\../lv_core/../lv_misc/lv_color.h **** #include "lv_conf.h"
  18:..\lvgl\lv_draw\../lv_core/../lv_misc/lv_color.h **** #else
  19:..\lvgl\lv_draw\../lv_core/../lv_misc/lv_color.h **** #include "../../lv_conf.h"
  20:..\lvgl\lv_draw\../lv_core/../lv_misc/lv_color.h **** #endif
  21:..\lvgl\lv_draw\../lv_core/../lv_misc/lv_color.h **** 
  22:..\lvgl\lv_draw\../lv_core/../lv_misc/lv_color.h **** /*Error checking*/
  23:..\lvgl\lv_draw\../lv_core/../lv_misc/lv_color.h **** #if LV_COLOR_DEPTH == 24
  24:..\lvgl\lv_draw\../lv_core/../lv_misc/lv_color.h **** #error "LV_COLOR_DEPTH  24 is deprecated. Use LV_COLOR_DEPTH  32 instead (lv_conf.h)"
  25:..\lvgl\lv_draw\../lv_core/../lv_misc/lv_color.h **** #endif
  26:..\lvgl\lv_draw\../lv_core/../lv_misc/lv_color.h **** 
  27:..\lvgl\lv_draw\../lv_core/../lv_misc/lv_color.h **** #if LV_COLOR_DEPTH != 32 && LV_COLOR_SCREEN_TRANSP != 0
  28:..\lvgl\lv_draw\../lv_core/../lv_misc/lv_color.h **** #error "LV_COLOR_SCREEN_TRANSP requires LV_COLOR_DEPTH == 32. Set it in lv_conf.h"
  29:..\lvgl\lv_draw\../lv_core/../lv_misc/lv_color.h **** #endif
  30:..\lvgl\lv_draw\../lv_core/../lv_misc/lv_color.h **** 
  31:..\lvgl\lv_draw\../lv_core/../lv_misc/lv_color.h **** #if LV_COLOR_DEPTH != 16 && LV_COLOR_16_SWAP != 0
  32:..\lvgl\lv_draw\../lv_core/../lv_misc/lv_color.h **** #error "LV_COLOR_16_SWAP requires LV_COLOR_DEPTH == 16. Set it in lv_conf.h"
  33:..\lvgl\lv_draw\../lv_core/../lv_misc/lv_color.h **** #endif
  34:..\lvgl\lv_draw\../lv_core/../lv_misc/lv_color.h **** 
  35:..\lvgl\lv_draw\../lv_core/../lv_misc/lv_color.h **** 
  36:..\lvgl\lv_draw\../lv_core/../lv_misc/lv_color.h **** #include <stdint.h>
  37:..\lvgl\lv_draw\../lv_core/../lv_misc/lv_color.h **** 
  38:..\lvgl\lv_draw\../lv_core/../lv_misc/lv_color.h **** /*********************
  39:..\lvgl\lv_draw\../lv_core/../lv_misc/lv_color.h ****  *      DEFINES
  40:..\lvgl\lv_draw\../lv_core/../lv_misc/lv_color.h ****  *********************/
  41:..\lvgl\lv_draw\../lv_core/../lv_misc/lv_color.h **** #define LV_COLOR_WHITE   LV_COLOR_MAKE(0xFF,0xFF,0xFF)
  42:..\lvgl\lv_draw\../lv_core/../lv_misc/lv_color.h **** #define LV_COLOR_SILVER  LV_COLOR_MAKE(0xC0,0xC0,0xC0)
  43:..\lvgl\lv_draw\../lv_core/../lv_misc/lv_color.h **** #define LV_COLOR_GRAY    LV_COLOR_MAKE(0x80,0x80,0x80)
  44:..\lvgl\lv_draw\../lv_core/../lv_misc/lv_color.h **** #define LV_COLOR_BLACK   LV_COLOR_MAKE(0x00,0x00,0x00)
  45:..\lvgl\lv_draw\../lv_core/../lv_misc/lv_color.h **** #define LV_COLOR_RED     LV_COLOR_MAKE(0xFF,0x00,0x00)
  46:..\lvgl\lv_draw\../lv_core/../lv_misc/lv_color.h **** #define LV_COLOR_MAROON  LV_COLOR_MAKE(0x80,0x00,0x00)
  47:..\lvgl\lv_draw\../lv_core/../lv_misc/lv_color.h **** #define LV_COLOR_YELLOW  LV_COLOR_MAKE(0xFF,0xFF,0x00)
ARM GAS  C:\Users\d3bug\AppData\Local\Temp\ccPpCIYA.s 			page 33


  48:..\lvgl\lv_draw\../lv_core/../lv_misc/lv_color.h **** #define LV_COLOR_OLIVE   LV_COLOR_MAKE(0x80,0x80,0x00)
  49:..\lvgl\lv_draw\../lv_core/../lv_misc/lv_color.h **** #define LV_COLOR_LIME    LV_COLOR_MAKE(0x00,0xFF,0x00)
  50:..\lvgl\lv_draw\../lv_core/../lv_misc/lv_color.h **** #define LV_COLOR_GREEN   LV_COLOR_MAKE(0x00,0x80,0x00)
  51:..\lvgl\lv_draw\../lv_core/../lv_misc/lv_color.h **** #define LV_COLOR_CYAN    LV_COLOR_MAKE(0x00,0xFF,0xFF)
  52:..\lvgl\lv_draw\../lv_core/../lv_misc/lv_color.h **** #define LV_COLOR_AQUA    LV_COLOR_CYAN
  53:..\lvgl\lv_draw\../lv_core/../lv_misc/lv_color.h **** #define LV_COLOR_TEAL    LV_COLOR_MAKE(0x00,0x80,0x80)
  54:..\lvgl\lv_draw\../lv_core/../lv_misc/lv_color.h **** #define LV_COLOR_BLUE    LV_COLOR_MAKE(0x00,0x00,0xFF)
  55:..\lvgl\lv_draw\../lv_core/../lv_misc/lv_color.h **** #define LV_COLOR_NAVY    LV_COLOR_MAKE(0x00,0x00,0x80)
  56:..\lvgl\lv_draw\../lv_core/../lv_misc/lv_color.h **** #define LV_COLOR_MAGENTA LV_COLOR_MAKE(0xFF,0x00,0xFF)
  57:..\lvgl\lv_draw\../lv_core/../lv_misc/lv_color.h **** #define LV_COLOR_PURPLE  LV_COLOR_MAKE(0x80,0x00,0x80)
  58:..\lvgl\lv_draw\../lv_core/../lv_misc/lv_color.h **** #define LV_COLOR_ORANGE  LV_COLOR_MAKE(0xFF,0xA5,0x00)
  59:..\lvgl\lv_draw\../lv_core/../lv_misc/lv_color.h **** 
  60:..\lvgl\lv_draw\../lv_core/../lv_misc/lv_color.h **** enum {
  61:..\lvgl\lv_draw\../lv_core/../lv_misc/lv_color.h ****     LV_OPA_TRANSP =  0,
  62:..\lvgl\lv_draw\../lv_core/../lv_misc/lv_color.h ****     LV_OPA_0      =  0,
  63:..\lvgl\lv_draw\../lv_core/../lv_misc/lv_color.h ****     LV_OPA_10     =  25,
  64:..\lvgl\lv_draw\../lv_core/../lv_misc/lv_color.h ****     LV_OPA_20     =  51,
  65:..\lvgl\lv_draw\../lv_core/../lv_misc/lv_color.h ****     LV_OPA_30     =  76,
  66:..\lvgl\lv_draw\../lv_core/../lv_misc/lv_color.h ****     LV_OPA_40     =  102,
  67:..\lvgl\lv_draw\../lv_core/../lv_misc/lv_color.h ****     LV_OPA_50     =  127,
  68:..\lvgl\lv_draw\../lv_core/../lv_misc/lv_color.h ****     LV_OPA_60     =  153,
  69:..\lvgl\lv_draw\../lv_core/../lv_misc/lv_color.h ****     LV_OPA_70     =  178,
  70:..\lvgl\lv_draw\../lv_core/../lv_misc/lv_color.h ****     LV_OPA_80     =  204,
  71:..\lvgl\lv_draw\../lv_core/../lv_misc/lv_color.h ****     LV_OPA_90     =  229,
  72:..\lvgl\lv_draw\../lv_core/../lv_misc/lv_color.h ****     LV_OPA_100    =  255,
  73:..\lvgl\lv_draw\../lv_core/../lv_misc/lv_color.h ****     LV_OPA_COVER  =  255,
  74:..\lvgl\lv_draw\../lv_core/../lv_misc/lv_color.h **** };
  75:..\lvgl\lv_draw\../lv_core/../lv_misc/lv_color.h **** 
  76:..\lvgl\lv_draw\../lv_core/../lv_misc/lv_color.h **** #define LV_OPA_MIN      16      /*Opacities below this will be transparent*/
  77:..\lvgl\lv_draw\../lv_core/../lv_misc/lv_color.h **** #define LV_OPA_MAX      251     /*Opacities above this will fully cover*/
  78:..\lvgl\lv_draw\../lv_core/../lv_misc/lv_color.h **** 
  79:..\lvgl\lv_draw\../lv_core/../lv_misc/lv_color.h **** #if LV_COLOR_DEPTH == 1
  80:..\lvgl\lv_draw\../lv_core/../lv_misc/lv_color.h **** #define LV_COLOR_SIZE           8
  81:..\lvgl\lv_draw\../lv_core/../lv_misc/lv_color.h **** #elif LV_COLOR_DEPTH == 8
  82:..\lvgl\lv_draw\../lv_core/../lv_misc/lv_color.h **** #define LV_COLOR_SIZE           8
  83:..\lvgl\lv_draw\../lv_core/../lv_misc/lv_color.h **** #elif LV_COLOR_DEPTH == 16
  84:..\lvgl\lv_draw\../lv_core/../lv_misc/lv_color.h **** #define LV_COLOR_SIZE           16
  85:..\lvgl\lv_draw\../lv_core/../lv_misc/lv_color.h **** #elif LV_COLOR_DEPTH == 32
  86:..\lvgl\lv_draw\../lv_core/../lv_misc/lv_color.h **** #define LV_COLOR_SIZE           32
  87:..\lvgl\lv_draw\../lv_core/../lv_misc/lv_color.h **** #else
  88:..\lvgl\lv_draw\../lv_core/../lv_misc/lv_color.h **** #error "Invalid LV_COLOR_DEPTH in lv_conf.h! Set it to 1, 8, 16 or 32!"
  89:..\lvgl\lv_draw\../lv_core/../lv_misc/lv_color.h **** #endif
  90:..\lvgl\lv_draw\../lv_core/../lv_misc/lv_color.h **** 
  91:..\lvgl\lv_draw\../lv_core/../lv_misc/lv_color.h **** /**********************
  92:..\lvgl\lv_draw\../lv_core/../lv_misc/lv_color.h ****  *      TYPEDEFS
  93:..\lvgl\lv_draw\../lv_core/../lv_misc/lv_color.h ****  **********************/
  94:..\lvgl\lv_draw\../lv_core/../lv_misc/lv_color.h **** 
  95:..\lvgl\lv_draw\../lv_core/../lv_misc/lv_color.h **** typedef union
  96:..\lvgl\lv_draw\../lv_core/../lv_misc/lv_color.h **** {
  97:..\lvgl\lv_draw\../lv_core/../lv_misc/lv_color.h ****     uint8_t blue  :1;
  98:..\lvgl\lv_draw\../lv_core/../lv_misc/lv_color.h ****     uint8_t green :1;
  99:..\lvgl\lv_draw\../lv_core/../lv_misc/lv_color.h ****     uint8_t red   :1;
 100:..\lvgl\lv_draw\../lv_core/../lv_misc/lv_color.h ****     uint8_t full  :1;
 101:..\lvgl\lv_draw\../lv_core/../lv_misc/lv_color.h **** } lv_color1_t;
 102:..\lvgl\lv_draw\../lv_core/../lv_misc/lv_color.h **** 
 103:..\lvgl\lv_draw\../lv_core/../lv_misc/lv_color.h **** typedef union
 104:..\lvgl\lv_draw\../lv_core/../lv_misc/lv_color.h **** {
ARM GAS  C:\Users\d3bug\AppData\Local\Temp\ccPpCIYA.s 			page 34


 105:..\lvgl\lv_draw\../lv_core/../lv_misc/lv_color.h ****     struct
 106:..\lvgl\lv_draw\../lv_core/../lv_misc/lv_color.h ****     {
 107:..\lvgl\lv_draw\../lv_core/../lv_misc/lv_color.h ****         uint8_t blue  :2;
 108:..\lvgl\lv_draw\../lv_core/../lv_misc/lv_color.h ****         uint8_t green :3;
 109:..\lvgl\lv_draw\../lv_core/../lv_misc/lv_color.h ****         uint8_t red   :3;
 110:..\lvgl\lv_draw\../lv_core/../lv_misc/lv_color.h ****     };
 111:..\lvgl\lv_draw\../lv_core/../lv_misc/lv_color.h ****     uint8_t full;
 112:..\lvgl\lv_draw\../lv_core/../lv_misc/lv_color.h **** } lv_color8_t;
 113:..\lvgl\lv_draw\../lv_core/../lv_misc/lv_color.h **** 
 114:..\lvgl\lv_draw\../lv_core/../lv_misc/lv_color.h **** typedef union
 115:..\lvgl\lv_draw\../lv_core/../lv_misc/lv_color.h **** {
 116:..\lvgl\lv_draw\../lv_core/../lv_misc/lv_color.h ****     struct
 117:..\lvgl\lv_draw\../lv_core/../lv_misc/lv_color.h ****     {
 118:..\lvgl\lv_draw\../lv_core/../lv_misc/lv_color.h **** #if LV_COLOR_16_SWAP == 0
 119:..\lvgl\lv_draw\../lv_core/../lv_misc/lv_color.h ****         uint16_t blue  :5;
 120:..\lvgl\lv_draw\../lv_core/../lv_misc/lv_color.h ****         uint16_t green :6;
 121:..\lvgl\lv_draw\../lv_core/../lv_misc/lv_color.h ****         uint16_t red   :5;
 122:..\lvgl\lv_draw\../lv_core/../lv_misc/lv_color.h **** #else
 123:..\lvgl\lv_draw\../lv_core/../lv_misc/lv_color.h ****         uint16_t green_h :3;
 124:..\lvgl\lv_draw\../lv_core/../lv_misc/lv_color.h ****         uint16_t red   :5;
 125:..\lvgl\lv_draw\../lv_core/../lv_misc/lv_color.h ****         uint16_t blue  :5;
 126:..\lvgl\lv_draw\../lv_core/../lv_misc/lv_color.h ****         uint16_t green_l :3;
 127:..\lvgl\lv_draw\../lv_core/../lv_misc/lv_color.h **** #endif
 128:..\lvgl\lv_draw\../lv_core/../lv_misc/lv_color.h ****     };
 129:..\lvgl\lv_draw\../lv_core/../lv_misc/lv_color.h ****     uint16_t full;
 130:..\lvgl\lv_draw\../lv_core/../lv_misc/lv_color.h **** } lv_color16_t;
 131:..\lvgl\lv_draw\../lv_core/../lv_misc/lv_color.h **** 
 132:..\lvgl\lv_draw\../lv_core/../lv_misc/lv_color.h **** typedef union
 133:..\lvgl\lv_draw\../lv_core/../lv_misc/lv_color.h **** {
 134:..\lvgl\lv_draw\../lv_core/../lv_misc/lv_color.h ****     struct
 135:..\lvgl\lv_draw\../lv_core/../lv_misc/lv_color.h ****     {
 136:..\lvgl\lv_draw\../lv_core/../lv_misc/lv_color.h ****         uint8_t blue;
 137:..\lvgl\lv_draw\../lv_core/../lv_misc/lv_color.h ****         uint8_t green;
 138:..\lvgl\lv_draw\../lv_core/../lv_misc/lv_color.h ****         uint8_t red;
 139:..\lvgl\lv_draw\../lv_core/../lv_misc/lv_color.h ****         uint8_t alpha;
 140:..\lvgl\lv_draw\../lv_core/../lv_misc/lv_color.h ****     };
 141:..\lvgl\lv_draw\../lv_core/../lv_misc/lv_color.h ****     uint32_t full;
 142:..\lvgl\lv_draw\../lv_core/../lv_misc/lv_color.h **** } lv_color32_t;
 143:..\lvgl\lv_draw\../lv_core/../lv_misc/lv_color.h **** 
 144:..\lvgl\lv_draw\../lv_core/../lv_misc/lv_color.h **** #if LV_COLOR_DEPTH == 1
 145:..\lvgl\lv_draw\../lv_core/../lv_misc/lv_color.h **** typedef uint8_t lv_color_int_t;
 146:..\lvgl\lv_draw\../lv_core/../lv_misc/lv_color.h **** typedef lv_color1_t lv_color_t;
 147:..\lvgl\lv_draw\../lv_core/../lv_misc/lv_color.h **** #elif LV_COLOR_DEPTH == 8
 148:..\lvgl\lv_draw\../lv_core/../lv_misc/lv_color.h **** typedef uint8_t lv_color_int_t;
 149:..\lvgl\lv_draw\../lv_core/../lv_misc/lv_color.h **** typedef lv_color8_t lv_color_t;
 150:..\lvgl\lv_draw\../lv_core/../lv_misc/lv_color.h **** #elif LV_COLOR_DEPTH == 16
 151:..\lvgl\lv_draw\../lv_core/../lv_misc/lv_color.h **** typedef uint16_t lv_color_int_t;
 152:..\lvgl\lv_draw\../lv_core/../lv_misc/lv_color.h **** typedef lv_color16_t lv_color_t;
 153:..\lvgl\lv_draw\../lv_core/../lv_misc/lv_color.h **** #elif LV_COLOR_DEPTH == 32
 154:..\lvgl\lv_draw\../lv_core/../lv_misc/lv_color.h **** typedef uint32_t lv_color_int_t;
 155:..\lvgl\lv_draw\../lv_core/../lv_misc/lv_color.h **** typedef lv_color32_t lv_color_t;
 156:..\lvgl\lv_draw\../lv_core/../lv_misc/lv_color.h **** #else
 157:..\lvgl\lv_draw\../lv_core/../lv_misc/lv_color.h **** #error "Invalid LV_COLOR_DEPTH in lv_conf.h! Set it to 1, 8, 16 or 32!"
 158:..\lvgl\lv_draw\../lv_core/../lv_misc/lv_color.h **** #endif
 159:..\lvgl\lv_draw\../lv_core/../lv_misc/lv_color.h **** 
 160:..\lvgl\lv_draw\../lv_core/../lv_misc/lv_color.h **** typedef uint8_t lv_opa_t;
 161:..\lvgl\lv_draw\../lv_core/../lv_misc/lv_color.h **** 
ARM GAS  C:\Users\d3bug\AppData\Local\Temp\ccPpCIYA.s 			page 35


 162:..\lvgl\lv_draw\../lv_core/../lv_misc/lv_color.h **** typedef struct
 163:..\lvgl\lv_draw\../lv_core/../lv_misc/lv_color.h **** {
 164:..\lvgl\lv_draw\../lv_core/../lv_misc/lv_color.h ****     uint16_t h;
 165:..\lvgl\lv_draw\../lv_core/../lv_misc/lv_color.h ****     uint8_t s;
 166:..\lvgl\lv_draw\../lv_core/../lv_misc/lv_color.h ****     uint8_t v;
 167:..\lvgl\lv_draw\../lv_core/../lv_misc/lv_color.h **** } lv_color_hsv_t;
 168:..\lvgl\lv_draw\../lv_core/../lv_misc/lv_color.h **** 
 169:..\lvgl\lv_draw\../lv_core/../lv_misc/lv_color.h **** /**********************
 170:..\lvgl\lv_draw\../lv_core/../lv_misc/lv_color.h ****  * GLOBAL PROTOTYPES
 171:..\lvgl\lv_draw\../lv_core/../lv_misc/lv_color.h ****  **********************/
 172:..\lvgl\lv_draw\../lv_core/../lv_misc/lv_color.h **** 
 173:..\lvgl\lv_draw\../lv_core/../lv_misc/lv_color.h **** /*In color conversations:
 174:..\lvgl\lv_draw\../lv_core/../lv_misc/lv_color.h ****  * - When converting to bigger color type the LSB weight of 1 LSB is calculated
 175:..\lvgl\lv_draw\../lv_core/../lv_misc/lv_color.h ****  *   E.g. 16 bit Red has 5 bits
 176:..\lvgl\lv_draw\../lv_core/../lv_misc/lv_color.h ****  *         8 bit Red has 2 bits
 177:..\lvgl\lv_draw\../lv_core/../lv_misc/lv_color.h ****  *        ----------------------
 178:..\lvgl\lv_draw\../lv_core/../lv_misc/lv_color.h ****  *        8 bit red LSB = (2^5 - 1) / (2^2 - 1) = 31 / 3 = 10
 179:..\lvgl\lv_draw\../lv_core/../lv_misc/lv_color.h ****  *
 180:..\lvgl\lv_draw\../lv_core/../lv_misc/lv_color.h ****  * - When calculating to smaller color type simply shift out the LSBs
 181:..\lvgl\lv_draw\../lv_core/../lv_misc/lv_color.h ****  *   E.g.  8 bit Red has 2 bits
 182:..\lvgl\lv_draw\../lv_core/../lv_misc/lv_color.h ****  *        16 bit Red has 5 bits
 183:..\lvgl\lv_draw\../lv_core/../lv_misc/lv_color.h ****  *        ----------------------
 184:..\lvgl\lv_draw\../lv_core/../lv_misc/lv_color.h ****  *         Shift right with 5 - 3 = 2
 185:..\lvgl\lv_draw\../lv_core/../lv_misc/lv_color.h ****  */
 186:..\lvgl\lv_draw\../lv_core/../lv_misc/lv_color.h **** 
 187:..\lvgl\lv_draw\../lv_core/../lv_misc/lv_color.h **** static inline uint8_t lv_color_to1(lv_color_t color)
 188:..\lvgl\lv_draw\../lv_core/../lv_misc/lv_color.h **** {
 189:..\lvgl\lv_draw\../lv_core/../lv_misc/lv_color.h **** #if LV_COLOR_DEPTH == 1
 190:..\lvgl\lv_draw\../lv_core/../lv_misc/lv_color.h ****     return color.full;
 191:..\lvgl\lv_draw\../lv_core/../lv_misc/lv_color.h **** #elif LV_COLOR_DEPTH == 8
 192:..\lvgl\lv_draw\../lv_core/../lv_misc/lv_color.h ****     if((color.red   & 0x4) ||
 193:..\lvgl\lv_draw\../lv_core/../lv_misc/lv_color.h ****             (color.green & 0x4) ||
 194:..\lvgl\lv_draw\../lv_core/../lv_misc/lv_color.h ****             (color.blue  & 0x2)) {
 195:..\lvgl\lv_draw\../lv_core/../lv_misc/lv_color.h ****         return 1;
 196:..\lvgl\lv_draw\../lv_core/../lv_misc/lv_color.h ****     } else {
 197:..\lvgl\lv_draw\../lv_core/../lv_misc/lv_color.h ****         return 0;
 198:..\lvgl\lv_draw\../lv_core/../lv_misc/lv_color.h ****     }
 199:..\lvgl\lv_draw\../lv_core/../lv_misc/lv_color.h **** #elif LV_COLOR_DEPTH == 16
 200:..\lvgl\lv_draw\../lv_core/../lv_misc/lv_color.h **** #  if LV_COLOR_16_SWAP == 0
 201:..\lvgl\lv_draw\../lv_core/../lv_misc/lv_color.h ****     if((color.red   & 0x10) ||
 202:..\lvgl\lv_draw\../lv_core/../lv_misc/lv_color.h ****             (color.green & 0x20) ||
 203:..\lvgl\lv_draw\../lv_core/../lv_misc/lv_color.h ****             (color.blue  & 0x10)) {
 204:..\lvgl\lv_draw\../lv_core/../lv_misc/lv_color.h ****         return 1;
 205:..\lvgl\lv_draw\../lv_core/../lv_misc/lv_color.h **** #  else
 206:..\lvgl\lv_draw\../lv_core/../lv_misc/lv_color.h ****     if((color.red   & 0x10) ||
 207:..\lvgl\lv_draw\../lv_core/../lv_misc/lv_color.h ****             (color.green_h & 0x20) ||
 208:..\lvgl\lv_draw\../lv_core/../lv_misc/lv_color.h ****             (color.blue  & 0x10)) {
 209:..\lvgl\lv_draw\../lv_core/../lv_misc/lv_color.h ****         return 1;
 210:..\lvgl\lv_draw\../lv_core/../lv_misc/lv_color.h **** #  endif
 211:..\lvgl\lv_draw\../lv_core/../lv_misc/lv_color.h ****     } else {
 212:..\lvgl\lv_draw\../lv_core/../lv_misc/lv_color.h ****         return 0;
 213:..\lvgl\lv_draw\../lv_core/../lv_misc/lv_color.h ****     }
 214:..\lvgl\lv_draw\../lv_core/../lv_misc/lv_color.h **** #elif LV_COLOR_DEPTH == 32
 215:..\lvgl\lv_draw\../lv_core/../lv_misc/lv_color.h ****     if((color.red   & 0x80) ||
 216:..\lvgl\lv_draw\../lv_core/../lv_misc/lv_color.h ****             (color.green & 0x80) ||
 217:..\lvgl\lv_draw\../lv_core/../lv_misc/lv_color.h ****             (color.blue  & 0x80)) {
 218:..\lvgl\lv_draw\../lv_core/../lv_misc/lv_color.h ****         return 1;
ARM GAS  C:\Users\d3bug\AppData\Local\Temp\ccPpCIYA.s 			page 36


 219:..\lvgl\lv_draw\../lv_core/../lv_misc/lv_color.h ****     } else {
 220:..\lvgl\lv_draw\../lv_core/../lv_misc/lv_color.h ****         return 0;
 221:..\lvgl\lv_draw\../lv_core/../lv_misc/lv_color.h ****     }
 222:..\lvgl\lv_draw\../lv_core/../lv_misc/lv_color.h **** #endif
 223:..\lvgl\lv_draw\../lv_core/../lv_misc/lv_color.h **** }
 224:..\lvgl\lv_draw\../lv_core/../lv_misc/lv_color.h **** 
 225:..\lvgl\lv_draw\../lv_core/../lv_misc/lv_color.h **** static inline uint8_t lv_color_to8(lv_color_t color)
 226:..\lvgl\lv_draw\../lv_core/../lv_misc/lv_color.h **** {
 227:..\lvgl\lv_draw\../lv_core/../lv_misc/lv_color.h **** #if LV_COLOR_DEPTH == 1
 228:..\lvgl\lv_draw\../lv_core/../lv_misc/lv_color.h ****     if(color.full == 0) return 0;
 229:..\lvgl\lv_draw\../lv_core/../lv_misc/lv_color.h ****     else return 0xFF;
 230:..\lvgl\lv_draw\../lv_core/../lv_misc/lv_color.h **** #elif LV_COLOR_DEPTH == 8
 231:..\lvgl\lv_draw\../lv_core/../lv_misc/lv_color.h ****     return color.full;
 232:..\lvgl\lv_draw\../lv_core/../lv_misc/lv_color.h **** #elif LV_COLOR_DEPTH == 16
 233:..\lvgl\lv_draw\../lv_core/../lv_misc/lv_color.h **** 
 234:..\lvgl\lv_draw\../lv_core/../lv_misc/lv_color.h **** #  if LV_COLOR_16_SWAP == 0
 235:..\lvgl\lv_draw\../lv_core/../lv_misc/lv_color.h ****     lv_color8_t ret;
 236:..\lvgl\lv_draw\../lv_core/../lv_misc/lv_color.h ****     ret.red = color.red >> 2;       /* 5 - 3  = 2*/
 237:..\lvgl\lv_draw\../lv_core/../lv_misc/lv_color.h ****     ret.green = color.green >> 3;   /* 6 - 3  = 3*/
 238:..\lvgl\lv_draw\../lv_core/../lv_misc/lv_color.h ****     ret.blue = color.blue >> 3;     /* 5 - 2  = 3*/
 239:..\lvgl\lv_draw\../lv_core/../lv_misc/lv_color.h ****     return ret.full;
 240:..\lvgl\lv_draw\../lv_core/../lv_misc/lv_color.h **** #  else
 241:..\lvgl\lv_draw\../lv_core/../lv_misc/lv_color.h ****     lv_color8_t ret;
 242:..\lvgl\lv_draw\../lv_core/../lv_misc/lv_color.h ****     ret.red = color.red >> 2;       /* 5 - 3  = 2*/
 243:..\lvgl\lv_draw\../lv_core/../lv_misc/lv_color.h ****     ret.green = color.green_h;      /* 6 - 3  = 3*/
 244:..\lvgl\lv_draw\../lv_core/../lv_misc/lv_color.h ****     ret.blue = color.blue >> 3;     /* 5 - 2  = 3*/
 245:..\lvgl\lv_draw\../lv_core/../lv_misc/lv_color.h ****     return ret.full;
 246:..\lvgl\lv_draw\../lv_core/../lv_misc/lv_color.h **** #  endif
 247:..\lvgl\lv_draw\../lv_core/../lv_misc/lv_color.h **** #elif LV_COLOR_DEPTH == 32
 248:..\lvgl\lv_draw\../lv_core/../lv_misc/lv_color.h ****     lv_color8_t ret;
 249:..\lvgl\lv_draw\../lv_core/../lv_misc/lv_color.h ****     ret.red = color.red >> 5;       /* 8 - 3  = 5*/
 250:..\lvgl\lv_draw\../lv_core/../lv_misc/lv_color.h ****     ret.green = color.green >> 5;   /* 8 - 3  = 5*/
 251:..\lvgl\lv_draw\../lv_core/../lv_misc/lv_color.h ****     ret.blue = color.blue >> 6;     /* 8 - 2  = 6*/
 252:..\lvgl\lv_draw\../lv_core/../lv_misc/lv_color.h ****     return ret.full;
 253:..\lvgl\lv_draw\../lv_core/../lv_misc/lv_color.h **** #endif
 254:..\lvgl\lv_draw\../lv_core/../lv_misc/lv_color.h **** }
 255:..\lvgl\lv_draw\../lv_core/../lv_misc/lv_color.h **** 
 256:..\lvgl\lv_draw\../lv_core/../lv_misc/lv_color.h **** static inline uint16_t lv_color_to16(lv_color_t color)
 257:..\lvgl\lv_draw\../lv_core/../lv_misc/lv_color.h **** {
 258:..\lvgl\lv_draw\../lv_core/../lv_misc/lv_color.h **** #if LV_COLOR_DEPTH == 1
 259:..\lvgl\lv_draw\../lv_core/../lv_misc/lv_color.h ****     if(color.full == 0) return 0;
 260:..\lvgl\lv_draw\../lv_core/../lv_misc/lv_color.h ****     else return 0xFFFF;
 261:..\lvgl\lv_draw\../lv_core/../lv_misc/lv_color.h **** #elif LV_COLOR_DEPTH == 8
 262:..\lvgl\lv_draw\../lv_core/../lv_misc/lv_color.h ****     lv_color16_t ret;
 263:..\lvgl\lv_draw\../lv_core/../lv_misc/lv_color.h **** #  if LV_COLOR_16_SWAP == 0
 264:..\lvgl\lv_draw\../lv_core/../lv_misc/lv_color.h ****     ret.red = color.red * 4;       /*(2^5 - 1)/(2^3 - 1) = 31/7 = 4*/
 265:..\lvgl\lv_draw\../lv_core/../lv_misc/lv_color.h ****     ret.green = color.green * 9;   /*(2^6 - 1)/(2^3 - 1) = 63/7 = 9*/
 266:..\lvgl\lv_draw\../lv_core/../lv_misc/lv_color.h ****     ret.blue = color.blue * 10;    /*(2^5 - 1)/(2^2 - 1) = 31/3 = 10*/
 267:..\lvgl\lv_draw\../lv_core/../lv_misc/lv_color.h **** #  else
 268:..\lvgl\lv_draw\../lv_core/../lv_misc/lv_color.h ****     ret.red = color.red * 4;
 269:..\lvgl\lv_draw\../lv_core/../lv_misc/lv_color.h ****     uint8_t g_tmp = color.green * 9;
 270:..\lvgl\lv_draw\../lv_core/../lv_misc/lv_color.h ****     ret.green_h = (g_tmp & 0x1F) >> 3;
 271:..\lvgl\lv_draw\../lv_core/../lv_misc/lv_color.h ****     ret.green_l = g_tmp & 0x07;
 272:..\lvgl\lv_draw\../lv_core/../lv_misc/lv_color.h ****     ret.blue = color.blue * 10;
 273:..\lvgl\lv_draw\../lv_core/../lv_misc/lv_color.h **** #  endif
 274:..\lvgl\lv_draw\../lv_core/../lv_misc/lv_color.h ****     return ret.full;
 275:..\lvgl\lv_draw\../lv_core/../lv_misc/lv_color.h **** #elif LV_COLOR_DEPTH == 16
ARM GAS  C:\Users\d3bug\AppData\Local\Temp\ccPpCIYA.s 			page 37


 276:..\lvgl\lv_draw\../lv_core/../lv_misc/lv_color.h ****     return color.full;
 277:..\lvgl\lv_draw\../lv_core/../lv_misc/lv_color.h **** #elif LV_COLOR_DEPTH == 32
 278:..\lvgl\lv_draw\../lv_core/../lv_misc/lv_color.h ****     lv_color16_t ret;
 279:..\lvgl\lv_draw\../lv_core/../lv_misc/lv_color.h **** #  if LV_COLOR_16_SWAP == 0
 280:..\lvgl\lv_draw\../lv_core/../lv_misc/lv_color.h ****     ret.red = color.red >> 3;       /* 8 - 5  = 3*/
 281:..\lvgl\lv_draw\../lv_core/../lv_misc/lv_color.h ****     ret.green = color.green >> 2;   /* 8 - 6  = 2*/
 282:..\lvgl\lv_draw\../lv_core/../lv_misc/lv_color.h ****     ret.blue = color.blue >> 3;     /* 8 - 5  = 3*/
 283:..\lvgl\lv_draw\../lv_core/../lv_misc/lv_color.h **** #  else
 284:..\lvgl\lv_draw\../lv_core/../lv_misc/lv_color.h ****     ret.red = color.red >> 3;
 285:..\lvgl\lv_draw\../lv_core/../lv_misc/lv_color.h ****     ret.green_h = (color.green & 0xE0) >> 5;
 286:..\lvgl\lv_draw\../lv_core/../lv_misc/lv_color.h ****     ret.green_l = (color.green & 0x1C) >> 2;
 287:..\lvgl\lv_draw\../lv_core/../lv_misc/lv_color.h ****     ret.blue = color.blue >> 3;
 288:..\lvgl\lv_draw\../lv_core/../lv_misc/lv_color.h **** #  endif
 289:..\lvgl\lv_draw\../lv_core/../lv_misc/lv_color.h ****     return ret.full;
 290:..\lvgl\lv_draw\../lv_core/../lv_misc/lv_color.h **** #endif
 291:..\lvgl\lv_draw\../lv_core/../lv_misc/lv_color.h **** }
 292:..\lvgl\lv_draw\../lv_core/../lv_misc/lv_color.h **** 
 293:..\lvgl\lv_draw\../lv_core/../lv_misc/lv_color.h **** static inline uint32_t lv_color_to32(lv_color_t color)
 294:..\lvgl\lv_draw\../lv_core/../lv_misc/lv_color.h **** {
 295:..\lvgl\lv_draw\../lv_core/../lv_misc/lv_color.h **** #if LV_COLOR_DEPTH == 1
 296:..\lvgl\lv_draw\../lv_core/../lv_misc/lv_color.h ****     if(color.full == 0) return 0;
 297:..\lvgl\lv_draw\../lv_core/../lv_misc/lv_color.h ****     else return 0xFFFFFFFF;
 298:..\lvgl\lv_draw\../lv_core/../lv_misc/lv_color.h **** #elif LV_COLOR_DEPTH == 8
 299:..\lvgl\lv_draw\../lv_core/../lv_misc/lv_color.h ****     lv_color32_t ret;
 300:..\lvgl\lv_draw\../lv_core/../lv_misc/lv_color.h ****     ret.red = color.red * 36;        /*(2^8 - 1)/(2^3 - 1) = 255/7 = 36*/
 301:..\lvgl\lv_draw\../lv_core/../lv_misc/lv_color.h ****     ret.green = color.green * 36;    /*(2^8 - 1)/(2^3 - 1) = 255/7 = 36*/
 302:..\lvgl\lv_draw\../lv_core/../lv_misc/lv_color.h ****     ret.blue = color.blue * 85;      /*(2^8 - 1)/(2^2 - 1) = 255/3 = 85*/
 303:..\lvgl\lv_draw\../lv_core/../lv_misc/lv_color.h ****     ret.alpha = 0xFF;
 304:..\lvgl\lv_draw\../lv_core/../lv_misc/lv_color.h ****     return ret.full;
 305:..\lvgl\lv_draw\../lv_core/../lv_misc/lv_color.h **** #elif LV_COLOR_DEPTH == 16
 306:..\lvgl\lv_draw\../lv_core/../lv_misc/lv_color.h **** #  if LV_COLOR_16_SWAP == 0
 307:..\lvgl\lv_draw\../lv_core/../lv_misc/lv_color.h ****     lv_color32_t ret;
 308:..\lvgl\lv_draw\../lv_core/../lv_misc/lv_color.h ****     ret.red = color.red * 8;       /*(2^8 - 1)/(2^5 - 1) = 255/31 = 8*/
 309:..\lvgl\lv_draw\../lv_core/../lv_misc/lv_color.h ****     ret.green = color.green * 4;   /*(2^8 - 1)/(2^6 - 1) = 255/63 = 4*/
 310:..\lvgl\lv_draw\../lv_core/../lv_misc/lv_color.h ****     ret.blue = color.blue * 8;     /*(2^8 - 1)/(2^5 - 1) = 255/31 = 8*/
 311:..\lvgl\lv_draw\../lv_core/../lv_misc/lv_color.h ****     ret.alpha = 0xFF;
 312:..\lvgl\lv_draw\../lv_core/../lv_misc/lv_color.h ****     return ret.full;
 313:..\lvgl\lv_draw\../lv_core/../lv_misc/lv_color.h **** #  else
 314:..\lvgl\lv_draw\../lv_core/../lv_misc/lv_color.h ****     lv_color32_t ret;
 315:..\lvgl\lv_draw\../lv_core/../lv_misc/lv_color.h ****     ret.red = color.red * 8;                                    /*(2^8 - 1)/(2^5 - 1) = 255/31 = 8*
 316:..\lvgl\lv_draw\../lv_core/../lv_misc/lv_color.h ****     ret.green = ((color.green_h << 3) + color.green_l) * 4;     /*(2^8 - 1)/(2^6 - 1) = 255/63 = 4*
 317:..\lvgl\lv_draw\../lv_core/../lv_misc/lv_color.h ****     ret.blue = color.blue * 8;                                   /*(2^8 - 1)/(2^5 - 1) = 255/31 = 8
 318:..\lvgl\lv_draw\../lv_core/../lv_misc/lv_color.h ****     ret.alpha = 0xFF;
 319:..\lvgl\lv_draw\../lv_core/../lv_misc/lv_color.h ****     return ret.full;
 320:..\lvgl\lv_draw\../lv_core/../lv_misc/lv_color.h **** #  endif
 321:..\lvgl\lv_draw\../lv_core/../lv_misc/lv_color.h **** #elif LV_COLOR_DEPTH == 32
 322:..\lvgl\lv_draw\../lv_core/../lv_misc/lv_color.h ****     return color.full;
 323:..\lvgl\lv_draw\../lv_core/../lv_misc/lv_color.h **** #endif
 324:..\lvgl\lv_draw\../lv_core/../lv_misc/lv_color.h **** }
 325:..\lvgl\lv_draw\../lv_core/../lv_misc/lv_color.h **** 
 326:..\lvgl\lv_draw\../lv_core/../lv_misc/lv_color.h **** static inline lv_color_t lv_color_mix(lv_color_t c1, lv_color_t c2, uint8_t mix)
 327:..\lvgl\lv_draw\../lv_core/../lv_misc/lv_color.h **** {
 328:..\lvgl\lv_draw\../lv_core/../lv_misc/lv_color.h ****     lv_color_t ret;
 329:..\lvgl\lv_draw\../lv_core/../lv_misc/lv_color.h **** #if LV_COLOR_DEPTH != 1
 330:..\lvgl\lv_draw\../lv_core/../lv_misc/lv_color.h ****     /*LV_COLOR_DEPTH == 8, 16 or 32*/
 331:..\lvgl\lv_draw\../lv_core/../lv_misc/lv_color.h ****     ret.red =   (uint16_t)((uint16_t) c1.red * mix + (c2.red * (255 - mix))) >> 8;
 332:..\lvgl\lv_draw\../lv_core/../lv_misc/lv_color.h **** #  if LV_COLOR_DEPTH == 16 && LV_COLOR_16_SWAP
ARM GAS  C:\Users\d3bug\AppData\Local\Temp\ccPpCIYA.s 			page 38


 333:..\lvgl\lv_draw\../lv_core/../lv_misc/lv_color.h ****     /*If swapped Green is in 2 parts*/
 334:..\lvgl\lv_draw\../lv_core/../lv_misc/lv_color.h ****     uint16_t g_1 = (c1.green_h << 3) + c1.green_l;
 335:..\lvgl\lv_draw\../lv_core/../lv_misc/lv_color.h ****     uint16_t g_2 = (c2.green_h << 3) + c2.green_l;
 336:..\lvgl\lv_draw\../lv_core/../lv_misc/lv_color.h ****     uint16_t g_out = (uint16_t)((uint16_t) g_1 * mix + (g_2 * (255 - mix))) >> 8;
 337:..\lvgl\lv_draw\../lv_core/../lv_misc/lv_color.h ****     ret.green_h = g_out >> 3;
 338:..\lvgl\lv_draw\../lv_core/../lv_misc/lv_color.h ****     ret.green_l = g_out & 0x7;
 339:..\lvgl\lv_draw\../lv_core/../lv_misc/lv_color.h **** #  else
 340:..\lvgl\lv_draw\../lv_core/../lv_misc/lv_color.h ****     ret.green = (uint16_t)((uint16_t) c1.green * mix + (c2.green * (255 - mix))) >> 8;
 341:..\lvgl\lv_draw\../lv_core/../lv_misc/lv_color.h **** #  endif
 342:..\lvgl\lv_draw\../lv_core/../lv_misc/lv_color.h ****     ret.blue =  (uint16_t)((uint16_t) c1.blue * mix + (c2.blue * (255 - mix))) >> 8;
 343:..\lvgl\lv_draw\../lv_core/../lv_misc/lv_color.h **** # if LV_COLOR_DEPTH == 32
 344:..\lvgl\lv_draw\../lv_core/../lv_misc/lv_color.h ****     ret.alpha = 0xFF;
 345:..\lvgl\lv_draw\../lv_core/../lv_misc/lv_color.h **** # endif
 346:..\lvgl\lv_draw\../lv_core/../lv_misc/lv_color.h **** #else
 347:..\lvgl\lv_draw\../lv_core/../lv_misc/lv_color.h ****     /*LV_COLOR_DEPTH == 1*/
 348:..\lvgl\lv_draw\../lv_core/../lv_misc/lv_color.h ****     ret.full = mix > LV_OPA_50 ? c1.full : c2.full;
 255              		.loc 3 348 0 discriminator 3
 256 0100 13F0800F 		tst	r3, #128
 257 0104 03D0     		beq	.L15
 258              		.loc 3 348 0 is_stmt 0
 259 0106 029B     		ldr	r3, [sp, #8]
 260              	.LVL33:
 261 0108 03F00103 		and	r3, r3, #1
 262 010c 01E0     		b	.L16
 263              	.LVL34:
 264              	.L15:
 265 010e 09F00103 		and	r3, r9, #1
 266              	.LVL35:
 267              	.L16:
 268 0112 63F30008 		bfi	r8, r3, #0, #1
 269              	.LVL36:
 270              	.LBE79:
 271              	.LBE78:
 160:..\lvgl\lv_draw/lv_draw_rect.c ****         }
 272              		.loc 1 160 0 is_stmt 1
 273 0116 094B     		ldr	r3, .L22
 274 0118 1F68     		ldr	r7, [r3]
 275 011a 3346     		mov	r3, r6
 276 011c 4246     		mov	r2, r8
 277 011e 0099     		ldr	r1, [sp]
 278 0120 06A8     		add	r0, sp, #24
 279 0122 B847     		blx	r7
 280              	.LVL37:
 154:..\lvgl\lv_draw/lv_draw_rect.c ****             work_area.y1 = row;
 281              		.loc 1 154 0
 282 0124 0AF1010A 		add	r10, r10, #1
 283              	.LVL38:
 284 0128 0FFA8AFA 		sxth	r10, r10
 285              	.LVL39:
 286 012c 01E0     		b	.L14
 287              	.LVL40:
 288              	.L20:
 289 012e 9DF81790 		ldrb	r9, [sp, #23]	@ zero_extendqisi2
 290              	.LVL41:
 291              	.L14:
 154:..\lvgl\lv_draw/lv_draw_rect.c ****             work_area.y1 = row;
 292              		.loc 1 154 0 is_stmt 0 discriminator 1
ARM GAS  C:\Users\d3bug\AppData\Local\Temp\ccPpCIYA.s 			page 39


 293 0132 DA45     		cmp	r10, fp
 294 0134 D8DD     		ble	.L17
 295              	.LVL42:
 296              	.L5:
 297              	.LBE77:
 163:..\lvgl\lv_draw/lv_draw_rect.c **** /**
 298              		.loc 1 163 0 is_stmt 1
 299 0136 09B0     		add	sp, sp, #36
 300              		.cfi_def_cfa_offset 36
 301              	.LVL43:
 302              		@ sp needed
 303 0138 BDE8F08F 		pop	{r4, r5, r6, r7, r8, r9, r10, fp, pc}
 304              	.LVL44:
 305              	.L23:
 306              		.align	2
 307              	.L22:
 308 013c 00000000 		.word	fill_fp
 309              		.cfi_endproc
 310              	.LFE13:
 311              		.size	lv_draw_rect_main_mid, .-lv_draw_rect_main_mid
 312              		.section	.text.lv_draw_rect_border_straight,"ax",%progbits
 313              		.align	2
 314              		.thumb
 315              		.thumb_func
 316              		.type	lv_draw_rect_border_straight, %function
 317              	lv_draw_rect_border_straight:
 318              	.LFB15:
 468:..\lvgl\lv_draw/lv_draw_rect.c ****     uint16_t radius = style->body.radius;
 319              		.loc 1 468 0
 320              		.cfi_startproc
 321              		@ args = 0, pretend = 0, frame = 40
 322              		@ frame_needed = 0, uses_anonymous_args = 0
 323              	.LVL45:
 324 0000 2DE9F04F 		push	{r4, r5, r6, r7, r8, r9, r10, fp, lr}
 325              		.cfi_def_cfa_offset 36
 326              		.cfi_offset 4, -36
 327              		.cfi_offset 5, -32
 328              		.cfi_offset 6, -28
 329              		.cfi_offset 7, -24
 330              		.cfi_offset 8, -20
 331              		.cfi_offset 9, -16
 332              		.cfi_offset 10, -12
 333              		.cfi_offset 11, -8
 334              		.cfi_offset 14, -4
 335 0004 8BB0     		sub	sp, sp, #44
 336              		.cfi_def_cfa_offset 80
 337 0006 0446     		mov	r4, r0
 338 0008 0291     		str	r1, [sp, #8]
 339 000a 1746     		mov	r7, r2
 469:..\lvgl\lv_draw/lv_draw_rect.c **** 
 340              		.loc 1 469 0
 341 000c B2F90420 		ldrsh	r2, [r2, #4]
 342              	.LVL46:
 343 0010 0692     		str	r2, [sp, #24]
 344 0012 90B2     		uxth	r0, r2
 345              	.LVL47:
 346              	.LBB80:
ARM GAS  C:\Users\d3bug\AppData\Local\Temp\ccPpCIYA.s 			page 40


 347              	.LBB81:
  77:..\lvgl\lv_draw\../lv_core/../lv_misc/lv_area.h **** }
 348              		.loc 2 77 0
 349 0014 B4F904B0 		ldrsh	fp, [r4, #4]
 350 0018 B4F90020 		ldrsh	r2, [r4]
 351 001c 0792     		str	r2, [sp, #28]
 352 001e C2EB0B01 		rsb	r1, r2, fp
 353              	.LVL48:
 354 0022 0131     		adds	r1, r1, #1
 355 0024 09B2     		sxth	r1, r1
 356              	.LVL49:
 357              	.LBE81:
 358              	.LBE80:
 359              	.LBB82:
 360              	.LBB83:
 361              		.loc 2 87 0
 362 0026 B4F80690 		ldrh	r9, [r4, #6]
 363 002a B4F802A0 		ldrh	r10, [r4, #2]
 364 002e CAEB0902 		rsb	r2, r10, r9
 365 0032 0132     		adds	r2, r2, #1
 366 0034 12B2     		sxth	r2, r2
 367              	.LVL50:
 368              	.LBE83:
 369              	.LBE82:
 473:..\lvgl\lv_draw/lv_draw_rect.c ****     lv_opa_t opa = opa_scale == LV_OPA_COVER ? style->body.border.opa : (uint16_t)((uint16_t) style
 370              		.loc 1 473 0
 371 0036 7D89     		ldrh	r5, [r7, #10]
 372 0038 0495     		str	r5, [sp, #16]
 373              	.LVL51:
 474:..\lvgl\lv_draw/lv_draw_rect.c ****     lv_border_part_t part = style->body.border.part;
 374              		.loc 1 474 0
 375 003a FF2B     		cmp	r3, #255
 376 003c 02D1     		bne	.L25
 474:..\lvgl\lv_draw/lv_draw_rect.c ****     lv_border_part_t part = style->body.border.part;
 377              		.loc 1 474 0 is_stmt 0 discriminator 1
 378 003e 7B7B     		ldrb	r3, [r7, #13]	@ zero_extendqisi2
 379              	.LVL52:
 380 0040 0193     		str	r3, [sp, #4]
 381 0042 05E0     		b	.L26
 382              	.LVL53:
 383              	.L25:
 474:..\lvgl\lv_draw/lv_draw_rect.c ****     lv_border_part_t part = style->body.border.part;
 384              		.loc 1 474 0 discriminator 2
 385 0044 7D7B     		ldrb	r5, [r7, #13]	@ zero_extendqisi2
 386 0046 05FB03F3 		mul	r3, r5, r3
 387              	.LVL54:
 388 004a C3F30723 		ubfx	r3, r3, #8, #8
 389 004e 0193     		str	r3, [sp, #4]
 390              	.L26:
 391              	.LVL55:
 475:..\lvgl\lv_draw/lv_draw_rect.c ****     lv_color_t color = style->body.border.color;
 392              		.loc 1 475 0 is_stmt 1 discriminator 4
 393 0050 3D7B     		ldrb	r5, [r7, #12]	@ zero_extendqisi2
 394              	.LVL56:
 476:..\lvgl\lv_draw/lv_draw_rect.c ****     lv_area_t work_area;
 395              		.loc 1 476 0 discriminator 4
 396 0052 3B7A     		ldrb	r3, [r7, #8]	@ zero_extendqisi2
ARM GAS  C:\Users\d3bug\AppData\Local\Temp\ccPpCIYA.s 			page 41


 397 0054 0393     		str	r3, [sp, #12]
 398              	.LVL57:
 482:..\lvgl\lv_draw/lv_draw_rect.c **** 
 399              		.loc 1 482 0 discriminator 4
 400 0056 049B     		ldr	r3, [sp, #16]
 401 0058 5E1E     		subs	r6, r3, #1
 402 005a B6B2     		uxth	r6, r6
 403              	.LVL58:
 484:..\lvgl\lv_draw/lv_draw_rect.c **** 
 404              		.loc 1 484 0 discriminator 4
 405 005c FFF7FEFF 		bl	lv_draw_cont_radius_corr
 406              	.LVL59:
 407 0060 8046     		mov	r8, r0
 408              	.LVL60:
 486:..\lvgl\lv_draw/lv_draw_rect.c ****         length_corr = bwidth - radius - LV_ANTIALIAS;
 409              		.loc 1 486 0 discriminator 4
 410 0062 8642     		cmp	r6, r0
 411 0064 05D9     		bls	.L27
 487:..\lvgl\lv_draw/lv_draw_rect.c ****         corner_size = bwidth;
 412              		.loc 1 487 0
 413 0066 331A     		subs	r3, r6, r0
 414 0068 013B     		subs	r3, r3, #1
 415 006a 1BB2     		sxth	r3, r3
 416 006c 0593     		str	r3, [sp, #20]
 417              	.LVL61:
 488:..\lvgl\lv_draw/lv_draw_rect.c ****     } else {
 418              		.loc 1 488 0
 419 006e 33B2     		sxth	r3, r6
 420              	.LVL62:
 421 0070 03E0     		b	.L28
 422              	.LVL63:
 423              	.L27:
 490:..\lvgl\lv_draw/lv_draw_rect.c ****     }
 424              		.loc 1 490 0
 425 0072 431C     		adds	r3, r0, #1
 426 0074 1BB2     		sxth	r3, r3
 427              	.LVL64:
 478:..\lvgl\lv_draw/lv_draw_rect.c ****     lv_coord_t corner_size = 0;
 428              		.loc 1 478 0
 429 0076 0022     		movs	r2, #0
 430 0078 0592     		str	r2, [sp, #20]
 431              	.LVL65:
 432              	.L28:
 494:..\lvgl\lv_draw/lv_draw_rect.c ****         /*Left top corner*/
 433              		.loc 1 494 0
 434 007a 069A     		ldr	r2, [sp, #24]
 435 007c 002A     		cmp	r2, #0
 436 007e 7FD1     		bne	.L29
 437 0080 05F00203 		and	r3, r5, #2
 438              	.LVL66:
 496:..\lvgl\lv_draw/lv_draw_rect.c ****             work_area.x1 = coords->x1;
 439              		.loc 1 496 0
 440 0084 03F0FF07 		and	r7, r3, #255
 441              	.LVL67:
 442 0088 ABB1     		cbz	r3, .L30
 497:..\lvgl\lv_draw/lv_draw_rect.c ****             work_area.x2 = coords->x2;
 443              		.loc 1 497 0
ARM GAS  C:\Users\d3bug\AppData\Local\Temp\ccPpCIYA.s 			page 42


 444 008a BDF81C30 		ldrh	r3, [sp, #28]
 445 008e ADF82030 		strh	r3, [sp, #32]	@ movhi
 498:..\lvgl\lv_draw/lv_draw_rect.c ****             work_area.y1 = coords->y1;
 446              		.loc 1 498 0
 447 0092 ADF824B0 		strh	fp, [sp, #36]	@ movhi
 499:..\lvgl\lv_draw/lv_draw_rect.c ****             work_area.y2 = coords->y1 + bwidth;
 448              		.loc 1 499 0
 449 0096 B4F90230 		ldrsh	r3, [r4, #2]
 450 009a ADF82230 		strh	r3, [sp, #34]	@ movhi
 500:..\lvgl\lv_draw/lv_draw_rect.c ****             fill_fp(&work_area, mask, color, opa);
 451              		.loc 1 500 0
 452 009e 3344     		add	r3, r3, r6
 453 00a0 ADF82630 		strh	r3, [sp, #38]	@ movhi
 501:..\lvgl\lv_draw/lv_draw_rect.c ****         }
 454              		.loc 1 501 0
 455 00a4 434B     		ldr	r3, .L60
 456 00a6 D3F80080 		ldr	r8, [r3]
 457 00aa 019B     		ldr	r3, [sp, #4]
 458 00ac 9DF80C20 		ldrb	r2, [sp, #12]	@ zero_extendqisi2
 459 00b0 0299     		ldr	r1, [sp, #8]
 460 00b2 08A8     		add	r0, sp, #32
 461              	.LVL68:
 462 00b4 C047     		blx	r8
 463              	.LVL69:
 464              	.L30:
 505:..\lvgl\lv_draw/lv_draw_rect.c ****             work_area.x1 = coords->x2 - bwidth;
 465              		.loc 1 505 0
 466 00b6 15F0080F 		tst	r5, #8
 467 00ba 21D0     		beq	.L31
 506:..\lvgl\lv_draw/lv_draw_rect.c ****             work_area.x2 = coords->x2;
 468              		.loc 1 506 0
 469 00bc B4F90430 		ldrsh	r3, [r4, #4]
 470 00c0 9A1B     		subs	r2, r3, r6
 471 00c2 ADF82020 		strh	r2, [sp, #32]	@ movhi
 507:..\lvgl\lv_draw/lv_draw_rect.c ****             work_area.y1 = coords->y1 + (part & LV_BORDER_TOP ? bwidth + 1 : 0);
 472              		.loc 1 507 0
 473 00c6 ADF82430 		strh	r3, [sp, #36]	@ movhi
 508:..\lvgl\lv_draw/lv_draw_rect.c ****             work_area.y2 = coords->y2 - (part & LV_BORDER_BOTTOM ? bwidth + 1 : 0);
 474              		.loc 1 508 0
 475 00ca 6388     		ldrh	r3, [r4, #2]
 476 00cc 0FB9     		cbnz	r7, .L55
 477 00ce 0022     		movs	r2, #0
 478 00d0 00E0     		b	.L32
 479              	.L55:
 480 00d2 049A     		ldr	r2, [sp, #16]
 481              	.L32:
 508:..\lvgl\lv_draw/lv_draw_rect.c ****             work_area.y2 = coords->y2 - (part & LV_BORDER_BOTTOM ? bwidth + 1 : 0);
 482              		.loc 1 508 0 is_stmt 0 discriminator 4
 483 00d4 1344     		add	r3, r3, r2
 484 00d6 ADF82230 		strh	r3, [sp, #34]	@ movhi
 509:..\lvgl\lv_draw/lv_draw_rect.c ****             fill_fp(&work_area, mask, color, opa);
 485              		.loc 1 509 0 is_stmt 1 discriminator 4
 486 00da E388     		ldrh	r3, [r4, #6]
 487 00dc 15F0010F 		tst	r5, #1
 488 00e0 01D1     		bne	.L56
 509:..\lvgl\lv_draw/lv_draw_rect.c ****             fill_fp(&work_area, mask, color, opa);
 489              		.loc 1 509 0 is_stmt 0
ARM GAS  C:\Users\d3bug\AppData\Local\Temp\ccPpCIYA.s 			page 43


 490 00e2 0022     		movs	r2, #0
 491 00e4 00E0     		b	.L33
 492              	.L56:
 493 00e6 049A     		ldr	r2, [sp, #16]
 494              	.L33:
 509:..\lvgl\lv_draw/lv_draw_rect.c ****             fill_fp(&work_area, mask, color, opa);
 495              		.loc 1 509 0 discriminator 4
 496 00e8 9B1A     		subs	r3, r3, r2
 497 00ea ADF82630 		strh	r3, [sp, #38]	@ movhi
 510:..\lvgl\lv_draw/lv_draw_rect.c ****         }
 498              		.loc 1 510 0 is_stmt 1 discriminator 4
 499 00ee 314B     		ldr	r3, .L60
 500 00f0 D3F80080 		ldr	r8, [r3]
 501 00f4 019B     		ldr	r3, [sp, #4]
 502 00f6 9DF80C20 		ldrb	r2, [sp, #12]	@ zero_extendqisi2
 503 00fa 0299     		ldr	r1, [sp, #8]
 504 00fc 08A8     		add	r0, sp, #32
 505 00fe C047     		blx	r8
 506              	.LVL70:
 507              	.L31:
 514:..\lvgl\lv_draw/lv_draw_rect.c ****             work_area.x1 = coords->x1;
 508              		.loc 1 514 0
 509 0100 15F0040F 		tst	r5, #4
 510 0104 20D0     		beq	.L34
 515:..\lvgl\lv_draw/lv_draw_rect.c ****             work_area.x2 = coords->x1 + bwidth;
 511              		.loc 1 515 0
 512 0106 B4F90030 		ldrsh	r3, [r4]
 513 010a ADF82030 		strh	r3, [sp, #32]	@ movhi
 516:..\lvgl\lv_draw/lv_draw_rect.c ****             work_area.y1 = coords->y1 + (part & LV_BORDER_TOP ? bwidth + 1 : 0);
 514              		.loc 1 516 0
 515 010e 3344     		add	r3, r3, r6
 516 0110 ADF82430 		strh	r3, [sp, #36]	@ movhi
 517:..\lvgl\lv_draw/lv_draw_rect.c ****             work_area.y2 = coords->y2 - (part & LV_BORDER_BOTTOM ? bwidth + 1 : 0);
 517              		.loc 1 517 0
 518 0114 6388     		ldrh	r3, [r4, #2]
 519 0116 0FB9     		cbnz	r7, .L57
 520 0118 0022     		movs	r2, #0
 521 011a 00E0     		b	.L35
 522              	.L57:
 523 011c 049A     		ldr	r2, [sp, #16]
 524              	.L35:
 517:..\lvgl\lv_draw/lv_draw_rect.c ****             work_area.y2 = coords->y2 - (part & LV_BORDER_BOTTOM ? bwidth + 1 : 0);
 525              		.loc 1 517 0 is_stmt 0 discriminator 4
 526 011e 1344     		add	r3, r3, r2
 527 0120 ADF82230 		strh	r3, [sp, #34]	@ movhi
 518:..\lvgl\lv_draw/lv_draw_rect.c ****             fill_fp(&work_area, mask, color, opa);
 528              		.loc 1 518 0 is_stmt 1 discriminator 4
 529 0124 E288     		ldrh	r2, [r4, #6]
 530 0126 15F0010F 		tst	r5, #1
 531 012a 01D1     		bne	.L58
 518:..\lvgl\lv_draw/lv_draw_rect.c ****             fill_fp(&work_area, mask, color, opa);
 532              		.loc 1 518 0 is_stmt 0
 533 012c 0023     		movs	r3, #0
 534 012e 00E0     		b	.L36
 535              	.L58:
 536 0130 049B     		ldr	r3, [sp, #16]
 537              	.L36:
ARM GAS  C:\Users\d3bug\AppData\Local\Temp\ccPpCIYA.s 			page 44


 518:..\lvgl\lv_draw/lv_draw_rect.c ****             fill_fp(&work_area, mask, color, opa);
 538              		.loc 1 518 0 discriminator 4
 539 0132 D31A     		subs	r3, r2, r3
 540 0134 ADF82630 		strh	r3, [sp, #38]	@ movhi
 519:..\lvgl\lv_draw/lv_draw_rect.c ****         }
 541              		.loc 1 519 0 is_stmt 1 discriminator 4
 542 0138 1E4B     		ldr	r3, .L60
 543 013a 1F68     		ldr	r7, [r3]
 544 013c 019B     		ldr	r3, [sp, #4]
 545 013e 9DF80C20 		ldrb	r2, [sp, #12]	@ zero_extendqisi2
 546 0142 0299     		ldr	r1, [sp, #8]
 547 0144 08A8     		add	r0, sp, #32
 548 0146 B847     		blx	r7
 549              	.LVL71:
 550              	.L34:
 523:..\lvgl\lv_draw/lv_draw_rect.c ****             work_area.x1 = coords->x1;
 551              		.loc 1 523 0
 552 0148 15F0010F 		tst	r5, #1
 553 014c 00F07881 		beq	.L24
 524:..\lvgl\lv_draw/lv_draw_rect.c ****             work_area.x2 = coords->x2;
 554              		.loc 1 524 0
 555 0150 B4F90030 		ldrsh	r3, [r4]
 556 0154 ADF82030 		strh	r3, [sp, #32]	@ movhi
 525:..\lvgl\lv_draw/lv_draw_rect.c ****             work_area.y1 = coords->y2 - bwidth;
 557              		.loc 1 525 0
 558 0158 B4F90430 		ldrsh	r3, [r4, #4]
 559 015c ADF82430 		strh	r3, [sp, #36]	@ movhi
 526:..\lvgl\lv_draw/lv_draw_rect.c ****             work_area.y2 = coords->y2;
 560              		.loc 1 526 0
 561 0160 B4F90630 		ldrsh	r3, [r4, #6]
 562 0164 9E1B     		subs	r6, r3, r6
 563              	.LVL72:
 564 0166 ADF82260 		strh	r6, [sp, #34]	@ movhi
 527:..\lvgl\lv_draw/lv_draw_rect.c ****             fill_fp(&work_area, mask, color, opa);
 565              		.loc 1 527 0
 566 016a ADF82630 		strh	r3, [sp, #38]	@ movhi
 528:..\lvgl\lv_draw/lv_draw_rect.c ****         }
 567              		.loc 1 528 0
 568 016e 114B     		ldr	r3, .L60
 569 0170 1C68     		ldr	r4, [r3]
 570              	.LVL73:
 571 0172 019B     		ldr	r3, [sp, #4]
 572 0174 9DF80C20 		ldrb	r2, [sp, #12]	@ zero_extendqisi2
 573 0178 0299     		ldr	r1, [sp, #8]
 574 017a 08A8     		add	r0, sp, #32
 575 017c A047     		blx	r4
 576              	.LVL74:
 577 017e 5FE1     		b	.L24
 578              	.LVL75:
 579              	.L29:
 534:..\lvgl\lv_draw/lv_draw_rect.c **** 
 580              		.loc 1 534 0
 581 0180 03F1010B 		add	fp, r3, #1
 582 0184 1FFA8BFB 		uxth	fp, fp
 583              	.LVL76:
 584 0188 05F00203 		and	r3, r5, #2
 537:..\lvgl\lv_draw/lv_draw_rect.c ****     else  work_area.y1 = coords->y1 + radius;
ARM GAS  C:\Users\d3bug\AppData\Local\Temp\ccPpCIYA.s 			page 45


 585              		.loc 1 537 0
 586 018c 03F0FF02 		and	r2, r3, #255
 587 0190 0492     		str	r2, [sp, #16]
 588 0192 1BB1     		cbz	r3, .L38
 537:..\lvgl\lv_draw/lv_draw_rect.c ****     else  work_area.y1 = coords->y1 + radius;
 589              		.loc 1 537 0 is_stmt 0 discriminator 1
 590 0194 DA44     		add	r10, r10, fp
 591 0196 ADF822A0 		strh	r10, [sp, #34]	@ movhi
 592 019a 02E0     		b	.L39
 593              	.L38:
 538:..\lvgl\lv_draw/lv_draw_rect.c **** 
 594              		.loc 1 538 0 is_stmt 1
 595 019c C244     		add	r10, r10, r8
 596 019e ADF822A0 		strh	r10, [sp, #34]	@ movhi
 597              	.L39:
 540:..\lvgl\lv_draw/lv_draw_rect.c ****     else work_area.y2 = coords->y2 - radius;
 598              		.loc 1 540 0
 599 01a2 15F0010A 		ands	r10, r5, #1
 600 01a6 07D0     		beq	.L40
 540:..\lvgl\lv_draw/lv_draw_rect.c ****     else work_area.y2 = coords->y2 - radius;
 601              		.loc 1 540 0 is_stmt 0 discriminator 1
 602 01a8 CBEB0909 		rsb	r9, fp, r9
 603 01ac ADF82690 		strh	r9, [sp, #38]	@ movhi
 604 01b0 06E0     		b	.L41
 605              	.L61:
 606 01b2 00BF     		.align	2
 607              	.L60:
 608 01b4 00000000 		.word	fill_fp
 609              	.L40:
 541:..\lvgl\lv_draw/lv_draw_rect.c **** 
 610              		.loc 1 541 0 is_stmt 1
 611 01b8 C8EB0909 		rsb	r9, r8, r9
 612 01bc ADF82690 		strh	r9, [sp, #38]	@ movhi
 613              	.L41:
 544:..\lvgl\lv_draw/lv_draw_rect.c ****         work_area.x1 = coords->x1;
 614              		.loc 1 544 0
 615 01c0 15F0040F 		tst	r5, #4
 616 01c4 0FD0     		beq	.L42
 545:..\lvgl\lv_draw/lv_draw_rect.c ****         work_area.x2 = work_area.x1 + bwidth;
 617              		.loc 1 545 0
 618 01c6 B4F90030 		ldrsh	r3, [r4]
 619 01ca ADF82030 		strh	r3, [sp, #32]	@ movhi
 546:..\lvgl\lv_draw/lv_draw_rect.c ****         fill_fp(&work_area, mask, color, opa);
 620              		.loc 1 546 0
 621 01ce 3344     		add	r3, r3, r6
 622 01d0 ADF82430 		strh	r3, [sp, #36]	@ movhi
 547:..\lvgl\lv_draw/lv_draw_rect.c ****     }
 623              		.loc 1 547 0
 624 01d4 9C4B     		ldr	r3, .L62
 625 01d6 D3F80090 		ldr	r9, [r3]
 626 01da 019B     		ldr	r3, [sp, #4]
 627 01dc 9DF80C20 		ldrb	r2, [sp, #12]	@ zero_extendqisi2
 628 01e0 0299     		ldr	r1, [sp, #8]
 629 01e2 08A8     		add	r0, sp, #32
 630              	.LVL77:
 631 01e4 C847     		blx	r9
 632              	.LVL78:
ARM GAS  C:\Users\d3bug\AppData\Local\Temp\ccPpCIYA.s 			page 46


 633              	.L42:
 551:..\lvgl\lv_draw/lv_draw_rect.c ****         work_area.x2 = coords->x2;
 634              		.loc 1 551 0
 635 01e6 15F0080F 		tst	r5, #8
 636 01ea 0FD0     		beq	.L43
 552:..\lvgl\lv_draw/lv_draw_rect.c ****         work_area.x1 = work_area.x2 - bwidth;
 637              		.loc 1 552 0
 638 01ec B4F90430 		ldrsh	r3, [r4, #4]
 639 01f0 ADF82430 		strh	r3, [sp, #36]	@ movhi
 553:..\lvgl\lv_draw/lv_draw_rect.c ****         fill_fp(&work_area, mask, color, opa);
 640              		.loc 1 553 0
 641 01f4 9B1B     		subs	r3, r3, r6
 642 01f6 0AA8     		add	r0, sp, #40
 643 01f8 20F8083D 		strh	r3, [r0, #-8]!	@ movhi
 554:..\lvgl\lv_draw/lv_draw_rect.c ****     }
 644              		.loc 1 554 0
 645 01fc 924B     		ldr	r3, .L62
 646 01fe D3F80090 		ldr	r9, [r3]
 647 0202 019B     		ldr	r3, [sp, #4]
 648 0204 9DF80C20 		ldrb	r2, [sp, #12]	@ zero_extendqisi2
 649 0208 0299     		ldr	r1, [sp, #8]
 650 020a C847     		blx	r9
 651              	.LVL79:
 652              	.L43:
 557:..\lvgl\lv_draw/lv_draw_rect.c ****     work_area.x2 = coords->x2 - corner_size + length_corr;
 653              		.loc 1 557 0
 654 020c B4F90030 		ldrsh	r3, [r4]
 655 0210 BDF81420 		ldrh	r2, [sp, #20]
 656 0214 5B44     		add	r3, r3, fp
 657 0216 9B1A     		subs	r3, r3, r2
 658 0218 ADF82030 		strh	r3, [sp, #32]	@ movhi
 558:..\lvgl\lv_draw/lv_draw_rect.c **** 
 659              		.loc 1 558 0
 660 021c B4F90430 		ldrsh	r3, [r4, #4]
 661 0220 CBEB030B 		rsb	fp, fp, r3
 662              	.LVL80:
 663 0224 9344     		add	fp, fp, r2
 664 0226 ADF824B0 		strh	fp, [sp, #36]	@ movhi
 561:..\lvgl\lv_draw/lv_draw_rect.c ****         work_area.y1 = coords->y1;
 665              		.loc 1 561 0
 666 022a 049B     		ldr	r3, [sp, #16]
 667 022c 7BB1     		cbz	r3, .L44
 562:..\lvgl\lv_draw/lv_draw_rect.c ****         work_area.y2 = coords->y1 + bwidth;
 668              		.loc 1 562 0
 669 022e B4F90230 		ldrsh	r3, [r4, #2]
 670 0232 ADF82230 		strh	r3, [sp, #34]	@ movhi
 563:..\lvgl\lv_draw/lv_draw_rect.c ****         fill_fp(&work_area, mask, color, opa);
 671              		.loc 1 563 0
 672 0236 3344     		add	r3, r3, r6
 673 0238 ADF82630 		strh	r3, [sp, #38]	@ movhi
 564:..\lvgl\lv_draw/lv_draw_rect.c ****     }
 674              		.loc 1 564 0
 675 023c 824B     		ldr	r3, .L62
 676 023e D3F80090 		ldr	r9, [r3]
 677 0242 019B     		ldr	r3, [sp, #4]
 678 0244 9DF80C20 		ldrb	r2, [sp, #12]	@ zero_extendqisi2
 679 0248 0299     		ldr	r1, [sp, #8]
ARM GAS  C:\Users\d3bug\AppData\Local\Temp\ccPpCIYA.s 			page 47


 680 024a 08A8     		add	r0, sp, #32
 681 024c C847     		blx	r9
 682              	.LVL81:
 683              	.L44:
 568:..\lvgl\lv_draw/lv_draw_rect.c ****         work_area.y2 = coords->y2;
 684              		.loc 1 568 0
 685 024e BAF1000F 		cmp	r10, #0
 686 0252 0FD0     		beq	.L45
 569:..\lvgl\lv_draw/lv_draw_rect.c ****         work_area.y1 = work_area.y2 - bwidth;
 687              		.loc 1 569 0
 688 0254 B4F90630 		ldrsh	r3, [r4, #6]
 689 0258 ADF82630 		strh	r3, [sp, #38]	@ movhi
 570:..\lvgl\lv_draw/lv_draw_rect.c ****         fill_fp(&work_area, mask, color, opa);
 690              		.loc 1 570 0
 691 025c 9B1B     		subs	r3, r3, r6
 692 025e ADF82230 		strh	r3, [sp, #34]	@ movhi
 571:..\lvgl\lv_draw/lv_draw_rect.c ****     }
 693              		.loc 1 571 0
 694 0262 794B     		ldr	r3, .L62
 695 0264 D3F80090 		ldr	r9, [r3]
 696 0268 019B     		ldr	r3, [sp, #4]
 697 026a 9DF80C20 		ldrb	r2, [sp, #12]	@ zero_extendqisi2
 698 026e 0299     		ldr	r1, [sp, #8]
 699 0270 08A8     		add	r0, sp, #32
 700 0272 C847     		blx	r9
 701              	.LVL82:
 702              	.L45:
 575:..\lvgl\lv_draw/lv_draw_rect.c ****         /*Left top correction*/
 703              		.loc 1 575 0
 704 0274 059B     		ldr	r3, [sp, #20]
 705 0276 002B     		cmp	r3, #0
 706 0278 7AD0     		beq	.L46
 577:..\lvgl\lv_draw/lv_draw_rect.c ****             work_area.x1 = coords->x1;
 707              		.loc 1 577 0
 708 027a 05F00603 		and	r3, r5, #6
 709 027e 062B     		cmp	r3, #6
 710 0280 1AD1     		bne	.L47
 578:..\lvgl\lv_draw/lv_draw_rect.c ****             work_area.x2 = coords->x1 + radius + LV_ANTIALIAS;
 711              		.loc 1 578 0
 712 0282 B4F90030 		ldrsh	r3, [r4]
 713 0286 ADF82030 		strh	r3, [sp, #32]	@ movhi
 579:..\lvgl\lv_draw/lv_draw_rect.c ****             work_area.y1 = coords->y1 + radius + 1 + LV_ANTIALIAS;
 714              		.loc 1 579 0
 715 028a 4344     		add	r3, r3, r8
 716 028c 0133     		adds	r3, r3, #1
 717 028e ADF82430 		strh	r3, [sp, #36]	@ movhi
 580:..\lvgl\lv_draw/lv_draw_rect.c ****             work_area.y2 = coords->y1 + bwidth;
 718              		.loc 1 580 0
 719 0292 B4F90230 		ldrsh	r3, [r4, #2]
 720 0296 08EB0302 		add	r2, r8, r3
 721 029a 0232     		adds	r2, r2, #2
 722 029c ADF82220 		strh	r2, [sp, #34]	@ movhi
 581:..\lvgl\lv_draw/lv_draw_rect.c ****             fill_fp(&work_area, mask, color, opa);
 723              		.loc 1 581 0
 724 02a0 3344     		add	r3, r3, r6
 725 02a2 ADF82630 		strh	r3, [sp, #38]	@ movhi
 582:..\lvgl\lv_draw/lv_draw_rect.c ****         }
ARM GAS  C:\Users\d3bug\AppData\Local\Temp\ccPpCIYA.s 			page 48


 726              		.loc 1 582 0
 727 02a6 684B     		ldr	r3, .L62
 728 02a8 D3F80090 		ldr	r9, [r3]
 729 02ac 019B     		ldr	r3, [sp, #4]
 730 02ae 9DF80C20 		ldrb	r2, [sp, #12]	@ zero_extendqisi2
 731 02b2 0299     		ldr	r1, [sp, #8]
 732 02b4 08A8     		add	r0, sp, #32
 733 02b6 C847     		blx	r9
 734              	.LVL83:
 735              	.L47:
 586:..\lvgl\lv_draw/lv_draw_rect.c ****             work_area.x1 = coords->x2 - radius - LV_ANTIALIAS;
 736              		.loc 1 586 0
 737 02b8 05F00A03 		and	r3, r5, #10
 738 02bc 0A2B     		cmp	r3, #10
 739 02be 1BD1     		bne	.L48
 587:..\lvgl\lv_draw/lv_draw_rect.c ****             work_area.x2 = coords->x2;
 740              		.loc 1 587 0
 741 02c0 B4F90420 		ldrsh	r2, [r4, #4]
 742 02c4 C8EB0203 		rsb	r3, r8, r2
 743 02c8 013B     		subs	r3, r3, #1
 744 02ca ADF82030 		strh	r3, [sp, #32]	@ movhi
 588:..\lvgl\lv_draw/lv_draw_rect.c ****             work_area.y1 = coords->y1 + radius + 1 + LV_ANTIALIAS;
 745              		.loc 1 588 0
 746 02ce ADF82420 		strh	r2, [sp, #36]	@ movhi
 589:..\lvgl\lv_draw/lv_draw_rect.c ****             work_area.y2 = coords->y1 + bwidth;
 747              		.loc 1 589 0
 748 02d2 B4F90230 		ldrsh	r3, [r4, #2]
 749 02d6 08EB0302 		add	r2, r8, r3
 750 02da 0232     		adds	r2, r2, #2
 751 02dc ADF82220 		strh	r2, [sp, #34]	@ movhi
 590:..\lvgl\lv_draw/lv_draw_rect.c ****             fill_fp(&work_area, mask, color, opa);
 752              		.loc 1 590 0
 753 02e0 3344     		add	r3, r3, r6
 754 02e2 ADF82630 		strh	r3, [sp, #38]	@ movhi
 591:..\lvgl\lv_draw/lv_draw_rect.c ****         }
 755              		.loc 1 591 0
 756 02e6 584B     		ldr	r3, .L62
 757 02e8 D3F80090 		ldr	r9, [r3]
 758 02ec 019B     		ldr	r3, [sp, #4]
 759 02ee 9DF80C20 		ldrb	r2, [sp, #12]	@ zero_extendqisi2
 760 02f2 0299     		ldr	r1, [sp, #8]
 761 02f4 08A8     		add	r0, sp, #32
 762 02f6 C847     		blx	r9
 763              	.LVL84:
 764              	.L48:
 595:..\lvgl\lv_draw/lv_draw_rect.c ****             work_area.x1 = coords->x1;
 765              		.loc 1 595 0
 766 02f8 05F00503 		and	r3, r5, #5
 767 02fc 052B     		cmp	r3, #5
 768 02fe 19D1     		bne	.L49
 596:..\lvgl\lv_draw/lv_draw_rect.c ****             work_area.x2 = coords->x1 + radius + LV_ANTIALIAS;
 769              		.loc 1 596 0
 770 0300 B4F90030 		ldrsh	r3, [r4]
 771 0304 ADF82030 		strh	r3, [sp, #32]	@ movhi
 597:..\lvgl\lv_draw/lv_draw_rect.c ****             work_area.y1 = coords->y2 - bwidth;
 772              		.loc 1 597 0
 773 0308 4344     		add	r3, r3, r8
ARM GAS  C:\Users\d3bug\AppData\Local\Temp\ccPpCIYA.s 			page 49


 774 030a 0133     		adds	r3, r3, #1
 775 030c ADF82430 		strh	r3, [sp, #36]	@ movhi
 598:..\lvgl\lv_draw/lv_draw_rect.c ****             work_area.y2 = coords->y2 - radius - 1 - LV_ANTIALIAS;
 776              		.loc 1 598 0
 777 0310 E388     		ldrh	r3, [r4, #6]
 778 0312 9A1B     		subs	r2, r3, r6
 779 0314 ADF82220 		strh	r2, [sp, #34]	@ movhi
 599:..\lvgl\lv_draw/lv_draw_rect.c ****             fill_fp(&work_area, mask, color, opa);
 780              		.loc 1 599 0
 781 0318 C8EB0303 		rsb	r3, r8, r3
 782 031c 023B     		subs	r3, r3, #2
 783 031e ADF82630 		strh	r3, [sp, #38]	@ movhi
 600:..\lvgl\lv_draw/lv_draw_rect.c ****         }
 784              		.loc 1 600 0
 785 0322 494B     		ldr	r3, .L62
 786 0324 D3F80090 		ldr	r9, [r3]
 787 0328 019B     		ldr	r3, [sp, #4]
 788 032a 9DF80C20 		ldrb	r2, [sp, #12]	@ zero_extendqisi2
 789 032e 0299     		ldr	r1, [sp, #8]
 790 0330 08A8     		add	r0, sp, #32
 791 0332 C847     		blx	r9
 792              	.LVL85:
 793              	.L49:
 604:..\lvgl\lv_draw/lv_draw_rect.c ****             work_area.x1 = coords->x2 - radius - LV_ANTIALIAS;
 794              		.loc 1 604 0
 795 0334 05F00903 		and	r3, r5, #9
 796 0338 092B     		cmp	r3, #9
 797 033a 19D1     		bne	.L46
 605:..\lvgl\lv_draw/lv_draw_rect.c ****             work_area.x2 = coords->x2;
 798              		.loc 1 605 0
 799 033c B4F90420 		ldrsh	r2, [r4, #4]
 800 0340 C8EB0203 		rsb	r3, r8, r2
 801 0344 013B     		subs	r3, r3, #1
 802 0346 ADF82030 		strh	r3, [sp, #32]	@ movhi
 606:..\lvgl\lv_draw/lv_draw_rect.c ****             work_area.y1 = coords->y2 - bwidth;
 803              		.loc 1 606 0
 804 034a ADF82420 		strh	r2, [sp, #36]	@ movhi
 607:..\lvgl\lv_draw/lv_draw_rect.c ****             work_area.y2 = coords->y2 - radius - 1 - LV_ANTIALIAS;
 805              		.loc 1 607 0
 806 034e E388     		ldrh	r3, [r4, #6]
 807 0350 9E1B     		subs	r6, r3, r6
 808              	.LVL86:
 809 0352 ADF82260 		strh	r6, [sp, #34]	@ movhi
 608:..\lvgl\lv_draw/lv_draw_rect.c ****             fill_fp(&work_area, mask, color, opa);
 810              		.loc 1 608 0
 811 0356 C8EB0303 		rsb	r3, r8, r3
 812 035a 023B     		subs	r3, r3, #2
 813 035c ADF82630 		strh	r3, [sp, #38]	@ movhi
 609:..\lvgl\lv_draw/lv_draw_rect.c ****         }
 814              		.loc 1 609 0
 815 0360 394B     		ldr	r3, .L62
 816 0362 1E68     		ldr	r6, [r3]
 817 0364 019B     		ldr	r3, [sp, #4]
 818 0366 9DF80C20 		ldrb	r2, [sp, #12]	@ zero_extendqisi2
 819 036a 0299     		ldr	r1, [sp, #8]
 820 036c 08A8     		add	r0, sp, #32
 821 036e B047     		blx	r6
ARM GAS  C:\Users\d3bug\AppData\Local\Temp\ccPpCIYA.s 			page 50


 822              	.LVL87:
 823              	.L46:
 614:..\lvgl\lv_draw/lv_draw_rect.c ****         /*Left top corner*/
 824              		.loc 1 614 0
 825 0370 B7F90430 		ldrsh	r3, [r7, #4]
 826 0374 002B     		cmp	r3, #0
 827 0376 63D1     		bne	.L24
 616:..\lvgl\lv_draw/lv_draw_rect.c ****             work_area.x1 = coords->x1;
 828              		.loc 1 616 0
 829 0378 15F0060F 		tst	r5, #6
 830 037c 15D0     		beq	.L51
 617:..\lvgl\lv_draw/lv_draw_rect.c ****             work_area.x2 = coords->x1 + LV_ANTIALIAS;
 831              		.loc 1 617 0
 832 037e B4F90030 		ldrsh	r3, [r4]
 833 0382 ADF82030 		strh	r3, [sp, #32]	@ movhi
 618:..\lvgl\lv_draw/lv_draw_rect.c ****             work_area.y1 = coords->y1;
 834              		.loc 1 618 0
 835 0386 0133     		adds	r3, r3, #1
 836 0388 ADF82430 		strh	r3, [sp, #36]	@ movhi
 619:..\lvgl\lv_draw/lv_draw_rect.c ****             work_area.y2 = coords->y1 + LV_ANTIALIAS;
 837              		.loc 1 619 0
 838 038c B4F90230 		ldrsh	r3, [r4, #2]
 839 0390 ADF82230 		strh	r3, [sp, #34]	@ movhi
 620:..\lvgl\lv_draw/lv_draw_rect.c ****             fill_fp(&work_area, mask, color, opa);
 840              		.loc 1 620 0
 841 0394 0133     		adds	r3, r3, #1
 842 0396 ADF82630 		strh	r3, [sp, #38]	@ movhi
 621:..\lvgl\lv_draw/lv_draw_rect.c ****         }
 843              		.loc 1 621 0
 844 039a 2B4B     		ldr	r3, .L62
 845 039c 1E68     		ldr	r6, [r3]
 846 039e 019B     		ldr	r3, [sp, #4]
 847 03a0 9DF80C20 		ldrb	r2, [sp, #12]	@ zero_extendqisi2
 848 03a4 0299     		ldr	r1, [sp, #8]
 849 03a6 08A8     		add	r0, sp, #32
 850 03a8 B047     		blx	r6
 851              	.LVL88:
 852              	.L51:
 625:..\lvgl\lv_draw/lv_draw_rect.c ****             work_area.x1 = coords->x2 - LV_ANTIALIAS;
 853              		.loc 1 625 0
 854 03aa 15F00A0F 		tst	r5, #10
 855 03ae 15D0     		beq	.L52
 626:..\lvgl\lv_draw/lv_draw_rect.c ****             work_area.x2 = coords->x2;
 856              		.loc 1 626 0
 857 03b0 B4F90430 		ldrsh	r3, [r4, #4]
 858 03b4 5A1E     		subs	r2, r3, #1
 859 03b6 ADF82020 		strh	r2, [sp, #32]	@ movhi
 627:..\lvgl\lv_draw/lv_draw_rect.c ****             work_area.y1 = coords->y1;
 860              		.loc 1 627 0
 861 03ba ADF82430 		strh	r3, [sp, #36]	@ movhi
 628:..\lvgl\lv_draw/lv_draw_rect.c ****             work_area.y2 = coords->y1 + LV_ANTIALIAS;
 862              		.loc 1 628 0
 863 03be B4F90230 		ldrsh	r3, [r4, #2]
 864 03c2 ADF82230 		strh	r3, [sp, #34]	@ movhi
 629:..\lvgl\lv_draw/lv_draw_rect.c ****             fill_fp(&work_area, mask, color, opa);
 865              		.loc 1 629 0
 866 03c6 0133     		adds	r3, r3, #1
ARM GAS  C:\Users\d3bug\AppData\Local\Temp\ccPpCIYA.s 			page 51


 867 03c8 ADF82630 		strh	r3, [sp, #38]	@ movhi
 630:..\lvgl\lv_draw/lv_draw_rect.c ****         }
 868              		.loc 1 630 0
 869 03cc 1E4B     		ldr	r3, .L62
 870 03ce 1E68     		ldr	r6, [r3]
 871 03d0 019B     		ldr	r3, [sp, #4]
 872 03d2 9DF80C20 		ldrb	r2, [sp, #12]	@ zero_extendqisi2
 873 03d6 0299     		ldr	r1, [sp, #8]
 874 03d8 08A8     		add	r0, sp, #32
 875 03da B047     		blx	r6
 876              	.LVL89:
 877              	.L52:
 634:..\lvgl\lv_draw/lv_draw_rect.c ****             work_area.x1 = coords->x1;
 878              		.loc 1 634 0
 879 03dc 15F0050F 		tst	r5, #5
 880 03e0 15D0     		beq	.L53
 635:..\lvgl\lv_draw/lv_draw_rect.c ****             work_area.x2 = coords->x1 + LV_ANTIALIAS;
 881              		.loc 1 635 0
 882 03e2 B4F90030 		ldrsh	r3, [r4]
 883 03e6 ADF82030 		strh	r3, [sp, #32]	@ movhi
 636:..\lvgl\lv_draw/lv_draw_rect.c ****             work_area.y1 = coords->y2 - LV_ANTIALIAS;
 884              		.loc 1 636 0
 885 03ea 0133     		adds	r3, r3, #1
 886 03ec ADF82430 		strh	r3, [sp, #36]	@ movhi
 637:..\lvgl\lv_draw/lv_draw_rect.c ****             work_area.y2 = coords->y2;
 887              		.loc 1 637 0
 888 03f0 B4F90630 		ldrsh	r3, [r4, #6]
 889 03f4 5A1E     		subs	r2, r3, #1
 890 03f6 ADF82220 		strh	r2, [sp, #34]	@ movhi
 638:..\lvgl\lv_draw/lv_draw_rect.c ****             fill_fp(&work_area, mask, color, opa);
 891              		.loc 1 638 0
 892 03fa ADF82630 		strh	r3, [sp, #38]	@ movhi
 639:..\lvgl\lv_draw/lv_draw_rect.c ****         }
 893              		.loc 1 639 0
 894 03fe 124B     		ldr	r3, .L62
 895 0400 1E68     		ldr	r6, [r3]
 896 0402 019B     		ldr	r3, [sp, #4]
 897 0404 9DF80C20 		ldrb	r2, [sp, #12]	@ zero_extendqisi2
 898 0408 0299     		ldr	r1, [sp, #8]
 899 040a 08A8     		add	r0, sp, #32
 900 040c B047     		blx	r6
 901              	.LVL90:
 902              	.L53:
 643:..\lvgl\lv_draw/lv_draw_rect.c ****             work_area.x1 = coords->x2 - LV_ANTIALIAS;
 903              		.loc 1 643 0
 904 040e 15F0090F 		tst	r5, #9
 905 0412 15D0     		beq	.L24
 644:..\lvgl\lv_draw/lv_draw_rect.c ****             work_area.x2 = coords->x2;
 906              		.loc 1 644 0
 907 0414 B4F90430 		ldrsh	r3, [r4, #4]
 908 0418 5A1E     		subs	r2, r3, #1
 909 041a ADF82020 		strh	r2, [sp, #32]	@ movhi
 645:..\lvgl\lv_draw/lv_draw_rect.c ****             work_area.y1 = coords->y2 - LV_ANTIALIAS;
 910              		.loc 1 645 0
 911 041e ADF82430 		strh	r3, [sp, #36]	@ movhi
 646:..\lvgl\lv_draw/lv_draw_rect.c ****             work_area.y2 = coords->y2;
 912              		.loc 1 646 0
ARM GAS  C:\Users\d3bug\AppData\Local\Temp\ccPpCIYA.s 			page 52


 913 0422 B4F90630 		ldrsh	r3, [r4, #6]
 914 0426 5A1E     		subs	r2, r3, #1
 915 0428 ADF82220 		strh	r2, [sp, #34]	@ movhi
 647:..\lvgl\lv_draw/lv_draw_rect.c ****             fill_fp(&work_area, mask, color, opa);
 916              		.loc 1 647 0
 917 042c ADF82630 		strh	r3, [sp, #38]	@ movhi
 648:..\lvgl\lv_draw/lv_draw_rect.c ****         }
 918              		.loc 1 648 0
 919 0430 054B     		ldr	r3, .L62
 920 0432 1C68     		ldr	r4, [r3]
 921              	.LVL91:
 922 0434 019B     		ldr	r3, [sp, #4]
 923 0436 9DF80C20 		ldrb	r2, [sp, #12]	@ zero_extendqisi2
 924 043a 0299     		ldr	r1, [sp, #8]
 925 043c 08A8     		add	r0, sp, #32
 926 043e A047     		blx	r4
 927              	.LVL92:
 928              	.L24:
 651:..\lvgl\lv_draw/lv_draw_rect.c **** 
 929              		.loc 1 651 0
 930 0440 0BB0     		add	sp, sp, #44
 931              		.cfi_def_cfa_offset 36
 932              		@ sp needed
 933 0442 BDE8F08F 		pop	{r4, r5, r6, r7, r8, r9, r10, fp, pc}
 934              	.LVL93:
 935              	.L63:
 936 0446 00BF     		.align	2
 937              	.L62:
 938 0448 00000000 		.word	fill_fp
 939              		.cfi_endproc
 940              	.LFE15:
 941              		.size	lv_draw_rect_border_straight, .-lv_draw_rect_border_straight
 942              		.section	.text.antialias_get_opa_circ,"ax",%progbits
 943              		.align	2
 944              		.thumb
 945              		.thumb_func
 946              		.type	antialias_get_opa_circ, %function
 947              	antialias_get_opa_circ:
 948              	.LFB18:
1409:..\lvgl\lv_draw/lv_draw_rect.c **** 
1410:..\lvgl\lv_draw/lv_draw_rect.c **** #if LV_ANTIALIAS
1411:..\lvgl\lv_draw/lv_draw_rect.c **** 
1412:..\lvgl\lv_draw/lv_draw_rect.c **** /**
1413:..\lvgl\lv_draw/lv_draw_rect.c ****  * Approximate the opacity for anti-aliasing.
1414:..\lvgl\lv_draw/lv_draw_rect.c ****  * Used  the first segment of a circle which is the longest and have the most non-linearity (cos)
1415:..\lvgl\lv_draw/lv_draw_rect.c ****  * @param seg length of the line segment
1416:..\lvgl\lv_draw/lv_draw_rect.c ****  * @param px_id index of pixel on the line segment
1417:..\lvgl\lv_draw/lv_draw_rect.c ****  * @param line_opa opacity of the lien (it will be the max opacity)
1418:..\lvgl\lv_draw/lv_draw_rect.c ****  * @return the desired opacity of the pixel
1419:..\lvgl\lv_draw/lv_draw_rect.c ****  */
1420:..\lvgl\lv_draw/lv_draw_rect.c **** static lv_opa_t antialias_get_opa_circ(lv_coord_t seg, lv_coord_t px_id, lv_opa_t opa)
1421:..\lvgl\lv_draw/lv_draw_rect.c **** {
 949              		.loc 1 1421 0
 950              		.cfi_startproc
 951              		@ args = 0, pretend = 0, frame = 0
 952              		@ frame_needed = 0, uses_anonymous_args = 0
 953              		@ link register save eliminated.
ARM GAS  C:\Users\d3bug\AppData\Local\Temp\ccPpCIYA.s 			page 53


 954              	.LVL94:
1422:..\lvgl\lv_draw/lv_draw_rect.c ****     static const  lv_opa_t opa_map[8] = {250, 242, 221, 196, 163, 122, 74, 18};
1423:..\lvgl\lv_draw/lv_draw_rect.c **** 
1424:..\lvgl\lv_draw/lv_draw_rect.c ****     if(seg == 0) return LV_OPA_TRANSP;
 955              		.loc 1 1424 0
 956 0000 70B1     		cbz	r0, .L66
1425:..\lvgl\lv_draw/lv_draw_rect.c ****     else if(seg == 1) return LV_OPA_80;
 957              		.loc 1 1425 0
 958 0002 0128     		cmp	r0, #1
 959 0004 0ED0     		beq	.L67
 960              	.LBB84:
1426:..\lvgl\lv_draw/lv_draw_rect.c ****     else {
1427:..\lvgl\lv_draw/lv_draw_rect.c **** 
1428:..\lvgl\lv_draw/lv_draw_rect.c ****         uint8_t id = (uint32_t)((uint32_t)px_id * (sizeof(opa_map) - 1)) / (seg - 1);
 961              		.loc 1 1428 0
 962 0006 C1EBC101 		rsb	r1, r1, r1, lsl #3
 963              	.LVL95:
 964 000a 431E     		subs	r3, r0, #1
 965 000c B1FBF3F1 		udiv	r1, r1, r3
 966              	.LVL96:
1429:..\lvgl\lv_draw/lv_draw_rect.c ****         return (uint32_t)((uint32_t) opa_map[id] * opa) >> 8;
 967              		.loc 1 1429 0
 968 0010 C9B2     		uxtb	r1, r1
 969 0012 054B     		ldr	r3, .L68
 970 0014 585C     		ldrb	r0, [r3, r1]	@ zero_extendqisi2
 971              	.LVL97:
 972 0016 00FB02F0 		mul	r0, r0, r2
 973 001a C0F30720 		ubfx	r0, r0, #8, #8
 974 001e 7047     		bx	lr
 975              	.LVL98:
 976              	.L66:
 977              	.LBE84:
1424:..\lvgl\lv_draw/lv_draw_rect.c ****     else if(seg == 1) return LV_OPA_80;
 978              		.loc 1 1424 0
 979 0020 0020     		movs	r0, #0
 980              	.LVL99:
 981 0022 7047     		bx	lr
 982              	.LVL100:
 983              	.L67:
1425:..\lvgl\lv_draw/lv_draw_rect.c ****     else {
 984              		.loc 1 1425 0
 985 0024 CC20     		movs	r0, #204
 986              	.LVL101:
1430:..\lvgl\lv_draw/lv_draw_rect.c **** 
1431:..\lvgl\lv_draw/lv_draw_rect.c ****     }
1432:..\lvgl\lv_draw/lv_draw_rect.c **** 
1433:..\lvgl\lv_draw/lv_draw_rect.c **** }
 987              		.loc 1 1433 0
 988 0026 7047     		bx	lr
 989              	.L69:
 990              		.align	2
 991              	.L68:
 992 0028 00000000 		.word	.LANCHOR0
 993              		.cfi_endproc
 994              	.LFE18:
 995              		.size	antialias_get_opa_circ, .-antialias_get_opa_circ
 996              		.section	.text.lv_draw_rect_border_corner,"ax",%progbits
ARM GAS  C:\Users\d3bug\AppData\Local\Temp\ccPpCIYA.s 			page 54


 997              		.align	2
 998              		.thumb
 999              		.thumb_func
 1000              		.type	lv_draw_rect_border_corner, %function
 1001              	lv_draw_rect_border_corner:
 1002              	.LFB16:
 662:..\lvgl\lv_draw/lv_draw_rect.c ****     uint16_t radius = style->body.radius ;
 1003              		.loc 1 662 0
 1004              		.cfi_startproc
 1005              		@ args = 0, pretend = 0, frame = 104
 1006              		@ frame_needed = 0, uses_anonymous_args = 0
 1007              	.LVL102:
 1008 0000 2DE9F04F 		push	{r4, r5, r6, r7, r8, r9, r10, fp, lr}
 1009              		.cfi_def_cfa_offset 36
 1010              		.cfi_offset 4, -36
 1011              		.cfi_offset 5, -32
 1012              		.cfi_offset 6, -28
 1013              		.cfi_offset 7, -24
 1014              		.cfi_offset 8, -20
 1015              		.cfi_offset 9, -16
 1016              		.cfi_offset 10, -12
 1017              		.cfi_offset 11, -8
 1018              		.cfi_offset 14, -4
 1019 0004 9DB0     		sub	sp, sp, #116
 1020              		.cfi_def_cfa_offset 152
 1021 0006 0391     		str	r1, [sp, #12]
 1022 0008 1146     		mov	r1, r2
 1023              	.LVL103:
 1024 000a 0592     		str	r2, [sp, #20]
 663:..\lvgl\lv_draw/lv_draw_rect.c ****     uint16_t bwidth = style->body.border.width;
 1025              		.loc 1 663 0
 1026 000c 9488     		ldrh	r4, [r2, #4]
 1027              	.LVL104:
 664:..\lvgl\lv_draw/lv_draw_rect.c ****     lv_color_t color = style->body.border.color;
 1028              		.loc 1 664 0
 1029 000e B2F80A90 		ldrh	r9, [r2, #10]
 1030              	.LVL105:
 665:..\lvgl\lv_draw/lv_draw_rect.c ****     lv_border_part_t part = style->body.border.part;
 1031              		.loc 1 665 0
 1032 0012 127A     		ldrb	r2, [r2, #8]	@ zero_extendqisi2
 1033              	.LVL106:
 1034 0014 8DF84F20 		strb	r2, [sp, #79]
 666:..\lvgl\lv_draw/lv_draw_rect.c ****     lv_opa_t opa = opa_scale == LV_OPA_COVER ? style->body.border.opa : (uint16_t)((uint16_t) style
 1035              		.loc 1 666 0
 1036 0018 91F80CB0 		ldrb	fp, [r1, #12]	@ zero_extendqisi2
 1037              	.LVL107:
 667:..\lvgl\lv_draw/lv_draw_rect.c ****     /*0 px border width drawn as 1 px, so decrement the bwidth*/
 1038              		.loc 1 667 0
 1039 001c FF2B     		cmp	r3, #255
 1040 001e 02D1     		bne	.L71
 667:..\lvgl\lv_draw/lv_draw_rect.c ****     /*0 px border width drawn as 1 px, so decrement the bwidth*/
 1041              		.loc 1 667 0 is_stmt 0 discriminator 1
 1042 0020 4B7B     		ldrb	r3, [r1, #13]	@ zero_extendqisi2
 1043              	.LVL108:
 1044 0022 0493     		str	r3, [sp, #16]
 1045 0024 06E0     		b	.L72
 1046              	.LVL109:
ARM GAS  C:\Users\d3bug\AppData\Local\Temp\ccPpCIYA.s 			page 55


 1047              	.L71:
 667:..\lvgl\lv_draw/lv_draw_rect.c ****     /*0 px border width drawn as 1 px, so decrement the bwidth*/
 1048              		.loc 1 667 0 discriminator 2
 1049 0026 059A     		ldr	r2, [sp, #20]
 1050              	.LVL110:
 1051 0028 527B     		ldrb	r2, [r2, #13]	@ zero_extendqisi2
 1052 002a 02FB03F3 		mul	r3, r2, r3
 1053              	.LVL111:
 1054 002e C3F30723 		ubfx	r3, r3, #8, #8
 1055 0032 0493     		str	r3, [sp, #16]
 1056              	.LVL112:
 1057              	.L72:
 672:..\lvgl\lv_draw/lv_draw_rect.c **** #endif
 1058              		.loc 1 672 0 is_stmt 1 discriminator 4
 1059 0034 A9F10209 		sub	r9, r9, #2
 1060              	.LVL113:
 1061 0038 1FFA89F9 		uxth	r9, r9
 1062              	.LVL114:
 1063              	.LBB85:
 1064              	.LBB86:
  77:..\lvgl\lv_draw\../lv_core/../lv_misc/lv_area.h **** }
 1065              		.loc 2 77 0 discriminator 4
 1066 003c 8588     		ldrh	r5, [r0, #4]
 1067 003e B0F80080 		ldrh	r8, [r0]
 1068 0042 C8EB0501 		rsb	r1, r8, r5
 1069              	.LVL115:
 1070 0046 0131     		adds	r1, r1, #1
 1071              	.LVL116:
 1072              	.LBE86:
 1073              	.LBE85:
 1074              	.LBB87:
 1075              	.LBB88:
 1076              		.loc 2 87 0 discriminator 4
 1077 0048 C688     		ldrh	r6, [r0, #6]
 1078 004a 4788     		ldrh	r7, [r0, #2]
 1079 004c F21B     		subs	r2, r6, r7
 1080              	.LVL117:
 1081 004e 0132     		adds	r2, r2, #1
 1082              	.LVL118:
 1083              	.LBE88:
 1084              	.LBE87:
 678:..\lvgl\lv_draw/lv_draw_rect.c **** 
 1085              		.loc 1 678 0 discriminator 4
 1086 0050 12B2     		sxth	r2, r2
 1087 0052 09B2     		sxth	r1, r1
 1088 0054 2046     		mov	r0, r4
 1089              	.LVL119:
 1090 0056 FFF7FEFF 		bl	lv_draw_cont_radius_corr
 1091              	.LVL120:
 1092 005a 0446     		mov	r4, r0
 1093              	.LVL121:
 685:..\lvgl\lv_draw/lv_draw_rect.c ****     lt_origo.y = coords->y1 + radius + LV_ANTIALIAS;
 1094              		.loc 1 685 0 discriminator 4
 1095 005c 00EB0803 		add	r3, r0, r8
 1096 0060 0133     		adds	r3, r3, #1
 1097 0062 9BB2     		uxth	r3, r3
 1098 0064 0A93     		str	r3, [sp, #40]
ARM GAS  C:\Users\d3bug\AppData\Local\Temp\ccPpCIYA.s 			page 56


 686:..\lvgl\lv_draw/lv_draw_rect.c **** 
 1099              		.loc 1 686 0 discriminator 4
 1100 0066 3B18     		adds	r3, r7, r0
 1101 0068 0133     		adds	r3, r3, #1
 1102 006a 9BB2     		uxth	r3, r3
 1103 006c 0993     		str	r3, [sp, #36]
 1104 006e 1BB2     		sxth	r3, r3
 1105 0070 1493     		str	r3, [sp, #80]
 689:..\lvgl\lv_draw/lv_draw_rect.c **** 
 1106              		.loc 1 689 0 discriminator 4
 1107 0072 331A     		subs	r3, r6, r0
 1108 0074 013B     		subs	r3, r3, #1
 1109 0076 9BB2     		uxth	r3, r3
 1110 0078 0C93     		str	r3, [sp, #48]
 1111 007a 1BB2     		sxth	r3, r3
 1112 007c 1593     		str	r3, [sp, #84]
 691:..\lvgl\lv_draw/lv_draw_rect.c ****     rt_origo.y = coords->y1 + radius + LV_ANTIALIAS;
 1113              		.loc 1 691 0 discriminator 4
 1114 007e 2B1A     		subs	r3, r5, r0
 1115 0080 013B     		subs	r3, r3, #1
 1116 0082 9BB2     		uxth	r3, r3
 1117 0084 0B93     		str	r3, [sp, #44]
 699:..\lvgl\lv_draw/lv_draw_rect.c **** 
 1118              		.loc 1 699 0 discriminator 4
 1119 0086 03B2     		sxth	r3, r0
 1120 0088 0E93     		str	r3, [sp, #56]
 1121 008a 1A46     		mov	r2, r3
 1122 008c 0DF16A01 		add	r1, sp, #106
 1123 0090 1BA8     		add	r0, sp, #108
 1124              	.LVL122:
 1125 0092 FFF7FEFF 		bl	lv_circ_init
 1126              	.LVL123:
 703:..\lvgl\lv_draw/lv_draw_rect.c **** 
 1127              		.loc 1 703 0 discriminator 4
 1128 0096 C9EB0404 		rsb	r4, r9, r4
 1129 009a 23B2     		sxth	r3, r4
 1130 009c 0793     		str	r3, [sp, #28]
 1131              	.LVL124:
 705:..\lvgl\lv_draw/lv_draw_rect.c ****         radius_in = 0;
 1132              		.loc 1 705 0 discriminator 4
 1133 009e 002B     		cmp	r3, #0
 1134 00a0 01DB     		blt	.L126
 703:..\lvgl\lv_draw/lv_draw_rect.c **** 
 1135              		.loc 1 703 0
 1136 00a2 1A46     		mov	r2, r3
 1137 00a4 00E0     		b	.L73
 1138              	.L126:
 706:..\lvgl\lv_draw/lv_draw_rect.c ****     }
 1139              		.loc 1 706 0
 1140 00a6 0022     		movs	r2, #0
 1141              	.L73:
 1142              	.LVL125:
 709:..\lvgl\lv_draw/lv_draw_rect.c **** 
 1143              		.loc 1 709 0
 1144 00a8 0DF16201 		add	r1, sp, #98
 1145 00ac 19A8     		add	r0, sp, #100
 1146 00ae FFF7FEFF 		bl	lv_circ_init
ARM GAS  C:\Users\d3bug\AppData\Local\Temp\ccPpCIYA.s 			page 57


 1147              	.LVL126:
 722:..\lvgl\lv_draw/lv_draw_rect.c ****     lv_coord_t in_y_seg_end = 0;
 1148              		.loc 1 722 0
 1149 00b2 0023     		movs	r3, #0
 1150 00b4 0893     		str	r3, [sp, #32]
 717:..\lvgl\lv_draw/lv_draw_rect.c ****     lv_coord_t out_y_seg_end = 0;
 1151              		.loc 1 717 0
 1152 00b6 0F93     		str	r3, [sp, #60]
 727:..\lvgl\lv_draw/lv_draw_rect.c **** 
 1153              		.loc 1 727 0
 1154 00b8 CAE2     		b	.L74
 1155              	.LVL127:
 1156              	.L105:
 730:..\lvgl\lv_draw/lv_draw_rect.c ****             act_w1 = cir_out.x - cir_in.x;
 1157              		.loc 1 730 0
 1158 00ba BDF96610 		ldrsh	r1, [sp, #102]
 1159 00be BDF96420 		ldrsh	r2, [sp, #100]
 1160 00c2 9142     		cmp	r1, r2
 1161 00c4 04DA     		bge	.L75
 731:..\lvgl\lv_draw/lv_draw_rect.c ****             act_w2 = act_w1;
 1162              		.loc 1 731 0
 1163 00c6 9A1A     		subs	r2, r3, r2
 1164 00c8 12B2     		sxth	r2, r2
 1165 00ca 1092     		str	r2, [sp, #64]
 1166              	.LVL128:
 732:..\lvgl\lv_draw/lv_draw_rect.c ****         } else {
 1167              		.loc 1 732 0
 1168 00cc 1192     		str	r2, [sp, #68]
 1169 00ce 07E0     		b	.L76
 1170              	.LVL129:
 1171              	.L75:
 734:..\lvgl\lv_draw/lv_draw_rect.c ****             act_w2 = act_w1 - 1;
 1172              		.loc 1 734 0
 1173 00d0 069A     		ldr	r2, [sp, #24]
 1174 00d2 9A1A     		subs	r2, r3, r2
 1175 00d4 92B2     		uxth	r2, r2
 1176 00d6 11B2     		sxth	r1, r2
 1177 00d8 1091     		str	r1, [sp, #64]
 1178              	.LVL130:
 735:..\lvgl\lv_draw/lv_draw_rect.c ****         }
 1179              		.loc 1 735 0
 1180 00da 013A     		subs	r2, r2, #1
 1181 00dc 12B2     		sxth	r2, r2
 1182 00de 1192     		str	r2, [sp, #68]
 1183              	.LVL131:
 1184              	.L76:
 740:..\lvgl\lv_draw/lv_draw_rect.c ****             out_y_seg_end = cir_out.y;
 1185              		.loc 1 740 0
 1186 00e0 0E9A     		ldr	r2, [sp, #56]
 1187 00e2 9A42     		cmp	r2, r3
 1188 00e4 00F0C180 		beq	.L77
 1189              	.LVL132:
 1190              	.LBB89:
 742:..\lvgl\lv_draw/lv_draw_rect.c ****             lv_point_t aa_p;
 1191              		.loc 1 742 0
 1192 00e8 BDF83C70 		ldrh	r7, [sp, #60]
 1193 00ec 069B     		ldr	r3, [sp, #24]
ARM GAS  C:\Users\d3bug\AppData\Local\Temp\ccPpCIYA.s 			page 58


 1194 00ee DD1B     		subs	r5, r3, r7
 1195 00f0 2DB2     		sxth	r5, r5
 1196              	.LVL133:
 749:..\lvgl\lv_draw/lv_draw_rect.c ****                 lv_opa_t aa_opa;
 1197              		.loc 1 749 0
 1198 00f2 0024     		movs	r4, #0
 1199 00f4 B1E0     		b	.L78
 1200              	.LVL134:
 1201              	.L85:
 1202              	.LBB90:
 752:..\lvgl\lv_draw/lv_draw_rect.c ****                     aa_opa = antialias_get_opa_circ(seg_size, i, opa);
 1203              		.loc 1 752 0
 1204 00f6 052D     		cmp	r5, #5
 1205 00f8 06DD     		ble	.L79
 753:..\lvgl\lv_draw/lv_draw_rect.c ****                 } else {
 1206              		.loc 1 753 0
 1207 00fa 049A     		ldr	r2, [sp, #16]
 1208 00fc 2146     		mov	r1, r4
 1209 00fe 2846     		mov	r0, r5
 1210 0100 FFF7FEFF 		bl	antialias_get_opa_circ
 1211              	.LVL135:
 1212 0104 0646     		mov	r6, r0
 1213              	.LVL136:
 1214 0106 07E0     		b	.L80
 1215              	.LVL137:
 1216              	.L79:
 755:..\lvgl\lv_draw/lv_draw_rect.c ****                 }
 1217              		.loc 1 755 0
 1218 0108 049E     		ldr	r6, [sp, #16]
 1219 010a 3246     		mov	r2, r6
 1220 010c 2146     		mov	r1, r4
 1221 010e 2846     		mov	r0, r5
 1222 0110 FFF7FEFF 		bl	lv_draw_aa_get_opa
 1223              	.LVL138:
 1224 0114 301A     		subs	r0, r6, r0
 1225 0116 C6B2     		uxtb	r6, r0
 1226              	.LVL139:
 1227              	.L80:
 758:..\lvgl\lv_draw/lv_draw_rect.c ****                     px_fp(rb_origo.x + LV_CIRC_OCT1_X(aa_p) + 1, rb_origo.y + LV_CIRC_OCT1_Y(aa_p) 
 1228              		.loc 1 758 0
 1229 0118 0BF00903 		and	r3, fp, #9
 1230 011c 092B     		cmp	r3, #9
 1231 011e 20D1     		bne	.L81
 759:..\lvgl\lv_draw/lv_draw_rect.c ****                     px_fp(rb_origo.x + LV_CIRC_OCT2_X(aa_p) + i, rb_origo.y + LV_CIRC_OCT2_Y(aa_p) 
 1232              		.loc 1 759 0
 1233 0120 604B     		ldr	r3, .L128
 1234 0122 D3F800A0 		ldr	r10, [r3]
 1235 0126 BDF83880 		ldrh	r8, [sp, #56]
 1236              	.LVL140:
 1237 012a 1FFA84F9 		uxth	r9, r4
 1238 012e 059B     		ldr	r3, [sp, #20]
 1239 0130 1B7A     		ldrb	r3, [r3, #8]	@ zero_extendqisi2
 1240 0132 0C9A     		ldr	r2, [sp, #48]
 1241 0134 D119     		adds	r1, r2, r7
 1242 0136 4944     		add	r1, r1, r9
 1243 0138 0B98     		ldr	r0, [sp, #44]
 1244 013a 4044     		add	r0, r0, r8
ARM GAS  C:\Users\d3bug\AppData\Local\Temp\ccPpCIYA.s 			page 59


 1245 013c 0130     		adds	r0, r0, #1
 1246 013e 0096     		str	r6, [sp]
 1247 0140 039A     		ldr	r2, [sp, #12]
 1248 0142 09B2     		sxth	r1, r1
 1249 0144 00B2     		sxth	r0, r0
 1250 0146 D047     		blx	r10
 1251              	.LVL141:
 760:..\lvgl\lv_draw/lv_draw_rect.c ****                 }
 1252              		.loc 1 760 0
 1253 0148 059B     		ldr	r3, [sp, #20]
 1254 014a 1B7A     		ldrb	r3, [r3, #8]	@ zero_extendqisi2
 1255 014c 0C99     		ldr	r1, [sp, #48]
 1256 014e 4144     		add	r1, r1, r8
 1257 0150 0131     		adds	r1, r1, #1
 1258 0152 0B98     		ldr	r0, [sp, #44]
 1259 0154 3844     		add	r0, r0, r7
 1260 0156 4844     		add	r0, r0, r9
 1261 0158 0096     		str	r6, [sp]
 1262 015a 039A     		ldr	r2, [sp, #12]
 1263 015c 09B2     		sxth	r1, r1
 1264 015e 00B2     		sxth	r0, r0
 1265 0160 D047     		blx	r10
 1266              	.LVL142:
 1267              	.L81:
 763:..\lvgl\lv_draw/lv_draw_rect.c ****                     px_fp(lb_origo.x + LV_CIRC_OCT3_X(aa_p) - i, lb_origo.y + LV_CIRC_OCT3_Y(aa_p) 
 1268              		.loc 1 763 0
 1269 0162 0BF00503 		and	r3, fp, #5
 1270 0166 052B     		cmp	r3, #5
 1271 0168 24D1     		bne	.L82
 764:..\lvgl\lv_draw/lv_draw_rect.c ****                     px_fp(lb_origo.x + LV_CIRC_OCT4_X(aa_p) - 1, lb_origo.y + LV_CIRC_OCT4_Y(aa_p) 
 1272              		.loc 1 764 0
 1273 016a 4E4B     		ldr	r3, .L128
 1274 016c D3F800A0 		ldr	r10, [r3]
 1275 0170 1FFA84F9 		uxth	r9, r4
 1276 0174 BDF83880 		ldrh	r8, [sp, #56]
 1277              	.LVL143:
 1278 0178 059B     		ldr	r3, [sp, #20]
 1279 017a 1B7A     		ldrb	r3, [r3, #8]	@ zero_extendqisi2
 1280 017c 0C9A     		ldr	r2, [sp, #48]
 1281 017e 02EB080E 		add	lr, r2, r8
 1282 0182 0EF10101 		add	r1, lr, #1
 1283 0186 0A98     		ldr	r0, [sp, #40]
 1284 0188 C01B     		subs	r0, r0, r7
 1285 018a C9EB0000 		rsb	r0, r9, r0
 1286 018e 0096     		str	r6, [sp]
 1287 0190 039A     		ldr	r2, [sp, #12]
 1288 0192 09B2     		sxth	r1, r1
 1289 0194 00B2     		sxth	r0, r0
 1290 0196 D047     		blx	r10
 1291              	.LVL144:
 765:..\lvgl\lv_draw/lv_draw_rect.c ****                 }
 1292              		.loc 1 765 0
 1293 0198 059B     		ldr	r3, [sp, #20]
 1294 019a 1B7A     		ldrb	r3, [r3, #8]	@ zero_extendqisi2
 1295 019c 0C99     		ldr	r1, [sp, #48]
 1296 019e 3944     		add	r1, r1, r7
 1297 01a0 4944     		add	r1, r1, r9
ARM GAS  C:\Users\d3bug\AppData\Local\Temp\ccPpCIYA.s 			page 60


 1298 01a2 0A98     		ldr	r0, [sp, #40]
 1299 01a4 C8EB0000 		rsb	r0, r8, r0
 1300 01a8 0138     		subs	r0, r0, #1
 1301 01aa 0096     		str	r6, [sp]
 1302 01ac 039A     		ldr	r2, [sp, #12]
 1303 01ae 09B2     		sxth	r1, r1
 1304 01b0 00B2     		sxth	r0, r0
 1305 01b2 D047     		blx	r10
 1306              	.LVL145:
 1307              	.L82:
 769:..\lvgl\lv_draw/lv_draw_rect.c ****                     px_fp(lt_origo.x + LV_CIRC_OCT5_X(aa_p) - 1, lt_origo.y + LV_CIRC_OCT5_Y(aa_p) 
 1308              		.loc 1 769 0
 1309 01b4 0BF00603 		and	r3, fp, #6
 1310 01b8 062B     		cmp	r3, #6
 1311 01ba 24D1     		bne	.L83
 770:..\lvgl\lv_draw/lv_draw_rect.c ****                     px_fp(lt_origo.x + LV_CIRC_OCT6_X(aa_p) - i, lt_origo.y + LV_CIRC_OCT6_Y(aa_p) 
 1312              		.loc 1 770 0
 1313 01bc 394B     		ldr	r3, .L128
 1314 01be D3F800A0 		ldr	r10, [r3]
 1315 01c2 BDF83880 		ldrh	r8, [sp, #56]
 1316              	.LVL146:
 1317 01c6 1FFA84F9 		uxth	r9, r4
 1318 01ca 059B     		ldr	r3, [sp, #20]
 1319 01cc 1B7A     		ldrb	r3, [r3, #8]	@ zero_extendqisi2
 1320 01ce 099A     		ldr	r2, [sp, #36]
 1321 01d0 D11B     		subs	r1, r2, r7
 1322 01d2 C9EB0101 		rsb	r1, r9, r1
 1323 01d6 0A98     		ldr	r0, [sp, #40]
 1324 01d8 C8EB0000 		rsb	r0, r8, r0
 1325 01dc 0138     		subs	r0, r0, #1
 1326 01de 0096     		str	r6, [sp]
 1327 01e0 039A     		ldr	r2, [sp, #12]
 1328 01e2 09B2     		sxth	r1, r1
 1329 01e4 00B2     		sxth	r0, r0
 1330 01e6 D047     		blx	r10
 1331              	.LVL147:
 771:..\lvgl\lv_draw/lv_draw_rect.c ****                 }
 1332              		.loc 1 771 0
 1333 01e8 059B     		ldr	r3, [sp, #20]
 1334 01ea 1B7A     		ldrb	r3, [r3, #8]	@ zero_extendqisi2
 1335 01ec 0999     		ldr	r1, [sp, #36]
 1336 01ee C8EB0101 		rsb	r1, r8, r1
 1337 01f2 0139     		subs	r1, r1, #1
 1338 01f4 0A98     		ldr	r0, [sp, #40]
 1339 01f6 C01B     		subs	r0, r0, r7
 1340 01f8 C9EB0000 		rsb	r0, r9, r0
 1341 01fc 0096     		str	r6, [sp]
 1342 01fe 039A     		ldr	r2, [sp, #12]
 1343 0200 09B2     		sxth	r1, r1
 1344 0202 00B2     		sxth	r0, r0
 1345 0204 D047     		blx	r10
 1346              	.LVL148:
 1347              	.L83:
 774:..\lvgl\lv_draw/lv_draw_rect.c ****                     px_fp(rt_origo.x + LV_CIRC_OCT7_X(aa_p) + i, rt_origo.y + LV_CIRC_OCT7_Y(aa_p) 
 1348              		.loc 1 774 0
 1349 0206 0BF00A03 		and	r3, fp, #10
 1350 020a 0A2B     		cmp	r3, #10
ARM GAS  C:\Users\d3bug\AppData\Local\Temp\ccPpCIYA.s 			page 61


 1351 020c 23D1     		bne	.L84
 775:..\lvgl\lv_draw/lv_draw_rect.c ****                     px_fp(rt_origo.x + LV_CIRC_OCT8_X(aa_p) + 1, rt_origo.y + LV_CIRC_OCT8_Y(aa_p) 
 1352              		.loc 1 775 0
 1353 020e 254B     		ldr	r3, .L128
 1354 0210 D3F800A0 		ldr	r10, [r3]
 1355 0214 1FFA84F9 		uxth	r9, r4
 1356 0218 BDF83880 		ldrh	r8, [sp, #56]
 1357              	.LVL149:
 1358 021c 059B     		ldr	r3, [sp, #20]
 1359 021e 1B7A     		ldrb	r3, [r3, #8]	@ zero_extendqisi2
 1360 0220 099A     		ldr	r2, [sp, #36]
 1361 0222 C8EB020E 		rsb	lr, r8, r2
 1362 0226 0EF1FF31 		add	r1, lr, #-1
 1363 022a 0B98     		ldr	r0, [sp, #44]
 1364 022c 3844     		add	r0, r0, r7
 1365 022e 4844     		add	r0, r0, r9
 1366 0230 0096     		str	r6, [sp]
 1367 0232 039A     		ldr	r2, [sp, #12]
 1368 0234 09B2     		sxth	r1, r1
 1369 0236 00B2     		sxth	r0, r0
 1370 0238 D047     		blx	r10
 1371              	.LVL150:
 776:..\lvgl\lv_draw/lv_draw_rect.c ****                 }
 1372              		.loc 1 776 0
 1373 023a 059B     		ldr	r3, [sp, #20]
 1374 023c 1B7A     		ldrb	r3, [r3, #8]	@ zero_extendqisi2
 1375 023e 0999     		ldr	r1, [sp, #36]
 1376 0240 C91B     		subs	r1, r1, r7
 1377 0242 C9EB0101 		rsb	r1, r9, r1
 1378 0246 0B98     		ldr	r0, [sp, #44]
 1379 0248 4044     		add	r0, r0, r8
 1380 024a 0130     		adds	r0, r0, #1
 1381 024c 0096     		str	r6, [sp]
 1382 024e 039A     		ldr	r2, [sp, #12]
 1383 0250 09B2     		sxth	r1, r1
 1384 0252 00B2     		sxth	r0, r0
 1385 0254 D047     		blx	r10
 1386              	.LVL151:
 1387              	.L84:
 1388              	.LBE90:
 749:..\lvgl\lv_draw/lv_draw_rect.c ****                 lv_opa_t aa_opa;
 1389              		.loc 1 749 0 discriminator 2
 1390 0256 0134     		adds	r4, r4, #1
 1391              	.LVL152:
 1392 0258 24B2     		sxth	r4, r4
 1393              	.LVL153:
 1394              	.L78:
 749:..\lvgl\lv_draw/lv_draw_rect.c ****                 lv_opa_t aa_opa;
 1395              		.loc 1 749 0 is_stmt 0 discriminator 1
 1396 025a AC42     		cmp	r4, r5
 1397 025c FFF64BAF 		blt	.L85
 780:..\lvgl\lv_draw/lv_draw_rect.c ****             out_y_seg_start = out_y_seg_end;
 1398              		.loc 1 780 0 is_stmt 1
 1399 0260 BDF96C30 		ldrsh	r3, [sp, #108]
 1400 0264 0E93     		str	r3, [sp, #56]
 1401              	.LVL154:
 781:..\lvgl\lv_draw/lv_draw_rect.c ****         }
ARM GAS  C:\Users\d3bug\AppData\Local\Temp\ccPpCIYA.s 			page 62


 1402              		.loc 1 781 0
 1403 0266 069B     		ldr	r3, [sp, #24]
 1404 0268 0F93     		str	r3, [sp, #60]
 1405              	.LVL155:
 1406              	.L77:
 1407              	.LBE89:
 785:..\lvgl\lv_draw/lv_draw_rect.c ****             in_y_seg_end = cir_out.y;
 1408              		.loc 1 785 0
 1409 026a BDF96430 		ldrsh	r3, [sp, #100]
 1410 026e 0799     		ldr	r1, [sp, #28]
 1411 0270 9942     		cmp	r1, r3
 1412 0272 00F0E080 		beq	.L86
 1413              	.LBB91:
 786:..\lvgl\lv_draw/lv_draw_rect.c ****             lv_coord_t seg_size = in_y_seg_end - in_y_seg_start;
 1414              		.loc 1 786 0
 1415 0276 BDF96E30 		ldrsh	r3, [sp, #110]
 1416 027a 1293     		str	r3, [sp, #72]
 1417              	.LVL156:
 787:..\lvgl\lv_draw/lv_draw_rect.c ****             lv_point_t aa_p;
 1418              		.loc 1 787 0
 1419 027c BDF82020 		ldrh	r2, [sp, #32]
 1420 0280 0D92     		str	r2, [sp, #52]
 1421 0282 9B1A     		subs	r3, r3, r2
 1422              	.LVL157:
 1423 0284 1DB2     		sxth	r5, r3
 1424              	.LVL158:
 794:..\lvgl\lv_draw/lv_draw_rect.c ****                 lv_opa_t aa_opa;
 1425              		.loc 1 794 0
 1426 0286 0024     		movs	r4, #0
 1427 0288 8A46     		mov	r10, r1
 1428 028a CCE0     		b	.L87
 1429              	.LVL159:
 1430              	.L98:
 1431              	.LBB92:
 797:..\lvgl\lv_draw/lv_draw_rect.c ****                     aa_opa = opa - antialias_get_opa_circ(seg_size, i, opa);
 1432              		.loc 1 797 0
 1433 028c 052D     		cmp	r5, #5
 1434 028e 0BDD     		ble	.L88
 798:..\lvgl\lv_draw/lv_draw_rect.c ****                 } else {
 1435              		.loc 1 798 0
 1436 0290 049E     		ldr	r6, [sp, #16]
 1437 0292 3246     		mov	r2, r6
 1438 0294 2146     		mov	r1, r4
 1439 0296 2846     		mov	r0, r5
 1440 0298 FFF7FEFF 		bl	antialias_get_opa_circ
 1441              	.LVL160:
 1442 029c 301A     		subs	r0, r6, r0
 1443 029e C3B2     		uxtb	r3, r0
 1444 02a0 0693     		str	r3, [sp, #24]
 1445              	.LVL161:
 1446 02a2 07E0     		b	.L89
 1447              	.L129:
 1448              		.align	2
 1449              	.L128:
 1450 02a4 00000000 		.word	px_fp
 1451              	.LVL162:
 1452              	.L88:
ARM GAS  C:\Users\d3bug\AppData\Local\Temp\ccPpCIYA.s 			page 63


 800:..\lvgl\lv_draw/lv_draw_rect.c ****                 }
 1453              		.loc 1 800 0
 1454 02a8 049A     		ldr	r2, [sp, #16]
 1455 02aa 2146     		mov	r1, r4
 1456 02ac 2846     		mov	r0, r5
 1457 02ae FFF7FEFF 		bl	lv_draw_aa_get_opa
 1458              	.LVL163:
 1459 02b2 0690     		str	r0, [sp, #24]
 1460              	.LVL164:
 1461              	.L89:
 1462 02b4 0BF00909 		and	r9, fp, #9
 803:..\lvgl\lv_draw/lv_draw_rect.c ****                     px_fp(rb_origo.x + LV_CIRC_OCT1_X(aa_p) - 1, rb_origo.y + LV_CIRC_OCT1_Y(aa_p) 
 1463              		.loc 1 803 0
 1464 02b8 B9F1090F 		cmp	r9, #9
 1465 02bc 11D1     		bne	.L90
 804:..\lvgl\lv_draw/lv_draw_rect.c ****                 }
 1466              		.loc 1 804 0
 1467 02be 059B     		ldr	r3, [sp, #20]
 1468 02c0 1B7A     		ldrb	r3, [r3, #8]	@ zero_extendqisi2
 1469 02c2 0C9A     		ldr	r2, [sp, #48]
 1470 02c4 0D99     		ldr	r1, [sp, #52]
 1471 02c6 5118     		adds	r1, r2, r1
 1472 02c8 2144     		add	r1, r1, r4
 1473 02ca 0B9A     		ldr	r2, [sp, #44]
 1474 02cc 02EB0A00 		add	r0, r2, r10
 1475 02d0 0138     		subs	r0, r0, #1
 1476 02d2 069A     		ldr	r2, [sp, #24]
 1477 02d4 0092     		str	r2, [sp]
 1478 02d6 A64A     		ldr	r2, .L130
 1479 02d8 1668     		ldr	r6, [r2]
 1480 02da 039A     		ldr	r2, [sp, #12]
 1481 02dc 09B2     		sxth	r1, r1
 1482 02de 00B2     		sxth	r0, r0
 1483 02e0 B047     		blx	r6
 1484              	.LVL165:
 1485              	.L90:
 1486 02e2 0BF00508 		and	r8, fp, #5
 1487              	.LVL166:
 807:..\lvgl\lv_draw/lv_draw_rect.c ****                     px_fp(lb_origo.x + LV_CIRC_OCT3_X(aa_p) - i, lb_origo.y + LV_CIRC_OCT3_Y(aa_p) 
 1488              		.loc 1 807 0
 1489 02e6 B8F1050F 		cmp	r8, #5
 1490 02ea 11D1     		bne	.L91
 808:..\lvgl\lv_draw/lv_draw_rect.c ****                 }
 1491              		.loc 1 808 0
 1492 02ec 059B     		ldr	r3, [sp, #20]
 1493 02ee 1B7A     		ldrb	r3, [r3, #8]	@ zero_extendqisi2
 1494 02f0 0C9A     		ldr	r2, [sp, #48]
 1495 02f2 02EB0A01 		add	r1, r2, r10
 1496 02f6 0139     		subs	r1, r1, #1
 1497 02f8 0A9A     		ldr	r2, [sp, #40]
 1498 02fa 0D98     		ldr	r0, [sp, #52]
 1499 02fc 101A     		subs	r0, r2, r0
 1500 02fe 001B     		subs	r0, r0, r4
 1501 0300 069A     		ldr	r2, [sp, #24]
 1502 0302 0092     		str	r2, [sp]
 1503 0304 9A4A     		ldr	r2, .L130
 1504 0306 1668     		ldr	r6, [r2]
ARM GAS  C:\Users\d3bug\AppData\Local\Temp\ccPpCIYA.s 			page 64


 1505 0308 039A     		ldr	r2, [sp, #12]
 1506 030a 09B2     		sxth	r1, r1
 1507 030c 00B2     		sxth	r0, r0
 1508 030e B047     		blx	r6
 1509              	.LVL167:
 1510              	.L91:
 1511 0310 0BF00607 		and	r7, fp, #6
 811:..\lvgl\lv_draw/lv_draw_rect.c ****                     px_fp(lt_origo.x + LV_CIRC_OCT5_X(aa_p) + 1, lt_origo.y + LV_CIRC_OCT5_Y(aa_p) 
 1512              		.loc 1 811 0
 1513 0314 062F     		cmp	r7, #6
 1514 0316 11D1     		bne	.L92
 812:..\lvgl\lv_draw/lv_draw_rect.c ****                 }
 1515              		.loc 1 812 0
 1516 0318 059B     		ldr	r3, [sp, #20]
 1517 031a 1B7A     		ldrb	r3, [r3, #8]	@ zero_extendqisi2
 1518 031c 099A     		ldr	r2, [sp, #36]
 1519 031e 0D99     		ldr	r1, [sp, #52]
 1520 0320 511A     		subs	r1, r2, r1
 1521 0322 091B     		subs	r1, r1, r4
 1522 0324 0A9A     		ldr	r2, [sp, #40]
 1523 0326 CAEB0200 		rsb	r0, r10, r2
 1524 032a 0130     		adds	r0, r0, #1
 1525 032c 069A     		ldr	r2, [sp, #24]
 1526 032e 0092     		str	r2, [sp]
 1527 0330 8F4A     		ldr	r2, .L130
 1528 0332 1668     		ldr	r6, [r2]
 1529 0334 039A     		ldr	r2, [sp, #12]
 1530 0336 09B2     		sxth	r1, r1
 1531 0338 00B2     		sxth	r0, r0
 1532 033a B047     		blx	r6
 1533              	.LVL168:
 1534              	.L92:
 1535 033c 0BF00A03 		and	r3, fp, #10
 1536 0340 0793     		str	r3, [sp, #28]
 815:..\lvgl\lv_draw/lv_draw_rect.c ****                     px_fp(rt_origo.x + LV_CIRC_OCT7_X(aa_p) + i, rt_origo.y + LV_CIRC_OCT7_Y(aa_p) 
 1537              		.loc 1 815 0
 1538 0342 0A2B     		cmp	r3, #10
 1539 0344 12D1     		bne	.L93
 816:..\lvgl\lv_draw/lv_draw_rect.c ****                 }
 1540              		.loc 1 816 0
 1541 0346 059B     		ldr	r3, [sp, #20]
 1542 0348 1B7A     		ldrb	r3, [r3, #8]	@ zero_extendqisi2
 1543 034a 099A     		ldr	r2, [sp, #36]
 1544 034c CAEB0201 		rsb	r1, r10, r2
 1545 0350 0131     		adds	r1, r1, #1
 1546 0352 0B9A     		ldr	r2, [sp, #44]
 1547 0354 0D98     		ldr	r0, [sp, #52]
 1548 0356 1018     		adds	r0, r2, r0
 1549 0358 2044     		add	r0, r0, r4
 1550 035a 069A     		ldr	r2, [sp, #24]
 1551 035c 0092     		str	r2, [sp]
 1552 035e 844A     		ldr	r2, .L130
 1553 0360 1268     		ldr	r2, [r2]
 1554 0362 1646     		mov	r6, r2
 1555 0364 039A     		ldr	r2, [sp, #12]
 1556 0366 09B2     		sxth	r1, r1
 1557 0368 00B2     		sxth	r0, r0
ARM GAS  C:\Users\d3bug\AppData\Local\Temp\ccPpCIYA.s 			page 65


 1558 036a B047     		blx	r6
 1559              	.LVL169:
 1560              	.L93:
 820:..\lvgl\lv_draw/lv_draw_rect.c ****                     if((part & LV_BORDER_BOTTOM) && (part & LV_BORDER_RIGHT)) {
 1561              		.loc 1 820 0
 1562 036c 0AF1FF33 		add	r3, r10, #-1
 1563 0370 089A     		ldr	r2, [sp, #32]
 1564 0372 2244     		add	r2, r2, r4
 1565 0374 9342     		cmp	r3, r2
 1566 0376 54D0     		beq	.L94
 821:..\lvgl\lv_draw/lv_draw_rect.c ****                         px_fp(rb_origo.x + LV_CIRC_OCT2_X(aa_p) + i, rb_origo.y + LV_CIRC_OCT2_Y(aa
 1567              		.loc 1 821 0
 1568 0378 B9F1090F 		cmp	r9, #9
 1569 037c 12D1     		bne	.L95
 822:..\lvgl\lv_draw/lv_draw_rect.c ****                     }
 1570              		.loc 1 822 0
 1571 037e 059B     		ldr	r3, [sp, #20]
 1572 0380 1B7A     		ldrb	r3, [r3, #8]	@ zero_extendqisi2
 1573 0382 0C9A     		ldr	r2, [sp, #48]
 1574 0384 02EB0A01 		add	r1, r2, r10
 1575 0388 0139     		subs	r1, r1, #1
 1576 038a 0B9A     		ldr	r2, [sp, #44]
 1577 038c 0D98     		ldr	r0, [sp, #52]
 1578 038e 1018     		adds	r0, r2, r0
 1579 0390 2044     		add	r0, r0, r4
 1580 0392 069A     		ldr	r2, [sp, #24]
 1581 0394 0092     		str	r2, [sp]
 1582 0396 764A     		ldr	r2, .L130
 1583 0398 D2F80090 		ldr	r9, [r2]
 1584 039c 039A     		ldr	r2, [sp, #12]
 1585 039e 09B2     		sxth	r1, r1
 1586 03a0 00B2     		sxth	r0, r0
 1587 03a2 C847     		blx	r9
 1588              	.LVL170:
 1589              	.L95:
 825:..\lvgl\lv_draw/lv_draw_rect.c ****                         px_fp(lb_origo.x + LV_CIRC_OCT4_X(aa_p) + 1, lb_origo.y + LV_CIRC_OCT4_Y(aa
 1590              		.loc 1 825 0
 1591 03a4 B8F1050F 		cmp	r8, #5
 1592 03a8 12D1     		bne	.L96
 826:..\lvgl\lv_draw/lv_draw_rect.c ****                     }
 1593              		.loc 1 826 0
 1594 03aa 059B     		ldr	r3, [sp, #20]
 1595 03ac 1B7A     		ldrb	r3, [r3, #8]	@ zero_extendqisi2
 1596 03ae 0C9A     		ldr	r2, [sp, #48]
 1597 03b0 0D99     		ldr	r1, [sp, #52]
 1598 03b2 5118     		adds	r1, r2, r1
 1599 03b4 2144     		add	r1, r1, r4
 1600 03b6 0A9A     		ldr	r2, [sp, #40]
 1601 03b8 CAEB0200 		rsb	r0, r10, r2
 1602 03bc 0130     		adds	r0, r0, #1
 1603 03be 069A     		ldr	r2, [sp, #24]
 1604 03c0 0092     		str	r2, [sp]
 1605 03c2 6B4A     		ldr	r2, .L130
 1606 03c4 D2F80080 		ldr	r8, [r2]
 1607 03c8 039A     		ldr	r2, [sp, #12]
 1608 03ca 09B2     		sxth	r1, r1
 1609 03cc 00B2     		sxth	r0, r0
ARM GAS  C:\Users\d3bug\AppData\Local\Temp\ccPpCIYA.s 			page 66


 1610 03ce C047     		blx	r8
 1611              	.LVL171:
 1612              	.L96:
 829:..\lvgl\lv_draw/lv_draw_rect.c ****                         px_fp(lt_origo.x + LV_CIRC_OCT6_X(aa_p) - i, lt_origo.y + LV_CIRC_OCT6_Y(aa
 1613              		.loc 1 829 0
 1614 03d0 062F     		cmp	r7, #6
 1615 03d2 11D1     		bne	.L97
 830:..\lvgl\lv_draw/lv_draw_rect.c ****                     }
 1616              		.loc 1 830 0
 1617 03d4 059B     		ldr	r3, [sp, #20]
 1618 03d6 1B7A     		ldrb	r3, [r3, #8]	@ zero_extendqisi2
 1619 03d8 099A     		ldr	r2, [sp, #36]
 1620 03da CAEB0201 		rsb	r1, r10, r2
 1621 03de 0131     		adds	r1, r1, #1
 1622 03e0 0A9A     		ldr	r2, [sp, #40]
 1623 03e2 0D98     		ldr	r0, [sp, #52]
 1624 03e4 101A     		subs	r0, r2, r0
 1625 03e6 001B     		subs	r0, r0, r4
 1626 03e8 069A     		ldr	r2, [sp, #24]
 1627 03ea 0092     		str	r2, [sp]
 1628 03ec 604A     		ldr	r2, .L130
 1629 03ee 1768     		ldr	r7, [r2]
 1630 03f0 039A     		ldr	r2, [sp, #12]
 1631 03f2 09B2     		sxth	r1, r1
 1632 03f4 00B2     		sxth	r0, r0
 1633 03f6 B847     		blx	r7
 1634              	.LVL172:
 1635              	.L97:
 833:..\lvgl\lv_draw/lv_draw_rect.c ****                         px_fp(rt_origo.x + LV_CIRC_OCT8_X(aa_p) - 1, rt_origo.y + LV_CIRC_OCT8_Y(aa
 1636              		.loc 1 833 0
 1637 03f8 079B     		ldr	r3, [sp, #28]
 1638 03fa 0A2B     		cmp	r3, #10
 1639 03fc 11D1     		bne	.L94
 834:..\lvgl\lv_draw/lv_draw_rect.c ****                     }
 1640              		.loc 1 834 0
 1641 03fe 059B     		ldr	r3, [sp, #20]
 1642 0400 1B7A     		ldrb	r3, [r3, #8]	@ zero_extendqisi2
 1643 0402 099A     		ldr	r2, [sp, #36]
 1644 0404 0D99     		ldr	r1, [sp, #52]
 1645 0406 511A     		subs	r1, r2, r1
 1646 0408 091B     		subs	r1, r1, r4
 1647 040a 0B9A     		ldr	r2, [sp, #44]
 1648 040c 02EB0A00 		add	r0, r2, r10
 1649 0410 0138     		subs	r0, r0, #1
 1650 0412 069A     		ldr	r2, [sp, #24]
 1651 0414 0092     		str	r2, [sp]
 1652 0416 564A     		ldr	r2, .L130
 1653 0418 1668     		ldr	r6, [r2]
 1654 041a 039A     		ldr	r2, [sp, #12]
 1655 041c 09B2     		sxth	r1, r1
 1656 041e 00B2     		sxth	r0, r0
 1657 0420 B047     		blx	r6
 1658              	.LVL173:
 1659              	.L94:
 1660              	.LBE92:
 794:..\lvgl\lv_draw/lv_draw_rect.c ****                 lv_opa_t aa_opa;
 1661              		.loc 1 794 0 discriminator 2
ARM GAS  C:\Users\d3bug\AppData\Local\Temp\ccPpCIYA.s 			page 67


 1662 0422 0134     		adds	r4, r4, #1
 1663              	.LVL174:
 1664 0424 24B2     		sxth	r4, r4
 1665              	.LVL175:
 1666              	.L87:
 794:..\lvgl\lv_draw/lv_draw_rect.c ****                 lv_opa_t aa_opa;
 1667              		.loc 1 794 0 is_stmt 0 discriminator 1
 1668 0426 AC42     		cmp	r4, r5
 1669 0428 FFF630AF 		blt	.L98
 840:..\lvgl\lv_draw/lv_draw_rect.c ****             in_y_seg_start = in_y_seg_end;
 1670              		.loc 1 840 0 is_stmt 1
 1671 042c BDF96430 		ldrsh	r3, [sp, #100]
 1672 0430 0793     		str	r3, [sp, #28]
 1673              	.LVL176:
 841:..\lvgl\lv_draw/lv_draw_rect.c **** 
 1674              		.loc 1 841 0
 1675 0432 129B     		ldr	r3, [sp, #72]
 1676 0434 0893     		str	r3, [sp, #32]
 1677              	.LVL177:
 1678              	.L86:
 1679              	.LBE91:
 849:..\lvgl\lv_draw/lv_draw_rect.c ****             circ_area.x1 = rb_origo.x + LV_CIRC_OCT1_X(cir_out) - act_w2;
 1680              		.loc 1 849 0
 1681 0436 0BF00903 		and	r3, fp, #9
 1682 043a 092B     		cmp	r3, #9
 1683 043c 36D1     		bne	.L99
 850:..\lvgl\lv_draw/lv_draw_rect.c ****             circ_area.x2 = rb_origo.x + LV_CIRC_OCT1_X(cir_out);
 1684              		.loc 1 850 0
 1685 043e BDF96C30 		ldrsh	r3, [sp, #108]
 1686 0442 0B9D     		ldr	r5, [sp, #44]
 1687 0444 2B44     		add	r3, r3, r5
 1688 0446 9BB2     		uxth	r3, r3
 1689 0448 119A     		ldr	r2, [sp, #68]
 1690 044a 9A1A     		subs	r2, r3, r2
 1691 044c ADF85820 		strh	r2, [sp, #88]	@ movhi
 851:..\lvgl\lv_draw/lv_draw_rect.c ****             circ_area.y1 = rb_origo.y + LV_CIRC_OCT1_Y(cir_out);
 1692              		.loc 1 851 0
 1693 0450 ADF85C30 		strh	r3, [sp, #92]	@ movhi
 852:..\lvgl\lv_draw/lv_draw_rect.c ****             circ_area.y2 = rb_origo.y + LV_CIRC_OCT1_Y(cir_out);
 1694              		.loc 1 852 0
 1695 0454 BDF96E30 		ldrsh	r3, [sp, #110]
 1696 0458 0C9E     		ldr	r6, [sp, #48]
 1697 045a 3344     		add	r3, r3, r6
 1698 045c 1BB2     		sxth	r3, r3
 1699 045e ADF85A30 		strh	r3, [sp, #90]	@ movhi
 853:..\lvgl\lv_draw/lv_draw_rect.c ****             fill_fp(&circ_area, mask, color, opa);
 1700              		.loc 1 853 0
 1701 0462 ADF85E30 		strh	r3, [sp, #94]	@ movhi
 854:..\lvgl\lv_draw/lv_draw_rect.c **** 
 1702              		.loc 1 854 0
 1703 0466 434B     		ldr	r3, .L130+4
 1704 0468 1C68     		ldr	r4, [r3]
 1705 046a DDF81090 		ldr	r9, [sp, #16]
 1706 046e 4B46     		mov	r3, r9
 1707 0470 9DF84F80 		ldrb	r8, [sp, #79]	@ zero_extendqisi2
 1708              	.LVL178:
 1709 0474 4246     		mov	r2, r8
ARM GAS  C:\Users\d3bug\AppData\Local\Temp\ccPpCIYA.s 			page 68


 1710 0476 039F     		ldr	r7, [sp, #12]
 1711 0478 3946     		mov	r1, r7
 1712 047a 16A8     		add	r0, sp, #88
 1713 047c A047     		blx	r4
 1714              	.LVL179:
 856:..\lvgl\lv_draw/lv_draw_rect.c ****             circ_area.x2 = rb_origo.x + LV_CIRC_OCT2_X(cir_out);
 1715              		.loc 1 856 0
 1716 047e BDF96E30 		ldrsh	r3, [sp, #110]
 1717 0482 2B44     		add	r3, r3, r5
 1718 0484 1BB2     		sxth	r3, r3
 1719 0486 ADF85830 		strh	r3, [sp, #88]	@ movhi
 857:..\lvgl\lv_draw/lv_draw_rect.c ****             circ_area.y1 = rb_origo.y + LV_CIRC_OCT2_Y(cir_out) - act_w1;
 1720              		.loc 1 857 0
 1721 048a ADF85C30 		strh	r3, [sp, #92]	@ movhi
 858:..\lvgl\lv_draw/lv_draw_rect.c ****             circ_area.y2 = rb_origo.y + LV_CIRC_OCT2_Y(cir_out);
 1722              		.loc 1 858 0
 1723 048e BDF96C30 		ldrsh	r3, [sp, #108]
 1724 0492 3344     		add	r3, r3, r6
 1725 0494 9BB2     		uxth	r3, r3
 1726 0496 1098     		ldr	r0, [sp, #64]
 1727 0498 1A1A     		subs	r2, r3, r0
 1728 049a ADF85A20 		strh	r2, [sp, #90]	@ movhi
 859:..\lvgl\lv_draw/lv_draw_rect.c ****             fill_fp(&circ_area, mask, color, opa);
 1729              		.loc 1 859 0
 1730 049e ADF85E30 		strh	r3, [sp, #94]	@ movhi
 860:..\lvgl\lv_draw/lv_draw_rect.c ****         }
 1731              		.loc 1 860 0
 1732 04a2 4B46     		mov	r3, r9
 1733 04a4 4246     		mov	r2, r8
 1734 04a6 3946     		mov	r1, r7
 1735 04a8 16A8     		add	r0, sp, #88
 1736 04aa A047     		blx	r4
 1737              	.LVL180:
 1738              	.L99:
 864:..\lvgl\lv_draw/lv_draw_rect.c ****             circ_area.x1 = lb_origo.x + LV_CIRC_OCT3_X(cir_out);
 1739              		.loc 1 864 0
 1740 04ac 0BF00503 		and	r3, fp, #5
 1741 04b0 052B     		cmp	r3, #5
 1742 04b2 36D1     		bne	.L100
 865:..\lvgl\lv_draw/lv_draw_rect.c ****             circ_area.x2 = lb_origo.x + LV_CIRC_OCT3_X(cir_out);
 1743              		.loc 1 865 0
 1744 04b4 BDF96E30 		ldrsh	r3, [sp, #110]
 1745 04b8 0A9D     		ldr	r5, [sp, #40]
 1746 04ba EB1A     		subs	r3, r5, r3
 1747 04bc 1BB2     		sxth	r3, r3
 1748 04be ADF85830 		strh	r3, [sp, #88]	@ movhi
 866:..\lvgl\lv_draw/lv_draw_rect.c ****             circ_area.y1 = lb_origo.y + LV_CIRC_OCT3_Y(cir_out) - act_w2;
 1749              		.loc 1 866 0
 1750 04c2 ADF85C30 		strh	r3, [sp, #92]	@ movhi
 867:..\lvgl\lv_draw/lv_draw_rect.c ****             circ_area.y2 = lb_origo.y + LV_CIRC_OCT3_Y(cir_out);
 1751              		.loc 1 867 0
 1752 04c6 BDF96C30 		ldrsh	r3, [sp, #108]
 1753 04ca 0C9E     		ldr	r6, [sp, #48]
 1754 04cc 3344     		add	r3, r3, r6
 1755 04ce 9BB2     		uxth	r3, r3
 1756 04d0 119A     		ldr	r2, [sp, #68]
 1757 04d2 9A1A     		subs	r2, r3, r2
ARM GAS  C:\Users\d3bug\AppData\Local\Temp\ccPpCIYA.s 			page 69


 1758 04d4 ADF85A20 		strh	r2, [sp, #90]	@ movhi
 868:..\lvgl\lv_draw/lv_draw_rect.c ****             fill_fp(&circ_area, mask, color, opa);
 1759              		.loc 1 868 0
 1760 04d8 ADF85E30 		strh	r3, [sp, #94]	@ movhi
 869:..\lvgl\lv_draw/lv_draw_rect.c **** 
 1761              		.loc 1 869 0
 1762 04dc 254B     		ldr	r3, .L130+4
 1763 04de 1C68     		ldr	r4, [r3]
 1764 04e0 DDF81090 		ldr	r9, [sp, #16]
 1765 04e4 4B46     		mov	r3, r9
 1766 04e6 9DF84F80 		ldrb	r8, [sp, #79]	@ zero_extendqisi2
 1767              	.LVL181:
 1768 04ea 4246     		mov	r2, r8
 1769 04ec 039F     		ldr	r7, [sp, #12]
 1770 04ee 3946     		mov	r1, r7
 1771 04f0 16A8     		add	r0, sp, #88
 1772 04f2 A047     		blx	r4
 1773              	.LVL182:
 871:..\lvgl\lv_draw/lv_draw_rect.c ****             circ_area.x2 = lb_origo.x + LV_CIRC_OCT4_X(cir_out) + act_w1;
 1774              		.loc 1 871 0
 1775 04f4 BDF96C30 		ldrsh	r3, [sp, #108]
 1776 04f8 EB1A     		subs	r3, r5, r3
 1777 04fa 9BB2     		uxth	r3, r3
 1778 04fc ADF85830 		strh	r3, [sp, #88]	@ movhi
 872:..\lvgl\lv_draw/lv_draw_rect.c ****             circ_area.y1 = lb_origo.y + LV_CIRC_OCT4_Y(cir_out);
 1779              		.loc 1 872 0
 1780 0500 1098     		ldr	r0, [sp, #64]
 1781 0502 0344     		add	r3, r3, r0
 1782 0504 ADF85C30 		strh	r3, [sp, #92]	@ movhi
 873:..\lvgl\lv_draw/lv_draw_rect.c ****             circ_area.y2 = lb_origo.y + LV_CIRC_OCT4_Y(cir_out);
 1783              		.loc 1 873 0
 1784 0508 BDF96E30 		ldrsh	r3, [sp, #110]
 1785 050c 3344     		add	r3, r3, r6
 1786 050e 1BB2     		sxth	r3, r3
 1787 0510 ADF85A30 		strh	r3, [sp, #90]	@ movhi
 874:..\lvgl\lv_draw/lv_draw_rect.c ****             fill_fp(&circ_area, mask, color, opa);
 1788              		.loc 1 874 0
 1789 0514 ADF85E30 		strh	r3, [sp, #94]	@ movhi
 875:..\lvgl\lv_draw/lv_draw_rect.c ****         }
 1790              		.loc 1 875 0
 1791 0518 4B46     		mov	r3, r9
 1792 051a 4246     		mov	r2, r8
 1793 051c 3946     		mov	r1, r7
 1794 051e 16A8     		add	r0, sp, #88
 1795 0520 A047     		blx	r4
 1796              	.LVL183:
 1797              	.L100:
 879:..\lvgl\lv_draw/lv_draw_rect.c ****             if(lb_origo.y + LV_CIRC_OCT4_Y(cir_out) > lt_origo.y + LV_CIRC_OCT5_Y(cir_out)) {
 1798              		.loc 1 879 0
 1799 0522 0BF00603 		and	r3, fp, #6
 1800 0526 062B     		cmp	r3, #6
 1801 0528 42D1     		bne	.L101
 880:..\lvgl\lv_draw/lv_draw_rect.c ****                 /*Don't draw if the lines are common in the middle*/
 1802              		.loc 1 880 0
 1803 052a BDF96E30 		ldrsh	r3, [sp, #110]
 1804 052e 159A     		ldr	r2, [sp, #84]
 1805 0530 D118     		adds	r1, r2, r3
ARM GAS  C:\Users\d3bug\AppData\Local\Temp\ccPpCIYA.s 			page 70


 1806 0532 149A     		ldr	r2, [sp, #80]
 1807 0534 D21A     		subs	r2, r2, r3
 1808 0536 9142     		cmp	r1, r2
 1809 0538 1EDD     		ble	.L102
 882:..\lvgl\lv_draw/lv_draw_rect.c ****                 circ_area.x2 = lt_origo.x + LV_CIRC_OCT5_X(cir_out) + act_w2;
 1810              		.loc 1 882 0
 1811 053a BDF96C20 		ldrsh	r2, [sp, #108]
 1812 053e 0A99     		ldr	r1, [sp, #40]
 1813 0540 8A1A     		subs	r2, r1, r2
 1814 0542 92B2     		uxth	r2, r2
 1815 0544 ADF85820 		strh	r2, [sp, #88]	@ movhi
 883:..\lvgl\lv_draw/lv_draw_rect.c ****                 circ_area.y1 = lt_origo.y + LV_CIRC_OCT5_Y(cir_out);
 1816              		.loc 1 883 0
 1817 0548 1199     		ldr	r1, [sp, #68]
 1818 054a 0A44     		add	r2, r2, r1
 1819 054c ADF85C20 		strh	r2, [sp, #92]	@ movhi
 884:..\lvgl\lv_draw/lv_draw_rect.c ****                 circ_area.y2 = lt_origo.y + LV_CIRC_OCT5_Y(cir_out);
 1820              		.loc 1 884 0
 1821 0550 099A     		ldr	r2, [sp, #36]
 1822 0552 D31A     		subs	r3, r2, r3
 1823 0554 1BB2     		sxth	r3, r3
 1824 0556 ADF85A30 		strh	r3, [sp, #90]	@ movhi
 885:..\lvgl\lv_draw/lv_draw_rect.c ****                 fill_fp(&circ_area, mask, color, opa);
 1825              		.loc 1 885 0
 1826 055a ADF85E30 		strh	r3, [sp, #94]	@ movhi
 886:..\lvgl\lv_draw/lv_draw_rect.c ****             }
 1827              		.loc 1 886 0
 1828 055e 054B     		ldr	r3, .L130+4
 1829 0560 1C68     		ldr	r4, [r3]
 1830 0562 049B     		ldr	r3, [sp, #16]
 1831 0564 9DF84F20 		ldrb	r2, [sp, #79]	@ zero_extendqisi2
 1832 0568 0399     		ldr	r1, [sp, #12]
 1833 056a 16A8     		add	r0, sp, #88
 1834 056c A047     		blx	r4
 1835              	.LVL184:
 1836 056e 03E0     		b	.L131
 1837              	.L132:
 1838              		.align	2
 1839              	.L130:
 1840 0570 00000000 		.word	px_fp
 1841 0574 00000000 		.word	fill_fp
 1842              	.L131:
 1843              	.L102:
 889:..\lvgl\lv_draw/lv_draw_rect.c ****             circ_area.x2 = lt_origo.x + LV_CIRC_OCT6_X(cir_out);
 1844              		.loc 1 889 0
 1845 0578 BDF96E30 		ldrsh	r3, [sp, #110]
 1846 057c 0A9A     		ldr	r2, [sp, #40]
 1847 057e D31A     		subs	r3, r2, r3
 1848 0580 1BB2     		sxth	r3, r3
 1849 0582 ADF85830 		strh	r3, [sp, #88]	@ movhi
 890:..\lvgl\lv_draw/lv_draw_rect.c ****             circ_area.y1 = lt_origo.y + LV_CIRC_OCT6_Y(cir_out);
 1850              		.loc 1 890 0
 1851 0586 ADF85C30 		strh	r3, [sp, #92]	@ movhi
 891:..\lvgl\lv_draw/lv_draw_rect.c ****             circ_area.y2 = lt_origo.y + LV_CIRC_OCT6_Y(cir_out) + act_w1;
 1852              		.loc 1 891 0
 1853 058a BDF96C30 		ldrsh	r3, [sp, #108]
 1854 058e 099A     		ldr	r2, [sp, #36]
ARM GAS  C:\Users\d3bug\AppData\Local\Temp\ccPpCIYA.s 			page 71


 1855 0590 D31A     		subs	r3, r2, r3
 1856 0592 9BB2     		uxth	r3, r3
 1857 0594 ADF85A30 		strh	r3, [sp, #90]	@ movhi
 892:..\lvgl\lv_draw/lv_draw_rect.c ****             fill_fp(&circ_area, mask, color, opa);
 1858              		.loc 1 892 0
 1859 0598 109A     		ldr	r2, [sp, #64]
 1860 059a 1344     		add	r3, r3, r2
 1861 059c ADF85E30 		strh	r3, [sp, #94]	@ movhi
 893:..\lvgl\lv_draw/lv_draw_rect.c ****         }
 1862              		.loc 1 893 0
 1863 05a0 344B     		ldr	r3, .L133
 1864 05a2 1C68     		ldr	r4, [r3]
 1865 05a4 049B     		ldr	r3, [sp, #16]
 1866 05a6 9DF84F20 		ldrb	r2, [sp, #79]	@ zero_extendqisi2
 1867 05aa 0399     		ldr	r1, [sp, #12]
 1868 05ac 16A8     		add	r0, sp, #88
 1869 05ae A047     		blx	r4
 1870              	.LVL185:
 1871              	.L101:
 897:..\lvgl\lv_draw/lv_draw_rect.c ****             circ_area.x1 = rt_origo.x + LV_CIRC_OCT7_X(cir_out);
 1872              		.loc 1 897 0
 1873 05b0 0BF00A03 		and	r3, fp, #10
 1874 05b4 0A2B     		cmp	r3, #10
 1875 05b6 3BD1     		bne	.L103
 898:..\lvgl\lv_draw/lv_draw_rect.c ****             circ_area.x2 = rt_origo.x + LV_CIRC_OCT7_X(cir_out);
 1876              		.loc 1 898 0
 1877 05b8 BDF96E30 		ldrsh	r3, [sp, #110]
 1878 05bc 0B9A     		ldr	r2, [sp, #44]
 1879 05be 1344     		add	r3, r3, r2
 1880 05c0 1BB2     		sxth	r3, r3
 1881 05c2 ADF85830 		strh	r3, [sp, #88]	@ movhi
 899:..\lvgl\lv_draw/lv_draw_rect.c ****             circ_area.y1 = rt_origo.y + LV_CIRC_OCT7_Y(cir_out);
 1882              		.loc 1 899 0
 1883 05c6 ADF85C30 		strh	r3, [sp, #92]	@ movhi
 900:..\lvgl\lv_draw/lv_draw_rect.c ****             circ_area.y2 = rt_origo.y + LV_CIRC_OCT7_Y(cir_out) + act_w2;
 1884              		.loc 1 900 0
 1885 05ca BDF96C30 		ldrsh	r3, [sp, #108]
 1886 05ce 099A     		ldr	r2, [sp, #36]
 1887 05d0 D31A     		subs	r3, r2, r3
 1888 05d2 9BB2     		uxth	r3, r3
 1889 05d4 ADF85A30 		strh	r3, [sp, #90]	@ movhi
 901:..\lvgl\lv_draw/lv_draw_rect.c ****             fill_fp(&circ_area, mask, color, opa);
 1890              		.loc 1 901 0
 1891 05d8 119A     		ldr	r2, [sp, #68]
 1892 05da 1344     		add	r3, r3, r2
 1893 05dc ADF85E30 		strh	r3, [sp, #94]	@ movhi
 902:..\lvgl\lv_draw/lv_draw_rect.c **** 
 1894              		.loc 1 902 0
 1895 05e0 244B     		ldr	r3, .L133
 1896 05e2 1C68     		ldr	r4, [r3]
 1897 05e4 049B     		ldr	r3, [sp, #16]
 1898 05e6 9DF84F20 		ldrb	r2, [sp, #79]	@ zero_extendqisi2
 1899 05ea 0399     		ldr	r1, [sp, #12]
 1900 05ec 16A8     		add	r0, sp, #88
 1901 05ee A047     		blx	r4
 1902              	.LVL186:
 905:..\lvgl\lv_draw/lv_draw_rect.c ****                 circ_area.x1 = rt_origo.x + LV_CIRC_OCT8_X(cir_out) - act_w1;
ARM GAS  C:\Users\d3bug\AppData\Local\Temp\ccPpCIYA.s 			page 72


 1903              		.loc 1 905 0
 1904 05f0 BDF96E20 		ldrsh	r2, [sp, #110]
 1905 05f4 159B     		ldr	r3, [sp, #84]
 1906 05f6 9918     		adds	r1, r3, r2
 1907 05f8 149B     		ldr	r3, [sp, #80]
 1908 05fa 9B1A     		subs	r3, r3, r2
 1909 05fc 9942     		cmp	r1, r3
 1910 05fe 17DD     		ble	.L103
 906:..\lvgl\lv_draw/lv_draw_rect.c ****                 circ_area.x2 = rt_origo.x + LV_CIRC_OCT8_X(cir_out);
 1911              		.loc 1 906 0
 1912 0600 BDF96C10 		ldrsh	r1, [sp, #108]
 1913 0604 0B9B     		ldr	r3, [sp, #44]
 1914 0606 1944     		add	r1, r1, r3
 1915 0608 89B2     		uxth	r1, r1
 1916 060a 109B     		ldr	r3, [sp, #64]
 1917 060c CB1A     		subs	r3, r1, r3
 1918 060e ADF85830 		strh	r3, [sp, #88]	@ movhi
 907:..\lvgl\lv_draw/lv_draw_rect.c ****                 circ_area.y1 = rt_origo.y + LV_CIRC_OCT8_Y(cir_out);
 1919              		.loc 1 907 0
 1920 0612 ADF85C10 		strh	r1, [sp, #92]	@ movhi
 908:..\lvgl\lv_draw/lv_draw_rect.c ****                 circ_area.y2 = rt_origo.y + LV_CIRC_OCT8_Y(cir_out);
 1921              		.loc 1 908 0
 1922 0616 099B     		ldr	r3, [sp, #36]
 1923 0618 9B1A     		subs	r3, r3, r2
 1924 061a 1BB2     		sxth	r3, r3
 1925 061c ADF85A30 		strh	r3, [sp, #90]	@ movhi
 909:..\lvgl\lv_draw/lv_draw_rect.c ****                 fill_fp(&circ_area, mask, color, opa);
 1926              		.loc 1 909 0
 1927 0620 ADF85E30 		strh	r3, [sp, #94]	@ movhi
 910:..\lvgl\lv_draw/lv_draw_rect.c ****             }
 1928              		.loc 1 910 0
 1929 0624 049B     		ldr	r3, [sp, #16]
 1930 0626 9DF84F20 		ldrb	r2, [sp, #79]	@ zero_extendqisi2
 1931 062a 0399     		ldr	r1, [sp, #12]
 1932 062c 16A8     		add	r0, sp, #88
 1933 062e A047     		blx	r4
 1934              	.LVL187:
 1935              	.L103:
 913:..\lvgl\lv_draw/lv_draw_rect.c **** 
 1936              		.loc 1 913 0
 1937 0630 0DF16A01 		add	r1, sp, #106
 1938 0634 1BA8     		add	r0, sp, #108
 1939 0636 FFF7FEFF 		bl	lv_circ_next
 1940              	.LVL188:
 917:..\lvgl\lv_draw/lv_draw_rect.c ****             lv_circ_next(&cir_in, &tmp_in);
 1941              		.loc 1 917 0
 1942 063a BDF96620 		ldrsh	r2, [sp, #102]
 1943 063e BDF96430 		ldrsh	r3, [sp, #100]
 1944 0642 9A42     		cmp	r2, r3
 1945 0644 04DA     		bge	.L74
 918:..\lvgl\lv_draw/lv_draw_rect.c ****         }
 1946              		.loc 1 918 0
 1947 0646 0DF16201 		add	r1, sp, #98
 1948 064a 19A8     		add	r0, sp, #100
 1949 064c FFF7FEFF 		bl	lv_circ_next
 1950              	.LVL189:
 1951              	.L74:
ARM GAS  C:\Users\d3bug\AppData\Local\Temp\ccPpCIYA.s 			page 73


 727:..\lvgl\lv_draw/lv_draw_rect.c **** 
 1952              		.loc 1 727 0
 1953 0650 BDF96E30 		ldrsh	r3, [sp, #110]
 1954 0654 1A46     		mov	r2, r3
 1955 0656 0693     		str	r3, [sp, #24]
 1956 0658 BDF96C30 		ldrsh	r3, [sp, #108]
 1957 065c 9A42     		cmp	r2, r3
 1958 065e 7FF72CAD 		ble	.L105
 1959              	.LVL190:
 927:..\lvgl\lv_draw/lv_draw_rect.c ****     lv_point_t aa_p;
 1960              		.loc 1 927 0
 1961 0662 BDF83CA0 		ldrh	r10, [sp, #60]
 1962 0666 CAEB0209 		rsb	r9, r10, r2
 1963 066a 0FFA89F9 		sxth	r9, r9
 1964              	.LVL191:
 934:..\lvgl\lv_draw/lv_draw_rect.c ****         lv_opa_t aa_opa = opa - lv_draw_aa_get_opa(seg_size, i, opa);
 1965              		.loc 1 934 0
 1966 066e 0024     		movs	r4, #0
 1967 0670 A5E0     		b	.L106
 1968              	.L134:
 1969 0672 00BF     		.align	2
 1970              	.L133:
 1971 0674 00000000 		.word	fill_fp
 1972              	.LVL192:
 1973              	.L111:
 1974              	.LBB93:
 935:..\lvgl\lv_draw/lv_draw_rect.c ****         if((part & LV_BORDER_BOTTOM) && (part & LV_BORDER_RIGHT)) {
 1975              		.loc 1 935 0
 1976 0678 049D     		ldr	r5, [sp, #16]
 1977 067a 2A46     		mov	r2, r5
 1978 067c 2146     		mov	r1, r4
 1979 067e 4846     		mov	r0, r9
 1980 0680 FFF7FEFF 		bl	lv_draw_aa_get_opa
 1981              	.LVL193:
 1982 0684 281A     		subs	r0, r5, r0
 1983 0686 C5B2     		uxtb	r5, r0
 1984              	.LVL194:
 936:..\lvgl\lv_draw/lv_draw_rect.c ****             px_fp(rb_origo.x + LV_CIRC_OCT1_X(aa_p) + 1, rb_origo.y + LV_CIRC_OCT1_Y(aa_p) + i, mas
 1985              		.loc 1 936 0
 1986 0688 0BF00903 		and	r3, fp, #9
 1987 068c 092B     		cmp	r3, #9
 1988 068e 20D1     		bne	.L107
 937:..\lvgl\lv_draw/lv_draw_rect.c ****             px_fp(rb_origo.x + LV_CIRC_OCT2_X(aa_p) + i, rb_origo.y + LV_CIRC_OCT2_Y(aa_p) + 1, mas
 1989              		.loc 1 937 0
 1990 0690 7E4B     		ldr	r3, .L135
 1991 0692 D3F80080 		ldr	r8, [r3]
 1992              	.LVL195:
 1993 0696 BDF83860 		ldrh	r6, [sp, #56]
 1994 069a A7B2     		uxth	r7, r4
 1995 069c 059B     		ldr	r3, [sp, #20]
 1996 069e 1B7A     		ldrb	r3, [r3, #8]	@ zero_extendqisi2
 1997 06a0 0C9A     		ldr	r2, [sp, #48]
 1998 06a2 02EB0A01 		add	r1, r2, r10
 1999 06a6 3944     		add	r1, r1, r7
 2000 06a8 0B98     		ldr	r0, [sp, #44]
 2001 06aa 3044     		add	r0, r0, r6
 2002 06ac 0130     		adds	r0, r0, #1
ARM GAS  C:\Users\d3bug\AppData\Local\Temp\ccPpCIYA.s 			page 74


 2003 06ae 0095     		str	r5, [sp]
 2004 06b0 039A     		ldr	r2, [sp, #12]
 2005 06b2 09B2     		sxth	r1, r1
 2006 06b4 00B2     		sxth	r0, r0
 2007 06b6 C047     		blx	r8
 2008              	.LVL196:
 938:..\lvgl\lv_draw/lv_draw_rect.c ****         }
 2009              		.loc 1 938 0
 2010 06b8 059B     		ldr	r3, [sp, #20]
 2011 06ba 1B7A     		ldrb	r3, [r3, #8]	@ zero_extendqisi2
 2012 06bc 0C99     		ldr	r1, [sp, #48]
 2013 06be 3144     		add	r1, r1, r6
 2014 06c0 0131     		adds	r1, r1, #1
 2015 06c2 0B98     		ldr	r0, [sp, #44]
 2016 06c4 5044     		add	r0, r0, r10
 2017 06c6 3844     		add	r0, r0, r7
 2018 06c8 0095     		str	r5, [sp]
 2019 06ca 039A     		ldr	r2, [sp, #12]
 2020 06cc 09B2     		sxth	r1, r1
 2021 06ce 00B2     		sxth	r0, r0
 2022 06d0 C047     		blx	r8
 2023              	.LVL197:
 2024              	.L107:
 941:..\lvgl\lv_draw/lv_draw_rect.c ****             px_fp(lb_origo.x + LV_CIRC_OCT3_X(aa_p) - i, lb_origo.y + LV_CIRC_OCT3_Y(aa_p) + 1, mas
 2025              		.loc 1 941 0
 2026 06d2 0BF00503 		and	r3, fp, #5
 2027 06d6 052B     		cmp	r3, #5
 2028 06d8 22D1     		bne	.L108
 942:..\lvgl\lv_draw/lv_draw_rect.c ****             px_fp(lb_origo.x + LV_CIRC_OCT4_X(aa_p) - 1, lb_origo.y + LV_CIRC_OCT4_Y(aa_p) + i, mas
 2029              		.loc 1 942 0
 2030 06da 6C4B     		ldr	r3, .L135
 2031 06dc D3F80080 		ldr	r8, [r3]
 2032              	.LVL198:
 2033 06e0 A7B2     		uxth	r7, r4
 2034 06e2 BDF83860 		ldrh	r6, [sp, #56]
 2035 06e6 059B     		ldr	r3, [sp, #20]
 2036 06e8 1B7A     		ldrb	r3, [r3, #8]	@ zero_extendqisi2
 2037 06ea 0C9A     		ldr	r2, [sp, #48]
 2038 06ec 02EB060E 		add	lr, r2, r6
 2039 06f0 0EF10101 		add	r1, lr, #1
 2040 06f4 0A98     		ldr	r0, [sp, #40]
 2041 06f6 CAEB0000 		rsb	r0, r10, r0
 2042 06fa C01B     		subs	r0, r0, r7
 2043 06fc 0095     		str	r5, [sp]
 2044 06fe 039A     		ldr	r2, [sp, #12]
 2045 0700 09B2     		sxth	r1, r1
 2046 0702 00B2     		sxth	r0, r0
 2047 0704 C047     		blx	r8
 2048              	.LVL199:
 943:..\lvgl\lv_draw/lv_draw_rect.c ****         }
 2049              		.loc 1 943 0
 2050 0706 059B     		ldr	r3, [sp, #20]
 2051 0708 1B7A     		ldrb	r3, [r3, #8]	@ zero_extendqisi2
 2052 070a 0C99     		ldr	r1, [sp, #48]
 2053 070c 5144     		add	r1, r1, r10
 2054 070e 3944     		add	r1, r1, r7
 2055 0710 0A98     		ldr	r0, [sp, #40]
ARM GAS  C:\Users\d3bug\AppData\Local\Temp\ccPpCIYA.s 			page 75


 2056 0712 801B     		subs	r0, r0, r6
 2057 0714 0138     		subs	r0, r0, #1
 2058 0716 0095     		str	r5, [sp]
 2059 0718 039A     		ldr	r2, [sp, #12]
 2060 071a 09B2     		sxth	r1, r1
 2061 071c 00B2     		sxth	r0, r0
 2062 071e C047     		blx	r8
 2063              	.LVL200:
 2064              	.L108:
 946:..\lvgl\lv_draw/lv_draw_rect.c ****             px_fp(lt_origo.x + LV_CIRC_OCT5_X(aa_p) - 1, lt_origo.y + LV_CIRC_OCT5_Y(aa_p) - i, mas
 2065              		.loc 1 946 0
 2066 0720 0BF00603 		and	r3, fp, #6
 2067 0724 062B     		cmp	r3, #6
 2068 0726 21D1     		bne	.L109
 947:..\lvgl\lv_draw/lv_draw_rect.c ****             px_fp(lt_origo.x + LV_CIRC_OCT6_X(aa_p) - i, lt_origo.y + LV_CIRC_OCT6_Y(aa_p) - 1, mas
 2069              		.loc 1 947 0
 2070 0728 584B     		ldr	r3, .L135
 2071 072a D3F80080 		ldr	r8, [r3]
 2072              	.LVL201:
 2073 072e BDF83860 		ldrh	r6, [sp, #56]
 2074 0732 A7B2     		uxth	r7, r4
 2075 0734 059B     		ldr	r3, [sp, #20]
 2076 0736 1B7A     		ldrb	r3, [r3, #8]	@ zero_extendqisi2
 2077 0738 099A     		ldr	r2, [sp, #36]
 2078 073a CAEB0201 		rsb	r1, r10, r2
 2079 073e C91B     		subs	r1, r1, r7
 2080 0740 0A98     		ldr	r0, [sp, #40]
 2081 0742 801B     		subs	r0, r0, r6
 2082 0744 0138     		subs	r0, r0, #1
 2083 0746 0095     		str	r5, [sp]
 2084 0748 039A     		ldr	r2, [sp, #12]
 2085 074a 09B2     		sxth	r1, r1
 2086 074c 00B2     		sxth	r0, r0
 2087 074e C047     		blx	r8
 2088              	.LVL202:
 948:..\lvgl\lv_draw/lv_draw_rect.c ****         }
 2089              		.loc 1 948 0
 2090 0750 059B     		ldr	r3, [sp, #20]
 2091 0752 1B7A     		ldrb	r3, [r3, #8]	@ zero_extendqisi2
 2092 0754 0999     		ldr	r1, [sp, #36]
 2093 0756 891B     		subs	r1, r1, r6
 2094 0758 0139     		subs	r1, r1, #1
 2095 075a 0A98     		ldr	r0, [sp, #40]
 2096 075c CAEB0000 		rsb	r0, r10, r0
 2097 0760 C01B     		subs	r0, r0, r7
 2098 0762 0095     		str	r5, [sp]
 2099 0764 039A     		ldr	r2, [sp, #12]
 2100 0766 09B2     		sxth	r1, r1
 2101 0768 00B2     		sxth	r0, r0
 2102 076a C047     		blx	r8
 2103              	.LVL203:
 2104              	.L109:
 951:..\lvgl\lv_draw/lv_draw_rect.c ****             px_fp(rt_origo.x + LV_CIRC_OCT7_X(aa_p) + i, rt_origo.y + LV_CIRC_OCT7_Y(aa_p) - 1, mas
 2105              		.loc 1 951 0
 2106 076c 0BF00A03 		and	r3, fp, #10
 2107 0770 0A2B     		cmp	r3, #10
 2108 0772 22D1     		bne	.L110
ARM GAS  C:\Users\d3bug\AppData\Local\Temp\ccPpCIYA.s 			page 76


 952:..\lvgl\lv_draw/lv_draw_rect.c ****             px_fp(rt_origo.x + LV_CIRC_OCT8_X(aa_p) + 1, rt_origo.y + LV_CIRC_OCT8_Y(aa_p) - i, mas
 2109              		.loc 1 952 0
 2110 0774 454B     		ldr	r3, .L135
 2111 0776 D3F80080 		ldr	r8, [r3]
 2112              	.LVL204:
 2113 077a A7B2     		uxth	r7, r4
 2114 077c BDF83860 		ldrh	r6, [sp, #56]
 2115 0780 059B     		ldr	r3, [sp, #20]
 2116 0782 1B7A     		ldrb	r3, [r3, #8]	@ zero_extendqisi2
 2117 0784 099A     		ldr	r2, [sp, #36]
 2118 0786 C6EB020E 		rsb	lr, r6, r2
 2119 078a 0EF1FF31 		add	r1, lr, #-1
 2120 078e 0B98     		ldr	r0, [sp, #44]
 2121 0790 5044     		add	r0, r0, r10
 2122 0792 3844     		add	r0, r0, r7
 2123 0794 0095     		str	r5, [sp]
 2124 0796 039A     		ldr	r2, [sp, #12]
 2125 0798 09B2     		sxth	r1, r1
 2126 079a 00B2     		sxth	r0, r0
 2127 079c C047     		blx	r8
 2128              	.LVL205:
 953:..\lvgl\lv_draw/lv_draw_rect.c ****         }
 2129              		.loc 1 953 0
 2130 079e 059B     		ldr	r3, [sp, #20]
 2131 07a0 1B7A     		ldrb	r3, [r3, #8]	@ zero_extendqisi2
 2132 07a2 0999     		ldr	r1, [sp, #36]
 2133 07a4 CAEB0101 		rsb	r1, r10, r1
 2134 07a8 C91B     		subs	r1, r1, r7
 2135 07aa 0B98     		ldr	r0, [sp, #44]
 2136 07ac 3044     		add	r0, r0, r6
 2137 07ae 0130     		adds	r0, r0, #1
 2138 07b0 0095     		str	r5, [sp]
 2139 07b2 039A     		ldr	r2, [sp, #12]
 2140 07b4 09B2     		sxth	r1, r1
 2141 07b6 00B2     		sxth	r0, r0
 2142 07b8 C047     		blx	r8
 2143              	.LVL206:
 2144              	.L110:
 2145              	.LBE93:
 934:..\lvgl\lv_draw/lv_draw_rect.c ****         lv_opa_t aa_opa = opa - lv_draw_aa_get_opa(seg_size, i, opa);
 2146              		.loc 1 934 0 discriminator 2
 2147 07ba 0134     		adds	r4, r4, #1
 2148              	.LVL207:
 2149 07bc 24B2     		sxth	r4, r4
 2150              	.LVL208:
 2151              	.L106:
 934:..\lvgl\lv_draw/lv_draw_rect.c ****         lv_opa_t aa_opa = opa - lv_draw_aa_get_opa(seg_size, i, opa);
 2152              		.loc 1 934 0 is_stmt 0 discriminator 1
 2153 07be 4C45     		cmp	r4, r9
 2154 07c0 FFF65AAF 		blt	.L111
 958:..\lvgl\lv_draw/lv_draw_rect.c ****         aa_p.x = out_x_last;
 2155              		.loc 1 958 0 is_stmt 1
 2156 07c4 0E9B     		ldr	r3, [sp, #56]
 2157 07c6 0F9A     		ldr	r2, [sp, #60]
 2158 07c8 9B1A     		subs	r3, r3, r2
 2159 07ca 002B     		cmp	r3, #0
 2160 07cc B8BF     		it	lt
ARM GAS  C:\Users\d3bug\AppData\Local\Temp\ccPpCIYA.s 			page 77


 2161 07ce 5B42     		rsblt	r3, r3, #0
 2162 07d0 4B45     		cmp	r3, r9
 2163 07d2 4DD1     		bne	.L112
 2164              	.LBB94:
 962:..\lvgl\lv_draw/lv_draw_rect.c **** 
 2165              		.loc 1 962 0
 2166 07d4 049B     		ldr	r3, [sp, #16]
 2167 07d6 5D08     		lsrs	r5, r3, #1
 2168              	.LVL209:
 964:..\lvgl\lv_draw/lv_draw_rect.c ****             px_fp(rb_origo.x + LV_CIRC_OCT2_X(aa_p), rb_origo.y + LV_CIRC_OCT2_Y(aa_p), mask, style
 2169              		.loc 1 964 0
 2170 07d8 0BF00903 		and	r3, fp, #9
 2171 07dc 092B     		cmp	r3, #9
 2172 07de 0ED1     		bne	.L113
 965:..\lvgl\lv_draw/lv_draw_rect.c ****         }
 2173              		.loc 1 965 0
 2174 07e0 BDF83820 		ldrh	r2, [sp, #56]
 2175 07e4 059B     		ldr	r3, [sp, #20]
 2176 07e6 1B7A     		ldrb	r3, [r3, #8]	@ zero_extendqisi2
 2177 07e8 0C99     		ldr	r1, [sp, #48]
 2178 07ea 1144     		add	r1, r1, r2
 2179 07ec 0B98     		ldr	r0, [sp, #44]
 2180 07ee 1044     		add	r0, r0, r2
 2181 07f0 0095     		str	r5, [sp]
 2182 07f2 264A     		ldr	r2, .L135
 2183 07f4 1468     		ldr	r4, [r2]
 2184              	.LVL210:
 2185 07f6 039A     		ldr	r2, [sp, #12]
 2186 07f8 09B2     		sxth	r1, r1
 2187 07fa 00B2     		sxth	r0, r0
 2188 07fc A047     		blx	r4
 2189              	.LVL211:
 2190              	.L113:
 968:..\lvgl\lv_draw/lv_draw_rect.c ****             px_fp(lb_origo.x + LV_CIRC_OCT4_X(aa_p), lb_origo.y + LV_CIRC_OCT4_Y(aa_p), mask, style
 2191              		.loc 1 968 0
 2192 07fe 0BF00503 		and	r3, fp, #5
 2193 0802 052B     		cmp	r3, #5
 2194 0804 0ED1     		bne	.L114
 969:..\lvgl\lv_draw/lv_draw_rect.c ****         }
 2195              		.loc 1 969 0
 2196 0806 BDF83820 		ldrh	r2, [sp, #56]
 2197 080a 059B     		ldr	r3, [sp, #20]
 2198 080c 1B7A     		ldrb	r3, [r3, #8]	@ zero_extendqisi2
 2199 080e 0C99     		ldr	r1, [sp, #48]
 2200 0810 1144     		add	r1, r1, r2
 2201 0812 0A98     		ldr	r0, [sp, #40]
 2202 0814 801A     		subs	r0, r0, r2
 2203 0816 0095     		str	r5, [sp]
 2204 0818 1C4A     		ldr	r2, .L135
 2205 081a 1468     		ldr	r4, [r2]
 2206 081c 039A     		ldr	r2, [sp, #12]
 2207 081e 09B2     		sxth	r1, r1
 2208 0820 00B2     		sxth	r0, r0
 2209 0822 A047     		blx	r4
 2210              	.LVL212:
 2211              	.L114:
 972:..\lvgl\lv_draw/lv_draw_rect.c ****             px_fp(lt_origo.x + LV_CIRC_OCT6_X(aa_p), lt_origo.y + LV_CIRC_OCT6_Y(aa_p), mask, style
ARM GAS  C:\Users\d3bug\AppData\Local\Temp\ccPpCIYA.s 			page 78


 2212              		.loc 1 972 0
 2213 0824 0BF00603 		and	r3, fp, #6
 2214 0828 062B     		cmp	r3, #6
 2215 082a 0ED1     		bne	.L115
 973:..\lvgl\lv_draw/lv_draw_rect.c ****         }
 2216              		.loc 1 973 0
 2217 082c BDF83820 		ldrh	r2, [sp, #56]
 2218 0830 059B     		ldr	r3, [sp, #20]
 2219 0832 1B7A     		ldrb	r3, [r3, #8]	@ zero_extendqisi2
 2220 0834 0999     		ldr	r1, [sp, #36]
 2221 0836 891A     		subs	r1, r1, r2
 2222 0838 0A98     		ldr	r0, [sp, #40]
 2223 083a 801A     		subs	r0, r0, r2
 2224 083c 0095     		str	r5, [sp]
 2225 083e 134A     		ldr	r2, .L135
 2226 0840 1468     		ldr	r4, [r2]
 2227 0842 039A     		ldr	r2, [sp, #12]
 2228 0844 09B2     		sxth	r1, r1
 2229 0846 00B2     		sxth	r0, r0
 2230 0848 A047     		blx	r4
 2231              	.LVL213:
 2232              	.L115:
 976:..\lvgl\lv_draw/lv_draw_rect.c ****             px_fp(rt_origo.x + LV_CIRC_OCT8_X(aa_p), rt_origo.y + LV_CIRC_OCT8_Y(aa_p), mask, style
 2233              		.loc 1 976 0
 2234 084a 0BF00A03 		and	r3, fp, #10
 2235 084e 0A2B     		cmp	r3, #10
 2236 0850 0ED1     		bne	.L112
 977:..\lvgl\lv_draw/lv_draw_rect.c ****         }
 2237              		.loc 1 977 0
 2238 0852 BDF83820 		ldrh	r2, [sp, #56]
 2239 0856 059B     		ldr	r3, [sp, #20]
 2240 0858 1B7A     		ldrb	r3, [r3, #8]	@ zero_extendqisi2
 2241 085a 0999     		ldr	r1, [sp, #36]
 2242 085c 891A     		subs	r1, r1, r2
 2243 085e 0B98     		ldr	r0, [sp, #44]
 2244 0860 1044     		add	r0, r0, r2
 2245 0862 0095     		str	r5, [sp]
 2246 0864 094A     		ldr	r2, .L135
 2247 0866 1468     		ldr	r4, [r2]
 2248 0868 039A     		ldr	r2, [sp, #12]
 2249 086a 09B2     		sxth	r1, r1
 2250 086c 00B2     		sxth	r0, r0
 2251 086e A047     		blx	r4
 2252              	.LVL214:
 2253              	.L112:
 2254              	.LBE94:
 982:..\lvgl\lv_draw/lv_draw_rect.c ****     aa_p.x = in_x_last;
 2255              		.loc 1 982 0
 2256 0870 BDF96630 		ldrsh	r3, [sp, #102]
 2257              	.LVL215:
 985:..\lvgl\lv_draw/lv_draw_rect.c **** 
 2258              		.loc 1 985 0
 2259 0874 BDF820A0 		ldrh	r10, [sp, #32]
 2260 0878 CAEB0303 		rsb	r3, r10, r3
 2261              	.LVL216:
 2262 087c 1BB2     		sxth	r3, r3
 2263              	.LVL217:
ARM GAS  C:\Users\d3bug\AppData\Local\Temp\ccPpCIYA.s 			page 79


 987:..\lvgl\lv_draw/lv_draw_rect.c ****         lv_opa_t aa_opa =  lv_draw_aa_get_opa(seg_size, i, opa);
 2264              		.loc 1 987 0
 2265 087e 0024     		movs	r4, #0
 2266 0880 DDF81C90 		ldr	r9, [sp, #28]
 2267 0884 CDF834A0 		str	r10, [sp, #52]
 2268 0888 9A46     		mov	r10, r3
 2269 088a BDE0     		b	.L116
 2270              	.L136:
 2271              		.align	2
 2272              	.L135:
 2273 088c 00000000 		.word	px_fp
 2274              	.LVL218:
 2275              	.L125:
 2276              	.LBB95:
 988:..\lvgl\lv_draw/lv_draw_rect.c ****         if((part & LV_BORDER_BOTTOM) && (part & LV_BORDER_RIGHT)) {
 2277              		.loc 1 988 0
 2278 0890 049A     		ldr	r2, [sp, #16]
 2279 0892 2146     		mov	r1, r4
 2280 0894 5046     		mov	r0, r10
 2281 0896 FFF7FEFF 		bl	lv_draw_aa_get_opa
 2282              	.LVL219:
 2283 089a 0690     		str	r0, [sp, #24]
 2284              	.LVL220:
 2285 089c 0BF00908 		and	r8, fp, #9
 2286              	.LVL221:
 989:..\lvgl\lv_draw/lv_draw_rect.c ****             px_fp(rb_origo.x + LV_CIRC_OCT1_X(aa_p) - 1, rb_origo.y + LV_CIRC_OCT1_Y(aa_p) + i, mas
 2287              		.loc 1 989 0
 2288 08a0 B8F1090F 		cmp	r8, #9
 2289 08a4 11D1     		bne	.L117
 990:..\lvgl\lv_draw/lv_draw_rect.c ****         }
 2290              		.loc 1 990 0
 2291 08a6 059B     		ldr	r3, [sp, #20]
 2292 08a8 1B7A     		ldrb	r3, [r3, #8]	@ zero_extendqisi2
 2293 08aa 0C9A     		ldr	r2, [sp, #48]
 2294 08ac 0D99     		ldr	r1, [sp, #52]
 2295 08ae 5118     		adds	r1, r2, r1
 2296 08b0 2144     		add	r1, r1, r4
 2297 08b2 0B9A     		ldr	r2, [sp, #44]
 2298 08b4 02EB0900 		add	r0, r2, r9
 2299 08b8 0138     		subs	r0, r0, #1
 2300 08ba 069A     		ldr	r2, [sp, #24]
 2301 08bc 0092     		str	r2, [sp]
 2302 08be 554A     		ldr	r2, .L137
 2303 08c0 1568     		ldr	r5, [r2]
 2304 08c2 039A     		ldr	r2, [sp, #12]
 2305 08c4 09B2     		sxth	r1, r1
 2306 08c6 00B2     		sxth	r0, r0
 2307 08c8 A847     		blx	r5
 2308              	.LVL222:
 2309              	.L117:
 2310 08ca 0BF00507 		and	r7, fp, #5
 993:..\lvgl\lv_draw/lv_draw_rect.c ****             px_fp(lb_origo.x + LV_CIRC_OCT3_X(aa_p) - i, lb_origo.y + LV_CIRC_OCT3_Y(aa_p) - 1, mas
 2311              		.loc 1 993 0
 2312 08ce 052F     		cmp	r7, #5
 2313 08d0 11D1     		bne	.L118
 994:..\lvgl\lv_draw/lv_draw_rect.c ****         }
 2314              		.loc 1 994 0
ARM GAS  C:\Users\d3bug\AppData\Local\Temp\ccPpCIYA.s 			page 80


 2315 08d2 059B     		ldr	r3, [sp, #20]
 2316 08d4 1B7A     		ldrb	r3, [r3, #8]	@ zero_extendqisi2
 2317 08d6 0C9A     		ldr	r2, [sp, #48]
 2318 08d8 02EB0901 		add	r1, r2, r9
 2319 08dc 0139     		subs	r1, r1, #1
 2320 08de 0A9A     		ldr	r2, [sp, #40]
 2321 08e0 0D98     		ldr	r0, [sp, #52]
 2322 08e2 101A     		subs	r0, r2, r0
 2323 08e4 001B     		subs	r0, r0, r4
 2324 08e6 069A     		ldr	r2, [sp, #24]
 2325 08e8 0092     		str	r2, [sp]
 2326 08ea 4A4A     		ldr	r2, .L137
 2327 08ec 1568     		ldr	r5, [r2]
 2328 08ee 039A     		ldr	r2, [sp, #12]
 2329 08f0 09B2     		sxth	r1, r1
 2330 08f2 00B2     		sxth	r0, r0
 2331 08f4 A847     		blx	r5
 2332              	.LVL223:
 2333              	.L118:
 2334 08f6 0BF00606 		and	r6, fp, #6
 997:..\lvgl\lv_draw/lv_draw_rect.c ****             px_fp(lt_origo.x + LV_CIRC_OCT5_X(aa_p) + 1, lt_origo.y + LV_CIRC_OCT5_Y(aa_p) - i, mas
 2335              		.loc 1 997 0
 2336 08fa 062E     		cmp	r6, #6
 2337 08fc 11D1     		bne	.L119
 998:..\lvgl\lv_draw/lv_draw_rect.c ****         }
 2338              		.loc 1 998 0
 2339 08fe 059B     		ldr	r3, [sp, #20]
 2340 0900 1B7A     		ldrb	r3, [r3, #8]	@ zero_extendqisi2
 2341 0902 099A     		ldr	r2, [sp, #36]
 2342 0904 0D99     		ldr	r1, [sp, #52]
 2343 0906 511A     		subs	r1, r2, r1
 2344 0908 091B     		subs	r1, r1, r4
 2345 090a 0A9A     		ldr	r2, [sp, #40]
 2346 090c C9EB0200 		rsb	r0, r9, r2
 2347 0910 0130     		adds	r0, r0, #1
 2348 0912 069A     		ldr	r2, [sp, #24]
 2349 0914 0092     		str	r2, [sp]
 2350 0916 3F4A     		ldr	r2, .L137
 2351 0918 1568     		ldr	r5, [r2]
 2352 091a 039A     		ldr	r2, [sp, #12]
 2353 091c 09B2     		sxth	r1, r1
 2354 091e 00B2     		sxth	r0, r0
 2355 0920 A847     		blx	r5
 2356              	.LVL224:
 2357              	.L119:
 2358 0922 0BF00A03 		and	r3, fp, #10
 2359 0926 0793     		str	r3, [sp, #28]
1001:..\lvgl\lv_draw/lv_draw_rect.c ****             px_fp(rt_origo.x + LV_CIRC_OCT7_X(aa_p) + i, rt_origo.y + LV_CIRC_OCT7_Y(aa_p) + 1, mas
 2360              		.loc 1 1001 0
 2361 0928 0A2B     		cmp	r3, #10
 2362 092a 12D1     		bne	.L120
1002:..\lvgl\lv_draw/lv_draw_rect.c ****         }
 2363              		.loc 1 1002 0
 2364 092c 059B     		ldr	r3, [sp, #20]
 2365 092e 1B7A     		ldrb	r3, [r3, #8]	@ zero_extendqisi2
 2366 0930 099A     		ldr	r2, [sp, #36]
 2367 0932 C9EB0201 		rsb	r1, r9, r2
ARM GAS  C:\Users\d3bug\AppData\Local\Temp\ccPpCIYA.s 			page 81


 2368 0936 0131     		adds	r1, r1, #1
 2369 0938 0B9A     		ldr	r2, [sp, #44]
 2370 093a 0D98     		ldr	r0, [sp, #52]
 2371 093c 1018     		adds	r0, r2, r0
 2372 093e 2044     		add	r0, r0, r4
 2373 0940 069A     		ldr	r2, [sp, #24]
 2374 0942 0092     		str	r2, [sp]
 2375 0944 334A     		ldr	r2, .L137
 2376 0946 1268     		ldr	r2, [r2]
 2377 0948 1546     		mov	r5, r2
 2378 094a 039A     		ldr	r2, [sp, #12]
 2379 094c 09B2     		sxth	r1, r1
 2380 094e 00B2     		sxth	r0, r0
 2381 0950 A847     		blx	r5
 2382              	.LVL225:
 2383              	.L120:
1005:..\lvgl\lv_draw/lv_draw_rect.c ****             if((part & LV_BORDER_BOTTOM) && (part & LV_BORDER_RIGHT)) {
 2384              		.loc 1 1005 0
 2385 0952 09F1FF33 		add	r3, r9, #-1
 2386 0956 089A     		ldr	r2, [sp, #32]
 2387 0958 2244     		add	r2, r2, r4
 2388 095a 9342     		cmp	r3, r2
 2389 095c 52D0     		beq	.L121
1006:..\lvgl\lv_draw/lv_draw_rect.c ****                 px_fp(rb_origo.x + LV_CIRC_OCT2_X(aa_p) + i, rb_origo.y + LV_CIRC_OCT2_Y(aa_p) - 1,
 2390              		.loc 1 1006 0
 2391 095e B8F1090F 		cmp	r8, #9
 2392 0962 12D1     		bne	.L122
1007:..\lvgl\lv_draw/lv_draw_rect.c ****             }
 2393              		.loc 1 1007 0
 2394 0964 059B     		ldr	r3, [sp, #20]
 2395 0966 1B7A     		ldrb	r3, [r3, #8]	@ zero_extendqisi2
 2396 0968 0C9A     		ldr	r2, [sp, #48]
 2397 096a 02EB0901 		add	r1, r2, r9
 2398 096e 0139     		subs	r1, r1, #1
 2399 0970 0B9A     		ldr	r2, [sp, #44]
 2400 0972 0D98     		ldr	r0, [sp, #52]
 2401 0974 1018     		adds	r0, r2, r0
 2402 0976 2044     		add	r0, r0, r4
 2403 0978 069A     		ldr	r2, [sp, #24]
 2404 097a 0092     		str	r2, [sp]
 2405 097c 254A     		ldr	r2, .L137
 2406 097e D2F80080 		ldr	r8, [r2]
 2407 0982 039A     		ldr	r2, [sp, #12]
 2408 0984 09B2     		sxth	r1, r1
 2409 0986 00B2     		sxth	r0, r0
 2410 0988 C047     		blx	r8
 2411              	.LVL226:
 2412              	.L122:
1010:..\lvgl\lv_draw/lv_draw_rect.c ****                 px_fp(lb_origo.x + LV_CIRC_OCT4_X(aa_p) + 1, lb_origo.y + LV_CIRC_OCT4_Y(aa_p) + i,
 2413              		.loc 1 1010 0
 2414 098a 052F     		cmp	r7, #5
 2415 098c 11D1     		bne	.L123
1011:..\lvgl\lv_draw/lv_draw_rect.c ****             }
 2416              		.loc 1 1011 0
 2417 098e 059B     		ldr	r3, [sp, #20]
 2418 0990 1B7A     		ldrb	r3, [r3, #8]	@ zero_extendqisi2
 2419 0992 0C9A     		ldr	r2, [sp, #48]
ARM GAS  C:\Users\d3bug\AppData\Local\Temp\ccPpCIYA.s 			page 82


 2420 0994 0D99     		ldr	r1, [sp, #52]
 2421 0996 5118     		adds	r1, r2, r1
 2422 0998 2144     		add	r1, r1, r4
 2423 099a 0A9A     		ldr	r2, [sp, #40]
 2424 099c C9EB0200 		rsb	r0, r9, r2
 2425 09a0 0130     		adds	r0, r0, #1
 2426 09a2 069A     		ldr	r2, [sp, #24]
 2427 09a4 0092     		str	r2, [sp]
 2428 09a6 1B4A     		ldr	r2, .L137
 2429 09a8 1768     		ldr	r7, [r2]
 2430 09aa 039A     		ldr	r2, [sp, #12]
 2431 09ac 09B2     		sxth	r1, r1
 2432 09ae 00B2     		sxth	r0, r0
 2433 09b0 B847     		blx	r7
 2434              	.LVL227:
 2435              	.L123:
1014:..\lvgl\lv_draw/lv_draw_rect.c ****                 px_fp(lt_origo.x + LV_CIRC_OCT6_X(aa_p) - i, lt_origo.y + LV_CIRC_OCT6_Y(aa_p) + 1,
 2436              		.loc 1 1014 0
 2437 09b2 062E     		cmp	r6, #6
 2438 09b4 11D1     		bne	.L124
1015:..\lvgl\lv_draw/lv_draw_rect.c ****             }
 2439              		.loc 1 1015 0
 2440 09b6 059B     		ldr	r3, [sp, #20]
 2441 09b8 1B7A     		ldrb	r3, [r3, #8]	@ zero_extendqisi2
 2442 09ba 099A     		ldr	r2, [sp, #36]
 2443 09bc C9EB0201 		rsb	r1, r9, r2
 2444 09c0 0131     		adds	r1, r1, #1
 2445 09c2 0A9A     		ldr	r2, [sp, #40]
 2446 09c4 0D98     		ldr	r0, [sp, #52]
 2447 09c6 101A     		subs	r0, r2, r0
 2448 09c8 001B     		subs	r0, r0, r4
 2449 09ca 069A     		ldr	r2, [sp, #24]
 2450 09cc 0092     		str	r2, [sp]
 2451 09ce 114A     		ldr	r2, .L137
 2452 09d0 1668     		ldr	r6, [r2]
 2453 09d2 039A     		ldr	r2, [sp, #12]
 2454 09d4 09B2     		sxth	r1, r1
 2455 09d6 00B2     		sxth	r0, r0
 2456 09d8 B047     		blx	r6
 2457              	.LVL228:
 2458              	.L124:
1018:..\lvgl\lv_draw/lv_draw_rect.c ****                 px_fp(rt_origo.x + LV_CIRC_OCT8_X(aa_p) - 1, rt_origo.y + LV_CIRC_OCT8_Y(aa_p) - i,
 2459              		.loc 1 1018 0
 2460 09da 079B     		ldr	r3, [sp, #28]
 2461 09dc 0A2B     		cmp	r3, #10
 2462 09de 11D1     		bne	.L121
1019:..\lvgl\lv_draw/lv_draw_rect.c ****             }
 2463              		.loc 1 1019 0
 2464 09e0 059B     		ldr	r3, [sp, #20]
 2465 09e2 1B7A     		ldrb	r3, [r3, #8]	@ zero_extendqisi2
 2466 09e4 099A     		ldr	r2, [sp, #36]
 2467 09e6 0D99     		ldr	r1, [sp, #52]
 2468 09e8 511A     		subs	r1, r2, r1
 2469 09ea 091B     		subs	r1, r1, r4
 2470 09ec 0B9A     		ldr	r2, [sp, #44]
 2471 09ee 02EB0900 		add	r0, r2, r9
 2472 09f2 0138     		subs	r0, r0, #1
ARM GAS  C:\Users\d3bug\AppData\Local\Temp\ccPpCIYA.s 			page 83


 2473 09f4 069A     		ldr	r2, [sp, #24]
 2474 09f6 0092     		str	r2, [sp]
 2475 09f8 064A     		ldr	r2, .L137
 2476 09fa 1568     		ldr	r5, [r2]
 2477 09fc 039A     		ldr	r2, [sp, #12]
 2478 09fe 09B2     		sxth	r1, r1
 2479 0a00 00B2     		sxth	r0, r0
 2480 0a02 A847     		blx	r5
 2481              	.LVL229:
 2482              	.L121:
 2483              	.LBE95:
 987:..\lvgl\lv_draw/lv_draw_rect.c ****         lv_opa_t aa_opa =  lv_draw_aa_get_opa(seg_size, i, opa);
 2484              		.loc 1 987 0 discriminator 2
 2485 0a04 0134     		adds	r4, r4, #1
 2486              	.LVL230:
 2487 0a06 24B2     		sxth	r4, r4
 2488              	.LVL231:
 2489              	.L116:
 987:..\lvgl\lv_draw/lv_draw_rect.c ****         lv_opa_t aa_opa =  lv_draw_aa_get_opa(seg_size, i, opa);
 2490              		.loc 1 987 0 is_stmt 0 discriminator 1
 2491 0a08 5445     		cmp	r4, r10
 2492 0a0a FFF641AF 		blt	.L125
1026:..\lvgl\lv_draw/lv_draw_rect.c **** 
 2493              		.loc 1 1026 0 is_stmt 1
 2494 0a0e 1DB0     		add	sp, sp, #116
 2495              		.cfi_def_cfa_offset 36
 2496              		@ sp needed
 2497 0a10 BDE8F08F 		pop	{r4, r5, r6, r7, r8, r9, r10, fp, pc}
 2498              	.LVL232:
 2499              	.L138:
 2500              		.align	2
 2501              	.L137:
 2502 0a14 00000000 		.word	px_fp
 2503              		.cfi_endproc
 2504              	.LFE16:
 2505              		.size	lv_draw_rect_border_corner, .-lv_draw_rect_border_corner
 2506              		.section	.text.lv_draw_rect_main_corner,"ax",%progbits
 2507              		.align	2
 2508              		.thumb
 2509              		.thumb_func
 2510              		.type	lv_draw_rect_main_corner, %function
 2511              	lv_draw_rect_main_corner:
 2512              	.LFB14:
 172:..\lvgl\lv_draw/lv_draw_rect.c ****     uint16_t radius = style->body.radius;
 2513              		.loc 1 172 0
 2514              		.cfi_startproc
 2515              		@ args = 0, pretend = 0, frame = 216
 2516              		@ frame_needed = 0, uses_anonymous_args = 0
 2517              	.LVL233:
 2518 0000 2DE9F04F 		push	{r4, r5, r6, r7, r8, r9, r10, fp, lr}
 2519              		.cfi_def_cfa_offset 36
 2520              		.cfi_offset 4, -36
 2521              		.cfi_offset 5, -32
 2522              		.cfi_offset 6, -28
 2523              		.cfi_offset 7, -24
 2524              		.cfi_offset 8, -20
 2525              		.cfi_offset 9, -16
ARM GAS  C:\Users\d3bug\AppData\Local\Temp\ccPpCIYA.s 			page 84


 2526              		.cfi_offset 10, -12
 2527              		.cfi_offset 11, -8
 2528              		.cfi_offset 14, -4
 2529 0004 B9B0     		sub	sp, sp, #228
 2530              		.cfi_def_cfa_offset 264
 2531 0006 1C90     		str	r0, [sp, #112]
 2532 0008 0391     		str	r1, [sp, #12]
 2533 000a 2892     		str	r2, [sp, #160]
 173:..\lvgl\lv_draw/lv_draw_rect.c **** 
 2534              		.loc 1 173 0
 2535 000c 9088     		ldrh	r0, [r2, #4]
 2536              	.LVL234:
 175:..\lvgl\lv_draw/lv_draw_rect.c ****     lv_color_t gcolor = style->body.grad_color;
 2537              		.loc 1 175 0
 2538 000e 9178     		ldrb	r1, [r2, #2]	@ zero_extendqisi2
 2539              	.LVL235:
 2540 0010 1F91     		str	r1, [sp, #124]
 2541 0012 8DF83810 		strb	r1, [sp, #56]
 176:..\lvgl\lv_draw/lv_draw_rect.c ****     lv_color_t act_color;
 2542              		.loc 1 176 0
 2543 0016 1146     		mov	r1, r2
 2544 0018 D278     		ldrb	r2, [r2, #3]	@ zero_extendqisi2
 2545              	.LVL236:
 2546 001a 1E92     		str	r2, [sp, #120]
 2547 001c 8DF83020 		strb	r2, [sp, #48]
 178:..\lvgl\lv_draw/lv_draw_rect.c ****     uint8_t mix;
 2548              		.loc 1 178 0
 2549 0020 FF2B     		cmp	r3, #255
 2550 0022 02D1     		bne	.L140
 178:..\lvgl\lv_draw/lv_draw_rect.c ****     uint8_t mix;
 2551              		.loc 1 178 0 is_stmt 0 discriminator 1
 2552 0024 8B79     		ldrb	r3, [r1, #6]	@ zero_extendqisi2
 2553              	.LVL237:
 2554 0026 1193     		str	r3, [sp, #68]
 2555 0028 06E0     		b	.L141
 2556              	.LVL238:
 2557              	.L140:
 178:..\lvgl\lv_draw/lv_draw_rect.c ****     uint8_t mix;
 2558              		.loc 1 178 0 discriminator 2
 2559 002a 289A     		ldr	r2, [sp, #160]
 2560 002c 9279     		ldrb	r2, [r2, #6]	@ zero_extendqisi2
 2561 002e 02FB03F3 		mul	r3, r2, r3
 2562              	.LVL239:
 2563 0032 C3F30723 		ubfx	r3, r3, #8, #8
 2564 0036 1193     		str	r3, [sp, #68]
 2565              	.L141:
 2566              	.LVL240:
 2567              	.LBB96:
 2568              	.LBB97:
 2569              		.loc 2 87 0 is_stmt 1 discriminator 4
 2570 0038 1C99     		ldr	r1, [sp, #112]
 2571              	.LVL241:
 2572 003a CC88     		ldrh	r4, [r1, #6]
 2573 003c 4D88     		ldrh	r5, [r1, #2]
 2574 003e 631B     		subs	r3, r4, r5
 2575 0040 0133     		adds	r3, r3, #1
 2576 0042 1BB2     		sxth	r3, r3
ARM GAS  C:\Users\d3bug\AppData\Local\Temp\ccPpCIYA.s 			page 85


 2577 0044 1A46     		mov	r2, r3
 2578 0046 1693     		str	r3, [sp, #88]
 2579              	.LVL242:
 2580              	.LBE97:
 2581              	.LBE96:
 2582              	.LBB98:
 2583              	.LBB99:
  77:..\lvgl\lv_draw\../lv_core/../lv_misc/lv_area.h **** }
 2584              		.loc 2 77 0 discriminator 4
 2585 0048 8F88     		ldrh	r7, [r1, #4]
 2586 004a 0E88     		ldrh	r6, [r1]
 2587 004c B91B     		subs	r1, r7, r6
 2588 004e 0131     		adds	r1, r1, #1
 2589              	.LVL243:
 2590              	.LBE99:
 2591              	.LBE98:
 183:..\lvgl\lv_draw/lv_draw_rect.c **** 
 2592              		.loc 1 183 0 discriminator 4
 2593 0050 09B2     		sxth	r1, r1
 2594 0052 FFF7FEFF 		bl	lv_draw_cont_radius_corr
 2595              	.LVL244:
 2596 0056 1D90     		str	r0, [sp, #116]
 2597              	.LVL245:
 190:..\lvgl\lv_draw/lv_draw_rect.c ****     lt_origo.y = coords->y1 + radius + LV_ANTIALIAS;
 2598              		.loc 1 190 0 discriminator 4
 2599 0058 0644     		add	r6, r6, r0
 2600 005a 0136     		adds	r6, r6, #1
 2601 005c B6B2     		uxth	r6, r6
 2602 005e 33B2     		sxth	r3, r6
 2603 0060 ADF8DC30 		strh	r3, [sp, #220]	@ movhi
 191:..\lvgl\lv_draw/lv_draw_rect.c **** 
 2604              		.loc 1 191 0 discriminator 4
 2605 0064 00EB0508 		add	r8, r0, r5
 2606 0068 08F10108 		add	r8, r8, #1
 2607 006c 1FFA88F8 		uxth	r8, r8
 2608 0070 0FFA88F2 		sxth	r2, r8
 2609 0074 ADF8DE20 		strh	r2, [sp, #222]	@ movhi
 193:..\lvgl\lv_draw/lv_draw_rect.c ****     lb_origo.y = coords->y2 - radius - LV_ANTIALIAS;
 2610              		.loc 1 193 0 discriminator 4
 2611 0078 ADF8D830 		strh	r3, [sp, #216]	@ movhi
 194:..\lvgl\lv_draw/lv_draw_rect.c **** 
 2612              		.loc 1 194 0 discriminator 4
 2613 007c 241A     		subs	r4, r4, r0
 2614 007e 013C     		subs	r4, r4, #1
 2615 0080 A4B2     		uxth	r4, r4
 2616 0082 23B2     		sxth	r3, r4
 2617 0084 ADF8DA30 		strh	r3, [sp, #218]	@ movhi
 196:..\lvgl\lv_draw/lv_draw_rect.c ****     rt_origo.y = coords->y1 + radius + LV_ANTIALIAS;
 2618              		.loc 1 196 0 discriminator 4
 2619 0088 3D1A     		subs	r5, r7, r0
 2620 008a 013D     		subs	r5, r5, #1
 2621 008c ADB2     		uxth	r5, r5
 2622 008e 29B2     		sxth	r1, r5
 2623 0090 ADF8D410 		strh	r1, [sp, #212]	@ movhi
 197:..\lvgl\lv_draw/lv_draw_rect.c **** 
 2624              		.loc 1 197 0 discriminator 4
 2625 0094 ADF8D620 		strh	r2, [sp, #214]	@ movhi
ARM GAS  C:\Users\d3bug\AppData\Local\Temp\ccPpCIYA.s 			page 86


 199:..\lvgl\lv_draw/lv_draw_rect.c ****     rb_origo.y = coords->y2 - radius - LV_ANTIALIAS;
 2626              		.loc 1 199 0 discriminator 4
 2627 0098 ADF8D010 		strh	r1, [sp, #208]	@ movhi
 200:..\lvgl\lv_draw/lv_draw_rect.c **** 
 2628              		.loc 1 200 0 discriminator 4
 2629 009c ADF8D230 		strh	r3, [sp, #210]	@ movhi
 209:..\lvgl\lv_draw/lv_draw_rect.c **** 
 2630              		.loc 1 209 0 discriminator 4
 2631 00a0 03B2     		sxth	r3, r0
 2632 00a2 1293     		str	r3, [sp, #72]
 2633 00a4 1A46     		mov	r2, r3
 2634 00a6 0DF1AA01 		add	r1, sp, #170
 2635 00aa 2BA8     		add	r0, sp, #172
 2636              	.LVL246:
 2637 00ac FFF7FEFF 		bl	lv_circ_init
 2638              	.LVL247:
 212:..\lvgl\lv_draw/lv_draw_rect.c ****                 lb_origo.y + LV_CIRC_OCT4_Y(cir),
 2639              		.loc 1 212 0 discriminator 4
 2640 00b0 BDF8AC10 		ldrh	r1, [sp, #172]
 213:..\lvgl\lv_draw/lv_draw_rect.c ****                 rb_origo.x + LV_CIRC_OCT1_X(cir),
 2641              		.loc 1 213 0 discriminator 4
 2642 00b4 BDF9AE20 		ldrsh	r2, [sp, #174]
 212:..\lvgl\lv_draw/lv_draw_rect.c ****                 lb_origo.y + LV_CIRC_OCT4_Y(cir),
 2643              		.loc 1 212 0 discriminator 4
 2644 00b8 2244     		add	r2, r2, r4
 2645 00ba 12B2     		sxth	r2, r2
 2646 00bc 6B18     		adds	r3, r5, r1
 2647 00be 711A     		subs	r1, r6, r1
 2648 00c0 0092     		str	r2, [sp]
 2649 00c2 1BB2     		sxth	r3, r3
 2650 00c4 09B2     		sxth	r1, r1
 2651 00c6 2EA8     		add	r0, sp, #184
 2652 00c8 FFF7FEFF 		bl	lv_area_set
 2653              	.LVL248:
 217:..\lvgl\lv_draw/lv_draw_rect.c ****                 lb_origo.y + LV_CIRC_OCT3_Y(cir),
 2654              		.loc 1 217 0 discriminator 4
 2655 00cc BDF8AE10 		ldrh	r1, [sp, #174]
 218:..\lvgl\lv_draw/lv_draw_rect.c ****                 rb_origo.x + LV_CIRC_OCT2_X(cir),
 2656              		.loc 1 218 0 discriminator 4
 2657 00d0 BDF9AC20 		ldrsh	r2, [sp, #172]
 217:..\lvgl\lv_draw/lv_draw_rect.c ****                 lb_origo.y + LV_CIRC_OCT3_Y(cir),
 2658              		.loc 1 217 0 discriminator 4
 2659 00d4 2244     		add	r2, r2, r4
 2660 00d6 12B2     		sxth	r2, r2
 2661 00d8 6B18     		adds	r3, r5, r1
 2662 00da 711A     		subs	r1, r6, r1
 2663 00dc 0092     		str	r2, [sp]
 2664 00de 1BB2     		sxth	r3, r3
 2665 00e0 09B2     		sxth	r1, r1
 2666 00e2 2CA8     		add	r0, sp, #176
 2667 00e4 FFF7FEFF 		bl	lv_area_set
 2668              	.LVL249:
 222:..\lvgl\lv_draw/lv_draw_rect.c ****                 lt_origo.y + LV_CIRC_OCT5_Y(cir),
 2669              		.loc 1 222 0 discriminator 4
 2670 00e8 BDF8AC10 		ldrh	r1, [sp, #172]
 223:..\lvgl\lv_draw/lv_draw_rect.c ****                 rt_origo.x + LV_CIRC_OCT8_X(cir),
 2671              		.loc 1 223 0 discriminator 4
ARM GAS  C:\Users\d3bug\AppData\Local\Temp\ccPpCIYA.s 			page 87


 2672 00ec BDF9AE20 		ldrsh	r2, [sp, #174]
 222:..\lvgl\lv_draw/lv_draw_rect.c ****                 lt_origo.y + LV_CIRC_OCT5_Y(cir),
 2673              		.loc 1 222 0 discriminator 4
 2674 00f0 C2EB0802 		rsb	r2, r2, r8
 2675 00f4 12B2     		sxth	r2, r2
 2676 00f6 6B18     		adds	r3, r5, r1
 2677 00f8 711A     		subs	r1, r6, r1
 2678 00fa 0092     		str	r2, [sp]
 2679 00fc 1BB2     		sxth	r3, r3
 2680 00fe 09B2     		sxth	r1, r1
 2681 0100 30A8     		add	r0, sp, #192
 2682 0102 FFF7FEFF 		bl	lv_area_set
 2683              	.LVL250:
 227:..\lvgl\lv_draw/lv_draw_rect.c ****                 lt_origo.y + LV_CIRC_OCT6_Y(cir),
 2684              		.loc 1 227 0 discriminator 4
 2685 0106 BDF8AE10 		ldrh	r1, [sp, #174]
 228:..\lvgl\lv_draw/lv_draw_rect.c ****                 rt_origo.x + LV_CIRC_OCT7_X(cir),
 2686              		.loc 1 228 0 discriminator 4
 2687 010a BDF9AC20 		ldrsh	r2, [sp, #172]
 227:..\lvgl\lv_draw/lv_draw_rect.c ****                 lt_origo.y + LV_CIRC_OCT6_Y(cir),
 2688              		.loc 1 227 0 discriminator 4
 2689 010e C2EB0802 		rsb	r2, r2, r8
 2690 0112 12B2     		sxth	r2, r2
 2691 0114 6B18     		adds	r3, r5, r1
 2692 0116 711A     		subs	r1, r6, r1
 2693 0118 0092     		str	r2, [sp]
 2694 011a 1BB2     		sxth	r3, r3
 2695 011c 09B2     		sxth	r1, r1
 2696 011e 32A8     		add	r0, sp, #200
 2697 0120 FFF7FEFF 		bl	lv_area_set
 2698              	.LVL251:
 233:..\lvgl\lv_draw/lv_draw_rect.c ****     lv_coord_t out_y_seg_end = 0;
 2699              		.loc 1 233 0 discriminator 4
 2700 0124 0023     		movs	r3, #0
 2701 0126 1393     		str	r3, [sp, #76]
 2702              	.LVL252:
 2703 0128 D046     		mov	r8, r10
 2704              	.LVL253:
 2705 012a D946     		mov	r9, fp
 242:..\lvgl\lv_draw/lv_draw_rect.c **** #if LV_ANTIALIAS != 0
 2706              		.loc 1 242 0 discriminator 4
 2707 012c 2CE2     		b	.L142
 2708              	.LVL254:
 2709              	.L180:
 2710              	.LBB100:
 245:..\lvgl\lv_draw/lv_draw_rect.c ****             out_y_seg_end = cir.y;
 2711              		.loc 1 245 0
 2712 012e BDF9AC30 		ldrsh	r3, [sp, #172]
 2713 0132 1299     		ldr	r1, [sp, #72]
 2714 0134 9942     		cmp	r1, r3
 2715 0136 00F00181 		beq	.L143
 2716              	.LBB101:
 246:..\lvgl\lv_draw/lv_draw_rect.c ****             lv_coord_t seg_size = out_y_seg_end - out_y_seg_start;
 2717              		.loc 1 246 0
 2718 013a BDF9AE30 		ldrsh	r3, [sp, #174]
 2719 013e 1793     		str	r3, [sp, #92]
 2720              	.LVL255:
ARM GAS  C:\Users\d3bug\AppData\Local\Temp\ccPpCIYA.s 			page 88


 247:..\lvgl\lv_draw/lv_draw_rect.c ****             lv_point_t aa_p;
 2721              		.loc 1 247 0
 2722 0140 BDF84CB0 		ldrh	fp, [sp, #76]
 2723              	.LVL256:
 2724 0144 CBEB0303 		rsb	r3, fp, r3
 2725              	.LVL257:
 2726 0148 1BB2     		sxth	r3, r3
 2727 014a 0493     		str	r3, [sp, #16]
 2728              	.LVL258:
 253:..\lvgl\lv_draw/lv_draw_rect.c ****             aa_color_hor_top = lv_color_mix(gcolor, mcolor, mix);
 2729              		.loc 1 253 0
 2730 014c 1D9B     		ldr	r3, [sp, #116]
 2731 014e 1493     		str	r3, [sp, #80]
 2732 0150 5B1A     		subs	r3, r3, r1
 2733 0152 C3EB0323 		rsb	r3, r3, r3, lsl #8
 2734 0156 169A     		ldr	r2, [sp, #88]
 2735 0158 1592     		str	r2, [sp, #84]
 2736 015a B3FBF2F3 		udiv	r3, r3, r2
 2737              	.LVL259:
 2738              	.LBB102:
 2739              	.LBB103:
 2740              		.loc 3 348 0
 2741 015e 5BB2     		sxtb	r3, r3
 2742 0160 002B     		cmp	r3, #0
 2743 0162 03DA     		bge	.L144
 2744 0164 0C9A     		ldr	r2, [sp, #48]
 2745 0166 02F00102 		and	r2, r2, #1
 2746 016a 02E0     		b	.L145
 2747              	.L144:
 2748 016c 0E9A     		ldr	r2, [sp, #56]
 2749 016e 02F00102 		and	r2, r2, #1
 2750              	.L145:
 2751 0172 1899     		ldr	r1, [sp, #96]
 2752 0174 62F30001 		bfi	r1, r2, #0, #1
 2753              	.LVL260:
 2754 0178 8DF86010 		strb	r1, [sp, #96]
 2755 017c 8DF8A510 		strb	r1, [sp, #165]
 2756              	.LVL261:
 2757              	.LBE103:
 2758              	.LBE102:
 2759              	.LBB104:
 2760              	.LBB105:
 2761 0180 002B     		cmp	r3, #0
 2762 0182 03DA     		bge	.L146
 2763 0184 0E9B     		ldr	r3, [sp, #56]
 2764              	.LVL262:
 2765 0186 03F00103 		and	r3, r3, #1
 2766 018a 02E0     		b	.L147
 2767              	.L146:
 2768 018c 0C9B     		ldr	r3, [sp, #48]
 2769 018e 03F00103 		and	r3, r3, #1
 2770              	.L147:
 2771 0192 1A9A     		ldr	r2, [sp, #104]
 2772 0194 63F30002 		bfi	r2, r3, #0, #1
 2773              	.LVL263:
 2774 0198 8DF86820 		strb	r2, [sp, #104]
 2775 019c 8DF8A420 		strb	r2, [sp, #164]
ARM GAS  C:\Users\d3bug\AppData\Local\Temp\ccPpCIYA.s 			page 89


 2776              	.LVL264:
 2777              	.LBE105:
 2778              	.LBE104:
 258:..\lvgl\lv_draw/lv_draw_rect.c ****                 lv_opa_t aa_opa;
 2779              		.loc 1 258 0
 2780 01a0 4FF0000A 		mov	r10, #0
 2781              	.LVL265:
 2782 01a4 5546     		mov	r5, r10
 2783              	.LVL266:
 2784 01a6 CA46     		mov	r10, r9
 2785              	.LVL267:
 2786 01a8 C146     		mov	r9, r8
 2787              	.LVL268:
 2788 01aa BCE0     		b	.L148
 2789              	.LVL269:
 2790              	.L155:
 2791              	.LBB106:
 260:..\lvgl\lv_draw/lv_draw_rect.c ****                     aa_opa = antialias_get_opa_circ(seg_size, i, opa);
 2792              		.loc 1 260 0
 2793 01ac 049B     		ldr	r3, [sp, #16]
 2794 01ae 052B     		cmp	r3, #5
 2795 01b0 06DD     		ble	.L149
 261:..\lvgl\lv_draw/lv_draw_rect.c ****                 } else {
 2796              		.loc 1 261 0
 2797 01b2 119A     		ldr	r2, [sp, #68]
 2798              	.LVL270:
 2799 01b4 2946     		mov	r1, r5
 2800              	.LVL271:
 2801 01b6 1846     		mov	r0, r3
 2802 01b8 FFF7FEFF 		bl	antialias_get_opa_circ
 2803              	.LVL272:
 2804 01bc 0646     		mov	r6, r0
 2805              	.LVL273:
 2806 01be 07E0     		b	.L150
 2807              	.LVL274:
 2808              	.L149:
 263:..\lvgl\lv_draw/lv_draw_rect.c ****                 }
 2809              		.loc 1 263 0
 2810 01c0 119C     		ldr	r4, [sp, #68]
 2811 01c2 2246     		mov	r2, r4
 2812              	.LVL275:
 2813 01c4 2946     		mov	r1, r5
 2814              	.LVL276:
 2815 01c6 0498     		ldr	r0, [sp, #16]
 2816 01c8 FFF7FEFF 		bl	lv_draw_aa_get_opa
 2817              	.LVL277:
 2818 01cc 201A     		subs	r0, r4, r0
 2819 01ce C6B2     		uxtb	r6, r0
 2820              	.LVL278:
 2821              	.L150:
 266:..\lvgl\lv_draw/lv_draw_rect.c ****                 px_fp(lb_origo.x + LV_CIRC_OCT3_X(aa_p) - i, lb_origo.y + LV_CIRC_OCT3_Y(aa_p) + 1,
 2822              		.loc 1 266 0 discriminator 2
 2823 01d0 A54B     		ldr	r3, .L219
 2824 01d2 1F68     		ldr	r7, [r3]
 2825 01d4 BDF8D030 		ldrh	r3, [sp, #208]
 2826 01d8 0593     		str	r3, [sp, #20]
 2827 01da ACB2     		uxth	r4, r5
ARM GAS  C:\Users\d3bug\AppData\Local\Temp\ccPpCIYA.s 			page 90


 2828 01dc BDF8D220 		ldrh	r2, [sp, #210]
 2829 01e0 0692     		str	r2, [sp, #24]
 2830 01e2 BDF84880 		ldrh	r8, [sp, #72]
 2831              	.LVL279:
 2832 01e6 02EB0801 		add	r1, r2, r8
 2833 01ea 0131     		adds	r1, r1, #1
 2834 01ec 0BEB0300 		add	r0, fp, r3
 2835 01f0 2044     		add	r0, r0, r4
 2836 01f2 0096     		str	r6, [sp]
 2837 01f4 9DF8A430 		ldrb	r3, [sp, #164]	@ zero_extendqisi2
 2838 01f8 039A     		ldr	r2, [sp, #12]
 2839 01fa 09B2     		sxth	r1, r1
 2840 01fc 00B2     		sxth	r0, r0
 2841 01fe B847     		blx	r7
 2842              	.LVL280:
 267:..\lvgl\lv_draw/lv_draw_rect.c ****                 px_fp(lt_origo.x + LV_CIRC_OCT6_X(aa_p) - i, lt_origo.y + LV_CIRC_OCT6_Y(aa_p) - 1,
 2843              		.loc 1 267 0 discriminator 2
 2844 0200 BDF8D820 		ldrh	r2, [sp, #216]
 2845 0204 0792     		str	r2, [sp, #28]
 2846 0206 BDF8DA10 		ldrh	r1, [sp, #218]
 2847 020a 0891     		str	r1, [sp, #32]
 2848 020c 4144     		add	r1, r8, r1
 2849 020e 0131     		adds	r1, r1, #1
 2850 0210 CBEB0200 		rsb	r0, fp, r2
 2851 0214 001B     		subs	r0, r0, r4
 2852 0216 0096     		str	r6, [sp]
 2853 0218 9DF8A430 		ldrb	r3, [sp, #164]	@ zero_extendqisi2
 2854 021c 039A     		ldr	r2, [sp, #12]
 2855 021e 09B2     		sxth	r1, r1
 2856 0220 00B2     		sxth	r0, r0
 2857 0222 B847     		blx	r7
 2858              	.LVL281:
 268:..\lvgl\lv_draw/lv_draw_rect.c ****                 px_fp(rt_origo.x + LV_CIRC_OCT7_X(aa_p) + i, rt_origo.y + LV_CIRC_OCT7_Y(aa_p) - 1,
 2859              		.loc 1 268 0 discriminator 2
 2860 0224 BDF8DC30 		ldrh	r3, [sp, #220]
 2861 0228 0993     		str	r3, [sp, #36]
 2862 022a BDF8DE20 		ldrh	r2, [sp, #222]
 2863 022e 0A92     		str	r2, [sp, #40]
 2864 0230 C8EB0201 		rsb	r1, r8, r2
 2865 0234 0139     		subs	r1, r1, #1
 2866 0236 CBEB0300 		rsb	r0, fp, r3
 2867 023a 001B     		subs	r0, r0, r4
 2868 023c 0096     		str	r6, [sp]
 2869 023e 9DF8A530 		ldrb	r3, [sp, #165]	@ zero_extendqisi2
 2870 0242 039A     		ldr	r2, [sp, #12]
 2871 0244 09B2     		sxth	r1, r1
 2872 0246 00B2     		sxth	r0, r0
 2873 0248 B847     		blx	r7
 2874              	.LVL282:
 269:..\lvgl\lv_draw/lv_draw_rect.c **** 
 2875              		.loc 1 269 0 discriminator 2
 2876 024a BDF8D410 		ldrh	r1, [sp, #212]
 2877 024e 0846     		mov	r0, r1
 2878 0250 0B91     		str	r1, [sp, #44]
 2879 0252 BDF8D610 		ldrh	r1, [sp, #214]
 2880 0256 1091     		str	r1, [sp, #64]
 2881 0258 C8EB0101 		rsb	r1, r8, r1
ARM GAS  C:\Users\d3bug\AppData\Local\Temp\ccPpCIYA.s 			page 91


 2882 025c 0139     		subs	r1, r1, #1
 2883 025e 5844     		add	r0, fp, r0
 2884 0260 2044     		add	r0, r0, r4
 2885 0262 0096     		str	r6, [sp]
 2886 0264 9DF8A530 		ldrb	r3, [sp, #165]	@ zero_extendqisi2
 2887 0268 039A     		ldr	r2, [sp, #12]
 2888 026a 09B2     		sxth	r1, r1
 2889 026c 00B2     		sxth	r0, r0
 2890 026e B847     		blx	r7
 2891              	.LVL283:
 271:..\lvgl\lv_draw/lv_draw_rect.c ****                 aa_color_ver = lv_color_mix(mcolor, gcolor, mix);
 2892              		.loc 1 271 0 discriminator 2
 2893 0270 149B     		ldr	r3, [sp, #80]
 2894 0272 139A     		ldr	r2, [sp, #76]
 2895 0274 9B1A     		subs	r3, r3, r2
 2896 0276 1D44     		add	r5, r5, r3
 2897              	.LVL284:
 2898 0278 C5EB0525 		rsb	r5, r5, r5, lsl #8
 2899 027c 159B     		ldr	r3, [sp, #84]
 2900 027e B5FBF3F5 		udiv	r5, r5, r3
 2901              	.LVL285:
 2902              	.LBB107:
 2903              	.LBB108:
 2904              		.loc 3 348 0 discriminator 2
 2905 0282 6DB2     		sxtb	r5, r5
 2906 0284 002D     		cmp	r5, #0
 2907 0286 03DA     		bge	.L151
 2908              		.loc 3 348 0 is_stmt 0
 2909 0288 0E9B     		ldr	r3, [sp, #56]
 2910 028a 03F00103 		and	r3, r3, #1
 2911 028e 02E0     		b	.L152
 2912              	.L151:
 2913 0290 0C9B     		ldr	r3, [sp, #48]
 2914 0292 03F00103 		and	r3, r3, #1
 2915              	.L152:
 2916 0296 63F30009 		bfi	r9, r3, #0, #1
 2917              	.LVL286:
 2918              	.LBE108:
 2919              	.LBE107:
 273:..\lvgl\lv_draw/lv_draw_rect.c ****                 px_fp(lb_origo.x + LV_CIRC_OCT4_X(aa_p) - 1, lb_origo.y + LV_CIRC_OCT4_Y(aa_p) + i,
 2920              		.loc 1 273 0 is_stmt 1
 2921 029a 069B     		ldr	r3, [sp, #24]
 2922 029c 5B44     		add	r3, r3, fp
 2923 029e 1946     		mov	r1, r3
 2924 02a0 2144     		add	r1, r1, r4
 2925 02a2 059B     		ldr	r3, [sp, #20]
 2926 02a4 4344     		add	r3, r3, r8
 2927 02a6 1846     		mov	r0, r3
 2928 02a8 0130     		adds	r0, r0, #1
 2929 02aa 0096     		str	r6, [sp]
 2930 02ac 4B46     		mov	r3, r9
 2931 02ae 039A     		ldr	r2, [sp, #12]
 2932 02b0 09B2     		sxth	r1, r1
 2933 02b2 00B2     		sxth	r0, r0
 2934 02b4 B847     		blx	r7
 2935              	.LVL287:
 274:..\lvgl\lv_draw/lv_draw_rect.c **** 
ARM GAS  C:\Users\d3bug\AppData\Local\Temp\ccPpCIYA.s 			page 92


 2936              		.loc 1 274 0
 2937 02b6 089B     		ldr	r3, [sp, #32]
 2938 02b8 5B44     		add	r3, r3, fp
 2939 02ba 1946     		mov	r1, r3
 2940 02bc 2144     		add	r1, r1, r4
 2941 02be 079B     		ldr	r3, [sp, #28]
 2942 02c0 C8EB0300 		rsb	r0, r8, r3
 2943 02c4 0138     		subs	r0, r0, #1
 2944 02c6 0096     		str	r6, [sp]
 2945 02c8 4B46     		mov	r3, r9
 2946 02ca 039A     		ldr	r2, [sp, #12]
 2947 02cc 09B2     		sxth	r1, r1
 2948 02ce 00B2     		sxth	r0, r0
 2949 02d0 B847     		blx	r7
 2950              	.LVL288:
 2951              	.LBB109:
 2952              	.LBB110:
 2953              		.loc 3 348 0
 2954 02d2 002D     		cmp	r5, #0
 2955 02d4 03DA     		bge	.L153
 2956 02d6 0C9B     		ldr	r3, [sp, #48]
 2957 02d8 03F00103 		and	r3, r3, #1
 2958 02dc 02E0     		b	.L154
 2959              	.L153:
 2960 02de 0E9B     		ldr	r3, [sp, #56]
 2961 02e0 03F00103 		and	r3, r3, #1
 2962              	.L154:
 2963 02e4 63F3000A 		bfi	r10, r3, #0, #1
 2964              	.LVL289:
 2965              	.LBE110:
 2966              	.LBE109:
 277:..\lvgl\lv_draw/lv_draw_rect.c ****                 px_fp(rt_origo.x + LV_CIRC_OCT8_X(aa_p) + 1, rt_origo.y + LV_CIRC_OCT8_Y(aa_p) - i,
 2967              		.loc 1 277 0
 2968 02e8 0A9B     		ldr	r3, [sp, #40]
 2969 02ea CBEB0301 		rsb	r1, fp, r3
 2970 02ee 091B     		subs	r1, r1, r4
 2971 02f0 099B     		ldr	r3, [sp, #36]
 2972 02f2 C8EB0300 		rsb	r0, r8, r3
 2973 02f6 0138     		subs	r0, r0, #1
 2974 02f8 0096     		str	r6, [sp]
 2975 02fa 5346     		mov	r3, r10
 2976 02fc 039D     		ldr	r5, [sp, #12]
 2977              	.LVL290:
 2978 02fe 2A46     		mov	r2, r5
 2979 0300 09B2     		sxth	r1, r1
 2980 0302 00B2     		sxth	r0, r0
 2981 0304 B847     		blx	r7
 2982              	.LVL291:
 278:..\lvgl\lv_draw/lv_draw_rect.c ****             }
 2983              		.loc 1 278 0
 2984 0306 109B     		ldr	r3, [sp, #64]
 2985 0308 CBEB0301 		rsb	r1, fp, r3
 2986 030c 091B     		subs	r1, r1, r4
 2987 030e 0B9B     		ldr	r3, [sp, #44]
 2988 0310 9844     		add	r8, r8, r3
 2989 0312 08F10100 		add	r0, r8, #1
 2990 0316 0096     		str	r6, [sp]
ARM GAS  C:\Users\d3bug\AppData\Local\Temp\ccPpCIYA.s 			page 93


 2991 0318 5346     		mov	r3, r10
 2992 031a 2A46     		mov	r2, r5
 2993 031c 09B2     		sxth	r1, r1
 2994 031e 00B2     		sxth	r0, r0
 2995 0320 B847     		blx	r7
 2996              	.LVL292:
 2997              	.LBE106:
 258:..\lvgl\lv_draw/lv_draw_rect.c ****                 lv_opa_t aa_opa;
 2998              		.loc 1 258 0
 2999 0322 0134     		adds	r4, r4, #1
 3000              	.LVL293:
 3001 0324 25B2     		sxth	r5, r4
 3002              	.LVL294:
 3003              	.L148:
 258:..\lvgl\lv_draw/lv_draw_rect.c ****                 lv_opa_t aa_opa;
 3004              		.loc 1 258 0 is_stmt 0 discriminator 1
 3005 0326 049B     		ldr	r3, [sp, #16]
 3006 0328 9D42     		cmp	r5, r3
 3007 032a FFF63FAF 		blt	.L155
 3008 032e C846     		mov	r8, r9
 3009              	.LVL295:
 3010 0330 D146     		mov	r9, r10
 3011              	.LVL296:
 281:..\lvgl\lv_draw/lv_draw_rect.c ****             out_y_seg_start = out_y_seg_end;
 3012              		.loc 1 281 0 is_stmt 1
 3013 0332 BDF9AC30 		ldrsh	r3, [sp, #172]
 3014 0336 1293     		str	r3, [sp, #72]
 3015              	.LVL297:
 282:..\lvgl\lv_draw/lv_draw_rect.c ****         }
 3016              		.loc 1 282 0
 3017 0338 179B     		ldr	r3, [sp, #92]
 3018 033a 1393     		str	r3, [sp, #76]
 3019              	.LVL298:
 3020              	.L143:
 3021              	.LBE101:
 292:..\lvgl\lv_draw/lv_draw_rect.c **** 
 3022              		.loc 1 292 0
 3023 033c BDF9BA00 		ldrsh	r0, [sp, #186]
 3024 0340 BDF9AE20 		ldrsh	r2, [sp, #174]
 3025              	.LVL299:
 3026 0344 BDF9DA10 		ldrsh	r1, [sp, #218]
 3027              	.LVL300:
 3028 0348 5318     		adds	r3, r2, r1
 3029 034a 9842     		cmp	r0, r3
 3030 034c 01D1     		bne	.L214
 287:..\lvgl\lv_draw/lv_draw_rect.c ****         uint8_t edge_bot_refr = 0;
 3031              		.loc 1 287 0
 3032 034e 0024     		movs	r4, #0
 3033 0350 00E0     		b	.L156
 3034              	.L214:
 292:..\lvgl\lv_draw/lv_draw_rect.c **** 
 3035              		.loc 1 292 0
 3036 0352 0124     		movs	r4, #1
 3037              	.L156:
 3038              	.LVL301:
 294:..\lvgl\lv_draw/lv_draw_rect.c **** 
 3039              		.loc 1 294 0
ARM GAS  C:\Users\d3bug\AppData\Local\Temp\ccPpCIYA.s 			page 94


 3040 0354 BDF9B230 		ldrsh	r3, [sp, #178]
 3041 0358 BDF9AC00 		ldrsh	r0, [sp, #172]
 3042 035c 0144     		add	r1, r1, r0
 3043 035e 8B42     		cmp	r3, r1
 3044 0360 01D1     		bne	.L215
 288:..\lvgl\lv_draw/lv_draw_rect.c **** 
 3045              		.loc 1 288 0
 3046 0362 0027     		movs	r7, #0
 3047 0364 00E0     		b	.L157
 3048              	.L215:
 294:..\lvgl\lv_draw/lv_draw_rect.c **** 
 3049              		.loc 1 294 0
 3050 0366 0127     		movs	r7, #1
 3051              	.L157:
 3052              	.LVL302:
 296:..\lvgl\lv_draw/lv_draw_rect.c **** 
 3053              		.loc 1 296 0
 3054 0368 BDF9C210 		ldrsh	r1, [sp, #194]
 3055 036c BDF9DE30 		ldrsh	r3, [sp, #222]
 3056 0370 9A1A     		subs	r2, r3, r2
 3057 0372 9142     		cmp	r1, r2
 3058 0374 01D1     		bne	.L216
 286:..\lvgl\lv_draw/lv_draw_rect.c ****         uint8_t mid_bot_refr = 0;
 3059              		.loc 1 286 0
 3060 0376 0025     		movs	r5, #0
 3061 0378 00E0     		b	.L158
 3062              	.L216:
 296:..\lvgl\lv_draw/lv_draw_rect.c **** 
 3063              		.loc 1 296 0
 3064 037a 0125     		movs	r5, #1
 3065              	.L158:
 3066              	.LVL303:
 298:..\lvgl\lv_draw/lv_draw_rect.c **** 
 3067              		.loc 1 298 0
 3068 037c BDF9CA20 		ldrsh	r2, [sp, #202]
 3069 0380 1B1A     		subs	r3, r3, r0
 3070 0382 9A42     		cmp	r2, r3
 3071 0384 01D1     		bne	.L217
 285:..\lvgl\lv_draw/lv_draw_rect.c ****         uint8_t mid_top_refr = 0;
 3072              		.loc 1 285 0
 3073 0386 0023     		movs	r3, #0
 3074 0388 00E0     		b	.L159
 3075              	.L217:
 298:..\lvgl\lv_draw/lv_draw_rect.c **** 
 3076              		.loc 1 298 0
 3077 038a 0123     		movs	r3, #1
 3078              	.L159:
 3079              	.LVL304:
 301:..\lvgl\lv_draw/lv_draw_rect.c ****             if(mcolor.full == gcolor.full) act_color = mcolor;
 3080              		.loc 1 301 0
 3081 038c 3BB3     		cbz	r3, .L160
 302:..\lvgl\lv_draw/lv_draw_rect.c ****             else {
 3082              		.loc 1 302 0
 3083 038e 9DF83800 		ldrb	r0, [sp, #56]	@ zero_extendqisi2
 3084              	.LVL305:
 3085 0392 0346     		mov	r3, r0
 3086              	.LVL306:
ARM GAS  C:\Users\d3bug\AppData\Local\Temp\ccPpCIYA.s 			page 95


 3087 0394 0C99     		ldr	r1, [sp, #48]
 3088 0396 4B40     		eors	r3, r3, r1
 3089 0398 13F0010F 		tst	r3, #1
 3090 039c 01D1     		bne	.L161
 302:..\lvgl\lv_draw/lv_draw_rect.c ****             else {
 3091              		.loc 1 302 0 is_stmt 0 discriminator 1
 3092 039e 0246     		mov	r2, r0
 3093              	.LVL307:
 3094 03a0 17E0     		b	.L162
 3095              	.L161:
 304:..\lvgl\lv_draw/lv_draw_rect.c ****                 act_color = lv_color_mix(mcolor, gcolor, mix);
 3096              		.loc 1 304 0 is_stmt 1
 3097 03a2 1C9B     		ldr	r3, [sp, #112]
 3098 03a4 B3F90630 		ldrsh	r3, [r3, #6]
 3099 03a8 9A1A     		subs	r2, r3, r2
 3100 03aa C2EB0222 		rsb	r2, r2, r2, lsl #8
 3101 03ae 169B     		ldr	r3, [sp, #88]
 3102 03b0 B2FBF3F2 		udiv	r2, r2, r3
 3103              	.LVL308:
 3104              	.LBB111:
 3105              	.LBB112:
 3106              		.loc 3 348 0
 3107 03b4 12F0800F 		tst	r2, #128
 3108 03b8 03D0     		beq	.L163
 3109 03ba 0E9B     		ldr	r3, [sp, #56]
 3110 03bc 03F00103 		and	r3, r3, #1
 3111 03c0 02E0     		b	.L164
 3112              	.L163:
 3113 03c2 0C9B     		ldr	r3, [sp, #48]
 3114 03c4 03F00103 		and	r3, r3, #1
 3115              	.L164:
 3116 03c8 269A     		ldr	r2, [sp, #152]
 3117              	.LVL309:
 3118 03ca 63F30002 		bfi	r2, r3, #0, #1
 3119              	.LVL310:
 3120 03ce 8DF89820 		strb	r2, [sp, #152]
 3121              	.LVL311:
 3122              	.L162:
 3123              	.LBE112:
 3124              	.LBE111:
 307:..\lvgl\lv_draw/lv_draw_rect.c ****         }
 3125              		.loc 1 307 0
 3126 03d2 264B     		ldr	r3, .L219+4
 3127 03d4 1E68     		ldr	r6, [r3]
 3128 03d6 119B     		ldr	r3, [sp, #68]
 3129 03d8 0399     		ldr	r1, [sp, #12]
 3130 03da 32A8     		add	r0, sp, #200
 3131              	.LVL312:
 3132 03dc B047     		blx	r6
 3133              	.LVL313:
 3134              	.L160:
 310:..\lvgl\lv_draw/lv_draw_rect.c ****             if(mcolor.full == gcolor.full) act_color = mcolor;
 3135              		.loc 1 310 0
 3136 03de 3DB3     		cbz	r5, .L165
 311:..\lvgl\lv_draw/lv_draw_rect.c ****             else {
 3137              		.loc 1 311 0
 3138 03e0 9DF83820 		ldrb	r2, [sp, #56]	@ zero_extendqisi2
ARM GAS  C:\Users\d3bug\AppData\Local\Temp\ccPpCIYA.s 			page 96


 3139              	.LVL314:
 3140 03e4 1346     		mov	r3, r2
 3141 03e6 0C99     		ldr	r1, [sp, #48]
 3142 03e8 4B40     		eors	r3, r3, r1
 3143 03ea 13F0010F 		tst	r3, #1
 3144 03ee 19D0     		beq	.L167
 313:..\lvgl\lv_draw/lv_draw_rect.c ****                 act_color = lv_color_mix(mcolor, gcolor, mix);
 3145              		.loc 1 313 0
 3146 03f0 1C9B     		ldr	r3, [sp, #112]
 3147 03f2 B3F90630 		ldrsh	r3, [r3, #6]
 3148 03f6 BDF9C220 		ldrsh	r2, [sp, #194]
 3149              	.LVL315:
 3150 03fa 9B1A     		subs	r3, r3, r2
 3151 03fc C3EB0323 		rsb	r3, r3, r3, lsl #8
 3152 0400 169A     		ldr	r2, [sp, #88]
 3153 0402 B3FBF2F3 		udiv	r3, r3, r2
 3154              	.LVL316:
 3155              	.LBB113:
 3156              	.LBB114:
 3157              		.loc 3 348 0
 3158 0406 13F0800F 		tst	r3, #128
 3159 040a 03D0     		beq	.L168
 3160 040c 0E9B     		ldr	r3, [sp, #56]
 3161              	.LVL317:
 3162 040e 03F00103 		and	r3, r3, #1
 3163 0412 02E0     		b	.L169
 3164              	.LVL318:
 3165              	.L168:
 3166 0414 0C9B     		ldr	r3, [sp, #48]
 3167              	.LVL319:
 3168 0416 03F00103 		and	r3, r3, #1
 3169              	.L169:
 3170 041a 249A     		ldr	r2, [sp, #144]
 3171              	.LVL320:
 3172 041c 63F30002 		bfi	r2, r3, #0, #1
 3173              	.LVL321:
 3174 0420 8DF89020 		strb	r2, [sp, #144]
 3175              	.LVL322:
 3176              	.L167:
 3177              	.LBE114:
 3178              	.LBE113:
 316:..\lvgl\lv_draw/lv_draw_rect.c ****         }
 3179              		.loc 1 316 0
 3180 0424 114B     		ldr	r3, .L219+4
 3181 0426 1D68     		ldr	r5, [r3]
 3182              	.LVL323:
 3183 0428 119B     		ldr	r3, [sp, #68]
 3184 042a 0399     		ldr	r1, [sp, #12]
 3185 042c 30A8     		add	r0, sp, #192
 3186 042e A847     		blx	r5
 3187              	.LVL324:
 3188              	.L165:
 319:..\lvgl\lv_draw/lv_draw_rect.c ****             if(mcolor.full == gcolor.full) act_color = mcolor;
 3189              		.loc 1 319 0
 3190 0430 64B3     		cbz	r4, .L170
 320:..\lvgl\lv_draw/lv_draw_rect.c ****             else {
 3191              		.loc 1 320 0
ARM GAS  C:\Users\d3bug\AppData\Local\Temp\ccPpCIYA.s 			page 97


 3192 0432 9DF83820 		ldrb	r2, [sp, #56]	@ zero_extendqisi2
 3193              	.LVL325:
 3194 0436 1346     		mov	r3, r2
 3195 0438 0C99     		ldr	r1, [sp, #48]
 3196 043a 4B40     		eors	r3, r3, r1
 3197 043c 13F0010F 		tst	r3, #1
 3198 0440 1ED0     		beq	.L172
 322:..\lvgl\lv_draw/lv_draw_rect.c ****                 act_color = lv_color_mix(mcolor, gcolor, mix);
 3199              		.loc 1 322 0
 3200 0442 1C9B     		ldr	r3, [sp, #112]
 3201 0444 B3F90630 		ldrsh	r3, [r3, #6]
 3202 0448 BDF9BA20 		ldrsh	r2, [sp, #186]
 3203              	.LVL326:
 3204 044c 9B1A     		subs	r3, r3, r2
 3205 044e C3EB0323 		rsb	r3, r3, r3, lsl #8
 3206 0452 169A     		ldr	r2, [sp, #88]
 3207 0454 B3FBF2F3 		udiv	r3, r3, r2
 3208              	.LVL327:
 3209              	.LBB115:
 3210              	.LBB116:
 3211              		.loc 3 348 0
 3212 0458 13F0800F 		tst	r3, #128
 3213 045c 08D0     		beq	.L173
 3214 045e 0E9B     		ldr	r3, [sp, #56]
 3215              	.LVL328:
 3216 0460 03F00103 		and	r3, r3, #1
 3217 0464 07E0     		b	.L174
 3218              	.L220:
 3219 0466 00BF     		.align	2
 3220              	.L219:
 3221 0468 00000000 		.word	px_fp
 3222 046c 00000000 		.word	fill_fp
 3223              	.LVL329:
 3224              	.L173:
 3225 0470 0C9B     		ldr	r3, [sp, #48]
 3226              	.LVL330:
 3227 0472 03F00103 		and	r3, r3, #1
 3228              	.L174:
 3229 0476 229A     		ldr	r2, [sp, #136]
 3230              	.LVL331:
 3231 0478 63F30002 		bfi	r2, r3, #0, #1
 3232              	.LVL332:
 3233 047c 8DF88820 		strb	r2, [sp, #136]
 3234              	.LVL333:
 3235              	.L172:
 3236              	.LBE116:
 3237              	.LBE115:
 325:..\lvgl\lv_draw/lv_draw_rect.c ****         }
 3238              		.loc 1 325 0
 3239 0480 B64B     		ldr	r3, .L221
 3240 0482 1C68     		ldr	r4, [r3]
 3241              	.LVL334:
 3242 0484 119B     		ldr	r3, [sp, #68]
 3243 0486 0399     		ldr	r1, [sp, #12]
 3244 0488 2EA8     		add	r0, sp, #184
 3245 048a A047     		blx	r4
 3246              	.LVL335:
ARM GAS  C:\Users\d3bug\AppData\Local\Temp\ccPpCIYA.s 			page 98


 3247              	.L170:
 328:..\lvgl\lv_draw/lv_draw_rect.c **** 
 3248              		.loc 1 328 0
 3249 048c 3FB3     		cbz	r7, .L175
 330:..\lvgl\lv_draw/lv_draw_rect.c ****             else {
 3250              		.loc 1 330 0
 3251 048e 9DF83820 		ldrb	r2, [sp, #56]	@ zero_extendqisi2
 3252              	.LVL336:
 3253 0492 1346     		mov	r3, r2
 3254 0494 0C99     		ldr	r1, [sp, #48]
 3255 0496 4B40     		eors	r3, r3, r1
 3256 0498 13F0010F 		tst	r3, #1
 3257 049c 19D0     		beq	.L177
 332:..\lvgl\lv_draw/lv_draw_rect.c ****                 act_color = lv_color_mix(mcolor, gcolor, mix);
 3258              		.loc 1 332 0
 3259 049e 1C9B     		ldr	r3, [sp, #112]
 3260 04a0 B3F90630 		ldrsh	r3, [r3, #6]
 3261 04a4 BDF9B220 		ldrsh	r2, [sp, #178]
 3262              	.LVL337:
 3263 04a8 9B1A     		subs	r3, r3, r2
 3264 04aa C3EB0323 		rsb	r3, r3, r3, lsl #8
 3265 04ae 169A     		ldr	r2, [sp, #88]
 3266 04b0 B3FBF2F3 		udiv	r3, r3, r2
 3267              	.LVL338:
 3268              	.LBB117:
 3269              	.LBB118:
 3270              		.loc 3 348 0
 3271 04b4 13F0800F 		tst	r3, #128
 3272 04b8 03D0     		beq	.L178
 3273 04ba 0E9B     		ldr	r3, [sp, #56]
 3274              	.LVL339:
 3275 04bc 03F00103 		and	r3, r3, #1
 3276 04c0 02E0     		b	.L179
 3277              	.LVL340:
 3278              	.L178:
 3279 04c2 0C9B     		ldr	r3, [sp, #48]
 3280              	.LVL341:
 3281 04c4 03F00103 		and	r3, r3, #1
 3282              	.L179:
 3283 04c8 209A     		ldr	r2, [sp, #128]
 3284              	.LVL342:
 3285 04ca 63F30002 		bfi	r2, r3, #0, #1
 3286              	.LVL343:
 3287 04ce 8DF88020 		strb	r2, [sp, #128]
 3288              	.LVL344:
 3289              	.L177:
 3290              	.LBE118:
 3291              	.LBE117:
 335:..\lvgl\lv_draw/lv_draw_rect.c ****         }
 3292              		.loc 1 335 0
 3293 04d2 A24B     		ldr	r3, .L221
 3294 04d4 1C68     		ldr	r4, [r3]
 3295 04d6 119B     		ldr	r3, [sp, #68]
 3296 04d8 0399     		ldr	r1, [sp, #12]
 3297 04da 2CA8     		add	r0, sp, #176
 3298 04dc A047     		blx	r4
 3299              	.LVL345:
ARM GAS  C:\Users\d3bug\AppData\Local\Temp\ccPpCIYA.s 			page 99


 3300              	.L175:
 339:..\lvgl\lv_draw/lv_draw_rect.c ****                     lb_origo.y + LV_CIRC_OCT4_Y(cir),
 3301              		.loc 1 339 0
 3302 04de BDF8D870 		ldrh	r7, [sp, #216]
 3303              	.LVL346:
 3304 04e2 BDF8AC10 		ldrh	r1, [sp, #172]
 3305 04e6 BDF8DA40 		ldrh	r4, [sp, #218]
 3306 04ea BDF8AE00 		ldrh	r0, [sp, #174]
 3307 04ee BDF8D050 		ldrh	r5, [sp, #208]
 3308 04f2 BDF8D260 		ldrh	r6, [sp, #210]
 3309 04f6 4B19     		adds	r3, r1, r5
 3310 04f8 2218     		adds	r2, r4, r0
 3311 04fa 791A     		subs	r1, r7, r1
 3312 04fc 3044     		add	r0, r0, r6
 3313 04fe 00B2     		sxth	r0, r0
 3314 0500 0090     		str	r0, [sp]
 3315 0502 1BB2     		sxth	r3, r3
 3316 0504 12B2     		sxth	r2, r2
 3317 0506 09B2     		sxth	r1, r1
 3318 0508 2EA8     		add	r0, sp, #184
 3319 050a FFF7FEFF 		bl	lv_area_set
 3320              	.LVL347:
 344:..\lvgl\lv_draw/lv_draw_rect.c ****                     lb_origo.y + LV_CIRC_OCT3_Y(cir),
 3321              		.loc 1 344 0
 3322 050e BDF8AE10 		ldrh	r1, [sp, #174]
 3323 0512 BDF8AC00 		ldrh	r0, [sp, #172]
 3324 0516 6B18     		adds	r3, r5, r1
 3325 0518 2218     		adds	r2, r4, r0
 3326 051a 791A     		subs	r1, r7, r1
 3327 051c 0644     		add	r6, r6, r0
 3328 051e 36B2     		sxth	r6, r6
 3329 0520 0096     		str	r6, [sp]
 3330 0522 1BB2     		sxth	r3, r3
 3331 0524 12B2     		sxth	r2, r2
 3332 0526 09B2     		sxth	r1, r1
 3333 0528 2CA8     		add	r0, sp, #176
 3334 052a FFF7FEFF 		bl	lv_area_set
 3335              	.LVL348:
 349:..\lvgl\lv_draw/lv_draw_rect.c ****                     lt_origo.y + LV_CIRC_OCT5_Y(cir),
 3336              		.loc 1 349 0
 3337 052e BDF8DC70 		ldrh	r7, [sp, #220]
 3338 0532 BDF8AC10 		ldrh	r1, [sp, #172]
 3339 0536 BDF8DE50 		ldrh	r5, [sp, #222]
 3340 053a BDF8AE00 		ldrh	r0, [sp, #174]
 3341 053e BDF8D460 		ldrh	r6, [sp, #212]
 3342 0542 BDF8D640 		ldrh	r4, [sp, #214]
 3343 0546 8B19     		adds	r3, r1, r6
 3344 0548 2A1A     		subs	r2, r5, r0
 3345 054a 791A     		subs	r1, r7, r1
 3346 054c 201A     		subs	r0, r4, r0
 3347 054e 00B2     		sxth	r0, r0
 3348 0550 0090     		str	r0, [sp]
 3349 0552 1BB2     		sxth	r3, r3
 3350 0554 12B2     		sxth	r2, r2
 3351 0556 09B2     		sxth	r1, r1
 3352 0558 30A8     		add	r0, sp, #192
 3353 055a FFF7FEFF 		bl	lv_area_set
ARM GAS  C:\Users\d3bug\AppData\Local\Temp\ccPpCIYA.s 			page 100


 3354              	.LVL349:
 354:..\lvgl\lv_draw/lv_draw_rect.c ****                     lt_origo.y + LV_CIRC_OCT6_Y(cir),
 3355              		.loc 1 354 0
 3356 055e BDF8AE10 		ldrh	r1, [sp, #174]
 3357 0562 BDF8AC00 		ldrh	r0, [sp, #172]
 3358 0566 7318     		adds	r3, r6, r1
 3359 0568 2A1A     		subs	r2, r5, r0
 3360 056a 791A     		subs	r1, r7, r1
 3361 056c 241A     		subs	r4, r4, r0
 3362 056e 24B2     		sxth	r4, r4
 3363 0570 0094     		str	r4, [sp]
 3364 0572 1BB2     		sxth	r3, r3
 3365 0574 12B2     		sxth	r2, r2
 3366 0576 09B2     		sxth	r1, r1
 3367 0578 32A8     		add	r0, sp, #200
 3368 057a FFF7FEFF 		bl	lv_area_set
 3369              	.LVL350:
 359:..\lvgl\lv_draw/lv_draw_rect.c ****     }
 3370              		.loc 1 359 0
 3371 057e 0DF1AA01 		add	r1, sp, #170
 3372 0582 2BA8     		add	r0, sp, #172
 3373 0584 FFF7FEFF 		bl	lv_circ_next
 3374              	.LVL351:
 3375              	.L142:
 3376              	.LBE100:
 242:..\lvgl\lv_draw/lv_draw_rect.c **** #if LV_ANTIALIAS != 0
 3377              		.loc 1 242 0
 3378 0588 2BA8     		add	r0, sp, #172
 3379 058a FFF7FEFF 		bl	lv_circ_cont
 3380              	.LVL352:
 3381 058e 0028     		cmp	r0, #0
 3382 0590 7FF4CDAD 		bne	.L180
 362:..\lvgl\lv_draw/lv_draw_rect.c ****     else {
 3383              		.loc 1 362 0
 3384 0594 1F9A     		ldr	r2, [sp, #124]
 3385 0596 1346     		mov	r3, r2
 3386 0598 1E99     		ldr	r1, [sp, #120]
 3387 059a 4B40     		eors	r3, r3, r1
 3388 059c 13F0010F 		tst	r3, #1
 3389 05a0 14D0     		beq	.L182
 364:..\lvgl\lv_draw/lv_draw_rect.c ****         act_color = lv_color_mix(mcolor, gcolor, mix);
 3390              		.loc 1 364 0
 3391 05a2 1C9B     		ldr	r3, [sp, #112]
 3392 05a4 B3F90630 		ldrsh	r3, [r3, #6]
 3393 05a8 BDF9CA20 		ldrsh	r2, [sp, #202]
 3394 05ac 9B1A     		subs	r3, r3, r2
 3395 05ae C3EB0323 		rsb	r3, r3, r3, lsl #8
 3396 05b2 169A     		ldr	r2, [sp, #88]
 3397 05b4 B3FBF2F3 		udiv	r3, r3, r2
 3398              	.LVL353:
 3399              	.LBB119:
 3400              	.LBB120:
 3401              		.loc 3 348 0
 3402 05b8 13F0800F 		tst	r3, #128
 3403 05bc 03D0     		beq	.L183
 3404 05be 1F9B     		ldr	r3, [sp, #124]
 3405              	.LVL354:
ARM GAS  C:\Users\d3bug\AppData\Local\Temp\ccPpCIYA.s 			page 101


 3406 05c0 03F00102 		and	r2, r3, #1
 3407              	.LVL355:
 3408 05c4 02E0     		b	.L182
 3409              	.LVL356:
 3410              	.L183:
 3411 05c6 1E9B     		ldr	r3, [sp, #120]
 3412              	.LVL357:
 3413 05c8 03F00102 		and	r2, r3, #1
 3414              	.LVL358:
 3415              	.L182:
 3416              	.LBE120:
 3417              	.LBE119:
 367:..\lvgl\lv_draw/lv_draw_rect.c **** 
 3418              		.loc 1 367 0
 3419 05cc 634B     		ldr	r3, .L221
 3420 05ce 1C68     		ldr	r4, [r3]
 3421 05d0 119B     		ldr	r3, [sp, #68]
 3422 05d2 0399     		ldr	r1, [sp, #12]
 3423 05d4 32A8     		add	r0, sp, #200
 3424 05d6 A047     		blx	r4
 3425              	.LVL359:
 369:..\lvgl\lv_draw/lv_draw_rect.c **** 
 3426              		.loc 1 369 0
 3427 05d8 BDF9CA30 		ldrsh	r3, [sp, #202]
 3428 05dc BDF9C220 		ldrsh	r2, [sp, #194]
 3429 05e0 9342     		cmp	r3, r2
 3430 05e2 21D0     		beq	.L185
 371:..\lvgl\lv_draw/lv_draw_rect.c ****         else {
 3431              		.loc 1 371 0
 3432 05e4 1F99     		ldr	r1, [sp, #124]
 3433 05e6 0B46     		mov	r3, r1
 3434 05e8 1E98     		ldr	r0, [sp, #120]
 3435 05ea 4340     		eors	r3, r3, r0
 3436 05ec 13F0010F 		tst	r3, #1
 3437 05f0 01D1     		bne	.L186
 371:..\lvgl\lv_draw/lv_draw_rect.c ****         else {
 3438              		.loc 1 371 0 is_stmt 0 discriminator 1
 3439 05f2 0A46     		mov	r2, r1
 3440 05f4 12E0     		b	.L187
 3441              	.L186:
 373:..\lvgl\lv_draw/lv_draw_rect.c ****             act_color = lv_color_mix(mcolor, gcolor, mix);
 3442              		.loc 1 373 0 is_stmt 1
 3443 05f6 1C9B     		ldr	r3, [sp, #112]
 3444 05f8 B3F90630 		ldrsh	r3, [r3, #6]
 3445 05fc 9B1A     		subs	r3, r3, r2
 3446 05fe C3EB0323 		rsb	r3, r3, r3, lsl #8
 3447 0602 169A     		ldr	r2, [sp, #88]
 3448 0604 B3FBF2F3 		udiv	r3, r3, r2
 3449              	.LVL360:
 3450              	.LBB121:
 3451              	.LBB122:
 3452              		.loc 3 348 0
 3453 0608 13F0800F 		tst	r3, #128
 3454 060c 03D0     		beq	.L188
 3455 060e 1F9B     		ldr	r3, [sp, #124]
 3456              	.LVL361:
 3457 0610 03F00102 		and	r2, r3, #1
ARM GAS  C:\Users\d3bug\AppData\Local\Temp\ccPpCIYA.s 			page 102


 3458              	.LVL362:
 3459 0614 02E0     		b	.L187
 3460              	.LVL363:
 3461              	.L188:
 3462 0616 1E9B     		ldr	r3, [sp, #120]
 3463              	.LVL364:
 3464 0618 03F00102 		and	r2, r3, #1
 3465              	.LVL365:
 3466              	.L187:
 3467              	.LBE122:
 3468              	.LBE121:
 376:..\lvgl\lv_draw/lv_draw_rect.c ****     }
 3469              		.loc 1 376 0
 3470 061c 4F4B     		ldr	r3, .L221
 3471 061e 1C68     		ldr	r4, [r3]
 3472 0620 119B     		ldr	r3, [sp, #68]
 3473 0622 0399     		ldr	r1, [sp, #12]
 3474 0624 30A8     		add	r0, sp, #192
 3475 0626 A047     		blx	r4
 3476              	.LVL366:
 3477              	.L185:
 379:..\lvgl\lv_draw/lv_draw_rect.c ****     else {
 3478              		.loc 1 379 0
 3479 0628 1F9A     		ldr	r2, [sp, #124]
 3480 062a 1346     		mov	r3, r2
 3481 062c 1E99     		ldr	r1, [sp, #120]
 3482 062e 4B40     		eors	r3, r3, r1
 3483 0630 13F0010F 		tst	r3, #1
 3484 0634 14D0     		beq	.L191
 381:..\lvgl\lv_draw/lv_draw_rect.c ****         act_color = lv_color_mix(mcolor, gcolor, mix);
 3485              		.loc 1 381 0
 3486 0636 1C9B     		ldr	r3, [sp, #112]
 3487 0638 B3F90630 		ldrsh	r3, [r3, #6]
 3488 063c BDF9BA20 		ldrsh	r2, [sp, #186]
 3489 0640 9B1A     		subs	r3, r3, r2
 3490 0642 C3EB0323 		rsb	r3, r3, r3, lsl #8
 3491 0646 169A     		ldr	r2, [sp, #88]
 3492 0648 B3FBF2F3 		udiv	r3, r3, r2
 3493              	.LVL367:
 3494              	.LBB123:
 3495              	.LBB124:
 3496              		.loc 3 348 0
 3497 064c 13F0800F 		tst	r3, #128
 3498 0650 03D0     		beq	.L192
 3499 0652 1F9B     		ldr	r3, [sp, #124]
 3500              	.LVL368:
 3501 0654 03F00102 		and	r2, r3, #1
 3502              	.LVL369:
 3503 0658 02E0     		b	.L191
 3504              	.LVL370:
 3505              	.L192:
 3506 065a 1E9B     		ldr	r3, [sp, #120]
 3507              	.LVL371:
 3508 065c 03F00102 		and	r2, r3, #1
 3509              	.LVL372:
 3510              	.L191:
 3511              	.LBE124:
ARM GAS  C:\Users\d3bug\AppData\Local\Temp\ccPpCIYA.s 			page 103


 3512              	.LBE123:
 384:..\lvgl\lv_draw/lv_draw_rect.c **** 
 3513              		.loc 1 384 0
 3514 0660 3E4B     		ldr	r3, .L221
 3515 0662 1C68     		ldr	r4, [r3]
 3516 0664 119B     		ldr	r3, [sp, #68]
 3517 0666 0399     		ldr	r1, [sp, #12]
 3518 0668 2EA8     		add	r0, sp, #184
 3519 066a A047     		blx	r4
 3520              	.LVL373:
 386:..\lvgl\lv_draw/lv_draw_rect.c **** 
 3521              		.loc 1 386 0
 3522 066c BDF9B220 		ldrsh	r2, [sp, #178]
 3523 0670 BDF9BA30 		ldrsh	r3, [sp, #186]
 3524 0674 9A42     		cmp	r2, r3
 3525 0676 21D0     		beq	.L194
 388:..\lvgl\lv_draw/lv_draw_rect.c ****         else {
 3526              		.loc 1 388 0
 3527 0678 1F99     		ldr	r1, [sp, #124]
 3528 067a 0B46     		mov	r3, r1
 3529 067c 1E98     		ldr	r0, [sp, #120]
 3530 067e 4340     		eors	r3, r3, r0
 3531 0680 13F0010F 		tst	r3, #1
 3532 0684 01D1     		bne	.L195
 388:..\lvgl\lv_draw/lv_draw_rect.c ****         else {
 3533              		.loc 1 388 0 is_stmt 0 discriminator 1
 3534 0686 0A46     		mov	r2, r1
 3535 0688 12E0     		b	.L196
 3536              	.L195:
 390:..\lvgl\lv_draw/lv_draw_rect.c ****             act_color = lv_color_mix(mcolor, gcolor, mix);
 3537              		.loc 1 390 0 is_stmt 1
 3538 068a 1C9B     		ldr	r3, [sp, #112]
 3539 068c B3F90630 		ldrsh	r3, [r3, #6]
 3540 0690 9B1A     		subs	r3, r3, r2
 3541 0692 C3EB0323 		rsb	r3, r3, r3, lsl #8
 3542 0696 169A     		ldr	r2, [sp, #88]
 3543 0698 B3FBF2F3 		udiv	r3, r3, r2
 3544              	.LVL374:
 3545              	.LBB125:
 3546              	.LBB126:
 3547              		.loc 3 348 0
 3548 069c 13F0800F 		tst	r3, #128
 3549 06a0 03D0     		beq	.L197
 3550 06a2 1F9B     		ldr	r3, [sp, #124]
 3551              	.LVL375:
 3552 06a4 03F00102 		and	r2, r3, #1
 3553              	.LVL376:
 3554 06a8 02E0     		b	.L196
 3555              	.LVL377:
 3556              	.L197:
 3557 06aa 1E9B     		ldr	r3, [sp, #120]
 3558              	.LVL378:
 3559 06ac 03F00102 		and	r2, r3, #1
 3560              	.LVL379:
 3561              	.L196:
 3562              	.LBE126:
 3563              	.LBE125:
ARM GAS  C:\Users\d3bug\AppData\Local\Temp\ccPpCIYA.s 			page 104


 393:..\lvgl\lv_draw/lv_draw_rect.c ****     }
 3564              		.loc 1 393 0
 3565 06b0 2A4B     		ldr	r3, .L221
 3566 06b2 1C68     		ldr	r4, [r3]
 3567 06b4 119B     		ldr	r3, [sp, #68]
 3568 06b6 0399     		ldr	r1, [sp, #12]
 3569 06b8 2CA8     		add	r0, sp, #176
 3570 06ba A047     		blx	r4
 3571              	.LVL380:
 3572              	.L194:
 399:..\lvgl\lv_draw/lv_draw_rect.c ****     edge_top_area.x2 = coords->x2 - radius - 2;
 3573              		.loc 1 399 0
 3574 06bc 1C9D     		ldr	r5, [sp, #112]
 3575 06be B5F90030 		ldrsh	r3, [r5]
 3576 06c2 1D9E     		ldr	r6, [sp, #116]
 3577 06c4 3344     		add	r3, r3, r6
 3578 06c6 0233     		adds	r3, r3, #2
 3579 06c8 ADF8C830 		strh	r3, [sp, #200]	@ movhi
 400:..\lvgl\lv_draw/lv_draw_rect.c ****     edge_top_area.y1 = coords->y1;
 3580              		.loc 1 400 0
 3581 06cc B5F90430 		ldrsh	r3, [r5, #4]
 3582 06d0 9B1B     		subs	r3, r3, r6
 3583 06d2 023B     		subs	r3, r3, #2
 3584 06d4 ADF8CC30 		strh	r3, [sp, #204]	@ movhi
 401:..\lvgl\lv_draw/lv_draw_rect.c ****     edge_top_area.y2 = coords->y1;
 3585              		.loc 1 401 0
 3586 06d8 B5F90230 		ldrsh	r3, [r5, #2]
 3587 06dc ADF8CA30 		strh	r3, [sp, #202]	@ movhi
 402:..\lvgl\lv_draw/lv_draw_rect.c ****     fill_fp(&edge_top_area, mask, style->body.main_color, opa);
 3588              		.loc 1 402 0
 3589 06e0 ADF8CE30 		strh	r3, [sp, #206]	@ movhi
 403:..\lvgl\lv_draw/lv_draw_rect.c **** 
 3590              		.loc 1 403 0
 3591 06e4 1D4B     		ldr	r3, .L221
 3592 06e6 1C68     		ldr	r4, [r3]
 3593 06e8 DDF84490 		ldr	r9, [sp, #68]
 3594 06ec 4B46     		mov	r3, r9
 3595 06ee 289F     		ldr	r7, [sp, #160]
 3596 06f0 BA78     		ldrb	r2, [r7, #2]	@ zero_extendqisi2
 3597 06f2 DDF80C80 		ldr	r8, [sp, #12]
 3598 06f6 4146     		mov	r1, r8
 3599 06f8 32A8     		add	r0, sp, #200
 3600 06fa A047     		blx	r4
 3601              	.LVL381:
 405:..\lvgl\lv_draw/lv_draw_rect.c ****     edge_top_area.y2 = coords->y2;
 3602              		.loc 1 405 0
 3603 06fc B5F90630 		ldrsh	r3, [r5, #6]
 3604 0700 ADF8CA30 		strh	r3, [sp, #202]	@ movhi
 406:..\lvgl\lv_draw/lv_draw_rect.c ****     fill_fp(&edge_top_area, mask, style->body.grad_color, opa);
 3605              		.loc 1 406 0
 3606 0704 ADF8CE30 		strh	r3, [sp, #206]	@ movhi
 407:..\lvgl\lv_draw/lv_draw_rect.c **** 
 3607              		.loc 1 407 0
 3608 0708 4B46     		mov	r3, r9
 3609 070a FA78     		ldrb	r2, [r7, #3]	@ zero_extendqisi2
 3610 070c 4146     		mov	r1, r8
 3611 070e 32A8     		add	r0, sp, #200
ARM GAS  C:\Users\d3bug\AppData\Local\Temp\ccPpCIYA.s 			page 105


 3612 0710 A047     		blx	r4
 3613              	.LVL382:
 410:..\lvgl\lv_draw/lv_draw_rect.c ****     lv_coord_t seg_size = out_y_seg_end - out_y_seg_start;
 3614              		.loc 1 410 0
 3615 0712 BDF9AE30 		ldrsh	r3, [sp, #174]
 3616              	.LVL383:
 411:..\lvgl\lv_draw/lv_draw_rect.c ****     lv_point_t aa_p;
 3617              		.loc 1 411 0
 3618 0716 BDF84C90 		ldrh	r9, [sp, #76]
 3619 071a C9EB0303 		rsb	r3, r9, r3
 3620              	.LVL384:
 3621 071e 1BB2     		sxth	r3, r3
 3622 0720 0493     		str	r3, [sp, #16]
 3623              	.LVL385:
 417:..\lvgl\lv_draw/lv_draw_rect.c ****     aa_color_hor_bottom = lv_color_mix(gcolor, mcolor, mix);
 3624              		.loc 1 417 0
 3625 0722 1496     		str	r6, [sp, #80]
 3626 0724 129B     		ldr	r3, [sp, #72]
 3627 0726 1793     		str	r3, [sp, #92]
 3628 0728 F31A     		subs	r3, r6, r3
 3629 072a C3EB0323 		rsb	r3, r3, r3, lsl #8
 3630 072e 169A     		ldr	r2, [sp, #88]
 3631 0730 1592     		str	r2, [sp, #84]
 3632 0732 B3FBF2F3 		udiv	r3, r3, r2
 3633              	.LVL386:
 3634              	.LBB127:
 3635              	.LBB128:
 3636              		.loc 3 348 0
 3637 0736 5BB2     		sxtb	r3, r3
 3638 0738 002B     		cmp	r3, #0
 3639 073a 03DA     		bge	.L199
 3640 073c 1E9A     		ldr	r2, [sp, #120]
 3641 073e 02F00102 		and	r2, r2, #1
 3642 0742 02E0     		b	.L200
 3643              	.L199:
 3644 0744 1F9A     		ldr	r2, [sp, #124]
 3645 0746 02F00102 		and	r2, r2, #1
 3646              	.L200:
 3647 074a 8DF8A520 		strb	r2, [sp, #165]
 3648              	.LVL387:
 3649              	.LBE128:
 3650              	.LBE127:
 3651              	.LBB129:
 3652              	.LBB130:
 3653 074e 002B     		cmp	r3, #0
 3654 0750 06DA     		bge	.L201
 3655 0752 1F9B     		ldr	r3, [sp, #124]
 3656              	.LVL388:
 3657 0754 03F00103 		and	r3, r3, #1
 3658 0758 05E0     		b	.L202
 3659              	.L222:
 3660 075a 00BF     		.align	2
 3661              	.L221:
 3662 075c 00000000 		.word	fill_fp
 3663              	.L201:
 3664 0760 1E9B     		ldr	r3, [sp, #120]
 3665 0762 03F00103 		and	r3, r3, #1
ARM GAS  C:\Users\d3bug\AppData\Local\Temp\ccPpCIYA.s 			page 106


 3666              	.L202:
 3667 0766 8DF8A430 		strb	r3, [sp, #164]
 3668              	.LVL389:
 3669              	.LBE130:
 3670              	.LBE129:
 422:..\lvgl\lv_draw/lv_draw_rect.c ****         lv_opa_t aa_opa = opa - lv_draw_aa_get_opa(seg_size, i, opa);
 3671              		.loc 1 422 0
 3672 076a 4FF00008 		mov	r8, #0
 3673 076e 4546     		mov	r5, r8
 3674 0770 9DF8A680 		ldrb	r8, [sp, #166]	@ zero_extendqisi2
 3675 0774 9DF8A7B0 		ldrb	fp, [sp, #167]	@ zero_extendqisi2
 3676 0778 B2E0     		b	.L203
 3677              	.LVL390:
 3678              	.L208:
 3679              	.LBB131:
 423:..\lvgl\lv_draw/lv_draw_rect.c ****         px_fp(rb_origo.x + LV_CIRC_OCT2_X(aa_p) + i, rb_origo.y + LV_CIRC_OCT2_Y(aa_p) + 1, mask, a
 3680              		.loc 1 423 0 discriminator 3
 3681 077a 119C     		ldr	r4, [sp, #68]
 3682 077c 2246     		mov	r2, r4
 3683 077e 2946     		mov	r1, r5
 3684 0780 0498     		ldr	r0, [sp, #16]
 3685 0782 FFF7FEFF 		bl	lv_draw_aa_get_opa
 3686              	.LVL391:
 3687 0786 201A     		subs	r0, r4, r0
 3688 0788 C6B2     		uxtb	r6, r0
 3689              	.LVL392:
 424:..\lvgl\lv_draw/lv_draw_rect.c ****         px_fp(lb_origo.x + LV_CIRC_OCT3_X(aa_p) - i, lb_origo.y + LV_CIRC_OCT3_Y(aa_p) + 1, mask, a
 3690              		.loc 1 424 0 discriminator 3
 3691 078a 8C4B     		ldr	r3, .L223
 3692 078c 1F68     		ldr	r7, [r3]
 3693 078e BDF8D030 		ldrh	r3, [sp, #208]
 3694 0792 0593     		str	r3, [sp, #20]
 3695 0794 ACB2     		uxth	r4, r5
 3696 0796 BDF8D220 		ldrh	r2, [sp, #210]
 3697 079a 0692     		str	r2, [sp, #24]
 3698 079c BDF848A0 		ldrh	r10, [sp, #72]
 3699              	.LVL393:
 3700 07a0 02EB0A01 		add	r1, r2, r10
 3701 07a4 0131     		adds	r1, r1, #1
 3702 07a6 09EB0300 		add	r0, r9, r3
 3703 07aa 2044     		add	r0, r0, r4
 3704 07ac 0096     		str	r6, [sp]
 3705 07ae 9DF8A430 		ldrb	r3, [sp, #164]	@ zero_extendqisi2
 3706 07b2 039A     		ldr	r2, [sp, #12]
 3707 07b4 09B2     		sxth	r1, r1
 3708 07b6 00B2     		sxth	r0, r0
 3709 07b8 B847     		blx	r7
 3710              	.LVL394:
 425:..\lvgl\lv_draw/lv_draw_rect.c ****         px_fp(lt_origo.x + LV_CIRC_OCT6_X(aa_p) - i, lt_origo.y + LV_CIRC_OCT6_Y(aa_p) - 1, mask, a
 3711              		.loc 1 425 0 discriminator 3
 3712 07ba BDF8D820 		ldrh	r2, [sp, #216]
 3713 07be 0792     		str	r2, [sp, #28]
 3714 07c0 BDF8DA10 		ldrh	r1, [sp, #218]
 3715 07c4 0891     		str	r1, [sp, #32]
 3716 07c6 5144     		add	r1, r10, r1
 3717 07c8 0131     		adds	r1, r1, #1
 3718 07ca C9EB0200 		rsb	r0, r9, r2
ARM GAS  C:\Users\d3bug\AppData\Local\Temp\ccPpCIYA.s 			page 107


 3719 07ce 001B     		subs	r0, r0, r4
 3720 07d0 0096     		str	r6, [sp]
 3721 07d2 9DF8A430 		ldrb	r3, [sp, #164]	@ zero_extendqisi2
 3722 07d6 039A     		ldr	r2, [sp, #12]
 3723 07d8 09B2     		sxth	r1, r1
 3724 07da 00B2     		sxth	r0, r0
 3725 07dc B847     		blx	r7
 3726              	.LVL395:
 426:..\lvgl\lv_draw/lv_draw_rect.c ****         px_fp(rt_origo.x + LV_CIRC_OCT7_X(aa_p) + i, rt_origo.y + LV_CIRC_OCT7_Y(aa_p) - 1, mask, a
 3727              		.loc 1 426 0 discriminator 3
 3728 07de BDF8DC30 		ldrh	r3, [sp, #220]
 3729 07e2 0993     		str	r3, [sp, #36]
 3730 07e4 BDF8DE20 		ldrh	r2, [sp, #222]
 3731 07e8 0A92     		str	r2, [sp, #40]
 3732 07ea CAEB0201 		rsb	r1, r10, r2
 3733 07ee 0139     		subs	r1, r1, #1
 3734 07f0 C9EB0300 		rsb	r0, r9, r3
 3735 07f4 001B     		subs	r0, r0, r4
 3736 07f6 0096     		str	r6, [sp]
 3737 07f8 9DF8A530 		ldrb	r3, [sp, #165]	@ zero_extendqisi2
 3738 07fc 039A     		ldr	r2, [sp, #12]
 3739 07fe 09B2     		sxth	r1, r1
 3740 0800 00B2     		sxth	r0, r0
 3741 0802 B847     		blx	r7
 3742              	.LVL396:
 427:..\lvgl\lv_draw/lv_draw_rect.c **** 
 3743              		.loc 1 427 0 discriminator 3
 3744 0804 BDF8D410 		ldrh	r1, [sp, #212]
 3745 0808 0846     		mov	r0, r1
 3746 080a 0B91     		str	r1, [sp, #44]
 3747 080c BDF8D610 		ldrh	r1, [sp, #214]
 3748 0810 1091     		str	r1, [sp, #64]
 3749 0812 CAEB0101 		rsb	r1, r10, r1
 3750 0816 0139     		subs	r1, r1, #1
 3751 0818 4844     		add	r0, r9, r0
 3752 081a 2044     		add	r0, r0, r4
 3753 081c 0096     		str	r6, [sp]
 3754 081e 9DF8A530 		ldrb	r3, [sp, #165]	@ zero_extendqisi2
 3755 0822 039A     		ldr	r2, [sp, #12]
 3756 0824 09B2     		sxth	r1, r1
 3757 0826 00B2     		sxth	r0, r0
 3758 0828 B847     		blx	r7
 3759              	.LVL397:
 429:..\lvgl\lv_draw/lv_draw_rect.c ****         aa_color_ver = lv_color_mix(mcolor, gcolor, mix);
 3760              		.loc 1 429 0 discriminator 3
 3761 082a 149B     		ldr	r3, [sp, #80]
 3762 082c 139A     		ldr	r2, [sp, #76]
 3763 082e 9B1A     		subs	r3, r3, r2
 3764 0830 1D44     		add	r5, r5, r3
 3765              	.LVL398:
 3766 0832 C5EB0525 		rsb	r5, r5, r5, lsl #8
 3767 0836 159B     		ldr	r3, [sp, #84]
 3768 0838 B5FBF3F5 		udiv	r5, r5, r3
 3769              	.LVL399:
 3770              	.LBB132:
 3771              	.LBB133:
 3772              		.loc 3 348 0 discriminator 3
ARM GAS  C:\Users\d3bug\AppData\Local\Temp\ccPpCIYA.s 			page 108


 3773 083c 6DB2     		sxtb	r5, r5
 3774 083e 002D     		cmp	r5, #0
 3775 0840 03DA     		bge	.L204
 3776              		.loc 3 348 0 is_stmt 0
 3777 0842 0E9B     		ldr	r3, [sp, #56]
 3778 0844 03F00103 		and	r3, r3, #1
 3779 0848 02E0     		b	.L205
 3780              	.L204:
 3781 084a 0C9B     		ldr	r3, [sp, #48]
 3782 084c 03F00103 		and	r3, r3, #1
 3783              	.L205:
 3784 0850 63F30008 		bfi	r8, r3, #0, #1
 3785              	.LVL400:
 3786              	.LBE133:
 3787              	.LBE132:
 431:..\lvgl\lv_draw/lv_draw_rect.c ****         px_fp(lb_origo.x + LV_CIRC_OCT4_X(aa_p) - 1, lb_origo.y + LV_CIRC_OCT4_Y(aa_p) + i, mask, a
 3788              		.loc 1 431 0 is_stmt 1
 3789 0854 069B     		ldr	r3, [sp, #24]
 3790 0856 4B44     		add	r3, r3, r9
 3791 0858 1946     		mov	r1, r3
 3792 085a 2144     		add	r1, r1, r4
 3793 085c 059B     		ldr	r3, [sp, #20]
 3794 085e 5344     		add	r3, r3, r10
 3795 0860 1846     		mov	r0, r3
 3796 0862 0130     		adds	r0, r0, #1
 3797 0864 0096     		str	r6, [sp]
 3798 0866 4346     		mov	r3, r8
 3799 0868 039A     		ldr	r2, [sp, #12]
 3800 086a 09B2     		sxth	r1, r1
 3801 086c 00B2     		sxth	r0, r0
 3802 086e B847     		blx	r7
 3803              	.LVL401:
 432:..\lvgl\lv_draw/lv_draw_rect.c **** 
 3804              		.loc 1 432 0
 3805 0870 089B     		ldr	r3, [sp, #32]
 3806 0872 4B44     		add	r3, r3, r9
 3807 0874 1946     		mov	r1, r3
 3808 0876 2144     		add	r1, r1, r4
 3809 0878 079B     		ldr	r3, [sp, #28]
 3810 087a CAEB0300 		rsb	r0, r10, r3
 3811 087e 0138     		subs	r0, r0, #1
 3812 0880 0096     		str	r6, [sp]
 3813 0882 4346     		mov	r3, r8
 3814 0884 039A     		ldr	r2, [sp, #12]
 3815 0886 09B2     		sxth	r1, r1
 3816 0888 00B2     		sxth	r0, r0
 3817 088a B847     		blx	r7
 3818              	.LVL402:
 3819              	.LBB134:
 3820              	.LBB135:
 3821              		.loc 3 348 0
 3822 088c 002D     		cmp	r5, #0
 3823 088e 03DA     		bge	.L206
 3824 0890 0C9B     		ldr	r3, [sp, #48]
 3825 0892 03F00103 		and	r3, r3, #1
 3826 0896 02E0     		b	.L207
 3827              	.L206:
ARM GAS  C:\Users\d3bug\AppData\Local\Temp\ccPpCIYA.s 			page 109


 3828 0898 0E9B     		ldr	r3, [sp, #56]
 3829 089a 03F00103 		and	r3, r3, #1
 3830              	.L207:
 3831 089e 63F3000B 		bfi	fp, r3, #0, #1
 3832              	.LVL403:
 3833              	.LBE135:
 3834              	.LBE134:
 435:..\lvgl\lv_draw/lv_draw_rect.c ****         px_fp(rt_origo.x + LV_CIRC_OCT8_X(aa_p) + 1, rt_origo.y + LV_CIRC_OCT8_Y(aa_p) - i, mask, a
 3835              		.loc 1 435 0
 3836 08a2 0A9B     		ldr	r3, [sp, #40]
 3837 08a4 C9EB0301 		rsb	r1, r9, r3
 3838 08a8 091B     		subs	r1, r1, r4
 3839 08aa 099B     		ldr	r3, [sp, #36]
 3840 08ac CAEB0300 		rsb	r0, r10, r3
 3841 08b0 0138     		subs	r0, r0, #1
 3842 08b2 0096     		str	r6, [sp]
 3843 08b4 5B46     		mov	r3, fp
 3844 08b6 039D     		ldr	r5, [sp, #12]
 3845              	.LVL404:
 3846 08b8 2A46     		mov	r2, r5
 3847 08ba 09B2     		sxth	r1, r1
 3848 08bc 00B2     		sxth	r0, r0
 3849 08be B847     		blx	r7
 3850              	.LVL405:
 436:..\lvgl\lv_draw/lv_draw_rect.c ****     }
 3851              		.loc 1 436 0
 3852 08c0 109B     		ldr	r3, [sp, #64]
 3853 08c2 C9EB0301 		rsb	r1, r9, r3
 3854 08c6 091B     		subs	r1, r1, r4
 3855 08c8 0B9B     		ldr	r3, [sp, #44]
 3856 08ca 9A44     		add	r10, r10, r3
 3857 08cc 0AF10100 		add	r0, r10, #1
 3858 08d0 0096     		str	r6, [sp]
 3859 08d2 5B46     		mov	r3, fp
 3860 08d4 2A46     		mov	r2, r5
 3861 08d6 09B2     		sxth	r1, r1
 3862 08d8 00B2     		sxth	r0, r0
 3863 08da B847     		blx	r7
 3864              	.LVL406:
 3865              	.LBE131:
 422:..\lvgl\lv_draw/lv_draw_rect.c ****         lv_opa_t aa_opa = opa - lv_draw_aa_get_opa(seg_size, i, opa);
 3866              		.loc 1 422 0
 3867 08dc 0134     		adds	r4, r4, #1
 3868              	.LVL407:
 3869 08de 25B2     		sxth	r5, r4
 3870              	.LVL408:
 3871              	.L203:
 422:..\lvgl\lv_draw/lv_draw_rect.c ****         lv_opa_t aa_opa = opa - lv_draw_aa_get_opa(seg_size, i, opa);
 3872              		.loc 1 422 0 is_stmt 0 discriminator 1
 3873 08e0 049B     		ldr	r3, [sp, #16]
 3874 08e2 9D42     		cmp	r5, r3
 3875 08e4 FFF649AF 		blt	.L208
 440:..\lvgl\lv_draw/lv_draw_rect.c ****         aa_p.x = out_x_last;
 3876              		.loc 1 440 0 is_stmt 1
 3877 08e8 179B     		ldr	r3, [sp, #92]
 3878 08ea 139A     		ldr	r2, [sp, #76]
 3879 08ec 9B1A     		subs	r3, r3, r2
ARM GAS  C:\Users\d3bug\AppData\Local\Temp\ccPpCIYA.s 			page 110


 3880 08ee 002B     		cmp	r3, #0
 3881 08f0 B8BF     		it	lt
 3882 08f2 5B42     		rsblt	r3, r3, #0
 3883 08f4 049A     		ldr	r2, [sp, #16]
 3884 08f6 9342     		cmp	r3, r2
 3885 08f8 5DD1     		bne	.L139
 3886              	.LBB136:
 444:..\lvgl\lv_draw/lv_draw_rect.c ****         aa_color_hor_top = lv_color_mix(gcolor, mcolor, mix);
 3887              		.loc 1 444 0
 3888 08fa 129B     		ldr	r3, [sp, #72]
 3889 08fc C3EB0323 		rsb	r3, r3, r3, lsl #8
 3890 0900 169A     		ldr	r2, [sp, #88]
 3891 0902 B3FBF2F3 		udiv	r3, r3, r2
 3892              	.LVL409:
 3893              	.LBB137:
 3894              	.LBB138:
 3895              		.loc 3 348 0
 3896 0906 5BB2     		sxtb	r3, r3
 3897 0908 002B     		cmp	r3, #0
 3898 090a 03DA     		bge	.L210
 3899 090c 1E9A     		ldr	r2, [sp, #120]
 3900 090e 02F00102 		and	r2, r2, #1
 3901 0912 02E0     		b	.L211
 3902              	.L210:
 3903 0914 1F9A     		ldr	r2, [sp, #124]
 3904 0916 02F00102 		and	r2, r2, #1
 3905              	.L211:
 3906 091a 4FF00005 		mov	r5, #0
 3907              	.LVL410:
 3908 091e 62F30005 		bfi	r5, r2, #0, #1
 3909              	.LVL411:
 3910              	.LBE138:
 3911              	.LBE137:
 3912              	.LBB139:
 3913              	.LBB140:
 3914 0922 002B     		cmp	r3, #0
 3915 0924 03DA     		bge	.L212
 3916 0926 1F9B     		ldr	r3, [sp, #124]
 3917              	.LVL412:
 3918 0928 03F00103 		and	r3, r3, #1
 3919 092c 02E0     		b	.L213
 3920              	.L212:
 3921 092e 1E9B     		ldr	r3, [sp, #120]
 3922 0930 03F00103 		and	r3, r3, #1
 3923              	.L213:
 3924 0934 4FF00007 		mov	r7, #0
 3925              	.LVL413:
 3926 0938 63F30007 		bfi	r7, r3, #0, #1
 3927              	.LVL414:
 3928              	.LBE140:
 3929              	.LBE139:
 448:..\lvgl\lv_draw/lv_draw_rect.c ****         px_fp(rb_origo.x + LV_CIRC_OCT2_X(aa_p), rb_origo.y + LV_CIRC_OCT2_Y(aa_p), mask, aa_color_
 3930              		.loc 1 448 0
 3931 093c 119B     		ldr	r3, [sp, #68]
 3932 093e 4FEA5308 		lsr	r8, r3, #1
 3933              	.LVL415:
 449:..\lvgl\lv_draw/lv_draw_rect.c ****         px_fp(lb_origo.x + LV_CIRC_OCT4_X(aa_p), lb_origo.y + LV_CIRC_OCT4_Y(aa_p), mask, aa_color_
ARM GAS  C:\Users\d3bug\AppData\Local\Temp\ccPpCIYA.s 			page 111


 3934              		.loc 1 449 0
 3935 0942 1E4B     		ldr	r3, .L223
 3936 0944 1E68     		ldr	r6, [r3]
 3937 0946 BDF9D000 		ldrsh	r0, [sp, #208]
 3938 094a BDF84840 		ldrh	r4, [sp, #72]
 3939 094e BDF9D210 		ldrsh	r1, [sp, #210]
 3940 0952 2144     		add	r1, r1, r4
 3941 0954 2044     		add	r0, r0, r4
 3942 0956 CDF80080 		str	r8, [sp]
 3943 095a 3B46     		mov	r3, r7
 3944 095c DDF80C90 		ldr	r9, [sp, #12]
 3945 0960 4A46     		mov	r2, r9
 3946 0962 09B2     		sxth	r1, r1
 3947 0964 00B2     		sxth	r0, r0
 3948 0966 B047     		blx	r6
 3949              	.LVL416:
 450:..\lvgl\lv_draw/lv_draw_rect.c ****         px_fp(lt_origo.x + LV_CIRC_OCT6_X(aa_p), lt_origo.y + LV_CIRC_OCT6_Y(aa_p), mask, aa_color_
 3950              		.loc 1 450 0
 3951 0968 BDF9D800 		ldrsh	r0, [sp, #216]
 3952 096c BDF9DA10 		ldrsh	r1, [sp, #218]
 3953 0970 2144     		add	r1, r1, r4
 3954 0972 001B     		subs	r0, r0, r4
 3955 0974 CDF80080 		str	r8, [sp]
 3956 0978 3B46     		mov	r3, r7
 3957 097a 4A46     		mov	r2, r9
 3958 097c 09B2     		sxth	r1, r1
 3959 097e 00B2     		sxth	r0, r0
 3960 0980 B047     		blx	r6
 3961              	.LVL417:
 451:..\lvgl\lv_draw/lv_draw_rect.c ****         px_fp(rt_origo.x + LV_CIRC_OCT8_X(aa_p), rt_origo.y + LV_CIRC_OCT8_Y(aa_p), mask, aa_color_
 3962              		.loc 1 451 0
 3963 0982 BDF9DC00 		ldrsh	r0, [sp, #220]
 3964 0986 BDF9DE10 		ldrsh	r1, [sp, #222]
 3965 098a 091B     		subs	r1, r1, r4
 3966 098c 001B     		subs	r0, r0, r4
 3967 098e CDF80080 		str	r8, [sp]
 3968 0992 2B46     		mov	r3, r5
 3969 0994 4A46     		mov	r2, r9
 3970 0996 09B2     		sxth	r1, r1
 3971 0998 00B2     		sxth	r0, r0
 3972 099a B047     		blx	r6
 3973              	.LVL418:
 452:..\lvgl\lv_draw/lv_draw_rect.c ****     }
 3974              		.loc 1 452 0
 3975 099c BDF9D400 		ldrsh	r0, [sp, #212]
 3976 09a0 BDF9D610 		ldrsh	r1, [sp, #214]
 3977 09a4 091B     		subs	r1, r1, r4
 3978 09a6 2044     		add	r0, r0, r4
 3979 09a8 CDF80080 		str	r8, [sp]
 3980 09ac 2B46     		mov	r3, r5
 3981 09ae 4A46     		mov	r2, r9
 3982 09b0 09B2     		sxth	r1, r1
 3983 09b2 00B2     		sxth	r0, r0
 3984 09b4 B047     		blx	r6
 3985              	.LVL419:
 3986              	.L139:
 3987              	.LBE136:
ARM GAS  C:\Users\d3bug\AppData\Local\Temp\ccPpCIYA.s 			page 112


 458:..\lvgl\lv_draw/lv_draw_rect.c **** 
 3988              		.loc 1 458 0
 3989 09b6 39B0     		add	sp, sp, #228
 3990              		.cfi_def_cfa_offset 36
 3991              		@ sp needed
 3992 09b8 BDE8F08F 		pop	{r4, r5, r6, r7, r8, r9, r10, fp, pc}
 3993              	.LVL420:
 3994              	.L224:
 3995              		.align	2
 3996              	.L223:
 3997 09bc 00000000 		.word	px_fp
 3998              		.cfi_endproc
 3999              	.LFE14:
 4000              		.size	lv_draw_rect_main_corner, .-lv_draw_rect_main_corner
 4001              		.section	.text.lv_draw_rect,"ax",%progbits
 4002              		.align	2
 4003              		.global	lv_draw_rect
 4004              		.thumb
 4005              		.thumb_func
 4006              		.type	lv_draw_rect, %function
 4007              	lv_draw_rect:
 4008              	.LFB12:
  66:..\lvgl\lv_draw/lv_draw_rect.c ****     if(lv_area_get_height(coords) < 1 || lv_area_get_width(coords) < 1) return;
 4009              		.loc 1 66 0
 4010              		.cfi_startproc
 4011              		@ args = 0, pretend = 0, frame = 0
 4012              		@ frame_needed = 0, uses_anonymous_args = 0
 4013              	.LVL421:
 4014 0000 F8B5     		push	{r3, r4, r5, r6, r7, lr}
 4015              		.cfi_def_cfa_offset 24
 4016              		.cfi_offset 3, -24
 4017              		.cfi_offset 4, -20
 4018              		.cfi_offset 5, -16
 4019              		.cfi_offset 6, -12
 4020              		.cfi_offset 7, -8
 4021              		.cfi_offset 14, -4
 4022              	.LVL422:
 4023              	.LBB141:
 4024              	.LBB142:
 4025              		.loc 2 87 0
 4026 0002 B0F90640 		ldrsh	r4, [r0, #6]
 4027 0006 B0F90250 		ldrsh	r5, [r0, #2]
 4028 000a 641B     		subs	r4, r4, r5
 4029 000c 0134     		adds	r4, r4, #1
 4030 000e 24B2     		sxth	r4, r4
 4031              	.LVL423:
 4032              	.LBE142:
 4033              	.LBE141:
  67:..\lvgl\lv_draw/lv_draw_rect.c **** 
 4034              		.loc 1 67 0
 4035 0010 002C     		cmp	r4, #0
 4036 0012 36DD     		ble	.L225
 4037              	.LVL424:
 4038              	.LBB143:
 4039              	.LBB144:
  77:..\lvgl\lv_draw\../lv_core/../lv_misc/lv_area.h **** }
 4040              		.loc 2 77 0
ARM GAS  C:\Users\d3bug\AppData\Local\Temp\ccPpCIYA.s 			page 113


 4041 0014 B0F90440 		ldrsh	r4, [r0, #4]
 4042 0018 B0F90050 		ldrsh	r5, [r0]
 4043 001c 641B     		subs	r4, r4, r5
 4044 001e 0134     		adds	r4, r4, #1
 4045 0020 24B2     		sxth	r4, r4
 4046              	.LVL425:
 4047              	.LBE144:
 4048              	.LBE143:
  67:..\lvgl\lv_draw/lv_draw_rect.c **** 
 4049              		.loc 1 67 0
 4050 0022 002C     		cmp	r4, #0
 4051 0024 2DDD     		ble	.L225
 4052 0026 1D46     		mov	r5, r3
 4053 0028 1446     		mov	r4, r2
 4054 002a 0F46     		mov	r7, r1
 4055 002c 0646     		mov	r6, r0
  74:..\lvgl\lv_draw/lv_draw_rect.c ****         lv_draw_rect_main_mid(coords, mask, style, opa_scale);
 4056              		.loc 1 74 0
 4057 002e 937E     		ldrb	r3, [r2, #26]	@ zero_extendqisi2
 4058              	.LVL426:
 4059 0030 13F0010F 		tst	r3, #1
 4060 0034 0ED1     		bne	.L227
  74:..\lvgl\lv_draw/lv_draw_rect.c ****         lv_draw_rect_main_mid(coords, mask, style, opa_scale);
 4061              		.loc 1 74 0 is_stmt 0 discriminator 1
 4062 0036 9379     		ldrb	r3, [r2, #6]	@ zero_extendqisi2
 4063 0038 0F2B     		cmp	r3, #15
 4064 003a 0BD9     		bls	.L227
  75:..\lvgl\lv_draw/lv_draw_rect.c **** 
 4065              		.loc 1 75 0 is_stmt 1
 4066 003c 2B46     		mov	r3, r5
 4067 003e FFF7FEFF 		bl	lv_draw_rect_main_mid
 4068              	.LVL427:
  77:..\lvgl\lv_draw/lv_draw_rect.c ****             lv_draw_rect_main_corner(coords, mask, style, opa_scale);
 4069              		.loc 1 77 0
 4070 0042 B4F90430 		ldrsh	r3, [r4, #4]
 4071 0046 2BB1     		cbz	r3, .L227
  78:..\lvgl\lv_draw/lv_draw_rect.c ****         }
 4072              		.loc 1 78 0
 4073 0048 2B46     		mov	r3, r5
 4074 004a 2246     		mov	r2, r4
 4075 004c 3946     		mov	r1, r7
 4076 004e 3046     		mov	r0, r6
 4077 0050 FFF7FEFF 		bl	lv_draw_rect_main_corner
 4078              	.LVL428:
 4079              	.L227:
  82:..\lvgl\lv_draw/lv_draw_rect.c ****         lv_draw_rect_border_straight(coords, mask, style, opa_scale);
 4080              		.loc 1 82 0
 4081 0054 B4F90A30 		ldrsh	r3, [r4, #10]
 4082 0058 9BB1     		cbz	r3, .L225
  82:..\lvgl\lv_draw/lv_draw_rect.c ****         lv_draw_rect_border_straight(coords, mask, style, opa_scale);
 4083              		.loc 1 82 0 is_stmt 0 discriminator 1
 4084 005a 237B     		ldrb	r3, [r4, #12]	@ zero_extendqisi2
 4085 005c 8BB1     		cbz	r3, .L225
  82:..\lvgl\lv_draw/lv_draw_rect.c ****         lv_draw_rect_border_straight(coords, mask, style, opa_scale);
 4086              		.loc 1 82 0 discriminator 2
 4087 005e 637B     		ldrb	r3, [r4, #13]	@ zero_extendqisi2
 4088 0060 0F2B     		cmp	r3, #15
ARM GAS  C:\Users\d3bug\AppData\Local\Temp\ccPpCIYA.s 			page 114


 4089 0062 0ED9     		bls	.L225
  83:..\lvgl\lv_draw/lv_draw_rect.c **** 
 4090              		.loc 1 83 0 is_stmt 1
 4091 0064 2B46     		mov	r3, r5
 4092 0066 2246     		mov	r2, r4
 4093 0068 3946     		mov	r1, r7
 4094 006a 3046     		mov	r0, r6
 4095 006c FFF7FEFF 		bl	lv_draw_rect_border_straight
 4096              	.LVL429:
  85:..\lvgl\lv_draw/lv_draw_rect.c ****             lv_draw_rect_border_corner(coords, mask, style, opa_scale);
 4097              		.loc 1 85 0
 4098 0070 B4F90430 		ldrsh	r3, [r4, #4]
 4099 0074 2BB1     		cbz	r3, .L225
  86:..\lvgl\lv_draw/lv_draw_rect.c ****         }
 4100              		.loc 1 86 0
 4101 0076 2B46     		mov	r3, r5
 4102 0078 2246     		mov	r2, r4
 4103 007a 3946     		mov	r1, r7
 4104 007c 3046     		mov	r0, r6
 4105 007e FFF7FEFF 		bl	lv_draw_rect_border_corner
 4106              	.LVL430:
 4107              	.L225:
 4108 0082 F8BD     		pop	{r3, r4, r5, r6, r7, pc}
 4109              		.cfi_endproc
 4110              	.LFE12:
 4111              		.size	lv_draw_rect, .-lv_draw_rect
 4112              		.section	.rodata
 4113              		.align	2
 4114              		.set	.LANCHOR0,. + 0
 4115              		.type	opa_map.5700, %object
 4116              		.size	opa_map.5700, 8
 4117              	opa_map.5700:
 4118 0000 FA       		.byte	-6
 4119 0001 F2       		.byte	-14
 4120 0002 DD       		.byte	-35
 4121 0003 C4       		.byte	-60
 4122 0004 A3       		.byte	-93
 4123 0005 7A       		.byte	122
 4124 0006 4A       		.byte	74
 4125 0007 12       		.byte	18
 4126              		.text
 4127              	.Letext0:
 4128              		.file 4 "c:\\program files (x86)\\cypress\\psoc creator\\4.2\\psoc creator\\import\\gnu\\arm\\5.4.
 4129              		.file 5 "c:\\program files (x86)\\cypress\\psoc creator\\4.2\\psoc creator\\import\\gnu\\arm\\5.4.
 4130              		.file 6 "..\\lvgl\\lv_draw\\../lv_core/../lv_misc/lv_font.h"
 4131              		.file 7 "..\\lvgl\\lv_draw\\../lv_core/lv_style.h"
 4132              		.file 8 "..\\lvgl\\lv_draw\\lv_draw.h"
 4133              		.file 9 "..\\lvgl\\lv_draw\\../lv_misc/lv_circ.h"
 4134              		.section	.debug_info,"",%progbits
 4135              	.Ldebug_info0:
 4136 0000 F62A0000 		.4byte	0x2af6
 4137 0004 0400     		.2byte	0x4
 4138 0006 00000000 		.4byte	.Ldebug_abbrev0
 4139 000a 04       		.byte	0x4
 4140 000b 01       		.uleb128 0x1
 4141 000c 2E020000 		.4byte	.LASF156
 4142 0010 0C       		.byte	0xc
ARM GAS  C:\Users\d3bug\AppData\Local\Temp\ccPpCIYA.s 			page 115


 4143 0011 CE030000 		.4byte	.LASF157
 4144 0015 45030000 		.4byte	.LASF158
 4145 0019 00000000 		.4byte	.Ldebug_ranges0+0
 4146 001d 00000000 		.4byte	0
 4147 0021 00000000 		.4byte	.Ldebug_line0
 4148 0025 02       		.uleb128 0x2
 4149 0026 04       		.byte	0x4
 4150 0027 07       		.byte	0x7
 4151 0028 61000000 		.4byte	.LASF0
 4152 002c 02       		.uleb128 0x2
 4153 002d 01       		.byte	0x1
 4154 002e 06       		.byte	0x6
 4155 002f 59070000 		.4byte	.LASF1
 4156 0033 03       		.uleb128 0x3
 4157 0034 28060000 		.4byte	.LASF3
 4158 0038 04       		.byte	0x4
 4159 0039 1D       		.byte	0x1d
 4160 003a 3E000000 		.4byte	0x3e
 4161 003e 02       		.uleb128 0x2
 4162 003f 01       		.byte	0x1
 4163 0040 08       		.byte	0x8
 4164 0041 CE060000 		.4byte	.LASF2
 4165 0045 03       		.uleb128 0x3
 4166 0046 67040000 		.4byte	.LASF4
 4167 004a 04       		.byte	0x4
 4168 004b 29       		.byte	0x29
 4169 004c 50000000 		.4byte	0x50
 4170 0050 02       		.uleb128 0x2
 4171 0051 02       		.byte	0x2
 4172 0052 05       		.byte	0x5
 4173 0053 7E050000 		.4byte	.LASF5
 4174 0057 03       		.uleb128 0x3
 4175 0058 E4010000 		.4byte	.LASF6
 4176 005c 04       		.byte	0x4
 4177 005d 2B       		.byte	0x2b
 4178 005e 62000000 		.4byte	0x62
 4179 0062 02       		.uleb128 0x2
 4180 0063 02       		.byte	0x2
 4181 0064 07       		.byte	0x7
 4182 0065 65070000 		.4byte	.LASF7
 4183 0069 02       		.uleb128 0x2
 4184 006a 04       		.byte	0x4
 4185 006b 05       		.byte	0x5
 4186 006c BE050000 		.4byte	.LASF8
 4187 0070 03       		.uleb128 0x3
 4188 0071 DC060000 		.4byte	.LASF9
 4189 0075 04       		.byte	0x4
 4190 0076 41       		.byte	0x41
 4191 0077 7B000000 		.4byte	0x7b
 4192 007b 02       		.uleb128 0x2
 4193 007c 04       		.byte	0x4
 4194 007d 07       		.byte	0x7
 4195 007e 52060000 		.4byte	.LASF10
 4196 0082 02       		.uleb128 0x2
 4197 0083 08       		.byte	0x8
 4198 0084 05       		.byte	0x5
 4199 0085 08040000 		.4byte	.LASF11
ARM GAS  C:\Users\d3bug\AppData\Local\Temp\ccPpCIYA.s 			page 116


 4200 0089 02       		.uleb128 0x2
 4201 008a 08       		.byte	0x8
 4202 008b 07       		.byte	0x7
 4203 008c 6D010000 		.4byte	.LASF12
 4204 0090 04       		.uleb128 0x4
 4205 0091 04       		.byte	0x4
 4206 0092 05       		.byte	0x5
 4207 0093 696E7400 		.ascii	"int\000"
 4208 0097 03       		.uleb128 0x3
 4209 0098 BD030000 		.4byte	.LASF13
 4210 009c 05       		.byte	0x5
 4211 009d 18       		.byte	0x18
 4212 009e 33000000 		.4byte	0x33
 4213 00a2 03       		.uleb128 0x3
 4214 00a3 5B010000 		.4byte	.LASF14
 4215 00a7 05       		.byte	0x5
 4216 00a8 20       		.byte	0x20
 4217 00a9 45000000 		.4byte	0x45
 4218 00ad 03       		.uleb128 0x3
 4219 00ae 11050000 		.4byte	.LASF15
 4220 00b2 05       		.byte	0x5
 4221 00b3 24       		.byte	0x24
 4222 00b4 57000000 		.4byte	0x57
 4223 00b8 03       		.uleb128 0x3
 4224 00b9 1D010000 		.4byte	.LASF16
 4225 00bd 05       		.byte	0x5
 4226 00be 30       		.byte	0x30
 4227 00bf 70000000 		.4byte	0x70
 4228 00c3 05       		.uleb128 0x5
 4229 00c4 01       		.byte	0x1
 4230 00c5 3E000000 		.4byte	0x3e
 4231 00c9 03       		.byte	0x3
 4232 00ca 3C       		.byte	0x3c
 4233 00cb 1E010000 		.4byte	0x11e
 4234 00cf 06       		.uleb128 0x6
 4235 00d0 AC010000 		.4byte	.LASF17
 4236 00d4 00       		.byte	0
 4237 00d5 06       		.uleb128 0x6
 4238 00d6 47000000 		.4byte	.LASF18
 4239 00da 00       		.byte	0
 4240 00db 06       		.uleb128 0x6
 4241 00dc FE030000 		.4byte	.LASF19
 4242 00e0 19       		.byte	0x19
 4243 00e1 06       		.uleb128 0x6
 4244 00e2 7E040000 		.4byte	.LASF20
 4245 00e6 33       		.byte	0x33
 4246 00e7 06       		.uleb128 0x6
 4247 00e8 EE040000 		.4byte	.LASF21
 4248 00ec 4C       		.byte	0x4c
 4249 00ed 06       		.uleb128 0x6
 4250 00ee C7050000 		.4byte	.LASF22
 4251 00f2 66       		.byte	0x66
 4252 00f3 06       		.uleb128 0x6
 4253 00f4 32060000 		.4byte	.LASF23
 4254 00f8 7F       		.byte	0x7f
 4255 00f9 06       		.uleb128 0x6
 4256 00fa BF060000 		.4byte	.LASF24
ARM GAS  C:\Users\d3bug\AppData\Local\Temp\ccPpCIYA.s 			page 117


 4257 00fe 99       		.byte	0x99
 4258 00ff 06       		.uleb128 0x6
 4259 0100 19070000 		.4byte	.LASF25
 4260 0104 B2       		.byte	0xb2
 4261 0105 06       		.uleb128 0x6
 4262 0106 98070000 		.4byte	.LASF26
 4263 010a CC       		.byte	0xcc
 4264 010b 06       		.uleb128 0x6
 4265 010c 23000000 		.4byte	.LASF27
 4266 0110 E5       		.byte	0xe5
 4267 0111 06       		.uleb128 0x6
 4268 0112 1D060000 		.4byte	.LASF28
 4269 0116 FF       		.byte	0xff
 4270 0117 06       		.uleb128 0x6
 4271 0118 00000000 		.4byte	.LASF29
 4272 011c FF       		.byte	0xff
 4273 011d 00       		.byte	0
 4274 011e 07       		.uleb128 0x7
 4275 011f 01       		.byte	0x1
 4276 0120 03       		.byte	0x3
 4277 0121 5F       		.byte	0x5f
 4278 0122 5F010000 		.4byte	0x15f
 4279 0126 08       		.uleb128 0x8
 4280 0127 06060000 		.4byte	.LASF30
 4281 012b 03       		.byte	0x3
 4282 012c 61       		.byte	0x61
 4283 012d 97000000 		.4byte	0x97
 4284 0131 01       		.byte	0x1
 4285 0132 01       		.byte	0x1
 4286 0133 07       		.byte	0x7
 4287 0134 08       		.uleb128 0x8
 4288 0135 E8040000 		.4byte	.LASF31
 4289 0139 03       		.byte	0x3
 4290 013a 62       		.byte	0x62
 4291 013b 97000000 		.4byte	0x97
 4292 013f 01       		.byte	0x1
 4293 0140 01       		.byte	0x1
 4294 0141 07       		.byte	0x7
 4295 0142 09       		.uleb128 0x9
 4296 0143 72656400 		.ascii	"red\000"
 4297 0147 03       		.byte	0x3
 4298 0148 63       		.byte	0x63
 4299 0149 97000000 		.4byte	0x97
 4300 014d 01       		.byte	0x1
 4301 014e 01       		.byte	0x1
 4302 014f 07       		.byte	0x7
 4303 0150 08       		.uleb128 0x8
 4304 0151 0D000000 		.4byte	.LASF32
 4305 0155 03       		.byte	0x3
 4306 0156 64       		.byte	0x64
 4307 0157 97000000 		.4byte	0x97
 4308 015b 01       		.byte	0x1
 4309 015c 01       		.byte	0x1
 4310 015d 07       		.byte	0x7
 4311 015e 00       		.byte	0
 4312 015f 03       		.uleb128 0x3
 4313 0160 B1030000 		.4byte	.LASF33
ARM GAS  C:\Users\d3bug\AppData\Local\Temp\ccPpCIYA.s 			page 118


 4314 0164 03       		.byte	0x3
 4315 0165 65       		.byte	0x65
 4316 0166 1E010000 		.4byte	0x11e
 4317 016a 03       		.uleb128 0x3
 4318 016b CE040000 		.4byte	.LASF34
 4319 016f 03       		.byte	0x3
 4320 0170 92       		.byte	0x92
 4321 0171 5F010000 		.4byte	0x15f
 4322 0175 03       		.uleb128 0x3
 4323 0176 A6050000 		.4byte	.LASF35
 4324 017a 03       		.byte	0x3
 4325 017b A0       		.byte	0xa0
 4326 017c 97000000 		.4byte	0x97
 4327 0180 02       		.uleb128 0x2
 4328 0181 08       		.byte	0x8
 4329 0182 04       		.byte	0x4
 4330 0183 05050000 		.4byte	.LASF36
 4331 0187 02       		.uleb128 0x2
 4332 0188 04       		.byte	0x4
 4333 0189 07       		.byte	0x7
 4334 018a 41060000 		.4byte	.LASF37
 4335 018e 02       		.uleb128 0x2
 4336 018f 01       		.byte	0x1
 4337 0190 08       		.byte	0x8
 4338 0191 32030000 		.4byte	.LASF38
 4339 0195 03       		.uleb128 0x3
 4340 0196 0B060000 		.4byte	.LASF39
 4341 019a 02       		.byte	0x2
 4342 019b 1E       		.byte	0x1e
 4343 019c A2000000 		.4byte	0xa2
 4344 01a0 0A       		.uleb128 0xa
 4345 01a1 04       		.byte	0x4
 4346 01a2 02       		.byte	0x2
 4347 01a3 20       		.byte	0x20
 4348 01a4 BD010000 		.4byte	0x1bd
 4349 01a8 0B       		.uleb128 0xb
 4350 01a9 7800     		.ascii	"x\000"
 4351 01ab 02       		.byte	0x2
 4352 01ac 22       		.byte	0x22
 4353 01ad 95010000 		.4byte	0x195
 4354 01b1 00       		.byte	0
 4355 01b2 0B       		.uleb128 0xb
 4356 01b3 7900     		.ascii	"y\000"
 4357 01b5 02       		.byte	0x2
 4358 01b6 23       		.byte	0x23
 4359 01b7 95010000 		.4byte	0x195
 4360 01bb 02       		.byte	0x2
 4361 01bc 00       		.byte	0
 4362 01bd 03       		.uleb128 0x3
 4363 01be 84000000 		.4byte	.LASF40
 4364 01c2 02       		.byte	0x2
 4365 01c3 24       		.byte	0x24
 4366 01c4 A0010000 		.4byte	0x1a0
 4367 01c8 0A       		.uleb128 0xa
 4368 01c9 08       		.byte	0x8
 4369 01ca 02       		.byte	0x2
 4370 01cb 26       		.byte	0x26
ARM GAS  C:\Users\d3bug\AppData\Local\Temp\ccPpCIYA.s 			page 119


 4371 01cc FD010000 		.4byte	0x1fd
 4372 01d0 0B       		.uleb128 0xb
 4373 01d1 783100   		.ascii	"x1\000"
 4374 01d4 02       		.byte	0x2
 4375 01d5 28       		.byte	0x28
 4376 01d6 95010000 		.4byte	0x195
 4377 01da 00       		.byte	0
 4378 01db 0B       		.uleb128 0xb
 4379 01dc 793100   		.ascii	"y1\000"
 4380 01df 02       		.byte	0x2
 4381 01e0 29       		.byte	0x29
 4382 01e1 95010000 		.4byte	0x195
 4383 01e5 02       		.byte	0x2
 4384 01e6 0B       		.uleb128 0xb
 4385 01e7 783200   		.ascii	"x2\000"
 4386 01ea 02       		.byte	0x2
 4387 01eb 2A       		.byte	0x2a
 4388 01ec 95010000 		.4byte	0x195
 4389 01f0 04       		.byte	0x4
 4390 01f1 0B       		.uleb128 0xb
 4391 01f2 793200   		.ascii	"y2\000"
 4392 01f5 02       		.byte	0x2
 4393 01f6 2B       		.byte	0x2b
 4394 01f7 95010000 		.4byte	0x195
 4395 01fb 06       		.byte	0x6
 4396 01fc 00       		.byte	0
 4397 01fd 03       		.uleb128 0x3
 4398 01fe 4F070000 		.4byte	.LASF41
 4399 0202 02       		.byte	0x2
 4400 0203 2C       		.byte	0x2c
 4401 0204 C8010000 		.4byte	0x1c8
 4402 0208 0A       		.uleb128 0xa
 4403 0209 04       		.byte	0x4
 4404 020a 06       		.byte	0x6
 4405 020b 25       		.byte	0x25
 4406 020c 2F020000 		.4byte	0x22f
 4407 0210 0C       		.uleb128 0xc
 4408 0211 E7060000 		.4byte	.LASF42
 4409 0215 06       		.byte	0x6
 4410 0216 27       		.byte	0x27
 4411 0217 B8000000 		.4byte	0xb8
 4412 021b 04       		.byte	0x4
 4413 021c 08       		.byte	0x8
 4414 021d 18       		.byte	0x18
 4415 021e 00       		.byte	0
 4416 021f 0C       		.uleb128 0xc
 4417 0220 89060000 		.4byte	.LASF43
 4418 0224 06       		.byte	0x6
 4419 0225 28       		.byte	0x28
 4420 0226 B8000000 		.4byte	0xb8
 4421 022a 04       		.byte	0x4
 4422 022b 18       		.byte	0x18
 4423 022c 00       		.byte	0
 4424 022d 00       		.byte	0
 4425 022e 00       		.byte	0
 4426 022f 03       		.uleb128 0x3
 4427 0230 9D030000 		.4byte	.LASF44
ARM GAS  C:\Users\d3bug\AppData\Local\Temp\ccPpCIYA.s 			page 120


 4428 0234 06       		.byte	0x6
 4429 0235 29       		.byte	0x29
 4430 0236 08020000 		.4byte	0x208
 4431 023a 0D       		.uleb128 0xd
 4432 023b 17030000 		.4byte	.LASF159
 4433 023f 28       		.byte	0x28
 4434 0240 06       		.byte	0x6
 4435 0241 31       		.byte	0x31
 4436 0242 E0020000 		.4byte	0x2e0
 4437 0246 0E       		.uleb128 0xe
 4438 0247 A2070000 		.4byte	.LASF45
 4439 024b 06       		.byte	0x6
 4440 024c 33       		.byte	0x33
 4441 024d B8000000 		.4byte	0xb8
 4442 0251 00       		.byte	0
 4443 0252 0E       		.uleb128 0xe
 4444 0253 C1070000 		.4byte	.LASF46
 4445 0257 06       		.byte	0x6
 4446 0258 34       		.byte	0x34
 4447 0259 B8000000 		.4byte	0xb8
 4448 025d 04       		.byte	0x4
 4449 025e 0E       		.uleb128 0xe
 4450 025f 88040000 		.4byte	.LASF47
 4451 0263 06       		.byte	0x6
 4452 0264 35       		.byte	0x35
 4453 0265 E0020000 		.4byte	0x2e0
 4454 0269 08       		.byte	0x8
 4455 026a 0E       		.uleb128 0xe
 4456 026b 8E070000 		.4byte	.LASF48
 4457 026f 06       		.byte	0x6
 4458 0270 36       		.byte	0x36
 4459 0271 EB020000 		.4byte	0x2eb
 4460 0275 0C       		.byte	0xc
 4461 0276 0E       		.uleb128 0xe
 4462 0277 B7000000 		.4byte	.LASF49
 4463 027b 06       		.byte	0x6
 4464 027c 37       		.byte	0x37
 4465 027d F6020000 		.4byte	0x2f6
 4466 0281 10       		.byte	0x10
 4467 0282 0E       		.uleb128 0xe
 4468 0283 79000000 		.4byte	.LASF50
 4469 0287 06       		.byte	0x6
 4470 0288 38       		.byte	0x38
 4471 0289 20030000 		.4byte	0x320
 4472 028d 14       		.byte	0x14
 4473 028e 0E       		.uleb128 0xe
 4474 028f 23070000 		.4byte	.LASF51
 4475 0293 06       		.byte	0x6
 4476 0294 39       		.byte	0x39
 4477 0295 3A030000 		.4byte	0x33a
 4478 0299 18       		.byte	0x18
 4479 029a 0E       		.uleb128 0xe
 4480 029b 1E020000 		.4byte	.LASF52
 4481 029f 06       		.byte	0x6
 4482 02a0 3A       		.byte	0x3a
 4483 02a1 40030000 		.4byte	0x340
 4484 02a5 1C       		.byte	0x1c
ARM GAS  C:\Users\d3bug\AppData\Local\Temp\ccPpCIYA.s 			page 121


 4485 02a6 0C       		.uleb128 0xc
 4486 02a7 01060000 		.4byte	.LASF53
 4487 02ab 06       		.byte	0x6
 4488 02ac 3B       		.byte	0x3b
 4489 02ad B8000000 		.4byte	0xb8
 4490 02b1 04       		.byte	0x4
 4491 02b2 08       		.byte	0x8
 4492 02b3 18       		.byte	0x18
 4493 02b4 20       		.byte	0x20
 4494 02b5 0F       		.uleb128 0xf
 4495 02b6 62707000 		.ascii	"bpp\000"
 4496 02ba 06       		.byte	0x6
 4497 02bb 3C       		.byte	0x3c
 4498 02bc B8000000 		.4byte	0xb8
 4499 02c0 04       		.byte	0x4
 4500 02c1 04       		.byte	0x4
 4501 02c2 14       		.byte	0x14
 4502 02c3 20       		.byte	0x20
 4503 02c4 0C       		.uleb128 0xc
 4504 02c5 72060000 		.4byte	.LASF54
 4505 02c9 06       		.byte	0x6
 4506 02ca 3D       		.byte	0x3d
 4507 02cb B8000000 		.4byte	0xb8
 4508 02cf 04       		.byte	0x4
 4509 02d0 08       		.byte	0x8
 4510 02d1 0C       		.byte	0xc
 4511 02d2 20       		.byte	0x20
 4512 02d3 0E       		.uleb128 0xe
 4513 02d4 63010000 		.4byte	.LASF55
 4514 02d8 06       		.byte	0x6
 4515 02d9 3E       		.byte	0x3e
 4516 02da AD000000 		.4byte	0xad
 4517 02de 24       		.byte	0x24
 4518 02df 00       		.byte	0
 4519 02e0 10       		.uleb128 0x10
 4520 02e1 04       		.byte	0x4
 4521 02e2 E6020000 		.4byte	0x2e6
 4522 02e6 11       		.uleb128 0x11
 4523 02e7 97000000 		.4byte	0x97
 4524 02eb 10       		.uleb128 0x10
 4525 02ec 04       		.byte	0x4
 4526 02ed F1020000 		.4byte	0x2f1
 4527 02f1 11       		.uleb128 0x11
 4528 02f2 2F020000 		.4byte	0x22f
 4529 02f6 10       		.uleb128 0x10
 4530 02f7 04       		.byte	0x4
 4531 02f8 FC020000 		.4byte	0x2fc
 4532 02fc 11       		.uleb128 0x11
 4533 02fd B8000000 		.4byte	0xb8
 4534 0301 12       		.uleb128 0x12
 4535 0302 E0020000 		.4byte	0x2e0
 4536 0306 15030000 		.4byte	0x315
 4537 030a 13       		.uleb128 0x13
 4538 030b 15030000 		.4byte	0x315
 4539 030f 13       		.uleb128 0x13
 4540 0310 B8000000 		.4byte	0xb8
 4541 0314 00       		.byte	0
ARM GAS  C:\Users\d3bug\AppData\Local\Temp\ccPpCIYA.s 			page 122


 4542 0315 10       		.uleb128 0x10
 4543 0316 04       		.byte	0x4
 4544 0317 1B030000 		.4byte	0x31b
 4545 031b 11       		.uleb128 0x11
 4546 031c 3A020000 		.4byte	0x23a
 4547 0320 10       		.uleb128 0x10
 4548 0321 04       		.byte	0x4
 4549 0322 01030000 		.4byte	0x301
 4550 0326 12       		.uleb128 0x12
 4551 0327 A2000000 		.4byte	0xa2
 4552 032b 3A030000 		.4byte	0x33a
 4553 032f 13       		.uleb128 0x13
 4554 0330 15030000 		.4byte	0x315
 4555 0334 13       		.uleb128 0x13
 4556 0335 B8000000 		.4byte	0xb8
 4557 0339 00       		.byte	0
 4558 033a 10       		.uleb128 0x10
 4559 033b 04       		.byte	0x4
 4560 033c 26030000 		.4byte	0x326
 4561 0340 10       		.uleb128 0x10
 4562 0341 04       		.byte	0x4
 4563 0342 3A020000 		.4byte	0x23a
 4564 0346 03       		.uleb128 0x3
 4565 0347 5C050000 		.4byte	.LASF56
 4566 034b 06       		.byte	0x6
 4567 034c 3F       		.byte	0x3f
 4568 034d 3A020000 		.4byte	0x23a
 4569 0351 05       		.uleb128 0x5
 4570 0352 01       		.byte	0x1
 4571 0353 3E000000 		.4byte	0x3e
 4572 0357 07       		.byte	0x7
 4573 0358 21       		.byte	0x21
 4574 0359 88030000 		.4byte	0x388
 4575 035d 06       		.uleb128 0x6
 4576 035e 00070000 		.4byte	.LASF57
 4577 0362 00       		.byte	0
 4578 0363 06       		.uleb128 0x6
 4579 0364 A0040000 		.4byte	.LASF58
 4580 0368 01       		.byte	0x1
 4581 0369 06       		.uleb128 0x6
 4582 036a FE020000 		.4byte	.LASF59
 4583 036e 02       		.byte	0x2
 4584 036f 06       		.uleb128 0x6
 4585 0370 AF050000 		.4byte	.LASF60
 4586 0374 04       		.byte	0x4
 4587 0375 06       		.uleb128 0x6
 4588 0376 A7000000 		.4byte	.LASF61
 4589 037a 08       		.byte	0x8
 4590 037b 06       		.uleb128 0x6
 4591 037c 46040000 		.4byte	.LASF62
 4592 0380 0F       		.byte	0xf
 4593 0381 06       		.uleb128 0x6
 4594 0382 04020000 		.4byte	.LASF63
 4595 0386 10       		.byte	0x10
 4596 0387 00       		.byte	0
 4597 0388 03       		.uleb128 0x3
 4598 0389 B0070000 		.4byte	.LASF64
ARM GAS  C:\Users\d3bug\AppData\Local\Temp\ccPpCIYA.s 			page 123


 4599 038d 07       		.byte	0x7
 4600 038e 2A       		.byte	0x2a
 4601 038f 97000000 		.4byte	0x97
 4602 0393 03       		.uleb128 0x3
 4603 0394 ED030000 		.4byte	.LASF65
 4604 0398 07       		.byte	0x7
 4605 0399 32       		.byte	0x32
 4606 039a 97000000 		.4byte	0x97
 4607 039e 0A       		.uleb128 0xa
 4608 039f 06       		.byte	0x6
 4609 03a0 07       		.byte	0x7
 4610 03a1 3E       		.byte	0x3e
 4611 03a2 D7030000 		.4byte	0x3d7
 4612 03a6 0E       		.uleb128 0xe
 4613 03a7 28020000 		.4byte	.LASF66
 4614 03ab 07       		.byte	0x7
 4615 03ac 3F       		.byte	0x3f
 4616 03ad 6A010000 		.4byte	0x16a
 4617 03b1 00       		.byte	0
 4618 03b2 0E       		.uleb128 0xe
 4619 03b3 EB020000 		.4byte	.LASF67
 4620 03b7 07       		.byte	0x7
 4621 03b8 40       		.byte	0x40
 4622 03b9 95010000 		.4byte	0x195
 4623 03bd 02       		.byte	0x2
 4624 03be 0E       		.uleb128 0xe
 4625 03bf 84010000 		.4byte	.LASF68
 4626 03c3 07       		.byte	0x7
 4627 03c4 41       		.byte	0x41
 4628 03c5 88030000 		.4byte	0x388
 4629 03c9 04       		.byte	0x4
 4630 03ca 0B       		.uleb128 0xb
 4631 03cb 6F706100 		.ascii	"opa\000"
 4632 03cf 07       		.byte	0x7
 4633 03d0 42       		.byte	0x42
 4634 03d1 75010000 		.4byte	0x175
 4635 03d5 05       		.byte	0x5
 4636 03d6 00       		.byte	0
 4637 03d7 0A       		.uleb128 0xa
 4638 03d8 06       		.byte	0x6
 4639 03d9 07       		.byte	0x7
 4640 03da 45       		.byte	0x45
 4641 03db 04040000 		.4byte	0x404
 4642 03df 0E       		.uleb128 0xe
 4643 03e0 28020000 		.4byte	.LASF66
 4644 03e4 07       		.byte	0x7
 4645 03e5 46       		.byte	0x46
 4646 03e6 6A010000 		.4byte	0x16a
 4647 03ea 00       		.byte	0
 4648 03eb 0E       		.uleb128 0xe
 4649 03ec EB020000 		.4byte	.LASF67
 4650 03f0 07       		.byte	0x7
 4651 03f1 47       		.byte	0x47
 4652 03f2 95010000 		.4byte	0x195
 4653 03f6 02       		.byte	0x2
 4654 03f7 0E       		.uleb128 0xe
 4655 03f8 C9060000 		.4byte	.LASF69
ARM GAS  C:\Users\d3bug\AppData\Local\Temp\ccPpCIYA.s 			page 124


 4656 03fc 07       		.byte	0x7
 4657 03fd 48       		.byte	0x48
 4658 03fe 93030000 		.4byte	0x393
 4659 0402 04       		.byte	0x4
 4660 0403 00       		.byte	0
 4661 0404 0A       		.uleb128 0xa
 4662 0405 06       		.byte	0x6
 4663 0406 07       		.byte	0x7
 4664 0407 4B       		.byte	0x4b
 4665 0408 31040000 		.4byte	0x431
 4666 040c 0B       		.uleb128 0xb
 4667 040d 76657200 		.ascii	"ver\000"
 4668 0411 07       		.byte	0x7
 4669 0412 4C       		.byte	0x4c
 4670 0413 95010000 		.4byte	0x195
 4671 0417 00       		.byte	0
 4672 0418 0B       		.uleb128 0xb
 4673 0419 686F7200 		.ascii	"hor\000"
 4674 041d 07       		.byte	0x7
 4675 041e 4D       		.byte	0x4d
 4676 041f 95010000 		.4byte	0x195
 4677 0423 02       		.byte	0x2
 4678 0424 0E       		.uleb128 0xe
 4679 0425 04010000 		.4byte	.LASF70
 4680 0429 07       		.byte	0x7
 4681 042a 4E       		.byte	0x4e
 4682 042b 95010000 		.4byte	0x195
 4683 042f 04       		.byte	0x4
 4684 0430 00       		.byte	0
 4685 0431 0A       		.uleb128 0xa
 4686 0432 1A       		.byte	0x1a
 4687 0433 07       		.byte	0x7
 4688 0434 38       		.byte	0x38
 4689 0435 9D040000 		.4byte	0x49d
 4690 0439 0E       		.uleb128 0xe
 4691 043a 73050000 		.4byte	.LASF71
 4692 043e 07       		.byte	0x7
 4693 043f 39       		.byte	0x39
 4694 0440 6A010000 		.4byte	0x16a
 4695 0444 00       		.byte	0
 4696 0445 0E       		.uleb128 0xe
 4697 0446 20050000 		.4byte	.LASF72
 4698 044a 07       		.byte	0x7
 4699 044b 3A       		.byte	0x3a
 4700 044c 6A010000 		.4byte	0x16a
 4701 0450 01       		.byte	0x1
 4702 0451 0E       		.uleb128 0xe
 4703 0452 95060000 		.4byte	.LASF73
 4704 0456 07       		.byte	0x7
 4705 0457 3B       		.byte	0x3b
 4706 0458 95010000 		.4byte	0x195
 4707 045c 02       		.byte	0x2
 4708 045d 0B       		.uleb128 0xb
 4709 045e 6F706100 		.ascii	"opa\000"
 4710 0462 07       		.byte	0x7
 4711 0463 3C       		.byte	0x3c
 4712 0464 75010000 		.4byte	0x175
ARM GAS  C:\Users\d3bug\AppData\Local\Temp\ccPpCIYA.s 			page 125


 4713 0468 04       		.byte	0x4
 4714 0469 0E       		.uleb128 0xe
 4715 046a FD010000 		.4byte	.LASF74
 4716 046e 07       		.byte	0x7
 4717 046f 43       		.byte	0x43
 4718 0470 9E030000 		.4byte	0x39e
 4719 0474 06       		.byte	0x6
 4720 0475 0E       		.uleb128 0xe
 4721 0476 35070000 		.4byte	.LASF75
 4722 047a 07       		.byte	0x7
 4723 047b 49       		.byte	0x49
 4724 047c D7030000 		.4byte	0x3d7
 4725 0480 0C       		.byte	0xc
 4726 0481 0E       		.uleb128 0xe
 4727 0482 3E040000 		.4byte	.LASF76
 4728 0486 07       		.byte	0x7
 4729 0487 4F       		.byte	0x4f
 4730 0488 04040000 		.4byte	0x404
 4731 048c 12       		.byte	0x12
 4732 048d 0C       		.uleb128 0xc
 4733 048e 64060000 		.4byte	.LASF77
 4734 0492 07       		.byte	0x7
 4735 0493 51       		.byte	0x51
 4736 0494 97000000 		.4byte	0x97
 4737 0498 01       		.byte	0x1
 4738 0499 01       		.byte	0x1
 4739 049a 07       		.byte	0x7
 4740 049b 18       		.byte	0x18
 4741 049c 00       		.byte	0
 4742 049d 0A       		.uleb128 0xa
 4743 049e 10       		.byte	0x10
 4744 049f 07       		.byte	0x7
 4745 04a0 55       		.byte	0x55
 4746 04a1 E2040000 		.4byte	0x4e2
 4747 04a5 0E       		.uleb128 0xe
 4748 04a6 28020000 		.4byte	.LASF66
 4749 04aa 07       		.byte	0x7
 4750 04ab 56       		.byte	0x56
 4751 04ac 6A010000 		.4byte	0x16a
 4752 04b0 00       		.byte	0
 4753 04b1 0E       		.uleb128 0xe
 4754 04b2 3C060000 		.4byte	.LASF78
 4755 04b6 07       		.byte	0x7
 4756 04b7 57       		.byte	0x57
 4757 04b8 E2040000 		.4byte	0x4e2
 4758 04bc 04       		.byte	0x4
 4759 04bd 0E       		.uleb128 0xe
 4760 04be 66050000 		.4byte	.LASF79
 4761 04c2 07       		.byte	0x7
 4762 04c3 58       		.byte	0x58
 4763 04c4 95010000 		.4byte	0x195
 4764 04c8 08       		.byte	0x8
 4765 04c9 0E       		.uleb128 0xe
 4766 04ca 27030000 		.4byte	.LASF80
 4767 04ce 07       		.byte	0x7
 4768 04cf 59       		.byte	0x59
 4769 04d0 95010000 		.4byte	0x195
ARM GAS  C:\Users\d3bug\AppData\Local\Temp\ccPpCIYA.s 			page 126


 4770 04d4 0A       		.byte	0xa
 4771 04d5 0B       		.uleb128 0xb
 4772 04d6 6F706100 		.ascii	"opa\000"
 4773 04da 07       		.byte	0x7
 4774 04db 5A       		.byte	0x5a
 4775 04dc 75010000 		.4byte	0x175
 4776 04e0 0C       		.byte	0xc
 4777 04e1 00       		.byte	0
 4778 04e2 10       		.uleb128 0x10
 4779 04e3 04       		.byte	0x4
 4780 04e4 E8040000 		.4byte	0x4e8
 4781 04e8 11       		.uleb128 0x11
 4782 04e9 46030000 		.4byte	0x346
 4783 04ed 0A       		.uleb128 0xa
 4784 04ee 03       		.byte	0x3
 4785 04ef 07       		.byte	0x7
 4786 04f0 5D       		.byte	0x5d
 4787 04f1 1A050000 		.4byte	0x51a
 4788 04f5 0E       		.uleb128 0xe
 4789 04f6 28020000 		.4byte	.LASF66
 4790 04fa 07       		.byte	0x7
 4791 04fb 5E       		.byte	0x5e
 4792 04fc 6A010000 		.4byte	0x16a
 4793 0500 00       		.byte	0
 4794 0501 0E       		.uleb128 0xe
 4795 0502 6A060000 		.4byte	.LASF81
 4796 0506 07       		.byte	0x7
 4797 0507 5F       		.byte	0x5f
 4798 0508 75010000 		.4byte	0x175
 4799 050c 01       		.byte	0x1
 4800 050d 0B       		.uleb128 0xb
 4801 050e 6F706100 		.ascii	"opa\000"
 4802 0512 07       		.byte	0x7
 4803 0513 60       		.byte	0x60
 4804 0514 75010000 		.4byte	0x175
 4805 0518 02       		.byte	0x2
 4806 0519 00       		.byte	0
 4807 051a 0A       		.uleb128 0xa
 4808 051b 06       		.byte	0x6
 4809 051c 07       		.byte	0x7
 4810 051d 63       		.byte	0x63
 4811 051e 56050000 		.4byte	0x556
 4812 0522 0E       		.uleb128 0xe
 4813 0523 28020000 		.4byte	.LASF66
 4814 0527 07       		.byte	0x7
 4815 0528 64       		.byte	0x64
 4816 0529 6A010000 		.4byte	0x16a
 4817 052d 00       		.byte	0
 4818 052e 0E       		.uleb128 0xe
 4819 052f EB020000 		.4byte	.LASF67
 4820 0533 07       		.byte	0x7
 4821 0534 65       		.byte	0x65
 4822 0535 95010000 		.4byte	0x195
 4823 0539 02       		.byte	0x2
 4824 053a 0B       		.uleb128 0xb
 4825 053b 6F706100 		.ascii	"opa\000"
 4826 053f 07       		.byte	0x7
ARM GAS  C:\Users\d3bug\AppData\Local\Temp\ccPpCIYA.s 			page 127


 4827 0540 66       		.byte	0x66
 4828 0541 75010000 		.4byte	0x175
 4829 0545 04       		.byte	0x4
 4830 0546 0C       		.uleb128 0xc
 4831 0547 D7020000 		.4byte	.LASF82
 4832 054b 07       		.byte	0x7
 4833 054c 67       		.byte	0x67
 4834 054d 97000000 		.4byte	0x97
 4835 0551 01       		.byte	0x1
 4836 0552 01       		.byte	0x1
 4837 0553 07       		.byte	0x7
 4838 0554 05       		.byte	0x5
 4839 0555 00       		.byte	0
 4840 0556 0A       		.uleb128 0xa
 4841 0557 38       		.byte	0x38
 4842 0558 07       		.byte	0x7
 4843 0559 34       		.byte	0x34
 4844 055a 9E050000 		.4byte	0x59e
 4845 055e 0C       		.uleb128 0xc
 4846 055f 16040000 		.4byte	.LASF83
 4847 0563 07       		.byte	0x7
 4848 0564 36       		.byte	0x36
 4849 0565 97000000 		.4byte	0x97
 4850 0569 01       		.byte	0x1
 4851 056a 01       		.byte	0x1
 4852 056b 07       		.byte	0x7
 4853 056c 00       		.byte	0
 4854 056d 0E       		.uleb128 0xe
 4855 056e A6060000 		.4byte	.LASF84
 4856 0572 07       		.byte	0x7
 4857 0573 52       		.byte	0x52
 4858 0574 31040000 		.4byte	0x431
 4859 0578 02       		.byte	0x2
 4860 0579 0E       		.uleb128 0xe
 4861 057a 8B030000 		.4byte	.LASF85
 4862 057e 07       		.byte	0x7
 4863 057f 5B       		.byte	0x5b
 4864 0580 9D040000 		.4byte	0x49d
 4865 0584 1C       		.byte	0x1c
 4866 0585 0E       		.uleb128 0xe
 4867 0586 95040000 		.4byte	.LASF86
 4868 058a 07       		.byte	0x7
 4869 058b 61       		.byte	0x61
 4870 058c ED040000 		.4byte	0x4ed
 4871 0590 2C       		.byte	0x2c
 4872 0591 0E       		.uleb128 0xe
 4873 0592 EC060000 		.4byte	.LASF87
 4874 0596 07       		.byte	0x7
 4875 0597 68       		.byte	0x68
 4876 0598 1A050000 		.4byte	0x51a
 4877 059c 30       		.byte	0x30
 4878 059d 00       		.byte	0
 4879 059e 03       		.uleb128 0x3
 4880 059f 6E000000 		.4byte	.LASF88
 4881 05a3 07       		.byte	0x7
 4882 05a4 69       		.byte	0x69
 4883 05a5 56050000 		.4byte	0x556
ARM GAS  C:\Users\d3bug\AppData\Local\Temp\ccPpCIYA.s 			page 128


 4884 05a9 02       		.uleb128 0x2
 4885 05aa 01       		.byte	0x1
 4886 05ab 02       		.byte	0x2
 4887 05ac 0C030000 		.4byte	.LASF89
 4888 05b0 10       		.uleb128 0x10
 4889 05b1 04       		.byte	0x4
 4890 05b2 B6050000 		.4byte	0x5b6
 4891 05b6 11       		.uleb128 0x11
 4892 05b7 FD010000 		.4byte	0x1fd
 4893 05bb 10       		.uleb128 0x10
 4894 05bc 04       		.byte	0x4
 4895 05bd C1050000 		.4byte	0x5c1
 4896 05c1 11       		.uleb128 0x11
 4897 05c2 9E050000 		.4byte	0x59e
 4898 05c6 14       		.uleb128 0x14
 4899 05c7 55040000 		.4byte	.LASF90
 4900 05cb 02       		.byte	0x2
 4901 05cc 4B       		.byte	0x4b
 4902 05cd 95010000 		.4byte	0x195
 4903 05d1 03       		.byte	0x3
 4904 05d2 E2050000 		.4byte	0x5e2
 4905 05d6 15       		.uleb128 0x15
 4906 05d7 E1040000 		.4byte	.LASF92
 4907 05db 02       		.byte	0x2
 4908 05dc 4B       		.byte	0x4b
 4909 05dd B0050000 		.4byte	0x5b0
 4910 05e1 00       		.byte	0
 4911 05e2 14       		.uleb128 0x14
 4912 05e3 0A010000 		.4byte	.LASF91
 4913 05e7 02       		.byte	0x2
 4914 05e8 55       		.byte	0x55
 4915 05e9 95010000 		.4byte	0x195
 4916 05ed 03       		.byte	0x3
 4917 05ee FE050000 		.4byte	0x5fe
 4918 05f2 15       		.uleb128 0x15
 4919 05f3 E1040000 		.4byte	.LASF92
 4920 05f7 02       		.byte	0x2
 4921 05f8 55       		.byte	0x55
 4922 05f9 B0050000 		.4byte	0x5b0
 4923 05fd 00       		.byte	0
 4924 05fe 16       		.uleb128 0x16
 4925 05ff D2000000 		.4byte	.LASF93
 4926 0603 03       		.byte	0x3
 4927 0604 4601     		.2byte	0x146
 4928 0606 6A010000 		.4byte	0x16a
 4929 060a 03       		.byte	0x3
 4930 060b 3E060000 		.4byte	0x63e
 4931 060f 17       		.uleb128 0x17
 4932 0610 633100   		.ascii	"c1\000"
 4933 0613 03       		.byte	0x3
 4934 0614 4601     		.2byte	0x146
 4935 0616 6A010000 		.4byte	0x16a
 4936 061a 17       		.uleb128 0x17
 4937 061b 633200   		.ascii	"c2\000"
 4938 061e 03       		.byte	0x3
 4939 061f 4601     		.2byte	0x146
 4940 0621 6A010000 		.4byte	0x16a
ARM GAS  C:\Users\d3bug\AppData\Local\Temp\ccPpCIYA.s 			page 129


 4941 0625 17       		.uleb128 0x17
 4942 0626 6D697800 		.ascii	"mix\000"
 4943 062a 03       		.byte	0x3
 4944 062b 4601     		.2byte	0x146
 4945 062d 97000000 		.4byte	0x97
 4946 0631 18       		.uleb128 0x18
 4947 0632 72657400 		.ascii	"ret\000"
 4948 0636 03       		.byte	0x3
 4949 0637 4801     		.2byte	0x148
 4950 0639 6A010000 		.4byte	0x16a
 4951 063d 00       		.byte	0
 4952 063e 19       		.uleb128 0x19
 4953 063f DF000000 		.4byte	.LASF110
 4954 0643 01       		.byte	0x1
 4955 0644 7205     		.2byte	0x572
 4956 0646 AD000000 		.4byte	0xad
 4957 064a 00000000 		.4byte	.LFB17
 4958 064e 24000000 		.4byte	.LFE17-.LFB17
 4959 0652 01       		.uleb128 0x1
 4960 0653 9C       		.byte	0x9c
 4961 0654 83060000 		.4byte	0x683
 4962 0658 1A       		.uleb128 0x1a
 4963 0659 7200     		.ascii	"r\000"
 4964 065b 01       		.byte	0x1
 4965 065c 7205     		.2byte	0x572
 4966 065e AD000000 		.4byte	0xad
 4967 0662 00000000 		.4byte	.LLST0
 4968 0666 1A       		.uleb128 0x1a
 4969 0667 7700     		.ascii	"w\000"
 4970 0669 01       		.byte	0x1
 4971 066a 7205     		.2byte	0x572
 4972 066c 95010000 		.4byte	0x195
 4973 0670 59000000 		.4byte	.LLST1
 4974 0674 1A       		.uleb128 0x1a
 4975 0675 6800     		.ascii	"h\000"
 4976 0677 01       		.byte	0x1
 4977 0678 7205     		.2byte	0x572
 4978 067a 95010000 		.4byte	0x195
 4979 067e 7A000000 		.4byte	.LLST2
 4980 0682 00       		.byte	0
 4981 0683 1B       		.uleb128 0x1b
 4982 0684 D1050000 		.4byte	.LASF105
 4983 0688 01       		.byte	0x1
 4984 0689 66       		.byte	0x66
 4985 068a 00000000 		.4byte	.LFB13
 4986 068e 40010000 		.4byte	.LFE13-.LFB13
 4987 0692 01       		.uleb128 0x1
 4988 0693 9C       		.byte	0x9c
 4989 0694 55080000 		.4byte	0x855
 4990 0698 1C       		.uleb128 0x1c
 4991 0699 9F050000 		.4byte	.LASF94
 4992 069d 01       		.byte	0x1
 4993 069e 66       		.byte	0x66
 4994 069f B0050000 		.4byte	0x5b0
 4995 06a3 9B000000 		.4byte	.LLST3
 4996 06a7 1C       		.uleb128 0x1c
 4997 06a8 9B040000 		.4byte	.LASF95
ARM GAS  C:\Users\d3bug\AppData\Local\Temp\ccPpCIYA.s 			page 130


 4998 06ac 01       		.byte	0x1
 4999 06ad 66       		.byte	0x66
 5000 06ae B0050000 		.4byte	0x5b0
 5001 06b2 C7000000 		.4byte	.LLST4
 5002 06b6 1C       		.uleb128 0x1c
 5003 06b7 FA060000 		.4byte	.LASF96
 5004 06bb 01       		.byte	0x1
 5005 06bc 66       		.byte	0x66
 5006 06bd BB050000 		.4byte	0x5bb
 5007 06c1 00010000 		.4byte	.LLST5
 5008 06c5 1C       		.uleb128 0x1c
 5009 06c6 9C060000 		.4byte	.LASF97
 5010 06ca 01       		.byte	0x1
 5011 06cb 66       		.byte	0x66
 5012 06cc 75010000 		.4byte	0x175
 5013 06d0 45010000 		.4byte	.LLST6
 5014 06d4 1D       		.uleb128 0x1d
 5015 06d5 95060000 		.4byte	.LASF73
 5016 06d9 01       		.byte	0x1
 5017 06da 68       		.byte	0x68
 5018 06db AD000000 		.4byte	0xad
 5019 06df 66010000 		.4byte	.LLST7
 5020 06e3 1E       		.uleb128 0x1e
 5021 06e4 EF010000 		.4byte	.LASF98
 5022 06e8 01       		.byte	0x1
 5023 06e9 6A       		.byte	0x6a
 5024 06ea 6A010000 		.4byte	0x16a
 5025 06ee 1D       		.uleb128 0x1d
 5026 06ef 34050000 		.4byte	.LASF99
 5027 06f3 01       		.byte	0x1
 5028 06f4 6B       		.byte	0x6b
 5029 06f5 6A010000 		.4byte	0x16a
 5030 06f9 8F010000 		.4byte	.LLST8
 5031 06fd 1F       		.uleb128 0x1f
 5032 06fe 6D697800 		.ascii	"mix\000"
 5033 0702 01       		.byte	0x1
 5034 0703 6C       		.byte	0x6c
 5035 0704 97000000 		.4byte	0x97
 5036 0708 AD010000 		.4byte	.LLST9
 5037 070c 1E       		.uleb128 0x1e
 5038 070d B1040000 		.4byte	.LASF100
 5039 0711 01       		.byte	0x1
 5040 0712 6D       		.byte	0x6d
 5041 0713 95010000 		.4byte	0x195
 5042 0717 1E       		.uleb128 0x1e
 5043 0718 EB020000 		.4byte	.LASF67
 5044 071c 01       		.byte	0x1
 5045 071d 6E       		.byte	0x6e
 5046 071e 95010000 		.4byte	0x195
 5047 0722 1F       		.uleb128 0x1f
 5048 0723 6F706100 		.ascii	"opa\000"
 5049 0727 01       		.byte	0x1
 5050 0728 6F       		.byte	0x6f
 5051 0729 75010000 		.4byte	0x175
 5052 072d 0F020000 		.4byte	.LLST10
 5053 0731 20       		.uleb128 0x20
 5054 0732 52050000 		.4byte	.LASF101
ARM GAS  C:\Users\d3bug\AppData\Local\Temp\ccPpCIYA.s 			page 131


 5055 0736 01       		.byte	0x1
 5056 0737 76       		.byte	0x76
 5057 0738 FD010000 		.4byte	0x1fd
 5058 073c 02       		.uleb128 0x2
 5059 073d 91       		.byte	0x91
 5060 073e 50       		.sleb128 -48
 5061 073f 21       		.uleb128 0x21
 5062 0740 E2050000 		.4byte	0x5e2
 5063 0744 1E000000 		.4byte	.LBB73
 5064 0748 10000000 		.4byte	.LBE73-.LBB73
 5065 074c 01       		.byte	0x1
 5066 074d 6D       		.byte	0x6d
 5067 074e 5C070000 		.4byte	0x75c
 5068 0752 22       		.uleb128 0x22
 5069 0753 F2050000 		.4byte	0x5f2
 5070 0757 22020000 		.4byte	.LLST11
 5071 075b 00       		.byte	0
 5072 075c 21       		.uleb128 0x21
 5073 075d C6050000 		.4byte	0x5c6
 5074 0761 2E000000 		.4byte	.LBB75
 5075 0765 10000000 		.4byte	.LBE75-.LBB75
 5076 0769 01       		.byte	0x1
 5077 076a 6E       		.byte	0x6e
 5078 076b 79070000 		.4byte	0x779
 5079 076f 22       		.uleb128 0x22
 5080 0770 D6050000 		.4byte	0x5d6
 5081 0774 35020000 		.4byte	.LLST12
 5082 0778 00       		.byte	0
 5083 0779 23       		.uleb128 0x23
 5084 077a AE000000 		.4byte	.LBB77
 5085 077e 88000000 		.4byte	.LBE77-.LBB77
 5086 0782 1B080000 		.4byte	0x81b
 5087 0786 1F       		.uleb128 0x1f
 5088 0787 726F7700 		.ascii	"row\000"
 5089 078b 01       		.byte	0x1
 5090 078c 8A       		.byte	0x8a
 5091 078d 95010000 		.4byte	0x195
 5092 0791 48020000 		.4byte	.LLST13
 5093 0795 1D       		.uleb128 0x1d
 5094 0796 B5060000 		.4byte	.LASF102
 5095 079a 01       		.byte	0x1
 5096 079b 8B       		.byte	0x8b
 5097 079c 95010000 		.4byte	0x195
 5098 07a0 71020000 		.4byte	.LLST14
 5099 07a4 1D       		.uleb128 0x1d
 5100 07a5 86070000 		.4byte	.LASF103
 5101 07a9 01       		.byte	0x1
 5102 07aa 8C       		.byte	0x8c
 5103 07ab 95010000 		.4byte	0x195
 5104 07af A5020000 		.4byte	.LLST15
 5105 07b3 1E       		.uleb128 0x1e
 5106 07b4 AB060000 		.4byte	.LASF104
 5107 07b8 01       		.byte	0x1
 5108 07b9 8D       		.byte	0x8d
 5109 07ba 6A010000 		.4byte	0x16a
 5110 07be 21       		.uleb128 0x21
 5111 07bf FE050000 		.4byte	0x5fe
ARM GAS  C:\Users\d3bug\AppData\Local\Temp\ccPpCIYA.s 			page 132


 5112 07c3 00010000 		.4byte	.LBB78
 5113 07c7 16000000 		.4byte	.LBE78-.LBB78
 5114 07cb 01       		.byte	0x1
 5115 07cc 9E       		.byte	0x9e
 5116 07cd F8070000 		.4byte	0x7f8
 5117 07d1 22       		.uleb128 0x22
 5118 07d2 25060000 		.4byte	0x625
 5119 07d6 B8020000 		.4byte	.LLST16
 5120 07da 24       		.uleb128 0x24
 5121 07db 1A060000 		.4byte	0x61a
 5122 07df 24       		.uleb128 0x24
 5123 07e0 0F060000 		.4byte	0x60f
 5124 07e4 25       		.uleb128 0x25
 5125 07e5 00010000 		.4byte	.LBB79
 5126 07e9 16000000 		.4byte	.LBE79-.LBB79
 5127 07ed 26       		.uleb128 0x26
 5128 07ee 31060000 		.4byte	0x631
 5129 07f2 1A030000 		.4byte	.LLST17
 5130 07f6 00       		.byte	0
 5131 07f7 00       		.byte	0
 5132 07f8 27       		.uleb128 0x27
 5133 07f9 24010000 		.4byte	.LVL37
 5134 07fd 02       		.uleb128 0x2
 5135 07fe 77       		.byte	0x77
 5136 07ff 00       		.sleb128 0
 5137 0800 28       		.uleb128 0x28
 5138 0801 01       		.uleb128 0x1
 5139 0802 50       		.byte	0x50
 5140 0803 02       		.uleb128 0x2
 5141 0804 91       		.byte	0x91
 5142 0805 50       		.sleb128 -48
 5143 0806 28       		.uleb128 0x28
 5144 0807 01       		.uleb128 0x1
 5145 0808 51       		.byte	0x51
 5146 0809 03       		.uleb128 0x3
 5147 080a 7D       		.byte	0x7d
 5148 080b 00       		.sleb128 0
 5149 080c 06       		.byte	0x6
 5150 080d 28       		.uleb128 0x28
 5151 080e 01       		.uleb128 0x1
 5152 080f 52       		.byte	0x52
 5153 0810 02       		.uleb128 0x2
 5154 0811 78       		.byte	0x78
 5155 0812 00       		.sleb128 0
 5156 0813 28       		.uleb128 0x28
 5157 0814 01       		.uleb128 0x1
 5158 0815 53       		.byte	0x53
 5159 0816 02       		.uleb128 0x2
 5160 0817 76       		.byte	0x76
 5161 0818 00       		.sleb128 0
 5162 0819 00       		.byte	0
 5163 081a 00       		.byte	0
 5164 081b 29       		.uleb128 0x29
 5165 081c 56000000 		.4byte	.LVL20
 5166 0820 3E060000 		.4byte	0x63e
 5167 0824 2F080000 		.4byte	0x82f
 5168 0828 28       		.uleb128 0x28
ARM GAS  C:\Users\d3bug\AppData\Local\Temp\ccPpCIYA.s 			page 133


 5169 0829 01       		.uleb128 0x1
 5170 082a 52       		.byte	0x52
 5171 082b 02       		.uleb128 0x2
 5172 082c 74       		.byte	0x74
 5173 082d 00       		.sleb128 0
 5174 082e 00       		.byte	0
 5175 082f 27       		.uleb128 0x27
 5176 0830 AC000000 		.4byte	.LVL22
 5177 0834 02       		.uleb128 0x2
 5178 0835 74       		.byte	0x74
 5179 0836 00       		.sleb128 0
 5180 0837 28       		.uleb128 0x28
 5181 0838 01       		.uleb128 0x1
 5182 0839 50       		.byte	0x50
 5183 083a 02       		.uleb128 0x2
 5184 083b 91       		.byte	0x91
 5185 083c 50       		.sleb128 -48
 5186 083d 28       		.uleb128 0x28
 5187 083e 01       		.uleb128 0x1
 5188 083f 51       		.byte	0x51
 5189 0840 03       		.uleb128 0x3
 5190 0841 7D       		.byte	0x7d
 5191 0842 00       		.sleb128 0
 5192 0843 06       		.byte	0x6
 5193 0844 28       		.uleb128 0x28
 5194 0845 01       		.uleb128 0x1
 5195 0846 52       		.byte	0x52
 5196 0847 05       		.uleb128 0x5
 5197 0848 91       		.byte	0x91
 5198 0849 BC7F     		.sleb128 -68
 5199 084b 94       		.byte	0x94
 5200 084c 01       		.byte	0x1
 5201 084d 28       		.uleb128 0x28
 5202 084e 01       		.uleb128 0x1
 5203 084f 53       		.byte	0x53
 5204 0850 02       		.uleb128 0x2
 5205 0851 76       		.byte	0x76
 5206 0852 00       		.sleb128 0
 5207 0853 00       		.byte	0
 5208 0854 00       		.byte	0
 5209 0855 2A       		.uleb128 0x2a
 5210 0856 C7010000 		.4byte	.LASF106
 5211 085a 01       		.byte	0x1
 5212 085b D301     		.2byte	0x1d3
 5213 085d 00000000 		.4byte	.LFB15
 5214 0861 4C040000 		.4byte	.LFE15-.LFB15
 5215 0865 01       		.uleb128 0x1
 5216 0866 9C       		.byte	0x9c
 5217 0867 500C0000 		.4byte	0xc50
 5218 086b 2B       		.uleb128 0x2b
 5219 086c 9F050000 		.4byte	.LASF94
 5220 0870 01       		.byte	0x1
 5221 0871 D301     		.2byte	0x1d3
 5222 0873 B0050000 		.4byte	0x5b0
 5223 0877 38030000 		.4byte	.LLST18
 5224 087b 2B       		.uleb128 0x2b
 5225 087c 9B040000 		.4byte	.LASF95
ARM GAS  C:\Users\d3bug\AppData\Local\Temp\ccPpCIYA.s 			page 134


 5226 0880 01       		.byte	0x1
 5227 0881 D301     		.2byte	0x1d3
 5228 0883 B0050000 		.4byte	0x5b0
 5229 0887 7D030000 		.4byte	.LLST19
 5230 088b 2B       		.uleb128 0x2b
 5231 088c FA060000 		.4byte	.LASF96
 5232 0890 01       		.byte	0x1
 5233 0891 D301     		.2byte	0x1d3
 5234 0893 BB050000 		.4byte	0x5bb
 5235 0897 AA030000 		.4byte	.LLST20
 5236 089b 2B       		.uleb128 0x2b
 5237 089c 9C060000 		.4byte	.LASF97
 5238 08a0 01       		.byte	0x1
 5239 08a1 D301     		.2byte	0x1d3
 5240 08a3 75010000 		.4byte	0x175
 5241 08a7 EF030000 		.4byte	.LLST21
 5242 08ab 2C       		.uleb128 0x2c
 5243 08ac 95060000 		.4byte	.LASF73
 5244 08b0 01       		.byte	0x1
 5245 08b1 D501     		.2byte	0x1d5
 5246 08b3 AD000000 		.4byte	0xad
 5247 08b7 29040000 		.4byte	.LLST22
 5248 08bb 2D       		.uleb128 0x2d
 5249 08bc EB020000 		.4byte	.LASF67
 5250 08c0 01       		.byte	0x1
 5251 08c1 D701     		.2byte	0x1d7
 5252 08c3 95010000 		.4byte	0x195
 5253 08c7 2D       		.uleb128 0x2d
 5254 08c8 B1040000 		.4byte	.LASF100
 5255 08cc 01       		.byte	0x1
 5256 08cd D801     		.2byte	0x1d8
 5257 08cf 95010000 		.4byte	0x195
 5258 08d3 2C       		.uleb128 0x2c
 5259 08d4 F6010000 		.4byte	.LASF107
 5260 08d8 01       		.byte	0x1
 5261 08d9 D901     		.2byte	0x1d9
 5262 08db AD000000 		.4byte	0xad
 5263 08df 5E040000 		.4byte	.LLST23
 5264 08e3 2E       		.uleb128 0x2e
 5265 08e4 6F706100 		.ascii	"opa\000"
 5266 08e8 01       		.byte	0x1
 5267 08e9 DA01     		.2byte	0x1da
 5268 08eb 75010000 		.4byte	0x175
 5269 08ef 98040000 		.4byte	.LLST24
 5270 08f3 2C       		.uleb128 0x2c
 5271 08f4 84010000 		.4byte	.LASF68
 5272 08f8 01       		.byte	0x1
 5273 08f9 DB01     		.2byte	0x1db
 5274 08fb 88030000 		.4byte	0x388
 5275 08ff BA040000 		.4byte	.LLST25
 5276 0903 2D       		.uleb128 0x2d
 5277 0904 28020000 		.4byte	.LASF66
 5278 0908 01       		.byte	0x1
 5279 0909 DC01     		.2byte	0x1dc
 5280 090b 6A010000 		.4byte	0x16a
 5281 090f 2F       		.uleb128 0x2f
 5282 0910 52050000 		.4byte	.LASF101
ARM GAS  C:\Users\d3bug\AppData\Local\Temp\ccPpCIYA.s 			page 135


 5283 0914 01       		.byte	0x1
 5284 0915 DD01     		.2byte	0x1dd
 5285 0917 FD010000 		.4byte	0x1fd
 5286 091b 02       		.uleb128 0x2
 5287 091c 91       		.byte	0x91
 5288 091d 50       		.sleb128 -48
 5289 091e 2C       		.uleb128 0x2c
 5290 091f DF020000 		.4byte	.LASF108
 5291 0923 01       		.byte	0x1
 5292 0924 DE01     		.2byte	0x1de
 5293 0926 95010000 		.4byte	0x195
 5294 092a CD040000 		.4byte	.LLST26
 5295 092e 2C       		.uleb128 0x2c
 5296 092f 2D000000 		.4byte	.LASF109
 5297 0933 01       		.byte	0x1
 5298 0934 DF01     		.2byte	0x1df
 5299 0936 95010000 		.4byte	0x195
 5300 093a 11050000 		.4byte	.LLST27
 5301 093e 30       		.uleb128 0x30
 5302 093f C6050000 		.4byte	0x5c6
 5303 0943 14000000 		.4byte	.LBB80
 5304 0947 12000000 		.4byte	.LBE80-.LBB80
 5305 094b 01       		.byte	0x1
 5306 094c D701     		.2byte	0x1d7
 5307 094e 5C090000 		.4byte	0x95c
 5308 0952 22       		.uleb128 0x22
 5309 0953 D6050000 		.4byte	0x5d6
 5310 0957 5D050000 		.4byte	.LLST28
 5311 095b 00       		.byte	0
 5312 095c 30       		.uleb128 0x30
 5313 095d E2050000 		.4byte	0x5e2
 5314 0961 26000000 		.4byte	.LBB82
 5315 0965 10000000 		.4byte	.LBE82-.LBB82
 5316 0969 01       		.byte	0x1
 5317 096a D801     		.2byte	0x1d8
 5318 096c 7A090000 		.4byte	0x97a
 5319 0970 22       		.uleb128 0x22
 5320 0971 F2050000 		.4byte	0x5f2
 5321 0975 70050000 		.4byte	.LLST29
 5322 0979 00       		.byte	0
 5323 097a 31       		.uleb128 0x31
 5324 097b 60000000 		.4byte	.LVL59
 5325 097f 3E060000 		.4byte	0x63e
 5326 0983 32       		.uleb128 0x32
 5327 0984 B6000000 		.4byte	.LVL69
 5328 0988 02       		.uleb128 0x2
 5329 0989 78       		.byte	0x78
 5330 098a 00       		.sleb128 0
 5331 098b B0090000 		.4byte	0x9b0
 5332 098f 28       		.uleb128 0x28
 5333 0990 01       		.uleb128 0x1
 5334 0991 50       		.byte	0x50
 5335 0992 02       		.uleb128 0x2
 5336 0993 91       		.byte	0x91
 5337 0994 50       		.sleb128 -48
 5338 0995 28       		.uleb128 0x28
 5339 0996 01       		.uleb128 0x1
ARM GAS  C:\Users\d3bug\AppData\Local\Temp\ccPpCIYA.s 			page 136


 5340 0997 51       		.byte	0x51
 5341 0998 04       		.uleb128 0x4
 5342 0999 91       		.byte	0x91
 5343 099a B87F     		.sleb128 -72
 5344 099c 06       		.byte	0x6
 5345 099d 28       		.uleb128 0x28
 5346 099e 01       		.uleb128 0x1
 5347 099f 52       		.byte	0x52
 5348 09a0 05       		.uleb128 0x5
 5349 09a1 91       		.byte	0x91
 5350 09a2 BC7F     		.sleb128 -68
 5351 09a4 94       		.byte	0x94
 5352 09a5 01       		.byte	0x1
 5353 09a6 28       		.uleb128 0x28
 5354 09a7 01       		.uleb128 0x1
 5355 09a8 53       		.byte	0x53
 5356 09a9 05       		.uleb128 0x5
 5357 09aa 91       		.byte	0x91
 5358 09ab B47F     		.sleb128 -76
 5359 09ad 94       		.byte	0x94
 5360 09ae 01       		.byte	0x1
 5361 09af 00       		.byte	0
 5362 09b0 32       		.uleb128 0x32
 5363 09b1 00010000 		.4byte	.LVL70
 5364 09b5 02       		.uleb128 0x2
 5365 09b6 78       		.byte	0x78
 5366 09b7 00       		.sleb128 0
 5367 09b8 DD090000 		.4byte	0x9dd
 5368 09bc 28       		.uleb128 0x28
 5369 09bd 01       		.uleb128 0x1
 5370 09be 50       		.byte	0x50
 5371 09bf 02       		.uleb128 0x2
 5372 09c0 91       		.byte	0x91
 5373 09c1 50       		.sleb128 -48
 5374 09c2 28       		.uleb128 0x28
 5375 09c3 01       		.uleb128 0x1
 5376 09c4 51       		.byte	0x51
 5377 09c5 04       		.uleb128 0x4
 5378 09c6 91       		.byte	0x91
 5379 09c7 B87F     		.sleb128 -72
 5380 09c9 06       		.byte	0x6
 5381 09ca 28       		.uleb128 0x28
 5382 09cb 01       		.uleb128 0x1
 5383 09cc 52       		.byte	0x52
 5384 09cd 05       		.uleb128 0x5
 5385 09ce 91       		.byte	0x91
 5386 09cf BC7F     		.sleb128 -68
 5387 09d1 94       		.byte	0x94
 5388 09d2 01       		.byte	0x1
 5389 09d3 28       		.uleb128 0x28
 5390 09d4 01       		.uleb128 0x1
 5391 09d5 53       		.byte	0x53
 5392 09d6 05       		.uleb128 0x5
 5393 09d7 91       		.byte	0x91
 5394 09d8 B47F     		.sleb128 -76
 5395 09da 94       		.byte	0x94
 5396 09db 01       		.byte	0x1
ARM GAS  C:\Users\d3bug\AppData\Local\Temp\ccPpCIYA.s 			page 137


 5397 09dc 00       		.byte	0
 5398 09dd 32       		.uleb128 0x32
 5399 09de 48010000 		.4byte	.LVL71
 5400 09e2 02       		.uleb128 0x2
 5401 09e3 77       		.byte	0x77
 5402 09e4 00       		.sleb128 0
 5403 09e5 0A0A0000 		.4byte	0xa0a
 5404 09e9 28       		.uleb128 0x28
 5405 09ea 01       		.uleb128 0x1
 5406 09eb 50       		.byte	0x50
 5407 09ec 02       		.uleb128 0x2
 5408 09ed 91       		.byte	0x91
 5409 09ee 50       		.sleb128 -48
 5410 09ef 28       		.uleb128 0x28
 5411 09f0 01       		.uleb128 0x1
 5412 09f1 51       		.byte	0x51
 5413 09f2 04       		.uleb128 0x4
 5414 09f3 91       		.byte	0x91
 5415 09f4 B87F     		.sleb128 -72
 5416 09f6 06       		.byte	0x6
 5417 09f7 28       		.uleb128 0x28
 5418 09f8 01       		.uleb128 0x1
 5419 09f9 52       		.byte	0x52
 5420 09fa 05       		.uleb128 0x5
 5421 09fb 91       		.byte	0x91
 5422 09fc BC7F     		.sleb128 -68
 5423 09fe 94       		.byte	0x94
 5424 09ff 01       		.byte	0x1
 5425 0a00 28       		.uleb128 0x28
 5426 0a01 01       		.uleb128 0x1
 5427 0a02 53       		.byte	0x53
 5428 0a03 05       		.uleb128 0x5
 5429 0a04 91       		.byte	0x91
 5430 0a05 B47F     		.sleb128 -76
 5431 0a07 94       		.byte	0x94
 5432 0a08 01       		.byte	0x1
 5433 0a09 00       		.byte	0
 5434 0a0a 32       		.uleb128 0x32
 5435 0a0b 7E010000 		.4byte	.LVL74
 5436 0a0f 02       		.uleb128 0x2
 5437 0a10 74       		.byte	0x74
 5438 0a11 00       		.sleb128 0
 5439 0a12 370A0000 		.4byte	0xa37
 5440 0a16 28       		.uleb128 0x28
 5441 0a17 01       		.uleb128 0x1
 5442 0a18 50       		.byte	0x50
 5443 0a19 02       		.uleb128 0x2
 5444 0a1a 91       		.byte	0x91
 5445 0a1b 50       		.sleb128 -48
 5446 0a1c 28       		.uleb128 0x28
 5447 0a1d 01       		.uleb128 0x1
 5448 0a1e 51       		.byte	0x51
 5449 0a1f 04       		.uleb128 0x4
 5450 0a20 91       		.byte	0x91
 5451 0a21 B87F     		.sleb128 -72
 5452 0a23 06       		.byte	0x6
 5453 0a24 28       		.uleb128 0x28
ARM GAS  C:\Users\d3bug\AppData\Local\Temp\ccPpCIYA.s 			page 138


 5454 0a25 01       		.uleb128 0x1
 5455 0a26 52       		.byte	0x52
 5456 0a27 05       		.uleb128 0x5
 5457 0a28 91       		.byte	0x91
 5458 0a29 BC7F     		.sleb128 -68
 5459 0a2b 94       		.byte	0x94
 5460 0a2c 01       		.byte	0x1
 5461 0a2d 28       		.uleb128 0x28
 5462 0a2e 01       		.uleb128 0x1
 5463 0a2f 53       		.byte	0x53
 5464 0a30 05       		.uleb128 0x5
 5465 0a31 91       		.byte	0x91
 5466 0a32 B47F     		.sleb128 -76
 5467 0a34 94       		.byte	0x94
 5468 0a35 01       		.byte	0x1
 5469 0a36 00       		.byte	0
 5470 0a37 32       		.uleb128 0x32
 5471 0a38 E6010000 		.4byte	.LVL78
 5472 0a3c 02       		.uleb128 0x2
 5473 0a3d 79       		.byte	0x79
 5474 0a3e 00       		.sleb128 0
 5475 0a3f 640A0000 		.4byte	0xa64
 5476 0a43 28       		.uleb128 0x28
 5477 0a44 01       		.uleb128 0x1
 5478 0a45 50       		.byte	0x50
 5479 0a46 02       		.uleb128 0x2
 5480 0a47 91       		.byte	0x91
 5481 0a48 50       		.sleb128 -48
 5482 0a49 28       		.uleb128 0x28
 5483 0a4a 01       		.uleb128 0x1
 5484 0a4b 51       		.byte	0x51
 5485 0a4c 04       		.uleb128 0x4
 5486 0a4d 91       		.byte	0x91
 5487 0a4e B87F     		.sleb128 -72
 5488 0a50 06       		.byte	0x6
 5489 0a51 28       		.uleb128 0x28
 5490 0a52 01       		.uleb128 0x1
 5491 0a53 52       		.byte	0x52
 5492 0a54 05       		.uleb128 0x5
 5493 0a55 91       		.byte	0x91
 5494 0a56 BC7F     		.sleb128 -68
 5495 0a58 94       		.byte	0x94
 5496 0a59 01       		.byte	0x1
 5497 0a5a 28       		.uleb128 0x28
 5498 0a5b 01       		.uleb128 0x1
 5499 0a5c 53       		.byte	0x53
 5500 0a5d 05       		.uleb128 0x5
 5501 0a5e 91       		.byte	0x91
 5502 0a5f B47F     		.sleb128 -76
 5503 0a61 94       		.byte	0x94
 5504 0a62 01       		.byte	0x1
 5505 0a63 00       		.byte	0
 5506 0a64 32       		.uleb128 0x32
 5507 0a65 0C020000 		.4byte	.LVL79
 5508 0a69 02       		.uleb128 0x2
 5509 0a6a 79       		.byte	0x79
 5510 0a6b 00       		.sleb128 0
ARM GAS  C:\Users\d3bug\AppData\Local\Temp\ccPpCIYA.s 			page 139


 5511 0a6c 910A0000 		.4byte	0xa91
 5512 0a70 28       		.uleb128 0x28
 5513 0a71 01       		.uleb128 0x1
 5514 0a72 50       		.byte	0x50
 5515 0a73 02       		.uleb128 0x2
 5516 0a74 91       		.byte	0x91
 5517 0a75 50       		.sleb128 -48
 5518 0a76 28       		.uleb128 0x28
 5519 0a77 01       		.uleb128 0x1
 5520 0a78 51       		.byte	0x51
 5521 0a79 04       		.uleb128 0x4
 5522 0a7a 91       		.byte	0x91
 5523 0a7b B87F     		.sleb128 -72
 5524 0a7d 06       		.byte	0x6
 5525 0a7e 28       		.uleb128 0x28
 5526 0a7f 01       		.uleb128 0x1
 5527 0a80 52       		.byte	0x52
 5528 0a81 05       		.uleb128 0x5
 5529 0a82 91       		.byte	0x91
 5530 0a83 BC7F     		.sleb128 -68
 5531 0a85 94       		.byte	0x94
 5532 0a86 01       		.byte	0x1
 5533 0a87 28       		.uleb128 0x28
 5534 0a88 01       		.uleb128 0x1
 5535 0a89 53       		.byte	0x53
 5536 0a8a 05       		.uleb128 0x5
 5537 0a8b 91       		.byte	0x91
 5538 0a8c B47F     		.sleb128 -76
 5539 0a8e 94       		.byte	0x94
 5540 0a8f 01       		.byte	0x1
 5541 0a90 00       		.byte	0
 5542 0a91 32       		.uleb128 0x32
 5543 0a92 4E020000 		.4byte	.LVL81
 5544 0a96 02       		.uleb128 0x2
 5545 0a97 79       		.byte	0x79
 5546 0a98 00       		.sleb128 0
 5547 0a99 BE0A0000 		.4byte	0xabe
 5548 0a9d 28       		.uleb128 0x28
 5549 0a9e 01       		.uleb128 0x1
 5550 0a9f 50       		.byte	0x50
 5551 0aa0 02       		.uleb128 0x2
 5552 0aa1 91       		.byte	0x91
 5553 0aa2 50       		.sleb128 -48
 5554 0aa3 28       		.uleb128 0x28
 5555 0aa4 01       		.uleb128 0x1
 5556 0aa5 51       		.byte	0x51
 5557 0aa6 04       		.uleb128 0x4
 5558 0aa7 91       		.byte	0x91
 5559 0aa8 B87F     		.sleb128 -72
 5560 0aaa 06       		.byte	0x6
 5561 0aab 28       		.uleb128 0x28
 5562 0aac 01       		.uleb128 0x1
 5563 0aad 52       		.byte	0x52
 5564 0aae 05       		.uleb128 0x5
 5565 0aaf 91       		.byte	0x91
 5566 0ab0 BC7F     		.sleb128 -68
 5567 0ab2 94       		.byte	0x94
ARM GAS  C:\Users\d3bug\AppData\Local\Temp\ccPpCIYA.s 			page 140


 5568 0ab3 01       		.byte	0x1
 5569 0ab4 28       		.uleb128 0x28
 5570 0ab5 01       		.uleb128 0x1
 5571 0ab6 53       		.byte	0x53
 5572 0ab7 05       		.uleb128 0x5
 5573 0ab8 91       		.byte	0x91
 5574 0ab9 B47F     		.sleb128 -76
 5575 0abb 94       		.byte	0x94
 5576 0abc 01       		.byte	0x1
 5577 0abd 00       		.byte	0
 5578 0abe 32       		.uleb128 0x32
 5579 0abf 74020000 		.4byte	.LVL82
 5580 0ac3 02       		.uleb128 0x2
 5581 0ac4 79       		.byte	0x79
 5582 0ac5 00       		.sleb128 0
 5583 0ac6 EB0A0000 		.4byte	0xaeb
 5584 0aca 28       		.uleb128 0x28
 5585 0acb 01       		.uleb128 0x1
 5586 0acc 50       		.byte	0x50
 5587 0acd 02       		.uleb128 0x2
 5588 0ace 91       		.byte	0x91
 5589 0acf 50       		.sleb128 -48
 5590 0ad0 28       		.uleb128 0x28
 5591 0ad1 01       		.uleb128 0x1
 5592 0ad2 51       		.byte	0x51
 5593 0ad3 04       		.uleb128 0x4
 5594 0ad4 91       		.byte	0x91
 5595 0ad5 B87F     		.sleb128 -72
 5596 0ad7 06       		.byte	0x6
 5597 0ad8 28       		.uleb128 0x28
 5598 0ad9 01       		.uleb128 0x1
 5599 0ada 52       		.byte	0x52
 5600 0adb 05       		.uleb128 0x5
 5601 0adc 91       		.byte	0x91
 5602 0add BC7F     		.sleb128 -68
 5603 0adf 94       		.byte	0x94
 5604 0ae0 01       		.byte	0x1
 5605 0ae1 28       		.uleb128 0x28
 5606 0ae2 01       		.uleb128 0x1
 5607 0ae3 53       		.byte	0x53
 5608 0ae4 05       		.uleb128 0x5
 5609 0ae5 91       		.byte	0x91
 5610 0ae6 B47F     		.sleb128 -76
 5611 0ae8 94       		.byte	0x94
 5612 0ae9 01       		.byte	0x1
 5613 0aea 00       		.byte	0
 5614 0aeb 32       		.uleb128 0x32
 5615 0aec B8020000 		.4byte	.LVL83
 5616 0af0 02       		.uleb128 0x2
 5617 0af1 79       		.byte	0x79
 5618 0af2 00       		.sleb128 0
 5619 0af3 180B0000 		.4byte	0xb18
 5620 0af7 28       		.uleb128 0x28
 5621 0af8 01       		.uleb128 0x1
 5622 0af9 50       		.byte	0x50
 5623 0afa 02       		.uleb128 0x2
 5624 0afb 91       		.byte	0x91
ARM GAS  C:\Users\d3bug\AppData\Local\Temp\ccPpCIYA.s 			page 141


 5625 0afc 50       		.sleb128 -48
 5626 0afd 28       		.uleb128 0x28
 5627 0afe 01       		.uleb128 0x1
 5628 0aff 51       		.byte	0x51
 5629 0b00 04       		.uleb128 0x4
 5630 0b01 91       		.byte	0x91
 5631 0b02 B87F     		.sleb128 -72
 5632 0b04 06       		.byte	0x6
 5633 0b05 28       		.uleb128 0x28
 5634 0b06 01       		.uleb128 0x1
 5635 0b07 52       		.byte	0x52
 5636 0b08 05       		.uleb128 0x5
 5637 0b09 91       		.byte	0x91
 5638 0b0a BC7F     		.sleb128 -68
 5639 0b0c 94       		.byte	0x94
 5640 0b0d 01       		.byte	0x1
 5641 0b0e 28       		.uleb128 0x28
 5642 0b0f 01       		.uleb128 0x1
 5643 0b10 53       		.byte	0x53
 5644 0b11 05       		.uleb128 0x5
 5645 0b12 91       		.byte	0x91
 5646 0b13 B47F     		.sleb128 -76
 5647 0b15 94       		.byte	0x94
 5648 0b16 01       		.byte	0x1
 5649 0b17 00       		.byte	0
 5650 0b18 32       		.uleb128 0x32
 5651 0b19 F8020000 		.4byte	.LVL84
 5652 0b1d 02       		.uleb128 0x2
 5653 0b1e 79       		.byte	0x79
 5654 0b1f 00       		.sleb128 0
 5655 0b20 450B0000 		.4byte	0xb45
 5656 0b24 28       		.uleb128 0x28
 5657 0b25 01       		.uleb128 0x1
 5658 0b26 50       		.byte	0x50
 5659 0b27 02       		.uleb128 0x2
 5660 0b28 91       		.byte	0x91
 5661 0b29 50       		.sleb128 -48
 5662 0b2a 28       		.uleb128 0x28
 5663 0b2b 01       		.uleb128 0x1
 5664 0b2c 51       		.byte	0x51
 5665 0b2d 04       		.uleb128 0x4
 5666 0b2e 91       		.byte	0x91
 5667 0b2f B87F     		.sleb128 -72
 5668 0b31 06       		.byte	0x6
 5669 0b32 28       		.uleb128 0x28
 5670 0b33 01       		.uleb128 0x1
 5671 0b34 52       		.byte	0x52
 5672 0b35 05       		.uleb128 0x5
 5673 0b36 91       		.byte	0x91
 5674 0b37 BC7F     		.sleb128 -68
 5675 0b39 94       		.byte	0x94
 5676 0b3a 01       		.byte	0x1
 5677 0b3b 28       		.uleb128 0x28
 5678 0b3c 01       		.uleb128 0x1
 5679 0b3d 53       		.byte	0x53
 5680 0b3e 05       		.uleb128 0x5
 5681 0b3f 91       		.byte	0x91
ARM GAS  C:\Users\d3bug\AppData\Local\Temp\ccPpCIYA.s 			page 142


 5682 0b40 B47F     		.sleb128 -76
 5683 0b42 94       		.byte	0x94
 5684 0b43 01       		.byte	0x1
 5685 0b44 00       		.byte	0
 5686 0b45 32       		.uleb128 0x32
 5687 0b46 34030000 		.4byte	.LVL85
 5688 0b4a 02       		.uleb128 0x2
 5689 0b4b 79       		.byte	0x79
 5690 0b4c 00       		.sleb128 0
 5691 0b4d 720B0000 		.4byte	0xb72
 5692 0b51 28       		.uleb128 0x28
 5693 0b52 01       		.uleb128 0x1
 5694 0b53 50       		.byte	0x50
 5695 0b54 02       		.uleb128 0x2
 5696 0b55 91       		.byte	0x91
 5697 0b56 50       		.sleb128 -48
 5698 0b57 28       		.uleb128 0x28
 5699 0b58 01       		.uleb128 0x1
 5700 0b59 51       		.byte	0x51
 5701 0b5a 04       		.uleb128 0x4
 5702 0b5b 91       		.byte	0x91
 5703 0b5c B87F     		.sleb128 -72
 5704 0b5e 06       		.byte	0x6
 5705 0b5f 28       		.uleb128 0x28
 5706 0b60 01       		.uleb128 0x1
 5707 0b61 52       		.byte	0x52
 5708 0b62 05       		.uleb128 0x5
 5709 0b63 91       		.byte	0x91
 5710 0b64 BC7F     		.sleb128 -68
 5711 0b66 94       		.byte	0x94
 5712 0b67 01       		.byte	0x1
 5713 0b68 28       		.uleb128 0x28
 5714 0b69 01       		.uleb128 0x1
 5715 0b6a 53       		.byte	0x53
 5716 0b6b 05       		.uleb128 0x5
 5717 0b6c 91       		.byte	0x91
 5718 0b6d B47F     		.sleb128 -76
 5719 0b6f 94       		.byte	0x94
 5720 0b70 01       		.byte	0x1
 5721 0b71 00       		.byte	0
 5722 0b72 32       		.uleb128 0x32
 5723 0b73 70030000 		.4byte	.LVL87
 5724 0b77 02       		.uleb128 0x2
 5725 0b78 76       		.byte	0x76
 5726 0b79 00       		.sleb128 0
 5727 0b7a 9F0B0000 		.4byte	0xb9f
 5728 0b7e 28       		.uleb128 0x28
 5729 0b7f 01       		.uleb128 0x1
 5730 0b80 50       		.byte	0x50
 5731 0b81 02       		.uleb128 0x2
 5732 0b82 91       		.byte	0x91
 5733 0b83 50       		.sleb128 -48
 5734 0b84 28       		.uleb128 0x28
 5735 0b85 01       		.uleb128 0x1
 5736 0b86 51       		.byte	0x51
 5737 0b87 04       		.uleb128 0x4
 5738 0b88 91       		.byte	0x91
ARM GAS  C:\Users\d3bug\AppData\Local\Temp\ccPpCIYA.s 			page 143


 5739 0b89 B87F     		.sleb128 -72
 5740 0b8b 06       		.byte	0x6
 5741 0b8c 28       		.uleb128 0x28
 5742 0b8d 01       		.uleb128 0x1
 5743 0b8e 52       		.byte	0x52
 5744 0b8f 05       		.uleb128 0x5
 5745 0b90 91       		.byte	0x91
 5746 0b91 BC7F     		.sleb128 -68
 5747 0b93 94       		.byte	0x94
 5748 0b94 01       		.byte	0x1
 5749 0b95 28       		.uleb128 0x28
 5750 0b96 01       		.uleb128 0x1
 5751 0b97 53       		.byte	0x53
 5752 0b98 05       		.uleb128 0x5
 5753 0b99 91       		.byte	0x91
 5754 0b9a B47F     		.sleb128 -76
 5755 0b9c 94       		.byte	0x94
 5756 0b9d 01       		.byte	0x1
 5757 0b9e 00       		.byte	0
 5758 0b9f 32       		.uleb128 0x32
 5759 0ba0 AA030000 		.4byte	.LVL88
 5760 0ba4 02       		.uleb128 0x2
 5761 0ba5 76       		.byte	0x76
 5762 0ba6 00       		.sleb128 0
 5763 0ba7 CC0B0000 		.4byte	0xbcc
 5764 0bab 28       		.uleb128 0x28
 5765 0bac 01       		.uleb128 0x1
 5766 0bad 50       		.byte	0x50
 5767 0bae 02       		.uleb128 0x2
 5768 0baf 91       		.byte	0x91
 5769 0bb0 50       		.sleb128 -48
 5770 0bb1 28       		.uleb128 0x28
 5771 0bb2 01       		.uleb128 0x1
 5772 0bb3 51       		.byte	0x51
 5773 0bb4 04       		.uleb128 0x4
 5774 0bb5 91       		.byte	0x91
 5775 0bb6 B87F     		.sleb128 -72
 5776 0bb8 06       		.byte	0x6
 5777 0bb9 28       		.uleb128 0x28
 5778 0bba 01       		.uleb128 0x1
 5779 0bbb 52       		.byte	0x52
 5780 0bbc 05       		.uleb128 0x5
 5781 0bbd 91       		.byte	0x91
 5782 0bbe BC7F     		.sleb128 -68
 5783 0bc0 94       		.byte	0x94
 5784 0bc1 01       		.byte	0x1
 5785 0bc2 28       		.uleb128 0x28
 5786 0bc3 01       		.uleb128 0x1
 5787 0bc4 53       		.byte	0x53
 5788 0bc5 05       		.uleb128 0x5
 5789 0bc6 91       		.byte	0x91
 5790 0bc7 B47F     		.sleb128 -76
 5791 0bc9 94       		.byte	0x94
 5792 0bca 01       		.byte	0x1
 5793 0bcb 00       		.byte	0
 5794 0bcc 32       		.uleb128 0x32
 5795 0bcd DC030000 		.4byte	.LVL89
ARM GAS  C:\Users\d3bug\AppData\Local\Temp\ccPpCIYA.s 			page 144


 5796 0bd1 02       		.uleb128 0x2
 5797 0bd2 76       		.byte	0x76
 5798 0bd3 00       		.sleb128 0
 5799 0bd4 F90B0000 		.4byte	0xbf9
 5800 0bd8 28       		.uleb128 0x28
 5801 0bd9 01       		.uleb128 0x1
 5802 0bda 50       		.byte	0x50
 5803 0bdb 02       		.uleb128 0x2
 5804 0bdc 91       		.byte	0x91
 5805 0bdd 50       		.sleb128 -48
 5806 0bde 28       		.uleb128 0x28
 5807 0bdf 01       		.uleb128 0x1
 5808 0be0 51       		.byte	0x51
 5809 0be1 04       		.uleb128 0x4
 5810 0be2 91       		.byte	0x91
 5811 0be3 B87F     		.sleb128 -72
 5812 0be5 06       		.byte	0x6
 5813 0be6 28       		.uleb128 0x28
 5814 0be7 01       		.uleb128 0x1
 5815 0be8 52       		.byte	0x52
 5816 0be9 05       		.uleb128 0x5
 5817 0bea 91       		.byte	0x91
 5818 0beb BC7F     		.sleb128 -68
 5819 0bed 94       		.byte	0x94
 5820 0bee 01       		.byte	0x1
 5821 0bef 28       		.uleb128 0x28
 5822 0bf0 01       		.uleb128 0x1
 5823 0bf1 53       		.byte	0x53
 5824 0bf2 05       		.uleb128 0x5
 5825 0bf3 91       		.byte	0x91
 5826 0bf4 B47F     		.sleb128 -76
 5827 0bf6 94       		.byte	0x94
 5828 0bf7 01       		.byte	0x1
 5829 0bf8 00       		.byte	0
 5830 0bf9 32       		.uleb128 0x32
 5831 0bfa 0E040000 		.4byte	.LVL90
 5832 0bfe 02       		.uleb128 0x2
 5833 0bff 76       		.byte	0x76
 5834 0c00 00       		.sleb128 0
 5835 0c01 260C0000 		.4byte	0xc26
 5836 0c05 28       		.uleb128 0x28
 5837 0c06 01       		.uleb128 0x1
 5838 0c07 50       		.byte	0x50
 5839 0c08 02       		.uleb128 0x2
 5840 0c09 91       		.byte	0x91
 5841 0c0a 50       		.sleb128 -48
 5842 0c0b 28       		.uleb128 0x28
 5843 0c0c 01       		.uleb128 0x1
 5844 0c0d 51       		.byte	0x51
 5845 0c0e 04       		.uleb128 0x4
 5846 0c0f 91       		.byte	0x91
 5847 0c10 B87F     		.sleb128 -72
 5848 0c12 06       		.byte	0x6
 5849 0c13 28       		.uleb128 0x28
 5850 0c14 01       		.uleb128 0x1
 5851 0c15 52       		.byte	0x52
 5852 0c16 05       		.uleb128 0x5
ARM GAS  C:\Users\d3bug\AppData\Local\Temp\ccPpCIYA.s 			page 145


 5853 0c17 91       		.byte	0x91
 5854 0c18 BC7F     		.sleb128 -68
 5855 0c1a 94       		.byte	0x94
 5856 0c1b 01       		.byte	0x1
 5857 0c1c 28       		.uleb128 0x28
 5858 0c1d 01       		.uleb128 0x1
 5859 0c1e 53       		.byte	0x53
 5860 0c1f 05       		.uleb128 0x5
 5861 0c20 91       		.byte	0x91
 5862 0c21 B47F     		.sleb128 -76
 5863 0c23 94       		.byte	0x94
 5864 0c24 01       		.byte	0x1
 5865 0c25 00       		.byte	0
 5866 0c26 27       		.uleb128 0x27
 5867 0c27 40040000 		.4byte	.LVL92
 5868 0c2b 02       		.uleb128 0x2
 5869 0c2c 74       		.byte	0x74
 5870 0c2d 00       		.sleb128 0
 5871 0c2e 28       		.uleb128 0x28
 5872 0c2f 01       		.uleb128 0x1
 5873 0c30 50       		.byte	0x50
 5874 0c31 02       		.uleb128 0x2
 5875 0c32 91       		.byte	0x91
 5876 0c33 50       		.sleb128 -48
 5877 0c34 28       		.uleb128 0x28
 5878 0c35 01       		.uleb128 0x1
 5879 0c36 51       		.byte	0x51
 5880 0c37 04       		.uleb128 0x4
 5881 0c38 91       		.byte	0x91
 5882 0c39 B87F     		.sleb128 -72
 5883 0c3b 06       		.byte	0x6
 5884 0c3c 28       		.uleb128 0x28
 5885 0c3d 01       		.uleb128 0x1
 5886 0c3e 52       		.byte	0x52
 5887 0c3f 05       		.uleb128 0x5
 5888 0c40 91       		.byte	0x91
 5889 0c41 BC7F     		.sleb128 -68
 5890 0c43 94       		.byte	0x94
 5891 0c44 01       		.byte	0x1
 5892 0c45 28       		.uleb128 0x28
 5893 0c46 01       		.uleb128 0x1
 5894 0c47 53       		.byte	0x53
 5895 0c48 05       		.uleb128 0x5
 5896 0c49 91       		.byte	0x91
 5897 0c4a B47F     		.sleb128 -76
 5898 0c4c 94       		.byte	0x94
 5899 0c4d 01       		.byte	0x1
 5900 0c4e 00       		.byte	0
 5901 0c4f 00       		.byte	0
 5902 0c50 19       		.uleb128 0x19
 5903 0c51 88050000 		.4byte	.LASF111
 5904 0c55 01       		.byte	0x1
 5905 0c56 8C05     		.2byte	0x58c
 5906 0c58 75010000 		.4byte	0x175
 5907 0c5c 00000000 		.4byte	.LFB18
 5908 0c60 2C000000 		.4byte	.LFE18-.LFB18
 5909 0c64 01       		.uleb128 0x1
ARM GAS  C:\Users\d3bug\AppData\Local\Temp\ccPpCIYA.s 			page 146


 5910 0c65 9C       		.byte	0x9c
 5911 0c66 C40C0000 		.4byte	0xcc4
 5912 0c6a 1A       		.uleb128 0x1a
 5913 0c6b 73656700 		.ascii	"seg\000"
 5914 0c6f 01       		.byte	0x1
 5915 0c70 8C05     		.2byte	0x58c
 5916 0c72 95010000 		.4byte	0x195
 5917 0c76 83050000 		.4byte	.LLST30
 5918 0c7a 2B       		.uleb128 0x2b
 5919 0c7b CC000000 		.4byte	.LASF112
 5920 0c7f 01       		.byte	0x1
 5921 0c80 8C05     		.2byte	0x58c
 5922 0c82 95010000 		.4byte	0x195
 5923 0c86 D6050000 		.4byte	.LLST31
 5924 0c8a 33       		.uleb128 0x33
 5925 0c8b 6F706100 		.ascii	"opa\000"
 5926 0c8f 01       		.byte	0x1
 5927 0c90 8C05     		.2byte	0x58c
 5928 0c92 75010000 		.4byte	0x175
 5929 0c96 01       		.uleb128 0x1
 5930 0c97 52       		.byte	0x52
 5931 0c98 2F       		.uleb128 0x2f
 5932 0c99 2D070000 		.4byte	.LASF113
 5933 0c9d 01       		.byte	0x1
 5934 0c9e 8E05     		.2byte	0x58e
 5935 0ca0 D90C0000 		.4byte	0xcd9
 5936 0ca4 05       		.uleb128 0x5
 5937 0ca5 03       		.byte	0x3
 5938 0ca6 00000000 		.4byte	opa_map.5700
 5939 0caa 25       		.uleb128 0x25
 5940 0cab 06000000 		.4byte	.LBB84
 5941 0caf 1A000000 		.4byte	.LBE84-.LBB84
 5942 0cb3 2E       		.uleb128 0x2e
 5943 0cb4 696400   		.ascii	"id\000"
 5944 0cb7 01       		.byte	0x1
 5945 0cb8 9405     		.2byte	0x594
 5946 0cba 97000000 		.4byte	0x97
 5947 0cbe 02060000 		.4byte	.LLST32
 5948 0cc2 00       		.byte	0
 5949 0cc3 00       		.byte	0
 5950 0cc4 34       		.uleb128 0x34
 5951 0cc5 D40C0000 		.4byte	0xcd4
 5952 0cc9 D40C0000 		.4byte	0xcd4
 5953 0ccd 35       		.uleb128 0x35
 5954 0cce 87010000 		.4byte	0x187
 5955 0cd2 07       		.byte	0x7
 5956 0cd3 00       		.byte	0
 5957 0cd4 11       		.uleb128 0x11
 5958 0cd5 75010000 		.4byte	0x175
 5959 0cd9 11       		.uleb128 0x11
 5960 0cda C40C0000 		.4byte	0xcc4
 5961 0cde 2A       		.uleb128 0x2a
 5962 0cdf BC020000 		.4byte	.LASF114
 5963 0ce3 01       		.byte	0x1
 5964 0ce4 9502     		.2byte	0x295
 5965 0ce6 00000000 		.4byte	.LFB16
 5966 0cea 180A0000 		.4byte	.LFE16-.LFB16
ARM GAS  C:\Users\d3bug\AppData\Local\Temp\ccPpCIYA.s 			page 147


 5967 0cee 01       		.uleb128 0x1
 5968 0cef 9C       		.byte	0x9c
 5969 0cf0 C81A0000 		.4byte	0x1ac8
 5970 0cf4 2B       		.uleb128 0x2b
 5971 0cf5 9F050000 		.4byte	.LASF94
 5972 0cf9 01       		.byte	0x1
 5973 0cfa 9502     		.2byte	0x295
 5974 0cfc B0050000 		.4byte	0x5b0
 5975 0d00 15060000 		.4byte	.LLST33
 5976 0d04 2B       		.uleb128 0x2b
 5977 0d05 9B040000 		.4byte	.LASF95
 5978 0d09 01       		.byte	0x1
 5979 0d0a 9502     		.2byte	0x295
 5980 0d0c B0050000 		.4byte	0x5b0
 5981 0d10 36060000 		.4byte	.LLST34
 5982 0d14 2B       		.uleb128 0x2b
 5983 0d15 FA060000 		.4byte	.LASF96
 5984 0d19 01       		.byte	0x1
 5985 0d1a 9502     		.2byte	0x295
 5986 0d1c BB050000 		.4byte	0x5bb
 5987 0d20 63060000 		.4byte	.LLST35
 5988 0d24 2B       		.uleb128 0x2b
 5989 0d25 9C060000 		.4byte	.LASF97
 5990 0d29 01       		.byte	0x1
 5991 0d2a 9502     		.2byte	0x295
 5992 0d2c 75010000 		.4byte	0x175
 5993 0d30 9B060000 		.4byte	.LLST36
 5994 0d34 2C       		.uleb128 0x2c
 5995 0d35 95060000 		.4byte	.LASF73
 5996 0d39 01       		.byte	0x1
 5997 0d3a 9702     		.2byte	0x297
 5998 0d3c AD000000 		.4byte	0xad
 5999 0d40 D5060000 		.4byte	.LLST37
 6000 0d44 2C       		.uleb128 0x2c
 6001 0d45 F6010000 		.4byte	.LASF107
 6002 0d49 01       		.byte	0x1
 6003 0d4a 9802     		.2byte	0x298
 6004 0d4c AD000000 		.4byte	0xad
 6005 0d50 0B070000 		.4byte	.LLST38
 6006 0d54 2C       		.uleb128 0x2c
 6007 0d55 28020000 		.4byte	.LASF66
 6008 0d59 01       		.byte	0x1
 6009 0d5a 9902     		.2byte	0x299
 6010 0d5c 6A010000 		.4byte	0x16a
 6011 0d60 43070000 		.4byte	.LLST39
 6012 0d64 2C       		.uleb128 0x2c
 6013 0d65 84010000 		.4byte	.LASF68
 6014 0d69 01       		.byte	0x1
 6015 0d6a 9A02     		.2byte	0x29a
 6016 0d6c 88030000 		.4byte	0x388
 6017 0d70 DA070000 		.4byte	.LLST40
 6018 0d74 2E       		.uleb128 0x2e
 6019 0d75 6F706100 		.ascii	"opa\000"
 6020 0d79 01       		.byte	0x1
 6021 0d7a 9B02     		.2byte	0x29b
 6022 0d7c 75010000 		.4byte	0x175
 6023 0d80 ED070000 		.4byte	.LLST41
ARM GAS  C:\Users\d3bug\AppData\Local\Temp\ccPpCIYA.s 			page 148


 6024 0d84 2D       		.uleb128 0x2d
 6025 0d85 EB020000 		.4byte	.LASF67
 6026 0d89 01       		.byte	0x1
 6027 0d8a A302     		.2byte	0x2a3
 6028 0d8c 95010000 		.4byte	0x195
 6029 0d90 2D       		.uleb128 0x2d
 6030 0d91 B1040000 		.4byte	.LASF100
 6031 0d95 01       		.byte	0x1
 6032 0d96 A402     		.2byte	0x2a4
 6033 0d98 95010000 		.4byte	0x195
 6034 0d9c 2D       		.uleb128 0x2d
 6035 0d9d 35040000 		.4byte	.LASF115
 6036 0da1 01       		.byte	0x1
 6037 0da2 A802     		.2byte	0x2a8
 6038 0da4 BD010000 		.4byte	0x1bd
 6039 0da8 2D       		.uleb128 0x2d
 6040 0da9 C5030000 		.4byte	.LASF116
 6041 0dad 01       		.byte	0x1
 6042 0dae A902     		.2byte	0x2a9
 6043 0db0 BD010000 		.4byte	0x1bd
 6044 0db4 2D       		.uleb128 0x2d
 6045 0db5 2B050000 		.4byte	.LASF117
 6046 0db9 01       		.byte	0x1
 6047 0dba AA02     		.2byte	0x2aa
 6048 0dbc BD010000 		.4byte	0x1bd
 6049 0dc0 2D       		.uleb128 0x2d
 6050 0dc1 C5040000 		.4byte	.LASF118
 6051 0dc5 01       		.byte	0x1
 6052 0dc6 AB02     		.2byte	0x2ab
 6053 0dc8 BD010000 		.4byte	0x1bd
 6054 0dcc 2F       		.uleb128 0x2f
 6055 0dcd C4000000 		.4byte	.LASF119
 6056 0dd1 01       		.byte	0x1
 6057 0dd2 B902     		.2byte	0x2b9
 6058 0dd4 BD010000 		.4byte	0x1bd
 6059 0dd8 02       		.uleb128 0x2
 6060 0dd9 91       		.byte	0x91
 6061 0dda 54       		.sleb128 -44
 6062 0ddb 2F       		.uleb128 0x2f
 6063 0ddc 4A060000 		.4byte	.LASF120
 6064 0de0 01       		.byte	0x1
 6065 0de1 BA02     		.2byte	0x2ba
 6066 0de3 95010000 		.4byte	0x195
 6067 0de7 02       		.uleb128 0x2
 6068 0de8 91       		.byte	0x91
 6069 0de9 52       		.sleb128 -46
 6070 0dea 2F       		.uleb128 0x2f
 6071 0deb 17020000 		.4byte	.LASF121
 6072 0def 01       		.byte	0x1
 6073 0df0 BD02     		.2byte	0x2bd
 6074 0df2 BD010000 		.4byte	0x1bd
 6075 0df6 02       		.uleb128 0x2
 6076 0df7 91       		.byte	0x91
 6077 0df8 4C       		.sleb128 -52
 6078 0df9 2F       		.uleb128 0x2f
 6079 0dfa 50000000 		.4byte	.LASF122
 6080 0dfe 01       		.byte	0x1
ARM GAS  C:\Users\d3bug\AppData\Local\Temp\ccPpCIYA.s 			page 149


 6081 0dff BE02     		.2byte	0x2be
 6082 0e01 95010000 		.4byte	0x195
 6083 0e05 02       		.uleb128 0x2
 6084 0e06 91       		.byte	0x91
 6085 0e07 4A       		.sleb128 -54
 6086 0e08 2C       		.uleb128 0x2c
 6087 0e09 3B050000 		.4byte	.LASF123
 6088 0e0d 01       		.byte	0x1
 6089 0e0e BF02     		.2byte	0x2bf
 6090 0e10 95010000 		.4byte	0x195
 6091 0e14 0F080000 		.4byte	.LLST42
 6092 0e18 2F       		.uleb128 0x2f
 6093 0e19 0F070000 		.4byte	.LASF124
 6094 0e1d 01       		.byte	0x1
 6095 0e1e C702     		.2byte	0x2c7
 6096 0e20 FD010000 		.4byte	0x1fd
 6097 0e24 02       		.uleb128 0x2
 6098 0e25 91       		.byte	0x91
 6099 0e26 40       		.sleb128 -64
 6100 0e27 2C       		.uleb128 0x2c
 6101 0e28 3F010000 		.4byte	.LASF125
 6102 0e2c 01       		.byte	0x1
 6103 0e2d C802     		.2byte	0x2c8
 6104 0e2f 95010000 		.4byte	0x195
 6105 0e33 2D080000 		.4byte	.LLST43
 6106 0e37 2C       		.uleb128 0x2c
 6107 0e38 46010000 		.4byte	.LASF126
 6108 0e3c 01       		.byte	0x1
 6109 0e3d C902     		.2byte	0x2c9
 6110 0e3f 95010000 		.4byte	0x195
 6111 0e43 4D080000 		.4byte	.LLST44
 6112 0e47 2C       		.uleb128 0x2c
 6113 0e48 97000000 		.4byte	.LASF127
 6114 0e4c 01       		.byte	0x1
 6115 0e4d CD02     		.2byte	0x2cd
 6116 0e4f 95010000 		.4byte	0x195
 6117 0e53 6D080000 		.4byte	.LLST45
 6118 0e57 2C       		.uleb128 0x2c
 6119 0e58 37030000 		.4byte	.LASF128
 6120 0e5c 01       		.byte	0x1
 6121 0e5d CE02     		.2byte	0x2ce
 6122 0e5f 95010000 		.4byte	0x195
 6123 0e63 B5080000 		.4byte	.LLST46
 6124 0e67 2C       		.uleb128 0x2c
 6125 0e68 26010000 		.4byte	.LASF129
 6126 0e6c 01       		.byte	0x1
 6127 0e6d CF02     		.2byte	0x2cf
 6128 0e6f 95010000 		.4byte	0x195
 6129 0e73 E3080000 		.4byte	.LLST47
 6130 0e77 2C       		.uleb128 0x2c
 6131 0e78 9D010000 		.4byte	.LASF130
 6132 0e7c 01       		.byte	0x1
 6133 0e7d D202     		.2byte	0x2d2
 6134 0e7f 95010000 		.4byte	0x195
 6135 0e83 05090000 		.4byte	.LLST48
 6136 0e87 2C       		.uleb128 0x2c
 6137 0e88 BA010000 		.4byte	.LASF131
ARM GAS  C:\Users\d3bug\AppData\Local\Temp\ccPpCIYA.s 			page 150


 6138 0e8c 01       		.byte	0x1
 6139 0e8d D302     		.2byte	0x2d3
 6140 0e8f 95010000 		.4byte	0x195
 6141 0e93 4D090000 		.4byte	.LLST49
 6142 0e97 2C       		.uleb128 0x2c
 6143 0e98 57000000 		.4byte	.LASF132
 6144 0e9c 01       		.byte	0x1
 6145 0e9d D402     		.2byte	0x2d4
 6146 0e9f 95010000 		.4byte	0x195
 6147 0ea3 90090000 		.4byte	.LLST50
 6148 0ea7 2C       		.uleb128 0x2c
 6149 0ea8 F1060000 		.4byte	.LASF133
 6150 0eac 01       		.byte	0x1
 6151 0ead 9F03     		.2byte	0x39f
 6152 0eaf 95010000 		.4byte	0x195
 6153 0eb3 B2090000 		.4byte	.LLST51
 6154 0eb7 2D       		.uleb128 0x2d
 6155 0eb8 12030000 		.4byte	.LASF134
 6156 0ebc 01       		.byte	0x1
 6157 0ebd A003     		.2byte	0x3a0
 6158 0ebf BD010000 		.4byte	0x1bd
 6159 0ec3 2E       		.uleb128 0x2e
 6160 0ec4 6900     		.ascii	"i\000"
 6161 0ec6 01       		.byte	0x1
 6162 0ec7 A503     		.2byte	0x3a5
 6163 0ec9 95010000 		.4byte	0x195
 6164 0ecd DB090000 		.4byte	.LLST52
 6165 0ed1 30       		.uleb128 0x30
 6166 0ed2 C6050000 		.4byte	0x5c6
 6167 0ed6 3C000000 		.4byte	.LBB85
 6168 0eda 0C000000 		.4byte	.LBE85-.LBB85
 6169 0ede 01       		.byte	0x1
 6170 0edf A302     		.2byte	0x2a3
 6171 0ee1 EF0E0000 		.4byte	0xeef
 6172 0ee5 22       		.uleb128 0x22
 6173 0ee6 D6050000 		.4byte	0x5d6
 6174 0eea 270A0000 		.4byte	.LLST53
 6175 0eee 00       		.byte	0
 6176 0eef 30       		.uleb128 0x30
 6177 0ef0 E2050000 		.4byte	0x5e2
 6178 0ef4 48000000 		.4byte	.LBB87
 6179 0ef8 08000000 		.4byte	.LBE87-.LBB87
 6180 0efc 01       		.byte	0x1
 6181 0efd A402     		.2byte	0x2a4
 6182 0eff 0D0F0000 		.4byte	0xf0d
 6183 0f03 22       		.uleb128 0x22
 6184 0f04 F2050000 		.4byte	0x5f2
 6185 0f08 3A0A0000 		.4byte	.LLST54
 6186 0f0c 00       		.byte	0
 6187 0f0d 23       		.uleb128 0x23
 6188 0f0e E8000000 		.4byte	.LBB89
 6189 0f12 82010000 		.4byte	.LBE89-.LBB89
 6190 0f16 52110000 		.4byte	0x1152
 6191 0f1a 2C       		.uleb128 0x2c
 6192 0f1b F1060000 		.4byte	.LASF133
 6193 0f1f 01       		.byte	0x1
 6194 0f20 E602     		.2byte	0x2e6
ARM GAS  C:\Users\d3bug\AppData\Local\Temp\ccPpCIYA.s 			page 151


 6195 0f22 95010000 		.4byte	0x195
 6196 0f26 4D0A0000 		.4byte	.LLST55
 6197 0f2a 2D       		.uleb128 0x2d
 6198 0f2b 12030000 		.4byte	.LASF134
 6199 0f2f 01       		.byte	0x1
 6200 0f30 E702     		.2byte	0x2e7
 6201 0f32 BD010000 		.4byte	0x1bd
 6202 0f36 2E       		.uleb128 0x2e
 6203 0f37 6900     		.ascii	"i\000"
 6204 0f39 01       		.byte	0x1
 6205 0f3a EC02     		.2byte	0x2ec
 6206 0f3c 95010000 		.4byte	0x195
 6207 0f40 600A0000 		.4byte	.LLST56
 6208 0f44 25       		.uleb128 0x25
 6209 0f45 F6000000 		.4byte	.LBB90
 6210 0f49 60010000 		.4byte	.LBE90-.LBB90
 6211 0f4d 2C       		.uleb128 0x2c
 6212 0f4e 16060000 		.4byte	.LASF135
 6213 0f52 01       		.byte	0x1
 6214 0f53 EE02     		.2byte	0x2ee
 6215 0f55 75010000 		.4byte	0x175
 6216 0f59 8A0A0000 		.4byte	.LLST57
 6217 0f5d 29       		.uleb128 0x29
 6218 0f5e 04010000 		.4byte	.LVL135
 6219 0f62 500C0000 		.4byte	0xc50
 6220 0f66 800F0000 		.4byte	0xf80
 6221 0f6a 28       		.uleb128 0x28
 6222 0f6b 01       		.uleb128 0x1
 6223 0f6c 50       		.byte	0x50
 6224 0f6d 02       		.uleb128 0x2
 6225 0f6e 75       		.byte	0x75
 6226 0f6f 00       		.sleb128 0
 6227 0f70 28       		.uleb128 0x28
 6228 0f71 01       		.uleb128 0x1
 6229 0f72 51       		.byte	0x51
 6230 0f73 02       		.uleb128 0x2
 6231 0f74 74       		.byte	0x74
 6232 0f75 00       		.sleb128 0
 6233 0f76 28       		.uleb128 0x28
 6234 0f77 01       		.uleb128 0x1
 6235 0f78 52       		.byte	0x52
 6236 0f79 05       		.uleb128 0x5
 6237 0f7a 91       		.byte	0x91
 6238 0f7b F87E     		.sleb128 -136
 6239 0f7d 94       		.byte	0x94
 6240 0f7e 01       		.byte	0x1
 6241 0f7f 00       		.byte	0
 6242 0f80 29       		.uleb128 0x29
 6243 0f81 14010000 		.4byte	.LVL138
 6244 0f85 C22A0000 		.4byte	0x2ac2
 6245 0f89 A00F0000 		.4byte	0xfa0
 6246 0f8d 28       		.uleb128 0x28
 6247 0f8e 01       		.uleb128 0x1
 6248 0f8f 50       		.byte	0x50
 6249 0f90 02       		.uleb128 0x2
 6250 0f91 75       		.byte	0x75
 6251 0f92 00       		.sleb128 0
ARM GAS  C:\Users\d3bug\AppData\Local\Temp\ccPpCIYA.s 			page 152


 6252 0f93 28       		.uleb128 0x28
 6253 0f94 01       		.uleb128 0x1
 6254 0f95 51       		.byte	0x51
 6255 0f96 02       		.uleb128 0x2
 6256 0f97 74       		.byte	0x74
 6257 0f98 00       		.sleb128 0
 6258 0f99 28       		.uleb128 0x28
 6259 0f9a 01       		.uleb128 0x1
 6260 0f9b 52       		.byte	0x52
 6261 0f9c 02       		.uleb128 0x2
 6262 0f9d 76       		.byte	0x76
 6263 0f9e 00       		.sleb128 0
 6264 0f9f 00       		.byte	0
 6265 0fa0 32       		.uleb128 0x32
 6266 0fa1 48010000 		.4byte	.LVL141
 6267 0fa5 02       		.uleb128 0x2
 6268 0fa6 7A       		.byte	0x7a
 6269 0fa7 00       		.sleb128 0
 6270 0fa8 D70F0000 		.4byte	0xfd7
 6271 0fac 28       		.uleb128 0x28
 6272 0fad 01       		.uleb128 0x1
 6273 0fae 50       		.byte	0x50
 6274 0faf 09       		.uleb128 0x9
 6275 0fb0 91       		.byte	0x91
 6276 0fb1 947F     		.sleb128 -108
 6277 0fb3 06       		.byte	0x6
 6278 0fb4 78       		.byte	0x78
 6279 0fb5 00       		.sleb128 0
 6280 0fb6 22       		.byte	0x22
 6281 0fb7 23       		.byte	0x23
 6282 0fb8 01       		.uleb128 0x1
 6283 0fb9 28       		.uleb128 0x28
 6284 0fba 01       		.uleb128 0x1
 6285 0fbb 51       		.byte	0x51
 6286 0fbc 0A       		.uleb128 0xa
 6287 0fbd 91       		.byte	0x91
 6288 0fbe 987F     		.sleb128 -104
 6289 0fc0 06       		.byte	0x6
 6290 0fc1 77       		.byte	0x77
 6291 0fc2 00       		.sleb128 0
 6292 0fc3 22       		.byte	0x22
 6293 0fc4 79       		.byte	0x79
 6294 0fc5 00       		.sleb128 0
 6295 0fc6 22       		.byte	0x22
 6296 0fc7 28       		.uleb128 0x28
 6297 0fc8 01       		.uleb128 0x1
 6298 0fc9 52       		.byte	0x52
 6299 0fca 04       		.uleb128 0x4
 6300 0fcb 91       		.byte	0x91
 6301 0fcc F47E     		.sleb128 -140
 6302 0fce 06       		.byte	0x6
 6303 0fcf 28       		.uleb128 0x28
 6304 0fd0 02       		.uleb128 0x2
 6305 0fd1 7D       		.byte	0x7d
 6306 0fd2 00       		.sleb128 0
 6307 0fd3 02       		.uleb128 0x2
 6308 0fd4 76       		.byte	0x76
ARM GAS  C:\Users\d3bug\AppData\Local\Temp\ccPpCIYA.s 			page 153


 6309 0fd5 00       		.sleb128 0
 6310 0fd6 00       		.byte	0
 6311 0fd7 32       		.uleb128 0x32
 6312 0fd8 62010000 		.4byte	.LVL142
 6313 0fdc 02       		.uleb128 0x2
 6314 0fdd 7A       		.byte	0x7a
 6315 0fde 00       		.sleb128 0
 6316 0fdf 0E100000 		.4byte	0x100e
 6317 0fe3 28       		.uleb128 0x28
 6318 0fe4 01       		.uleb128 0x1
 6319 0fe5 50       		.byte	0x50
 6320 0fe6 0A       		.uleb128 0xa
 6321 0fe7 91       		.byte	0x91
 6322 0fe8 947F     		.sleb128 -108
 6323 0fea 06       		.byte	0x6
 6324 0feb 77       		.byte	0x77
 6325 0fec 00       		.sleb128 0
 6326 0fed 22       		.byte	0x22
 6327 0fee 79       		.byte	0x79
 6328 0fef 00       		.sleb128 0
 6329 0ff0 22       		.byte	0x22
 6330 0ff1 28       		.uleb128 0x28
 6331 0ff2 01       		.uleb128 0x1
 6332 0ff3 51       		.byte	0x51
 6333 0ff4 09       		.uleb128 0x9
 6334 0ff5 91       		.byte	0x91
 6335 0ff6 987F     		.sleb128 -104
 6336 0ff8 06       		.byte	0x6
 6337 0ff9 78       		.byte	0x78
 6338 0ffa 00       		.sleb128 0
 6339 0ffb 22       		.byte	0x22
 6340 0ffc 23       		.byte	0x23
 6341 0ffd 01       		.uleb128 0x1
 6342 0ffe 28       		.uleb128 0x28
 6343 0fff 01       		.uleb128 0x1
 6344 1000 52       		.byte	0x52
 6345 1001 04       		.uleb128 0x4
 6346 1002 91       		.byte	0x91
 6347 1003 F47E     		.sleb128 -140
 6348 1005 06       		.byte	0x6
 6349 1006 28       		.uleb128 0x28
 6350 1007 02       		.uleb128 0x2
 6351 1008 7D       		.byte	0x7d
 6352 1009 00       		.sleb128 0
 6353 100a 02       		.uleb128 0x2
 6354 100b 76       		.byte	0x76
 6355 100c 00       		.sleb128 0
 6356 100d 00       		.byte	0
 6357 100e 32       		.uleb128 0x32
 6358 100f 98010000 		.4byte	.LVL144
 6359 1013 02       		.uleb128 0x2
 6360 1014 7A       		.byte	0x7a
 6361 1015 00       		.sleb128 0
 6362 1016 45100000 		.4byte	0x1045
 6363 101a 28       		.uleb128 0x28
 6364 101b 01       		.uleb128 0x1
 6365 101c 50       		.byte	0x50
ARM GAS  C:\Users\d3bug\AppData\Local\Temp\ccPpCIYA.s 			page 154


 6366 101d 0A       		.uleb128 0xa
 6367 101e 91       		.byte	0x91
 6368 101f 907F     		.sleb128 -112
 6369 1021 06       		.byte	0x6
 6370 1022 77       		.byte	0x77
 6371 1023 00       		.sleb128 0
 6372 1024 1C       		.byte	0x1c
 6373 1025 79       		.byte	0x79
 6374 1026 00       		.sleb128 0
 6375 1027 1C       		.byte	0x1c
 6376 1028 28       		.uleb128 0x28
 6377 1029 01       		.uleb128 0x1
 6378 102a 51       		.byte	0x51
 6379 102b 09       		.uleb128 0x9
 6380 102c 91       		.byte	0x91
 6381 102d 987F     		.sleb128 -104
 6382 102f 06       		.byte	0x6
 6383 1030 78       		.byte	0x78
 6384 1031 00       		.sleb128 0
 6385 1032 22       		.byte	0x22
 6386 1033 23       		.byte	0x23
 6387 1034 01       		.uleb128 0x1
 6388 1035 28       		.uleb128 0x28
 6389 1036 01       		.uleb128 0x1
 6390 1037 52       		.byte	0x52
 6391 1038 04       		.uleb128 0x4
 6392 1039 91       		.byte	0x91
 6393 103a F47E     		.sleb128 -140
 6394 103c 06       		.byte	0x6
 6395 103d 28       		.uleb128 0x28
 6396 103e 02       		.uleb128 0x2
 6397 103f 7D       		.byte	0x7d
 6398 1040 00       		.sleb128 0
 6399 1041 02       		.uleb128 0x2
 6400 1042 76       		.byte	0x76
 6401 1043 00       		.sleb128 0
 6402 1044 00       		.byte	0
 6403 1045 32       		.uleb128 0x32
 6404 1046 B4010000 		.4byte	.LVL145
 6405 104a 02       		.uleb128 0x2
 6406 104b 7A       		.byte	0x7a
 6407 104c 00       		.sleb128 0
 6408 104d 7B100000 		.4byte	0x107b
 6409 1051 28       		.uleb128 0x28
 6410 1052 01       		.uleb128 0x1
 6411 1053 50       		.byte	0x50
 6412 1054 08       		.uleb128 0x8
 6413 1055 78       		.byte	0x78
 6414 1056 00       		.sleb128 0
 6415 1057 20       		.byte	0x20
 6416 1058 91       		.byte	0x91
 6417 1059 907F     		.sleb128 -112
 6418 105b 06       		.byte	0x6
 6419 105c 22       		.byte	0x22
 6420 105d 28       		.uleb128 0x28
 6421 105e 01       		.uleb128 0x1
 6422 105f 51       		.byte	0x51
ARM GAS  C:\Users\d3bug\AppData\Local\Temp\ccPpCIYA.s 			page 155


 6423 1060 0A       		.uleb128 0xa
 6424 1061 91       		.byte	0x91
 6425 1062 987F     		.sleb128 -104
 6426 1064 06       		.byte	0x6
 6427 1065 77       		.byte	0x77
 6428 1066 00       		.sleb128 0
 6429 1067 22       		.byte	0x22
 6430 1068 79       		.byte	0x79
 6431 1069 00       		.sleb128 0
 6432 106a 22       		.byte	0x22
 6433 106b 28       		.uleb128 0x28
 6434 106c 01       		.uleb128 0x1
 6435 106d 52       		.byte	0x52
 6436 106e 04       		.uleb128 0x4
 6437 106f 91       		.byte	0x91
 6438 1070 F47E     		.sleb128 -140
 6439 1072 06       		.byte	0x6
 6440 1073 28       		.uleb128 0x28
 6441 1074 02       		.uleb128 0x2
 6442 1075 7D       		.byte	0x7d
 6443 1076 00       		.sleb128 0
 6444 1077 02       		.uleb128 0x2
 6445 1078 76       		.byte	0x76
 6446 1079 00       		.sleb128 0
 6447 107a 00       		.byte	0
 6448 107b 32       		.uleb128 0x32
 6449 107c E8010000 		.4byte	.LVL147
 6450 1080 02       		.uleb128 0x2
 6451 1081 7A       		.byte	0x7a
 6452 1082 00       		.sleb128 0
 6453 1083 B1100000 		.4byte	0x10b1
 6454 1087 28       		.uleb128 0x28
 6455 1088 01       		.uleb128 0x1
 6456 1089 50       		.byte	0x50
 6457 108a 08       		.uleb128 0x8
 6458 108b 78       		.byte	0x78
 6459 108c 00       		.sleb128 0
 6460 108d 20       		.byte	0x20
 6461 108e 91       		.byte	0x91
 6462 108f 907F     		.sleb128 -112
 6463 1091 06       		.byte	0x6
 6464 1092 22       		.byte	0x22
 6465 1093 28       		.uleb128 0x28
 6466 1094 01       		.uleb128 0x1
 6467 1095 51       		.byte	0x51
 6468 1096 0A       		.uleb128 0xa
 6469 1097 91       		.byte	0x91
 6470 1098 8C7F     		.sleb128 -116
 6471 109a 06       		.byte	0x6
 6472 109b 77       		.byte	0x77
 6473 109c 00       		.sleb128 0
 6474 109d 1C       		.byte	0x1c
 6475 109e 79       		.byte	0x79
 6476 109f 00       		.sleb128 0
 6477 10a0 1C       		.byte	0x1c
 6478 10a1 28       		.uleb128 0x28
 6479 10a2 01       		.uleb128 0x1
ARM GAS  C:\Users\d3bug\AppData\Local\Temp\ccPpCIYA.s 			page 156


 6480 10a3 52       		.byte	0x52
 6481 10a4 04       		.uleb128 0x4
 6482 10a5 91       		.byte	0x91
 6483 10a6 F47E     		.sleb128 -140
 6484 10a8 06       		.byte	0x6
 6485 10a9 28       		.uleb128 0x28
 6486 10aa 02       		.uleb128 0x2
 6487 10ab 7D       		.byte	0x7d
 6488 10ac 00       		.sleb128 0
 6489 10ad 02       		.uleb128 0x2
 6490 10ae 76       		.byte	0x76
 6491 10af 00       		.sleb128 0
 6492 10b0 00       		.byte	0
 6493 10b1 32       		.uleb128 0x32
 6494 10b2 06020000 		.4byte	.LVL148
 6495 10b6 02       		.uleb128 0x2
 6496 10b7 7A       		.byte	0x7a
 6497 10b8 00       		.sleb128 0
 6498 10b9 E7100000 		.4byte	0x10e7
 6499 10bd 28       		.uleb128 0x28
 6500 10be 01       		.uleb128 0x1
 6501 10bf 50       		.byte	0x50
 6502 10c0 0A       		.uleb128 0xa
 6503 10c1 91       		.byte	0x91
 6504 10c2 907F     		.sleb128 -112
 6505 10c4 06       		.byte	0x6
 6506 10c5 77       		.byte	0x77
 6507 10c6 00       		.sleb128 0
 6508 10c7 1C       		.byte	0x1c
 6509 10c8 79       		.byte	0x79
 6510 10c9 00       		.sleb128 0
 6511 10ca 1C       		.byte	0x1c
 6512 10cb 28       		.uleb128 0x28
 6513 10cc 01       		.uleb128 0x1
 6514 10cd 51       		.byte	0x51
 6515 10ce 08       		.uleb128 0x8
 6516 10cf 78       		.byte	0x78
 6517 10d0 00       		.sleb128 0
 6518 10d1 20       		.byte	0x20
 6519 10d2 91       		.byte	0x91
 6520 10d3 8C7F     		.sleb128 -116
 6521 10d5 06       		.byte	0x6
 6522 10d6 22       		.byte	0x22
 6523 10d7 28       		.uleb128 0x28
 6524 10d8 01       		.uleb128 0x1
 6525 10d9 52       		.byte	0x52
 6526 10da 04       		.uleb128 0x4
 6527 10db 91       		.byte	0x91
 6528 10dc F47E     		.sleb128 -140
 6529 10de 06       		.byte	0x6
 6530 10df 28       		.uleb128 0x28
 6531 10e0 02       		.uleb128 0x2
 6532 10e1 7D       		.byte	0x7d
 6533 10e2 00       		.sleb128 0
 6534 10e3 02       		.uleb128 0x2
 6535 10e4 76       		.byte	0x76
 6536 10e5 00       		.sleb128 0
ARM GAS  C:\Users\d3bug\AppData\Local\Temp\ccPpCIYA.s 			page 157


 6537 10e6 00       		.byte	0
 6538 10e7 32       		.uleb128 0x32
 6539 10e8 3A020000 		.4byte	.LVL150
 6540 10ec 02       		.uleb128 0x2
 6541 10ed 7A       		.byte	0x7a
 6542 10ee 00       		.sleb128 0
 6543 10ef 1D110000 		.4byte	0x111d
 6544 10f3 28       		.uleb128 0x28
 6545 10f4 01       		.uleb128 0x1
 6546 10f5 50       		.byte	0x50
 6547 10f6 0A       		.uleb128 0xa
 6548 10f7 91       		.byte	0x91
 6549 10f8 947F     		.sleb128 -108
 6550 10fa 06       		.byte	0x6
 6551 10fb 77       		.byte	0x77
 6552 10fc 00       		.sleb128 0
 6553 10fd 22       		.byte	0x22
 6554 10fe 79       		.byte	0x79
 6555 10ff 00       		.sleb128 0
 6556 1100 22       		.byte	0x22
 6557 1101 28       		.uleb128 0x28
 6558 1102 01       		.uleb128 0x1
 6559 1103 51       		.byte	0x51
 6560 1104 08       		.uleb128 0x8
 6561 1105 78       		.byte	0x78
 6562 1106 00       		.sleb128 0
 6563 1107 20       		.byte	0x20
 6564 1108 91       		.byte	0x91
 6565 1109 8C7F     		.sleb128 -116
 6566 110b 06       		.byte	0x6
 6567 110c 22       		.byte	0x22
 6568 110d 28       		.uleb128 0x28
 6569 110e 01       		.uleb128 0x1
 6570 110f 52       		.byte	0x52
 6571 1110 04       		.uleb128 0x4
 6572 1111 91       		.byte	0x91
 6573 1112 F47E     		.sleb128 -140
 6574 1114 06       		.byte	0x6
 6575 1115 28       		.uleb128 0x28
 6576 1116 02       		.uleb128 0x2
 6577 1117 7D       		.byte	0x7d
 6578 1118 00       		.sleb128 0
 6579 1119 02       		.uleb128 0x2
 6580 111a 76       		.byte	0x76
 6581 111b 00       		.sleb128 0
 6582 111c 00       		.byte	0
 6583 111d 27       		.uleb128 0x27
 6584 111e 56020000 		.4byte	.LVL151
 6585 1122 02       		.uleb128 0x2
 6586 1123 7A       		.byte	0x7a
 6587 1124 00       		.sleb128 0
 6588 1125 28       		.uleb128 0x28
 6589 1126 01       		.uleb128 0x1
 6590 1127 50       		.byte	0x50
 6591 1128 09       		.uleb128 0x9
 6592 1129 91       		.byte	0x91
 6593 112a 947F     		.sleb128 -108
ARM GAS  C:\Users\d3bug\AppData\Local\Temp\ccPpCIYA.s 			page 158


 6594 112c 06       		.byte	0x6
 6595 112d 78       		.byte	0x78
 6596 112e 00       		.sleb128 0
 6597 112f 22       		.byte	0x22
 6598 1130 23       		.byte	0x23
 6599 1131 01       		.uleb128 0x1
 6600 1132 28       		.uleb128 0x28
 6601 1133 01       		.uleb128 0x1
 6602 1134 51       		.byte	0x51
 6603 1135 0A       		.uleb128 0xa
 6604 1136 91       		.byte	0x91
 6605 1137 8C7F     		.sleb128 -116
 6606 1139 06       		.byte	0x6
 6607 113a 77       		.byte	0x77
 6608 113b 00       		.sleb128 0
 6609 113c 1C       		.byte	0x1c
 6610 113d 79       		.byte	0x79
 6611 113e 00       		.sleb128 0
 6612 113f 1C       		.byte	0x1c
 6613 1140 28       		.uleb128 0x28
 6614 1141 01       		.uleb128 0x1
 6615 1142 52       		.byte	0x52
 6616 1143 04       		.uleb128 0x4
 6617 1144 91       		.byte	0x91
 6618 1145 F47E     		.sleb128 -140
 6619 1147 06       		.byte	0x6
 6620 1148 28       		.uleb128 0x28
 6621 1149 02       		.uleb128 0x2
 6622 114a 7D       		.byte	0x7d
 6623 114b 00       		.sleb128 0
 6624 114c 02       		.uleb128 0x2
 6625 114d 76       		.byte	0x76
 6626 114e 00       		.sleb128 0
 6627 114f 00       		.byte	0
 6628 1150 00       		.byte	0
 6629 1151 00       		.byte	0
 6630 1152 23       		.uleb128 0x23
 6631 1153 76020000 		.4byte	.LBB91
 6632 1157 C0010000 		.4byte	.LBE91-.LBB91
 6633 115b C3130000 		.4byte	0x13c3
 6634 115f 2C       		.uleb128 0x2c
 6635 1160 F1060000 		.4byte	.LASF133
 6636 1164 01       		.byte	0x1
 6637 1165 1303     		.2byte	0x313
 6638 1167 95010000 		.4byte	0x195
 6639 116b A80A0000 		.4byte	.LLST58
 6640 116f 2D       		.uleb128 0x2d
 6641 1170 12030000 		.4byte	.LASF134
 6642 1174 01       		.byte	0x1
 6643 1175 1403     		.2byte	0x314
 6644 1177 BD010000 		.4byte	0x1bd
 6645 117b 2E       		.uleb128 0x2e
 6646 117c 6900     		.ascii	"i\000"
 6647 117e 01       		.byte	0x1
 6648 117f 1903     		.2byte	0x319
 6649 1181 95010000 		.4byte	0x195
 6650 1185 BB0A0000 		.4byte	.LLST59
ARM GAS  C:\Users\d3bug\AppData\Local\Temp\ccPpCIYA.s 			page 159


 6651 1189 25       		.uleb128 0x25
 6652 118a 8C020000 		.4byte	.LBB92
 6653 118e 96010000 		.4byte	.LBE92-.LBB92
 6654 1192 2C       		.uleb128 0x2c
 6655 1193 16060000 		.4byte	.LASF135
 6656 1197 01       		.byte	0x1
 6657 1198 1B03     		.2byte	0x31b
 6658 119a 75010000 		.4byte	0x175
 6659 119e E50A0000 		.4byte	.LLST60
 6660 11a2 29       		.uleb128 0x29
 6661 11a3 9C020000 		.4byte	.LVL160
 6662 11a7 500C0000 		.4byte	0xc50
 6663 11ab C2110000 		.4byte	0x11c2
 6664 11af 28       		.uleb128 0x28
 6665 11b0 01       		.uleb128 0x1
 6666 11b1 50       		.byte	0x50
 6667 11b2 02       		.uleb128 0x2
 6668 11b3 75       		.byte	0x75
 6669 11b4 00       		.sleb128 0
 6670 11b5 28       		.uleb128 0x28
 6671 11b6 01       		.uleb128 0x1
 6672 11b7 51       		.byte	0x51
 6673 11b8 02       		.uleb128 0x2
 6674 11b9 74       		.byte	0x74
 6675 11ba 00       		.sleb128 0
 6676 11bb 28       		.uleb128 0x28
 6677 11bc 01       		.uleb128 0x1
 6678 11bd 52       		.byte	0x52
 6679 11be 02       		.uleb128 0x2
 6680 11bf 76       		.byte	0x76
 6681 11c0 00       		.sleb128 0
 6682 11c1 00       		.byte	0
 6683 11c2 29       		.uleb128 0x29
 6684 11c3 B2020000 		.4byte	.LVL163
 6685 11c7 C22A0000 		.4byte	0x2ac2
 6686 11cb E5110000 		.4byte	0x11e5
 6687 11cf 28       		.uleb128 0x28
 6688 11d0 01       		.uleb128 0x1
 6689 11d1 50       		.byte	0x50
 6690 11d2 02       		.uleb128 0x2
 6691 11d3 75       		.byte	0x75
 6692 11d4 00       		.sleb128 0
 6693 11d5 28       		.uleb128 0x28
 6694 11d6 01       		.uleb128 0x1
 6695 11d7 51       		.byte	0x51
 6696 11d8 02       		.uleb128 0x2
 6697 11d9 74       		.byte	0x74
 6698 11da 00       		.sleb128 0
 6699 11db 28       		.uleb128 0x28
 6700 11dc 01       		.uleb128 0x1
 6701 11dd 52       		.byte	0x52
 6702 11de 05       		.uleb128 0x5
 6703 11df 91       		.byte	0x91
 6704 11e0 F87E     		.sleb128 -136
 6705 11e2 94       		.byte	0x94
 6706 11e3 01       		.byte	0x1
 6707 11e4 00       		.byte	0
ARM GAS  C:\Users\d3bug\AppData\Local\Temp\ccPpCIYA.s 			page 160


 6708 11e5 32       		.uleb128 0x32
 6709 11e6 E2020000 		.4byte	.LVL165
 6710 11ea 02       		.uleb128 0x2
 6711 11eb 76       		.byte	0x76
 6712 11ec 00       		.sleb128 0
 6713 11ed 21120000 		.4byte	0x1221
 6714 11f1 28       		.uleb128 0x28
 6715 11f2 01       		.uleb128 0x1
 6716 11f3 50       		.byte	0x50
 6717 11f4 09       		.uleb128 0x9
 6718 11f5 91       		.byte	0x91
 6719 11f6 947F     		.sleb128 -108
 6720 11f8 06       		.byte	0x6
 6721 11f9 7A       		.byte	0x7a
 6722 11fa 00       		.sleb128 0
 6723 11fb 22       		.byte	0x22
 6724 11fc 31       		.byte	0x31
 6725 11fd 1C       		.byte	0x1c
 6726 11fe 28       		.uleb128 0x28
 6727 11ff 01       		.uleb128 0x1
 6728 1200 51       		.byte	0x51
 6729 1201 0C       		.uleb128 0xc
 6730 1202 91       		.byte	0x91
 6731 1203 987F     		.sleb128 -104
 6732 1205 06       		.byte	0x6
 6733 1206 74       		.byte	0x74
 6734 1207 00       		.sleb128 0
 6735 1208 22       		.byte	0x22
 6736 1209 91       		.byte	0x91
 6737 120a 9C7F     		.sleb128 -100
 6738 120c 06       		.byte	0x6
 6739 120d 22       		.byte	0x22
 6740 120e 28       		.uleb128 0x28
 6741 120f 01       		.uleb128 0x1
 6742 1210 52       		.byte	0x52
 6743 1211 04       		.uleb128 0x4
 6744 1212 91       		.byte	0x91
 6745 1213 F47E     		.sleb128 -140
 6746 1215 06       		.byte	0x6
 6747 1216 28       		.uleb128 0x28
 6748 1217 02       		.uleb128 0x2
 6749 1218 7D       		.byte	0x7d
 6750 1219 00       		.sleb128 0
 6751 121a 05       		.uleb128 0x5
 6752 121b 91       		.byte	0x91
 6753 121c 807F     		.sleb128 -128
 6754 121e 94       		.byte	0x94
 6755 121f 01       		.byte	0x1
 6756 1220 00       		.byte	0
 6757 1221 32       		.uleb128 0x32
 6758 1222 10030000 		.4byte	.LVL167
 6759 1226 02       		.uleb128 0x2
 6760 1227 76       		.byte	0x76
 6761 1228 00       		.sleb128 0
 6762 1229 5D120000 		.4byte	0x125d
 6763 122d 28       		.uleb128 0x28
 6764 122e 01       		.uleb128 0x1
ARM GAS  C:\Users\d3bug\AppData\Local\Temp\ccPpCIYA.s 			page 161


 6765 122f 50       		.byte	0x50
 6766 1230 0C       		.uleb128 0xc
 6767 1231 91       		.byte	0x91
 6768 1232 907F     		.sleb128 -112
 6769 1234 06       		.byte	0x6
 6770 1235 74       		.byte	0x74
 6771 1236 00       		.sleb128 0
 6772 1237 1C       		.byte	0x1c
 6773 1238 91       		.byte	0x91
 6774 1239 9C7F     		.sleb128 -100
 6775 123b 06       		.byte	0x6
 6776 123c 1C       		.byte	0x1c
 6777 123d 28       		.uleb128 0x28
 6778 123e 01       		.uleb128 0x1
 6779 123f 51       		.byte	0x51
 6780 1240 09       		.uleb128 0x9
 6781 1241 91       		.byte	0x91
 6782 1242 987F     		.sleb128 -104
 6783 1244 06       		.byte	0x6
 6784 1245 7A       		.byte	0x7a
 6785 1246 00       		.sleb128 0
 6786 1247 22       		.byte	0x22
 6787 1248 31       		.byte	0x31
 6788 1249 1C       		.byte	0x1c
 6789 124a 28       		.uleb128 0x28
 6790 124b 01       		.uleb128 0x1
 6791 124c 52       		.byte	0x52
 6792 124d 04       		.uleb128 0x4
 6793 124e 91       		.byte	0x91
 6794 124f F47E     		.sleb128 -140
 6795 1251 06       		.byte	0x6
 6796 1252 28       		.uleb128 0x28
 6797 1253 02       		.uleb128 0x2
 6798 1254 7D       		.byte	0x7d
 6799 1255 00       		.sleb128 0
 6800 1256 05       		.uleb128 0x5
 6801 1257 91       		.byte	0x91
 6802 1258 807F     		.sleb128 -128
 6803 125a 94       		.byte	0x94
 6804 125b 01       		.byte	0x1
 6805 125c 00       		.byte	0
 6806 125d 32       		.uleb128 0x32
 6807 125e 3C030000 		.4byte	.LVL168
 6808 1262 02       		.uleb128 0x2
 6809 1263 76       		.byte	0x76
 6810 1264 00       		.sleb128 0
 6811 1265 99120000 		.4byte	0x1299
 6812 1269 28       		.uleb128 0x28
 6813 126a 01       		.uleb128 0x1
 6814 126b 50       		.byte	0x50
 6815 126c 09       		.uleb128 0x9
 6816 126d 91       		.byte	0x91
 6817 126e 907F     		.sleb128 -112
 6818 1270 06       		.byte	0x6
 6819 1271 7A       		.byte	0x7a
 6820 1272 00       		.sleb128 0
 6821 1273 1C       		.byte	0x1c
ARM GAS  C:\Users\d3bug\AppData\Local\Temp\ccPpCIYA.s 			page 162


 6822 1274 23       		.byte	0x23
 6823 1275 01       		.uleb128 0x1
 6824 1276 28       		.uleb128 0x28
 6825 1277 01       		.uleb128 0x1
 6826 1278 51       		.byte	0x51
 6827 1279 0C       		.uleb128 0xc
 6828 127a 91       		.byte	0x91
 6829 127b 8C7F     		.sleb128 -116
 6830 127d 06       		.byte	0x6
 6831 127e 74       		.byte	0x74
 6832 127f 00       		.sleb128 0
 6833 1280 1C       		.byte	0x1c
 6834 1281 91       		.byte	0x91
 6835 1282 9C7F     		.sleb128 -100
 6836 1284 06       		.byte	0x6
 6837 1285 1C       		.byte	0x1c
 6838 1286 28       		.uleb128 0x28
 6839 1287 01       		.uleb128 0x1
 6840 1288 52       		.byte	0x52
 6841 1289 04       		.uleb128 0x4
 6842 128a 91       		.byte	0x91
 6843 128b F47E     		.sleb128 -140
 6844 128d 06       		.byte	0x6
 6845 128e 28       		.uleb128 0x28
 6846 128f 02       		.uleb128 0x2
 6847 1290 7D       		.byte	0x7d
 6848 1291 00       		.sleb128 0
 6849 1292 05       		.uleb128 0x5
 6850 1293 91       		.byte	0x91
 6851 1294 807F     		.sleb128 -128
 6852 1296 94       		.byte	0x94
 6853 1297 01       		.byte	0x1
 6854 1298 00       		.byte	0
 6855 1299 32       		.uleb128 0x32
 6856 129a 6C030000 		.4byte	.LVL169
 6857 129e 02       		.uleb128 0x2
 6858 129f 76       		.byte	0x76
 6859 12a0 00       		.sleb128 0
 6860 12a1 D5120000 		.4byte	0x12d5
 6861 12a5 28       		.uleb128 0x28
 6862 12a6 01       		.uleb128 0x1
 6863 12a7 50       		.byte	0x50
 6864 12a8 0C       		.uleb128 0xc
 6865 12a9 91       		.byte	0x91
 6866 12aa 947F     		.sleb128 -108
 6867 12ac 06       		.byte	0x6
 6868 12ad 74       		.byte	0x74
 6869 12ae 00       		.sleb128 0
 6870 12af 22       		.byte	0x22
 6871 12b0 91       		.byte	0x91
 6872 12b1 9C7F     		.sleb128 -100
 6873 12b3 06       		.byte	0x6
 6874 12b4 22       		.byte	0x22
 6875 12b5 28       		.uleb128 0x28
 6876 12b6 01       		.uleb128 0x1
 6877 12b7 51       		.byte	0x51
 6878 12b8 09       		.uleb128 0x9
ARM GAS  C:\Users\d3bug\AppData\Local\Temp\ccPpCIYA.s 			page 163


 6879 12b9 91       		.byte	0x91
 6880 12ba 8C7F     		.sleb128 -116
 6881 12bc 06       		.byte	0x6
 6882 12bd 7A       		.byte	0x7a
 6883 12be 00       		.sleb128 0
 6884 12bf 1C       		.byte	0x1c
 6885 12c0 23       		.byte	0x23
 6886 12c1 01       		.uleb128 0x1
 6887 12c2 28       		.uleb128 0x28
 6888 12c3 01       		.uleb128 0x1
 6889 12c4 52       		.byte	0x52
 6890 12c5 04       		.uleb128 0x4
 6891 12c6 91       		.byte	0x91
 6892 12c7 F47E     		.sleb128 -140
 6893 12c9 06       		.byte	0x6
 6894 12ca 28       		.uleb128 0x28
 6895 12cb 02       		.uleb128 0x2
 6896 12cc 7D       		.byte	0x7d
 6897 12cd 00       		.sleb128 0
 6898 12ce 05       		.uleb128 0x5
 6899 12cf 91       		.byte	0x91
 6900 12d0 807F     		.sleb128 -128
 6901 12d2 94       		.byte	0x94
 6902 12d3 01       		.byte	0x1
 6903 12d4 00       		.byte	0
 6904 12d5 32       		.uleb128 0x32
 6905 12d6 A4030000 		.4byte	.LVL170
 6906 12da 02       		.uleb128 0x2
 6907 12db 79       		.byte	0x79
 6908 12dc 00       		.sleb128 0
 6909 12dd 11130000 		.4byte	0x1311
 6910 12e1 28       		.uleb128 0x28
 6911 12e2 01       		.uleb128 0x1
 6912 12e3 50       		.byte	0x50
 6913 12e4 0C       		.uleb128 0xc
 6914 12e5 91       		.byte	0x91
 6915 12e6 947F     		.sleb128 -108
 6916 12e8 06       		.byte	0x6
 6917 12e9 74       		.byte	0x74
 6918 12ea 00       		.sleb128 0
 6919 12eb 22       		.byte	0x22
 6920 12ec 91       		.byte	0x91
 6921 12ed 9C7F     		.sleb128 -100
 6922 12ef 06       		.byte	0x6
 6923 12f0 22       		.byte	0x22
 6924 12f1 28       		.uleb128 0x28
 6925 12f2 01       		.uleb128 0x1
 6926 12f3 51       		.byte	0x51
 6927 12f4 09       		.uleb128 0x9
 6928 12f5 91       		.byte	0x91
 6929 12f6 987F     		.sleb128 -104
 6930 12f8 06       		.byte	0x6
 6931 12f9 7A       		.byte	0x7a
 6932 12fa 00       		.sleb128 0
 6933 12fb 22       		.byte	0x22
 6934 12fc 31       		.byte	0x31
 6935 12fd 1C       		.byte	0x1c
ARM GAS  C:\Users\d3bug\AppData\Local\Temp\ccPpCIYA.s 			page 164


 6936 12fe 28       		.uleb128 0x28
 6937 12ff 01       		.uleb128 0x1
 6938 1300 52       		.byte	0x52
 6939 1301 04       		.uleb128 0x4
 6940 1302 91       		.byte	0x91
 6941 1303 F47E     		.sleb128 -140
 6942 1305 06       		.byte	0x6
 6943 1306 28       		.uleb128 0x28
 6944 1307 02       		.uleb128 0x2
 6945 1308 7D       		.byte	0x7d
 6946 1309 00       		.sleb128 0
 6947 130a 05       		.uleb128 0x5
 6948 130b 91       		.byte	0x91
 6949 130c 807F     		.sleb128 -128
 6950 130e 94       		.byte	0x94
 6951 130f 01       		.byte	0x1
 6952 1310 00       		.byte	0
 6953 1311 32       		.uleb128 0x32
 6954 1312 D0030000 		.4byte	.LVL171
 6955 1316 02       		.uleb128 0x2
 6956 1317 78       		.byte	0x78
 6957 1318 00       		.sleb128 0
 6958 1319 4D130000 		.4byte	0x134d
 6959 131d 28       		.uleb128 0x28
 6960 131e 01       		.uleb128 0x1
 6961 131f 50       		.byte	0x50
 6962 1320 09       		.uleb128 0x9
 6963 1321 91       		.byte	0x91
 6964 1322 907F     		.sleb128 -112
 6965 1324 06       		.byte	0x6
 6966 1325 7A       		.byte	0x7a
 6967 1326 00       		.sleb128 0
 6968 1327 1C       		.byte	0x1c
 6969 1328 23       		.byte	0x23
 6970 1329 01       		.uleb128 0x1
 6971 132a 28       		.uleb128 0x28
 6972 132b 01       		.uleb128 0x1
 6973 132c 51       		.byte	0x51
 6974 132d 0C       		.uleb128 0xc
 6975 132e 91       		.byte	0x91
 6976 132f 987F     		.sleb128 -104
 6977 1331 06       		.byte	0x6
 6978 1332 74       		.byte	0x74
 6979 1333 00       		.sleb128 0
 6980 1334 22       		.byte	0x22
 6981 1335 91       		.byte	0x91
 6982 1336 9C7F     		.sleb128 -100
 6983 1338 06       		.byte	0x6
 6984 1339 22       		.byte	0x22
 6985 133a 28       		.uleb128 0x28
 6986 133b 01       		.uleb128 0x1
 6987 133c 52       		.byte	0x52
 6988 133d 04       		.uleb128 0x4
 6989 133e 91       		.byte	0x91
 6990 133f F47E     		.sleb128 -140
 6991 1341 06       		.byte	0x6
 6992 1342 28       		.uleb128 0x28
ARM GAS  C:\Users\d3bug\AppData\Local\Temp\ccPpCIYA.s 			page 165


 6993 1343 02       		.uleb128 0x2
 6994 1344 7D       		.byte	0x7d
 6995 1345 00       		.sleb128 0
 6996 1346 05       		.uleb128 0x5
 6997 1347 91       		.byte	0x91
 6998 1348 807F     		.sleb128 -128
 6999 134a 94       		.byte	0x94
 7000 134b 01       		.byte	0x1
 7001 134c 00       		.byte	0
 7002 134d 32       		.uleb128 0x32
 7003 134e F8030000 		.4byte	.LVL172
 7004 1352 02       		.uleb128 0x2
 7005 1353 77       		.byte	0x77
 7006 1354 00       		.sleb128 0
 7007 1355 89130000 		.4byte	0x1389
 7008 1359 28       		.uleb128 0x28
 7009 135a 01       		.uleb128 0x1
 7010 135b 50       		.byte	0x50
 7011 135c 0C       		.uleb128 0xc
 7012 135d 91       		.byte	0x91
 7013 135e 907F     		.sleb128 -112
 7014 1360 06       		.byte	0x6
 7015 1361 74       		.byte	0x74
 7016 1362 00       		.sleb128 0
 7017 1363 1C       		.byte	0x1c
 7018 1364 91       		.byte	0x91
 7019 1365 9C7F     		.sleb128 -100
 7020 1367 06       		.byte	0x6
 7021 1368 1C       		.byte	0x1c
 7022 1369 28       		.uleb128 0x28
 7023 136a 01       		.uleb128 0x1
 7024 136b 51       		.byte	0x51
 7025 136c 09       		.uleb128 0x9
 7026 136d 91       		.byte	0x91
 7027 136e 8C7F     		.sleb128 -116
 7028 1370 06       		.byte	0x6
 7029 1371 7A       		.byte	0x7a
 7030 1372 00       		.sleb128 0
 7031 1373 1C       		.byte	0x1c
 7032 1374 23       		.byte	0x23
 7033 1375 01       		.uleb128 0x1
 7034 1376 28       		.uleb128 0x28
 7035 1377 01       		.uleb128 0x1
 7036 1378 52       		.byte	0x52
 7037 1379 04       		.uleb128 0x4
 7038 137a 91       		.byte	0x91
 7039 137b F47E     		.sleb128 -140
 7040 137d 06       		.byte	0x6
 7041 137e 28       		.uleb128 0x28
 7042 137f 02       		.uleb128 0x2
 7043 1380 7D       		.byte	0x7d
 7044 1381 00       		.sleb128 0
 7045 1382 05       		.uleb128 0x5
 7046 1383 91       		.byte	0x91
 7047 1384 807F     		.sleb128 -128
 7048 1386 94       		.byte	0x94
 7049 1387 01       		.byte	0x1
ARM GAS  C:\Users\d3bug\AppData\Local\Temp\ccPpCIYA.s 			page 166


 7050 1388 00       		.byte	0
 7051 1389 27       		.uleb128 0x27
 7052 138a 22040000 		.4byte	.LVL173
 7053 138e 02       		.uleb128 0x2
 7054 138f 76       		.byte	0x76
 7055 1390 00       		.sleb128 0
 7056 1391 28       		.uleb128 0x28
 7057 1392 01       		.uleb128 0x1
 7058 1393 50       		.byte	0x50
 7059 1394 09       		.uleb128 0x9
 7060 1395 91       		.byte	0x91
 7061 1396 947F     		.sleb128 -108
 7062 1398 06       		.byte	0x6
 7063 1399 7A       		.byte	0x7a
 7064 139a 00       		.sleb128 0
 7065 139b 22       		.byte	0x22
 7066 139c 31       		.byte	0x31
 7067 139d 1C       		.byte	0x1c
 7068 139e 28       		.uleb128 0x28
 7069 139f 01       		.uleb128 0x1
 7070 13a0 51       		.byte	0x51
 7071 13a1 0C       		.uleb128 0xc
 7072 13a2 91       		.byte	0x91
 7073 13a3 8C7F     		.sleb128 -116
 7074 13a5 06       		.byte	0x6
 7075 13a6 74       		.byte	0x74
 7076 13a7 00       		.sleb128 0
 7077 13a8 1C       		.byte	0x1c
 7078 13a9 91       		.byte	0x91
 7079 13aa 9C7F     		.sleb128 -100
 7080 13ac 06       		.byte	0x6
 7081 13ad 1C       		.byte	0x1c
 7082 13ae 28       		.uleb128 0x28
 7083 13af 01       		.uleb128 0x1
 7084 13b0 52       		.byte	0x52
 7085 13b1 04       		.uleb128 0x4
 7086 13b2 91       		.byte	0x91
 7087 13b3 F47E     		.sleb128 -140
 7088 13b5 06       		.byte	0x6
 7089 13b6 28       		.uleb128 0x28
 7090 13b7 02       		.uleb128 0x2
 7091 13b8 7D       		.byte	0x7d
 7092 13b9 00       		.sleb128 0
 7093 13ba 05       		.uleb128 0x5
 7094 13bb 91       		.byte	0x91
 7095 13bc 807F     		.sleb128 -128
 7096 13be 94       		.byte	0x94
 7097 13bf 01       		.byte	0x1
 7098 13c0 00       		.byte	0
 7099 13c1 00       		.byte	0
 7100 13c2 00       		.byte	0
 7101 13c3 23       		.uleb128 0x23
 7102 13c4 78060000 		.4byte	.LBB93
 7103 13c8 42010000 		.4byte	.LBE93-.LBB93
 7104 13cc B1150000 		.4byte	0x15b1
 7105 13d0 2C       		.uleb128 0x2c
 7106 13d1 16060000 		.4byte	.LASF135
ARM GAS  C:\Users\d3bug\AppData\Local\Temp\ccPpCIYA.s 			page 167


 7107 13d5 01       		.byte	0x1
 7108 13d6 A703     		.2byte	0x3a7
 7109 13d8 75010000 		.4byte	0x175
 7110 13dc 070B0000 		.4byte	.LLST61
 7111 13e0 29       		.uleb128 0x29
 7112 13e1 84060000 		.4byte	.LVL193
 7113 13e5 C22A0000 		.4byte	0x2ac2
 7114 13e9 00140000 		.4byte	0x1400
 7115 13ed 28       		.uleb128 0x28
 7116 13ee 01       		.uleb128 0x1
 7117 13ef 50       		.byte	0x50
 7118 13f0 02       		.uleb128 0x2
 7119 13f1 79       		.byte	0x79
 7120 13f2 00       		.sleb128 0
 7121 13f3 28       		.uleb128 0x28
 7122 13f4 01       		.uleb128 0x1
 7123 13f5 51       		.byte	0x51
 7124 13f6 02       		.uleb128 0x2
 7125 13f7 74       		.byte	0x74
 7126 13f8 00       		.sleb128 0
 7127 13f9 28       		.uleb128 0x28
 7128 13fa 01       		.uleb128 0x1
 7129 13fb 52       		.byte	0x52
 7130 13fc 02       		.uleb128 0x2
 7131 13fd 75       		.byte	0x75
 7132 13fe 00       		.sleb128 0
 7133 13ff 00       		.byte	0
 7134 1400 32       		.uleb128 0x32
 7135 1401 B8060000 		.4byte	.LVL196
 7136 1405 02       		.uleb128 0x2
 7137 1406 78       		.byte	0x78
 7138 1407 00       		.sleb128 0
 7139 1408 37140000 		.4byte	0x1437
 7140 140c 28       		.uleb128 0x28
 7141 140d 01       		.uleb128 0x1
 7142 140e 50       		.byte	0x50
 7143 140f 09       		.uleb128 0x9
 7144 1410 91       		.byte	0x91
 7145 1411 947F     		.sleb128 -108
 7146 1413 06       		.byte	0x6
 7147 1414 76       		.byte	0x76
 7148 1415 00       		.sleb128 0
 7149 1416 22       		.byte	0x22
 7150 1417 23       		.byte	0x23
 7151 1418 01       		.uleb128 0x1
 7152 1419 28       		.uleb128 0x28
 7153 141a 01       		.uleb128 0x1
 7154 141b 51       		.byte	0x51
 7155 141c 0A       		.uleb128 0xa
 7156 141d 91       		.byte	0x91
 7157 141e 987F     		.sleb128 -104
 7158 1420 06       		.byte	0x6
 7159 1421 77       		.byte	0x77
 7160 1422 00       		.sleb128 0
 7161 1423 22       		.byte	0x22
 7162 1424 7A       		.byte	0x7a
 7163 1425 00       		.sleb128 0
ARM GAS  C:\Users\d3bug\AppData\Local\Temp\ccPpCIYA.s 			page 168


 7164 1426 22       		.byte	0x22
 7165 1427 28       		.uleb128 0x28
 7166 1428 01       		.uleb128 0x1
 7167 1429 52       		.byte	0x52
 7168 142a 04       		.uleb128 0x4
 7169 142b 91       		.byte	0x91
 7170 142c F47E     		.sleb128 -140
 7171 142e 06       		.byte	0x6
 7172 142f 28       		.uleb128 0x28
 7173 1430 02       		.uleb128 0x2
 7174 1431 7D       		.byte	0x7d
 7175 1432 00       		.sleb128 0
 7176 1433 02       		.uleb128 0x2
 7177 1434 75       		.byte	0x75
 7178 1435 00       		.sleb128 0
 7179 1436 00       		.byte	0
 7180 1437 32       		.uleb128 0x32
 7181 1438 D2060000 		.4byte	.LVL197
 7182 143c 02       		.uleb128 0x2
 7183 143d 78       		.byte	0x78
 7184 143e 00       		.sleb128 0
 7185 143f 6E140000 		.4byte	0x146e
 7186 1443 28       		.uleb128 0x28
 7187 1444 01       		.uleb128 0x1
 7188 1445 50       		.byte	0x50
 7189 1446 0A       		.uleb128 0xa
 7190 1447 91       		.byte	0x91
 7191 1448 947F     		.sleb128 -108
 7192 144a 06       		.byte	0x6
 7193 144b 77       		.byte	0x77
 7194 144c 00       		.sleb128 0
 7195 144d 22       		.byte	0x22
 7196 144e 7A       		.byte	0x7a
 7197 144f 00       		.sleb128 0
 7198 1450 22       		.byte	0x22
 7199 1451 28       		.uleb128 0x28
 7200 1452 01       		.uleb128 0x1
 7201 1453 51       		.byte	0x51
 7202 1454 09       		.uleb128 0x9
 7203 1455 91       		.byte	0x91
 7204 1456 987F     		.sleb128 -104
 7205 1458 06       		.byte	0x6
 7206 1459 76       		.byte	0x76
 7207 145a 00       		.sleb128 0
 7208 145b 22       		.byte	0x22
 7209 145c 23       		.byte	0x23
 7210 145d 01       		.uleb128 0x1
 7211 145e 28       		.uleb128 0x28
 7212 145f 01       		.uleb128 0x1
 7213 1460 52       		.byte	0x52
 7214 1461 04       		.uleb128 0x4
 7215 1462 91       		.byte	0x91
 7216 1463 F47E     		.sleb128 -140
 7217 1465 06       		.byte	0x6
 7218 1466 28       		.uleb128 0x28
 7219 1467 02       		.uleb128 0x2
 7220 1468 7D       		.byte	0x7d
ARM GAS  C:\Users\d3bug\AppData\Local\Temp\ccPpCIYA.s 			page 169


 7221 1469 00       		.sleb128 0
 7222 146a 02       		.uleb128 0x2
 7223 146b 75       		.byte	0x75
 7224 146c 00       		.sleb128 0
 7225 146d 00       		.byte	0
 7226 146e 32       		.uleb128 0x32
 7227 146f 06070000 		.4byte	.LVL199
 7228 1473 02       		.uleb128 0x2
 7229 1474 78       		.byte	0x78
 7230 1475 00       		.sleb128 0
 7231 1476 A5140000 		.4byte	0x14a5
 7232 147a 28       		.uleb128 0x28
 7233 147b 01       		.uleb128 0x1
 7234 147c 50       		.byte	0x50
 7235 147d 0A       		.uleb128 0xa
 7236 147e 91       		.byte	0x91
 7237 147f 907F     		.sleb128 -112
 7238 1481 06       		.byte	0x6
 7239 1482 77       		.byte	0x77
 7240 1483 00       		.sleb128 0
 7241 1484 1C       		.byte	0x1c
 7242 1485 7A       		.byte	0x7a
 7243 1486 00       		.sleb128 0
 7244 1487 1C       		.byte	0x1c
 7245 1488 28       		.uleb128 0x28
 7246 1489 01       		.uleb128 0x1
 7247 148a 51       		.byte	0x51
 7248 148b 09       		.uleb128 0x9
 7249 148c 91       		.byte	0x91
 7250 148d 987F     		.sleb128 -104
 7251 148f 06       		.byte	0x6
 7252 1490 76       		.byte	0x76
 7253 1491 00       		.sleb128 0
 7254 1492 22       		.byte	0x22
 7255 1493 23       		.byte	0x23
 7256 1494 01       		.uleb128 0x1
 7257 1495 28       		.uleb128 0x28
 7258 1496 01       		.uleb128 0x1
 7259 1497 52       		.byte	0x52
 7260 1498 04       		.uleb128 0x4
 7261 1499 91       		.byte	0x91
 7262 149a F47E     		.sleb128 -140
 7263 149c 06       		.byte	0x6
 7264 149d 28       		.uleb128 0x28
 7265 149e 02       		.uleb128 0x2
 7266 149f 7D       		.byte	0x7d
 7267 14a0 00       		.sleb128 0
 7268 14a1 02       		.uleb128 0x2
 7269 14a2 75       		.byte	0x75
 7270 14a3 00       		.sleb128 0
 7271 14a4 00       		.byte	0
 7272 14a5 32       		.uleb128 0x32
 7273 14a6 20070000 		.4byte	.LVL200
 7274 14aa 02       		.uleb128 0x2
 7275 14ab 78       		.byte	0x78
 7276 14ac 00       		.sleb128 0
 7277 14ad DB140000 		.4byte	0x14db
ARM GAS  C:\Users\d3bug\AppData\Local\Temp\ccPpCIYA.s 			page 170


 7278 14b1 28       		.uleb128 0x28
 7279 14b2 01       		.uleb128 0x1
 7280 14b3 50       		.byte	0x50
 7281 14b4 08       		.uleb128 0x8
 7282 14b5 76       		.byte	0x76
 7283 14b6 00       		.sleb128 0
 7284 14b7 20       		.byte	0x20
 7285 14b8 91       		.byte	0x91
 7286 14b9 907F     		.sleb128 -112
 7287 14bb 06       		.byte	0x6
 7288 14bc 22       		.byte	0x22
 7289 14bd 28       		.uleb128 0x28
 7290 14be 01       		.uleb128 0x1
 7291 14bf 51       		.byte	0x51
 7292 14c0 0A       		.uleb128 0xa
 7293 14c1 91       		.byte	0x91
 7294 14c2 987F     		.sleb128 -104
 7295 14c4 06       		.byte	0x6
 7296 14c5 77       		.byte	0x77
 7297 14c6 00       		.sleb128 0
 7298 14c7 22       		.byte	0x22
 7299 14c8 7A       		.byte	0x7a
 7300 14c9 00       		.sleb128 0
 7301 14ca 22       		.byte	0x22
 7302 14cb 28       		.uleb128 0x28
 7303 14cc 01       		.uleb128 0x1
 7304 14cd 52       		.byte	0x52
 7305 14ce 04       		.uleb128 0x4
 7306 14cf 91       		.byte	0x91
 7307 14d0 F47E     		.sleb128 -140
 7308 14d2 06       		.byte	0x6
 7309 14d3 28       		.uleb128 0x28
 7310 14d4 02       		.uleb128 0x2
 7311 14d5 7D       		.byte	0x7d
 7312 14d6 00       		.sleb128 0
 7313 14d7 02       		.uleb128 0x2
 7314 14d8 75       		.byte	0x75
 7315 14d9 00       		.sleb128 0
 7316 14da 00       		.byte	0
 7317 14db 32       		.uleb128 0x32
 7318 14dc 50070000 		.4byte	.LVL202
 7319 14e0 02       		.uleb128 0x2
 7320 14e1 78       		.byte	0x78
 7321 14e2 00       		.sleb128 0
 7322 14e3 11150000 		.4byte	0x1511
 7323 14e7 28       		.uleb128 0x28
 7324 14e8 01       		.uleb128 0x1
 7325 14e9 50       		.byte	0x50
 7326 14ea 08       		.uleb128 0x8
 7327 14eb 76       		.byte	0x76
 7328 14ec 00       		.sleb128 0
 7329 14ed 20       		.byte	0x20
 7330 14ee 91       		.byte	0x91
 7331 14ef 907F     		.sleb128 -112
 7332 14f1 06       		.byte	0x6
 7333 14f2 22       		.byte	0x22
 7334 14f3 28       		.uleb128 0x28
ARM GAS  C:\Users\d3bug\AppData\Local\Temp\ccPpCIYA.s 			page 171


 7335 14f4 01       		.uleb128 0x1
 7336 14f5 51       		.byte	0x51
 7337 14f6 0A       		.uleb128 0xa
 7338 14f7 91       		.byte	0x91
 7339 14f8 8C7F     		.sleb128 -116
 7340 14fa 06       		.byte	0x6
 7341 14fb 77       		.byte	0x77
 7342 14fc 00       		.sleb128 0
 7343 14fd 1C       		.byte	0x1c
 7344 14fe 7A       		.byte	0x7a
 7345 14ff 00       		.sleb128 0
 7346 1500 1C       		.byte	0x1c
 7347 1501 28       		.uleb128 0x28
 7348 1502 01       		.uleb128 0x1
 7349 1503 52       		.byte	0x52
 7350 1504 04       		.uleb128 0x4
 7351 1505 91       		.byte	0x91
 7352 1506 F47E     		.sleb128 -140
 7353 1508 06       		.byte	0x6
 7354 1509 28       		.uleb128 0x28
 7355 150a 02       		.uleb128 0x2
 7356 150b 7D       		.byte	0x7d
 7357 150c 00       		.sleb128 0
 7358 150d 02       		.uleb128 0x2
 7359 150e 75       		.byte	0x75
 7360 150f 00       		.sleb128 0
 7361 1510 00       		.byte	0
 7362 1511 32       		.uleb128 0x32
 7363 1512 6C070000 		.4byte	.LVL203
 7364 1516 02       		.uleb128 0x2
 7365 1517 78       		.byte	0x78
 7366 1518 00       		.sleb128 0
 7367 1519 47150000 		.4byte	0x1547
 7368 151d 28       		.uleb128 0x28
 7369 151e 01       		.uleb128 0x1
 7370 151f 50       		.byte	0x50
 7371 1520 0A       		.uleb128 0xa
 7372 1521 91       		.byte	0x91
 7373 1522 907F     		.sleb128 -112
 7374 1524 06       		.byte	0x6
 7375 1525 77       		.byte	0x77
 7376 1526 00       		.sleb128 0
 7377 1527 1C       		.byte	0x1c
 7378 1528 7A       		.byte	0x7a
 7379 1529 00       		.sleb128 0
 7380 152a 1C       		.byte	0x1c
 7381 152b 28       		.uleb128 0x28
 7382 152c 01       		.uleb128 0x1
 7383 152d 51       		.byte	0x51
 7384 152e 08       		.uleb128 0x8
 7385 152f 76       		.byte	0x76
 7386 1530 00       		.sleb128 0
 7387 1531 20       		.byte	0x20
 7388 1532 91       		.byte	0x91
 7389 1533 8C7F     		.sleb128 -116
 7390 1535 06       		.byte	0x6
 7391 1536 22       		.byte	0x22
ARM GAS  C:\Users\d3bug\AppData\Local\Temp\ccPpCIYA.s 			page 172


 7392 1537 28       		.uleb128 0x28
 7393 1538 01       		.uleb128 0x1
 7394 1539 52       		.byte	0x52
 7395 153a 04       		.uleb128 0x4
 7396 153b 91       		.byte	0x91
 7397 153c F47E     		.sleb128 -140
 7398 153e 06       		.byte	0x6
 7399 153f 28       		.uleb128 0x28
 7400 1540 02       		.uleb128 0x2
 7401 1541 7D       		.byte	0x7d
 7402 1542 00       		.sleb128 0
 7403 1543 02       		.uleb128 0x2
 7404 1544 75       		.byte	0x75
 7405 1545 00       		.sleb128 0
 7406 1546 00       		.byte	0
 7407 1547 32       		.uleb128 0x32
 7408 1548 9E070000 		.4byte	.LVL205
 7409 154c 02       		.uleb128 0x2
 7410 154d 78       		.byte	0x78
 7411 154e 00       		.sleb128 0
 7412 154f 7D150000 		.4byte	0x157d
 7413 1553 28       		.uleb128 0x28
 7414 1554 01       		.uleb128 0x1
 7415 1555 50       		.byte	0x50
 7416 1556 0A       		.uleb128 0xa
 7417 1557 91       		.byte	0x91
 7418 1558 947F     		.sleb128 -108
 7419 155a 06       		.byte	0x6
 7420 155b 77       		.byte	0x77
 7421 155c 00       		.sleb128 0
 7422 155d 22       		.byte	0x22
 7423 155e 7A       		.byte	0x7a
 7424 155f 00       		.sleb128 0
 7425 1560 22       		.byte	0x22
 7426 1561 28       		.uleb128 0x28
 7427 1562 01       		.uleb128 0x1
 7428 1563 51       		.byte	0x51
 7429 1564 08       		.uleb128 0x8
 7430 1565 76       		.byte	0x76
 7431 1566 00       		.sleb128 0
 7432 1567 20       		.byte	0x20
 7433 1568 91       		.byte	0x91
 7434 1569 8C7F     		.sleb128 -116
 7435 156b 06       		.byte	0x6
 7436 156c 22       		.byte	0x22
 7437 156d 28       		.uleb128 0x28
 7438 156e 01       		.uleb128 0x1
 7439 156f 52       		.byte	0x52
 7440 1570 04       		.uleb128 0x4
 7441 1571 91       		.byte	0x91
 7442 1572 F47E     		.sleb128 -140
 7443 1574 06       		.byte	0x6
 7444 1575 28       		.uleb128 0x28
 7445 1576 02       		.uleb128 0x2
 7446 1577 7D       		.byte	0x7d
 7447 1578 00       		.sleb128 0
 7448 1579 02       		.uleb128 0x2
ARM GAS  C:\Users\d3bug\AppData\Local\Temp\ccPpCIYA.s 			page 173


 7449 157a 75       		.byte	0x75
 7450 157b 00       		.sleb128 0
 7451 157c 00       		.byte	0
 7452 157d 27       		.uleb128 0x27
 7453 157e BA070000 		.4byte	.LVL206
 7454 1582 02       		.uleb128 0x2
 7455 1583 78       		.byte	0x78
 7456 1584 00       		.sleb128 0
 7457 1585 28       		.uleb128 0x28
 7458 1586 01       		.uleb128 0x1
 7459 1587 50       		.byte	0x50
 7460 1588 09       		.uleb128 0x9
 7461 1589 91       		.byte	0x91
 7462 158a 947F     		.sleb128 -108
 7463 158c 06       		.byte	0x6
 7464 158d 76       		.byte	0x76
 7465 158e 00       		.sleb128 0
 7466 158f 22       		.byte	0x22
 7467 1590 23       		.byte	0x23
 7468 1591 01       		.uleb128 0x1
 7469 1592 28       		.uleb128 0x28
 7470 1593 01       		.uleb128 0x1
 7471 1594 51       		.byte	0x51
 7472 1595 0A       		.uleb128 0xa
 7473 1596 91       		.byte	0x91
 7474 1597 8C7F     		.sleb128 -116
 7475 1599 06       		.byte	0x6
 7476 159a 77       		.byte	0x77
 7477 159b 00       		.sleb128 0
 7478 159c 1C       		.byte	0x1c
 7479 159d 7A       		.byte	0x7a
 7480 159e 00       		.sleb128 0
 7481 159f 1C       		.byte	0x1c
 7482 15a0 28       		.uleb128 0x28
 7483 15a1 01       		.uleb128 0x1
 7484 15a2 52       		.byte	0x52
 7485 15a3 04       		.uleb128 0x4
 7486 15a4 91       		.byte	0x91
 7487 15a5 F47E     		.sleb128 -140
 7488 15a7 06       		.byte	0x6
 7489 15a8 28       		.uleb128 0x28
 7490 15a9 02       		.uleb128 0x2
 7491 15aa 7D       		.byte	0x7d
 7492 15ab 00       		.sleb128 0
 7493 15ac 02       		.uleb128 0x2
 7494 15ad 75       		.byte	0x75
 7495 15ae 00       		.sleb128 0
 7496 15af 00       		.byte	0
 7497 15b0 00       		.byte	0
 7498 15b1 23       		.uleb128 0x23
 7499 15b2 D4070000 		.4byte	.LBB94
 7500 15b6 9C000000 		.4byte	.LBE94-.LBB94
 7501 15ba CB160000 		.4byte	0x16cb
 7502 15be 2C       		.uleb128 0x2c
 7503 15bf 16060000 		.4byte	.LASF135
 7504 15c3 01       		.byte	0x1
 7505 15c4 C203     		.2byte	0x3c2
ARM GAS  C:\Users\d3bug\AppData\Local\Temp\ccPpCIYA.s 			page 174


 7506 15c6 75010000 		.4byte	0x175
 7507 15ca 1A0B0000 		.4byte	.LLST62
 7508 15ce 32       		.uleb128 0x32
 7509 15cf FE070000 		.4byte	.LVL211
 7510 15d3 02       		.uleb128 0x2
 7511 15d4 74       		.byte	0x74
 7512 15d5 00       		.sleb128 0
 7513 15d6 0E160000 		.4byte	0x160e
 7514 15da 28       		.uleb128 0x28
 7515 15db 01       		.uleb128 0x1
 7516 15dc 50       		.byte	0x50
 7517 15dd 0E       		.uleb128 0xe
 7518 15de 91       		.byte	0x91
 7519 15df A07F     		.sleb128 -96
 7520 15e1 94       		.byte	0x94
 7521 15e2 02       		.byte	0x2
 7522 15e3 0A       		.byte	0xa
 7523 15e4 FFFF     		.2byte	0xffff
 7524 15e6 1A       		.byte	0x1a
 7525 15e7 91       		.byte	0x91
 7526 15e8 947F     		.sleb128 -108
 7527 15ea 06       		.byte	0x6
 7528 15eb 22       		.byte	0x22
 7529 15ec 28       		.uleb128 0x28
 7530 15ed 01       		.uleb128 0x1
 7531 15ee 51       		.byte	0x51
 7532 15ef 0E       		.uleb128 0xe
 7533 15f0 91       		.byte	0x91
 7534 15f1 A07F     		.sleb128 -96
 7535 15f3 94       		.byte	0x94
 7536 15f4 02       		.byte	0x2
 7537 15f5 0A       		.byte	0xa
 7538 15f6 FFFF     		.2byte	0xffff
 7539 15f8 1A       		.byte	0x1a
 7540 15f9 91       		.byte	0x91
 7541 15fa 987F     		.sleb128 -104
 7542 15fc 06       		.byte	0x6
 7543 15fd 22       		.byte	0x22
 7544 15fe 28       		.uleb128 0x28
 7545 15ff 01       		.uleb128 0x1
 7546 1600 52       		.byte	0x52
 7547 1601 04       		.uleb128 0x4
 7548 1602 91       		.byte	0x91
 7549 1603 F47E     		.sleb128 -140
 7550 1605 06       		.byte	0x6
 7551 1606 28       		.uleb128 0x28
 7552 1607 02       		.uleb128 0x2
 7553 1608 7D       		.byte	0x7d
 7554 1609 00       		.sleb128 0
 7555 160a 02       		.uleb128 0x2
 7556 160b 75       		.byte	0x75
 7557 160c 00       		.sleb128 0
 7558 160d 00       		.byte	0
 7559 160e 32       		.uleb128 0x32
 7560 160f 24080000 		.4byte	.LVL212
 7561 1613 02       		.uleb128 0x2
 7562 1614 74       		.byte	0x74
ARM GAS  C:\Users\d3bug\AppData\Local\Temp\ccPpCIYA.s 			page 175


 7563 1615 00       		.sleb128 0
 7564 1616 4E160000 		.4byte	0x164e
 7565 161a 28       		.uleb128 0x28
 7566 161b 01       		.uleb128 0x1
 7567 161c 50       		.byte	0x50
 7568 161d 0E       		.uleb128 0xe
 7569 161e 91       		.byte	0x91
 7570 161f 907F     		.sleb128 -112
 7571 1621 06       		.byte	0x6
 7572 1622 91       		.byte	0x91
 7573 1623 A07F     		.sleb128 -96
 7574 1625 94       		.byte	0x94
 7575 1626 02       		.byte	0x2
 7576 1627 0A       		.byte	0xa
 7577 1628 FFFF     		.2byte	0xffff
 7578 162a 1A       		.byte	0x1a
 7579 162b 1C       		.byte	0x1c
 7580 162c 28       		.uleb128 0x28
 7581 162d 01       		.uleb128 0x1
 7582 162e 51       		.byte	0x51
 7583 162f 0E       		.uleb128 0xe
 7584 1630 91       		.byte	0x91
 7585 1631 A07F     		.sleb128 -96
 7586 1633 94       		.byte	0x94
 7587 1634 02       		.byte	0x2
 7588 1635 0A       		.byte	0xa
 7589 1636 FFFF     		.2byte	0xffff
 7590 1638 1A       		.byte	0x1a
 7591 1639 91       		.byte	0x91
 7592 163a 987F     		.sleb128 -104
 7593 163c 06       		.byte	0x6
 7594 163d 22       		.byte	0x22
 7595 163e 28       		.uleb128 0x28
 7596 163f 01       		.uleb128 0x1
 7597 1640 52       		.byte	0x52
 7598 1641 04       		.uleb128 0x4
 7599 1642 91       		.byte	0x91
 7600 1643 F47E     		.sleb128 -140
 7601 1645 06       		.byte	0x6
 7602 1646 28       		.uleb128 0x28
 7603 1647 02       		.uleb128 0x2
 7604 1648 7D       		.byte	0x7d
 7605 1649 00       		.sleb128 0
 7606 164a 02       		.uleb128 0x2
 7607 164b 75       		.byte	0x75
 7608 164c 00       		.sleb128 0
 7609 164d 00       		.byte	0
 7610 164e 32       		.uleb128 0x32
 7611 164f 4A080000 		.4byte	.LVL213
 7612 1653 02       		.uleb128 0x2
 7613 1654 74       		.byte	0x74
 7614 1655 00       		.sleb128 0
 7615 1656 8E160000 		.4byte	0x168e
 7616 165a 28       		.uleb128 0x28
 7617 165b 01       		.uleb128 0x1
 7618 165c 50       		.byte	0x50
 7619 165d 0E       		.uleb128 0xe
ARM GAS  C:\Users\d3bug\AppData\Local\Temp\ccPpCIYA.s 			page 176


 7620 165e 91       		.byte	0x91
 7621 165f 907F     		.sleb128 -112
 7622 1661 06       		.byte	0x6
 7623 1662 91       		.byte	0x91
 7624 1663 A07F     		.sleb128 -96
 7625 1665 94       		.byte	0x94
 7626 1666 02       		.byte	0x2
 7627 1667 0A       		.byte	0xa
 7628 1668 FFFF     		.2byte	0xffff
 7629 166a 1A       		.byte	0x1a
 7630 166b 1C       		.byte	0x1c
 7631 166c 28       		.uleb128 0x28
 7632 166d 01       		.uleb128 0x1
 7633 166e 51       		.byte	0x51
 7634 166f 0E       		.uleb128 0xe
 7635 1670 91       		.byte	0x91
 7636 1671 8C7F     		.sleb128 -116
 7637 1673 06       		.byte	0x6
 7638 1674 91       		.byte	0x91
 7639 1675 A07F     		.sleb128 -96
 7640 1677 94       		.byte	0x94
 7641 1678 02       		.byte	0x2
 7642 1679 0A       		.byte	0xa
 7643 167a FFFF     		.2byte	0xffff
 7644 167c 1A       		.byte	0x1a
 7645 167d 1C       		.byte	0x1c
 7646 167e 28       		.uleb128 0x28
 7647 167f 01       		.uleb128 0x1
 7648 1680 52       		.byte	0x52
 7649 1681 04       		.uleb128 0x4
 7650 1682 91       		.byte	0x91
 7651 1683 F47E     		.sleb128 -140
 7652 1685 06       		.byte	0x6
 7653 1686 28       		.uleb128 0x28
 7654 1687 02       		.uleb128 0x2
 7655 1688 7D       		.byte	0x7d
 7656 1689 00       		.sleb128 0
 7657 168a 02       		.uleb128 0x2
 7658 168b 75       		.byte	0x75
 7659 168c 00       		.sleb128 0
 7660 168d 00       		.byte	0
 7661 168e 27       		.uleb128 0x27
 7662 168f 70080000 		.4byte	.LVL214
 7663 1693 02       		.uleb128 0x2
 7664 1694 74       		.byte	0x74
 7665 1695 00       		.sleb128 0
 7666 1696 28       		.uleb128 0x28
 7667 1697 01       		.uleb128 0x1
 7668 1698 50       		.byte	0x50
 7669 1699 0E       		.uleb128 0xe
 7670 169a 91       		.byte	0x91
 7671 169b A07F     		.sleb128 -96
 7672 169d 94       		.byte	0x94
 7673 169e 02       		.byte	0x2
 7674 169f 0A       		.byte	0xa
 7675 16a0 FFFF     		.2byte	0xffff
 7676 16a2 1A       		.byte	0x1a
ARM GAS  C:\Users\d3bug\AppData\Local\Temp\ccPpCIYA.s 			page 177


 7677 16a3 91       		.byte	0x91
 7678 16a4 947F     		.sleb128 -108
 7679 16a6 06       		.byte	0x6
 7680 16a7 22       		.byte	0x22
 7681 16a8 28       		.uleb128 0x28
 7682 16a9 01       		.uleb128 0x1
 7683 16aa 51       		.byte	0x51
 7684 16ab 0E       		.uleb128 0xe
 7685 16ac 91       		.byte	0x91
 7686 16ad 8C7F     		.sleb128 -116
 7687 16af 06       		.byte	0x6
 7688 16b0 91       		.byte	0x91
 7689 16b1 A07F     		.sleb128 -96
 7690 16b3 94       		.byte	0x94
 7691 16b4 02       		.byte	0x2
 7692 16b5 0A       		.byte	0xa
 7693 16b6 FFFF     		.2byte	0xffff
 7694 16b8 1A       		.byte	0x1a
 7695 16b9 1C       		.byte	0x1c
 7696 16ba 28       		.uleb128 0x28
 7697 16bb 01       		.uleb128 0x1
 7698 16bc 52       		.byte	0x52
 7699 16bd 04       		.uleb128 0x4
 7700 16be 91       		.byte	0x91
 7701 16bf F47E     		.sleb128 -140
 7702 16c1 06       		.byte	0x6
 7703 16c2 28       		.uleb128 0x28
 7704 16c3 02       		.uleb128 0x2
 7705 16c4 7D       		.byte	0x7d
 7706 16c5 00       		.sleb128 0
 7707 16c6 02       		.uleb128 0x2
 7708 16c7 75       		.byte	0x75
 7709 16c8 00       		.sleb128 0
 7710 16c9 00       		.byte	0
 7711 16ca 00       		.byte	0
 7712 16cb 23       		.uleb128 0x23
 7713 16cc 90080000 		.4byte	.LBB95
 7714 16d0 74010000 		.4byte	.LBE95-.LBB95
 7715 16d4 E8180000 		.4byte	0x18e8
 7716 16d8 2C       		.uleb128 0x2c
 7717 16d9 16060000 		.4byte	.LASF135
 7718 16dd 01       		.byte	0x1
 7719 16de DC03     		.2byte	0x3dc
 7720 16e0 75010000 		.4byte	0x175
 7721 16e4 2D0B0000 		.4byte	.LLST63
 7722 16e8 29       		.uleb128 0x29
 7723 16e9 9A080000 		.4byte	.LVL219
 7724 16ed C22A0000 		.4byte	0x2ac2
 7725 16f1 0B170000 		.4byte	0x170b
 7726 16f5 28       		.uleb128 0x28
 7727 16f6 01       		.uleb128 0x1
 7728 16f7 50       		.byte	0x50
 7729 16f8 02       		.uleb128 0x2
 7730 16f9 7A       		.byte	0x7a
 7731 16fa 00       		.sleb128 0
 7732 16fb 28       		.uleb128 0x28
 7733 16fc 01       		.uleb128 0x1
ARM GAS  C:\Users\d3bug\AppData\Local\Temp\ccPpCIYA.s 			page 178


 7734 16fd 51       		.byte	0x51
 7735 16fe 02       		.uleb128 0x2
 7736 16ff 74       		.byte	0x74
 7737 1700 00       		.sleb128 0
 7738 1701 28       		.uleb128 0x28
 7739 1702 01       		.uleb128 0x1
 7740 1703 52       		.byte	0x52
 7741 1704 05       		.uleb128 0x5
 7742 1705 91       		.byte	0x91
 7743 1706 F87E     		.sleb128 -136
 7744 1708 94       		.byte	0x94
 7745 1709 01       		.byte	0x1
 7746 170a 00       		.byte	0
 7747 170b 32       		.uleb128 0x32
 7748 170c CA080000 		.4byte	.LVL222
 7749 1710 02       		.uleb128 0x2
 7750 1711 75       		.byte	0x75
 7751 1712 00       		.sleb128 0
 7752 1713 47170000 		.4byte	0x1747
 7753 1717 28       		.uleb128 0x28
 7754 1718 01       		.uleb128 0x1
 7755 1719 50       		.byte	0x50
 7756 171a 09       		.uleb128 0x9
 7757 171b 91       		.byte	0x91
 7758 171c 947F     		.sleb128 -108
 7759 171e 06       		.byte	0x6
 7760 171f 79       		.byte	0x79
 7761 1720 00       		.sleb128 0
 7762 1721 22       		.byte	0x22
 7763 1722 31       		.byte	0x31
 7764 1723 1C       		.byte	0x1c
 7765 1724 28       		.uleb128 0x28
 7766 1725 01       		.uleb128 0x1
 7767 1726 51       		.byte	0x51
 7768 1727 0C       		.uleb128 0xc
 7769 1728 91       		.byte	0x91
 7770 1729 987F     		.sleb128 -104
 7771 172b 06       		.byte	0x6
 7772 172c 74       		.byte	0x74
 7773 172d 00       		.sleb128 0
 7774 172e 22       		.byte	0x22
 7775 172f 91       		.byte	0x91
 7776 1730 9C7F     		.sleb128 -100
 7777 1732 06       		.byte	0x6
 7778 1733 22       		.byte	0x22
 7779 1734 28       		.uleb128 0x28
 7780 1735 01       		.uleb128 0x1
 7781 1736 52       		.byte	0x52
 7782 1737 04       		.uleb128 0x4
 7783 1738 91       		.byte	0x91
 7784 1739 F47E     		.sleb128 -140
 7785 173b 06       		.byte	0x6
 7786 173c 28       		.uleb128 0x28
 7787 173d 02       		.uleb128 0x2
 7788 173e 7D       		.byte	0x7d
 7789 173f 00       		.sleb128 0
 7790 1740 05       		.uleb128 0x5
ARM GAS  C:\Users\d3bug\AppData\Local\Temp\ccPpCIYA.s 			page 179


 7791 1741 91       		.byte	0x91
 7792 1742 807F     		.sleb128 -128
 7793 1744 94       		.byte	0x94
 7794 1745 01       		.byte	0x1
 7795 1746 00       		.byte	0
 7796 1747 32       		.uleb128 0x32
 7797 1748 F6080000 		.4byte	.LVL223
 7798 174c 02       		.uleb128 0x2
 7799 174d 75       		.byte	0x75
 7800 174e 00       		.sleb128 0
 7801 174f 83170000 		.4byte	0x1783
 7802 1753 28       		.uleb128 0x28
 7803 1754 01       		.uleb128 0x1
 7804 1755 50       		.byte	0x50
 7805 1756 0C       		.uleb128 0xc
 7806 1757 91       		.byte	0x91
 7807 1758 907F     		.sleb128 -112
 7808 175a 06       		.byte	0x6
 7809 175b 74       		.byte	0x74
 7810 175c 00       		.sleb128 0
 7811 175d 1C       		.byte	0x1c
 7812 175e 91       		.byte	0x91
 7813 175f 9C7F     		.sleb128 -100
 7814 1761 06       		.byte	0x6
 7815 1762 1C       		.byte	0x1c
 7816 1763 28       		.uleb128 0x28
 7817 1764 01       		.uleb128 0x1
 7818 1765 51       		.byte	0x51
 7819 1766 09       		.uleb128 0x9
 7820 1767 91       		.byte	0x91
 7821 1768 987F     		.sleb128 -104
 7822 176a 06       		.byte	0x6
 7823 176b 79       		.byte	0x79
 7824 176c 00       		.sleb128 0
 7825 176d 22       		.byte	0x22
 7826 176e 31       		.byte	0x31
 7827 176f 1C       		.byte	0x1c
 7828 1770 28       		.uleb128 0x28
 7829 1771 01       		.uleb128 0x1
 7830 1772 52       		.byte	0x52
 7831 1773 04       		.uleb128 0x4
 7832 1774 91       		.byte	0x91
 7833 1775 F47E     		.sleb128 -140
 7834 1777 06       		.byte	0x6
 7835 1778 28       		.uleb128 0x28
 7836 1779 02       		.uleb128 0x2
 7837 177a 7D       		.byte	0x7d
 7838 177b 00       		.sleb128 0
 7839 177c 05       		.uleb128 0x5
 7840 177d 91       		.byte	0x91
 7841 177e 807F     		.sleb128 -128
 7842 1780 94       		.byte	0x94
 7843 1781 01       		.byte	0x1
 7844 1782 00       		.byte	0
 7845 1783 32       		.uleb128 0x32
 7846 1784 22090000 		.4byte	.LVL224
 7847 1788 02       		.uleb128 0x2
ARM GAS  C:\Users\d3bug\AppData\Local\Temp\ccPpCIYA.s 			page 180


 7848 1789 75       		.byte	0x75
 7849 178a 00       		.sleb128 0
 7850 178b BF170000 		.4byte	0x17bf
 7851 178f 28       		.uleb128 0x28
 7852 1790 01       		.uleb128 0x1
 7853 1791 50       		.byte	0x50
 7854 1792 09       		.uleb128 0x9
 7855 1793 91       		.byte	0x91
 7856 1794 907F     		.sleb128 -112
 7857 1796 06       		.byte	0x6
 7858 1797 79       		.byte	0x79
 7859 1798 00       		.sleb128 0
 7860 1799 1C       		.byte	0x1c
 7861 179a 23       		.byte	0x23
 7862 179b 01       		.uleb128 0x1
 7863 179c 28       		.uleb128 0x28
 7864 179d 01       		.uleb128 0x1
 7865 179e 51       		.byte	0x51
 7866 179f 0C       		.uleb128 0xc
 7867 17a0 91       		.byte	0x91
 7868 17a1 8C7F     		.sleb128 -116
 7869 17a3 06       		.byte	0x6
 7870 17a4 74       		.byte	0x74
 7871 17a5 00       		.sleb128 0
 7872 17a6 1C       		.byte	0x1c
 7873 17a7 91       		.byte	0x91
 7874 17a8 9C7F     		.sleb128 -100
 7875 17aa 06       		.byte	0x6
 7876 17ab 1C       		.byte	0x1c
 7877 17ac 28       		.uleb128 0x28
 7878 17ad 01       		.uleb128 0x1
 7879 17ae 52       		.byte	0x52
 7880 17af 04       		.uleb128 0x4
 7881 17b0 91       		.byte	0x91
 7882 17b1 F47E     		.sleb128 -140
 7883 17b3 06       		.byte	0x6
 7884 17b4 28       		.uleb128 0x28
 7885 17b5 02       		.uleb128 0x2
 7886 17b6 7D       		.byte	0x7d
 7887 17b7 00       		.sleb128 0
 7888 17b8 05       		.uleb128 0x5
 7889 17b9 91       		.byte	0x91
 7890 17ba 807F     		.sleb128 -128
 7891 17bc 94       		.byte	0x94
 7892 17bd 01       		.byte	0x1
 7893 17be 00       		.byte	0
 7894 17bf 32       		.uleb128 0x32
 7895 17c0 52090000 		.4byte	.LVL225
 7896 17c4 02       		.uleb128 0x2
 7897 17c5 75       		.byte	0x75
 7898 17c6 00       		.sleb128 0
 7899 17c7 FB170000 		.4byte	0x17fb
 7900 17cb 28       		.uleb128 0x28
 7901 17cc 01       		.uleb128 0x1
 7902 17cd 50       		.byte	0x50
 7903 17ce 0C       		.uleb128 0xc
 7904 17cf 91       		.byte	0x91
ARM GAS  C:\Users\d3bug\AppData\Local\Temp\ccPpCIYA.s 			page 181


 7905 17d0 947F     		.sleb128 -108
 7906 17d2 06       		.byte	0x6
 7907 17d3 74       		.byte	0x74
 7908 17d4 00       		.sleb128 0
 7909 17d5 22       		.byte	0x22
 7910 17d6 91       		.byte	0x91
 7911 17d7 9C7F     		.sleb128 -100
 7912 17d9 06       		.byte	0x6
 7913 17da 22       		.byte	0x22
 7914 17db 28       		.uleb128 0x28
 7915 17dc 01       		.uleb128 0x1
 7916 17dd 51       		.byte	0x51
 7917 17de 09       		.uleb128 0x9
 7918 17df 91       		.byte	0x91
 7919 17e0 8C7F     		.sleb128 -116
 7920 17e2 06       		.byte	0x6
 7921 17e3 79       		.byte	0x79
 7922 17e4 00       		.sleb128 0
 7923 17e5 1C       		.byte	0x1c
 7924 17e6 23       		.byte	0x23
 7925 17e7 01       		.uleb128 0x1
 7926 17e8 28       		.uleb128 0x28
 7927 17e9 01       		.uleb128 0x1
 7928 17ea 52       		.byte	0x52
 7929 17eb 04       		.uleb128 0x4
 7930 17ec 91       		.byte	0x91
 7931 17ed F47E     		.sleb128 -140
 7932 17ef 06       		.byte	0x6
 7933 17f0 28       		.uleb128 0x28
 7934 17f1 02       		.uleb128 0x2
 7935 17f2 7D       		.byte	0x7d
 7936 17f3 00       		.sleb128 0
 7937 17f4 05       		.uleb128 0x5
 7938 17f5 91       		.byte	0x91
 7939 17f6 807F     		.sleb128 -128
 7940 17f8 94       		.byte	0x94
 7941 17f9 01       		.byte	0x1
 7942 17fa 00       		.byte	0
 7943 17fb 32       		.uleb128 0x32
 7944 17fc 8A090000 		.4byte	.LVL226
 7945 1800 02       		.uleb128 0x2
 7946 1801 78       		.byte	0x78
 7947 1802 00       		.sleb128 0
 7948 1803 37180000 		.4byte	0x1837
 7949 1807 28       		.uleb128 0x28
 7950 1808 01       		.uleb128 0x1
 7951 1809 50       		.byte	0x50
 7952 180a 0C       		.uleb128 0xc
 7953 180b 91       		.byte	0x91
 7954 180c 947F     		.sleb128 -108
 7955 180e 06       		.byte	0x6
 7956 180f 74       		.byte	0x74
 7957 1810 00       		.sleb128 0
 7958 1811 22       		.byte	0x22
 7959 1812 91       		.byte	0x91
 7960 1813 9C7F     		.sleb128 -100
 7961 1815 06       		.byte	0x6
ARM GAS  C:\Users\d3bug\AppData\Local\Temp\ccPpCIYA.s 			page 182


 7962 1816 22       		.byte	0x22
 7963 1817 28       		.uleb128 0x28
 7964 1818 01       		.uleb128 0x1
 7965 1819 51       		.byte	0x51
 7966 181a 09       		.uleb128 0x9
 7967 181b 91       		.byte	0x91
 7968 181c 987F     		.sleb128 -104
 7969 181e 06       		.byte	0x6
 7970 181f 79       		.byte	0x79
 7971 1820 00       		.sleb128 0
 7972 1821 22       		.byte	0x22
 7973 1822 31       		.byte	0x31
 7974 1823 1C       		.byte	0x1c
 7975 1824 28       		.uleb128 0x28
 7976 1825 01       		.uleb128 0x1
 7977 1826 52       		.byte	0x52
 7978 1827 04       		.uleb128 0x4
 7979 1828 91       		.byte	0x91
 7980 1829 F47E     		.sleb128 -140
 7981 182b 06       		.byte	0x6
 7982 182c 28       		.uleb128 0x28
 7983 182d 02       		.uleb128 0x2
 7984 182e 7D       		.byte	0x7d
 7985 182f 00       		.sleb128 0
 7986 1830 05       		.uleb128 0x5
 7987 1831 91       		.byte	0x91
 7988 1832 807F     		.sleb128 -128
 7989 1834 94       		.byte	0x94
 7990 1835 01       		.byte	0x1
 7991 1836 00       		.byte	0
 7992 1837 32       		.uleb128 0x32
 7993 1838 B2090000 		.4byte	.LVL227
 7994 183c 02       		.uleb128 0x2
 7995 183d 77       		.byte	0x77
 7996 183e 00       		.sleb128 0
 7997 183f 73180000 		.4byte	0x1873
 7998 1843 28       		.uleb128 0x28
 7999 1844 01       		.uleb128 0x1
 8000 1845 50       		.byte	0x50
 8001 1846 09       		.uleb128 0x9
 8002 1847 91       		.byte	0x91
 8003 1848 907F     		.sleb128 -112
 8004 184a 06       		.byte	0x6
 8005 184b 79       		.byte	0x79
 8006 184c 00       		.sleb128 0
 8007 184d 1C       		.byte	0x1c
 8008 184e 23       		.byte	0x23
 8009 184f 01       		.uleb128 0x1
 8010 1850 28       		.uleb128 0x28
 8011 1851 01       		.uleb128 0x1
 8012 1852 51       		.byte	0x51
 8013 1853 0C       		.uleb128 0xc
 8014 1854 91       		.byte	0x91
 8015 1855 987F     		.sleb128 -104
 8016 1857 06       		.byte	0x6
 8017 1858 74       		.byte	0x74
 8018 1859 00       		.sleb128 0
ARM GAS  C:\Users\d3bug\AppData\Local\Temp\ccPpCIYA.s 			page 183


 8019 185a 22       		.byte	0x22
 8020 185b 91       		.byte	0x91
 8021 185c 9C7F     		.sleb128 -100
 8022 185e 06       		.byte	0x6
 8023 185f 22       		.byte	0x22
 8024 1860 28       		.uleb128 0x28
 8025 1861 01       		.uleb128 0x1
 8026 1862 52       		.byte	0x52
 8027 1863 04       		.uleb128 0x4
 8028 1864 91       		.byte	0x91
 8029 1865 F47E     		.sleb128 -140
 8030 1867 06       		.byte	0x6
 8031 1868 28       		.uleb128 0x28
 8032 1869 02       		.uleb128 0x2
 8033 186a 7D       		.byte	0x7d
 8034 186b 00       		.sleb128 0
 8035 186c 05       		.uleb128 0x5
 8036 186d 91       		.byte	0x91
 8037 186e 807F     		.sleb128 -128
 8038 1870 94       		.byte	0x94
 8039 1871 01       		.byte	0x1
 8040 1872 00       		.byte	0
 8041 1873 32       		.uleb128 0x32
 8042 1874 DA090000 		.4byte	.LVL228
 8043 1878 02       		.uleb128 0x2
 8044 1879 76       		.byte	0x76
 8045 187a 00       		.sleb128 0
 8046 187b AF180000 		.4byte	0x18af
 8047 187f 28       		.uleb128 0x28
 8048 1880 01       		.uleb128 0x1
 8049 1881 50       		.byte	0x50
 8050 1882 0C       		.uleb128 0xc
 8051 1883 91       		.byte	0x91
 8052 1884 907F     		.sleb128 -112
 8053 1886 06       		.byte	0x6
 8054 1887 74       		.byte	0x74
 8055 1888 00       		.sleb128 0
 8056 1889 1C       		.byte	0x1c
 8057 188a 91       		.byte	0x91
 8058 188b 9C7F     		.sleb128 -100
 8059 188d 06       		.byte	0x6
 8060 188e 1C       		.byte	0x1c
 8061 188f 28       		.uleb128 0x28
 8062 1890 01       		.uleb128 0x1
 8063 1891 51       		.byte	0x51
 8064 1892 09       		.uleb128 0x9
 8065 1893 91       		.byte	0x91
 8066 1894 8C7F     		.sleb128 -116
 8067 1896 06       		.byte	0x6
 8068 1897 79       		.byte	0x79
 8069 1898 00       		.sleb128 0
 8070 1899 1C       		.byte	0x1c
 8071 189a 23       		.byte	0x23
 8072 189b 01       		.uleb128 0x1
 8073 189c 28       		.uleb128 0x28
 8074 189d 01       		.uleb128 0x1
 8075 189e 52       		.byte	0x52
ARM GAS  C:\Users\d3bug\AppData\Local\Temp\ccPpCIYA.s 			page 184


 8076 189f 04       		.uleb128 0x4
 8077 18a0 91       		.byte	0x91
 8078 18a1 F47E     		.sleb128 -140
 8079 18a3 06       		.byte	0x6
 8080 18a4 28       		.uleb128 0x28
 8081 18a5 02       		.uleb128 0x2
 8082 18a6 7D       		.byte	0x7d
 8083 18a7 00       		.sleb128 0
 8084 18a8 05       		.uleb128 0x5
 8085 18a9 91       		.byte	0x91
 8086 18aa 807F     		.sleb128 -128
 8087 18ac 94       		.byte	0x94
 8088 18ad 01       		.byte	0x1
 8089 18ae 00       		.byte	0
 8090 18af 27       		.uleb128 0x27
 8091 18b0 040A0000 		.4byte	.LVL229
 8092 18b4 02       		.uleb128 0x2
 8093 18b5 75       		.byte	0x75
 8094 18b6 00       		.sleb128 0
 8095 18b7 28       		.uleb128 0x28
 8096 18b8 01       		.uleb128 0x1
 8097 18b9 50       		.byte	0x50
 8098 18ba 09       		.uleb128 0x9
 8099 18bb 91       		.byte	0x91
 8100 18bc 947F     		.sleb128 -108
 8101 18be 06       		.byte	0x6
 8102 18bf 79       		.byte	0x79
 8103 18c0 00       		.sleb128 0
 8104 18c1 22       		.byte	0x22
 8105 18c2 31       		.byte	0x31
 8106 18c3 1C       		.byte	0x1c
 8107 18c4 28       		.uleb128 0x28
 8108 18c5 01       		.uleb128 0x1
 8109 18c6 51       		.byte	0x51
 8110 18c7 0C       		.uleb128 0xc
 8111 18c8 91       		.byte	0x91
 8112 18c9 8C7F     		.sleb128 -116
 8113 18cb 06       		.byte	0x6
 8114 18cc 74       		.byte	0x74
 8115 18cd 00       		.sleb128 0
 8116 18ce 1C       		.byte	0x1c
 8117 18cf 91       		.byte	0x91
 8118 18d0 9C7F     		.sleb128 -100
 8119 18d2 06       		.byte	0x6
 8120 18d3 1C       		.byte	0x1c
 8121 18d4 28       		.uleb128 0x28
 8122 18d5 01       		.uleb128 0x1
 8123 18d6 52       		.byte	0x52
 8124 18d7 04       		.uleb128 0x4
 8125 18d8 91       		.byte	0x91
 8126 18d9 F47E     		.sleb128 -140
 8127 18db 06       		.byte	0x6
 8128 18dc 28       		.uleb128 0x28
 8129 18dd 02       		.uleb128 0x2
 8130 18de 7D       		.byte	0x7d
 8131 18df 00       		.sleb128 0
 8132 18e0 05       		.uleb128 0x5
ARM GAS  C:\Users\d3bug\AppData\Local\Temp\ccPpCIYA.s 			page 185


 8133 18e1 91       		.byte	0x91
 8134 18e2 807F     		.sleb128 -128
 8135 18e4 94       		.byte	0x94
 8136 18e5 01       		.byte	0x1
 8137 18e6 00       		.byte	0
 8138 18e7 00       		.byte	0
 8139 18e8 29       		.uleb128 0x29
 8140 18e9 5A000000 		.4byte	.LVL120
 8141 18ed 3E060000 		.4byte	0x63e
 8142 18f1 12190000 		.4byte	0x1912
 8143 18f5 28       		.uleb128 0x28
 8144 18f6 01       		.uleb128 0x1
 8145 18f7 50       		.byte	0x50
 8146 18f8 02       		.uleb128 0x2
 8147 18f9 74       		.byte	0x74
 8148 18fa 00       		.sleb128 0
 8149 18fb 28       		.uleb128 0x28
 8150 18fc 01       		.uleb128 0x1
 8151 18fd 51       		.byte	0x51
 8152 18fe 07       		.uleb128 0x7
 8153 18ff 75       		.byte	0x75
 8154 1900 00       		.sleb128 0
 8155 1901 78       		.byte	0x78
 8156 1902 00       		.sleb128 0
 8157 1903 1C       		.byte	0x1c
 8158 1904 23       		.byte	0x23
 8159 1905 01       		.uleb128 0x1
 8160 1906 28       		.uleb128 0x28
 8161 1907 01       		.uleb128 0x1
 8162 1908 52       		.byte	0x52
 8163 1909 07       		.uleb128 0x7
 8164 190a 76       		.byte	0x76
 8165 190b 00       		.sleb128 0
 8166 190c 77       		.byte	0x77
 8167 190d 00       		.sleb128 0
 8168 190e 1C       		.byte	0x1c
 8169 190f 23       		.byte	0x23
 8170 1910 01       		.uleb128 0x1
 8171 1911 00       		.byte	0
 8172 1912 29       		.uleb128 0x29
 8173 1913 96000000 		.4byte	.LVL123
 8174 1917 CD2A0000 		.4byte	0x2acd
 8175 191b 35190000 		.4byte	0x1935
 8176 191f 28       		.uleb128 0x28
 8177 1920 01       		.uleb128 0x1
 8178 1921 50       		.byte	0x50
 8179 1922 02       		.uleb128 0x2
 8180 1923 91       		.byte	0x91
 8181 1924 54       		.sleb128 -44
 8182 1925 28       		.uleb128 0x28
 8183 1926 01       		.uleb128 0x1
 8184 1927 51       		.byte	0x51
 8185 1928 02       		.uleb128 0x2
 8186 1929 91       		.byte	0x91
 8187 192a 52       		.sleb128 -46
 8188 192b 28       		.uleb128 0x28
 8189 192c 01       		.uleb128 0x1
ARM GAS  C:\Users\d3bug\AppData\Local\Temp\ccPpCIYA.s 			page 186


 8190 192d 52       		.byte	0x52
 8191 192e 05       		.uleb128 0x5
 8192 192f 91       		.byte	0x91
 8193 1930 A07F     		.sleb128 -96
 8194 1932 94       		.byte	0x94
 8195 1933 02       		.byte	0x2
 8196 1934 00       		.byte	0
 8197 1935 29       		.uleb128 0x29
 8198 1936 B2000000 		.4byte	.LVL126
 8199 193a CD2A0000 		.4byte	0x2acd
 8200 193e 4F190000 		.4byte	0x194f
 8201 1942 28       		.uleb128 0x28
 8202 1943 01       		.uleb128 0x1
 8203 1944 50       		.byte	0x50
 8204 1945 02       		.uleb128 0x2
 8205 1946 91       		.byte	0x91
 8206 1947 4C       		.sleb128 -52
 8207 1948 28       		.uleb128 0x28
 8208 1949 01       		.uleb128 0x1
 8209 194a 51       		.byte	0x51
 8210 194b 02       		.uleb128 0x2
 8211 194c 91       		.byte	0x91
 8212 194d 4A       		.sleb128 -54
 8213 194e 00       		.byte	0
 8214 194f 32       		.uleb128 0x32
 8215 1950 7E040000 		.4byte	.LVL179
 8216 1954 02       		.uleb128 0x2
 8217 1955 74       		.byte	0x74
 8218 1956 00       		.sleb128 0
 8219 1957 74190000 		.4byte	0x1974
 8220 195b 28       		.uleb128 0x28
 8221 195c 01       		.uleb128 0x1
 8222 195d 50       		.byte	0x50
 8223 195e 02       		.uleb128 0x2
 8224 195f 91       		.byte	0x91
 8225 1960 40       		.sleb128 -64
 8226 1961 28       		.uleb128 0x28
 8227 1962 01       		.uleb128 0x1
 8228 1963 51       		.byte	0x51
 8229 1964 02       		.uleb128 0x2
 8230 1965 77       		.byte	0x77
 8231 1966 00       		.sleb128 0
 8232 1967 28       		.uleb128 0x28
 8233 1968 01       		.uleb128 0x1
 8234 1969 52       		.byte	0x52
 8235 196a 02       		.uleb128 0x2
 8236 196b 78       		.byte	0x78
 8237 196c 00       		.sleb128 0
 8238 196d 28       		.uleb128 0x28
 8239 196e 01       		.uleb128 0x1
 8240 196f 53       		.byte	0x53
 8241 1970 02       		.uleb128 0x2
 8242 1971 79       		.byte	0x79
 8243 1972 00       		.sleb128 0
 8244 1973 00       		.byte	0
 8245 1974 32       		.uleb128 0x32
 8246 1975 AC040000 		.4byte	.LVL180
ARM GAS  C:\Users\d3bug\AppData\Local\Temp\ccPpCIYA.s 			page 187


 8247 1979 02       		.uleb128 0x2
 8248 197a 74       		.byte	0x74
 8249 197b 00       		.sleb128 0
 8250 197c 99190000 		.4byte	0x1999
 8251 1980 28       		.uleb128 0x28
 8252 1981 01       		.uleb128 0x1
 8253 1982 50       		.byte	0x50
 8254 1983 02       		.uleb128 0x2
 8255 1984 91       		.byte	0x91
 8256 1985 40       		.sleb128 -64
 8257 1986 28       		.uleb128 0x28
 8258 1987 01       		.uleb128 0x1
 8259 1988 51       		.byte	0x51
 8260 1989 02       		.uleb128 0x2
 8261 198a 77       		.byte	0x77
 8262 198b 00       		.sleb128 0
 8263 198c 28       		.uleb128 0x28
 8264 198d 01       		.uleb128 0x1
 8265 198e 52       		.byte	0x52
 8266 198f 02       		.uleb128 0x2
 8267 1990 78       		.byte	0x78
 8268 1991 00       		.sleb128 0
 8269 1992 28       		.uleb128 0x28
 8270 1993 01       		.uleb128 0x1
 8271 1994 53       		.byte	0x53
 8272 1995 02       		.uleb128 0x2
 8273 1996 79       		.byte	0x79
 8274 1997 00       		.sleb128 0
 8275 1998 00       		.byte	0
 8276 1999 32       		.uleb128 0x32
 8277 199a F4040000 		.4byte	.LVL182
 8278 199e 02       		.uleb128 0x2
 8279 199f 74       		.byte	0x74
 8280 19a0 00       		.sleb128 0
 8281 19a1 BE190000 		.4byte	0x19be
 8282 19a5 28       		.uleb128 0x28
 8283 19a6 01       		.uleb128 0x1
 8284 19a7 50       		.byte	0x50
 8285 19a8 02       		.uleb128 0x2
 8286 19a9 91       		.byte	0x91
 8287 19aa 40       		.sleb128 -64
 8288 19ab 28       		.uleb128 0x28
 8289 19ac 01       		.uleb128 0x1
 8290 19ad 51       		.byte	0x51
 8291 19ae 02       		.uleb128 0x2
 8292 19af 77       		.byte	0x77
 8293 19b0 00       		.sleb128 0
 8294 19b1 28       		.uleb128 0x28
 8295 19b2 01       		.uleb128 0x1
 8296 19b3 52       		.byte	0x52
 8297 19b4 02       		.uleb128 0x2
 8298 19b5 78       		.byte	0x78
 8299 19b6 00       		.sleb128 0
 8300 19b7 28       		.uleb128 0x28
 8301 19b8 01       		.uleb128 0x1
 8302 19b9 53       		.byte	0x53
 8303 19ba 02       		.uleb128 0x2
ARM GAS  C:\Users\d3bug\AppData\Local\Temp\ccPpCIYA.s 			page 188


 8304 19bb 79       		.byte	0x79
 8305 19bc 00       		.sleb128 0
 8306 19bd 00       		.byte	0
 8307 19be 32       		.uleb128 0x32
 8308 19bf 22050000 		.4byte	.LVL183
 8309 19c3 02       		.uleb128 0x2
 8310 19c4 74       		.byte	0x74
 8311 19c5 00       		.sleb128 0
 8312 19c6 E3190000 		.4byte	0x19e3
 8313 19ca 28       		.uleb128 0x28
 8314 19cb 01       		.uleb128 0x1
 8315 19cc 50       		.byte	0x50
 8316 19cd 02       		.uleb128 0x2
 8317 19ce 91       		.byte	0x91
 8318 19cf 40       		.sleb128 -64
 8319 19d0 28       		.uleb128 0x28
 8320 19d1 01       		.uleb128 0x1
 8321 19d2 51       		.byte	0x51
 8322 19d3 02       		.uleb128 0x2
 8323 19d4 77       		.byte	0x77
 8324 19d5 00       		.sleb128 0
 8325 19d6 28       		.uleb128 0x28
 8326 19d7 01       		.uleb128 0x1
 8327 19d8 52       		.byte	0x52
 8328 19d9 02       		.uleb128 0x2
 8329 19da 78       		.byte	0x78
 8330 19db 00       		.sleb128 0
 8331 19dc 28       		.uleb128 0x28
 8332 19dd 01       		.uleb128 0x1
 8333 19de 53       		.byte	0x53
 8334 19df 02       		.uleb128 0x2
 8335 19e0 79       		.byte	0x79
 8336 19e1 00       		.sleb128 0
 8337 19e2 00       		.byte	0
 8338 19e3 32       		.uleb128 0x32
 8339 19e4 6E050000 		.4byte	.LVL184
 8340 19e8 02       		.uleb128 0x2
 8341 19e9 74       		.byte	0x74
 8342 19ea 00       		.sleb128 0
 8343 19eb 101A0000 		.4byte	0x1a10
 8344 19ef 28       		.uleb128 0x28
 8345 19f0 01       		.uleb128 0x1
 8346 19f1 50       		.byte	0x50
 8347 19f2 02       		.uleb128 0x2
 8348 19f3 91       		.byte	0x91
 8349 19f4 40       		.sleb128 -64
 8350 19f5 28       		.uleb128 0x28
 8351 19f6 01       		.uleb128 0x1
 8352 19f7 51       		.byte	0x51
 8353 19f8 04       		.uleb128 0x4
 8354 19f9 91       		.byte	0x91
 8355 19fa F47E     		.sleb128 -140
 8356 19fc 06       		.byte	0x6
 8357 19fd 28       		.uleb128 0x28
 8358 19fe 01       		.uleb128 0x1
 8359 19ff 52       		.byte	0x52
 8360 1a00 05       		.uleb128 0x5
ARM GAS  C:\Users\d3bug\AppData\Local\Temp\ccPpCIYA.s 			page 189


 8361 1a01 91       		.byte	0x91
 8362 1a02 B77F     		.sleb128 -73
 8363 1a04 94       		.byte	0x94
 8364 1a05 01       		.byte	0x1
 8365 1a06 28       		.uleb128 0x28
 8366 1a07 01       		.uleb128 0x1
 8367 1a08 53       		.byte	0x53
 8368 1a09 05       		.uleb128 0x5
 8369 1a0a 91       		.byte	0x91
 8370 1a0b F87E     		.sleb128 -136
 8371 1a0d 94       		.byte	0x94
 8372 1a0e 01       		.byte	0x1
 8373 1a0f 00       		.byte	0
 8374 1a10 32       		.uleb128 0x32
 8375 1a11 B0050000 		.4byte	.LVL185
 8376 1a15 02       		.uleb128 0x2
 8377 1a16 74       		.byte	0x74
 8378 1a17 00       		.sleb128 0
 8379 1a18 3D1A0000 		.4byte	0x1a3d
 8380 1a1c 28       		.uleb128 0x28
 8381 1a1d 01       		.uleb128 0x1
 8382 1a1e 50       		.byte	0x50
 8383 1a1f 02       		.uleb128 0x2
 8384 1a20 91       		.byte	0x91
 8385 1a21 40       		.sleb128 -64
 8386 1a22 28       		.uleb128 0x28
 8387 1a23 01       		.uleb128 0x1
 8388 1a24 51       		.byte	0x51
 8389 1a25 04       		.uleb128 0x4
 8390 1a26 91       		.byte	0x91
 8391 1a27 F47E     		.sleb128 -140
 8392 1a29 06       		.byte	0x6
 8393 1a2a 28       		.uleb128 0x28
 8394 1a2b 01       		.uleb128 0x1
 8395 1a2c 52       		.byte	0x52
 8396 1a2d 05       		.uleb128 0x5
 8397 1a2e 91       		.byte	0x91
 8398 1a2f B77F     		.sleb128 -73
 8399 1a31 94       		.byte	0x94
 8400 1a32 01       		.byte	0x1
 8401 1a33 28       		.uleb128 0x28
 8402 1a34 01       		.uleb128 0x1
 8403 1a35 53       		.byte	0x53
 8404 1a36 05       		.uleb128 0x5
 8405 1a37 91       		.byte	0x91
 8406 1a38 F87E     		.sleb128 -136
 8407 1a3a 94       		.byte	0x94
 8408 1a3b 01       		.byte	0x1
 8409 1a3c 00       		.byte	0
 8410 1a3d 32       		.uleb128 0x32
 8411 1a3e F0050000 		.4byte	.LVL186
 8412 1a42 02       		.uleb128 0x2
 8413 1a43 74       		.byte	0x74
 8414 1a44 00       		.sleb128 0
 8415 1a45 6A1A0000 		.4byte	0x1a6a
 8416 1a49 28       		.uleb128 0x28
 8417 1a4a 01       		.uleb128 0x1
ARM GAS  C:\Users\d3bug\AppData\Local\Temp\ccPpCIYA.s 			page 190


 8418 1a4b 50       		.byte	0x50
 8419 1a4c 02       		.uleb128 0x2
 8420 1a4d 91       		.byte	0x91
 8421 1a4e 40       		.sleb128 -64
 8422 1a4f 28       		.uleb128 0x28
 8423 1a50 01       		.uleb128 0x1
 8424 1a51 51       		.byte	0x51
 8425 1a52 04       		.uleb128 0x4
 8426 1a53 91       		.byte	0x91
 8427 1a54 F47E     		.sleb128 -140
 8428 1a56 06       		.byte	0x6
 8429 1a57 28       		.uleb128 0x28
 8430 1a58 01       		.uleb128 0x1
 8431 1a59 52       		.byte	0x52
 8432 1a5a 05       		.uleb128 0x5
 8433 1a5b 91       		.byte	0x91
 8434 1a5c B77F     		.sleb128 -73
 8435 1a5e 94       		.byte	0x94
 8436 1a5f 01       		.byte	0x1
 8437 1a60 28       		.uleb128 0x28
 8438 1a61 01       		.uleb128 0x1
 8439 1a62 53       		.byte	0x53
 8440 1a63 05       		.uleb128 0x5
 8441 1a64 91       		.byte	0x91
 8442 1a65 F87E     		.sleb128 -136
 8443 1a67 94       		.byte	0x94
 8444 1a68 01       		.byte	0x1
 8445 1a69 00       		.byte	0
 8446 1a6a 32       		.uleb128 0x32
 8447 1a6b 30060000 		.4byte	.LVL187
 8448 1a6f 02       		.uleb128 0x2
 8449 1a70 74       		.byte	0x74
 8450 1a71 00       		.sleb128 0
 8451 1a72 971A0000 		.4byte	0x1a97
 8452 1a76 28       		.uleb128 0x28
 8453 1a77 01       		.uleb128 0x1
 8454 1a78 50       		.byte	0x50
 8455 1a79 02       		.uleb128 0x2
 8456 1a7a 91       		.byte	0x91
 8457 1a7b 40       		.sleb128 -64
 8458 1a7c 28       		.uleb128 0x28
 8459 1a7d 01       		.uleb128 0x1
 8460 1a7e 51       		.byte	0x51
 8461 1a7f 04       		.uleb128 0x4
 8462 1a80 91       		.byte	0x91
 8463 1a81 F47E     		.sleb128 -140
 8464 1a83 06       		.byte	0x6
 8465 1a84 28       		.uleb128 0x28
 8466 1a85 01       		.uleb128 0x1
 8467 1a86 52       		.byte	0x52
 8468 1a87 05       		.uleb128 0x5
 8469 1a88 91       		.byte	0x91
 8470 1a89 B77F     		.sleb128 -73
 8471 1a8b 94       		.byte	0x94
 8472 1a8c 01       		.byte	0x1
 8473 1a8d 28       		.uleb128 0x28
 8474 1a8e 01       		.uleb128 0x1
ARM GAS  C:\Users\d3bug\AppData\Local\Temp\ccPpCIYA.s 			page 191


 8475 1a8f 53       		.byte	0x53
 8476 1a90 05       		.uleb128 0x5
 8477 1a91 91       		.byte	0x91
 8478 1a92 F87E     		.sleb128 -136
 8479 1a94 94       		.byte	0x94
 8480 1a95 01       		.byte	0x1
 8481 1a96 00       		.byte	0
 8482 1a97 29       		.uleb128 0x29
 8483 1a98 3A060000 		.4byte	.LVL188
 8484 1a9c D82A0000 		.4byte	0x2ad8
 8485 1aa0 B11A0000 		.4byte	0x1ab1
 8486 1aa4 28       		.uleb128 0x28
 8487 1aa5 01       		.uleb128 0x1
 8488 1aa6 50       		.byte	0x50
 8489 1aa7 02       		.uleb128 0x2
 8490 1aa8 91       		.byte	0x91
 8491 1aa9 54       		.sleb128 -44
 8492 1aaa 28       		.uleb128 0x28
 8493 1aab 01       		.uleb128 0x1
 8494 1aac 51       		.byte	0x51
 8495 1aad 02       		.uleb128 0x2
 8496 1aae 91       		.byte	0x91
 8497 1aaf 52       		.sleb128 -46
 8498 1ab0 00       		.byte	0
 8499 1ab1 36       		.uleb128 0x36
 8500 1ab2 50060000 		.4byte	.LVL189
 8501 1ab6 D82A0000 		.4byte	0x2ad8
 8502 1aba 28       		.uleb128 0x28
 8503 1abb 01       		.uleb128 0x1
 8504 1abc 50       		.byte	0x50
 8505 1abd 02       		.uleb128 0x2
 8506 1abe 91       		.byte	0x91
 8507 1abf 4C       		.sleb128 -52
 8508 1ac0 28       		.uleb128 0x28
 8509 1ac1 01       		.uleb128 0x1
 8510 1ac2 51       		.byte	0x51
 8511 1ac3 02       		.uleb128 0x2
 8512 1ac4 91       		.byte	0x91
 8513 1ac5 4A       		.sleb128 -54
 8514 1ac6 00       		.byte	0
 8515 1ac7 00       		.byte	0
 8516 1ac8 1B       		.uleb128 0x1b
 8517 1ac9 1C040000 		.4byte	.LASF136
 8518 1acd 01       		.byte	0x1
 8519 1ace AB       		.byte	0xab
 8520 1acf 00000000 		.4byte	.LFB14
 8521 1ad3 C0090000 		.4byte	.LFE14-.LFB14
 8522 1ad7 01       		.uleb128 0x1
 8523 1ad8 9C       		.byte	0x9c
 8524 1ad9 3D290000 		.4byte	0x293d
 8525 1add 1C       		.uleb128 0x1c
 8526 1ade 9F050000 		.4byte	.LASF94
 8527 1ae2 01       		.byte	0x1
 8528 1ae3 AB       		.byte	0xab
 8529 1ae4 B0050000 		.4byte	0x5b0
 8530 1ae8 420B0000 		.4byte	.LLST64
 8531 1aec 1C       		.uleb128 0x1c
ARM GAS  C:\Users\d3bug\AppData\Local\Temp\ccPpCIYA.s 			page 192


 8532 1aed 9B040000 		.4byte	.LASF95
 8533 1af1 01       		.byte	0x1
 8534 1af2 AB       		.byte	0xab
 8535 1af3 B0050000 		.4byte	0x5b0
 8536 1af7 6F0B0000 		.4byte	.LLST65
 8537 1afb 1C       		.uleb128 0x1c
 8538 1afc FA060000 		.4byte	.LASF96
 8539 1b00 01       		.byte	0x1
 8540 1b01 AB       		.byte	0xab
 8541 1b02 BB050000 		.4byte	0x5bb
 8542 1b06 9C0B0000 		.4byte	.LLST66
 8543 1b0a 1C       		.uleb128 0x1c
 8544 1b0b 9C060000 		.4byte	.LASF97
 8545 1b0f 01       		.byte	0x1
 8546 1b10 AB       		.byte	0xab
 8547 1b11 75010000 		.4byte	0x175
 8548 1b15 D40B0000 		.4byte	.LLST67
 8549 1b19 1D       		.uleb128 0x1d
 8550 1b1a 95060000 		.4byte	.LASF73
 8551 1b1e 01       		.byte	0x1
 8552 1b1f AD       		.byte	0xad
 8553 1b20 AD000000 		.4byte	0xad
 8554 1b24 0E0C0000 		.4byte	.LLST68
 8555 1b28 1D       		.uleb128 0x1d
 8556 1b29 EF010000 		.4byte	.LASF98
 8557 1b2d 01       		.byte	0x1
 8558 1b2e AF       		.byte	0xaf
 8559 1b2f 6A010000 		.4byte	0x16a
 8560 1b33 5E0C0000 		.4byte	.LLST69
 8561 1b37 1E       		.uleb128 0x1e
 8562 1b38 34050000 		.4byte	.LASF99
 8563 1b3c 01       		.byte	0x1
 8564 1b3d B0       		.byte	0xb0
 8565 1b3e 6A010000 		.4byte	0x16a
 8566 1b42 1E       		.uleb128 0x1e
 8567 1b43 AB060000 		.4byte	.LASF104
 8568 1b47 01       		.byte	0x1
 8569 1b48 B1       		.byte	0xb1
 8570 1b49 6A010000 		.4byte	0x16a
 8571 1b4d 1F       		.uleb128 0x1f
 8572 1b4e 6F706100 		.ascii	"opa\000"
 8573 1b52 01       		.byte	0x1
 8574 1b53 B2       		.byte	0xb2
 8575 1b54 75010000 		.4byte	0x175
 8576 1b58 B30C0000 		.4byte	.LLST70
 8577 1b5c 1F       		.uleb128 0x1f
 8578 1b5d 6D697800 		.ascii	"mix\000"
 8579 1b61 01       		.byte	0x1
 8580 1b62 B3       		.byte	0xb3
 8581 1b63 97000000 		.4byte	0x97
 8582 1b67 D50C0000 		.4byte	.LLST71
 8583 1b6b 1E       		.uleb128 0x1e
 8584 1b6c B1040000 		.4byte	.LASF100
 8585 1b70 01       		.byte	0x1
 8586 1b71 B4       		.byte	0xb4
 8587 1b72 95010000 		.4byte	0x195
 8588 1b76 1E       		.uleb128 0x1e
ARM GAS  C:\Users\d3bug\AppData\Local\Temp\ccPpCIYA.s 			page 193


 8589 1b77 EB020000 		.4byte	.LASF67
 8590 1b7b 01       		.byte	0x1
 8591 1b7c B5       		.byte	0xb5
 8592 1b7d 95010000 		.4byte	0x195
 8593 1b81 20       		.uleb128 0x20
 8594 1b82 35040000 		.4byte	.LASF115
 8595 1b86 01       		.byte	0x1
 8596 1b87 B9       		.byte	0xb9
 8597 1b88 BD010000 		.4byte	0x1bd
 8598 1b8c 02       		.uleb128 0x2
 8599 1b8d 91       		.byte	0x91
 8600 1b8e 54       		.sleb128 -44
 8601 1b8f 20       		.uleb128 0x20
 8602 1b90 C5030000 		.4byte	.LASF116
 8603 1b94 01       		.byte	0x1
 8604 1b95 BA       		.byte	0xba
 8605 1b96 BD010000 		.4byte	0x1bd
 8606 1b9a 02       		.uleb128 0x2
 8607 1b9b 91       		.byte	0x91
 8608 1b9c 50       		.sleb128 -48
 8609 1b9d 20       		.uleb128 0x20
 8610 1b9e 2B050000 		.4byte	.LASF117
 8611 1ba2 01       		.byte	0x1
 8612 1ba3 BB       		.byte	0xbb
 8613 1ba4 BD010000 		.4byte	0x1bd
 8614 1ba8 02       		.uleb128 0x2
 8615 1ba9 91       		.byte	0x91
 8616 1baa 4C       		.sleb128 -52
 8617 1bab 20       		.uleb128 0x20
 8618 1bac C5040000 		.4byte	.LASF118
 8619 1bb0 01       		.byte	0x1
 8620 1bb1 BC       		.byte	0xbc
 8621 1bb2 BD010000 		.4byte	0x1bd
 8622 1bb6 02       		.uleb128 0x2
 8623 1bb7 91       		.byte	0x91
 8624 1bb8 48       		.sleb128 -56
 8625 1bb9 20       		.uleb128 0x20
 8626 1bba 4D010000 		.4byte	.LASF137
 8627 1bbe 01       		.byte	0x1
 8628 1bbf CA       		.byte	0xca
 8629 1bc0 FD010000 		.4byte	0x1fd
 8630 1bc4 02       		.uleb128 0x2
 8631 1bc5 91       		.byte	0x91
 8632 1bc6 40       		.sleb128 -64
 8633 1bc7 20       		.uleb128 0x20
 8634 1bc8 7C060000 		.4byte	.LASF138
 8635 1bcc 01       		.byte	0x1
 8636 1bcd CB       		.byte	0xcb
 8637 1bce FD010000 		.4byte	0x1fd
 8638 1bd2 03       		.uleb128 0x3
 8639 1bd3 91       		.byte	0x91
 8640 1bd4 B87F     		.sleb128 -72
 8641 1bd6 20       		.uleb128 0x20
 8642 1bd7 E7050000 		.4byte	.LASF139
 8643 1bdb 01       		.byte	0x1
 8644 1bdc CC       		.byte	0xcc
 8645 1bdd FD010000 		.4byte	0x1fd
ARM GAS  C:\Users\d3bug\AppData\Local\Temp\ccPpCIYA.s 			page 194


 8646 1be1 03       		.uleb128 0x3
 8647 1be2 91       		.byte	0x91
 8648 1be3 B07F     		.sleb128 -80
 8649 1be5 20       		.uleb128 0x20
 8650 1be6 31010000 		.4byte	.LASF140
 8651 1bea 01       		.byte	0x1
 8652 1beb CD       		.byte	0xcd
 8653 1bec FD010000 		.4byte	0x1fd
 8654 1bf0 03       		.uleb128 0x3
 8655 1bf1 91       		.byte	0x91
 8656 1bf2 A87F     		.sleb128 -88
 8657 1bf4 37       		.uleb128 0x37
 8658 1bf5 63697200 		.ascii	"cir\000"
 8659 1bf9 01       		.byte	0x1
 8660 1bfa CF       		.byte	0xcf
 8661 1bfb BD010000 		.4byte	0x1bd
 8662 1bff 03       		.uleb128 0x3
 8663 1c00 91       		.byte	0x91
 8664 1c01 A47F     		.sleb128 -92
 8665 1c03 20       		.uleb128 0x20
 8666 1c04 D9040000 		.4byte	.LASF141
 8667 1c08 01       		.byte	0x1
 8668 1c09 D0       		.byte	0xd0
 8669 1c0a 95010000 		.4byte	0x195
 8670 1c0e 03       		.uleb128 0x3
 8671 1c0f 91       		.byte	0x91
 8672 1c10 A27F     		.sleb128 -94
 8673 1c12 1D       		.uleb128 0x1d
 8674 1c13 97000000 		.4byte	.LASF127
 8675 1c17 01       		.byte	0x1
 8676 1c18 E9       		.byte	0xe9
 8677 1c19 95010000 		.4byte	0x195
 8678 1c1d 02120000 		.4byte	.LLST72
 8679 1c21 1D       		.uleb128 0x1d
 8680 1c22 37030000 		.4byte	.LASF128
 8681 1c26 01       		.byte	0x1
 8682 1c27 EA       		.byte	0xea
 8683 1c28 95010000 		.4byte	0x195
 8684 1c2c 4A120000 		.4byte	.LLST73
 8685 1c30 1D       		.uleb128 0x1d
 8686 1c31 26010000 		.4byte	.LASF129
 8687 1c35 01       		.byte	0x1
 8688 1c36 EB       		.byte	0xeb
 8689 1c37 95010000 		.4byte	0x195
 8690 1c3b 8E120000 		.4byte	.LLST74
 8691 1c3f 1E       		.uleb128 0x1e
 8692 1c40 12000000 		.4byte	.LASF142
 8693 1c44 01       		.byte	0x1
 8694 1c45 ED       		.byte	0xed
 8695 1c46 6A010000 		.4byte	0x16a
 8696 1c4a 1E       		.uleb128 0x1e
 8697 1c4b 89010000 		.4byte	.LASF143
 8698 1c4f 01       		.byte	0x1
 8699 1c50 EE       		.byte	0xee
 8700 1c51 6A010000 		.4byte	0x16a
 8701 1c55 1E       		.uleb128 0x1e
 8702 1c56 F4050000 		.4byte	.LASF144
ARM GAS  C:\Users\d3bug\AppData\Local\Temp\ccPpCIYA.s 			page 195


 8703 1c5a 01       		.byte	0x1
 8704 1c5b EF       		.byte	0xef
 8705 1c5c 6A010000 		.4byte	0x16a
 8706 1c60 2C       		.uleb128 0x2c
 8707 1c61 F1060000 		.4byte	.LASF133
 8708 1c65 01       		.byte	0x1
 8709 1c66 9B01     		.2byte	0x19b
 8710 1c68 95010000 		.4byte	0x195
 8711 1c6c B0120000 		.4byte	.LLST75
 8712 1c70 2D       		.uleb128 0x2d
 8713 1c71 12030000 		.4byte	.LASF134
 8714 1c75 01       		.byte	0x1
 8715 1c76 9C01     		.2byte	0x19c
 8716 1c78 BD010000 		.4byte	0x1bd
 8717 1c7c 2E       		.uleb128 0x2e
 8718 1c7d 6900     		.ascii	"i\000"
 8719 1c7f 01       		.byte	0x1
 8720 1c80 A501     		.2byte	0x1a5
 8721 1c82 95010000 		.4byte	0x195
 8722 1c86 D2120000 		.4byte	.LLST76
 8723 1c8a 21       		.uleb128 0x21
 8724 1c8b E2050000 		.4byte	0x5e2
 8725 1c8f 38000000 		.4byte	.LBB96
 8726 1c93 10000000 		.4byte	.LBE96-.LBB96
 8727 1c97 01       		.byte	0x1
 8728 1c98 B4       		.byte	0xb4
 8729 1c99 A71C0000 		.4byte	0x1ca7
 8730 1c9d 22       		.uleb128 0x22
 8731 1c9e F2050000 		.4byte	0x5f2
 8732 1ca2 14130000 		.4byte	.LLST77
 8733 1ca6 00       		.byte	0
 8734 1ca7 21       		.uleb128 0x21
 8735 1ca8 C6050000 		.4byte	0x5c6
 8736 1cac 48000000 		.4byte	.LBB98
 8737 1cb0 08000000 		.4byte	.LBE98-.LBB98
 8738 1cb4 01       		.byte	0x1
 8739 1cb5 B5       		.byte	0xb5
 8740 1cb6 C41C0000 		.4byte	0x1cc4
 8741 1cba 22       		.uleb128 0x22
 8742 1cbb D6050000 		.4byte	0x5d6
 8743 1cbf 29130000 		.4byte	.LLST78
 8744 1cc3 00       		.byte	0
 8745 1cc4 23       		.uleb128 0x23
 8746 1cc5 2E010000 		.4byte	.LBB100
 8747 1cc9 5A040000 		.4byte	.LBE100-.LBB100
 8748 1ccd 62220000 		.4byte	0x2262
 8749 1cd1 2C       		.uleb128 0x2c
 8750 1cd2 39000000 		.4byte	.LASF145
 8751 1cd6 01       		.byte	0x1
 8752 1cd7 1D01     		.2byte	0x11d
 8753 1cd9 97000000 		.4byte	0x97
 8754 1cdd 3E130000 		.4byte	.LLST79
 8755 1ce1 2C       		.uleb128 0x2c
 8756 1ce2 71040000 		.4byte	.LASF146
 8757 1ce6 01       		.byte	0x1
 8758 1ce7 1E01     		.2byte	0x11e
 8759 1ce9 97000000 		.4byte	0x97
ARM GAS  C:\Users\d3bug\AppData\Local\Temp\ccPpCIYA.s 			page 196


 8760 1ced 5D130000 		.4byte	.LLST80
 8761 1cf1 2C       		.uleb128 0x2c
 8762 1cf2 90030000 		.4byte	.LASF147
 8763 1cf6 01       		.byte	0x1
 8764 1cf7 1F01     		.2byte	0x11f
 8765 1cf9 97000000 		.4byte	0x97
 8766 1cfd 7C130000 		.4byte	.LLST81
 8767 1d01 2C       		.uleb128 0x2c
 8768 1d02 78070000 		.4byte	.LASF148
 8769 1d06 01       		.byte	0x1
 8770 1d07 2001     		.2byte	0x120
 8771 1d09 97000000 		.4byte	0x97
 8772 1d0d 9B130000 		.4byte	.LLST82
 8773 1d11 23       		.uleb128 0x23
 8774 1d12 3A010000 		.4byte	.LBB101
 8775 1d16 02020000 		.4byte	.LBE101-.LBB101
 8776 1d1a 69200000 		.4byte	0x2069
 8777 1d1e 1D       		.uleb128 0x1d
 8778 1d1f F1060000 		.4byte	.LASF133
 8779 1d23 01       		.byte	0x1
 8780 1d24 F7       		.byte	0xf7
 8781 1d25 95010000 		.4byte	0x195
 8782 1d29 BA130000 		.4byte	.LLST83
 8783 1d2d 1E       		.uleb128 0x1e
 8784 1d2e 12030000 		.4byte	.LASF134
 8785 1d32 01       		.byte	0x1
 8786 1d33 F8       		.byte	0xf8
 8787 1d34 BD010000 		.4byte	0x1bd
 8788 1d38 2E       		.uleb128 0x2e
 8789 1d39 6900     		.ascii	"i\000"
 8790 1d3b 01       		.byte	0x1
 8791 1d3c 0101     		.2byte	0x101
 8792 1d3e 95010000 		.4byte	0x195
 8793 1d42 CF130000 		.4byte	.LLST84
 8794 1d46 21       		.uleb128 0x21
 8795 1d47 FE050000 		.4byte	0x5fe
 8796 1d4b 5E010000 		.4byte	.LBB102
 8797 1d4f 22000000 		.4byte	.LBE102-.LBB102
 8798 1d53 01       		.byte	0x1
 8799 1d54 FE       		.byte	0xfe
 8800 1d55 801D0000 		.4byte	0x1d80
 8801 1d59 22       		.uleb128 0x22
 8802 1d5a 25060000 		.4byte	0x625
 8803 1d5e 11140000 		.4byte	.LLST85
 8804 1d62 24       		.uleb128 0x24
 8805 1d63 1A060000 		.4byte	0x61a
 8806 1d67 24       		.uleb128 0x24
 8807 1d68 0F060000 		.4byte	0x60f
 8808 1d6c 25       		.uleb128 0x25
 8809 1d6d 5E010000 		.4byte	.LBB103
 8810 1d71 22000000 		.4byte	.LBE103-.LBB103
 8811 1d75 26       		.uleb128 0x26
 8812 1d76 31060000 		.4byte	0x631
 8813 1d7a 24140000 		.4byte	.LLST86
 8814 1d7e 00       		.byte	0
 8815 1d7f 00       		.byte	0
 8816 1d80 21       		.uleb128 0x21
ARM GAS  C:\Users\d3bug\AppData\Local\Temp\ccPpCIYA.s 			page 197


 8817 1d81 FE050000 		.4byte	0x5fe
 8818 1d85 80010000 		.4byte	.LBB104
 8819 1d89 20000000 		.4byte	.LBE104-.LBB104
 8820 1d8d 01       		.byte	0x1
 8821 1d8e FF       		.byte	0xff
 8822 1d8f BA1D0000 		.4byte	0x1dba
 8823 1d93 22       		.uleb128 0x22
 8824 1d94 25060000 		.4byte	0x625
 8825 1d98 4D140000 		.4byte	.LLST87
 8826 1d9c 24       		.uleb128 0x24
 8827 1d9d 1A060000 		.4byte	0x61a
 8828 1da1 24       		.uleb128 0x24
 8829 1da2 0F060000 		.4byte	0x60f
 8830 1da6 25       		.uleb128 0x25
 8831 1da7 80010000 		.4byte	.LBB105
 8832 1dab 20000000 		.4byte	.LBE105-.LBB105
 8833 1daf 26       		.uleb128 0x26
 8834 1db0 31060000 		.4byte	0x631
 8835 1db4 82140000 		.4byte	.LLST88
 8836 1db8 00       		.byte	0
 8837 1db9 00       		.byte	0
 8838 1dba 25       		.uleb128 0x25
 8839 1dbb AC010000 		.4byte	.LBB106
 8840 1dbf 76010000 		.4byte	.LBE106-.LBB106
 8841 1dc3 2C       		.uleb128 0x2c
 8842 1dc4 16060000 		.4byte	.LASF135
 8843 1dc8 01       		.byte	0x1
 8844 1dc9 0301     		.2byte	0x103
 8845 1dcb 75010000 		.4byte	0x175
 8846 1dcf AB140000 		.4byte	.LLST89
 8847 1dd3 30       		.uleb128 0x30
 8848 1dd4 FE050000 		.4byte	0x5fe
 8849 1dd8 82020000 		.4byte	.LBB107
 8850 1ddc 18000000 		.4byte	.LBE107-.LBB107
 8851 1de0 01       		.byte	0x1
 8852 1de1 1001     		.2byte	0x110
 8853 1de3 0E1E0000 		.4byte	0x1e0e
 8854 1de7 22       		.uleb128 0x22
 8855 1de8 25060000 		.4byte	0x625
 8856 1dec C9140000 		.4byte	.LLST90
 8857 1df0 24       		.uleb128 0x24
 8858 1df1 1A060000 		.4byte	0x61a
 8859 1df5 24       		.uleb128 0x24
 8860 1df6 0F060000 		.4byte	0x60f
 8861 1dfa 25       		.uleb128 0x25
 8862 1dfb 82020000 		.4byte	.LBB108
 8863 1dff 18000000 		.4byte	.LBE108-.LBB108
 8864 1e03 26       		.uleb128 0x26
 8865 1e04 31060000 		.4byte	0x631
 8866 1e08 DC140000 		.4byte	.LLST91
 8867 1e0c 00       		.byte	0
 8868 1e0d 00       		.byte	0
 8869 1e0e 30       		.uleb128 0x30
 8870 1e0f FE050000 		.4byte	0x5fe
 8871 1e13 D2020000 		.4byte	.LBB109
 8872 1e17 16000000 		.4byte	.LBE109-.LBB109
 8873 1e1b 01       		.byte	0x1
ARM GAS  C:\Users\d3bug\AppData\Local\Temp\ccPpCIYA.s 			page 198


 8874 1e1c 1401     		.2byte	0x114
 8875 1e1e 491E0000 		.4byte	0x1e49
 8876 1e22 22       		.uleb128 0x22
 8877 1e23 25060000 		.4byte	0x625
 8878 1e27 31150000 		.4byte	.LLST92
 8879 1e2b 24       		.uleb128 0x24
 8880 1e2c 1A060000 		.4byte	0x61a
 8881 1e30 24       		.uleb128 0x24
 8882 1e31 0F060000 		.4byte	0x60f
 8883 1e35 25       		.uleb128 0x25
 8884 1e36 D2020000 		.4byte	.LBB110
 8885 1e3a 16000000 		.4byte	.LBE110-.LBB110
 8886 1e3e 26       		.uleb128 0x26
 8887 1e3f 31060000 		.4byte	0x631
 8888 1e43 44150000 		.4byte	.LLST93
 8889 1e47 00       		.byte	0
 8890 1e48 00       		.byte	0
 8891 1e49 29       		.uleb128 0x29
 8892 1e4a BC010000 		.4byte	.LVL272
 8893 1e4e 500C0000 		.4byte	0xc50
 8894 1e52 6F1E0000 		.4byte	0x1e6f
 8895 1e56 28       		.uleb128 0x28
 8896 1e57 01       		.uleb128 0x1
 8897 1e58 50       		.byte	0x50
 8898 1e59 05       		.uleb128 0x5
 8899 1e5a 91       		.byte	0x91
 8900 1e5b 887E     		.sleb128 -248
 8901 1e5d 94       		.byte	0x94
 8902 1e5e 02       		.byte	0x2
 8903 1e5f 28       		.uleb128 0x28
 8904 1e60 01       		.uleb128 0x1
 8905 1e61 51       		.byte	0x51
 8906 1e62 02       		.uleb128 0x2
 8907 1e63 75       		.byte	0x75
 8908 1e64 00       		.sleb128 0
 8909 1e65 28       		.uleb128 0x28
 8910 1e66 01       		.uleb128 0x1
 8911 1e67 52       		.byte	0x52
 8912 1e68 05       		.uleb128 0x5
 8913 1e69 91       		.byte	0x91
 8914 1e6a BC7E     		.sleb128 -196
 8915 1e6c 94       		.byte	0x94
 8916 1e6d 01       		.byte	0x1
 8917 1e6e 00       		.byte	0
 8918 1e6f 29       		.uleb128 0x29
 8919 1e70 CC010000 		.4byte	.LVL277
 8920 1e74 C22A0000 		.4byte	0x2ac2
 8921 1e78 921E0000 		.4byte	0x1e92
 8922 1e7c 28       		.uleb128 0x28
 8923 1e7d 01       		.uleb128 0x1
 8924 1e7e 50       		.byte	0x50
 8925 1e7f 05       		.uleb128 0x5
 8926 1e80 91       		.byte	0x91
 8927 1e81 887E     		.sleb128 -248
 8928 1e83 94       		.byte	0x94
 8929 1e84 02       		.byte	0x2
 8930 1e85 28       		.uleb128 0x28
ARM GAS  C:\Users\d3bug\AppData\Local\Temp\ccPpCIYA.s 			page 199


 8931 1e86 01       		.uleb128 0x1
 8932 1e87 51       		.byte	0x51
 8933 1e88 02       		.uleb128 0x2
 8934 1e89 75       		.byte	0x75
 8935 1e8a 00       		.sleb128 0
 8936 1e8b 28       		.uleb128 0x28
 8937 1e8c 01       		.uleb128 0x1
 8938 1e8d 52       		.byte	0x52
 8939 1e8e 02       		.uleb128 0x2
 8940 1e8f 74       		.byte	0x74
 8941 1e90 00       		.sleb128 0
 8942 1e91 00       		.byte	0
 8943 1e92 32       		.uleb128 0x32
 8944 1e93 00020000 		.4byte	.LVL280
 8945 1e97 02       		.uleb128 0x2
 8946 1e98 77       		.byte	0x77
 8947 1e99 00       		.sleb128 0
 8948 1e9a D21E0000 		.4byte	0x1ed2
 8949 1e9e 28       		.uleb128 0x28
 8950 1e9f 01       		.uleb128 0x1
 8951 1ea0 50       		.byte	0x50
 8952 1ea1 0A       		.uleb128 0xa
 8953 1ea2 74       		.byte	0x74
 8954 1ea3 00       		.sleb128 0
 8955 1ea4 7B       		.byte	0x7b
 8956 1ea5 00       		.sleb128 0
 8957 1ea6 22       		.byte	0x22
 8958 1ea7 91       		.byte	0x91
 8959 1ea8 8C7E     		.sleb128 -244
 8960 1eaa 06       		.byte	0x6
 8961 1eab 22       		.byte	0x22
 8962 1eac 28       		.uleb128 0x28
 8963 1ead 01       		.uleb128 0x1
 8964 1eae 51       		.byte	0x51
 8965 1eaf 09       		.uleb128 0x9
 8966 1eb0 91       		.byte	0x91
 8967 1eb1 907E     		.sleb128 -240
 8968 1eb3 06       		.byte	0x6
 8969 1eb4 78       		.byte	0x78
 8970 1eb5 00       		.sleb128 0
 8971 1eb6 22       		.byte	0x22
 8972 1eb7 23       		.byte	0x23
 8973 1eb8 01       		.uleb128 0x1
 8974 1eb9 28       		.uleb128 0x28
 8975 1eba 01       		.uleb128 0x1
 8976 1ebb 52       		.byte	0x52
 8977 1ebc 04       		.uleb128 0x4
 8978 1ebd 91       		.byte	0x91
 8979 1ebe 847E     		.sleb128 -252
 8980 1ec0 06       		.byte	0x6
 8981 1ec1 28       		.uleb128 0x28
 8982 1ec2 01       		.uleb128 0x1
 8983 1ec3 53       		.byte	0x53
 8984 1ec4 05       		.uleb128 0x5
 8985 1ec5 91       		.byte	0x91
 8986 1ec6 9C7F     		.sleb128 -100
 8987 1ec8 94       		.byte	0x94
ARM GAS  C:\Users\d3bug\AppData\Local\Temp\ccPpCIYA.s 			page 200


 8988 1ec9 01       		.byte	0x1
 8989 1eca 28       		.uleb128 0x28
 8990 1ecb 02       		.uleb128 0x2
 8991 1ecc 7D       		.byte	0x7d
 8992 1ecd 00       		.sleb128 0
 8993 1ece 02       		.uleb128 0x2
 8994 1ecf 76       		.byte	0x76
 8995 1ed0 00       		.sleb128 0
 8996 1ed1 00       		.byte	0
 8997 1ed2 32       		.uleb128 0x32
 8998 1ed3 24020000 		.4byte	.LVL281
 8999 1ed7 02       		.uleb128 0x2
 9000 1ed8 77       		.byte	0x77
 9001 1ed9 00       		.sleb128 0
 9002 1eda 121F0000 		.4byte	0x1f12
 9003 1ede 28       		.uleb128 0x28
 9004 1edf 01       		.uleb128 0x1
 9005 1ee0 50       		.byte	0x50
 9006 1ee1 0A       		.uleb128 0xa
 9007 1ee2 91       		.byte	0x91
 9008 1ee3 947E     		.sleb128 -236
 9009 1ee5 06       		.byte	0x6
 9010 1ee6 74       		.byte	0x74
 9011 1ee7 00       		.sleb128 0
 9012 1ee8 1C       		.byte	0x1c
 9013 1ee9 7B       		.byte	0x7b
 9014 1eea 00       		.sleb128 0
 9015 1eeb 1C       		.byte	0x1c
 9016 1eec 28       		.uleb128 0x28
 9017 1eed 01       		.uleb128 0x1
 9018 1eee 51       		.byte	0x51
 9019 1eef 09       		.uleb128 0x9
 9020 1ef0 78       		.byte	0x78
 9021 1ef1 00       		.sleb128 0
 9022 1ef2 91       		.byte	0x91
 9023 1ef3 987E     		.sleb128 -232
 9024 1ef5 06       		.byte	0x6
 9025 1ef6 22       		.byte	0x22
 9026 1ef7 23       		.byte	0x23
 9027 1ef8 01       		.uleb128 0x1
 9028 1ef9 28       		.uleb128 0x28
 9029 1efa 01       		.uleb128 0x1
 9030 1efb 52       		.byte	0x52
 9031 1efc 04       		.uleb128 0x4
 9032 1efd 91       		.byte	0x91
 9033 1efe 847E     		.sleb128 -252
 9034 1f00 06       		.byte	0x6
 9035 1f01 28       		.uleb128 0x28
 9036 1f02 01       		.uleb128 0x1
 9037 1f03 53       		.byte	0x53
 9038 1f04 05       		.uleb128 0x5
 9039 1f05 91       		.byte	0x91
 9040 1f06 9C7F     		.sleb128 -100
 9041 1f08 94       		.byte	0x94
 9042 1f09 01       		.byte	0x1
 9043 1f0a 28       		.uleb128 0x28
 9044 1f0b 02       		.uleb128 0x2
ARM GAS  C:\Users\d3bug\AppData\Local\Temp\ccPpCIYA.s 			page 201


 9045 1f0c 7D       		.byte	0x7d
 9046 1f0d 00       		.sleb128 0
 9047 1f0e 02       		.uleb128 0x2
 9048 1f0f 76       		.byte	0x76
 9049 1f10 00       		.sleb128 0
 9050 1f11 00       		.byte	0
 9051 1f12 32       		.uleb128 0x32
 9052 1f13 4A020000 		.4byte	.LVL282
 9053 1f17 02       		.uleb128 0x2
 9054 1f18 77       		.byte	0x77
 9055 1f19 00       		.sleb128 0
 9056 1f1a 511F0000 		.4byte	0x1f51
 9057 1f1e 28       		.uleb128 0x28
 9058 1f1f 01       		.uleb128 0x1
 9059 1f20 50       		.byte	0x50
 9060 1f21 0A       		.uleb128 0xa
 9061 1f22 91       		.byte	0x91
 9062 1f23 9C7E     		.sleb128 -228
 9063 1f25 06       		.byte	0x6
 9064 1f26 74       		.byte	0x74
 9065 1f27 00       		.sleb128 0
 9066 1f28 1C       		.byte	0x1c
 9067 1f29 7B       		.byte	0x7b
 9068 1f2a 00       		.sleb128 0
 9069 1f2b 1C       		.byte	0x1c
 9070 1f2c 28       		.uleb128 0x28
 9071 1f2d 01       		.uleb128 0x1
 9072 1f2e 51       		.byte	0x51
 9073 1f2f 08       		.uleb128 0x8
 9074 1f30 78       		.byte	0x78
 9075 1f31 00       		.sleb128 0
 9076 1f32 20       		.byte	0x20
 9077 1f33 91       		.byte	0x91
 9078 1f34 A07E     		.sleb128 -224
 9079 1f36 06       		.byte	0x6
 9080 1f37 22       		.byte	0x22
 9081 1f38 28       		.uleb128 0x28
 9082 1f39 01       		.uleb128 0x1
 9083 1f3a 52       		.byte	0x52
 9084 1f3b 04       		.uleb128 0x4
 9085 1f3c 91       		.byte	0x91
 9086 1f3d 847E     		.sleb128 -252
 9087 1f3f 06       		.byte	0x6
 9088 1f40 28       		.uleb128 0x28
 9089 1f41 01       		.uleb128 0x1
 9090 1f42 53       		.byte	0x53
 9091 1f43 05       		.uleb128 0x5
 9092 1f44 91       		.byte	0x91
 9093 1f45 9D7F     		.sleb128 -99
 9094 1f47 94       		.byte	0x94
 9095 1f48 01       		.byte	0x1
 9096 1f49 28       		.uleb128 0x28
 9097 1f4a 02       		.uleb128 0x2
 9098 1f4b 7D       		.byte	0x7d
 9099 1f4c 00       		.sleb128 0
 9100 1f4d 02       		.uleb128 0x2
 9101 1f4e 76       		.byte	0x76
ARM GAS  C:\Users\d3bug\AppData\Local\Temp\ccPpCIYA.s 			page 202


 9102 1f4f 00       		.sleb128 0
 9103 1f50 00       		.byte	0
 9104 1f51 32       		.uleb128 0x32
 9105 1f52 70020000 		.4byte	.LVL283
 9106 1f56 02       		.uleb128 0x2
 9107 1f57 77       		.byte	0x77
 9108 1f58 00       		.sleb128 0
 9109 1f59 901F0000 		.4byte	0x1f90
 9110 1f5d 28       		.uleb128 0x28
 9111 1f5e 01       		.uleb128 0x1
 9112 1f5f 50       		.byte	0x50
 9113 1f60 0A       		.uleb128 0xa
 9114 1f61 74       		.byte	0x74
 9115 1f62 00       		.sleb128 0
 9116 1f63 7B       		.byte	0x7b
 9117 1f64 00       		.sleb128 0
 9118 1f65 22       		.byte	0x22
 9119 1f66 91       		.byte	0x91
 9120 1f67 A47E     		.sleb128 -220
 9121 1f69 06       		.byte	0x6
 9122 1f6a 22       		.byte	0x22
 9123 1f6b 28       		.uleb128 0x28
 9124 1f6c 01       		.uleb128 0x1
 9125 1f6d 51       		.byte	0x51
 9126 1f6e 08       		.uleb128 0x8
 9127 1f6f 78       		.byte	0x78
 9128 1f70 00       		.sleb128 0
 9129 1f71 20       		.byte	0x20
 9130 1f72 91       		.byte	0x91
 9131 1f73 B87E     		.sleb128 -200
 9132 1f75 06       		.byte	0x6
 9133 1f76 22       		.byte	0x22
 9134 1f77 28       		.uleb128 0x28
 9135 1f78 01       		.uleb128 0x1
 9136 1f79 52       		.byte	0x52
 9137 1f7a 04       		.uleb128 0x4
 9138 1f7b 91       		.byte	0x91
 9139 1f7c 847E     		.sleb128 -252
 9140 1f7e 06       		.byte	0x6
 9141 1f7f 28       		.uleb128 0x28
 9142 1f80 01       		.uleb128 0x1
 9143 1f81 53       		.byte	0x53
 9144 1f82 05       		.uleb128 0x5
 9145 1f83 91       		.byte	0x91
 9146 1f84 9D7F     		.sleb128 -99
 9147 1f86 94       		.byte	0x94
 9148 1f87 01       		.byte	0x1
 9149 1f88 28       		.uleb128 0x28
 9150 1f89 02       		.uleb128 0x2
 9151 1f8a 7D       		.byte	0x7d
 9152 1f8b 00       		.sleb128 0
 9153 1f8c 02       		.uleb128 0x2
 9154 1f8d 76       		.byte	0x76
 9155 1f8e 00       		.sleb128 0
 9156 1f8f 00       		.byte	0
 9157 1f90 38       		.uleb128 0x38
 9158 1f91 B6020000 		.4byte	.LVL287
ARM GAS  C:\Users\d3bug\AppData\Local\Temp\ccPpCIYA.s 			page 203


 9159 1f95 CA1F0000 		.4byte	0x1fca
 9160 1f99 28       		.uleb128 0x28
 9161 1f9a 01       		.uleb128 0x1
 9162 1f9b 50       		.byte	0x50
 9163 1f9c 09       		.uleb128 0x9
 9164 1f9d 91       		.byte	0x91
 9165 1f9e 8C7E     		.sleb128 -244
 9166 1fa0 06       		.byte	0x6
 9167 1fa1 78       		.byte	0x78
 9168 1fa2 00       		.sleb128 0
 9169 1fa3 22       		.byte	0x22
 9170 1fa4 23       		.byte	0x23
 9171 1fa5 01       		.uleb128 0x1
 9172 1fa6 28       		.uleb128 0x28
 9173 1fa7 01       		.uleb128 0x1
 9174 1fa8 51       		.byte	0x51
 9175 1fa9 0A       		.uleb128 0xa
 9176 1faa 91       		.byte	0x91
 9177 1fab 907E     		.sleb128 -240
 9178 1fad 06       		.byte	0x6
 9179 1fae 74       		.byte	0x74
 9180 1faf 00       		.sleb128 0
 9181 1fb0 22       		.byte	0x22
 9182 1fb1 7B       		.byte	0x7b
 9183 1fb2 00       		.sleb128 0
 9184 1fb3 22       		.byte	0x22
 9185 1fb4 28       		.uleb128 0x28
 9186 1fb5 01       		.uleb128 0x1
 9187 1fb6 52       		.byte	0x52
 9188 1fb7 04       		.uleb128 0x4
 9189 1fb8 91       		.byte	0x91
 9190 1fb9 847E     		.sleb128 -252
 9191 1fbb 06       		.byte	0x6
 9192 1fbc 28       		.uleb128 0x28
 9193 1fbd 01       		.uleb128 0x1
 9194 1fbe 53       		.byte	0x53
 9195 1fbf 02       		.uleb128 0x2
 9196 1fc0 79       		.byte	0x79
 9197 1fc1 00       		.sleb128 0
 9198 1fc2 28       		.uleb128 0x28
 9199 1fc3 02       		.uleb128 0x2
 9200 1fc4 7D       		.byte	0x7d
 9201 1fc5 00       		.sleb128 0
 9202 1fc6 02       		.uleb128 0x2
 9203 1fc7 76       		.byte	0x76
 9204 1fc8 00       		.sleb128 0
 9205 1fc9 00       		.byte	0
 9206 1fca 38       		.uleb128 0x38
 9207 1fcb D2020000 		.4byte	.LVL288
 9208 1fcf 03200000 		.4byte	0x2003
 9209 1fd3 28       		.uleb128 0x28
 9210 1fd4 01       		.uleb128 0x1
 9211 1fd5 50       		.byte	0x50
 9212 1fd6 08       		.uleb128 0x8
 9213 1fd7 78       		.byte	0x78
 9214 1fd8 00       		.sleb128 0
 9215 1fd9 20       		.byte	0x20
ARM GAS  C:\Users\d3bug\AppData\Local\Temp\ccPpCIYA.s 			page 204


 9216 1fda 91       		.byte	0x91
 9217 1fdb 947E     		.sleb128 -236
 9218 1fdd 06       		.byte	0x6
 9219 1fde 22       		.byte	0x22
 9220 1fdf 28       		.uleb128 0x28
 9221 1fe0 01       		.uleb128 0x1
 9222 1fe1 51       		.byte	0x51
 9223 1fe2 0A       		.uleb128 0xa
 9224 1fe3 91       		.byte	0x91
 9225 1fe4 987E     		.sleb128 -232
 9226 1fe6 06       		.byte	0x6
 9227 1fe7 74       		.byte	0x74
 9228 1fe8 00       		.sleb128 0
 9229 1fe9 22       		.byte	0x22
 9230 1fea 7B       		.byte	0x7b
 9231 1feb 00       		.sleb128 0
 9232 1fec 22       		.byte	0x22
 9233 1fed 28       		.uleb128 0x28
 9234 1fee 01       		.uleb128 0x1
 9235 1fef 52       		.byte	0x52
 9236 1ff0 04       		.uleb128 0x4
 9237 1ff1 91       		.byte	0x91
 9238 1ff2 847E     		.sleb128 -252
 9239 1ff4 06       		.byte	0x6
 9240 1ff5 28       		.uleb128 0x28
 9241 1ff6 01       		.uleb128 0x1
 9242 1ff7 53       		.byte	0x53
 9243 1ff8 02       		.uleb128 0x2
 9244 1ff9 79       		.byte	0x79
 9245 1ffa 00       		.sleb128 0
 9246 1ffb 28       		.uleb128 0x28
 9247 1ffc 02       		.uleb128 0x2
 9248 1ffd 7D       		.byte	0x7d
 9249 1ffe 00       		.sleb128 0
 9250 1fff 02       		.uleb128 0x2
 9251 2000 76       		.byte	0x76
 9252 2001 00       		.sleb128 0
 9253 2002 00       		.byte	0
 9254 2003 38       		.uleb128 0x38
 9255 2004 06030000 		.4byte	.LVL291
 9256 2008 3A200000 		.4byte	0x203a
 9257 200c 28       		.uleb128 0x28
 9258 200d 01       		.uleb128 0x1
 9259 200e 50       		.byte	0x50
 9260 200f 08       		.uleb128 0x8
 9261 2010 78       		.byte	0x78
 9262 2011 00       		.sleb128 0
 9263 2012 20       		.byte	0x20
 9264 2013 91       		.byte	0x91
 9265 2014 9C7E     		.sleb128 -228
 9266 2016 06       		.byte	0x6
 9267 2017 22       		.byte	0x22
 9268 2018 28       		.uleb128 0x28
 9269 2019 01       		.uleb128 0x1
 9270 201a 51       		.byte	0x51
 9271 201b 0A       		.uleb128 0xa
 9272 201c 91       		.byte	0x91
ARM GAS  C:\Users\d3bug\AppData\Local\Temp\ccPpCIYA.s 			page 205


 9273 201d A07E     		.sleb128 -224
 9274 201f 06       		.byte	0x6
 9275 2020 74       		.byte	0x74
 9276 2021 00       		.sleb128 0
 9277 2022 1C       		.byte	0x1c
 9278 2023 7B       		.byte	0x7b
 9279 2024 00       		.sleb128 0
 9280 2025 1C       		.byte	0x1c
 9281 2026 28       		.uleb128 0x28
 9282 2027 01       		.uleb128 0x1
 9283 2028 52       		.byte	0x52
 9284 2029 02       		.uleb128 0x2
 9285 202a 75       		.byte	0x75
 9286 202b 00       		.sleb128 0
 9287 202c 28       		.uleb128 0x28
 9288 202d 01       		.uleb128 0x1
 9289 202e 53       		.byte	0x53
 9290 202f 02       		.uleb128 0x2
 9291 2030 7A       		.byte	0x7a
 9292 2031 00       		.sleb128 0
 9293 2032 28       		.uleb128 0x28
 9294 2033 02       		.uleb128 0x2
 9295 2034 7D       		.byte	0x7d
 9296 2035 00       		.sleb128 0
 9297 2036 02       		.uleb128 0x2
 9298 2037 76       		.byte	0x76
 9299 2038 00       		.sleb128 0
 9300 2039 00       		.byte	0
 9301 203a 39       		.uleb128 0x39
 9302 203b 22030000 		.4byte	.LVL292
 9303 203f 28       		.uleb128 0x28
 9304 2040 01       		.uleb128 0x1
 9305 2041 50       		.byte	0x50
 9306 2042 02       		.uleb128 0x2
 9307 2043 78       		.byte	0x78
 9308 2044 01       		.sleb128 1
 9309 2045 28       		.uleb128 0x28
 9310 2046 01       		.uleb128 0x1
 9311 2047 51       		.byte	0x51
 9312 2048 0A       		.uleb128 0xa
 9313 2049 91       		.byte	0x91
 9314 204a B87E     		.sleb128 -200
 9315 204c 06       		.byte	0x6
 9316 204d 74       		.byte	0x74
 9317 204e 00       		.sleb128 0
 9318 204f 1C       		.byte	0x1c
 9319 2050 7B       		.byte	0x7b
 9320 2051 00       		.sleb128 0
 9321 2052 1C       		.byte	0x1c
 9322 2053 28       		.uleb128 0x28
 9323 2054 01       		.uleb128 0x1
 9324 2055 52       		.byte	0x52
 9325 2056 02       		.uleb128 0x2
 9326 2057 75       		.byte	0x75
 9327 2058 00       		.sleb128 0
 9328 2059 28       		.uleb128 0x28
 9329 205a 01       		.uleb128 0x1
ARM GAS  C:\Users\d3bug\AppData\Local\Temp\ccPpCIYA.s 			page 206


 9330 205b 53       		.byte	0x53
 9331 205c 02       		.uleb128 0x2
 9332 205d 7A       		.byte	0x7a
 9333 205e 00       		.sleb128 0
 9334 205f 28       		.uleb128 0x28
 9335 2060 02       		.uleb128 0x2
 9336 2061 7D       		.byte	0x7d
 9337 2062 00       		.sleb128 0
 9338 2063 02       		.uleb128 0x2
 9339 2064 76       		.byte	0x76
 9340 2065 00       		.sleb128 0
 9341 2066 00       		.byte	0
 9342 2067 00       		.byte	0
 9343 2068 00       		.byte	0
 9344 2069 30       		.uleb128 0x30
 9345 206a FE050000 		.4byte	0x5fe
 9346 206e B4030000 		.4byte	.LBB111
 9347 2072 1E000000 		.4byte	.LBE111-.LBB111
 9348 2076 01       		.byte	0x1
 9349 2077 3101     		.2byte	0x131
 9350 2079 A4200000 		.4byte	0x20a4
 9351 207d 22       		.uleb128 0x22
 9352 207e 25060000 		.4byte	0x625
 9353 2082 83150000 		.4byte	.LLST94
 9354 2086 24       		.uleb128 0x24
 9355 2087 1A060000 		.4byte	0x61a
 9356 208b 24       		.uleb128 0x24
 9357 208c 0F060000 		.4byte	0x60f
 9358 2090 25       		.uleb128 0x25
 9359 2091 B4030000 		.4byte	.LBB112
 9360 2095 1E000000 		.4byte	.LBE112-.LBB112
 9361 2099 26       		.uleb128 0x26
 9362 209a 31060000 		.4byte	0x631
 9363 209e C4150000 		.4byte	.LLST95
 9364 20a2 00       		.byte	0
 9365 20a3 00       		.byte	0
 9366 20a4 30       		.uleb128 0x30
 9367 20a5 FE050000 		.4byte	0x5fe
 9368 20a9 06040000 		.4byte	.LBB113
 9369 20ad 1E000000 		.4byte	.LBE113-.LBB113
 9370 20b1 01       		.byte	0x1
 9371 20b2 3A01     		.2byte	0x13a
 9372 20b4 DF200000 		.4byte	0x20df
 9373 20b8 22       		.uleb128 0x22
 9374 20b9 25060000 		.4byte	0x625
 9375 20bd D7150000 		.4byte	.LLST96
 9376 20c1 24       		.uleb128 0x24
 9377 20c2 1A060000 		.4byte	0x61a
 9378 20c6 24       		.uleb128 0x24
 9379 20c7 0F060000 		.4byte	0x60f
 9380 20cb 25       		.uleb128 0x25
 9381 20cc 06040000 		.4byte	.LBB114
 9382 20d0 1E000000 		.4byte	.LBE114-.LBB114
 9383 20d4 26       		.uleb128 0x26
 9384 20d5 31060000 		.4byte	0x631
 9385 20d9 7E160000 		.4byte	.LLST97
 9386 20dd 00       		.byte	0
ARM GAS  C:\Users\d3bug\AppData\Local\Temp\ccPpCIYA.s 			page 207


 9387 20de 00       		.byte	0
 9388 20df 30       		.uleb128 0x30
 9389 20e0 FE050000 		.4byte	0x5fe
 9390 20e4 58040000 		.4byte	.LBB115
 9391 20e8 28000000 		.4byte	.LBE115-.LBB115
 9392 20ec 01       		.byte	0x1
 9393 20ed 4301     		.2byte	0x143
 9394 20ef 1A210000 		.4byte	0x211a
 9395 20f3 22       		.uleb128 0x22
 9396 20f4 25060000 		.4byte	0x625
 9397 20f8 91160000 		.4byte	.LLST98
 9398 20fc 24       		.uleb128 0x24
 9399 20fd 1A060000 		.4byte	0x61a
 9400 2101 24       		.uleb128 0x24
 9401 2102 0F060000 		.4byte	0x60f
 9402 2106 25       		.uleb128 0x25
 9403 2107 58040000 		.4byte	.LBB116
 9404 210b 28000000 		.4byte	.LBE116-.LBB116
 9405 210f 26       		.uleb128 0x26
 9406 2110 31060000 		.4byte	0x631
 9407 2114 38170000 		.4byte	.LLST99
 9408 2118 00       		.byte	0
 9409 2119 00       		.byte	0
 9410 211a 30       		.uleb128 0x30
 9411 211b FE050000 		.4byte	0x5fe
 9412 211f B4040000 		.4byte	.LBB117
 9413 2123 1E000000 		.4byte	.LBE117-.LBB117
 9414 2127 01       		.byte	0x1
 9415 2128 4D01     		.2byte	0x14d
 9416 212a 55210000 		.4byte	0x2155
 9417 212e 22       		.uleb128 0x22
 9418 212f 25060000 		.4byte	0x625
 9419 2133 4B170000 		.4byte	.LLST100
 9420 2137 24       		.uleb128 0x24
 9421 2138 1A060000 		.4byte	0x61a
 9422 213c 24       		.uleb128 0x24
 9423 213d 0F060000 		.4byte	0x60f
 9424 2141 25       		.uleb128 0x25
 9425 2142 B4040000 		.4byte	.LBB118
 9426 2146 1E000000 		.4byte	.LBE118-.LBB118
 9427 214a 26       		.uleb128 0x26
 9428 214b 31060000 		.4byte	0x631
 9429 214f F2170000 		.4byte	.LLST101
 9430 2153 00       		.byte	0
 9431 2154 00       		.byte	0
 9432 2155 32       		.uleb128 0x32
 9433 2156 DE030000 		.4byte	.LVL313
 9434 215a 02       		.uleb128 0x2
 9435 215b 76       		.byte	0x76
 9436 215c 00       		.sleb128 0
 9437 215d 79210000 		.4byte	0x2179
 9438 2161 28       		.uleb128 0x28
 9439 2162 01       		.uleb128 0x1
 9440 2163 50       		.byte	0x50
 9441 2164 02       		.uleb128 0x2
 9442 2165 91       		.byte	0x91
 9443 2166 40       		.sleb128 -64
ARM GAS  C:\Users\d3bug\AppData\Local\Temp\ccPpCIYA.s 			page 208


 9444 2167 28       		.uleb128 0x28
 9445 2168 01       		.uleb128 0x1
 9446 2169 51       		.byte	0x51
 9447 216a 04       		.uleb128 0x4
 9448 216b 91       		.byte	0x91
 9449 216c 847E     		.sleb128 -252
 9450 216e 06       		.byte	0x6
 9451 216f 28       		.uleb128 0x28
 9452 2170 01       		.uleb128 0x1
 9453 2171 53       		.byte	0x53
 9454 2172 05       		.uleb128 0x5
 9455 2173 91       		.byte	0x91
 9456 2174 BC7E     		.sleb128 -196
 9457 2176 94       		.byte	0x94
 9458 2177 01       		.byte	0x1
 9459 2178 00       		.byte	0
 9460 2179 32       		.uleb128 0x32
 9461 217a 30040000 		.4byte	.LVL324
 9462 217e 02       		.uleb128 0x2
 9463 217f 75       		.byte	0x75
 9464 2180 00       		.sleb128 0
 9465 2181 9E210000 		.4byte	0x219e
 9466 2185 28       		.uleb128 0x28
 9467 2186 01       		.uleb128 0x1
 9468 2187 50       		.byte	0x50
 9469 2188 03       		.uleb128 0x3
 9470 2189 91       		.byte	0x91
 9471 218a B87F     		.sleb128 -72
 9472 218c 28       		.uleb128 0x28
 9473 218d 01       		.uleb128 0x1
 9474 218e 51       		.byte	0x51
 9475 218f 04       		.uleb128 0x4
 9476 2190 91       		.byte	0x91
 9477 2191 847E     		.sleb128 -252
 9478 2193 06       		.byte	0x6
 9479 2194 28       		.uleb128 0x28
 9480 2195 01       		.uleb128 0x1
 9481 2196 53       		.byte	0x53
 9482 2197 05       		.uleb128 0x5
 9483 2198 91       		.byte	0x91
 9484 2199 BC7E     		.sleb128 -196
 9485 219b 94       		.byte	0x94
 9486 219c 01       		.byte	0x1
 9487 219d 00       		.byte	0
 9488 219e 32       		.uleb128 0x32
 9489 219f 8C040000 		.4byte	.LVL335
 9490 21a3 02       		.uleb128 0x2
 9491 21a4 74       		.byte	0x74
 9492 21a5 00       		.sleb128 0
 9493 21a6 C3210000 		.4byte	0x21c3
 9494 21aa 28       		.uleb128 0x28
 9495 21ab 01       		.uleb128 0x1
 9496 21ac 50       		.byte	0x50
 9497 21ad 03       		.uleb128 0x3
 9498 21ae 91       		.byte	0x91
 9499 21af B07F     		.sleb128 -80
 9500 21b1 28       		.uleb128 0x28
ARM GAS  C:\Users\d3bug\AppData\Local\Temp\ccPpCIYA.s 			page 209


 9501 21b2 01       		.uleb128 0x1
 9502 21b3 51       		.byte	0x51
 9503 21b4 04       		.uleb128 0x4
 9504 21b5 91       		.byte	0x91
 9505 21b6 847E     		.sleb128 -252
 9506 21b8 06       		.byte	0x6
 9507 21b9 28       		.uleb128 0x28
 9508 21ba 01       		.uleb128 0x1
 9509 21bb 53       		.byte	0x53
 9510 21bc 05       		.uleb128 0x5
 9511 21bd 91       		.byte	0x91
 9512 21be BC7E     		.sleb128 -196
 9513 21c0 94       		.byte	0x94
 9514 21c1 01       		.byte	0x1
 9515 21c2 00       		.byte	0
 9516 21c3 32       		.uleb128 0x32
 9517 21c4 DE040000 		.4byte	.LVL345
 9518 21c8 02       		.uleb128 0x2
 9519 21c9 74       		.byte	0x74
 9520 21ca 00       		.sleb128 0
 9521 21cb E8210000 		.4byte	0x21e8
 9522 21cf 28       		.uleb128 0x28
 9523 21d0 01       		.uleb128 0x1
 9524 21d1 50       		.byte	0x50
 9525 21d2 03       		.uleb128 0x3
 9526 21d3 91       		.byte	0x91
 9527 21d4 A87F     		.sleb128 -88
 9528 21d6 28       		.uleb128 0x28
 9529 21d7 01       		.uleb128 0x1
 9530 21d8 51       		.byte	0x51
 9531 21d9 04       		.uleb128 0x4
 9532 21da 91       		.byte	0x91
 9533 21db 847E     		.sleb128 -252
 9534 21dd 06       		.byte	0x6
 9535 21de 28       		.uleb128 0x28
 9536 21df 01       		.uleb128 0x1
 9537 21e0 53       		.byte	0x53
 9538 21e1 05       		.uleb128 0x5
 9539 21e2 91       		.byte	0x91
 9540 21e3 BC7E     		.sleb128 -196
 9541 21e5 94       		.byte	0x94
 9542 21e6 01       		.byte	0x1
 9543 21e7 00       		.byte	0
 9544 21e8 29       		.uleb128 0x29
 9545 21e9 0E050000 		.4byte	.LVL347
 9546 21ed E32A0000 		.4byte	0x2ae3
 9547 21f1 FD210000 		.4byte	0x21fd
 9548 21f5 28       		.uleb128 0x28
 9549 21f6 01       		.uleb128 0x1
 9550 21f7 50       		.byte	0x50
 9551 21f8 03       		.uleb128 0x3
 9552 21f9 91       		.byte	0x91
 9553 21fa B07F     		.sleb128 -80
 9554 21fc 00       		.byte	0
 9555 21fd 29       		.uleb128 0x29
 9556 21fe 2E050000 		.4byte	.LVL348
 9557 2202 E32A0000 		.4byte	0x2ae3
ARM GAS  C:\Users\d3bug\AppData\Local\Temp\ccPpCIYA.s 			page 210


 9558 2206 19220000 		.4byte	0x2219
 9559 220a 28       		.uleb128 0x28
 9560 220b 01       		.uleb128 0x1
 9561 220c 50       		.byte	0x50
 9562 220d 03       		.uleb128 0x3
 9563 220e 91       		.byte	0x91
 9564 220f A87F     		.sleb128 -88
 9565 2211 28       		.uleb128 0x28
 9566 2212 02       		.uleb128 0x2
 9567 2213 7D       		.byte	0x7d
 9568 2214 00       		.sleb128 0
 9569 2215 02       		.uleb128 0x2
 9570 2216 76       		.byte	0x76
 9571 2217 00       		.sleb128 0
 9572 2218 00       		.byte	0
 9573 2219 29       		.uleb128 0x29
 9574 221a 5E050000 		.4byte	.LVL349
 9575 221e E32A0000 		.4byte	0x2ae3
 9576 2222 2E220000 		.4byte	0x222e
 9577 2226 28       		.uleb128 0x28
 9578 2227 01       		.uleb128 0x1
 9579 2228 50       		.byte	0x50
 9580 2229 03       		.uleb128 0x3
 9581 222a 91       		.byte	0x91
 9582 222b B87F     		.sleb128 -72
 9583 222d 00       		.byte	0
 9584 222e 29       		.uleb128 0x29
 9585 222f 7E050000 		.4byte	.LVL350
 9586 2233 E32A0000 		.4byte	0x2ae3
 9587 2237 49220000 		.4byte	0x2249
 9588 223b 28       		.uleb128 0x28
 9589 223c 01       		.uleb128 0x1
 9590 223d 50       		.byte	0x50
 9591 223e 02       		.uleb128 0x2
 9592 223f 91       		.byte	0x91
 9593 2240 40       		.sleb128 -64
 9594 2241 28       		.uleb128 0x28
 9595 2242 02       		.uleb128 0x2
 9596 2243 7D       		.byte	0x7d
 9597 2244 00       		.sleb128 0
 9598 2245 02       		.uleb128 0x2
 9599 2246 74       		.byte	0x74
 9600 2247 00       		.sleb128 0
 9601 2248 00       		.byte	0
 9602 2249 36       		.uleb128 0x36
 9603 224a 88050000 		.4byte	.LVL351
 9604 224e D82A0000 		.4byte	0x2ad8
 9605 2252 28       		.uleb128 0x28
 9606 2253 01       		.uleb128 0x1
 9607 2254 50       		.byte	0x50
 9608 2255 03       		.uleb128 0x3
 9609 2256 91       		.byte	0x91
 9610 2257 A47F     		.sleb128 -92
 9611 2259 28       		.uleb128 0x28
 9612 225a 01       		.uleb128 0x1
 9613 225b 51       		.byte	0x51
 9614 225c 03       		.uleb128 0x3
ARM GAS  C:\Users\d3bug\AppData\Local\Temp\ccPpCIYA.s 			page 211


 9615 225d 91       		.byte	0x91
 9616 225e A27F     		.sleb128 -94
 9617 2260 00       		.byte	0
 9618 2261 00       		.byte	0
 9619 2262 30       		.uleb128 0x30
 9620 2263 FE050000 		.4byte	0x5fe
 9621 2267 B8050000 		.4byte	.LBB119
 9622 226b 14000000 		.4byte	.LBE119-.LBB119
 9623 226f 01       		.byte	0x1
 9624 2270 6D01     		.2byte	0x16d
 9625 2272 99220000 		.4byte	0x2299
 9626 2276 22       		.uleb128 0x22
 9627 2277 25060000 		.4byte	0x625
 9628 227b 05180000 		.4byte	.LLST102
 9629 227f 24       		.uleb128 0x24
 9630 2280 1A060000 		.4byte	0x61a
 9631 2284 24       		.uleb128 0x24
 9632 2285 0F060000 		.4byte	0x60f
 9633 2289 25       		.uleb128 0x25
 9634 228a B8050000 		.4byte	.LBB120
 9635 228e 14000000 		.4byte	.LBE120-.LBB120
 9636 2292 3A       		.uleb128 0x3a
 9637 2293 31060000 		.4byte	0x631
 9638 2297 00       		.byte	0
 9639 2298 00       		.byte	0
 9640 2299 30       		.uleb128 0x30
 9641 229a FE050000 		.4byte	0x5fe
 9642 229e 08060000 		.4byte	.LBB121
 9643 22a2 14000000 		.4byte	.LBE121-.LBB121
 9644 22a6 01       		.byte	0x1
 9645 22a7 7601     		.2byte	0x176
 9646 22a9 D0220000 		.4byte	0x22d0
 9647 22ad 22       		.uleb128 0x22
 9648 22ae 25060000 		.4byte	0x625
 9649 22b2 A9180000 		.4byte	.LLST103
 9650 22b6 24       		.uleb128 0x24
 9651 22b7 1A060000 		.4byte	0x61a
 9652 22bb 24       		.uleb128 0x24
 9653 22bc 0F060000 		.4byte	0x60f
 9654 22c0 25       		.uleb128 0x25
 9655 22c1 08060000 		.4byte	.LBB122
 9656 22c5 14000000 		.4byte	.LBE122-.LBB122
 9657 22c9 3A       		.uleb128 0x3a
 9658 22ca 31060000 		.4byte	0x631
 9659 22ce 00       		.byte	0
 9660 22cf 00       		.byte	0
 9661 22d0 30       		.uleb128 0x30
 9662 22d1 FE050000 		.4byte	0x5fe
 9663 22d5 4C060000 		.4byte	.LBB123
 9664 22d9 14000000 		.4byte	.LBE123-.LBB123
 9665 22dd 01       		.byte	0x1
 9666 22de 7E01     		.2byte	0x17e
 9667 22e0 07230000 		.4byte	0x2307
 9668 22e4 22       		.uleb128 0x22
 9669 22e5 25060000 		.4byte	0x625
 9670 22e9 50190000 		.4byte	.LLST104
 9671 22ed 24       		.uleb128 0x24
ARM GAS  C:\Users\d3bug\AppData\Local\Temp\ccPpCIYA.s 			page 212


 9672 22ee 1A060000 		.4byte	0x61a
 9673 22f2 24       		.uleb128 0x24
 9674 22f3 0F060000 		.4byte	0x60f
 9675 22f7 25       		.uleb128 0x25
 9676 22f8 4C060000 		.4byte	.LBB124
 9677 22fc 14000000 		.4byte	.LBE124-.LBB124
 9678 2300 3A       		.uleb128 0x3a
 9679 2301 31060000 		.4byte	0x631
 9680 2305 00       		.byte	0
 9681 2306 00       		.byte	0
 9682 2307 30       		.uleb128 0x30
 9683 2308 FE050000 		.4byte	0x5fe
 9684 230c 9C060000 		.4byte	.LBB125
 9685 2310 14000000 		.4byte	.LBE125-.LBB125
 9686 2314 01       		.byte	0x1
 9687 2315 8701     		.2byte	0x187
 9688 2317 3E230000 		.4byte	0x233e
 9689 231b 22       		.uleb128 0x22
 9690 231c 25060000 		.4byte	0x625
 9691 2320 F7190000 		.4byte	.LLST105
 9692 2324 24       		.uleb128 0x24
 9693 2325 1A060000 		.4byte	0x61a
 9694 2329 24       		.uleb128 0x24
 9695 232a 0F060000 		.4byte	0x60f
 9696 232e 25       		.uleb128 0x25
 9697 232f 9C060000 		.4byte	.LBB126
 9698 2333 14000000 		.4byte	.LBE126-.LBB126
 9699 2337 3A       		.uleb128 0x3a
 9700 2338 31060000 		.4byte	0x631
 9701 233c 00       		.byte	0
 9702 233d 00       		.byte	0
 9703 233e 30       		.uleb128 0x30
 9704 233f FE050000 		.4byte	0x5fe
 9705 2343 36070000 		.4byte	.LBB127
 9706 2347 18000000 		.4byte	.LBE127-.LBB127
 9707 234b 01       		.byte	0x1
 9708 234c A201     		.2byte	0x1a2
 9709 234e 75230000 		.4byte	0x2375
 9710 2352 22       		.uleb128 0x22
 9711 2353 25060000 		.4byte	0x625
 9712 2357 9E1A0000 		.4byte	.LLST106
 9713 235b 24       		.uleb128 0x24
 9714 235c 1A060000 		.4byte	0x61a
 9715 2360 24       		.uleb128 0x24
 9716 2361 0F060000 		.4byte	0x60f
 9717 2365 25       		.uleb128 0x25
 9718 2366 36070000 		.4byte	.LBB128
 9719 236a 18000000 		.4byte	.LBE128-.LBB128
 9720 236e 3A       		.uleb128 0x3a
 9721 236f 31060000 		.4byte	0x631
 9722 2373 00       		.byte	0
 9723 2374 00       		.byte	0
 9724 2375 30       		.uleb128 0x30
 9725 2376 FE050000 		.4byte	0x5fe
 9726 237a 4E070000 		.4byte	.LBB129
 9727 237e 1C000000 		.4byte	.LBE129-.LBB129
 9728 2382 01       		.byte	0x1
ARM GAS  C:\Users\d3bug\AppData\Local\Temp\ccPpCIYA.s 			page 213


 9729 2383 A301     		.2byte	0x1a3
 9730 2385 AC230000 		.4byte	0x23ac
 9731 2389 22       		.uleb128 0x22
 9732 238a 25060000 		.4byte	0x625
 9733 238e B11A0000 		.4byte	.LLST107
 9734 2392 24       		.uleb128 0x24
 9735 2393 1A060000 		.4byte	0x61a
 9736 2397 24       		.uleb128 0x24
 9737 2398 0F060000 		.4byte	0x60f
 9738 239c 25       		.uleb128 0x25
 9739 239d 4E070000 		.4byte	.LBB130
 9740 23a1 1C000000 		.4byte	.LBE130-.LBB130
 9741 23a5 3A       		.uleb128 0x3a
 9742 23a6 31060000 		.4byte	0x631
 9743 23aa 00       		.byte	0
 9744 23ab 00       		.byte	0
 9745 23ac 23       		.uleb128 0x23
 9746 23ad 7A070000 		.4byte	.LBB131
 9747 23b1 62010000 		.4byte	.LBE131-.LBB131
 9748 23b5 38260000 		.4byte	0x2638
 9749 23b9 2C       		.uleb128 0x2c
 9750 23ba 16060000 		.4byte	.LASF135
 9751 23be 01       		.byte	0x1
 9752 23bf A701     		.2byte	0x1a7
 9753 23c1 75010000 		.4byte	0x175
 9754 23c5 E41A0000 		.4byte	.LLST108
 9755 23c9 30       		.uleb128 0x30
 9756 23ca FE050000 		.4byte	0x5fe
 9757 23ce 3C080000 		.4byte	.LBB132
 9758 23d2 18000000 		.4byte	.LBE132-.LBB132
 9759 23d6 01       		.byte	0x1
 9760 23d7 AE01     		.2byte	0x1ae
 9761 23d9 04240000 		.4byte	0x2404
 9762 23dd 22       		.uleb128 0x22
 9763 23de 25060000 		.4byte	0x625
 9764 23e2 F71A0000 		.4byte	.LLST109
 9765 23e6 24       		.uleb128 0x24
 9766 23e7 1A060000 		.4byte	0x61a
 9767 23eb 24       		.uleb128 0x24
 9768 23ec 0F060000 		.4byte	0x60f
 9769 23f0 25       		.uleb128 0x25
 9770 23f1 3C080000 		.4byte	.LBB133
 9771 23f5 18000000 		.4byte	.LBE133-.LBB133
 9772 23f9 26       		.uleb128 0x26
 9773 23fa 31060000 		.4byte	0x631
 9774 23fe 0A1B0000 		.4byte	.LLST110
 9775 2402 00       		.byte	0
 9776 2403 00       		.byte	0
 9777 2404 30       		.uleb128 0x30
 9778 2405 FE050000 		.4byte	0x5fe
 9779 2409 8C080000 		.4byte	.LBB134
 9780 240d 16000000 		.4byte	.LBE134-.LBB134
 9781 2411 01       		.byte	0x1
 9782 2412 B201     		.2byte	0x1b2
 9783 2414 3F240000 		.4byte	0x243f
 9784 2418 22       		.uleb128 0x22
 9785 2419 25060000 		.4byte	0x625
ARM GAS  C:\Users\d3bug\AppData\Local\Temp\ccPpCIYA.s 			page 214


 9786 241d 281B0000 		.4byte	.LLST111
 9787 2421 24       		.uleb128 0x24
 9788 2422 1A060000 		.4byte	0x61a
 9789 2426 24       		.uleb128 0x24
 9790 2427 0F060000 		.4byte	0x60f
 9791 242b 25       		.uleb128 0x25
 9792 242c 8C080000 		.4byte	.LBB135
 9793 2430 16000000 		.4byte	.LBE135-.LBB135
 9794 2434 26       		.uleb128 0x26
 9795 2435 31060000 		.4byte	0x631
 9796 2439 3B1B0000 		.4byte	.LLST112
 9797 243d 00       		.byte	0
 9798 243e 00       		.byte	0
 9799 243f 29       		.uleb128 0x29
 9800 2440 86070000 		.4byte	.LVL391
 9801 2444 C22A0000 		.4byte	0x2ac2
 9802 2448 62240000 		.4byte	0x2462
 9803 244c 28       		.uleb128 0x28
 9804 244d 01       		.uleb128 0x1
 9805 244e 50       		.byte	0x50
 9806 244f 05       		.uleb128 0x5
 9807 2450 91       		.byte	0x91
 9808 2451 887E     		.sleb128 -248
 9809 2453 94       		.byte	0x94
 9810 2454 02       		.byte	0x2
 9811 2455 28       		.uleb128 0x28
 9812 2456 01       		.uleb128 0x1
 9813 2457 51       		.byte	0x51
 9814 2458 02       		.uleb128 0x2
 9815 2459 75       		.byte	0x75
 9816 245a 00       		.sleb128 0
 9817 245b 28       		.uleb128 0x28
 9818 245c 01       		.uleb128 0x1
 9819 245d 52       		.byte	0x52
 9820 245e 02       		.uleb128 0x2
 9821 245f 74       		.byte	0x74
 9822 2460 00       		.sleb128 0
 9823 2461 00       		.byte	0
 9824 2462 32       		.uleb128 0x32
 9825 2463 BA070000 		.4byte	.LVL394
 9826 2467 02       		.uleb128 0x2
 9827 2468 77       		.byte	0x77
 9828 2469 00       		.sleb128 0
 9829 246a A2240000 		.4byte	0x24a2
 9830 246e 28       		.uleb128 0x28
 9831 246f 01       		.uleb128 0x1
 9832 2470 50       		.byte	0x50
 9833 2471 0A       		.uleb128 0xa
 9834 2472 74       		.byte	0x74
 9835 2473 00       		.sleb128 0
 9836 2474 79       		.byte	0x79
 9837 2475 00       		.sleb128 0
 9838 2476 22       		.byte	0x22
 9839 2477 91       		.byte	0x91
 9840 2478 8C7E     		.sleb128 -244
 9841 247a 06       		.byte	0x6
 9842 247b 22       		.byte	0x22
ARM GAS  C:\Users\d3bug\AppData\Local\Temp\ccPpCIYA.s 			page 215


 9843 247c 28       		.uleb128 0x28
 9844 247d 01       		.uleb128 0x1
 9845 247e 51       		.byte	0x51
 9846 247f 09       		.uleb128 0x9
 9847 2480 91       		.byte	0x91
 9848 2481 907E     		.sleb128 -240
 9849 2483 06       		.byte	0x6
 9850 2484 7A       		.byte	0x7a
 9851 2485 00       		.sleb128 0
 9852 2486 22       		.byte	0x22
 9853 2487 23       		.byte	0x23
 9854 2488 01       		.uleb128 0x1
 9855 2489 28       		.uleb128 0x28
 9856 248a 01       		.uleb128 0x1
 9857 248b 52       		.byte	0x52
 9858 248c 04       		.uleb128 0x4
 9859 248d 91       		.byte	0x91
 9860 248e 847E     		.sleb128 -252
 9861 2490 06       		.byte	0x6
 9862 2491 28       		.uleb128 0x28
 9863 2492 01       		.uleb128 0x1
 9864 2493 53       		.byte	0x53
 9865 2494 05       		.uleb128 0x5
 9866 2495 91       		.byte	0x91
 9867 2496 9C7F     		.sleb128 -100
 9868 2498 94       		.byte	0x94
 9869 2499 01       		.byte	0x1
 9870 249a 28       		.uleb128 0x28
 9871 249b 02       		.uleb128 0x2
 9872 249c 7D       		.byte	0x7d
 9873 249d 00       		.sleb128 0
 9874 249e 02       		.uleb128 0x2
 9875 249f 76       		.byte	0x76
 9876 24a0 00       		.sleb128 0
 9877 24a1 00       		.byte	0
 9878 24a2 32       		.uleb128 0x32
 9879 24a3 DE070000 		.4byte	.LVL395
 9880 24a7 02       		.uleb128 0x2
 9881 24a8 77       		.byte	0x77
 9882 24a9 00       		.sleb128 0
 9883 24aa E2240000 		.4byte	0x24e2
 9884 24ae 28       		.uleb128 0x28
 9885 24af 01       		.uleb128 0x1
 9886 24b0 50       		.byte	0x50
 9887 24b1 0A       		.uleb128 0xa
 9888 24b2 91       		.byte	0x91
 9889 24b3 947E     		.sleb128 -236
 9890 24b5 06       		.byte	0x6
 9891 24b6 74       		.byte	0x74
 9892 24b7 00       		.sleb128 0
 9893 24b8 1C       		.byte	0x1c
 9894 24b9 79       		.byte	0x79
 9895 24ba 00       		.sleb128 0
 9896 24bb 1C       		.byte	0x1c
 9897 24bc 28       		.uleb128 0x28
 9898 24bd 01       		.uleb128 0x1
 9899 24be 51       		.byte	0x51
ARM GAS  C:\Users\d3bug\AppData\Local\Temp\ccPpCIYA.s 			page 216


 9900 24bf 09       		.uleb128 0x9
 9901 24c0 7A       		.byte	0x7a
 9902 24c1 00       		.sleb128 0
 9903 24c2 91       		.byte	0x91
 9904 24c3 987E     		.sleb128 -232
 9905 24c5 06       		.byte	0x6
 9906 24c6 22       		.byte	0x22
 9907 24c7 23       		.byte	0x23
 9908 24c8 01       		.uleb128 0x1
 9909 24c9 28       		.uleb128 0x28
 9910 24ca 01       		.uleb128 0x1
 9911 24cb 52       		.byte	0x52
 9912 24cc 04       		.uleb128 0x4
 9913 24cd 91       		.byte	0x91
 9914 24ce 847E     		.sleb128 -252
 9915 24d0 06       		.byte	0x6
 9916 24d1 28       		.uleb128 0x28
 9917 24d2 01       		.uleb128 0x1
 9918 24d3 53       		.byte	0x53
 9919 24d4 05       		.uleb128 0x5
 9920 24d5 91       		.byte	0x91
 9921 24d6 9C7F     		.sleb128 -100
 9922 24d8 94       		.byte	0x94
 9923 24d9 01       		.byte	0x1
 9924 24da 28       		.uleb128 0x28
 9925 24db 02       		.uleb128 0x2
 9926 24dc 7D       		.byte	0x7d
 9927 24dd 00       		.sleb128 0
 9928 24de 02       		.uleb128 0x2
 9929 24df 76       		.byte	0x76
 9930 24e0 00       		.sleb128 0
 9931 24e1 00       		.byte	0
 9932 24e2 32       		.uleb128 0x32
 9933 24e3 04080000 		.4byte	.LVL396
 9934 24e7 02       		.uleb128 0x2
 9935 24e8 77       		.byte	0x77
 9936 24e9 00       		.sleb128 0
 9937 24ea 21250000 		.4byte	0x2521
 9938 24ee 28       		.uleb128 0x28
 9939 24ef 01       		.uleb128 0x1
 9940 24f0 50       		.byte	0x50
 9941 24f1 0A       		.uleb128 0xa
 9942 24f2 91       		.byte	0x91
 9943 24f3 9C7E     		.sleb128 -228
 9944 24f5 06       		.byte	0x6
 9945 24f6 74       		.byte	0x74
 9946 24f7 00       		.sleb128 0
 9947 24f8 1C       		.byte	0x1c
 9948 24f9 79       		.byte	0x79
 9949 24fa 00       		.sleb128 0
 9950 24fb 1C       		.byte	0x1c
 9951 24fc 28       		.uleb128 0x28
 9952 24fd 01       		.uleb128 0x1
 9953 24fe 51       		.byte	0x51
 9954 24ff 08       		.uleb128 0x8
 9955 2500 7A       		.byte	0x7a
 9956 2501 00       		.sleb128 0
ARM GAS  C:\Users\d3bug\AppData\Local\Temp\ccPpCIYA.s 			page 217


 9957 2502 20       		.byte	0x20
 9958 2503 91       		.byte	0x91
 9959 2504 A07E     		.sleb128 -224
 9960 2506 06       		.byte	0x6
 9961 2507 22       		.byte	0x22
 9962 2508 28       		.uleb128 0x28
 9963 2509 01       		.uleb128 0x1
 9964 250a 52       		.byte	0x52
 9965 250b 04       		.uleb128 0x4
 9966 250c 91       		.byte	0x91
 9967 250d 847E     		.sleb128 -252
 9968 250f 06       		.byte	0x6
 9969 2510 28       		.uleb128 0x28
 9970 2511 01       		.uleb128 0x1
 9971 2512 53       		.byte	0x53
 9972 2513 05       		.uleb128 0x5
 9973 2514 91       		.byte	0x91
 9974 2515 9D7F     		.sleb128 -99
 9975 2517 94       		.byte	0x94
 9976 2518 01       		.byte	0x1
 9977 2519 28       		.uleb128 0x28
 9978 251a 02       		.uleb128 0x2
 9979 251b 7D       		.byte	0x7d
 9980 251c 00       		.sleb128 0
 9981 251d 02       		.uleb128 0x2
 9982 251e 76       		.byte	0x76
 9983 251f 00       		.sleb128 0
 9984 2520 00       		.byte	0
 9985 2521 32       		.uleb128 0x32
 9986 2522 2A080000 		.4byte	.LVL397
 9987 2526 02       		.uleb128 0x2
 9988 2527 77       		.byte	0x77
 9989 2528 00       		.sleb128 0
 9990 2529 60250000 		.4byte	0x2560
 9991 252d 28       		.uleb128 0x28
 9992 252e 01       		.uleb128 0x1
 9993 252f 50       		.byte	0x50
 9994 2530 0A       		.uleb128 0xa
 9995 2531 74       		.byte	0x74
 9996 2532 00       		.sleb128 0
 9997 2533 79       		.byte	0x79
 9998 2534 00       		.sleb128 0
 9999 2535 22       		.byte	0x22
 10000 2536 91       		.byte	0x91
 10001 2537 A47E     		.sleb128 -220
 10002 2539 06       		.byte	0x6
 10003 253a 22       		.byte	0x22
 10004 253b 28       		.uleb128 0x28
 10005 253c 01       		.uleb128 0x1
 10006 253d 51       		.byte	0x51
 10007 253e 08       		.uleb128 0x8
 10008 253f 7A       		.byte	0x7a
 10009 2540 00       		.sleb128 0
 10010 2541 20       		.byte	0x20
 10011 2542 91       		.byte	0x91
 10012 2543 B87E     		.sleb128 -200
 10013 2545 06       		.byte	0x6
ARM GAS  C:\Users\d3bug\AppData\Local\Temp\ccPpCIYA.s 			page 218


 10014 2546 22       		.byte	0x22
 10015 2547 28       		.uleb128 0x28
 10016 2548 01       		.uleb128 0x1
 10017 2549 52       		.byte	0x52
 10018 254a 04       		.uleb128 0x4
 10019 254b 91       		.byte	0x91
 10020 254c 847E     		.sleb128 -252
 10021 254e 06       		.byte	0x6
 10022 254f 28       		.uleb128 0x28
 10023 2550 01       		.uleb128 0x1
 10024 2551 53       		.byte	0x53
 10025 2552 05       		.uleb128 0x5
 10026 2553 91       		.byte	0x91
 10027 2554 9D7F     		.sleb128 -99
 10028 2556 94       		.byte	0x94
 10029 2557 01       		.byte	0x1
 10030 2558 28       		.uleb128 0x28
 10031 2559 02       		.uleb128 0x2
 10032 255a 7D       		.byte	0x7d
 10033 255b 00       		.sleb128 0
 10034 255c 02       		.uleb128 0x2
 10035 255d 76       		.byte	0x76
 10036 255e 00       		.sleb128 0
 10037 255f 00       		.byte	0
 10038 2560 38       		.uleb128 0x38
 10039 2561 70080000 		.4byte	.LVL401
 10040 2565 9A250000 		.4byte	0x259a
 10041 2569 28       		.uleb128 0x28
 10042 256a 01       		.uleb128 0x1
 10043 256b 50       		.byte	0x50
 10044 256c 09       		.uleb128 0x9
 10045 256d 91       		.byte	0x91
 10046 256e 8C7E     		.sleb128 -244
 10047 2570 06       		.byte	0x6
 10048 2571 7A       		.byte	0x7a
 10049 2572 00       		.sleb128 0
 10050 2573 22       		.byte	0x22
 10051 2574 23       		.byte	0x23
 10052 2575 01       		.uleb128 0x1
 10053 2576 28       		.uleb128 0x28
 10054 2577 01       		.uleb128 0x1
 10055 2578 51       		.byte	0x51
 10056 2579 0A       		.uleb128 0xa
 10057 257a 91       		.byte	0x91
 10058 257b 907E     		.sleb128 -240
 10059 257d 06       		.byte	0x6
 10060 257e 74       		.byte	0x74
 10061 257f 00       		.sleb128 0
 10062 2580 22       		.byte	0x22
 10063 2581 79       		.byte	0x79
 10064 2582 00       		.sleb128 0
 10065 2583 22       		.byte	0x22
 10066 2584 28       		.uleb128 0x28
 10067 2585 01       		.uleb128 0x1
 10068 2586 52       		.byte	0x52
 10069 2587 04       		.uleb128 0x4
 10070 2588 91       		.byte	0x91
ARM GAS  C:\Users\d3bug\AppData\Local\Temp\ccPpCIYA.s 			page 219


 10071 2589 847E     		.sleb128 -252
 10072 258b 06       		.byte	0x6
 10073 258c 28       		.uleb128 0x28
 10074 258d 01       		.uleb128 0x1
 10075 258e 53       		.byte	0x53
 10076 258f 02       		.uleb128 0x2
 10077 2590 78       		.byte	0x78
 10078 2591 00       		.sleb128 0
 10079 2592 28       		.uleb128 0x28
 10080 2593 02       		.uleb128 0x2
 10081 2594 7D       		.byte	0x7d
 10082 2595 00       		.sleb128 0
 10083 2596 02       		.uleb128 0x2
 10084 2597 76       		.byte	0x76
 10085 2598 00       		.sleb128 0
 10086 2599 00       		.byte	0
 10087 259a 38       		.uleb128 0x38
 10088 259b 8C080000 		.4byte	.LVL402
 10089 259f D3250000 		.4byte	0x25d3
 10090 25a3 28       		.uleb128 0x28
 10091 25a4 01       		.uleb128 0x1
 10092 25a5 50       		.byte	0x50
 10093 25a6 08       		.uleb128 0x8
 10094 25a7 7A       		.byte	0x7a
 10095 25a8 00       		.sleb128 0
 10096 25a9 20       		.byte	0x20
 10097 25aa 91       		.byte	0x91
 10098 25ab 947E     		.sleb128 -236
 10099 25ad 06       		.byte	0x6
 10100 25ae 22       		.byte	0x22
 10101 25af 28       		.uleb128 0x28
 10102 25b0 01       		.uleb128 0x1
 10103 25b1 51       		.byte	0x51
 10104 25b2 0A       		.uleb128 0xa
 10105 25b3 91       		.byte	0x91
 10106 25b4 987E     		.sleb128 -232
 10107 25b6 06       		.byte	0x6
 10108 25b7 74       		.byte	0x74
 10109 25b8 00       		.sleb128 0
 10110 25b9 22       		.byte	0x22
 10111 25ba 79       		.byte	0x79
 10112 25bb 00       		.sleb128 0
 10113 25bc 22       		.byte	0x22
 10114 25bd 28       		.uleb128 0x28
 10115 25be 01       		.uleb128 0x1
 10116 25bf 52       		.byte	0x52
 10117 25c0 04       		.uleb128 0x4
 10118 25c1 91       		.byte	0x91
 10119 25c2 847E     		.sleb128 -252
 10120 25c4 06       		.byte	0x6
 10121 25c5 28       		.uleb128 0x28
 10122 25c6 01       		.uleb128 0x1
 10123 25c7 53       		.byte	0x53
 10124 25c8 02       		.uleb128 0x2
 10125 25c9 78       		.byte	0x78
 10126 25ca 00       		.sleb128 0
 10127 25cb 28       		.uleb128 0x28
ARM GAS  C:\Users\d3bug\AppData\Local\Temp\ccPpCIYA.s 			page 220


 10128 25cc 02       		.uleb128 0x2
 10129 25cd 7D       		.byte	0x7d
 10130 25ce 00       		.sleb128 0
 10131 25cf 02       		.uleb128 0x2
 10132 25d0 76       		.byte	0x76
 10133 25d1 00       		.sleb128 0
 10134 25d2 00       		.byte	0
 10135 25d3 38       		.uleb128 0x38
 10136 25d4 C0080000 		.4byte	.LVL405
 10137 25d8 0A260000 		.4byte	0x260a
 10138 25dc 28       		.uleb128 0x28
 10139 25dd 01       		.uleb128 0x1
 10140 25de 50       		.byte	0x50
 10141 25df 08       		.uleb128 0x8
 10142 25e0 7A       		.byte	0x7a
 10143 25e1 00       		.sleb128 0
 10144 25e2 20       		.byte	0x20
 10145 25e3 91       		.byte	0x91
 10146 25e4 9C7E     		.sleb128 -228
 10147 25e6 06       		.byte	0x6
 10148 25e7 22       		.byte	0x22
 10149 25e8 28       		.uleb128 0x28
 10150 25e9 01       		.uleb128 0x1
 10151 25ea 51       		.byte	0x51
 10152 25eb 0A       		.uleb128 0xa
 10153 25ec 91       		.byte	0x91
 10154 25ed A07E     		.sleb128 -224
 10155 25ef 06       		.byte	0x6
 10156 25f0 74       		.byte	0x74
 10157 25f1 00       		.sleb128 0
 10158 25f2 1C       		.byte	0x1c
 10159 25f3 79       		.byte	0x79
 10160 25f4 00       		.sleb128 0
 10161 25f5 1C       		.byte	0x1c
 10162 25f6 28       		.uleb128 0x28
 10163 25f7 01       		.uleb128 0x1
 10164 25f8 52       		.byte	0x52
 10165 25f9 02       		.uleb128 0x2
 10166 25fa 75       		.byte	0x75
 10167 25fb 00       		.sleb128 0
 10168 25fc 28       		.uleb128 0x28
 10169 25fd 01       		.uleb128 0x1
 10170 25fe 53       		.byte	0x53
 10171 25ff 02       		.uleb128 0x2
 10172 2600 7B       		.byte	0x7b
 10173 2601 00       		.sleb128 0
 10174 2602 28       		.uleb128 0x28
 10175 2603 02       		.uleb128 0x2
 10176 2604 7D       		.byte	0x7d
 10177 2605 00       		.sleb128 0
 10178 2606 02       		.uleb128 0x2
 10179 2607 76       		.byte	0x76
 10180 2608 00       		.sleb128 0
 10181 2609 00       		.byte	0
 10182 260a 39       		.uleb128 0x39
 10183 260b DC080000 		.4byte	.LVL406
 10184 260f 28       		.uleb128 0x28
ARM GAS  C:\Users\d3bug\AppData\Local\Temp\ccPpCIYA.s 			page 221


 10185 2610 01       		.uleb128 0x1
 10186 2611 50       		.byte	0x50
 10187 2612 02       		.uleb128 0x2
 10188 2613 7A       		.byte	0x7a
 10189 2614 01       		.sleb128 1
 10190 2615 28       		.uleb128 0x28
 10191 2616 01       		.uleb128 0x1
 10192 2617 51       		.byte	0x51
 10193 2618 0A       		.uleb128 0xa
 10194 2619 91       		.byte	0x91
 10195 261a B87E     		.sleb128 -200
 10196 261c 06       		.byte	0x6
 10197 261d 74       		.byte	0x74
 10198 261e 00       		.sleb128 0
 10199 261f 1C       		.byte	0x1c
 10200 2620 79       		.byte	0x79
 10201 2621 00       		.sleb128 0
 10202 2622 1C       		.byte	0x1c
 10203 2623 28       		.uleb128 0x28
 10204 2624 01       		.uleb128 0x1
 10205 2625 52       		.byte	0x52
 10206 2626 02       		.uleb128 0x2
 10207 2627 75       		.byte	0x75
 10208 2628 00       		.sleb128 0
 10209 2629 28       		.uleb128 0x28
 10210 262a 01       		.uleb128 0x1
 10211 262b 53       		.byte	0x53
 10212 262c 02       		.uleb128 0x2
 10213 262d 7B       		.byte	0x7b
 10214 262e 00       		.sleb128 0
 10215 262f 28       		.uleb128 0x28
 10216 2630 02       		.uleb128 0x2
 10217 2631 7D       		.byte	0x7d
 10218 2632 00       		.sleb128 0
 10219 2633 02       		.uleb128 0x2
 10220 2634 76       		.byte	0x76
 10221 2635 00       		.sleb128 0
 10222 2636 00       		.byte	0
 10223 2637 00       		.byte	0
 10224 2638 23       		.uleb128 0x23
 10225 2639 FA080000 		.4byte	.LBB136
 10226 263d BC000000 		.4byte	.LBE136-.LBB136
 10227 2641 C0270000 		.4byte	0x27c0
 10228 2645 2C       		.uleb128 0x2c
 10229 2646 16060000 		.4byte	.LASF135
 10230 264a 01       		.byte	0x1
 10231 264b C001     		.2byte	0x1c0
 10232 264d 75010000 		.4byte	0x175
 10233 2651 4E1B0000 		.4byte	.LLST113
 10234 2655 30       		.uleb128 0x30
 10235 2656 FE050000 		.4byte	0x5fe
 10236 265a 06090000 		.4byte	.LBB137
 10237 265e 1C000000 		.4byte	.LBE137-.LBB137
 10238 2662 01       		.byte	0x1
 10239 2663 BD01     		.2byte	0x1bd
 10240 2665 90260000 		.4byte	0x2690
 10241 2669 22       		.uleb128 0x22
ARM GAS  C:\Users\d3bug\AppData\Local\Temp\ccPpCIYA.s 			page 222


 10242 266a 25060000 		.4byte	0x625
 10243 266e 611B0000 		.4byte	.LLST114
 10244 2672 24       		.uleb128 0x24
 10245 2673 1A060000 		.4byte	0x61a
 10246 2677 24       		.uleb128 0x24
 10247 2678 0F060000 		.4byte	0x60f
 10248 267c 25       		.uleb128 0x25
 10249 267d 06090000 		.4byte	.LBB138
 10250 2681 1C000000 		.4byte	.LBE138-.LBB138
 10251 2685 26       		.uleb128 0x26
 10252 2686 31060000 		.4byte	0x631
 10253 268a 741B0000 		.4byte	.LLST115
 10254 268e 00       		.byte	0
 10255 268f 00       		.byte	0
 10256 2690 30       		.uleb128 0x30
 10257 2691 FE050000 		.4byte	0x5fe
 10258 2695 22090000 		.4byte	.LBB139
 10259 2699 1A000000 		.4byte	.LBE139-.LBB139
 10260 269d 01       		.byte	0x1
 10261 269e BE01     		.2byte	0x1be
 10262 26a0 CB260000 		.4byte	0x26cb
 10263 26a4 22       		.uleb128 0x22
 10264 26a5 25060000 		.4byte	0x625
 10265 26a9 871B0000 		.4byte	.LLST116
 10266 26ad 24       		.uleb128 0x24
 10267 26ae 1A060000 		.4byte	0x61a
 10268 26b2 24       		.uleb128 0x24
 10269 26b3 0F060000 		.4byte	0x60f
 10270 26b7 25       		.uleb128 0x25
 10271 26b8 22090000 		.4byte	.LBB140
 10272 26bc 1A000000 		.4byte	.LBE140-.LBB140
 10273 26c0 26       		.uleb128 0x26
 10274 26c1 31060000 		.4byte	0x631
 10275 26c5 B71B0000 		.4byte	.LLST117
 10276 26c9 00       		.byte	0
 10277 26ca 00       		.byte	0
 10278 26cb 32       		.uleb128 0x32
 10279 26cc 68090000 		.4byte	.LVL416
 10280 26d0 02       		.uleb128 0x2
 10281 26d1 76       		.byte	0x76
 10282 26d2 00       		.sleb128 0
 10283 26d3 09270000 		.4byte	0x2709
 10284 26d7 28       		.uleb128 0x28
 10285 26d8 01       		.uleb128 0x1
 10286 26d9 50       		.byte	0x50
 10287 26da 0B       		.uleb128 0xb
 10288 26db 91       		.byte	0x91
 10289 26dc 48       		.sleb128 -56
 10290 26dd 94       		.byte	0x94
 10291 26de 02       		.byte	0x2
 10292 26df 40       		.byte	0x40
 10293 26e0 24       		.byte	0x24
 10294 26e1 40       		.byte	0x40
 10295 26e2 26       		.byte	0x26
 10296 26e3 74       		.byte	0x74
 10297 26e4 00       		.sleb128 0
 10298 26e5 22       		.byte	0x22
ARM GAS  C:\Users\d3bug\AppData\Local\Temp\ccPpCIYA.s 			page 223


 10299 26e6 28       		.uleb128 0x28
 10300 26e7 01       		.uleb128 0x1
 10301 26e8 51       		.byte	0x51
 10302 26e9 0B       		.uleb128 0xb
 10303 26ea 91       		.byte	0x91
 10304 26eb 4A       		.sleb128 -54
 10305 26ec 94       		.byte	0x94
 10306 26ed 02       		.byte	0x2
 10307 26ee 40       		.byte	0x40
 10308 26ef 24       		.byte	0x24
 10309 26f0 40       		.byte	0x40
 10310 26f1 26       		.byte	0x26
 10311 26f2 74       		.byte	0x74
 10312 26f3 00       		.sleb128 0
 10313 26f4 22       		.byte	0x22
 10314 26f5 28       		.uleb128 0x28
 10315 26f6 01       		.uleb128 0x1
 10316 26f7 52       		.byte	0x52
 10317 26f8 02       		.uleb128 0x2
 10318 26f9 79       		.byte	0x79
 10319 26fa 00       		.sleb128 0
 10320 26fb 28       		.uleb128 0x28
 10321 26fc 01       		.uleb128 0x1
 10322 26fd 53       		.byte	0x53
 10323 26fe 02       		.uleb128 0x2
 10324 26ff 77       		.byte	0x77
 10325 2700 00       		.sleb128 0
 10326 2701 28       		.uleb128 0x28
 10327 2702 02       		.uleb128 0x2
 10328 2703 7D       		.byte	0x7d
 10329 2704 00       		.sleb128 0
 10330 2705 02       		.uleb128 0x2
 10331 2706 78       		.byte	0x78
 10332 2707 00       		.sleb128 0
 10333 2708 00       		.byte	0
 10334 2709 32       		.uleb128 0x32
 10335 270a 82090000 		.4byte	.LVL417
 10336 270e 02       		.uleb128 0x2
 10337 270f 76       		.byte	0x76
 10338 2710 00       		.sleb128 0
 10339 2711 47270000 		.4byte	0x2747
 10340 2715 28       		.uleb128 0x28
 10341 2716 01       		.uleb128 0x1
 10342 2717 50       		.byte	0x50
 10343 2718 0B       		.uleb128 0xb
 10344 2719 91       		.byte	0x91
 10345 271a 50       		.sleb128 -48
 10346 271b 94       		.byte	0x94
 10347 271c 02       		.byte	0x2
 10348 271d 40       		.byte	0x40
 10349 271e 24       		.byte	0x24
 10350 271f 40       		.byte	0x40
 10351 2720 26       		.byte	0x26
 10352 2721 74       		.byte	0x74
 10353 2722 00       		.sleb128 0
 10354 2723 1C       		.byte	0x1c
 10355 2724 28       		.uleb128 0x28
ARM GAS  C:\Users\d3bug\AppData\Local\Temp\ccPpCIYA.s 			page 224


 10356 2725 01       		.uleb128 0x1
 10357 2726 51       		.byte	0x51
 10358 2727 0B       		.uleb128 0xb
 10359 2728 91       		.byte	0x91
 10360 2729 52       		.sleb128 -46
 10361 272a 94       		.byte	0x94
 10362 272b 02       		.byte	0x2
 10363 272c 40       		.byte	0x40
 10364 272d 24       		.byte	0x24
 10365 272e 40       		.byte	0x40
 10366 272f 26       		.byte	0x26
 10367 2730 74       		.byte	0x74
 10368 2731 00       		.sleb128 0
 10369 2732 22       		.byte	0x22
 10370 2733 28       		.uleb128 0x28
 10371 2734 01       		.uleb128 0x1
 10372 2735 52       		.byte	0x52
 10373 2736 02       		.uleb128 0x2
 10374 2737 79       		.byte	0x79
 10375 2738 00       		.sleb128 0
 10376 2739 28       		.uleb128 0x28
 10377 273a 01       		.uleb128 0x1
 10378 273b 53       		.byte	0x53
 10379 273c 02       		.uleb128 0x2
 10380 273d 77       		.byte	0x77
 10381 273e 00       		.sleb128 0
 10382 273f 28       		.uleb128 0x28
 10383 2740 02       		.uleb128 0x2
 10384 2741 7D       		.byte	0x7d
 10385 2742 00       		.sleb128 0
 10386 2743 02       		.uleb128 0x2
 10387 2744 78       		.byte	0x78
 10388 2745 00       		.sleb128 0
 10389 2746 00       		.byte	0
 10390 2747 32       		.uleb128 0x32
 10391 2748 9C090000 		.4byte	.LVL418
 10392 274c 02       		.uleb128 0x2
 10393 274d 76       		.byte	0x76
 10394 274e 00       		.sleb128 0
 10395 274f 85270000 		.4byte	0x2785
 10396 2753 28       		.uleb128 0x28
 10397 2754 01       		.uleb128 0x1
 10398 2755 50       		.byte	0x50
 10399 2756 0B       		.uleb128 0xb
 10400 2757 91       		.byte	0x91
 10401 2758 54       		.sleb128 -44
 10402 2759 94       		.byte	0x94
 10403 275a 02       		.byte	0x2
 10404 275b 40       		.byte	0x40
 10405 275c 24       		.byte	0x24
 10406 275d 40       		.byte	0x40
 10407 275e 26       		.byte	0x26
 10408 275f 74       		.byte	0x74
 10409 2760 00       		.sleb128 0
 10410 2761 1C       		.byte	0x1c
 10411 2762 28       		.uleb128 0x28
 10412 2763 01       		.uleb128 0x1
ARM GAS  C:\Users\d3bug\AppData\Local\Temp\ccPpCIYA.s 			page 225


 10413 2764 51       		.byte	0x51
 10414 2765 0B       		.uleb128 0xb
 10415 2766 91       		.byte	0x91
 10416 2767 56       		.sleb128 -42
 10417 2768 94       		.byte	0x94
 10418 2769 02       		.byte	0x2
 10419 276a 40       		.byte	0x40
 10420 276b 24       		.byte	0x24
 10421 276c 40       		.byte	0x40
 10422 276d 26       		.byte	0x26
 10423 276e 74       		.byte	0x74
 10424 276f 00       		.sleb128 0
 10425 2770 1C       		.byte	0x1c
 10426 2771 28       		.uleb128 0x28
 10427 2772 01       		.uleb128 0x1
 10428 2773 52       		.byte	0x52
 10429 2774 02       		.uleb128 0x2
 10430 2775 79       		.byte	0x79
 10431 2776 00       		.sleb128 0
 10432 2777 28       		.uleb128 0x28
 10433 2778 01       		.uleb128 0x1
 10434 2779 53       		.byte	0x53
 10435 277a 02       		.uleb128 0x2
 10436 277b 75       		.byte	0x75
 10437 277c 00       		.sleb128 0
 10438 277d 28       		.uleb128 0x28
 10439 277e 02       		.uleb128 0x2
 10440 277f 7D       		.byte	0x7d
 10441 2780 00       		.sleb128 0
 10442 2781 02       		.uleb128 0x2
 10443 2782 78       		.byte	0x78
 10444 2783 00       		.sleb128 0
 10445 2784 00       		.byte	0
 10446 2785 27       		.uleb128 0x27
 10447 2786 B6090000 		.4byte	.LVL419
 10448 278a 02       		.uleb128 0x2
 10449 278b 76       		.byte	0x76
 10450 278c 00       		.sleb128 0
 10451 278d 28       		.uleb128 0x28
 10452 278e 01       		.uleb128 0x1
 10453 278f 50       		.byte	0x50
 10454 2790 0B       		.uleb128 0xb
 10455 2791 91       		.byte	0x91
 10456 2792 4C       		.sleb128 -52
 10457 2793 94       		.byte	0x94
 10458 2794 02       		.byte	0x2
 10459 2795 40       		.byte	0x40
 10460 2796 24       		.byte	0x24
 10461 2797 40       		.byte	0x40
 10462 2798 26       		.byte	0x26
 10463 2799 74       		.byte	0x74
 10464 279a 00       		.sleb128 0
 10465 279b 22       		.byte	0x22
 10466 279c 28       		.uleb128 0x28
 10467 279d 01       		.uleb128 0x1
 10468 279e 51       		.byte	0x51
 10469 279f 0B       		.uleb128 0xb
ARM GAS  C:\Users\d3bug\AppData\Local\Temp\ccPpCIYA.s 			page 226


 10470 27a0 91       		.byte	0x91
 10471 27a1 4E       		.sleb128 -50
 10472 27a2 94       		.byte	0x94
 10473 27a3 02       		.byte	0x2
 10474 27a4 40       		.byte	0x40
 10475 27a5 24       		.byte	0x24
 10476 27a6 40       		.byte	0x40
 10477 27a7 26       		.byte	0x26
 10478 27a8 74       		.byte	0x74
 10479 27a9 00       		.sleb128 0
 10480 27aa 1C       		.byte	0x1c
 10481 27ab 28       		.uleb128 0x28
 10482 27ac 01       		.uleb128 0x1
 10483 27ad 52       		.byte	0x52
 10484 27ae 02       		.uleb128 0x2
 10485 27af 79       		.byte	0x79
 10486 27b0 00       		.sleb128 0
 10487 27b1 28       		.uleb128 0x28
 10488 27b2 01       		.uleb128 0x1
 10489 27b3 53       		.byte	0x53
 10490 27b4 02       		.uleb128 0x2
 10491 27b5 75       		.byte	0x75
 10492 27b6 00       		.sleb128 0
 10493 27b7 28       		.uleb128 0x28
 10494 27b8 02       		.uleb128 0x2
 10495 27b9 7D       		.byte	0x7d
 10496 27ba 00       		.sleb128 0
 10497 27bb 02       		.uleb128 0x2
 10498 27bc 78       		.byte	0x78
 10499 27bd 00       		.sleb128 0
 10500 27be 00       		.byte	0
 10501 27bf 00       		.byte	0
 10502 27c0 29       		.uleb128 0x29
 10503 27c1 56000000 		.4byte	.LVL244
 10504 27c5 3E060000 		.4byte	0x63e
 10505 27c9 E2270000 		.4byte	0x27e2
 10506 27cd 28       		.uleb128 0x28
 10507 27ce 01       		.uleb128 0x1
 10508 27cf 51       		.byte	0x51
 10509 27d0 07       		.uleb128 0x7
 10510 27d1 77       		.byte	0x77
 10511 27d2 00       		.sleb128 0
 10512 27d3 76       		.byte	0x76
 10513 27d4 00       		.sleb128 0
 10514 27d5 1C       		.byte	0x1c
 10515 27d6 23       		.byte	0x23
 10516 27d7 01       		.uleb128 0x1
 10517 27d8 28       		.uleb128 0x28
 10518 27d9 01       		.uleb128 0x1
 10519 27da 52       		.byte	0x52
 10520 27db 05       		.uleb128 0x5
 10521 27dc 91       		.byte	0x91
 10522 27dd D07E     		.sleb128 -176
 10523 27df 94       		.byte	0x94
 10524 27e0 02       		.byte	0x2
 10525 27e1 00       		.byte	0
 10526 27e2 29       		.uleb128 0x29
ARM GAS  C:\Users\d3bug\AppData\Local\Temp\ccPpCIYA.s 			page 227


 10527 27e3 B0000000 		.4byte	.LVL247
 10528 27e7 CD2A0000 		.4byte	0x2acd
 10529 27eb 07280000 		.4byte	0x2807
 10530 27ef 28       		.uleb128 0x28
 10531 27f0 01       		.uleb128 0x1
 10532 27f1 50       		.byte	0x50
 10533 27f2 03       		.uleb128 0x3
 10534 27f3 91       		.byte	0x91
 10535 27f4 A47F     		.sleb128 -92
 10536 27f6 28       		.uleb128 0x28
 10537 27f7 01       		.uleb128 0x1
 10538 27f8 51       		.byte	0x51
 10539 27f9 03       		.uleb128 0x3
 10540 27fa 91       		.byte	0x91
 10541 27fb A27F     		.sleb128 -94
 10542 27fd 28       		.uleb128 0x28
 10543 27fe 01       		.uleb128 0x1
 10544 27ff 52       		.byte	0x52
 10545 2800 05       		.uleb128 0x5
 10546 2801 91       		.byte	0x91
 10547 2802 C07E     		.sleb128 -192
 10548 2804 94       		.byte	0x94
 10549 2805 02       		.byte	0x2
 10550 2806 00       		.byte	0
 10551 2807 29       		.uleb128 0x29
 10552 2808 CC000000 		.4byte	.LVL248
 10553 280c E32A0000 		.4byte	0x2ae3
 10554 2810 1C280000 		.4byte	0x281c
 10555 2814 28       		.uleb128 0x28
 10556 2815 01       		.uleb128 0x1
 10557 2816 50       		.byte	0x50
 10558 2817 03       		.uleb128 0x3
 10559 2818 91       		.byte	0x91
 10560 2819 B07F     		.sleb128 -80
 10561 281b 00       		.byte	0
 10562 281c 29       		.uleb128 0x29
 10563 281d E8000000 		.4byte	.LVL249
 10564 2821 E32A0000 		.4byte	0x2ae3
 10565 2825 31280000 		.4byte	0x2831
 10566 2829 28       		.uleb128 0x28
 10567 282a 01       		.uleb128 0x1
 10568 282b 50       		.byte	0x50
 10569 282c 03       		.uleb128 0x3
 10570 282d 91       		.byte	0x91
 10571 282e A87F     		.sleb128 -88
 10572 2830 00       		.byte	0
 10573 2831 29       		.uleb128 0x29
 10574 2832 06010000 		.4byte	.LVL250
 10575 2836 E32A0000 		.4byte	0x2ae3
 10576 283a 46280000 		.4byte	0x2846
 10577 283e 28       		.uleb128 0x28
 10578 283f 01       		.uleb128 0x1
 10579 2840 50       		.byte	0x50
 10580 2841 03       		.uleb128 0x3
 10581 2842 91       		.byte	0x91
 10582 2843 B87F     		.sleb128 -72
 10583 2845 00       		.byte	0
ARM GAS  C:\Users\d3bug\AppData\Local\Temp\ccPpCIYA.s 			page 228


 10584 2846 29       		.uleb128 0x29
 10585 2847 24010000 		.4byte	.LVL251
 10586 284b E32A0000 		.4byte	0x2ae3
 10587 284f 5A280000 		.4byte	0x285a
 10588 2853 28       		.uleb128 0x28
 10589 2854 01       		.uleb128 0x1
 10590 2855 50       		.byte	0x50
 10591 2856 02       		.uleb128 0x2
 10592 2857 91       		.byte	0x91
 10593 2858 40       		.sleb128 -64
 10594 2859 00       		.byte	0
 10595 285a 29       		.uleb128 0x29
 10596 285b 8E050000 		.4byte	.LVL352
 10597 285f EE2A0000 		.4byte	0x2aee
 10598 2863 6F280000 		.4byte	0x286f
 10599 2867 28       		.uleb128 0x28
 10600 2868 01       		.uleb128 0x1
 10601 2869 50       		.byte	0x50
 10602 286a 03       		.uleb128 0x3
 10603 286b 91       		.byte	0x91
 10604 286c A47F     		.sleb128 -92
 10605 286e 00       		.byte	0
 10606 286f 32       		.uleb128 0x32
 10607 2870 D8050000 		.4byte	.LVL359
 10608 2874 02       		.uleb128 0x2
 10609 2875 74       		.byte	0x74
 10610 2876 00       		.sleb128 0
 10611 2877 93280000 		.4byte	0x2893
 10612 287b 28       		.uleb128 0x28
 10613 287c 01       		.uleb128 0x1
 10614 287d 50       		.byte	0x50
 10615 287e 02       		.uleb128 0x2
 10616 287f 91       		.byte	0x91
 10617 2880 40       		.sleb128 -64
 10618 2881 28       		.uleb128 0x28
 10619 2882 01       		.uleb128 0x1
 10620 2883 51       		.byte	0x51
 10621 2884 04       		.uleb128 0x4
 10622 2885 91       		.byte	0x91
 10623 2886 847E     		.sleb128 -252
 10624 2888 06       		.byte	0x6
 10625 2889 28       		.uleb128 0x28
 10626 288a 01       		.uleb128 0x1
 10627 288b 53       		.byte	0x53
 10628 288c 05       		.uleb128 0x5
 10629 288d 91       		.byte	0x91
 10630 288e BC7E     		.sleb128 -196
 10631 2890 94       		.byte	0x94
 10632 2891 01       		.byte	0x1
 10633 2892 00       		.byte	0
 10634 2893 32       		.uleb128 0x32
 10635 2894 28060000 		.4byte	.LVL366
 10636 2898 02       		.uleb128 0x2
 10637 2899 74       		.byte	0x74
 10638 289a 00       		.sleb128 0
 10639 289b B8280000 		.4byte	0x28b8
 10640 289f 28       		.uleb128 0x28
ARM GAS  C:\Users\d3bug\AppData\Local\Temp\ccPpCIYA.s 			page 229


 10641 28a0 01       		.uleb128 0x1
 10642 28a1 50       		.byte	0x50
 10643 28a2 03       		.uleb128 0x3
 10644 28a3 91       		.byte	0x91
 10645 28a4 B87F     		.sleb128 -72
 10646 28a6 28       		.uleb128 0x28
 10647 28a7 01       		.uleb128 0x1
 10648 28a8 51       		.byte	0x51
 10649 28a9 04       		.uleb128 0x4
 10650 28aa 91       		.byte	0x91
 10651 28ab 847E     		.sleb128 -252
 10652 28ad 06       		.byte	0x6
 10653 28ae 28       		.uleb128 0x28
 10654 28af 01       		.uleb128 0x1
 10655 28b0 53       		.byte	0x53
 10656 28b1 05       		.uleb128 0x5
 10657 28b2 91       		.byte	0x91
 10658 28b3 BC7E     		.sleb128 -196
 10659 28b5 94       		.byte	0x94
 10660 28b6 01       		.byte	0x1
 10661 28b7 00       		.byte	0
 10662 28b8 32       		.uleb128 0x32
 10663 28b9 6C060000 		.4byte	.LVL373
 10664 28bd 02       		.uleb128 0x2
 10665 28be 74       		.byte	0x74
 10666 28bf 00       		.sleb128 0
 10667 28c0 DD280000 		.4byte	0x28dd
 10668 28c4 28       		.uleb128 0x28
 10669 28c5 01       		.uleb128 0x1
 10670 28c6 50       		.byte	0x50
 10671 28c7 03       		.uleb128 0x3
 10672 28c8 91       		.byte	0x91
 10673 28c9 B07F     		.sleb128 -80
 10674 28cb 28       		.uleb128 0x28
 10675 28cc 01       		.uleb128 0x1
 10676 28cd 51       		.byte	0x51
 10677 28ce 04       		.uleb128 0x4
 10678 28cf 91       		.byte	0x91
 10679 28d0 847E     		.sleb128 -252
 10680 28d2 06       		.byte	0x6
 10681 28d3 28       		.uleb128 0x28
 10682 28d4 01       		.uleb128 0x1
 10683 28d5 53       		.byte	0x53
 10684 28d6 05       		.uleb128 0x5
 10685 28d7 91       		.byte	0x91
 10686 28d8 BC7E     		.sleb128 -196
 10687 28da 94       		.byte	0x94
 10688 28db 01       		.byte	0x1
 10689 28dc 00       		.byte	0
 10690 28dd 32       		.uleb128 0x32
 10691 28de BC060000 		.4byte	.LVL380
 10692 28e2 02       		.uleb128 0x2
 10693 28e3 74       		.byte	0x74
 10694 28e4 00       		.sleb128 0
 10695 28e5 02290000 		.4byte	0x2902
 10696 28e9 28       		.uleb128 0x28
 10697 28ea 01       		.uleb128 0x1
ARM GAS  C:\Users\d3bug\AppData\Local\Temp\ccPpCIYA.s 			page 230


 10698 28eb 50       		.byte	0x50
 10699 28ec 03       		.uleb128 0x3
 10700 28ed 91       		.byte	0x91
 10701 28ee A87F     		.sleb128 -88
 10702 28f0 28       		.uleb128 0x28
 10703 28f1 01       		.uleb128 0x1
 10704 28f2 51       		.byte	0x51
 10705 28f3 04       		.uleb128 0x4
 10706 28f4 91       		.byte	0x91
 10707 28f5 847E     		.sleb128 -252
 10708 28f7 06       		.byte	0x6
 10709 28f8 28       		.uleb128 0x28
 10710 28f9 01       		.uleb128 0x1
 10711 28fa 53       		.byte	0x53
 10712 28fb 05       		.uleb128 0x5
 10713 28fc 91       		.byte	0x91
 10714 28fd BC7E     		.sleb128 -196
 10715 28ff 94       		.byte	0x94
 10716 2900 01       		.byte	0x1
 10717 2901 00       		.byte	0
 10718 2902 32       		.uleb128 0x32
 10719 2903 FC060000 		.4byte	.LVL381
 10720 2907 02       		.uleb128 0x2
 10721 2908 74       		.byte	0x74
 10722 2909 00       		.sleb128 0
 10723 290a 21290000 		.4byte	0x2921
 10724 290e 28       		.uleb128 0x28
 10725 290f 01       		.uleb128 0x1
 10726 2910 50       		.byte	0x50
 10727 2911 02       		.uleb128 0x2
 10728 2912 91       		.byte	0x91
 10729 2913 40       		.sleb128 -64
 10730 2914 28       		.uleb128 0x28
 10731 2915 01       		.uleb128 0x1
 10732 2916 51       		.byte	0x51
 10733 2917 02       		.uleb128 0x2
 10734 2918 78       		.byte	0x78
 10735 2919 00       		.sleb128 0
 10736 291a 28       		.uleb128 0x28
 10737 291b 01       		.uleb128 0x1
 10738 291c 53       		.byte	0x53
 10739 291d 02       		.uleb128 0x2
 10740 291e 79       		.byte	0x79
 10741 291f 00       		.sleb128 0
 10742 2920 00       		.byte	0
 10743 2921 27       		.uleb128 0x27
 10744 2922 12070000 		.4byte	.LVL382
 10745 2926 02       		.uleb128 0x2
 10746 2927 74       		.byte	0x74
 10747 2928 00       		.sleb128 0
 10748 2929 28       		.uleb128 0x28
 10749 292a 01       		.uleb128 0x1
 10750 292b 50       		.byte	0x50
 10751 292c 02       		.uleb128 0x2
 10752 292d 91       		.byte	0x91
 10753 292e 40       		.sleb128 -64
 10754 292f 28       		.uleb128 0x28
ARM GAS  C:\Users\d3bug\AppData\Local\Temp\ccPpCIYA.s 			page 231


 10755 2930 01       		.uleb128 0x1
 10756 2931 51       		.byte	0x51
 10757 2932 02       		.uleb128 0x2
 10758 2933 78       		.byte	0x78
 10759 2934 00       		.sleb128 0
 10760 2935 28       		.uleb128 0x28
 10761 2936 01       		.uleb128 0x1
 10762 2937 53       		.byte	0x53
 10763 2938 02       		.uleb128 0x2
 10764 2939 79       		.byte	0x79
 10765 293a 00       		.sleb128 0
 10766 293b 00       		.byte	0
 10767 293c 00       		.byte	0
 10768 293d 3B       		.uleb128 0x3b
 10769 293e 45050000 		.4byte	.LASF160
 10770 2942 01       		.byte	0x1
 10771 2943 41       		.byte	0x41
 10772 2944 00000000 		.4byte	.LFB12
 10773 2948 84000000 		.4byte	.LFE12-.LFB12
 10774 294c 01       		.uleb128 0x1
 10775 294d 9C       		.byte	0x9c
 10776 294e 5D2A0000 		.4byte	0x2a5d
 10777 2952 1C       		.uleb128 0x1c
 10778 2953 9F050000 		.4byte	.LASF94
 10779 2957 01       		.byte	0x1
 10780 2958 41       		.byte	0x41
 10781 2959 B0050000 		.4byte	0x5b0
 10782 295d CA1B0000 		.4byte	.LLST118
 10783 2961 1C       		.uleb128 0x1c
 10784 2962 9B040000 		.4byte	.LASF95
 10785 2966 01       		.byte	0x1
 10786 2967 41       		.byte	0x41
 10787 2968 B0050000 		.4byte	0x5b0
 10788 296c F61B0000 		.4byte	.LLST119
 10789 2970 1C       		.uleb128 0x1c
 10790 2971 FA060000 		.4byte	.LASF96
 10791 2975 01       		.byte	0x1
 10792 2976 41       		.byte	0x41
 10793 2977 BB050000 		.4byte	0x5bb
 10794 297b 221C0000 		.4byte	.LLST120
 10795 297f 1C       		.uleb128 0x1c
 10796 2980 9C060000 		.4byte	.LASF97
 10797 2984 01       		.byte	0x1
 10798 2985 41       		.byte	0x41
 10799 2986 75010000 		.4byte	0x175
 10800 298a 4E1C0000 		.4byte	.LLST121
 10801 298e 21       		.uleb128 0x21
 10802 298f E2050000 		.4byte	0x5e2
 10803 2993 02000000 		.4byte	.LBB141
 10804 2997 0E000000 		.4byte	.LBE141-.LBB141
 10805 299b 01       		.byte	0x1
 10806 299c 43       		.byte	0x43
 10807 299d AB290000 		.4byte	0x29ab
 10808 29a1 22       		.uleb128 0x22
 10809 29a2 F2050000 		.4byte	0x5f2
 10810 29a6 6F1C0000 		.4byte	.LLST122
 10811 29aa 00       		.byte	0
ARM GAS  C:\Users\d3bug\AppData\Local\Temp\ccPpCIYA.s 			page 232


 10812 29ab 21       		.uleb128 0x21
 10813 29ac C6050000 		.4byte	0x5c6
 10814 29b0 14000000 		.4byte	.LBB143
 10815 29b4 0E000000 		.4byte	.LBE143-.LBB143
 10816 29b8 01       		.byte	0x1
 10817 29b9 43       		.byte	0x43
 10818 29ba C8290000 		.4byte	0x29c8
 10819 29be 22       		.uleb128 0x22
 10820 29bf D6050000 		.4byte	0x5d6
 10821 29c3 821C0000 		.4byte	.LLST123
 10822 29c7 00       		.byte	0
 10823 29c8 29       		.uleb128 0x29
 10824 29c9 42000000 		.4byte	.LVL427
 10825 29cd 83060000 		.4byte	0x683
 10826 29d1 EE290000 		.4byte	0x29ee
 10827 29d5 28       		.uleb128 0x28
 10828 29d6 01       		.uleb128 0x1
 10829 29d7 50       		.byte	0x50
 10830 29d8 02       		.uleb128 0x2
 10831 29d9 76       		.byte	0x76
 10832 29da 00       		.sleb128 0
 10833 29db 28       		.uleb128 0x28
 10834 29dc 01       		.uleb128 0x1
 10835 29dd 51       		.byte	0x51
 10836 29de 02       		.uleb128 0x2
 10837 29df 77       		.byte	0x77
 10838 29e0 00       		.sleb128 0
 10839 29e1 28       		.uleb128 0x28
 10840 29e2 01       		.uleb128 0x1
 10841 29e3 52       		.byte	0x52
 10842 29e4 02       		.uleb128 0x2
 10843 29e5 74       		.byte	0x74
 10844 29e6 00       		.sleb128 0
 10845 29e7 28       		.uleb128 0x28
 10846 29e8 01       		.uleb128 0x1
 10847 29e9 53       		.byte	0x53
 10848 29ea 02       		.uleb128 0x2
 10849 29eb 75       		.byte	0x75
 10850 29ec 00       		.sleb128 0
 10851 29ed 00       		.byte	0
 10852 29ee 29       		.uleb128 0x29
 10853 29ef 54000000 		.4byte	.LVL428
 10854 29f3 C81A0000 		.4byte	0x1ac8
 10855 29f7 142A0000 		.4byte	0x2a14
 10856 29fb 28       		.uleb128 0x28
 10857 29fc 01       		.uleb128 0x1
 10858 29fd 50       		.byte	0x50
 10859 29fe 02       		.uleb128 0x2
 10860 29ff 76       		.byte	0x76
 10861 2a00 00       		.sleb128 0
 10862 2a01 28       		.uleb128 0x28
 10863 2a02 01       		.uleb128 0x1
 10864 2a03 51       		.byte	0x51
 10865 2a04 02       		.uleb128 0x2
 10866 2a05 77       		.byte	0x77
 10867 2a06 00       		.sleb128 0
 10868 2a07 28       		.uleb128 0x28
ARM GAS  C:\Users\d3bug\AppData\Local\Temp\ccPpCIYA.s 			page 233


 10869 2a08 01       		.uleb128 0x1
 10870 2a09 52       		.byte	0x52
 10871 2a0a 02       		.uleb128 0x2
 10872 2a0b 74       		.byte	0x74
 10873 2a0c 00       		.sleb128 0
 10874 2a0d 28       		.uleb128 0x28
 10875 2a0e 01       		.uleb128 0x1
 10876 2a0f 53       		.byte	0x53
 10877 2a10 02       		.uleb128 0x2
 10878 2a11 75       		.byte	0x75
 10879 2a12 00       		.sleb128 0
 10880 2a13 00       		.byte	0
 10881 2a14 29       		.uleb128 0x29
 10882 2a15 70000000 		.4byte	.LVL429
 10883 2a19 55080000 		.4byte	0x855
 10884 2a1d 3A2A0000 		.4byte	0x2a3a
 10885 2a21 28       		.uleb128 0x28
 10886 2a22 01       		.uleb128 0x1
 10887 2a23 50       		.byte	0x50
 10888 2a24 02       		.uleb128 0x2
 10889 2a25 76       		.byte	0x76
 10890 2a26 00       		.sleb128 0
 10891 2a27 28       		.uleb128 0x28
 10892 2a28 01       		.uleb128 0x1
 10893 2a29 51       		.byte	0x51
 10894 2a2a 02       		.uleb128 0x2
 10895 2a2b 77       		.byte	0x77
 10896 2a2c 00       		.sleb128 0
 10897 2a2d 28       		.uleb128 0x28
 10898 2a2e 01       		.uleb128 0x1
 10899 2a2f 52       		.byte	0x52
 10900 2a30 02       		.uleb128 0x2
 10901 2a31 74       		.byte	0x74
 10902 2a32 00       		.sleb128 0
 10903 2a33 28       		.uleb128 0x28
 10904 2a34 01       		.uleb128 0x1
 10905 2a35 53       		.byte	0x53
 10906 2a36 02       		.uleb128 0x2
 10907 2a37 75       		.byte	0x75
 10908 2a38 00       		.sleb128 0
 10909 2a39 00       		.byte	0
 10910 2a3a 36       		.uleb128 0x36
 10911 2a3b 82000000 		.4byte	.LVL430
 10912 2a3f DE0C0000 		.4byte	0xcde
 10913 2a43 28       		.uleb128 0x28
 10914 2a44 01       		.uleb128 0x1
 10915 2a45 50       		.byte	0x50
 10916 2a46 02       		.uleb128 0x2
 10917 2a47 76       		.byte	0x76
 10918 2a48 00       		.sleb128 0
 10919 2a49 28       		.uleb128 0x28
 10920 2a4a 01       		.uleb128 0x1
 10921 2a4b 51       		.byte	0x51
 10922 2a4c 02       		.uleb128 0x2
 10923 2a4d 77       		.byte	0x77
 10924 2a4e 00       		.sleb128 0
 10925 2a4f 28       		.uleb128 0x28
ARM GAS  C:\Users\d3bug\AppData\Local\Temp\ccPpCIYA.s 			page 234


 10926 2a50 01       		.uleb128 0x1
 10927 2a51 52       		.byte	0x52
 10928 2a52 02       		.uleb128 0x2
 10929 2a53 74       		.byte	0x74
 10930 2a54 00       		.sleb128 0
 10931 2a55 28       		.uleb128 0x28
 10932 2a56 01       		.uleb128 0x1
 10933 2a57 53       		.byte	0x53
 10934 2a58 02       		.uleb128 0x2
 10935 2a59 75       		.byte	0x75
 10936 2a5a 00       		.sleb128 0
 10937 2a5b 00       		.byte	0
 10938 2a5c 00       		.byte	0
 10939 2a5d 3C       		.uleb128 0x3c
 10940 2a5e 7C2A0000 		.4byte	0x2a7c
 10941 2a62 13       		.uleb128 0x13
 10942 2a63 95010000 		.4byte	0x195
 10943 2a67 13       		.uleb128 0x13
 10944 2a68 95010000 		.4byte	0x195
 10945 2a6c 13       		.uleb128 0x13
 10946 2a6d B0050000 		.4byte	0x5b0
 10947 2a71 13       		.uleb128 0x13
 10948 2a72 6A010000 		.4byte	0x16a
 10949 2a76 13       		.uleb128 0x13
 10950 2a77 75010000 		.4byte	0x175
 10951 2a7b 00       		.byte	0
 10952 2a7c 3D       		.uleb128 0x3d
 10953 2a7d 1A050000 		.4byte	.LASF149
 10954 2a81 08       		.byte	0x8
 10955 2a82 5B       		.byte	0x5b
 10956 2a83 8D2A0000 		.4byte	0x2a8d
 10957 2a87 10       		.uleb128 0x10
 10958 2a88 04       		.byte	0x4
 10959 2a89 5D2A0000 		.4byte	0x2a5d
 10960 2a8d 11       		.uleb128 0x11
 10961 2a8e 872A0000 		.4byte	0x2a87
 10962 2a92 3C       		.uleb128 0x3c
 10963 2a93 AC2A0000 		.4byte	0x2aac
 10964 2a97 13       		.uleb128 0x13
 10965 2a98 B0050000 		.4byte	0x5b0
 10966 2a9c 13       		.uleb128 0x13
 10967 2a9d B0050000 		.4byte	0x5b0
 10968 2aa1 13       		.uleb128 0x13
 10969 2aa2 6A010000 		.4byte	0x16a
 10970 2aa6 13       		.uleb128 0x13
 10971 2aa7 75010000 		.4byte	0x175
 10972 2aab 00       		.byte	0
 10973 2aac 3D       		.uleb128 0x3d
 10974 2aad 8F000000 		.4byte	.LASF150
 10975 2ab1 08       		.byte	0x8
 10976 2ab2 5C       		.byte	0x5c
 10977 2ab3 BD2A0000 		.4byte	0x2abd
 10978 2ab7 10       		.uleb128 0x10
 10979 2ab8 04       		.byte	0x4
 10980 2ab9 922A0000 		.4byte	0x2a92
 10981 2abd 11       		.uleb128 0x11
 10982 2abe B72A0000 		.4byte	0x2ab7
ARM GAS  C:\Users\d3bug\AppData\Local\Temp\ccPpCIYA.s 			page 235


 10983 2ac2 3E       		.uleb128 0x3e
 10984 2ac3 3C070000 		.4byte	.LASF151
 10985 2ac7 3C070000 		.4byte	.LASF151
 10986 2acb 08       		.byte	0x8
 10987 2acc 3F       		.byte	0x3f
 10988 2acd 3E       		.uleb128 0x3e
 10989 2ace F1020000 		.4byte	.LASF152
 10990 2ad2 F1020000 		.4byte	.LASF152
 10991 2ad6 09       		.byte	0x9
 10992 2ad7 36       		.byte	0x36
 10993 2ad8 3E       		.uleb128 0x3e
 10994 2ad9 F8040000 		.4byte	.LASF153
 10995 2add F8040000 		.4byte	.LASF153
 10996 2ae1 09       		.byte	0x9
 10997 2ae2 44       		.byte	0x44
 10998 2ae3 3E       		.uleb128 0x3e
 10999 2ae4 F8000000 		.4byte	.LASF154
 11000 2ae8 F8000000 		.4byte	.LASF154
 11001 2aec 02       		.byte	0x2
 11002 2aed 3A       		.byte	0x3a
 11003 2aee 3E       		.uleb128 0x3e
 11004 2aef B8040000 		.4byte	.LASF155
 11005 2af3 B8040000 		.4byte	.LASF155
 11006 2af7 09       		.byte	0x9
 11007 2af8 3D       		.byte	0x3d
 11008 2af9 00       		.byte	0
 11009              		.section	.debug_abbrev,"",%progbits
 11010              	.Ldebug_abbrev0:
 11011 0000 01       		.uleb128 0x1
 11012 0001 11       		.uleb128 0x11
 11013 0002 01       		.byte	0x1
 11014 0003 25       		.uleb128 0x25
 11015 0004 0E       		.uleb128 0xe
 11016 0005 13       		.uleb128 0x13
 11017 0006 0B       		.uleb128 0xb
 11018 0007 03       		.uleb128 0x3
 11019 0008 0E       		.uleb128 0xe
 11020 0009 1B       		.uleb128 0x1b
 11021 000a 0E       		.uleb128 0xe
 11022 000b 55       		.uleb128 0x55
 11023 000c 17       		.uleb128 0x17
 11024 000d 11       		.uleb128 0x11
 11025 000e 01       		.uleb128 0x1
 11026 000f 10       		.uleb128 0x10
 11027 0010 17       		.uleb128 0x17
 11028 0011 00       		.byte	0
 11029 0012 00       		.byte	0
 11030 0013 02       		.uleb128 0x2
 11031 0014 24       		.uleb128 0x24
 11032 0015 00       		.byte	0
 11033 0016 0B       		.uleb128 0xb
 11034 0017 0B       		.uleb128 0xb
 11035 0018 3E       		.uleb128 0x3e
 11036 0019 0B       		.uleb128 0xb
 11037 001a 03       		.uleb128 0x3
 11038 001b 0E       		.uleb128 0xe
 11039 001c 00       		.byte	0
ARM GAS  C:\Users\d3bug\AppData\Local\Temp\ccPpCIYA.s 			page 236


 11040 001d 00       		.byte	0
 11041 001e 03       		.uleb128 0x3
 11042 001f 16       		.uleb128 0x16
 11043 0020 00       		.byte	0
 11044 0021 03       		.uleb128 0x3
 11045 0022 0E       		.uleb128 0xe
 11046 0023 3A       		.uleb128 0x3a
 11047 0024 0B       		.uleb128 0xb
 11048 0025 3B       		.uleb128 0x3b
 11049 0026 0B       		.uleb128 0xb
 11050 0027 49       		.uleb128 0x49
 11051 0028 13       		.uleb128 0x13
 11052 0029 00       		.byte	0
 11053 002a 00       		.byte	0
 11054 002b 04       		.uleb128 0x4
 11055 002c 24       		.uleb128 0x24
 11056 002d 00       		.byte	0
 11057 002e 0B       		.uleb128 0xb
 11058 002f 0B       		.uleb128 0xb
 11059 0030 3E       		.uleb128 0x3e
 11060 0031 0B       		.uleb128 0xb
 11061 0032 03       		.uleb128 0x3
 11062 0033 08       		.uleb128 0x8
 11063 0034 00       		.byte	0
 11064 0035 00       		.byte	0
 11065 0036 05       		.uleb128 0x5
 11066 0037 04       		.uleb128 0x4
 11067 0038 01       		.byte	0x1
 11068 0039 0B       		.uleb128 0xb
 11069 003a 0B       		.uleb128 0xb
 11070 003b 49       		.uleb128 0x49
 11071 003c 13       		.uleb128 0x13
 11072 003d 3A       		.uleb128 0x3a
 11073 003e 0B       		.uleb128 0xb
 11074 003f 3B       		.uleb128 0x3b
 11075 0040 0B       		.uleb128 0xb
 11076 0041 01       		.uleb128 0x1
 11077 0042 13       		.uleb128 0x13
 11078 0043 00       		.byte	0
 11079 0044 00       		.byte	0
 11080 0045 06       		.uleb128 0x6
 11081 0046 28       		.uleb128 0x28
 11082 0047 00       		.byte	0
 11083 0048 03       		.uleb128 0x3
 11084 0049 0E       		.uleb128 0xe
 11085 004a 1C       		.uleb128 0x1c
 11086 004b 0B       		.uleb128 0xb
 11087 004c 00       		.byte	0
 11088 004d 00       		.byte	0
 11089 004e 07       		.uleb128 0x7
 11090 004f 17       		.uleb128 0x17
 11091 0050 01       		.byte	0x1
 11092 0051 0B       		.uleb128 0xb
 11093 0052 0B       		.uleb128 0xb
 11094 0053 3A       		.uleb128 0x3a
 11095 0054 0B       		.uleb128 0xb
 11096 0055 3B       		.uleb128 0x3b
ARM GAS  C:\Users\d3bug\AppData\Local\Temp\ccPpCIYA.s 			page 237


 11097 0056 0B       		.uleb128 0xb
 11098 0057 01       		.uleb128 0x1
 11099 0058 13       		.uleb128 0x13
 11100 0059 00       		.byte	0
 11101 005a 00       		.byte	0
 11102 005b 08       		.uleb128 0x8
 11103 005c 0D       		.uleb128 0xd
 11104 005d 00       		.byte	0
 11105 005e 03       		.uleb128 0x3
 11106 005f 0E       		.uleb128 0xe
 11107 0060 3A       		.uleb128 0x3a
 11108 0061 0B       		.uleb128 0xb
 11109 0062 3B       		.uleb128 0x3b
 11110 0063 0B       		.uleb128 0xb
 11111 0064 49       		.uleb128 0x49
 11112 0065 13       		.uleb128 0x13
 11113 0066 0B       		.uleb128 0xb
 11114 0067 0B       		.uleb128 0xb
 11115 0068 0D       		.uleb128 0xd
 11116 0069 0B       		.uleb128 0xb
 11117 006a 0C       		.uleb128 0xc
 11118 006b 0B       		.uleb128 0xb
 11119 006c 00       		.byte	0
 11120 006d 00       		.byte	0
 11121 006e 09       		.uleb128 0x9
 11122 006f 0D       		.uleb128 0xd
 11123 0070 00       		.byte	0
 11124 0071 03       		.uleb128 0x3
 11125 0072 08       		.uleb128 0x8
 11126 0073 3A       		.uleb128 0x3a
 11127 0074 0B       		.uleb128 0xb
 11128 0075 3B       		.uleb128 0x3b
 11129 0076 0B       		.uleb128 0xb
 11130 0077 49       		.uleb128 0x49
 11131 0078 13       		.uleb128 0x13
 11132 0079 0B       		.uleb128 0xb
 11133 007a 0B       		.uleb128 0xb
 11134 007b 0D       		.uleb128 0xd
 11135 007c 0B       		.uleb128 0xb
 11136 007d 0C       		.uleb128 0xc
 11137 007e 0B       		.uleb128 0xb
 11138 007f 00       		.byte	0
 11139 0080 00       		.byte	0
 11140 0081 0A       		.uleb128 0xa
 11141 0082 13       		.uleb128 0x13
 11142 0083 01       		.byte	0x1
 11143 0084 0B       		.uleb128 0xb
 11144 0085 0B       		.uleb128 0xb
 11145 0086 3A       		.uleb128 0x3a
 11146 0087 0B       		.uleb128 0xb
 11147 0088 3B       		.uleb128 0x3b
 11148 0089 0B       		.uleb128 0xb
 11149 008a 01       		.uleb128 0x1
 11150 008b 13       		.uleb128 0x13
 11151 008c 00       		.byte	0
 11152 008d 00       		.byte	0
 11153 008e 0B       		.uleb128 0xb
ARM GAS  C:\Users\d3bug\AppData\Local\Temp\ccPpCIYA.s 			page 238


 11154 008f 0D       		.uleb128 0xd
 11155 0090 00       		.byte	0
 11156 0091 03       		.uleb128 0x3
 11157 0092 08       		.uleb128 0x8
 11158 0093 3A       		.uleb128 0x3a
 11159 0094 0B       		.uleb128 0xb
 11160 0095 3B       		.uleb128 0x3b
 11161 0096 0B       		.uleb128 0xb
 11162 0097 49       		.uleb128 0x49
 11163 0098 13       		.uleb128 0x13
 11164 0099 38       		.uleb128 0x38
 11165 009a 0B       		.uleb128 0xb
 11166 009b 00       		.byte	0
 11167 009c 00       		.byte	0
 11168 009d 0C       		.uleb128 0xc
 11169 009e 0D       		.uleb128 0xd
 11170 009f 00       		.byte	0
 11171 00a0 03       		.uleb128 0x3
 11172 00a1 0E       		.uleb128 0xe
 11173 00a2 3A       		.uleb128 0x3a
 11174 00a3 0B       		.uleb128 0xb
 11175 00a4 3B       		.uleb128 0x3b
 11176 00a5 0B       		.uleb128 0xb
 11177 00a6 49       		.uleb128 0x49
 11178 00a7 13       		.uleb128 0x13
 11179 00a8 0B       		.uleb128 0xb
 11180 00a9 0B       		.uleb128 0xb
 11181 00aa 0D       		.uleb128 0xd
 11182 00ab 0B       		.uleb128 0xb
 11183 00ac 0C       		.uleb128 0xc
 11184 00ad 0B       		.uleb128 0xb
 11185 00ae 38       		.uleb128 0x38
 11186 00af 0B       		.uleb128 0xb
 11187 00b0 00       		.byte	0
 11188 00b1 00       		.byte	0
 11189 00b2 0D       		.uleb128 0xd
 11190 00b3 13       		.uleb128 0x13
 11191 00b4 01       		.byte	0x1
 11192 00b5 03       		.uleb128 0x3
 11193 00b6 0E       		.uleb128 0xe
 11194 00b7 0B       		.uleb128 0xb
 11195 00b8 0B       		.uleb128 0xb
 11196 00b9 3A       		.uleb128 0x3a
 11197 00ba 0B       		.uleb128 0xb
 11198 00bb 3B       		.uleb128 0x3b
 11199 00bc 0B       		.uleb128 0xb
 11200 00bd 01       		.uleb128 0x1
 11201 00be 13       		.uleb128 0x13
 11202 00bf 00       		.byte	0
 11203 00c0 00       		.byte	0
 11204 00c1 0E       		.uleb128 0xe
 11205 00c2 0D       		.uleb128 0xd
 11206 00c3 00       		.byte	0
 11207 00c4 03       		.uleb128 0x3
 11208 00c5 0E       		.uleb128 0xe
 11209 00c6 3A       		.uleb128 0x3a
 11210 00c7 0B       		.uleb128 0xb
ARM GAS  C:\Users\d3bug\AppData\Local\Temp\ccPpCIYA.s 			page 239


 11211 00c8 3B       		.uleb128 0x3b
 11212 00c9 0B       		.uleb128 0xb
 11213 00ca 49       		.uleb128 0x49
 11214 00cb 13       		.uleb128 0x13
 11215 00cc 38       		.uleb128 0x38
 11216 00cd 0B       		.uleb128 0xb
 11217 00ce 00       		.byte	0
 11218 00cf 00       		.byte	0
 11219 00d0 0F       		.uleb128 0xf
 11220 00d1 0D       		.uleb128 0xd
 11221 00d2 00       		.byte	0
 11222 00d3 03       		.uleb128 0x3
 11223 00d4 08       		.uleb128 0x8
 11224 00d5 3A       		.uleb128 0x3a
 11225 00d6 0B       		.uleb128 0xb
 11226 00d7 3B       		.uleb128 0x3b
 11227 00d8 0B       		.uleb128 0xb
 11228 00d9 49       		.uleb128 0x49
 11229 00da 13       		.uleb128 0x13
 11230 00db 0B       		.uleb128 0xb
 11231 00dc 0B       		.uleb128 0xb
 11232 00dd 0D       		.uleb128 0xd
 11233 00de 0B       		.uleb128 0xb
 11234 00df 0C       		.uleb128 0xc
 11235 00e0 0B       		.uleb128 0xb
 11236 00e1 38       		.uleb128 0x38
 11237 00e2 0B       		.uleb128 0xb
 11238 00e3 00       		.byte	0
 11239 00e4 00       		.byte	0
 11240 00e5 10       		.uleb128 0x10
 11241 00e6 0F       		.uleb128 0xf
 11242 00e7 00       		.byte	0
 11243 00e8 0B       		.uleb128 0xb
 11244 00e9 0B       		.uleb128 0xb
 11245 00ea 49       		.uleb128 0x49
 11246 00eb 13       		.uleb128 0x13
 11247 00ec 00       		.byte	0
 11248 00ed 00       		.byte	0
 11249 00ee 11       		.uleb128 0x11
 11250 00ef 26       		.uleb128 0x26
 11251 00f0 00       		.byte	0
 11252 00f1 49       		.uleb128 0x49
 11253 00f2 13       		.uleb128 0x13
 11254 00f3 00       		.byte	0
 11255 00f4 00       		.byte	0
 11256 00f5 12       		.uleb128 0x12
 11257 00f6 15       		.uleb128 0x15
 11258 00f7 01       		.byte	0x1
 11259 00f8 27       		.uleb128 0x27
 11260 00f9 19       		.uleb128 0x19
 11261 00fa 49       		.uleb128 0x49
 11262 00fb 13       		.uleb128 0x13
 11263 00fc 01       		.uleb128 0x1
 11264 00fd 13       		.uleb128 0x13
 11265 00fe 00       		.byte	0
 11266 00ff 00       		.byte	0
 11267 0100 13       		.uleb128 0x13
ARM GAS  C:\Users\d3bug\AppData\Local\Temp\ccPpCIYA.s 			page 240


 11268 0101 05       		.uleb128 0x5
 11269 0102 00       		.byte	0
 11270 0103 49       		.uleb128 0x49
 11271 0104 13       		.uleb128 0x13
 11272 0105 00       		.byte	0
 11273 0106 00       		.byte	0
 11274 0107 14       		.uleb128 0x14
 11275 0108 2E       		.uleb128 0x2e
 11276 0109 01       		.byte	0x1
 11277 010a 03       		.uleb128 0x3
 11278 010b 0E       		.uleb128 0xe
 11279 010c 3A       		.uleb128 0x3a
 11280 010d 0B       		.uleb128 0xb
 11281 010e 3B       		.uleb128 0x3b
 11282 010f 0B       		.uleb128 0xb
 11283 0110 27       		.uleb128 0x27
 11284 0111 19       		.uleb128 0x19
 11285 0112 49       		.uleb128 0x49
 11286 0113 13       		.uleb128 0x13
 11287 0114 20       		.uleb128 0x20
 11288 0115 0B       		.uleb128 0xb
 11289 0116 01       		.uleb128 0x1
 11290 0117 13       		.uleb128 0x13
 11291 0118 00       		.byte	0
 11292 0119 00       		.byte	0
 11293 011a 15       		.uleb128 0x15
 11294 011b 05       		.uleb128 0x5
 11295 011c 00       		.byte	0
 11296 011d 03       		.uleb128 0x3
 11297 011e 0E       		.uleb128 0xe
 11298 011f 3A       		.uleb128 0x3a
 11299 0120 0B       		.uleb128 0xb
 11300 0121 3B       		.uleb128 0x3b
 11301 0122 0B       		.uleb128 0xb
 11302 0123 49       		.uleb128 0x49
 11303 0124 13       		.uleb128 0x13
 11304 0125 00       		.byte	0
 11305 0126 00       		.byte	0
 11306 0127 16       		.uleb128 0x16
 11307 0128 2E       		.uleb128 0x2e
 11308 0129 01       		.byte	0x1
 11309 012a 03       		.uleb128 0x3
 11310 012b 0E       		.uleb128 0xe
 11311 012c 3A       		.uleb128 0x3a
 11312 012d 0B       		.uleb128 0xb
 11313 012e 3B       		.uleb128 0x3b
 11314 012f 05       		.uleb128 0x5
 11315 0130 27       		.uleb128 0x27
 11316 0131 19       		.uleb128 0x19
 11317 0132 49       		.uleb128 0x49
 11318 0133 13       		.uleb128 0x13
 11319 0134 20       		.uleb128 0x20
 11320 0135 0B       		.uleb128 0xb
 11321 0136 01       		.uleb128 0x1
 11322 0137 13       		.uleb128 0x13
 11323 0138 00       		.byte	0
 11324 0139 00       		.byte	0
ARM GAS  C:\Users\d3bug\AppData\Local\Temp\ccPpCIYA.s 			page 241


 11325 013a 17       		.uleb128 0x17
 11326 013b 05       		.uleb128 0x5
 11327 013c 00       		.byte	0
 11328 013d 03       		.uleb128 0x3
 11329 013e 08       		.uleb128 0x8
 11330 013f 3A       		.uleb128 0x3a
 11331 0140 0B       		.uleb128 0xb
 11332 0141 3B       		.uleb128 0x3b
 11333 0142 05       		.uleb128 0x5
 11334 0143 49       		.uleb128 0x49
 11335 0144 13       		.uleb128 0x13
 11336 0145 00       		.byte	0
 11337 0146 00       		.byte	0
 11338 0147 18       		.uleb128 0x18
 11339 0148 34       		.uleb128 0x34
 11340 0149 00       		.byte	0
 11341 014a 03       		.uleb128 0x3
 11342 014b 08       		.uleb128 0x8
 11343 014c 3A       		.uleb128 0x3a
 11344 014d 0B       		.uleb128 0xb
 11345 014e 3B       		.uleb128 0x3b
 11346 014f 05       		.uleb128 0x5
 11347 0150 49       		.uleb128 0x49
 11348 0151 13       		.uleb128 0x13
 11349 0152 00       		.byte	0
 11350 0153 00       		.byte	0
 11351 0154 19       		.uleb128 0x19
 11352 0155 2E       		.uleb128 0x2e
 11353 0156 01       		.byte	0x1
 11354 0157 03       		.uleb128 0x3
 11355 0158 0E       		.uleb128 0xe
 11356 0159 3A       		.uleb128 0x3a
 11357 015a 0B       		.uleb128 0xb
 11358 015b 3B       		.uleb128 0x3b
 11359 015c 05       		.uleb128 0x5
 11360 015d 27       		.uleb128 0x27
 11361 015e 19       		.uleb128 0x19
 11362 015f 49       		.uleb128 0x49
 11363 0160 13       		.uleb128 0x13
 11364 0161 11       		.uleb128 0x11
 11365 0162 01       		.uleb128 0x1
 11366 0163 12       		.uleb128 0x12
 11367 0164 06       		.uleb128 0x6
 11368 0165 40       		.uleb128 0x40
 11369 0166 18       		.uleb128 0x18
 11370 0167 9742     		.uleb128 0x2117
 11371 0169 19       		.uleb128 0x19
 11372 016a 01       		.uleb128 0x1
 11373 016b 13       		.uleb128 0x13
 11374 016c 00       		.byte	0
 11375 016d 00       		.byte	0
 11376 016e 1A       		.uleb128 0x1a
 11377 016f 05       		.uleb128 0x5
 11378 0170 00       		.byte	0
 11379 0171 03       		.uleb128 0x3
 11380 0172 08       		.uleb128 0x8
 11381 0173 3A       		.uleb128 0x3a
ARM GAS  C:\Users\d3bug\AppData\Local\Temp\ccPpCIYA.s 			page 242


 11382 0174 0B       		.uleb128 0xb
 11383 0175 3B       		.uleb128 0x3b
 11384 0176 05       		.uleb128 0x5
 11385 0177 49       		.uleb128 0x49
 11386 0178 13       		.uleb128 0x13
 11387 0179 02       		.uleb128 0x2
 11388 017a 17       		.uleb128 0x17
 11389 017b 00       		.byte	0
 11390 017c 00       		.byte	0
 11391 017d 1B       		.uleb128 0x1b
 11392 017e 2E       		.uleb128 0x2e
 11393 017f 01       		.byte	0x1
 11394 0180 03       		.uleb128 0x3
 11395 0181 0E       		.uleb128 0xe
 11396 0182 3A       		.uleb128 0x3a
 11397 0183 0B       		.uleb128 0xb
 11398 0184 3B       		.uleb128 0x3b
 11399 0185 0B       		.uleb128 0xb
 11400 0186 27       		.uleb128 0x27
 11401 0187 19       		.uleb128 0x19
 11402 0188 11       		.uleb128 0x11
 11403 0189 01       		.uleb128 0x1
 11404 018a 12       		.uleb128 0x12
 11405 018b 06       		.uleb128 0x6
 11406 018c 40       		.uleb128 0x40
 11407 018d 18       		.uleb128 0x18
 11408 018e 9742     		.uleb128 0x2117
 11409 0190 19       		.uleb128 0x19
 11410 0191 01       		.uleb128 0x1
 11411 0192 13       		.uleb128 0x13
 11412 0193 00       		.byte	0
 11413 0194 00       		.byte	0
 11414 0195 1C       		.uleb128 0x1c
 11415 0196 05       		.uleb128 0x5
 11416 0197 00       		.byte	0
 11417 0198 03       		.uleb128 0x3
 11418 0199 0E       		.uleb128 0xe
 11419 019a 3A       		.uleb128 0x3a
 11420 019b 0B       		.uleb128 0xb
 11421 019c 3B       		.uleb128 0x3b
 11422 019d 0B       		.uleb128 0xb
 11423 019e 49       		.uleb128 0x49
 11424 019f 13       		.uleb128 0x13
 11425 01a0 02       		.uleb128 0x2
 11426 01a1 17       		.uleb128 0x17
 11427 01a2 00       		.byte	0
 11428 01a3 00       		.byte	0
 11429 01a4 1D       		.uleb128 0x1d
 11430 01a5 34       		.uleb128 0x34
 11431 01a6 00       		.byte	0
 11432 01a7 03       		.uleb128 0x3
 11433 01a8 0E       		.uleb128 0xe
 11434 01a9 3A       		.uleb128 0x3a
 11435 01aa 0B       		.uleb128 0xb
 11436 01ab 3B       		.uleb128 0x3b
 11437 01ac 0B       		.uleb128 0xb
 11438 01ad 49       		.uleb128 0x49
ARM GAS  C:\Users\d3bug\AppData\Local\Temp\ccPpCIYA.s 			page 243


 11439 01ae 13       		.uleb128 0x13
 11440 01af 02       		.uleb128 0x2
 11441 01b0 17       		.uleb128 0x17
 11442 01b1 00       		.byte	0
 11443 01b2 00       		.byte	0
 11444 01b3 1E       		.uleb128 0x1e
 11445 01b4 34       		.uleb128 0x34
 11446 01b5 00       		.byte	0
 11447 01b6 03       		.uleb128 0x3
 11448 01b7 0E       		.uleb128 0xe
 11449 01b8 3A       		.uleb128 0x3a
 11450 01b9 0B       		.uleb128 0xb
 11451 01ba 3B       		.uleb128 0x3b
 11452 01bb 0B       		.uleb128 0xb
 11453 01bc 49       		.uleb128 0x49
 11454 01bd 13       		.uleb128 0x13
 11455 01be 00       		.byte	0
 11456 01bf 00       		.byte	0
 11457 01c0 1F       		.uleb128 0x1f
 11458 01c1 34       		.uleb128 0x34
 11459 01c2 00       		.byte	0
 11460 01c3 03       		.uleb128 0x3
 11461 01c4 08       		.uleb128 0x8
 11462 01c5 3A       		.uleb128 0x3a
 11463 01c6 0B       		.uleb128 0xb
 11464 01c7 3B       		.uleb128 0x3b
 11465 01c8 0B       		.uleb128 0xb
 11466 01c9 49       		.uleb128 0x49
 11467 01ca 13       		.uleb128 0x13
 11468 01cb 02       		.uleb128 0x2
 11469 01cc 17       		.uleb128 0x17
 11470 01cd 00       		.byte	0
 11471 01ce 00       		.byte	0
 11472 01cf 20       		.uleb128 0x20
 11473 01d0 34       		.uleb128 0x34
 11474 01d1 00       		.byte	0
 11475 01d2 03       		.uleb128 0x3
 11476 01d3 0E       		.uleb128 0xe
 11477 01d4 3A       		.uleb128 0x3a
 11478 01d5 0B       		.uleb128 0xb
 11479 01d6 3B       		.uleb128 0x3b
 11480 01d7 0B       		.uleb128 0xb
 11481 01d8 49       		.uleb128 0x49
 11482 01d9 13       		.uleb128 0x13
 11483 01da 02       		.uleb128 0x2
 11484 01db 18       		.uleb128 0x18
 11485 01dc 00       		.byte	0
 11486 01dd 00       		.byte	0
 11487 01de 21       		.uleb128 0x21
 11488 01df 1D       		.uleb128 0x1d
 11489 01e0 01       		.byte	0x1
 11490 01e1 31       		.uleb128 0x31
 11491 01e2 13       		.uleb128 0x13
 11492 01e3 11       		.uleb128 0x11
 11493 01e4 01       		.uleb128 0x1
 11494 01e5 12       		.uleb128 0x12
 11495 01e6 06       		.uleb128 0x6
ARM GAS  C:\Users\d3bug\AppData\Local\Temp\ccPpCIYA.s 			page 244


 11496 01e7 58       		.uleb128 0x58
 11497 01e8 0B       		.uleb128 0xb
 11498 01e9 59       		.uleb128 0x59
 11499 01ea 0B       		.uleb128 0xb
 11500 01eb 01       		.uleb128 0x1
 11501 01ec 13       		.uleb128 0x13
 11502 01ed 00       		.byte	0
 11503 01ee 00       		.byte	0
 11504 01ef 22       		.uleb128 0x22
 11505 01f0 05       		.uleb128 0x5
 11506 01f1 00       		.byte	0
 11507 01f2 31       		.uleb128 0x31
 11508 01f3 13       		.uleb128 0x13
 11509 01f4 02       		.uleb128 0x2
 11510 01f5 17       		.uleb128 0x17
 11511 01f6 00       		.byte	0
 11512 01f7 00       		.byte	0
 11513 01f8 23       		.uleb128 0x23
 11514 01f9 0B       		.uleb128 0xb
 11515 01fa 01       		.byte	0x1
 11516 01fb 11       		.uleb128 0x11
 11517 01fc 01       		.uleb128 0x1
 11518 01fd 12       		.uleb128 0x12
 11519 01fe 06       		.uleb128 0x6
 11520 01ff 01       		.uleb128 0x1
 11521 0200 13       		.uleb128 0x13
 11522 0201 00       		.byte	0
 11523 0202 00       		.byte	0
 11524 0203 24       		.uleb128 0x24
 11525 0204 05       		.uleb128 0x5
 11526 0205 00       		.byte	0
 11527 0206 31       		.uleb128 0x31
 11528 0207 13       		.uleb128 0x13
 11529 0208 00       		.byte	0
 11530 0209 00       		.byte	0
 11531 020a 25       		.uleb128 0x25
 11532 020b 0B       		.uleb128 0xb
 11533 020c 01       		.byte	0x1
 11534 020d 11       		.uleb128 0x11
 11535 020e 01       		.uleb128 0x1
 11536 020f 12       		.uleb128 0x12
 11537 0210 06       		.uleb128 0x6
 11538 0211 00       		.byte	0
 11539 0212 00       		.byte	0
 11540 0213 26       		.uleb128 0x26
 11541 0214 34       		.uleb128 0x34
 11542 0215 00       		.byte	0
 11543 0216 31       		.uleb128 0x31
 11544 0217 13       		.uleb128 0x13
 11545 0218 02       		.uleb128 0x2
 11546 0219 17       		.uleb128 0x17
 11547 021a 00       		.byte	0
 11548 021b 00       		.byte	0
 11549 021c 27       		.uleb128 0x27
 11550 021d 898201   		.uleb128 0x4109
 11551 0220 01       		.byte	0x1
 11552 0221 11       		.uleb128 0x11
ARM GAS  C:\Users\d3bug\AppData\Local\Temp\ccPpCIYA.s 			page 245


 11553 0222 01       		.uleb128 0x1
 11554 0223 9342     		.uleb128 0x2113
 11555 0225 18       		.uleb128 0x18
 11556 0226 00       		.byte	0
 11557 0227 00       		.byte	0
 11558 0228 28       		.uleb128 0x28
 11559 0229 8A8201   		.uleb128 0x410a
 11560 022c 00       		.byte	0
 11561 022d 02       		.uleb128 0x2
 11562 022e 18       		.uleb128 0x18
 11563 022f 9142     		.uleb128 0x2111
 11564 0231 18       		.uleb128 0x18
 11565 0232 00       		.byte	0
 11566 0233 00       		.byte	0
 11567 0234 29       		.uleb128 0x29
 11568 0235 898201   		.uleb128 0x4109
 11569 0238 01       		.byte	0x1
 11570 0239 11       		.uleb128 0x11
 11571 023a 01       		.uleb128 0x1
 11572 023b 31       		.uleb128 0x31
 11573 023c 13       		.uleb128 0x13
 11574 023d 01       		.uleb128 0x1
 11575 023e 13       		.uleb128 0x13
 11576 023f 00       		.byte	0
 11577 0240 00       		.byte	0
 11578 0241 2A       		.uleb128 0x2a
 11579 0242 2E       		.uleb128 0x2e
 11580 0243 01       		.byte	0x1
 11581 0244 03       		.uleb128 0x3
 11582 0245 0E       		.uleb128 0xe
 11583 0246 3A       		.uleb128 0x3a
 11584 0247 0B       		.uleb128 0xb
 11585 0248 3B       		.uleb128 0x3b
 11586 0249 05       		.uleb128 0x5
 11587 024a 27       		.uleb128 0x27
 11588 024b 19       		.uleb128 0x19
 11589 024c 11       		.uleb128 0x11
 11590 024d 01       		.uleb128 0x1
 11591 024e 12       		.uleb128 0x12
 11592 024f 06       		.uleb128 0x6
 11593 0250 40       		.uleb128 0x40
 11594 0251 18       		.uleb128 0x18
 11595 0252 9742     		.uleb128 0x2117
 11596 0254 19       		.uleb128 0x19
 11597 0255 01       		.uleb128 0x1
 11598 0256 13       		.uleb128 0x13
 11599 0257 00       		.byte	0
 11600 0258 00       		.byte	0
 11601 0259 2B       		.uleb128 0x2b
 11602 025a 05       		.uleb128 0x5
 11603 025b 00       		.byte	0
 11604 025c 03       		.uleb128 0x3
 11605 025d 0E       		.uleb128 0xe
 11606 025e 3A       		.uleb128 0x3a
 11607 025f 0B       		.uleb128 0xb
 11608 0260 3B       		.uleb128 0x3b
 11609 0261 05       		.uleb128 0x5
ARM GAS  C:\Users\d3bug\AppData\Local\Temp\ccPpCIYA.s 			page 246


 11610 0262 49       		.uleb128 0x49
 11611 0263 13       		.uleb128 0x13
 11612 0264 02       		.uleb128 0x2
 11613 0265 17       		.uleb128 0x17
 11614 0266 00       		.byte	0
 11615 0267 00       		.byte	0
 11616 0268 2C       		.uleb128 0x2c
 11617 0269 34       		.uleb128 0x34
 11618 026a 00       		.byte	0
 11619 026b 03       		.uleb128 0x3
 11620 026c 0E       		.uleb128 0xe
 11621 026d 3A       		.uleb128 0x3a
 11622 026e 0B       		.uleb128 0xb
 11623 026f 3B       		.uleb128 0x3b
 11624 0270 05       		.uleb128 0x5
 11625 0271 49       		.uleb128 0x49
 11626 0272 13       		.uleb128 0x13
 11627 0273 02       		.uleb128 0x2
 11628 0274 17       		.uleb128 0x17
 11629 0275 00       		.byte	0
 11630 0276 00       		.byte	0
 11631 0277 2D       		.uleb128 0x2d
 11632 0278 34       		.uleb128 0x34
 11633 0279 00       		.byte	0
 11634 027a 03       		.uleb128 0x3
 11635 027b 0E       		.uleb128 0xe
 11636 027c 3A       		.uleb128 0x3a
 11637 027d 0B       		.uleb128 0xb
 11638 027e 3B       		.uleb128 0x3b
 11639 027f 05       		.uleb128 0x5
 11640 0280 49       		.uleb128 0x49
 11641 0281 13       		.uleb128 0x13
 11642 0282 00       		.byte	0
 11643 0283 00       		.byte	0
 11644 0284 2E       		.uleb128 0x2e
 11645 0285 34       		.uleb128 0x34
 11646 0286 00       		.byte	0
 11647 0287 03       		.uleb128 0x3
 11648 0288 08       		.uleb128 0x8
 11649 0289 3A       		.uleb128 0x3a
 11650 028a 0B       		.uleb128 0xb
 11651 028b 3B       		.uleb128 0x3b
 11652 028c 05       		.uleb128 0x5
 11653 028d 49       		.uleb128 0x49
 11654 028e 13       		.uleb128 0x13
 11655 028f 02       		.uleb128 0x2
 11656 0290 17       		.uleb128 0x17
 11657 0291 00       		.byte	0
 11658 0292 00       		.byte	0
 11659 0293 2F       		.uleb128 0x2f
 11660 0294 34       		.uleb128 0x34
 11661 0295 00       		.byte	0
 11662 0296 03       		.uleb128 0x3
 11663 0297 0E       		.uleb128 0xe
 11664 0298 3A       		.uleb128 0x3a
 11665 0299 0B       		.uleb128 0xb
 11666 029a 3B       		.uleb128 0x3b
ARM GAS  C:\Users\d3bug\AppData\Local\Temp\ccPpCIYA.s 			page 247


 11667 029b 05       		.uleb128 0x5
 11668 029c 49       		.uleb128 0x49
 11669 029d 13       		.uleb128 0x13
 11670 029e 02       		.uleb128 0x2
 11671 029f 18       		.uleb128 0x18
 11672 02a0 00       		.byte	0
 11673 02a1 00       		.byte	0
 11674 02a2 30       		.uleb128 0x30
 11675 02a3 1D       		.uleb128 0x1d
 11676 02a4 01       		.byte	0x1
 11677 02a5 31       		.uleb128 0x31
 11678 02a6 13       		.uleb128 0x13
 11679 02a7 11       		.uleb128 0x11
 11680 02a8 01       		.uleb128 0x1
 11681 02a9 12       		.uleb128 0x12
 11682 02aa 06       		.uleb128 0x6
 11683 02ab 58       		.uleb128 0x58
 11684 02ac 0B       		.uleb128 0xb
 11685 02ad 59       		.uleb128 0x59
 11686 02ae 05       		.uleb128 0x5
 11687 02af 01       		.uleb128 0x1
 11688 02b0 13       		.uleb128 0x13
 11689 02b1 00       		.byte	0
 11690 02b2 00       		.byte	0
 11691 02b3 31       		.uleb128 0x31
 11692 02b4 898201   		.uleb128 0x4109
 11693 02b7 00       		.byte	0
 11694 02b8 11       		.uleb128 0x11
 11695 02b9 01       		.uleb128 0x1
 11696 02ba 31       		.uleb128 0x31
 11697 02bb 13       		.uleb128 0x13
 11698 02bc 00       		.byte	0
 11699 02bd 00       		.byte	0
 11700 02be 32       		.uleb128 0x32
 11701 02bf 898201   		.uleb128 0x4109
 11702 02c2 01       		.byte	0x1
 11703 02c3 11       		.uleb128 0x11
 11704 02c4 01       		.uleb128 0x1
 11705 02c5 9342     		.uleb128 0x2113
 11706 02c7 18       		.uleb128 0x18
 11707 02c8 01       		.uleb128 0x1
 11708 02c9 13       		.uleb128 0x13
 11709 02ca 00       		.byte	0
 11710 02cb 00       		.byte	0
 11711 02cc 33       		.uleb128 0x33
 11712 02cd 05       		.uleb128 0x5
 11713 02ce 00       		.byte	0
 11714 02cf 03       		.uleb128 0x3
 11715 02d0 08       		.uleb128 0x8
 11716 02d1 3A       		.uleb128 0x3a
 11717 02d2 0B       		.uleb128 0xb
 11718 02d3 3B       		.uleb128 0x3b
 11719 02d4 05       		.uleb128 0x5
 11720 02d5 49       		.uleb128 0x49
 11721 02d6 13       		.uleb128 0x13
 11722 02d7 02       		.uleb128 0x2
 11723 02d8 18       		.uleb128 0x18
ARM GAS  C:\Users\d3bug\AppData\Local\Temp\ccPpCIYA.s 			page 248


 11724 02d9 00       		.byte	0
 11725 02da 00       		.byte	0
 11726 02db 34       		.uleb128 0x34
 11727 02dc 01       		.uleb128 0x1
 11728 02dd 01       		.byte	0x1
 11729 02de 49       		.uleb128 0x49
 11730 02df 13       		.uleb128 0x13
 11731 02e0 01       		.uleb128 0x1
 11732 02e1 13       		.uleb128 0x13
 11733 02e2 00       		.byte	0
 11734 02e3 00       		.byte	0
 11735 02e4 35       		.uleb128 0x35
 11736 02e5 21       		.uleb128 0x21
 11737 02e6 00       		.byte	0
 11738 02e7 49       		.uleb128 0x49
 11739 02e8 13       		.uleb128 0x13
 11740 02e9 2F       		.uleb128 0x2f
 11741 02ea 0B       		.uleb128 0xb
 11742 02eb 00       		.byte	0
 11743 02ec 00       		.byte	0
 11744 02ed 36       		.uleb128 0x36
 11745 02ee 898201   		.uleb128 0x4109
 11746 02f1 01       		.byte	0x1
 11747 02f2 11       		.uleb128 0x11
 11748 02f3 01       		.uleb128 0x1
 11749 02f4 31       		.uleb128 0x31
 11750 02f5 13       		.uleb128 0x13
 11751 02f6 00       		.byte	0
 11752 02f7 00       		.byte	0
 11753 02f8 37       		.uleb128 0x37
 11754 02f9 34       		.uleb128 0x34
 11755 02fa 00       		.byte	0
 11756 02fb 03       		.uleb128 0x3
 11757 02fc 08       		.uleb128 0x8
 11758 02fd 3A       		.uleb128 0x3a
 11759 02fe 0B       		.uleb128 0xb
 11760 02ff 3B       		.uleb128 0x3b
 11761 0300 0B       		.uleb128 0xb
 11762 0301 49       		.uleb128 0x49
 11763 0302 13       		.uleb128 0x13
 11764 0303 02       		.uleb128 0x2
 11765 0304 18       		.uleb128 0x18
 11766 0305 00       		.byte	0
 11767 0306 00       		.byte	0
 11768 0307 38       		.uleb128 0x38
 11769 0308 898201   		.uleb128 0x4109
 11770 030b 01       		.byte	0x1
 11771 030c 11       		.uleb128 0x11
 11772 030d 01       		.uleb128 0x1
 11773 030e 01       		.uleb128 0x1
 11774 030f 13       		.uleb128 0x13
 11775 0310 00       		.byte	0
 11776 0311 00       		.byte	0
 11777 0312 39       		.uleb128 0x39
 11778 0313 898201   		.uleb128 0x4109
 11779 0316 01       		.byte	0x1
 11780 0317 11       		.uleb128 0x11
ARM GAS  C:\Users\d3bug\AppData\Local\Temp\ccPpCIYA.s 			page 249


 11781 0318 01       		.uleb128 0x1
 11782 0319 00       		.byte	0
 11783 031a 00       		.byte	0
 11784 031b 3A       		.uleb128 0x3a
 11785 031c 34       		.uleb128 0x34
 11786 031d 00       		.byte	0
 11787 031e 31       		.uleb128 0x31
 11788 031f 13       		.uleb128 0x13
 11789 0320 00       		.byte	0
 11790 0321 00       		.byte	0
 11791 0322 3B       		.uleb128 0x3b
 11792 0323 2E       		.uleb128 0x2e
 11793 0324 01       		.byte	0x1
 11794 0325 3F       		.uleb128 0x3f
 11795 0326 19       		.uleb128 0x19
 11796 0327 03       		.uleb128 0x3
 11797 0328 0E       		.uleb128 0xe
 11798 0329 3A       		.uleb128 0x3a
 11799 032a 0B       		.uleb128 0xb
 11800 032b 3B       		.uleb128 0x3b
 11801 032c 0B       		.uleb128 0xb
 11802 032d 27       		.uleb128 0x27
 11803 032e 19       		.uleb128 0x19
 11804 032f 11       		.uleb128 0x11
 11805 0330 01       		.uleb128 0x1
 11806 0331 12       		.uleb128 0x12
 11807 0332 06       		.uleb128 0x6
 11808 0333 40       		.uleb128 0x40
 11809 0334 18       		.uleb128 0x18
 11810 0335 9742     		.uleb128 0x2117
 11811 0337 19       		.uleb128 0x19
 11812 0338 01       		.uleb128 0x1
 11813 0339 13       		.uleb128 0x13
 11814 033a 00       		.byte	0
 11815 033b 00       		.byte	0
 11816 033c 3C       		.uleb128 0x3c
 11817 033d 15       		.uleb128 0x15
 11818 033e 01       		.byte	0x1
 11819 033f 27       		.uleb128 0x27
 11820 0340 19       		.uleb128 0x19
 11821 0341 01       		.uleb128 0x1
 11822 0342 13       		.uleb128 0x13
 11823 0343 00       		.byte	0
 11824 0344 00       		.byte	0
 11825 0345 3D       		.uleb128 0x3d
 11826 0346 34       		.uleb128 0x34
 11827 0347 00       		.byte	0
 11828 0348 03       		.uleb128 0x3
 11829 0349 0E       		.uleb128 0xe
 11830 034a 3A       		.uleb128 0x3a
 11831 034b 0B       		.uleb128 0xb
 11832 034c 3B       		.uleb128 0x3b
 11833 034d 0B       		.uleb128 0xb
 11834 034e 49       		.uleb128 0x49
 11835 034f 13       		.uleb128 0x13
 11836 0350 3F       		.uleb128 0x3f
 11837 0351 19       		.uleb128 0x19
ARM GAS  C:\Users\d3bug\AppData\Local\Temp\ccPpCIYA.s 			page 250


 11838 0352 3C       		.uleb128 0x3c
 11839 0353 19       		.uleb128 0x19
 11840 0354 00       		.byte	0
 11841 0355 00       		.byte	0
 11842 0356 3E       		.uleb128 0x3e
 11843 0357 2E       		.uleb128 0x2e
 11844 0358 00       		.byte	0
 11845 0359 3F       		.uleb128 0x3f
 11846 035a 19       		.uleb128 0x19
 11847 035b 3C       		.uleb128 0x3c
 11848 035c 19       		.uleb128 0x19
 11849 035d 6E       		.uleb128 0x6e
 11850 035e 0E       		.uleb128 0xe
 11851 035f 03       		.uleb128 0x3
 11852 0360 0E       		.uleb128 0xe
 11853 0361 3A       		.uleb128 0x3a
 11854 0362 0B       		.uleb128 0xb
 11855 0363 3B       		.uleb128 0x3b
 11856 0364 0B       		.uleb128 0xb
 11857 0365 00       		.byte	0
 11858 0366 00       		.byte	0
 11859 0367 00       		.byte	0
 11860              		.section	.debug_loc,"",%progbits
 11861              	.Ldebug_loc0:
 11862              	.LLST0:
 11863 0000 00000000 		.4byte	.LVL0
 11864 0004 08000000 		.4byte	.LVL2
 11865 0008 0100     		.2byte	0x1
 11866 000a 50       		.byte	0x50
 11867 000b 08000000 		.4byte	.LVL2
 11868 000f 0C000000 		.4byte	.LVL3
 11869 0013 0100     		.2byte	0x1
 11870 0015 50       		.byte	0x50
 11871 0016 0C000000 		.4byte	.LVL3
 11872 001a 0E000000 		.4byte	.LVL4
 11873 001e 0300     		.2byte	0x3
 11874 0020 70       		.byte	0x70
 11875 0021 01       		.sleb128 1
 11876 0022 9F       		.byte	0x9f
 11877 0023 0E000000 		.4byte	.LVL4
 11878 0027 1A000000 		.4byte	.LVL7
 11879 002b 0100     		.2byte	0x1
 11880 002d 50       		.byte	0x50
 11881 002e 1A000000 		.4byte	.LVL7
 11882 0032 1C000000 		.4byte	.LVL8
 11883 0036 0300     		.2byte	0x3
 11884 0038 70       		.byte	0x70
 11885 0039 01       		.sleb128 1
 11886 003a 9F       		.byte	0x9f
 11887 003b 1C000000 		.4byte	.LVL8
 11888 003f 20000000 		.4byte	.LVL9
 11889 0043 0100     		.2byte	0x1
 11890 0045 50       		.byte	0x50
 11891 0046 22000000 		.4byte	.LVL10
 11892 004a 24000000 		.4byte	.LFE17
 11893 004e 0100     		.2byte	0x1
 11894 0050 50       		.byte	0x50
ARM GAS  C:\Users\d3bug\AppData\Local\Temp\ccPpCIYA.s 			page 251


 11895 0051 00000000 		.4byte	0
 11896 0055 00000000 		.4byte	0
 11897              	.LLST1:
 11898 0059 00000000 		.4byte	.LVL0
 11899 005d 02000000 		.4byte	.LVL1
 11900 0061 0100     		.2byte	0x1
 11901 0063 51       		.byte	0x51
 11902 0064 02000000 		.4byte	.LVL1
 11903 0068 24000000 		.4byte	.LFE17
 11904 006c 0400     		.2byte	0x4
 11905 006e F3       		.byte	0xf3
 11906 006f 01       		.uleb128 0x1
 11907 0070 51       		.byte	0x51
 11908 0071 9F       		.byte	0x9f
 11909 0072 00000000 		.4byte	0
 11910 0076 00000000 		.4byte	0
 11911              	.LLST2:
 11912 007a 00000000 		.4byte	.LVL0
 11913 007e 10000000 		.4byte	.LVL5
 11914 0082 0100     		.2byte	0x1
 11915 0084 52       		.byte	0x52
 11916 0085 10000000 		.4byte	.LVL5
 11917 0089 24000000 		.4byte	.LFE17
 11918 008d 0400     		.2byte	0x4
 11919 008f F3       		.byte	0xf3
 11920 0090 01       		.uleb128 0x1
 11921 0091 52       		.byte	0x52
 11922 0092 9F       		.byte	0x9f
 11923 0093 00000000 		.4byte	0
 11924 0097 00000000 		.4byte	0
 11925              	.LLST3:
 11926 009b 00000000 		.4byte	.LVL11
 11927 009f 0E000000 		.4byte	.LVL12
 11928 00a3 0100     		.2byte	0x1
 11929 00a5 50       		.byte	0x50
 11930 00a6 0E000000 		.4byte	.LVL12
 11931 00aa 3C010000 		.4byte	.LVL44
 11932 00ae 0100     		.2byte	0x1
 11933 00b0 55       		.byte	0x55
 11934 00b1 3C010000 		.4byte	.LVL44
 11935 00b5 40010000 		.4byte	.LFE13
 11936 00b9 0400     		.2byte	0x4
 11937 00bb F3       		.byte	0xf3
 11938 00bc 01       		.uleb128 0x1
 11939 00bd 50       		.byte	0x50
 11940 00be 9F       		.byte	0x9f
 11941 00bf 00000000 		.4byte	0
 11942 00c3 00000000 		.4byte	0
 11943              	.LLST4:
 11944 00c7 00000000 		.4byte	.LVL11
 11945 00cb 3A000000 		.4byte	.LVL16
 11946 00cf 0100     		.2byte	0x1
 11947 00d1 51       		.byte	0x51
 11948 00d2 3A000000 		.4byte	.LVL16
 11949 00d6 38010000 		.4byte	.LVL43
 11950 00da 0200     		.2byte	0x2
 11951 00dc 7D       		.byte	0x7d
ARM GAS  C:\Users\d3bug\AppData\Local\Temp\ccPpCIYA.s 			page 252


 11952 00dd 00       		.sleb128 0
 11953 00de 38010000 		.4byte	.LVL43
 11954 00e2 3C010000 		.4byte	.LVL44
 11955 00e6 0300     		.2byte	0x3
 11956 00e8 91       		.byte	0x91
 11957 00e9 B87F     		.sleb128 -72
 11958 00eb 3C010000 		.4byte	.LVL44
 11959 00ef 40010000 		.4byte	.LFE13
 11960 00f3 0300     		.2byte	0x3
 11961 00f5 7D       		.byte	0x7d
 11962 00f6 B87F     		.sleb128 -72
 11963 00f8 00000000 		.4byte	0
 11964 00fc 00000000 		.4byte	0
 11965              	.LLST5:
 11966 0100 00000000 		.4byte	.LVL11
 11967 0104 10000000 		.4byte	.LVL13
 11968 0108 0100     		.2byte	0x1
 11969 010a 52       		.byte	0x52
 11970 010b 10000000 		.4byte	.LVL13
 11971 010f E8000000 		.4byte	.LVL31
 11972 0113 0100     		.2byte	0x1
 11973 0115 57       		.byte	0x57
 11974 0116 E8000000 		.4byte	.LVL31
 11975 011a 2E010000 		.4byte	.LVL40
 11976 011e 0400     		.2byte	0x4
 11977 0120 F3       		.byte	0xf3
 11978 0121 01       		.uleb128 0x1
 11979 0122 52       		.byte	0x52
 11980 0123 9F       		.byte	0x9f
 11981 0124 2E010000 		.4byte	.LVL40
 11982 0128 32010000 		.4byte	.LVL41
 11983 012c 0100     		.2byte	0x1
 11984 012e 57       		.byte	0x57
 11985 012f 32010000 		.4byte	.LVL41
 11986 0133 40010000 		.4byte	.LFE13
 11987 0137 0400     		.2byte	0x4
 11988 0139 F3       		.byte	0xf3
 11989 013a 01       		.uleb128 0x1
 11990 013b 52       		.byte	0x52
 11991 013c 9F       		.byte	0x9f
 11992 013d 00000000 		.4byte	0
 11993 0141 00000000 		.4byte	0
 11994              	.LLST6:
 11995 0145 00000000 		.4byte	.LVL11
 11996 0149 4C000000 		.4byte	.LVL18
 11997 014d 0100     		.2byte	0x1
 11998 014f 53       		.byte	0x53
 11999 0150 4C000000 		.4byte	.LVL18
 12000 0154 40010000 		.4byte	.LFE13
 12001 0158 0400     		.2byte	0x4
 12002 015a F3       		.byte	0xf3
 12003 015b 01       		.uleb128 0x1
 12004 015c 53       		.byte	0x53
 12005 015d 9F       		.byte	0x9f
 12006 015e 00000000 		.4byte	0
 12007 0162 00000000 		.4byte	0
 12008              	.LLST7:
ARM GAS  C:\Users\d3bug\AppData\Local\Temp\ccPpCIYA.s 			page 253


 12009 0166 0E000000 		.4byte	.LVL12
 12010 016a 55000000 		.4byte	.LVL20-1
 12011 016e 0100     		.2byte	0x1
 12012 0170 50       		.byte	0x50
 12013 0171 56000000 		.4byte	.LVL20
 12014 0175 84000000 		.4byte	.LVL21
 12015 0179 0100     		.2byte	0x1
 12016 017b 50       		.byte	0x50
 12017 017c AE000000 		.4byte	.LVL23
 12018 0180 BE000000 		.4byte	.LVL25
 12019 0184 0100     		.2byte	0x1
 12020 0186 50       		.byte	0x50
 12021 0187 00000000 		.4byte	0
 12022 018b 00000000 		.4byte	0
 12023              	.LLST8:
 12024 018f E8000000 		.4byte	.LVL31
 12025 0193 2E010000 		.4byte	.LVL40
 12026 0197 0100     		.2byte	0x1
 12027 0199 59       		.byte	0x59
 12028 019a 32010000 		.4byte	.LVL41
 12029 019e 3C010000 		.4byte	.LVL44
 12030 01a2 0100     		.2byte	0x1
 12031 01a4 59       		.byte	0x59
 12032 01a5 00000000 		.4byte	0
 12033 01a9 00000000 		.4byte	0
 12034              	.LLST9:
 12035 01ad 00010000 		.4byte	.LVL32
 12036 01b1 08010000 		.4byte	.LVL33
 12037 01b5 0100     		.2byte	0x1
 12038 01b7 53       		.byte	0x53
 12039 01b8 08010000 		.4byte	.LVL33
 12040 01bc 0E010000 		.4byte	.LVL34
 12041 01c0 1800     		.2byte	0x18
 12042 01c2 75       		.byte	0x75
 12043 01c3 06       		.sleb128 6
 12044 01c4 94       		.byte	0x94
 12045 01c5 02       		.byte	0x2
 12046 01c6 40       		.byte	0x40
 12047 01c7 24       		.byte	0x24
 12048 01c8 40       		.byte	0x40
 12049 01c9 26       		.byte	0x26
 12050 01ca 7A       		.byte	0x7a
 12051 01cb 00       		.sleb128 0
 12052 01cc 1C       		.byte	0x1c
 12053 01cd 08       		.byte	0x8
 12054 01ce FF       		.byte	0xff
 12055 01cf 1E       		.byte	0x1e
 12056 01d0 F7       		.byte	0xf7
 12057 01d1 25       		.uleb128 0x25
 12058 01d2 74       		.byte	0x74
 12059 01d3 00       		.sleb128 0
 12060 01d4 F7       		.byte	0xf7
 12061 01d5 25       		.uleb128 0x25
 12062 01d6 1B       		.byte	0x1b
 12063 01d7 F7       		.byte	0xf7
 12064 01d8 00       		.uleb128 0
 12065 01d9 9F       		.byte	0x9f
ARM GAS  C:\Users\d3bug\AppData\Local\Temp\ccPpCIYA.s 			page 254


 12066 01da 0E010000 		.4byte	.LVL34
 12067 01de 12010000 		.4byte	.LVL35
 12068 01e2 0100     		.2byte	0x1
 12069 01e4 53       		.byte	0x53
 12070 01e5 12010000 		.4byte	.LVL35
 12071 01e9 23010000 		.4byte	.LVL37-1
 12072 01ed 1800     		.2byte	0x18
 12073 01ef 75       		.byte	0x75
 12074 01f0 06       		.sleb128 6
 12075 01f1 94       		.byte	0x94
 12076 01f2 02       		.byte	0x2
 12077 01f3 40       		.byte	0x40
 12078 01f4 24       		.byte	0x24
 12079 01f5 40       		.byte	0x40
 12080 01f6 26       		.byte	0x26
 12081 01f7 7A       		.byte	0x7a
 12082 01f8 00       		.sleb128 0
 12083 01f9 1C       		.byte	0x1c
 12084 01fa 08       		.byte	0x8
 12085 01fb FF       		.byte	0xff
 12086 01fc 1E       		.byte	0x1e
 12087 01fd F7       		.byte	0xf7
 12088 01fe 25       		.uleb128 0x25
 12089 01ff 74       		.byte	0x74
 12090 0200 00       		.sleb128 0
 12091 0201 F7       		.byte	0xf7
 12092 0202 25       		.uleb128 0x25
 12093 0203 1B       		.byte	0x1b
 12094 0204 F7       		.byte	0xf7
 12095 0205 00       		.uleb128 0
 12096 0206 9F       		.byte	0x9f
 12097 0207 00000000 		.4byte	0
 12098 020b 00000000 		.4byte	0
 12099              	.LLST10:
 12100 020f 50000000 		.4byte	.LVL19
 12101 0213 3C010000 		.4byte	.LVL44
 12102 0217 0100     		.2byte	0x1
 12103 0219 56       		.byte	0x56
 12104 021a 00000000 		.4byte	0
 12105 021e 00000000 		.4byte	0
 12106              	.LLST11:
 12107 0222 1E000000 		.4byte	.LVL14
 12108 0226 2E000000 		.4byte	.LVL15
 12109 022a 0100     		.2byte	0x1
 12110 022c 55       		.byte	0x55
 12111 022d 00000000 		.4byte	0
 12112 0231 00000000 		.4byte	0
 12113              	.LLST12:
 12114 0235 2E000000 		.4byte	.LVL15
 12115 0239 3E000000 		.4byte	.LVL17
 12116 023d 0100     		.2byte	0x1
 12117 023f 55       		.byte	0x55
 12118 0240 00000000 		.4byte	0
 12119 0244 00000000 		.4byte	0
 12120              	.LLST13:
 12121 0248 E8000000 		.4byte	.LVL31
 12122 024c 28010000 		.4byte	.LVL38
ARM GAS  C:\Users\d3bug\AppData\Local\Temp\ccPpCIYA.s 			page 255


 12123 0250 0100     		.2byte	0x1
 12124 0252 5A       		.byte	0x5a
 12125 0253 2C010000 		.4byte	.LVL39
 12126 0257 2E010000 		.4byte	.LVL40
 12127 025b 0100     		.2byte	0x1
 12128 025d 5A       		.byte	0x5a
 12129 025e 32010000 		.4byte	.LVL41
 12130 0262 36010000 		.4byte	.LVL42
 12131 0266 0100     		.2byte	0x1
 12132 0268 5A       		.byte	0x5a
 12133 0269 00000000 		.4byte	0
 12134 026d 00000000 		.4byte	0
 12135              	.LLST14:
 12136 0271 BA000000 		.4byte	.LVL24
 12137 0275 CE000000 		.4byte	.LVL27
 12138 0279 0100     		.2byte	0x1
 12139 027b 5A       		.byte	0x5a
 12140 027c CE000000 		.4byte	.LVL27
 12141 0280 D2000000 		.4byte	.LVL28
 12142 0284 0100     		.2byte	0x1
 12143 0286 53       		.byte	0x53
 12144 0287 D2000000 		.4byte	.LVL28
 12145 028b E2000000 		.4byte	.LVL30
 12146 028f 0100     		.2byte	0x1
 12147 0291 5A       		.byte	0x5a
 12148 0292 2E010000 		.4byte	.LVL40
 12149 0296 32010000 		.4byte	.LVL41
 12150 029a 0100     		.2byte	0x1
 12151 029c 5A       		.byte	0x5a
 12152 029d 00000000 		.4byte	0
 12153 02a1 00000000 		.4byte	0
 12154              	.LLST15:
 12155 02a5 C4000000 		.4byte	.LVL26
 12156 02a9 36010000 		.4byte	.LVL42
 12157 02ad 0100     		.2byte	0x1
 12158 02af 5B       		.byte	0x5b
 12159 02b0 00000000 		.4byte	0
 12160 02b4 00000000 		.4byte	0
 12161              	.LLST16:
 12162 02b8 00010000 		.4byte	.LVL32
 12163 02bc 08010000 		.4byte	.LVL33
 12164 02c0 0100     		.2byte	0x1
 12165 02c2 53       		.byte	0x53
 12166 02c3 08010000 		.4byte	.LVL33
 12167 02c7 0E010000 		.4byte	.LVL34
 12168 02cb 1800     		.2byte	0x18
 12169 02cd 75       		.byte	0x75
 12170 02ce 06       		.sleb128 6
 12171 02cf 94       		.byte	0x94
 12172 02d0 02       		.byte	0x2
 12173 02d1 40       		.byte	0x40
 12174 02d2 24       		.byte	0x24
 12175 02d3 40       		.byte	0x40
 12176 02d4 26       		.byte	0x26
 12177 02d5 7A       		.byte	0x7a
 12178 02d6 00       		.sleb128 0
 12179 02d7 1C       		.byte	0x1c
ARM GAS  C:\Users\d3bug\AppData\Local\Temp\ccPpCIYA.s 			page 256


 12180 02d8 08       		.byte	0x8
 12181 02d9 FF       		.byte	0xff
 12182 02da 1E       		.byte	0x1e
 12183 02db F7       		.byte	0xf7
 12184 02dc 25       		.uleb128 0x25
 12185 02dd 74       		.byte	0x74
 12186 02de 00       		.sleb128 0
 12187 02df F7       		.byte	0xf7
 12188 02e0 25       		.uleb128 0x25
 12189 02e1 1B       		.byte	0x1b
 12190 02e2 F7       		.byte	0xf7
 12191 02e3 00       		.uleb128 0
 12192 02e4 9F       		.byte	0x9f
 12193 02e5 0E010000 		.4byte	.LVL34
 12194 02e9 12010000 		.4byte	.LVL35
 12195 02ed 0100     		.2byte	0x1
 12196 02ef 53       		.byte	0x53
 12197 02f0 12010000 		.4byte	.LVL35
 12198 02f4 16010000 		.4byte	.LVL36
 12199 02f8 1800     		.2byte	0x18
 12200 02fa 75       		.byte	0x75
 12201 02fb 06       		.sleb128 6
 12202 02fc 94       		.byte	0x94
 12203 02fd 02       		.byte	0x2
 12204 02fe 40       		.byte	0x40
 12205 02ff 24       		.byte	0x24
 12206 0300 40       		.byte	0x40
 12207 0301 26       		.byte	0x26
 12208 0302 7A       		.byte	0x7a
 12209 0303 00       		.sleb128 0
 12210 0304 1C       		.byte	0x1c
 12211 0305 08       		.byte	0x8
 12212 0306 FF       		.byte	0xff
 12213 0307 1E       		.byte	0x1e
 12214 0308 F7       		.byte	0xf7
 12215 0309 25       		.uleb128 0x25
 12216 030a 74       		.byte	0x74
 12217 030b 00       		.sleb128 0
 12218 030c F7       		.byte	0xf7
 12219 030d 25       		.uleb128 0x25
 12220 030e 1B       		.byte	0x1b
 12221 030f F7       		.byte	0xf7
 12222 0310 00       		.uleb128 0
 12223 0311 9F       		.byte	0x9f
 12224 0312 00000000 		.4byte	0
 12225 0316 00000000 		.4byte	0
 12226              	.LLST17:
 12227 031a E8000000 		.4byte	.LVL31
 12228 031e 2E010000 		.4byte	.LVL40
 12229 0322 0100     		.2byte	0x1
 12230 0324 58       		.byte	0x58
 12231 0325 32010000 		.4byte	.LVL41
 12232 0329 3C010000 		.4byte	.LVL44
 12233 032d 0100     		.2byte	0x1
 12234 032f 58       		.byte	0x58
 12235 0330 00000000 		.4byte	0
 12236 0334 00000000 		.4byte	0
ARM GAS  C:\Users\d3bug\AppData\Local\Temp\ccPpCIYA.s 			page 257


 12237              	.LLST18:
 12238 0338 00000000 		.4byte	.LVL45
 12239 033c 14000000 		.4byte	.LVL47
 12240 0340 0100     		.2byte	0x1
 12241 0342 50       		.byte	0x50
 12242 0343 14000000 		.4byte	.LVL47
 12243 0347 72010000 		.4byte	.LVL73
 12244 034b 0100     		.2byte	0x1
 12245 034d 54       		.byte	0x54
 12246 034e 72010000 		.4byte	.LVL73
 12247 0352 80010000 		.4byte	.LVL75
 12248 0356 0400     		.2byte	0x4
 12249 0358 F3       		.byte	0xf3
 12250 0359 01       		.uleb128 0x1
 12251 035a 50       		.byte	0x50
 12252 035b 9F       		.byte	0x9f
 12253 035c 80010000 		.4byte	.LVL75
 12254 0360 34040000 		.4byte	.LVL91
 12255 0364 0100     		.2byte	0x1
 12256 0366 54       		.byte	0x54
 12257 0367 34040000 		.4byte	.LVL91
 12258 036b 4C040000 		.4byte	.LFE15
 12259 036f 0400     		.2byte	0x4
 12260 0371 F3       		.byte	0xf3
 12261 0372 01       		.uleb128 0x1
 12262 0373 50       		.byte	0x50
 12263 0374 9F       		.byte	0x9f
 12264 0375 00000000 		.4byte	0
 12265 0379 00000000 		.4byte	0
 12266              	.LLST19:
 12267 037d 00000000 		.4byte	.LVL45
 12268 0381 22000000 		.4byte	.LVL48
 12269 0385 0100     		.2byte	0x1
 12270 0387 51       		.byte	0x51
 12271 0388 22000000 		.4byte	.LVL48
 12272 038c 46040000 		.4byte	.LVL93
 12273 0390 0300     		.2byte	0x3
 12274 0392 91       		.byte	0x91
 12275 0393 B87F     		.sleb128 -72
 12276 0395 46040000 		.4byte	.LVL93
 12277 0399 4C040000 		.4byte	.LFE15
 12278 039d 0300     		.2byte	0x3
 12279 039f 7D       		.byte	0x7d
 12280 03a0 B87F     		.sleb128 -72
 12281 03a2 00000000 		.4byte	0
 12282 03a6 00000000 		.4byte	0
 12283              	.LLST20:
 12284 03aa 00000000 		.4byte	.LVL45
 12285 03ae 10000000 		.4byte	.LVL46
 12286 03b2 0100     		.2byte	0x1
 12287 03b4 52       		.byte	0x52
 12288 03b5 10000000 		.4byte	.LVL46
 12289 03b9 88000000 		.4byte	.LVL67
 12290 03bd 0100     		.2byte	0x1
 12291 03bf 57       		.byte	0x57
 12292 03c0 88000000 		.4byte	.LVL67
 12293 03c4 80010000 		.4byte	.LVL75
ARM GAS  C:\Users\d3bug\AppData\Local\Temp\ccPpCIYA.s 			page 258


 12294 03c8 0400     		.2byte	0x4
 12295 03ca F3       		.byte	0xf3
 12296 03cb 01       		.uleb128 0x1
 12297 03cc 52       		.byte	0x52
 12298 03cd 9F       		.byte	0x9f
 12299 03ce 80010000 		.4byte	.LVL75
 12300 03d2 40040000 		.4byte	.LVL92
 12301 03d6 0100     		.2byte	0x1
 12302 03d8 57       		.byte	0x57
 12303 03d9 40040000 		.4byte	.LVL92
 12304 03dd 4C040000 		.4byte	.LFE15
 12305 03e1 0400     		.2byte	0x4
 12306 03e3 F3       		.byte	0xf3
 12307 03e4 01       		.uleb128 0x1
 12308 03e5 52       		.byte	0x52
 12309 03e6 9F       		.byte	0x9f
 12310 03e7 00000000 		.4byte	0
 12311 03eb 00000000 		.4byte	0
 12312              	.LLST21:
 12313 03ef 00000000 		.4byte	.LVL45
 12314 03f3 40000000 		.4byte	.LVL52
 12315 03f7 0100     		.2byte	0x1
 12316 03f9 53       		.byte	0x53
 12317 03fa 40000000 		.4byte	.LVL52
 12318 03fe 44000000 		.4byte	.LVL53
 12319 0402 0400     		.2byte	0x4
 12320 0404 F3       		.byte	0xf3
 12321 0405 01       		.uleb128 0x1
 12322 0406 53       		.byte	0x53
 12323 0407 9F       		.byte	0x9f
 12324 0408 44000000 		.4byte	.LVL53
 12325 040c 4A000000 		.4byte	.LVL54
 12326 0410 0100     		.2byte	0x1
 12327 0412 53       		.byte	0x53
 12328 0413 4A000000 		.4byte	.LVL54
 12329 0417 4C040000 		.4byte	.LFE15
 12330 041b 0400     		.2byte	0x4
 12331 041d F3       		.byte	0xf3
 12332 041e 01       		.uleb128 0x1
 12333 041f 53       		.byte	0x53
 12334 0420 9F       		.byte	0x9f
 12335 0421 00000000 		.4byte	0
 12336 0425 00000000 		.4byte	0
 12337              	.LLST22:
 12338 0429 14000000 		.4byte	.LVL47
 12339 042d 5F000000 		.4byte	.LVL59-1
 12340 0431 0100     		.2byte	0x1
 12341 0433 50       		.byte	0x50
 12342 0434 5F000000 		.4byte	.LVL59-1
 12343 0438 62000000 		.4byte	.LVL60
 12344 043c 0200     		.2byte	0x2
 12345 043e 91       		.byte	0x91
 12346 043f 48       		.sleb128 -56
 12347 0440 62000000 		.4byte	.LVL60
 12348 0444 B4000000 		.4byte	.LVL68
 12349 0448 0100     		.2byte	0x1
 12350 044a 50       		.byte	0x50
ARM GAS  C:\Users\d3bug\AppData\Local\Temp\ccPpCIYA.s 			page 259


 12351 044b 80010000 		.4byte	.LVL75
 12352 044f E4010000 		.4byte	.LVL77
 12353 0453 0100     		.2byte	0x1
 12354 0455 50       		.byte	0x50
 12355 0456 00000000 		.4byte	0
 12356 045a 00000000 		.4byte	0
 12357              	.LLST23:
 12358 045e 3A000000 		.4byte	.LVL51
 12359 0462 5C000000 		.4byte	.LVL58
 12360 0466 0200     		.2byte	0x2
 12361 0468 91       		.byte	0x91
 12362 0469 40       		.sleb128 -64
 12363 046a 5C000000 		.4byte	.LVL58
 12364 046e 66010000 		.4byte	.LVL72
 12365 0472 0100     		.2byte	0x1
 12366 0474 56       		.byte	0x56
 12367 0475 66010000 		.4byte	.LVL72
 12368 0479 80010000 		.4byte	.LVL75
 12369 047d 0600     		.2byte	0x6
 12370 047f 91       		.byte	0x91
 12371 0480 40       		.sleb128 -64
 12372 0481 06       		.byte	0x6
 12373 0482 31       		.byte	0x31
 12374 0483 1C       		.byte	0x1c
 12375 0484 9F       		.byte	0x9f
 12376 0485 80010000 		.4byte	.LVL75
 12377 0489 52030000 		.4byte	.LVL86
 12378 048d 0100     		.2byte	0x1
 12379 048f 56       		.byte	0x56
 12380 0490 00000000 		.4byte	0
 12381 0494 00000000 		.4byte	0
 12382              	.LLST24:
 12383 0498 50000000 		.4byte	.LVL55
 12384 049c 46040000 		.4byte	.LVL93
 12385 04a0 0300     		.2byte	0x3
 12386 04a2 91       		.byte	0x91
 12387 04a3 B47F     		.sleb128 -76
 12388 04a5 46040000 		.4byte	.LVL93
 12389 04a9 4C040000 		.4byte	.LFE15
 12390 04ad 0300     		.2byte	0x3
 12391 04af 7D       		.byte	0x7d
 12392 04b0 B47F     		.sleb128 -76
 12393 04b2 00000000 		.4byte	0
 12394 04b6 00000000 		.4byte	0
 12395              	.LLST25:
 12396 04ba 52000000 		.4byte	.LVL56
 12397 04be 46040000 		.4byte	.LVL93
 12398 04c2 0100     		.2byte	0x1
 12399 04c4 55       		.byte	0x55
 12400 04c5 00000000 		.4byte	0
 12401 04c9 00000000 		.4byte	0
 12402              	.LLST26:
 12403 04cd 56000000 		.4byte	.LVL57
 12404 04d1 6E000000 		.4byte	.LVL61
 12405 04d5 0200     		.2byte	0x2
 12406 04d7 30       		.byte	0x30
 12407 04d8 9F       		.byte	0x9f
ARM GAS  C:\Users\d3bug\AppData\Local\Temp\ccPpCIYA.s 			page 260


 12408 04d9 6E000000 		.4byte	.LVL61
 12409 04dd 72000000 		.4byte	.LVL63
 12410 04e1 0200     		.2byte	0x2
 12411 04e3 91       		.byte	0x91
 12412 04e4 44       		.sleb128 -60
 12413 04e5 72000000 		.4byte	.LVL63
 12414 04e9 7A000000 		.4byte	.LVL65
 12415 04ed 0200     		.2byte	0x2
 12416 04ef 30       		.byte	0x30
 12417 04f0 9F       		.byte	0x9f
 12418 04f1 7A000000 		.4byte	.LVL65
 12419 04f5 46040000 		.4byte	.LVL93
 12420 04f9 0200     		.2byte	0x2
 12421 04fb 91       		.byte	0x91
 12422 04fc 44       		.sleb128 -60
 12423 04fd 46040000 		.4byte	.LVL93
 12424 0501 4C040000 		.4byte	.LFE15
 12425 0505 0200     		.2byte	0x2
 12426 0507 7D       		.byte	0x7d
 12427 0508 44       		.sleb128 -60
 12428 0509 00000000 		.4byte	0
 12429 050d 00000000 		.4byte	0
 12430              	.LLST27:
 12431 0511 56000000 		.4byte	.LVL57
 12432 0515 70000000 		.4byte	.LVL62
 12433 0519 0200     		.2byte	0x2
 12434 051b 30       		.byte	0x30
 12435 051c 9F       		.byte	0x9f
 12436 051d 70000000 		.4byte	.LVL62
 12437 0521 72000000 		.4byte	.LVL63
 12438 0525 0100     		.2byte	0x1
 12439 0527 53       		.byte	0x53
 12440 0528 72000000 		.4byte	.LVL63
 12441 052c 76000000 		.4byte	.LVL64
 12442 0530 0200     		.2byte	0x2
 12443 0532 30       		.byte	0x30
 12444 0533 9F       		.byte	0x9f
 12445 0534 76000000 		.4byte	.LVL64
 12446 0538 84000000 		.4byte	.LVL66
 12447 053c 0100     		.2byte	0x1
 12448 053e 53       		.byte	0x53
 12449 053f 80010000 		.4byte	.LVL75
 12450 0543 88010000 		.4byte	.LVL76
 12451 0547 0100     		.2byte	0x1
 12452 0549 53       		.byte	0x53
 12453 054a 88010000 		.4byte	.LVL76
 12454 054e 24020000 		.4byte	.LVL80
 12455 0552 0100     		.2byte	0x1
 12456 0554 5B       		.byte	0x5b
 12457 0555 00000000 		.4byte	0
 12458 0559 00000000 		.4byte	0
 12459              	.LLST28:
 12460 055d 14000000 		.4byte	.LVL47
 12461 0561 26000000 		.4byte	.LVL49
 12462 0565 0100     		.2byte	0x1
 12463 0567 54       		.byte	0x54
 12464 0568 00000000 		.4byte	0
ARM GAS  C:\Users\d3bug\AppData\Local\Temp\ccPpCIYA.s 			page 261


 12465 056c 00000000 		.4byte	0
 12466              	.LLST29:
 12467 0570 26000000 		.4byte	.LVL49
 12468 0574 36000000 		.4byte	.LVL50
 12469 0578 0100     		.2byte	0x1
 12470 057a 54       		.byte	0x54
 12471 057b 00000000 		.4byte	0
 12472 057f 00000000 		.4byte	0
 12473              	.LLST30:
 12474 0583 00000000 		.4byte	.LVL94
 12475 0587 16000000 		.4byte	.LVL97
 12476 058b 0100     		.2byte	0x1
 12477 058d 50       		.byte	0x50
 12478 058e 16000000 		.4byte	.LVL97
 12479 0592 20000000 		.4byte	.LVL98
 12480 0596 0400     		.2byte	0x4
 12481 0598 F3       		.byte	0xf3
 12482 0599 01       		.uleb128 0x1
 12483 059a 50       		.byte	0x50
 12484 059b 9F       		.byte	0x9f
 12485 059c 20000000 		.4byte	.LVL98
 12486 05a0 22000000 		.4byte	.LVL99
 12487 05a4 0100     		.2byte	0x1
 12488 05a6 50       		.byte	0x50
 12489 05a7 22000000 		.4byte	.LVL99
 12490 05ab 24000000 		.4byte	.LVL100
 12491 05af 0400     		.2byte	0x4
 12492 05b1 F3       		.byte	0xf3
 12493 05b2 01       		.uleb128 0x1
 12494 05b3 50       		.byte	0x50
 12495 05b4 9F       		.byte	0x9f
 12496 05b5 24000000 		.4byte	.LVL100
 12497 05b9 26000000 		.4byte	.LVL101
 12498 05bd 0100     		.2byte	0x1
 12499 05bf 50       		.byte	0x50
 12500 05c0 26000000 		.4byte	.LVL101
 12501 05c4 2C000000 		.4byte	.LFE18
 12502 05c8 0400     		.2byte	0x4
 12503 05ca F3       		.byte	0xf3
 12504 05cb 01       		.uleb128 0x1
 12505 05cc 50       		.byte	0x50
 12506 05cd 9F       		.byte	0x9f
 12507 05ce 00000000 		.4byte	0
 12508 05d2 00000000 		.4byte	0
 12509              	.LLST31:
 12510 05d6 00000000 		.4byte	.LVL94
 12511 05da 0A000000 		.4byte	.LVL95
 12512 05de 0100     		.2byte	0x1
 12513 05e0 51       		.byte	0x51
 12514 05e1 0A000000 		.4byte	.LVL95
 12515 05e5 20000000 		.4byte	.LVL98
 12516 05e9 0400     		.2byte	0x4
 12517 05eb F3       		.byte	0xf3
 12518 05ec 01       		.uleb128 0x1
 12519 05ed 51       		.byte	0x51
 12520 05ee 9F       		.byte	0x9f
 12521 05ef 20000000 		.4byte	.LVL98
ARM GAS  C:\Users\d3bug\AppData\Local\Temp\ccPpCIYA.s 			page 262


 12522 05f3 2C000000 		.4byte	.LFE18
 12523 05f7 0100     		.2byte	0x1
 12524 05f9 51       		.byte	0x51
 12525 05fa 00000000 		.4byte	0
 12526 05fe 00000000 		.4byte	0
 12527              	.LLST32:
 12528 0602 10000000 		.4byte	.LVL96
 12529 0606 20000000 		.4byte	.LVL98
 12530 060a 0100     		.2byte	0x1
 12531 060c 51       		.byte	0x51
 12532 060d 00000000 		.4byte	0
 12533 0611 00000000 		.4byte	0
 12534              	.LLST33:
 12535 0615 00000000 		.4byte	.LVL102
 12536 0619 56000000 		.4byte	.LVL119
 12537 061d 0100     		.2byte	0x1
 12538 061f 50       		.byte	0x50
 12539 0620 56000000 		.4byte	.LVL119
 12540 0624 180A0000 		.4byte	.LFE16
 12541 0628 0400     		.2byte	0x4
 12542 062a F3       		.byte	0xf3
 12543 062b 01       		.uleb128 0x1
 12544 062c 50       		.byte	0x50
 12545 062d 9F       		.byte	0x9f
 12546 062e 00000000 		.4byte	0
 12547 0632 00000000 		.4byte	0
 12548              	.LLST34:
 12549 0636 00000000 		.4byte	.LVL102
 12550 063a 0A000000 		.4byte	.LVL103
 12551 063e 0100     		.2byte	0x1
 12552 0640 51       		.byte	0x51
 12553 0641 0A000000 		.4byte	.LVL103
 12554 0645 140A0000 		.4byte	.LVL232
 12555 0649 0300     		.2byte	0x3
 12556 064b 91       		.byte	0x91
 12557 064c F47E     		.sleb128 -140
 12558 064e 140A0000 		.4byte	.LVL232
 12559 0652 180A0000 		.4byte	.LFE16
 12560 0656 0300     		.2byte	0x3
 12561 0658 7D       		.byte	0x7d
 12562 0659 F47E     		.sleb128 -140
 12563 065b 00000000 		.4byte	0
 12564 065f 00000000 		.4byte	0
 12565              	.LLST35:
 12566 0663 00000000 		.4byte	.LVL102
 12567 0667 14000000 		.4byte	.LVL106
 12568 066b 0100     		.2byte	0x1
 12569 066d 52       		.byte	0x52
 12570 066e 14000000 		.4byte	.LVL106
 12571 0672 46000000 		.4byte	.LVL115
 12572 0676 0100     		.2byte	0x1
 12573 0678 51       		.byte	0x51
 12574 0679 46000000 		.4byte	.LVL115
 12575 067d 140A0000 		.4byte	.LVL232
 12576 0681 0300     		.2byte	0x3
 12577 0683 91       		.byte	0x91
 12578 0684 FC7E     		.sleb128 -132
ARM GAS  C:\Users\d3bug\AppData\Local\Temp\ccPpCIYA.s 			page 263


 12579 0686 140A0000 		.4byte	.LVL232
 12580 068a 180A0000 		.4byte	.LFE16
 12581 068e 0300     		.2byte	0x3
 12582 0690 7D       		.byte	0x7d
 12583 0691 FC7E     		.sleb128 -132
 12584 0693 00000000 		.4byte	0
 12585 0697 00000000 		.4byte	0
 12586              	.LLST36:
 12587 069b 00000000 		.4byte	.LVL102
 12588 069f 22000000 		.4byte	.LVL108
 12589 06a3 0100     		.2byte	0x1
 12590 06a5 53       		.byte	0x53
 12591 06a6 22000000 		.4byte	.LVL108
 12592 06aa 26000000 		.4byte	.LVL109
 12593 06ae 0400     		.2byte	0x4
 12594 06b0 F3       		.byte	0xf3
 12595 06b1 01       		.uleb128 0x1
 12596 06b2 53       		.byte	0x53
 12597 06b3 9F       		.byte	0x9f
 12598 06b4 26000000 		.4byte	.LVL109
 12599 06b8 2E000000 		.4byte	.LVL111
 12600 06bc 0100     		.2byte	0x1
 12601 06be 53       		.byte	0x53
 12602 06bf 2E000000 		.4byte	.LVL111
 12603 06c3 180A0000 		.4byte	.LFE16
 12604 06c7 0400     		.2byte	0x4
 12605 06c9 F3       		.byte	0xf3
 12606 06ca 01       		.uleb128 0x1
 12607 06cb 53       		.byte	0x53
 12608 06cc 9F       		.byte	0x9f
 12609 06cd 00000000 		.4byte	0
 12610 06d1 00000000 		.4byte	0
 12611              	.LLST37:
 12612 06d5 0E000000 		.4byte	.LVL104
 12613 06d9 5C000000 		.4byte	.LVL121
 12614 06dd 0100     		.2byte	0x1
 12615 06df 54       		.byte	0x54
 12616 06e0 5C000000 		.4byte	.LVL121
 12617 06e4 92000000 		.4byte	.LVL122
 12618 06e8 0100     		.2byte	0x1
 12619 06ea 50       		.byte	0x50
 12620 06eb 92000000 		.4byte	.LVL122
 12621 06ef 95000000 		.4byte	.LVL123-1
 12622 06f3 0100     		.2byte	0x1
 12623 06f5 52       		.byte	0x52
 12624 06f6 95000000 		.4byte	.LVL123-1
 12625 06fa BA000000 		.4byte	.LVL127
 12626 06fe 0300     		.2byte	0x3
 12627 0700 91       		.byte	0x91
 12628 0701 A07F     		.sleb128 -96
 12629 0703 00000000 		.4byte	0
 12630 0707 00000000 		.4byte	0
 12631              	.LLST38:
 12632 070b 12000000 		.4byte	.LVL105
 12633 070f 34000000 		.4byte	.LVL112
 12634 0713 0100     		.2byte	0x1
 12635 0715 59       		.byte	0x59
ARM GAS  C:\Users\d3bug\AppData\Local\Temp\ccPpCIYA.s 			page 264


 12636 0716 34000000 		.4byte	.LVL112
 12637 071a 38000000 		.4byte	.LVL113
 12638 071e 0300     		.2byte	0x3
 12639 0720 79       		.byte	0x79
 12640 0721 7F       		.sleb128 -1
 12641 0722 9F       		.byte	0x9f
 12642 0723 38000000 		.4byte	.LVL113
 12643 0727 3C000000 		.4byte	.LVL114
 12644 072b 0300     		.2byte	0x3
 12645 072d 79       		.byte	0x79
 12646 072e 01       		.sleb128 1
 12647 072f 9F       		.byte	0x9f
 12648 0730 3C000000 		.4byte	.LVL114
 12649 0734 BA000000 		.4byte	.LVL127
 12650 0738 0100     		.2byte	0x1
 12651 073a 59       		.byte	0x59
 12652 073b 00000000 		.4byte	0
 12653 073f 00000000 		.4byte	0
 12654              	.LLST39:
 12655 0743 14000000 		.4byte	.LVL106
 12656 0747 28000000 		.4byte	.LVL110
 12657 074b 0100     		.2byte	0x1
 12658 074d 52       		.byte	0x52
 12659 074e 34000000 		.4byte	.LVL112
 12660 0752 4E000000 		.4byte	.LVL117
 12661 0756 0100     		.2byte	0x1
 12662 0758 52       		.byte	0x52
 12663 0759 BA000000 		.4byte	.LVL127
 12664 075d 2A010000 		.4byte	.LVL140
 12665 0761 0100     		.2byte	0x1
 12666 0763 58       		.byte	0x58
 12667 0764 62010000 		.4byte	.LVL142
 12668 0768 78010000 		.4byte	.LVL143
 12669 076c 0100     		.2byte	0x1
 12670 076e 58       		.byte	0x58
 12671 076f B4010000 		.4byte	.LVL145
 12672 0773 C6010000 		.4byte	.LVL146
 12673 0777 0100     		.2byte	0x1
 12674 0779 58       		.byte	0x58
 12675 077a 06020000 		.4byte	.LVL148
 12676 077e 1C020000 		.4byte	.LVL149
 12677 0782 0100     		.2byte	0x1
 12678 0784 58       		.byte	0x58
 12679 0785 56020000 		.4byte	.LVL151
 12680 0789 E6020000 		.4byte	.LVL166
 12681 078d 0100     		.2byte	0x1
 12682 078f 58       		.byte	0x58
 12683 0790 26040000 		.4byte	.LVL175
 12684 0794 96060000 		.4byte	.LVL195
 12685 0798 0100     		.2byte	0x1
 12686 079a 58       		.byte	0x58
 12687 079b D2060000 		.4byte	.LVL197
 12688 079f E0060000 		.4byte	.LVL198
 12689 07a3 0100     		.2byte	0x1
 12690 07a5 58       		.byte	0x58
 12691 07a6 20070000 		.4byte	.LVL200
 12692 07aa 2E070000 		.4byte	.LVL201
ARM GAS  C:\Users\d3bug\AppData\Local\Temp\ccPpCIYA.s 			page 265


 12693 07ae 0100     		.2byte	0x1
 12694 07b0 58       		.byte	0x58
 12695 07b1 6C070000 		.4byte	.LVL203
 12696 07b5 7A070000 		.4byte	.LVL204
 12697 07b9 0100     		.2byte	0x1
 12698 07bb 58       		.byte	0x58
 12699 07bc BA070000 		.4byte	.LVL206
 12700 07c0 A0080000 		.4byte	.LVL221
 12701 07c4 0100     		.2byte	0x1
 12702 07c6 58       		.byte	0x58
 12703 07c7 080A0000 		.4byte	.LVL231
 12704 07cb 140A0000 		.4byte	.LVL232
 12705 07cf 0100     		.2byte	0x1
 12706 07d1 58       		.byte	0x58
 12707 07d2 00000000 		.4byte	0
 12708 07d6 00000000 		.4byte	0
 12709              	.LLST40:
 12710 07da 1C000000 		.4byte	.LVL107
 12711 07de 140A0000 		.4byte	.LVL232
 12712 07e2 0100     		.2byte	0x1
 12713 07e4 5B       		.byte	0x5b
 12714 07e5 00000000 		.4byte	0
 12715 07e9 00000000 		.4byte	0
 12716              	.LLST41:
 12717 07ed 34000000 		.4byte	.LVL112
 12718 07f1 140A0000 		.4byte	.LVL232
 12719 07f5 0300     		.2byte	0x3
 12720 07f7 91       		.byte	0x91
 12721 07f8 F87E     		.sleb128 -136
 12722 07fa 140A0000 		.4byte	.LVL232
 12723 07fe 180A0000 		.4byte	.LFE16
 12724 0802 0300     		.2byte	0x3
 12725 0804 7D       		.byte	0x7d
 12726 0805 F87E     		.sleb128 -136
 12727 0807 00000000 		.4byte	0
 12728 080b 00000000 		.4byte	0
 12729              	.LLST42:
 12730 080f 9E000000 		.4byte	.LVL124
 12731 0813 A8000000 		.4byte	.LVL125
 12732 0817 0100     		.2byte	0x1
 12733 0819 53       		.byte	0x53
 12734 081a A8000000 		.4byte	.LVL125
 12735 081e B1000000 		.4byte	.LVL126-1
 12736 0822 0100     		.2byte	0x1
 12737 0824 52       		.byte	0x52
 12738 0825 00000000 		.4byte	0
 12739 0829 00000000 		.4byte	0
 12740              	.LLST43:
 12741 082d CC000000 		.4byte	.LVL128
 12742 0831 D0000000 		.4byte	.LVL129
 12743 0835 0100     		.2byte	0x1
 12744 0837 52       		.byte	0x52
 12745 0838 DA000000 		.4byte	.LVL130
 12746 083c 50060000 		.4byte	.LVL189
 12747 0840 0300     		.2byte	0x3
 12748 0842 91       		.byte	0x91
 12749 0843 A87F     		.sleb128 -88
ARM GAS  C:\Users\d3bug\AppData\Local\Temp\ccPpCIYA.s 			page 266


 12750 0845 00000000 		.4byte	0
 12751 0849 00000000 		.4byte	0
 12752              	.LLST44:
 12753 084d CC000000 		.4byte	.LVL128
 12754 0851 D0000000 		.4byte	.LVL129
 12755 0855 0100     		.2byte	0x1
 12756 0857 52       		.byte	0x52
 12757 0858 E0000000 		.4byte	.LVL131
 12758 085c 50060000 		.4byte	.LVL189
 12759 0860 0300     		.2byte	0x3
 12760 0862 91       		.byte	0x91
 12761 0863 AC7F     		.sleb128 -84
 12762 0865 00000000 		.4byte	0
 12763 0869 00000000 		.4byte	0
 12764              	.LLST45:
 12765 086d B2000000 		.4byte	.LVL126
 12766 0871 BA000000 		.4byte	.LVL127
 12767 0875 0200     		.2byte	0x2
 12768 0877 30       		.byte	0x30
 12769 0878 9F       		.byte	0x9f
 12770 0879 BA000000 		.4byte	.LVL127
 12771 087d 66020000 		.4byte	.LVL154
 12772 0881 0300     		.2byte	0x3
 12773 0883 91       		.byte	0x91
 12774 0884 A47F     		.sleb128 -92
 12775 0886 66020000 		.4byte	.LVL154
 12776 088a 6A020000 		.4byte	.LVL155
 12777 088e 0300     		.2byte	0x3
 12778 0890 91       		.byte	0x91
 12779 0891 807F     		.sleb128 -128
 12780 0893 6A020000 		.4byte	.LVL155
 12781 0897 140A0000 		.4byte	.LVL232
 12782 089b 0300     		.2byte	0x3
 12783 089d 91       		.byte	0x91
 12784 089e A47F     		.sleb128 -92
 12785 08a0 140A0000 		.4byte	.LVL232
 12786 08a4 180A0000 		.4byte	.LFE16
 12787 08a8 0300     		.2byte	0x3
 12788 08aa 7D       		.byte	0x7d
 12789 08ab A47F     		.sleb128 -92
 12790 08ad 00000000 		.4byte	0
 12791 08b1 00000000 		.4byte	0
 12792              	.LLST46:
 12793 08b5 B2000000 		.4byte	.LVL126
 12794 08b9 BA000000 		.4byte	.LVL127
 12795 08bd 0200     		.2byte	0x2
 12796 08bf 30       		.byte	0x30
 12797 08c0 9F       		.byte	0x9f
 12798 08c1 E8000000 		.4byte	.LVL132
 12799 08c5 6A020000 		.4byte	.LVL155
 12800 08c9 0300     		.2byte	0x3
 12801 08cb 91       		.byte	0x91
 12802 08cc 807F     		.sleb128 -128
 12803 08ce 62060000 		.4byte	.LVL190
 12804 08d2 90080000 		.4byte	.LVL218
 12805 08d6 0300     		.2byte	0x3
 12806 08d8 91       		.byte	0x91
ARM GAS  C:\Users\d3bug\AppData\Local\Temp\ccPpCIYA.s 			page 267


 12807 08d9 807F     		.sleb128 -128
 12808 08db 00000000 		.4byte	0
 12809 08df 00000000 		.4byte	0
 12810              	.LLST47:
 12811 08e3 B2000000 		.4byte	.LVL126
 12812 08e7 140A0000 		.4byte	.LVL232
 12813 08eb 0300     		.2byte	0x3
 12814 08ed 91       		.byte	0x91
 12815 08ee A07F     		.sleb128 -96
 12816 08f0 140A0000 		.4byte	.LVL232
 12817 08f4 180A0000 		.4byte	.LFE16
 12818 08f8 0300     		.2byte	0x3
 12819 08fa 7D       		.byte	0x7d
 12820 08fb A07F     		.sleb128 -96
 12821 08fd 00000000 		.4byte	0
 12822 0901 00000000 		.4byte	0
 12823              	.LLST48:
 12824 0905 B2000000 		.4byte	.LVL126
 12825 0909 BA000000 		.4byte	.LVL127
 12826 090d 0200     		.2byte	0x2
 12827 090f 30       		.byte	0x30
 12828 0910 9F       		.byte	0x9f
 12829 0911 BA000000 		.4byte	.LVL127
 12830 0915 32040000 		.4byte	.LVL176
 12831 0919 0300     		.2byte	0x3
 12832 091b 91       		.byte	0x91
 12833 091c 887F     		.sleb128 -120
 12834 091e 32040000 		.4byte	.LVL176
 12835 0922 36040000 		.4byte	.LVL177
 12836 0926 0300     		.2byte	0x3
 12837 0928 91       		.byte	0x91
 12838 0929 B07F     		.sleb128 -80
 12839 092b 36040000 		.4byte	.LVL177
 12840 092f 140A0000 		.4byte	.LVL232
 12841 0933 0300     		.2byte	0x3
 12842 0935 91       		.byte	0x91
 12843 0936 887F     		.sleb128 -120
 12844 0938 140A0000 		.4byte	.LVL232
 12845 093c 180A0000 		.4byte	.LFE16
 12846 0940 0300     		.2byte	0x3
 12847 0942 7D       		.byte	0x7d
 12848 0943 887F     		.sleb128 -120
 12849 0945 00000000 		.4byte	0
 12850 0949 00000000 		.4byte	0
 12851              	.LLST49:
 12852 094d B2000000 		.4byte	.LVL126
 12853 0951 BA000000 		.4byte	.LVL127
 12854 0955 0200     		.2byte	0x2
 12855 0957 30       		.byte	0x30
 12856 0958 9F       		.byte	0x9f
 12857 0959 7C020000 		.4byte	.LVL156
 12858 095d 84020000 		.4byte	.LVL157
 12859 0961 0100     		.2byte	0x1
 12860 0963 53       		.byte	0x53
 12861 0964 84020000 		.4byte	.LVL157
 12862 0968 36040000 		.4byte	.LVL177
 12863 096c 0300     		.2byte	0x3
ARM GAS  C:\Users\d3bug\AppData\Local\Temp\ccPpCIYA.s 			page 268


 12864 096e 91       		.byte	0x91
 12865 096f B07F     		.sleb128 -80
 12866 0971 74080000 		.4byte	.LVL215
 12867 0975 7C080000 		.4byte	.LVL216
 12868 0979 0100     		.2byte	0x1
 12869 097b 53       		.byte	0x53
 12870 097c 7C080000 		.4byte	.LVL216
 12871 0980 90080000 		.4byte	.LVL218
 12872 0984 0200     		.2byte	0x2
 12873 0986 91       		.byte	0x91
 12874 0987 4E       		.sleb128 -50
 12875 0988 00000000 		.4byte	0
 12876 098c 00000000 		.4byte	0
 12877              	.LLST50:
 12878 0990 B2000000 		.4byte	.LVL126
 12879 0994 8C020000 		.4byte	.LVL159
 12880 0998 0300     		.2byte	0x3
 12881 099a 91       		.byte	0x91
 12882 099b 847F     		.sleb128 -124
 12883 099d 32040000 		.4byte	.LVL176
 12884 09a1 90080000 		.4byte	.LVL218
 12885 09a5 0300     		.2byte	0x3
 12886 09a7 91       		.byte	0x91
 12887 09a8 847F     		.sleb128 -124
 12888 09aa 00000000 		.4byte	0
 12889 09ae 00000000 		.4byte	0
 12890              	.LLST51:
 12891 09b2 6E060000 		.4byte	.LVL191
 12892 09b6 7E080000 		.4byte	.LVL217
 12893 09ba 0100     		.2byte	0x1
 12894 09bc 59       		.byte	0x59
 12895 09bd 7E080000 		.4byte	.LVL217
 12896 09c1 90080000 		.4byte	.LVL218
 12897 09c5 0100     		.2byte	0x1
 12898 09c7 53       		.byte	0x53
 12899 09c8 90080000 		.4byte	.LVL218
 12900 09cc 140A0000 		.4byte	.LVL232
 12901 09d0 0100     		.2byte	0x1
 12902 09d2 5A       		.byte	0x5a
 12903 09d3 00000000 		.4byte	0
 12904 09d7 00000000 		.4byte	0
 12905              	.LLST52:
 12906 09db 6E060000 		.4byte	.LVL191
 12907 09df 78060000 		.4byte	.LVL192
 12908 09e3 0200     		.2byte	0x2
 12909 09e5 30       		.byte	0x30
 12910 09e6 9F       		.byte	0x9f
 12911 09e7 78060000 		.4byte	.LVL192
 12912 09eb BC070000 		.4byte	.LVL207
 12913 09ef 0100     		.2byte	0x1
 12914 09f1 54       		.byte	0x54
 12915 09f2 BE070000 		.4byte	.LVL208
 12916 09f6 F6070000 		.4byte	.LVL210
 12917 09fa 0100     		.2byte	0x1
 12918 09fc 54       		.byte	0x54
 12919 09fd 7E080000 		.4byte	.LVL217
 12920 0a01 90080000 		.4byte	.LVL218
ARM GAS  C:\Users\d3bug\AppData\Local\Temp\ccPpCIYA.s 			page 269


 12921 0a05 0200     		.2byte	0x2
 12922 0a07 30       		.byte	0x30
 12923 0a08 9F       		.byte	0x9f
 12924 0a09 90080000 		.4byte	.LVL218
 12925 0a0d 060A0000 		.4byte	.LVL230
 12926 0a11 0100     		.2byte	0x1
 12927 0a13 54       		.byte	0x54
 12928 0a14 080A0000 		.4byte	.LVL231
 12929 0a18 140A0000 		.4byte	.LVL232
 12930 0a1c 0100     		.2byte	0x1
 12931 0a1e 54       		.byte	0x54
 12932 0a1f 00000000 		.4byte	0
 12933 0a23 00000000 		.4byte	0
 12934              	.LLST53:
 12935 0a27 3C000000 		.4byte	.LVL114
 12936 0a2b 48000000 		.4byte	.LVL116
 12937 0a2f 0100     		.2byte	0x1
 12938 0a31 50       		.byte	0x50
 12939 0a32 00000000 		.4byte	0
 12940 0a36 00000000 		.4byte	0
 12941              	.LLST54:
 12942 0a3a 48000000 		.4byte	.LVL116
 12943 0a3e 50000000 		.4byte	.LVL118
 12944 0a42 0100     		.2byte	0x1
 12945 0a44 50       		.byte	0x50
 12946 0a45 00000000 		.4byte	0
 12947 0a49 00000000 		.4byte	0
 12948              	.LLST55:
 12949 0a4d F2000000 		.4byte	.LVL133
 12950 0a51 6A020000 		.4byte	.LVL155
 12951 0a55 0100     		.2byte	0x1
 12952 0a57 55       		.byte	0x55
 12953 0a58 00000000 		.4byte	0
 12954 0a5c 00000000 		.4byte	0
 12955              	.LLST56:
 12956 0a60 F2000000 		.4byte	.LVL133
 12957 0a64 F6000000 		.4byte	.LVL134
 12958 0a68 0200     		.2byte	0x2
 12959 0a6a 30       		.byte	0x30
 12960 0a6b 9F       		.byte	0x9f
 12961 0a6c F6000000 		.4byte	.LVL134
 12962 0a70 58020000 		.4byte	.LVL152
 12963 0a74 0100     		.2byte	0x1
 12964 0a76 54       		.byte	0x54
 12965 0a77 5A020000 		.4byte	.LVL153
 12966 0a7b 6A020000 		.4byte	.LVL155
 12967 0a7f 0100     		.2byte	0x1
 12968 0a81 54       		.byte	0x54
 12969 0a82 00000000 		.4byte	0
 12970 0a86 00000000 		.4byte	0
 12971              	.LLST57:
 12972 0a8a 06010000 		.4byte	.LVL136
 12973 0a8e 08010000 		.4byte	.LVL137
 12974 0a92 0100     		.2byte	0x1
 12975 0a94 56       		.byte	0x56
 12976 0a95 18010000 		.4byte	.LVL139
 12977 0a99 5A020000 		.4byte	.LVL153
ARM GAS  C:\Users\d3bug\AppData\Local\Temp\ccPpCIYA.s 			page 270


 12978 0a9d 0100     		.2byte	0x1
 12979 0a9f 56       		.byte	0x56
 12980 0aa0 00000000 		.4byte	0
 12981 0aa4 00000000 		.4byte	0
 12982              	.LLST58:
 12983 0aa8 86020000 		.4byte	.LVL158
 12984 0aac 36040000 		.4byte	.LVL177
 12985 0ab0 0100     		.2byte	0x1
 12986 0ab2 55       		.byte	0x55
 12987 0ab3 00000000 		.4byte	0
 12988 0ab7 00000000 		.4byte	0
 12989              	.LLST59:
 12990 0abb 86020000 		.4byte	.LVL158
 12991 0abf 8C020000 		.4byte	.LVL159
 12992 0ac3 0200     		.2byte	0x2
 12993 0ac5 30       		.byte	0x30
 12994 0ac6 9F       		.byte	0x9f
 12995 0ac7 8C020000 		.4byte	.LVL159
 12996 0acb 24040000 		.4byte	.LVL174
 12997 0acf 0100     		.2byte	0x1
 12998 0ad1 54       		.byte	0x54
 12999 0ad2 26040000 		.4byte	.LVL175
 13000 0ad6 36040000 		.4byte	.LVL177
 13001 0ada 0100     		.2byte	0x1
 13002 0adc 54       		.byte	0x54
 13003 0add 00000000 		.4byte	0
 13004 0ae1 00000000 		.4byte	0
 13005              	.LLST60:
 13006 0ae5 A2020000 		.4byte	.LVL161
 13007 0ae9 A8020000 		.4byte	.LVL162
 13008 0aed 0300     		.2byte	0x3
 13009 0aef 91       		.byte	0x91
 13010 0af0 807F     		.sleb128 -128
 13011 0af2 B4020000 		.4byte	.LVL164
 13012 0af6 26040000 		.4byte	.LVL175
 13013 0afa 0300     		.2byte	0x3
 13014 0afc 91       		.byte	0x91
 13015 0afd 807F     		.sleb128 -128
 13016 0aff 00000000 		.4byte	0
 13017 0b03 00000000 		.4byte	0
 13018              	.LLST61:
 13019 0b07 88060000 		.4byte	.LVL194
 13020 0b0b BE070000 		.4byte	.LVL208
 13021 0b0f 0100     		.2byte	0x1
 13022 0b11 55       		.byte	0x55
 13023 0b12 00000000 		.4byte	0
 13024 0b16 00000000 		.4byte	0
 13025              	.LLST62:
 13026 0b1a D8070000 		.4byte	.LVL209
 13027 0b1e 70080000 		.4byte	.LVL214
 13028 0b22 0100     		.2byte	0x1
 13029 0b24 55       		.byte	0x55
 13030 0b25 00000000 		.4byte	0
 13031 0b29 00000000 		.4byte	0
 13032              	.LLST63:
 13033 0b2d 9C080000 		.4byte	.LVL220
 13034 0b31 080A0000 		.4byte	.LVL231
ARM GAS  C:\Users\d3bug\AppData\Local\Temp\ccPpCIYA.s 			page 271


 13035 0b35 0300     		.2byte	0x3
 13036 0b37 91       		.byte	0x91
 13037 0b38 807F     		.sleb128 -128
 13038 0b3a 00000000 		.4byte	0
 13039 0b3e 00000000 		.4byte	0
 13040              	.LLST64:
 13041 0b42 00000000 		.4byte	.LVL233
 13042 0b46 0E000000 		.4byte	.LVL234
 13043 0b4a 0100     		.2byte	0x1
 13044 0b4c 50       		.byte	0x50
 13045 0b4d 0E000000 		.4byte	.LVL234
 13046 0b51 BC090000 		.4byte	.LVL420
 13047 0b55 0300     		.2byte	0x3
 13048 0b57 91       		.byte	0x91
 13049 0b58 E87E     		.sleb128 -152
 13050 0b5a BC090000 		.4byte	.LVL420
 13051 0b5e C0090000 		.4byte	.LFE14
 13052 0b62 0300     		.2byte	0x3
 13053 0b64 7D       		.byte	0x7d
 13054 0b65 E87E     		.sleb128 -152
 13055 0b67 00000000 		.4byte	0
 13056 0b6b 00000000 		.4byte	0
 13057              	.LLST65:
 13058 0b6f 00000000 		.4byte	.LVL233
 13059 0b73 10000000 		.4byte	.LVL235
 13060 0b77 0100     		.2byte	0x1
 13061 0b79 51       		.byte	0x51
 13062 0b7a 10000000 		.4byte	.LVL235
 13063 0b7e BC090000 		.4byte	.LVL420
 13064 0b82 0300     		.2byte	0x3
 13065 0b84 91       		.byte	0x91
 13066 0b85 847E     		.sleb128 -252
 13067 0b87 BC090000 		.4byte	.LVL420
 13068 0b8b C0090000 		.4byte	.LFE14
 13069 0b8f 0300     		.2byte	0x3
 13070 0b91 7D       		.byte	0x7d
 13071 0b92 847E     		.sleb128 -252
 13072 0b94 00000000 		.4byte	0
 13073 0b98 00000000 		.4byte	0
 13074              	.LLST66:
 13075 0b9c 00000000 		.4byte	.LVL233
 13076 0ba0 1A000000 		.4byte	.LVL236
 13077 0ba4 0100     		.2byte	0x1
 13078 0ba6 52       		.byte	0x52
 13079 0ba7 1A000000 		.4byte	.LVL236
 13080 0bab 3A000000 		.4byte	.LVL241
 13081 0baf 0100     		.2byte	0x1
 13082 0bb1 51       		.byte	0x51
 13083 0bb2 3A000000 		.4byte	.LVL241
 13084 0bb6 BC090000 		.4byte	.LVL420
 13085 0bba 0300     		.2byte	0x3
 13086 0bbc 91       		.byte	0x91
 13087 0bbd 987F     		.sleb128 -104
 13088 0bbf BC090000 		.4byte	.LVL420
 13089 0bc3 C0090000 		.4byte	.LFE14
 13090 0bc7 0300     		.2byte	0x3
 13091 0bc9 7D       		.byte	0x7d
ARM GAS  C:\Users\d3bug\AppData\Local\Temp\ccPpCIYA.s 			page 272


 13092 0bca 987F     		.sleb128 -104
 13093 0bcc 00000000 		.4byte	0
 13094 0bd0 00000000 		.4byte	0
 13095              	.LLST67:
 13096 0bd4 00000000 		.4byte	.LVL233
 13097 0bd8 26000000 		.4byte	.LVL237
 13098 0bdc 0100     		.2byte	0x1
 13099 0bde 53       		.byte	0x53
 13100 0bdf 26000000 		.4byte	.LVL237
 13101 0be3 2A000000 		.4byte	.LVL238
 13102 0be7 0400     		.2byte	0x4
 13103 0be9 F3       		.byte	0xf3
 13104 0bea 01       		.uleb128 0x1
 13105 0beb 53       		.byte	0x53
 13106 0bec 9F       		.byte	0x9f
 13107 0bed 2A000000 		.4byte	.LVL238
 13108 0bf1 32000000 		.4byte	.LVL239
 13109 0bf5 0100     		.2byte	0x1
 13110 0bf7 53       		.byte	0x53
 13111 0bf8 32000000 		.4byte	.LVL239
 13112 0bfc C0090000 		.4byte	.LFE14
 13113 0c00 0400     		.2byte	0x4
 13114 0c02 F3       		.byte	0xf3
 13115 0c03 01       		.uleb128 0x1
 13116 0c04 53       		.byte	0x53
 13117 0c05 9F       		.byte	0x9f
 13118 0c06 00000000 		.4byte	0
 13119 0c0a 00000000 		.4byte	0
 13120              	.LLST68:
 13121 0c0e 0E000000 		.4byte	.LVL234
 13122 0c12 55000000 		.4byte	.LVL244-1
 13123 0c16 0100     		.2byte	0x1
 13124 0c18 50       		.byte	0x50
 13125 0c19 58000000 		.4byte	.LVL245
 13126 0c1d AC000000 		.4byte	.LVL246
 13127 0c21 0100     		.2byte	0x1
 13128 0c23 50       		.byte	0x50
 13129 0c24 AC000000 		.4byte	.LVL246
 13130 0c28 AF000000 		.4byte	.LVL247-1
 13131 0c2c 0100     		.2byte	0x1
 13132 0c2e 52       		.byte	0x52
 13133 0c2f AF000000 		.4byte	.LVL247-1
 13134 0c33 2E010000 		.4byte	.LVL254
 13135 0c37 0300     		.2byte	0x3
 13136 0c39 91       		.byte	0x91
 13137 0c3a C07E     		.sleb128 -192
 13138 0c3c 2E010000 		.4byte	.LVL254
 13139 0c40 BC090000 		.4byte	.LVL420
 13140 0c44 0300     		.2byte	0x3
 13141 0c46 91       		.byte	0x91
 13142 0c47 EC7E     		.sleb128 -148
 13143 0c49 BC090000 		.4byte	.LVL420
 13144 0c4d C0090000 		.4byte	.LFE14
 13145 0c51 0300     		.2byte	0x3
 13146 0c53 7D       		.byte	0x7d
 13147 0c54 EC7E     		.sleb128 -148
 13148 0c56 00000000 		.4byte	0
ARM GAS  C:\Users\d3bug\AppData\Local\Temp\ccPpCIYA.s 			page 273


 13149 0c5a 00000000 		.4byte	0
 13150              	.LLST69:
 13151 0c5e 92030000 		.4byte	.LVL305
 13152 0c62 DC030000 		.4byte	.LVL312
 13153 0c66 0100     		.2byte	0x1
 13154 0c68 50       		.byte	0x50
 13155 0c69 E4030000 		.4byte	.LVL314
 13156 0c6d FA030000 		.4byte	.LVL315
 13157 0c71 0100     		.2byte	0x1
 13158 0c73 52       		.byte	0x52
 13159 0c74 24040000 		.4byte	.LVL322
 13160 0c78 2F040000 		.4byte	.LVL324-1
 13161 0c7c 0100     		.2byte	0x1
 13162 0c7e 52       		.byte	0x52
 13163 0c7f 36040000 		.4byte	.LVL325
 13164 0c83 4C040000 		.4byte	.LVL326
 13165 0c87 0100     		.2byte	0x1
 13166 0c89 52       		.byte	0x52
 13167 0c8a 80040000 		.4byte	.LVL333
 13168 0c8e 8B040000 		.4byte	.LVL335-1
 13169 0c92 0100     		.2byte	0x1
 13170 0c94 52       		.byte	0x52
 13171 0c95 92040000 		.4byte	.LVL336
 13172 0c99 A8040000 		.4byte	.LVL337
 13173 0c9d 0100     		.2byte	0x1
 13174 0c9f 52       		.byte	0x52
 13175 0ca0 D2040000 		.4byte	.LVL344
 13176 0ca4 DD040000 		.4byte	.LVL345-1
 13177 0ca8 0100     		.2byte	0x1
 13178 0caa 52       		.byte	0x52
 13179 0cab 00000000 		.4byte	0
 13180 0caf 00000000 		.4byte	0
 13181              	.LLST70:
 13182 0cb3 38000000 		.4byte	.LVL240
 13183 0cb7 BC090000 		.4byte	.LVL420
 13184 0cbb 0300     		.2byte	0x3
 13185 0cbd 91       		.byte	0x91
 13186 0cbe BC7E     		.sleb128 -196
 13187 0cc0 BC090000 		.4byte	.LVL420
 13188 0cc4 C0090000 		.4byte	.LFE14
 13189 0cc8 0300     		.2byte	0x3
 13190 0cca 7D       		.byte	0x7d
 13191 0ccb BC7E     		.sleb128 -196
 13192 0ccd 00000000 		.4byte	0
 13193 0cd1 00000000 		.4byte	0
 13194              	.LLST71:
 13195 0cd5 5E010000 		.4byte	.LVL259
 13196 0cd9 86010000 		.4byte	.LVL262
 13197 0cdd 0100     		.2byte	0x1
 13198 0cdf 53       		.byte	0x53
 13199 0ce0 86010000 		.4byte	.LVL262
 13200 0ce4 AC010000 		.4byte	.LVL269
 13201 0ce8 1800     		.2byte	0x18
 13202 0cea 91       		.byte	0x91
 13203 0ceb EC7E     		.sleb128 -148
 13204 0ced 06       		.byte	0x6
 13205 0cee 91       		.byte	0x91
ARM GAS  C:\Users\d3bug\AppData\Local\Temp\ccPpCIYA.s 			page 274


 13206 0cef C07E     		.sleb128 -192
 13207 0cf1 06       		.byte	0x6
 13208 0cf2 1C       		.byte	0x1c
 13209 0cf3 08       		.byte	0x8
 13210 0cf4 FF       		.byte	0xff
 13211 0cf5 1E       		.byte	0x1e
 13212 0cf6 F7       		.byte	0xf7
 13213 0cf7 25       		.uleb128 0x25
 13214 0cf8 91       		.byte	0x91
 13215 0cf9 D07E     		.sleb128 -176
 13216 0cfb 06       		.byte	0x6
 13217 0cfc F7       		.byte	0xf7
 13218 0cfd 25       		.uleb128 0x25
 13219 0cfe 1B       		.byte	0x1b
 13220 0cff F7       		.byte	0xf7
 13221 0d00 00       		.uleb128 0
 13222 0d01 9F       		.byte	0x9f
 13223 0d02 82020000 		.4byte	.LVL285
 13224 0d06 FE020000 		.4byte	.LVL290
 13225 0d0a 0100     		.2byte	0x1
 13226 0d0c 55       		.byte	0x55
 13227 0d0d B4030000 		.4byte	.LVL308
 13228 0d11 CA030000 		.4byte	.LVL309
 13229 0d15 0100     		.2byte	0x1
 13230 0d17 52       		.byte	0x52
 13231 0d18 CA030000 		.4byte	.LVL309
 13232 0d1c D2030000 		.4byte	.LVL311
 13233 0d20 2400     		.2byte	0x24
 13234 0d22 91       		.byte	0x91
 13235 0d23 E87E     		.sleb128 -152
 13236 0d25 06       		.byte	0x6
 13237 0d26 23       		.byte	0x23
 13238 0d27 06       		.uleb128 0x6
 13239 0d28 94       		.byte	0x94
 13240 0d29 02       		.byte	0x2
 13241 0d2a 40       		.byte	0x40
 13242 0d2b 24       		.byte	0x24
 13243 0d2c 40       		.byte	0x40
 13244 0d2d 26       		.byte	0x26
 13245 0d2e 91       		.byte	0x91
 13246 0d2f 42       		.sleb128 -62
 13247 0d30 94       		.byte	0x94
 13248 0d31 02       		.byte	0x2
 13249 0d32 40       		.byte	0x40
 13250 0d33 24       		.byte	0x24
 13251 0d34 40       		.byte	0x40
 13252 0d35 26       		.byte	0x26
 13253 0d36 1C       		.byte	0x1c
 13254 0d37 08       		.byte	0x8
 13255 0d38 FF       		.byte	0xff
 13256 0d39 1E       		.byte	0x1e
 13257 0d3a F7       		.byte	0xf7
 13258 0d3b 25       		.uleb128 0x25
 13259 0d3c 91       		.byte	0x91
 13260 0d3d D07E     		.sleb128 -176
 13261 0d3f 06       		.byte	0x6
 13262 0d40 F7       		.byte	0xf7
ARM GAS  C:\Users\d3bug\AppData\Local\Temp\ccPpCIYA.s 			page 275


 13263 0d41 25       		.uleb128 0x25
 13264 0d42 1B       		.byte	0x1b
 13265 0d43 F7       		.byte	0xf7
 13266 0d44 00       		.uleb128 0
 13267 0d45 9F       		.byte	0x9f
 13268 0d46 06040000 		.4byte	.LVL316
 13269 0d4a 0E040000 		.4byte	.LVL317
 13270 0d4e 0100     		.2byte	0x1
 13271 0d50 53       		.byte	0x53
 13272 0d51 0E040000 		.4byte	.LVL317
 13273 0d55 14040000 		.4byte	.LVL318
 13274 0d59 2300     		.2byte	0x23
 13275 0d5b 91       		.byte	0x91
 13276 0d5c E87E     		.sleb128 -152
 13277 0d5e 06       		.byte	0x6
 13278 0d5f 23       		.byte	0x23
 13279 0d60 06       		.uleb128 0x6
 13280 0d61 94       		.byte	0x94
 13281 0d62 02       		.byte	0x2
 13282 0d63 40       		.byte	0x40
 13283 0d64 24       		.byte	0x24
 13284 0d65 40       		.byte	0x40
 13285 0d66 26       		.byte	0x26
 13286 0d67 91       		.byte	0x91
 13287 0d68 BA7F     		.sleb128 -70
 13288 0d6a 94       		.byte	0x94
 13289 0d6b 02       		.byte	0x2
 13290 0d6c 40       		.byte	0x40
 13291 0d6d 24       		.byte	0x24
 13292 0d6e 40       		.byte	0x40
 13293 0d6f 26       		.byte	0x26
 13294 0d70 1C       		.byte	0x1c
 13295 0d71 08       		.byte	0x8
 13296 0d72 FF       		.byte	0xff
 13297 0d73 1E       		.byte	0x1e
 13298 0d74 F7       		.byte	0xf7
 13299 0d75 25       		.uleb128 0x25
 13300 0d76 72       		.byte	0x72
 13301 0d77 00       		.sleb128 0
 13302 0d78 F7       		.byte	0xf7
 13303 0d79 25       		.uleb128 0x25
 13304 0d7a 1B       		.byte	0x1b
 13305 0d7b F7       		.byte	0xf7
 13306 0d7c 00       		.uleb128 0
 13307 0d7d 9F       		.byte	0x9f
 13308 0d7e 14040000 		.4byte	.LVL318
 13309 0d82 16040000 		.4byte	.LVL319
 13310 0d86 0100     		.2byte	0x1
 13311 0d88 53       		.byte	0x53
 13312 0d89 16040000 		.4byte	.LVL319
 13313 0d8d 1C040000 		.4byte	.LVL320
 13314 0d91 2300     		.2byte	0x23
 13315 0d93 91       		.byte	0x91
 13316 0d94 E87E     		.sleb128 -152
 13317 0d96 06       		.byte	0x6
 13318 0d97 23       		.byte	0x23
 13319 0d98 06       		.uleb128 0x6
ARM GAS  C:\Users\d3bug\AppData\Local\Temp\ccPpCIYA.s 			page 276


 13320 0d99 94       		.byte	0x94
 13321 0d9a 02       		.byte	0x2
 13322 0d9b 40       		.byte	0x40
 13323 0d9c 24       		.byte	0x24
 13324 0d9d 40       		.byte	0x40
 13325 0d9e 26       		.byte	0x26
 13326 0d9f 91       		.byte	0x91
 13327 0da0 BA7F     		.sleb128 -70
 13328 0da2 94       		.byte	0x94
 13329 0da3 02       		.byte	0x2
 13330 0da4 40       		.byte	0x40
 13331 0da5 24       		.byte	0x24
 13332 0da6 40       		.byte	0x40
 13333 0da7 26       		.byte	0x26
 13334 0da8 1C       		.byte	0x1c
 13335 0da9 08       		.byte	0x8
 13336 0daa FF       		.byte	0xff
 13337 0dab 1E       		.byte	0x1e
 13338 0dac F7       		.byte	0xf7
 13339 0dad 25       		.uleb128 0x25
 13340 0dae 72       		.byte	0x72
 13341 0daf 00       		.sleb128 0
 13342 0db0 F7       		.byte	0xf7
 13343 0db1 25       		.uleb128 0x25
 13344 0db2 1B       		.byte	0x1b
 13345 0db3 F7       		.byte	0xf7
 13346 0db4 00       		.uleb128 0
 13347 0db5 9F       		.byte	0x9f
 13348 0db6 1C040000 		.4byte	.LVL320
 13349 0dba 24040000 		.4byte	.LVL322
 13350 0dbe 2500     		.2byte	0x25
 13351 0dc0 91       		.byte	0x91
 13352 0dc1 E87E     		.sleb128 -152
 13353 0dc3 06       		.byte	0x6
 13354 0dc4 23       		.byte	0x23
 13355 0dc5 06       		.uleb128 0x6
 13356 0dc6 94       		.byte	0x94
 13357 0dc7 02       		.byte	0x2
 13358 0dc8 40       		.byte	0x40
 13359 0dc9 24       		.byte	0x24
 13360 0dca 40       		.byte	0x40
 13361 0dcb 26       		.byte	0x26
 13362 0dcc 91       		.byte	0x91
 13363 0dcd BA7F     		.sleb128 -70
 13364 0dcf 94       		.byte	0x94
 13365 0dd0 02       		.byte	0x2
 13366 0dd1 40       		.byte	0x40
 13367 0dd2 24       		.byte	0x24
 13368 0dd3 40       		.byte	0x40
 13369 0dd4 26       		.byte	0x26
 13370 0dd5 1C       		.byte	0x1c
 13371 0dd6 08       		.byte	0x8
 13372 0dd7 FF       		.byte	0xff
 13373 0dd8 1E       		.byte	0x1e
 13374 0dd9 F7       		.byte	0xf7
 13375 0dda 25       		.uleb128 0x25
 13376 0ddb 91       		.byte	0x91
ARM GAS  C:\Users\d3bug\AppData\Local\Temp\ccPpCIYA.s 			page 277


 13377 0ddc D07E     		.sleb128 -176
 13378 0dde 06       		.byte	0x6
 13379 0ddf F7       		.byte	0xf7
 13380 0de0 25       		.uleb128 0x25
 13381 0de1 1B       		.byte	0x1b
 13382 0de2 F7       		.byte	0xf7
 13383 0de3 00       		.uleb128 0
 13384 0de4 9F       		.byte	0x9f
 13385 0de5 58040000 		.4byte	.LVL327
 13386 0de9 60040000 		.4byte	.LVL328
 13387 0ded 0100     		.2byte	0x1
 13388 0def 53       		.byte	0x53
 13389 0df0 60040000 		.4byte	.LVL328
 13390 0df4 70040000 		.4byte	.LVL329
 13391 0df8 2300     		.2byte	0x23
 13392 0dfa 91       		.byte	0x91
 13393 0dfb E87E     		.sleb128 -152
 13394 0dfd 06       		.byte	0x6
 13395 0dfe 23       		.byte	0x23
 13396 0dff 06       		.uleb128 0x6
 13397 0e00 94       		.byte	0x94
 13398 0e01 02       		.byte	0x2
 13399 0e02 40       		.byte	0x40
 13400 0e03 24       		.byte	0x24
 13401 0e04 40       		.byte	0x40
 13402 0e05 26       		.byte	0x26
 13403 0e06 91       		.byte	0x91
 13404 0e07 B27F     		.sleb128 -78
 13405 0e09 94       		.byte	0x94
 13406 0e0a 02       		.byte	0x2
 13407 0e0b 40       		.byte	0x40
 13408 0e0c 24       		.byte	0x24
 13409 0e0d 40       		.byte	0x40
 13410 0e0e 26       		.byte	0x26
 13411 0e0f 1C       		.byte	0x1c
 13412 0e10 08       		.byte	0x8
 13413 0e11 FF       		.byte	0xff
 13414 0e12 1E       		.byte	0x1e
 13415 0e13 F7       		.byte	0xf7
 13416 0e14 25       		.uleb128 0x25
 13417 0e15 72       		.byte	0x72
 13418 0e16 00       		.sleb128 0
 13419 0e17 F7       		.byte	0xf7
 13420 0e18 25       		.uleb128 0x25
 13421 0e19 1B       		.byte	0x1b
 13422 0e1a F7       		.byte	0xf7
 13423 0e1b 00       		.uleb128 0
 13424 0e1c 9F       		.byte	0x9f
 13425 0e1d 70040000 		.4byte	.LVL329
 13426 0e21 72040000 		.4byte	.LVL330
 13427 0e25 0100     		.2byte	0x1
 13428 0e27 53       		.byte	0x53
 13429 0e28 72040000 		.4byte	.LVL330
 13430 0e2c 78040000 		.4byte	.LVL331
 13431 0e30 2300     		.2byte	0x23
 13432 0e32 91       		.byte	0x91
 13433 0e33 E87E     		.sleb128 -152
ARM GAS  C:\Users\d3bug\AppData\Local\Temp\ccPpCIYA.s 			page 278


 13434 0e35 06       		.byte	0x6
 13435 0e36 23       		.byte	0x23
 13436 0e37 06       		.uleb128 0x6
 13437 0e38 94       		.byte	0x94
 13438 0e39 02       		.byte	0x2
 13439 0e3a 40       		.byte	0x40
 13440 0e3b 24       		.byte	0x24
 13441 0e3c 40       		.byte	0x40
 13442 0e3d 26       		.byte	0x26
 13443 0e3e 91       		.byte	0x91
 13444 0e3f B27F     		.sleb128 -78
 13445 0e41 94       		.byte	0x94
 13446 0e42 02       		.byte	0x2
 13447 0e43 40       		.byte	0x40
 13448 0e44 24       		.byte	0x24
 13449 0e45 40       		.byte	0x40
 13450 0e46 26       		.byte	0x26
 13451 0e47 1C       		.byte	0x1c
 13452 0e48 08       		.byte	0x8
 13453 0e49 FF       		.byte	0xff
 13454 0e4a 1E       		.byte	0x1e
 13455 0e4b F7       		.byte	0xf7
 13456 0e4c 25       		.uleb128 0x25
 13457 0e4d 72       		.byte	0x72
 13458 0e4e 00       		.sleb128 0
 13459 0e4f F7       		.byte	0xf7
 13460 0e50 25       		.uleb128 0x25
 13461 0e51 1B       		.byte	0x1b
 13462 0e52 F7       		.byte	0xf7
 13463 0e53 00       		.uleb128 0
 13464 0e54 9F       		.byte	0x9f
 13465 0e55 78040000 		.4byte	.LVL331
 13466 0e59 80040000 		.4byte	.LVL333
 13467 0e5d 2500     		.2byte	0x25
 13468 0e5f 91       		.byte	0x91
 13469 0e60 E87E     		.sleb128 -152
 13470 0e62 06       		.byte	0x6
 13471 0e63 23       		.byte	0x23
 13472 0e64 06       		.uleb128 0x6
 13473 0e65 94       		.byte	0x94
 13474 0e66 02       		.byte	0x2
 13475 0e67 40       		.byte	0x40
 13476 0e68 24       		.byte	0x24
 13477 0e69 40       		.byte	0x40
 13478 0e6a 26       		.byte	0x26
 13479 0e6b 91       		.byte	0x91
 13480 0e6c B27F     		.sleb128 -78
 13481 0e6e 94       		.byte	0x94
 13482 0e6f 02       		.byte	0x2
 13483 0e70 40       		.byte	0x40
 13484 0e71 24       		.byte	0x24
 13485 0e72 40       		.byte	0x40
 13486 0e73 26       		.byte	0x26
 13487 0e74 1C       		.byte	0x1c
 13488 0e75 08       		.byte	0x8
 13489 0e76 FF       		.byte	0xff
 13490 0e77 1E       		.byte	0x1e
ARM GAS  C:\Users\d3bug\AppData\Local\Temp\ccPpCIYA.s 			page 279


 13491 0e78 F7       		.byte	0xf7
 13492 0e79 25       		.uleb128 0x25
 13493 0e7a 91       		.byte	0x91
 13494 0e7b D07E     		.sleb128 -176
 13495 0e7d 06       		.byte	0x6
 13496 0e7e F7       		.byte	0xf7
 13497 0e7f 25       		.uleb128 0x25
 13498 0e80 1B       		.byte	0x1b
 13499 0e81 F7       		.byte	0xf7
 13500 0e82 00       		.uleb128 0
 13501 0e83 9F       		.byte	0x9f
 13502 0e84 B4040000 		.4byte	.LVL338
 13503 0e88 BC040000 		.4byte	.LVL339
 13504 0e8c 0100     		.2byte	0x1
 13505 0e8e 53       		.byte	0x53
 13506 0e8f BC040000 		.4byte	.LVL339
 13507 0e93 C2040000 		.4byte	.LVL340
 13508 0e97 2300     		.2byte	0x23
 13509 0e99 91       		.byte	0x91
 13510 0e9a E87E     		.sleb128 -152
 13511 0e9c 06       		.byte	0x6
 13512 0e9d 23       		.byte	0x23
 13513 0e9e 06       		.uleb128 0x6
 13514 0e9f 94       		.byte	0x94
 13515 0ea0 02       		.byte	0x2
 13516 0ea1 40       		.byte	0x40
 13517 0ea2 24       		.byte	0x24
 13518 0ea3 40       		.byte	0x40
 13519 0ea4 26       		.byte	0x26
 13520 0ea5 91       		.byte	0x91
 13521 0ea6 AA7F     		.sleb128 -86
 13522 0ea8 94       		.byte	0x94
 13523 0ea9 02       		.byte	0x2
 13524 0eaa 40       		.byte	0x40
 13525 0eab 24       		.byte	0x24
 13526 0eac 40       		.byte	0x40
 13527 0ead 26       		.byte	0x26
 13528 0eae 1C       		.byte	0x1c
 13529 0eaf 08       		.byte	0x8
 13530 0eb0 FF       		.byte	0xff
 13531 0eb1 1E       		.byte	0x1e
 13532 0eb2 F7       		.byte	0xf7
 13533 0eb3 25       		.uleb128 0x25
 13534 0eb4 72       		.byte	0x72
 13535 0eb5 00       		.sleb128 0
 13536 0eb6 F7       		.byte	0xf7
 13537 0eb7 25       		.uleb128 0x25
 13538 0eb8 1B       		.byte	0x1b
 13539 0eb9 F7       		.byte	0xf7
 13540 0eba 00       		.uleb128 0
 13541 0ebb 9F       		.byte	0x9f
 13542 0ebc C2040000 		.4byte	.LVL340
 13543 0ec0 C4040000 		.4byte	.LVL341
 13544 0ec4 0100     		.2byte	0x1
 13545 0ec6 53       		.byte	0x53
 13546 0ec7 C4040000 		.4byte	.LVL341
 13547 0ecb CA040000 		.4byte	.LVL342
ARM GAS  C:\Users\d3bug\AppData\Local\Temp\ccPpCIYA.s 			page 280


 13548 0ecf 2300     		.2byte	0x23
 13549 0ed1 91       		.byte	0x91
 13550 0ed2 E87E     		.sleb128 -152
 13551 0ed4 06       		.byte	0x6
 13552 0ed5 23       		.byte	0x23
 13553 0ed6 06       		.uleb128 0x6
 13554 0ed7 94       		.byte	0x94
 13555 0ed8 02       		.byte	0x2
 13556 0ed9 40       		.byte	0x40
 13557 0eda 24       		.byte	0x24
 13558 0edb 40       		.byte	0x40
 13559 0edc 26       		.byte	0x26
 13560 0edd 91       		.byte	0x91
 13561 0ede AA7F     		.sleb128 -86
 13562 0ee0 94       		.byte	0x94
 13563 0ee1 02       		.byte	0x2
 13564 0ee2 40       		.byte	0x40
 13565 0ee3 24       		.byte	0x24
 13566 0ee4 40       		.byte	0x40
 13567 0ee5 26       		.byte	0x26
 13568 0ee6 1C       		.byte	0x1c
 13569 0ee7 08       		.byte	0x8
 13570 0ee8 FF       		.byte	0xff
 13571 0ee9 1E       		.byte	0x1e
 13572 0eea F7       		.byte	0xf7
 13573 0eeb 25       		.uleb128 0x25
 13574 0eec 72       		.byte	0x72
 13575 0eed 00       		.sleb128 0
 13576 0eee F7       		.byte	0xf7
 13577 0eef 25       		.uleb128 0x25
 13578 0ef0 1B       		.byte	0x1b
 13579 0ef1 F7       		.byte	0xf7
 13580 0ef2 00       		.uleb128 0
 13581 0ef3 9F       		.byte	0x9f
 13582 0ef4 CA040000 		.4byte	.LVL342
 13583 0ef8 D2040000 		.4byte	.LVL344
 13584 0efc 2500     		.2byte	0x25
 13585 0efe 91       		.byte	0x91
 13586 0eff E87E     		.sleb128 -152
 13587 0f01 06       		.byte	0x6
 13588 0f02 23       		.byte	0x23
 13589 0f03 06       		.uleb128 0x6
 13590 0f04 94       		.byte	0x94
 13591 0f05 02       		.byte	0x2
 13592 0f06 40       		.byte	0x40
 13593 0f07 24       		.byte	0x24
 13594 0f08 40       		.byte	0x40
 13595 0f09 26       		.byte	0x26
 13596 0f0a 91       		.byte	0x91
 13597 0f0b AA7F     		.sleb128 -86
 13598 0f0d 94       		.byte	0x94
 13599 0f0e 02       		.byte	0x2
 13600 0f0f 40       		.byte	0x40
 13601 0f10 24       		.byte	0x24
 13602 0f11 40       		.byte	0x40
 13603 0f12 26       		.byte	0x26
 13604 0f13 1C       		.byte	0x1c
ARM GAS  C:\Users\d3bug\AppData\Local\Temp\ccPpCIYA.s 			page 281


 13605 0f14 08       		.byte	0x8
 13606 0f15 FF       		.byte	0xff
 13607 0f16 1E       		.byte	0x1e
 13608 0f17 F7       		.byte	0xf7
 13609 0f18 25       		.uleb128 0x25
 13610 0f19 91       		.byte	0x91
 13611 0f1a D07E     		.sleb128 -176
 13612 0f1c 06       		.byte	0x6
 13613 0f1d F7       		.byte	0xf7
 13614 0f1e 25       		.uleb128 0x25
 13615 0f1f 1B       		.byte	0x1b
 13616 0f20 F7       		.byte	0xf7
 13617 0f21 00       		.uleb128 0
 13618 0f22 9F       		.byte	0x9f
 13619 0f23 B8050000 		.4byte	.LVL353
 13620 0f27 C0050000 		.4byte	.LVL354
 13621 0f2b 0100     		.2byte	0x1
 13622 0f2d 53       		.byte	0x53
 13623 0f2e C0050000 		.4byte	.LVL354
 13624 0f32 C4050000 		.4byte	.LVL355
 13625 0f36 2200     		.2byte	0x22
 13626 0f38 91       		.byte	0x91
 13627 0f39 E87E     		.sleb128 -152
 13628 0f3b 06       		.byte	0x6
 13629 0f3c 23       		.byte	0x23
 13630 0f3d 06       		.uleb128 0x6
 13631 0f3e 94       		.byte	0x94
 13632 0f3f 02       		.byte	0x2
 13633 0f40 40       		.byte	0x40
 13634 0f41 24       		.byte	0x24
 13635 0f42 40       		.byte	0x40
 13636 0f43 26       		.byte	0x26
 13637 0f44 91       		.byte	0x91
 13638 0f45 42       		.sleb128 -62
 13639 0f46 94       		.byte	0x94
 13640 0f47 02       		.byte	0x2
 13641 0f48 40       		.byte	0x40
 13642 0f49 24       		.byte	0x24
 13643 0f4a 40       		.byte	0x40
 13644 0f4b 26       		.byte	0x26
 13645 0f4c 1C       		.byte	0x1c
 13646 0f4d 08       		.byte	0x8
 13647 0f4e FF       		.byte	0xff
 13648 0f4f 1E       		.byte	0x1e
 13649 0f50 F7       		.byte	0xf7
 13650 0f51 25       		.uleb128 0x25
 13651 0f52 72       		.byte	0x72
 13652 0f53 00       		.sleb128 0
 13653 0f54 F7       		.byte	0xf7
 13654 0f55 25       		.uleb128 0x25
 13655 0f56 1B       		.byte	0x1b
 13656 0f57 F7       		.byte	0xf7
 13657 0f58 00       		.uleb128 0
 13658 0f59 9F       		.byte	0x9f
 13659 0f5a C4050000 		.4byte	.LVL355
 13660 0f5e C6050000 		.4byte	.LVL356
 13661 0f62 2400     		.2byte	0x24
ARM GAS  C:\Users\d3bug\AppData\Local\Temp\ccPpCIYA.s 			page 282


 13662 0f64 91       		.byte	0x91
 13663 0f65 E87E     		.sleb128 -152
 13664 0f67 06       		.byte	0x6
 13665 0f68 23       		.byte	0x23
 13666 0f69 06       		.uleb128 0x6
 13667 0f6a 94       		.byte	0x94
 13668 0f6b 02       		.byte	0x2
 13669 0f6c 40       		.byte	0x40
 13670 0f6d 24       		.byte	0x24
 13671 0f6e 40       		.byte	0x40
 13672 0f6f 26       		.byte	0x26
 13673 0f70 91       		.byte	0x91
 13674 0f71 42       		.sleb128 -62
 13675 0f72 94       		.byte	0x94
 13676 0f73 02       		.byte	0x2
 13677 0f74 40       		.byte	0x40
 13678 0f75 24       		.byte	0x24
 13679 0f76 40       		.byte	0x40
 13680 0f77 26       		.byte	0x26
 13681 0f78 1C       		.byte	0x1c
 13682 0f79 08       		.byte	0x8
 13683 0f7a FF       		.byte	0xff
 13684 0f7b 1E       		.byte	0x1e
 13685 0f7c F7       		.byte	0xf7
 13686 0f7d 25       		.uleb128 0x25
 13687 0f7e 91       		.byte	0x91
 13688 0f7f D07E     		.sleb128 -176
 13689 0f81 06       		.byte	0x6
 13690 0f82 F7       		.byte	0xf7
 13691 0f83 25       		.uleb128 0x25
 13692 0f84 1B       		.byte	0x1b
 13693 0f85 F7       		.byte	0xf7
 13694 0f86 00       		.uleb128 0
 13695 0f87 9F       		.byte	0x9f
 13696 0f88 C6050000 		.4byte	.LVL356
 13697 0f8c C8050000 		.4byte	.LVL357
 13698 0f90 0100     		.2byte	0x1
 13699 0f92 53       		.byte	0x53
 13700 0f93 C8050000 		.4byte	.LVL357
 13701 0f97 CC050000 		.4byte	.LVL358
 13702 0f9b 2200     		.2byte	0x22
 13703 0f9d 91       		.byte	0x91
 13704 0f9e E87E     		.sleb128 -152
 13705 0fa0 06       		.byte	0x6
 13706 0fa1 23       		.byte	0x23
 13707 0fa2 06       		.uleb128 0x6
 13708 0fa3 94       		.byte	0x94
 13709 0fa4 02       		.byte	0x2
 13710 0fa5 40       		.byte	0x40
 13711 0fa6 24       		.byte	0x24
 13712 0fa7 40       		.byte	0x40
 13713 0fa8 26       		.byte	0x26
 13714 0fa9 91       		.byte	0x91
 13715 0faa 42       		.sleb128 -62
 13716 0fab 94       		.byte	0x94
 13717 0fac 02       		.byte	0x2
 13718 0fad 40       		.byte	0x40
ARM GAS  C:\Users\d3bug\AppData\Local\Temp\ccPpCIYA.s 			page 283


 13719 0fae 24       		.byte	0x24
 13720 0faf 40       		.byte	0x40
 13721 0fb0 26       		.byte	0x26
 13722 0fb1 1C       		.byte	0x1c
 13723 0fb2 08       		.byte	0x8
 13724 0fb3 FF       		.byte	0xff
 13725 0fb4 1E       		.byte	0x1e
 13726 0fb5 F7       		.byte	0xf7
 13727 0fb6 25       		.uleb128 0x25
 13728 0fb7 72       		.byte	0x72
 13729 0fb8 00       		.sleb128 0
 13730 0fb9 F7       		.byte	0xf7
 13731 0fba 25       		.uleb128 0x25
 13732 0fbb 1B       		.byte	0x1b
 13733 0fbc F7       		.byte	0xf7
 13734 0fbd 00       		.uleb128 0
 13735 0fbe 9F       		.byte	0x9f
 13736 0fbf 08060000 		.4byte	.LVL360
 13737 0fc3 10060000 		.4byte	.LVL361
 13738 0fc7 0100     		.2byte	0x1
 13739 0fc9 53       		.byte	0x53
 13740 0fca 10060000 		.4byte	.LVL361
 13741 0fce 14060000 		.4byte	.LVL362
 13742 0fd2 2300     		.2byte	0x23
 13743 0fd4 91       		.byte	0x91
 13744 0fd5 E87E     		.sleb128 -152
 13745 0fd7 06       		.byte	0x6
 13746 0fd8 23       		.byte	0x23
 13747 0fd9 06       		.uleb128 0x6
 13748 0fda 94       		.byte	0x94
 13749 0fdb 02       		.byte	0x2
 13750 0fdc 40       		.byte	0x40
 13751 0fdd 24       		.byte	0x24
 13752 0fde 40       		.byte	0x40
 13753 0fdf 26       		.byte	0x26
 13754 0fe0 91       		.byte	0x91
 13755 0fe1 BA7F     		.sleb128 -70
 13756 0fe3 94       		.byte	0x94
 13757 0fe4 02       		.byte	0x2
 13758 0fe5 40       		.byte	0x40
 13759 0fe6 24       		.byte	0x24
 13760 0fe7 40       		.byte	0x40
 13761 0fe8 26       		.byte	0x26
 13762 0fe9 1C       		.byte	0x1c
 13763 0fea 08       		.byte	0x8
 13764 0feb FF       		.byte	0xff
 13765 0fec 1E       		.byte	0x1e
 13766 0fed F7       		.byte	0xf7
 13767 0fee 25       		.uleb128 0x25
 13768 0fef 72       		.byte	0x72
 13769 0ff0 00       		.sleb128 0
 13770 0ff1 F7       		.byte	0xf7
 13771 0ff2 25       		.uleb128 0x25
 13772 0ff3 1B       		.byte	0x1b
 13773 0ff4 F7       		.byte	0xf7
 13774 0ff5 00       		.uleb128 0
 13775 0ff6 9F       		.byte	0x9f
ARM GAS  C:\Users\d3bug\AppData\Local\Temp\ccPpCIYA.s 			page 284


 13776 0ff7 14060000 		.4byte	.LVL362
 13777 0ffb 16060000 		.4byte	.LVL363
 13778 0fff 2500     		.2byte	0x25
 13779 1001 91       		.byte	0x91
 13780 1002 E87E     		.sleb128 -152
 13781 1004 06       		.byte	0x6
 13782 1005 23       		.byte	0x23
 13783 1006 06       		.uleb128 0x6
 13784 1007 94       		.byte	0x94
 13785 1008 02       		.byte	0x2
 13786 1009 40       		.byte	0x40
 13787 100a 24       		.byte	0x24
 13788 100b 40       		.byte	0x40
 13789 100c 26       		.byte	0x26
 13790 100d 91       		.byte	0x91
 13791 100e BA7F     		.sleb128 -70
 13792 1010 94       		.byte	0x94
 13793 1011 02       		.byte	0x2
 13794 1012 40       		.byte	0x40
 13795 1013 24       		.byte	0x24
 13796 1014 40       		.byte	0x40
 13797 1015 26       		.byte	0x26
 13798 1016 1C       		.byte	0x1c
 13799 1017 08       		.byte	0x8
 13800 1018 FF       		.byte	0xff
 13801 1019 1E       		.byte	0x1e
 13802 101a F7       		.byte	0xf7
 13803 101b 25       		.uleb128 0x25
 13804 101c 91       		.byte	0x91
 13805 101d D07E     		.sleb128 -176
 13806 101f 06       		.byte	0x6
 13807 1020 F7       		.byte	0xf7
 13808 1021 25       		.uleb128 0x25
 13809 1022 1B       		.byte	0x1b
 13810 1023 F7       		.byte	0xf7
 13811 1024 00       		.uleb128 0
 13812 1025 9F       		.byte	0x9f
 13813 1026 16060000 		.4byte	.LVL363
 13814 102a 18060000 		.4byte	.LVL364
 13815 102e 0100     		.2byte	0x1
 13816 1030 53       		.byte	0x53
 13817 1031 18060000 		.4byte	.LVL364
 13818 1035 1C060000 		.4byte	.LVL365
 13819 1039 2300     		.2byte	0x23
 13820 103b 91       		.byte	0x91
 13821 103c E87E     		.sleb128 -152
 13822 103e 06       		.byte	0x6
 13823 103f 23       		.byte	0x23
 13824 1040 06       		.uleb128 0x6
 13825 1041 94       		.byte	0x94
 13826 1042 02       		.byte	0x2
 13827 1043 40       		.byte	0x40
 13828 1044 24       		.byte	0x24
 13829 1045 40       		.byte	0x40
 13830 1046 26       		.byte	0x26
 13831 1047 91       		.byte	0x91
 13832 1048 BA7F     		.sleb128 -70
ARM GAS  C:\Users\d3bug\AppData\Local\Temp\ccPpCIYA.s 			page 285


 13833 104a 94       		.byte	0x94
 13834 104b 02       		.byte	0x2
 13835 104c 40       		.byte	0x40
 13836 104d 24       		.byte	0x24
 13837 104e 40       		.byte	0x40
 13838 104f 26       		.byte	0x26
 13839 1050 1C       		.byte	0x1c
 13840 1051 08       		.byte	0x8
 13841 1052 FF       		.byte	0xff
 13842 1053 1E       		.byte	0x1e
 13843 1054 F7       		.byte	0xf7
 13844 1055 25       		.uleb128 0x25
 13845 1056 72       		.byte	0x72
 13846 1057 00       		.sleb128 0
 13847 1058 F7       		.byte	0xf7
 13848 1059 25       		.uleb128 0x25
 13849 105a 1B       		.byte	0x1b
 13850 105b F7       		.byte	0xf7
 13851 105c 00       		.uleb128 0
 13852 105d 9F       		.byte	0x9f
 13853 105e 4C060000 		.4byte	.LVL367
 13854 1062 54060000 		.4byte	.LVL368
 13855 1066 0100     		.2byte	0x1
 13856 1068 53       		.byte	0x53
 13857 1069 54060000 		.4byte	.LVL368
 13858 106d 58060000 		.4byte	.LVL369
 13859 1071 2300     		.2byte	0x23
 13860 1073 91       		.byte	0x91
 13861 1074 E87E     		.sleb128 -152
 13862 1076 06       		.byte	0x6
 13863 1077 23       		.byte	0x23
 13864 1078 06       		.uleb128 0x6
 13865 1079 94       		.byte	0x94
 13866 107a 02       		.byte	0x2
 13867 107b 40       		.byte	0x40
 13868 107c 24       		.byte	0x24
 13869 107d 40       		.byte	0x40
 13870 107e 26       		.byte	0x26
 13871 107f 91       		.byte	0x91
 13872 1080 B27F     		.sleb128 -78
 13873 1082 94       		.byte	0x94
 13874 1083 02       		.byte	0x2
 13875 1084 40       		.byte	0x40
 13876 1085 24       		.byte	0x24
 13877 1086 40       		.byte	0x40
 13878 1087 26       		.byte	0x26
 13879 1088 1C       		.byte	0x1c
 13880 1089 08       		.byte	0x8
 13881 108a FF       		.byte	0xff
 13882 108b 1E       		.byte	0x1e
 13883 108c F7       		.byte	0xf7
 13884 108d 25       		.uleb128 0x25
 13885 108e 72       		.byte	0x72
 13886 108f 00       		.sleb128 0
 13887 1090 F7       		.byte	0xf7
 13888 1091 25       		.uleb128 0x25
 13889 1092 1B       		.byte	0x1b
ARM GAS  C:\Users\d3bug\AppData\Local\Temp\ccPpCIYA.s 			page 286


 13890 1093 F7       		.byte	0xf7
 13891 1094 00       		.uleb128 0
 13892 1095 9F       		.byte	0x9f
 13893 1096 58060000 		.4byte	.LVL369
 13894 109a 5A060000 		.4byte	.LVL370
 13895 109e 2500     		.2byte	0x25
 13896 10a0 91       		.byte	0x91
 13897 10a1 E87E     		.sleb128 -152
 13898 10a3 06       		.byte	0x6
 13899 10a4 23       		.byte	0x23
 13900 10a5 06       		.uleb128 0x6
 13901 10a6 94       		.byte	0x94
 13902 10a7 02       		.byte	0x2
 13903 10a8 40       		.byte	0x40
 13904 10a9 24       		.byte	0x24
 13905 10aa 40       		.byte	0x40
 13906 10ab 26       		.byte	0x26
 13907 10ac 91       		.byte	0x91
 13908 10ad B27F     		.sleb128 -78
 13909 10af 94       		.byte	0x94
 13910 10b0 02       		.byte	0x2
 13911 10b1 40       		.byte	0x40
 13912 10b2 24       		.byte	0x24
 13913 10b3 40       		.byte	0x40
 13914 10b4 26       		.byte	0x26
 13915 10b5 1C       		.byte	0x1c
 13916 10b6 08       		.byte	0x8
 13917 10b7 FF       		.byte	0xff
 13918 10b8 1E       		.byte	0x1e
 13919 10b9 F7       		.byte	0xf7
 13920 10ba 25       		.uleb128 0x25
 13921 10bb 91       		.byte	0x91
 13922 10bc D07E     		.sleb128 -176
 13923 10be 06       		.byte	0x6
 13924 10bf F7       		.byte	0xf7
 13925 10c0 25       		.uleb128 0x25
 13926 10c1 1B       		.byte	0x1b
 13927 10c2 F7       		.byte	0xf7
 13928 10c3 00       		.uleb128 0
 13929 10c4 9F       		.byte	0x9f
 13930 10c5 5A060000 		.4byte	.LVL370
 13931 10c9 5C060000 		.4byte	.LVL371
 13932 10cd 0100     		.2byte	0x1
 13933 10cf 53       		.byte	0x53
 13934 10d0 5C060000 		.4byte	.LVL371
 13935 10d4 60060000 		.4byte	.LVL372
 13936 10d8 2300     		.2byte	0x23
 13937 10da 91       		.byte	0x91
 13938 10db E87E     		.sleb128 -152
 13939 10dd 06       		.byte	0x6
 13940 10de 23       		.byte	0x23
 13941 10df 06       		.uleb128 0x6
 13942 10e0 94       		.byte	0x94
 13943 10e1 02       		.byte	0x2
 13944 10e2 40       		.byte	0x40
 13945 10e3 24       		.byte	0x24
 13946 10e4 40       		.byte	0x40
ARM GAS  C:\Users\d3bug\AppData\Local\Temp\ccPpCIYA.s 			page 287


 13947 10e5 26       		.byte	0x26
 13948 10e6 91       		.byte	0x91
 13949 10e7 B27F     		.sleb128 -78
 13950 10e9 94       		.byte	0x94
 13951 10ea 02       		.byte	0x2
 13952 10eb 40       		.byte	0x40
 13953 10ec 24       		.byte	0x24
 13954 10ed 40       		.byte	0x40
 13955 10ee 26       		.byte	0x26
 13956 10ef 1C       		.byte	0x1c
 13957 10f0 08       		.byte	0x8
 13958 10f1 FF       		.byte	0xff
 13959 10f2 1E       		.byte	0x1e
 13960 10f3 F7       		.byte	0xf7
 13961 10f4 25       		.uleb128 0x25
 13962 10f5 72       		.byte	0x72
 13963 10f6 00       		.sleb128 0
 13964 10f7 F7       		.byte	0xf7
 13965 10f8 25       		.uleb128 0x25
 13966 10f9 1B       		.byte	0x1b
 13967 10fa F7       		.byte	0xf7
 13968 10fb 00       		.uleb128 0
 13969 10fc 9F       		.byte	0x9f
 13970 10fd 9C060000 		.4byte	.LVL374
 13971 1101 A4060000 		.4byte	.LVL375
 13972 1105 0100     		.2byte	0x1
 13973 1107 53       		.byte	0x53
 13974 1108 A4060000 		.4byte	.LVL375
 13975 110c A8060000 		.4byte	.LVL376
 13976 1110 2300     		.2byte	0x23
 13977 1112 91       		.byte	0x91
 13978 1113 E87E     		.sleb128 -152
 13979 1115 06       		.byte	0x6
 13980 1116 23       		.byte	0x23
 13981 1117 06       		.uleb128 0x6
 13982 1118 94       		.byte	0x94
 13983 1119 02       		.byte	0x2
 13984 111a 40       		.byte	0x40
 13985 111b 24       		.byte	0x24
 13986 111c 40       		.byte	0x40
 13987 111d 26       		.byte	0x26
 13988 111e 91       		.byte	0x91
 13989 111f AA7F     		.sleb128 -86
 13990 1121 94       		.byte	0x94
 13991 1122 02       		.byte	0x2
 13992 1123 40       		.byte	0x40
 13993 1124 24       		.byte	0x24
 13994 1125 40       		.byte	0x40
 13995 1126 26       		.byte	0x26
 13996 1127 1C       		.byte	0x1c
 13997 1128 08       		.byte	0x8
 13998 1129 FF       		.byte	0xff
 13999 112a 1E       		.byte	0x1e
 14000 112b F7       		.byte	0xf7
 14001 112c 25       		.uleb128 0x25
 14002 112d 72       		.byte	0x72
 14003 112e 00       		.sleb128 0
ARM GAS  C:\Users\d3bug\AppData\Local\Temp\ccPpCIYA.s 			page 288


 14004 112f F7       		.byte	0xf7
 14005 1130 25       		.uleb128 0x25
 14006 1131 1B       		.byte	0x1b
 14007 1132 F7       		.byte	0xf7
 14008 1133 00       		.uleb128 0
 14009 1134 9F       		.byte	0x9f
 14010 1135 A8060000 		.4byte	.LVL376
 14011 1139 AA060000 		.4byte	.LVL377
 14012 113d 2500     		.2byte	0x25
 14013 113f 91       		.byte	0x91
 14014 1140 E87E     		.sleb128 -152
 14015 1142 06       		.byte	0x6
 14016 1143 23       		.byte	0x23
 14017 1144 06       		.uleb128 0x6
 14018 1145 94       		.byte	0x94
 14019 1146 02       		.byte	0x2
 14020 1147 40       		.byte	0x40
 14021 1148 24       		.byte	0x24
 14022 1149 40       		.byte	0x40
 14023 114a 26       		.byte	0x26
 14024 114b 91       		.byte	0x91
 14025 114c AA7F     		.sleb128 -86
 14026 114e 94       		.byte	0x94
 14027 114f 02       		.byte	0x2
 14028 1150 40       		.byte	0x40
 14029 1151 24       		.byte	0x24
 14030 1152 40       		.byte	0x40
 14031 1153 26       		.byte	0x26
 14032 1154 1C       		.byte	0x1c
 14033 1155 08       		.byte	0x8
 14034 1156 FF       		.byte	0xff
 14035 1157 1E       		.byte	0x1e
 14036 1158 F7       		.byte	0xf7
 14037 1159 25       		.uleb128 0x25
 14038 115a 91       		.byte	0x91
 14039 115b D07E     		.sleb128 -176
 14040 115d 06       		.byte	0x6
 14041 115e F7       		.byte	0xf7
 14042 115f 25       		.uleb128 0x25
 14043 1160 1B       		.byte	0x1b
 14044 1161 F7       		.byte	0xf7
 14045 1162 00       		.uleb128 0
 14046 1163 9F       		.byte	0x9f
 14047 1164 AA060000 		.4byte	.LVL377
 14048 1168 AC060000 		.4byte	.LVL378
 14049 116c 0100     		.2byte	0x1
 14050 116e 53       		.byte	0x53
 14051 116f AC060000 		.4byte	.LVL378
 14052 1173 B0060000 		.4byte	.LVL379
 14053 1177 2300     		.2byte	0x23
 14054 1179 91       		.byte	0x91
 14055 117a E87E     		.sleb128 -152
 14056 117c 06       		.byte	0x6
 14057 117d 23       		.byte	0x23
 14058 117e 06       		.uleb128 0x6
 14059 117f 94       		.byte	0x94
 14060 1180 02       		.byte	0x2
ARM GAS  C:\Users\d3bug\AppData\Local\Temp\ccPpCIYA.s 			page 289


 14061 1181 40       		.byte	0x40
 14062 1182 24       		.byte	0x24
 14063 1183 40       		.byte	0x40
 14064 1184 26       		.byte	0x26
 14065 1185 91       		.byte	0x91
 14066 1186 AA7F     		.sleb128 -86
 14067 1188 94       		.byte	0x94
 14068 1189 02       		.byte	0x2
 14069 118a 40       		.byte	0x40
 14070 118b 24       		.byte	0x24
 14071 118c 40       		.byte	0x40
 14072 118d 26       		.byte	0x26
 14073 118e 1C       		.byte	0x1c
 14074 118f 08       		.byte	0x8
 14075 1190 FF       		.byte	0xff
 14076 1191 1E       		.byte	0x1e
 14077 1192 F7       		.byte	0xf7
 14078 1193 25       		.uleb128 0x25
 14079 1194 72       		.byte	0x72
 14080 1195 00       		.sleb128 0
 14081 1196 F7       		.byte	0xf7
 14082 1197 25       		.uleb128 0x25
 14083 1198 1B       		.byte	0x1b
 14084 1199 F7       		.byte	0xf7
 14085 119a 00       		.uleb128 0
 14086 119b 9F       		.byte	0x9f
 14087 119c 36070000 		.4byte	.LVL386
 14088 11a0 54070000 		.4byte	.LVL388
 14089 11a4 0100     		.2byte	0x1
 14090 11a6 53       		.byte	0x53
 14091 11a7 54070000 		.4byte	.LVL388
 14092 11ab 7A070000 		.4byte	.LVL390
 14093 11af 1600     		.2byte	0x16
 14094 11b1 76       		.byte	0x76
 14095 11b2 00       		.sleb128 0
 14096 11b3 91       		.byte	0x91
 14097 11b4 C07E     		.sleb128 -192
 14098 11b6 06       		.byte	0x6
 14099 11b7 1C       		.byte	0x1c
 14100 11b8 08       		.byte	0x8
 14101 11b9 FF       		.byte	0xff
 14102 11ba 1E       		.byte	0x1e
 14103 11bb F7       		.byte	0xf7
 14104 11bc 25       		.uleb128 0x25
 14105 11bd 91       		.byte	0x91
 14106 11be D07E     		.sleb128 -176
 14107 11c0 06       		.byte	0x6
 14108 11c1 F7       		.byte	0xf7
 14109 11c2 25       		.uleb128 0x25
 14110 11c3 1B       		.byte	0x1b
 14111 11c4 F7       		.byte	0xf7
 14112 11c5 00       		.uleb128 0
 14113 11c6 9F       		.byte	0x9f
 14114 11c7 3C080000 		.4byte	.LVL399
 14115 11cb B8080000 		.4byte	.LVL404
 14116 11cf 0100     		.2byte	0x1
 14117 11d1 55       		.byte	0x55
ARM GAS  C:\Users\d3bug\AppData\Local\Temp\ccPpCIYA.s 			page 290


 14118 11d2 06090000 		.4byte	.LVL409
 14119 11d6 28090000 		.4byte	.LVL412
 14120 11da 0100     		.2byte	0x1
 14121 11dc 53       		.byte	0x53
 14122 11dd 28090000 		.4byte	.LVL412
 14123 11e1 B6090000 		.4byte	.LVL419
 14124 11e5 1300     		.2byte	0x13
 14125 11e7 91       		.byte	0x91
 14126 11e8 C07E     		.sleb128 -192
 14127 11ea 06       		.byte	0x6
 14128 11eb 08       		.byte	0x8
 14129 11ec FF       		.byte	0xff
 14130 11ed 1E       		.byte	0x1e
 14131 11ee F7       		.byte	0xf7
 14132 11ef 25       		.uleb128 0x25
 14133 11f0 91       		.byte	0x91
 14134 11f1 D07E     		.sleb128 -176
 14135 11f3 06       		.byte	0x6
 14136 11f4 F7       		.byte	0xf7
 14137 11f5 25       		.uleb128 0x25
 14138 11f6 1B       		.byte	0x1b
 14139 11f7 F7       		.byte	0xf7
 14140 11f8 00       		.uleb128 0
 14141 11f9 9F       		.byte	0x9f
 14142 11fa 00000000 		.4byte	0
 14143 11fe 00000000 		.4byte	0
 14144              	.LLST72:
 14145 1202 24010000 		.4byte	.LVL251
 14146 1206 2E010000 		.4byte	.LVL254
 14147 120a 0200     		.2byte	0x2
 14148 120c 30       		.byte	0x30
 14149 120d 9F       		.byte	0x9f
 14150 120e 2E010000 		.4byte	.LVL254
 14151 1212 38030000 		.4byte	.LVL297
 14152 1216 0300     		.2byte	0x3
 14153 1218 91       		.byte	0x91
 14154 1219 C47E     		.sleb128 -188
 14155 121b 38030000 		.4byte	.LVL297
 14156 121f 3C030000 		.4byte	.LVL298
 14157 1223 0300     		.2byte	0x3
 14158 1225 91       		.byte	0x91
 14159 1226 D47E     		.sleb128 -172
 14160 1228 3C030000 		.4byte	.LVL298
 14161 122c BC090000 		.4byte	.LVL420
 14162 1230 0300     		.2byte	0x3
 14163 1232 91       		.byte	0x91
 14164 1233 C47E     		.sleb128 -188
 14165 1235 BC090000 		.4byte	.LVL420
 14166 1239 C0090000 		.4byte	.LFE14
 14167 123d 0300     		.2byte	0x3
 14168 123f 7D       		.byte	0x7d
 14169 1240 C47E     		.sleb128 -188
 14170 1242 00000000 		.4byte	0
 14171 1246 00000000 		.4byte	0
 14172              	.LLST73:
 14173 124a 24010000 		.4byte	.LVL251
 14174 124e 2E010000 		.4byte	.LVL254
ARM GAS  C:\Users\d3bug\AppData\Local\Temp\ccPpCIYA.s 			page 291


 14175 1252 0200     		.2byte	0x2
 14176 1254 30       		.byte	0x30
 14177 1255 9F       		.byte	0x9f
 14178 1256 40010000 		.4byte	.LVL255
 14179 125a 48010000 		.4byte	.LVL257
 14180 125e 0100     		.2byte	0x1
 14181 1260 53       		.byte	0x53
 14182 1261 48010000 		.4byte	.LVL257
 14183 1265 3C030000 		.4byte	.LVL298
 14184 1269 0300     		.2byte	0x3
 14185 126b 91       		.byte	0x91
 14186 126c D47E     		.sleb128 -172
 14187 126e 16070000 		.4byte	.LVL383
 14188 1272 1E070000 		.4byte	.LVL384
 14189 1276 0100     		.2byte	0x1
 14190 1278 53       		.byte	0x53
 14191 1279 1E070000 		.4byte	.LVL384
 14192 127d 7A070000 		.4byte	.LVL390
 14193 1281 0300     		.2byte	0x3
 14194 1283 91       		.byte	0x91
 14195 1284 A67F     		.sleb128 -90
 14196 1286 00000000 		.4byte	0
 14197 128a 00000000 		.4byte	0
 14198              	.LLST74:
 14199 128e 24010000 		.4byte	.LVL251
 14200 1292 BC090000 		.4byte	.LVL420
 14201 1296 0300     		.2byte	0x3
 14202 1298 91       		.byte	0x91
 14203 1299 C07E     		.sleb128 -192
 14204 129b BC090000 		.4byte	.LVL420
 14205 129f C0090000 		.4byte	.LFE14
 14206 12a3 0300     		.2byte	0x3
 14207 12a5 7D       		.byte	0x7d
 14208 12a6 C07E     		.sleb128 -192
 14209 12a8 00000000 		.4byte	0
 14210 12ac 00000000 		.4byte	0
 14211              	.LLST75:
 14212 12b0 22070000 		.4byte	.LVL385
 14213 12b4 BC090000 		.4byte	.LVL420
 14214 12b8 0300     		.2byte	0x3
 14215 12ba 91       		.byte	0x91
 14216 12bb 887E     		.sleb128 -248
 14217 12bd BC090000 		.4byte	.LVL420
 14218 12c1 C0090000 		.4byte	.LFE14
 14219 12c5 0300     		.2byte	0x3
 14220 12c7 7D       		.byte	0x7d
 14221 12c8 887E     		.sleb128 -248
 14222 12ca 00000000 		.4byte	0
 14223 12ce 00000000 		.4byte	0
 14224              	.LLST76:
 14225 12d2 6A070000 		.4byte	.LVL389
 14226 12d6 7A070000 		.4byte	.LVL390
 14227 12da 0200     		.2byte	0x2
 14228 12dc 30       		.byte	0x30
 14229 12dd 9F       		.byte	0x9f
 14230 12de 7A070000 		.4byte	.LVL390
 14231 12e2 32080000 		.4byte	.LVL398
ARM GAS  C:\Users\d3bug\AppData\Local\Temp\ccPpCIYA.s 			page 292


 14232 12e6 0100     		.2byte	0x1
 14233 12e8 55       		.byte	0x55
 14234 12e9 32080000 		.4byte	.LVL398
 14235 12ed DE080000 		.4byte	.LVL407
 14236 12f1 0100     		.2byte	0x1
 14237 12f3 54       		.byte	0x54
 14238 12f4 DE080000 		.4byte	.LVL407
 14239 12f8 E0080000 		.4byte	.LVL408
 14240 12fc 0300     		.2byte	0x3
 14241 12fe 74       		.byte	0x74
 14242 12ff 7F       		.sleb128 -1
 14243 1300 9F       		.byte	0x9f
 14244 1301 E0080000 		.4byte	.LVL408
 14245 1305 1E090000 		.4byte	.LVL410
 14246 1309 0100     		.2byte	0x1
 14247 130b 55       		.byte	0x55
 14248 130c 00000000 		.4byte	0
 14249 1310 00000000 		.4byte	0
 14250              	.LLST77:
 14251 1314 38000000 		.4byte	.LVL240
 14252 1318 48000000 		.4byte	.LVL242
 14253 131c 0300     		.2byte	0x3
 14254 131e 91       		.byte	0x91
 14255 131f E87E     		.sleb128 -152
 14256 1321 00000000 		.4byte	0
 14257 1325 00000000 		.4byte	0
 14258              	.LLST78:
 14259 1329 48000000 		.4byte	.LVL242
 14260 132d 50000000 		.4byte	.LVL243
 14261 1331 0300     		.2byte	0x3
 14262 1333 91       		.byte	0x91
 14263 1334 E87E     		.sleb128 -152
 14264 1336 00000000 		.4byte	0
 14265 133a 00000000 		.4byte	0
 14266              	.LLST79:
 14267 133e 3C030000 		.4byte	.LVL298
 14268 1342 8C030000 		.4byte	.LVL304
 14269 1346 0200     		.2byte	0x2
 14270 1348 30       		.byte	0x30
 14271 1349 9F       		.byte	0x9f
 14272 134a 8C030000 		.4byte	.LVL304
 14273 134e 94030000 		.4byte	.LVL306
 14274 1352 0100     		.2byte	0x1
 14275 1354 53       		.byte	0x53
 14276 1355 00000000 		.4byte	0
 14277 1359 00000000 		.4byte	0
 14278              	.LLST80:
 14279 135d 3C030000 		.4byte	.LVL298
 14280 1361 7C030000 		.4byte	.LVL303
 14281 1365 0200     		.2byte	0x2
 14282 1367 30       		.byte	0x30
 14283 1368 9F       		.byte	0x9f
 14284 1369 7C030000 		.4byte	.LVL303
 14285 136d 28040000 		.4byte	.LVL323
 14286 1371 0100     		.2byte	0x1
 14287 1373 55       		.byte	0x55
 14288 1374 00000000 		.4byte	0
ARM GAS  C:\Users\d3bug\AppData\Local\Temp\ccPpCIYA.s 			page 293


 14289 1378 00000000 		.4byte	0
 14290              	.LLST81:
 14291 137c 3C030000 		.4byte	.LVL298
 14292 1380 54030000 		.4byte	.LVL301
 14293 1384 0200     		.2byte	0x2
 14294 1386 30       		.byte	0x30
 14295 1387 9F       		.byte	0x9f
 14296 1388 54030000 		.4byte	.LVL301
 14297 138c 84040000 		.4byte	.LVL334
 14298 1390 0100     		.2byte	0x1
 14299 1392 54       		.byte	0x54
 14300 1393 00000000 		.4byte	0
 14301 1397 00000000 		.4byte	0
 14302              	.LLST82:
 14303 139b 3C030000 		.4byte	.LVL298
 14304 139f 68030000 		.4byte	.LVL302
 14305 13a3 0200     		.2byte	0x2
 14306 13a5 30       		.byte	0x30
 14307 13a6 9F       		.byte	0x9f
 14308 13a7 68030000 		.4byte	.LVL302
 14309 13ab E2040000 		.4byte	.LVL346
 14310 13af 0100     		.2byte	0x1
 14311 13b1 57       		.byte	0x57
 14312 13b2 00000000 		.4byte	0
 14313 13b6 00000000 		.4byte	0
 14314              	.LLST83:
 14315 13ba 4C010000 		.4byte	.LVL258
 14316 13be 3C030000 		.4byte	.LVL298
 14317 13c2 0300     		.2byte	0x3
 14318 13c4 91       		.byte	0x91
 14319 13c5 887E     		.sleb128 -248
 14320 13c7 00000000 		.4byte	0
 14321 13cb 00000000 		.4byte	0
 14322              	.LLST84:
 14323 13cf A0010000 		.4byte	.LVL264
 14324 13d3 AC010000 		.4byte	.LVL269
 14325 13d7 0200     		.2byte	0x2
 14326 13d9 30       		.byte	0x30
 14327 13da 9F       		.byte	0x9f
 14328 13db AC010000 		.4byte	.LVL269
 14329 13df 78020000 		.4byte	.LVL284
 14330 13e3 0100     		.2byte	0x1
 14331 13e5 55       		.byte	0x55
 14332 13e6 78020000 		.4byte	.LVL284
 14333 13ea 24030000 		.4byte	.LVL293
 14334 13ee 0100     		.2byte	0x1
 14335 13f0 54       		.byte	0x54
 14336 13f1 24030000 		.4byte	.LVL293
 14337 13f5 26030000 		.4byte	.LVL294
 14338 13f9 0300     		.2byte	0x3
 14339 13fb 74       		.byte	0x74
 14340 13fc 7F       		.sleb128 -1
 14341 13fd 9F       		.byte	0x9f
 14342 13fe 26030000 		.4byte	.LVL294
 14343 1402 3C030000 		.4byte	.LVL298
 14344 1406 0100     		.2byte	0x1
 14345 1408 55       		.byte	0x55
ARM GAS  C:\Users\d3bug\AppData\Local\Temp\ccPpCIYA.s 			page 294


 14346 1409 00000000 		.4byte	0
 14347 140d 00000000 		.4byte	0
 14348              	.LLST85:
 14349 1411 5E010000 		.4byte	.LVL259
 14350 1415 80010000 		.4byte	.LVL261
 14351 1419 0100     		.2byte	0x1
 14352 141b 53       		.byte	0x53
 14353 141c 00000000 		.4byte	0
 14354 1420 00000000 		.4byte	0
 14355              	.LLST86:
 14356 1424 78010000 		.4byte	.LVL260
 14357 1428 B6010000 		.4byte	.LVL271
 14358 142c 0100     		.2byte	0x1
 14359 142e 51       		.byte	0x51
 14360 142f C0010000 		.4byte	.LVL274
 14361 1433 C6010000 		.4byte	.LVL276
 14362 1437 0100     		.2byte	0x1
 14363 1439 51       		.byte	0x51
 14364 143a 26030000 		.4byte	.LVL294
 14365 143e 48030000 		.4byte	.LVL300
 14366 1442 0100     		.2byte	0x1
 14367 1444 51       		.byte	0x51
 14368 1445 00000000 		.4byte	0
 14369 1449 00000000 		.4byte	0
 14370              	.LLST87:
 14371 144d 80010000 		.4byte	.LVL261
 14372 1451 86010000 		.4byte	.LVL262
 14373 1455 0100     		.2byte	0x1
 14374 1457 53       		.byte	0x53
 14375 1458 86010000 		.4byte	.LVL262
 14376 145c A0010000 		.4byte	.LVL264
 14377 1460 1800     		.2byte	0x18
 14378 1462 91       		.byte	0x91
 14379 1463 EC7E     		.sleb128 -148
 14380 1465 06       		.byte	0x6
 14381 1466 91       		.byte	0x91
 14382 1467 C07E     		.sleb128 -192
 14383 1469 06       		.byte	0x6
 14384 146a 1C       		.byte	0x1c
 14385 146b 08       		.byte	0x8
 14386 146c FF       		.byte	0xff
 14387 146d 1E       		.byte	0x1e
 14388 146e F7       		.byte	0xf7
 14389 146f 25       		.uleb128 0x25
 14390 1470 91       		.byte	0x91
 14391 1471 D07E     		.sleb128 -176
 14392 1473 06       		.byte	0x6
 14393 1474 F7       		.byte	0xf7
 14394 1475 25       		.uleb128 0x25
 14395 1476 1B       		.byte	0x1b
 14396 1477 F7       		.byte	0xf7
 14397 1478 00       		.uleb128 0
 14398 1479 9F       		.byte	0x9f
 14399 147a 00000000 		.4byte	0
 14400 147e 00000000 		.4byte	0
 14401              	.LLST88:
 14402 1482 98010000 		.4byte	.LVL263
ARM GAS  C:\Users\d3bug\AppData\Local\Temp\ccPpCIYA.s 			page 295


 14403 1486 B4010000 		.4byte	.LVL270
 14404 148a 0100     		.2byte	0x1
 14405 148c 52       		.byte	0x52
 14406 148d C0010000 		.4byte	.LVL274
 14407 1491 C4010000 		.4byte	.LVL275
 14408 1495 0100     		.2byte	0x1
 14409 1497 52       		.byte	0x52
 14410 1498 26030000 		.4byte	.LVL294
 14411 149c 44030000 		.4byte	.LVL299
 14412 14a0 0100     		.2byte	0x1
 14413 14a2 52       		.byte	0x52
 14414 14a3 00000000 		.4byte	0
 14415 14a7 00000000 		.4byte	0
 14416              	.LLST89:
 14417 14ab BE010000 		.4byte	.LVL273
 14418 14af C0010000 		.4byte	.LVL274
 14419 14b3 0100     		.2byte	0x1
 14420 14b5 56       		.byte	0x56
 14421 14b6 D0010000 		.4byte	.LVL278
 14422 14ba 26030000 		.4byte	.LVL294
 14423 14be 0100     		.2byte	0x1
 14424 14c0 56       		.byte	0x56
 14425 14c1 00000000 		.4byte	0
 14426 14c5 00000000 		.4byte	0
 14427              	.LLST90:
 14428 14c9 82020000 		.4byte	.LVL285
 14429 14cd 9A020000 		.4byte	.LVL286
 14430 14d1 0100     		.2byte	0x1
 14431 14d3 55       		.byte	0x55
 14432 14d4 00000000 		.4byte	0
 14433 14d8 00000000 		.4byte	0
 14434              	.LLST91:
 14435 14dc 28010000 		.4byte	.LVL252
 14436 14e0 A4010000 		.4byte	.LVL265
 14437 14e4 0100     		.2byte	0x1
 14438 14e6 5A       		.byte	0x5a
 14439 14e7 A8010000 		.4byte	.LVL267
 14440 14eb E6010000 		.4byte	.LVL279
 14441 14ef 0100     		.2byte	0x1
 14442 14f1 58       		.byte	0x58
 14443 14f2 E6010000 		.4byte	.LVL279
 14444 14f6 26030000 		.4byte	.LVL294
 14445 14fa 0100     		.2byte	0x1
 14446 14fc 59       		.byte	0x59
 14447 14fd 26030000 		.4byte	.LVL294
 14448 1501 30030000 		.4byte	.LVL295
 14449 1505 0100     		.2byte	0x1
 14450 1507 58       		.byte	0x58
 14451 1508 30030000 		.4byte	.LVL295
 14452 150c 32030000 		.4byte	.LVL296
 14453 1510 0100     		.2byte	0x1
 14454 1512 59       		.byte	0x59
 14455 1513 3C030000 		.4byte	.LVL298
 14456 1517 A0070000 		.4byte	.LVL393
 14457 151b 0100     		.2byte	0x1
 14458 151d 5A       		.byte	0x5a
 14459 151e E0080000 		.4byte	.LVL408
ARM GAS  C:\Users\d3bug\AppData\Local\Temp\ccPpCIYA.s 			page 296


 14460 1522 BC090000 		.4byte	.LVL420
 14461 1526 0100     		.2byte	0x1
 14462 1528 5A       		.byte	0x5a
 14463 1529 00000000 		.4byte	0
 14464 152d 00000000 		.4byte	0
 14465              	.LLST92:
 14466 1531 D2020000 		.4byte	.LVL288
 14467 1535 E8020000 		.4byte	.LVL289
 14468 1539 0100     		.2byte	0x1
 14469 153b 55       		.byte	0x55
 14470 153c 00000000 		.4byte	0
 14471 1540 00000000 		.4byte	0
 14472              	.LLST93:
 14473 1544 2A010000 		.4byte	.LVL253
 14474 1548 44010000 		.4byte	.LVL256
 14475 154c 0100     		.2byte	0x1
 14476 154e 5B       		.byte	0x5b
 14477 154f 44010000 		.4byte	.LVL256
 14478 1553 A4010000 		.4byte	.LVL265
 14479 1557 0100     		.2byte	0x1
 14480 1559 5A       		.byte	0x5a
 14481 155a A6010000 		.4byte	.LVL266
 14482 155e AA010000 		.4byte	.LVL268
 14483 1562 0100     		.2byte	0x1
 14484 1564 59       		.byte	0x59
 14485 1565 AC010000 		.4byte	.LVL269
 14486 1569 A0070000 		.4byte	.LVL393
 14487 156d 0100     		.2byte	0x1
 14488 156f 5A       		.byte	0x5a
 14489 1570 E0080000 		.4byte	.LVL408
 14490 1574 BC090000 		.4byte	.LVL420
 14491 1578 0100     		.2byte	0x1
 14492 157a 5A       		.byte	0x5a
 14493 157b 00000000 		.4byte	0
 14494 157f 00000000 		.4byte	0
 14495              	.LLST94:
 14496 1583 B4030000 		.4byte	.LVL308
 14497 1587 CA030000 		.4byte	.LVL309
 14498 158b 0100     		.2byte	0x1
 14499 158d 52       		.byte	0x52
 14500 158e CA030000 		.4byte	.LVL309
 14501 1592 D2030000 		.4byte	.LVL311
 14502 1596 2400     		.2byte	0x24
 14503 1598 91       		.byte	0x91
 14504 1599 E87E     		.sleb128 -152
 14505 159b 06       		.byte	0x6
 14506 159c 23       		.byte	0x23
 14507 159d 06       		.uleb128 0x6
 14508 159e 94       		.byte	0x94
 14509 159f 02       		.byte	0x2
 14510 15a0 40       		.byte	0x40
 14511 15a1 24       		.byte	0x24
 14512 15a2 40       		.byte	0x40
 14513 15a3 26       		.byte	0x26
 14514 15a4 91       		.byte	0x91
 14515 15a5 42       		.sleb128 -62
 14516 15a6 94       		.byte	0x94
ARM GAS  C:\Users\d3bug\AppData\Local\Temp\ccPpCIYA.s 			page 297


 14517 15a7 02       		.byte	0x2
 14518 15a8 40       		.byte	0x40
 14519 15a9 24       		.byte	0x24
 14520 15aa 40       		.byte	0x40
 14521 15ab 26       		.byte	0x26
 14522 15ac 1C       		.byte	0x1c
 14523 15ad 08       		.byte	0x8
 14524 15ae FF       		.byte	0xff
 14525 15af 1E       		.byte	0x1e
 14526 15b0 F7       		.byte	0xf7
 14527 15b1 25       		.uleb128 0x25
 14528 15b2 91       		.byte	0x91
 14529 15b3 D07E     		.sleb128 -176
 14530 15b5 06       		.byte	0x6
 14531 15b6 F7       		.byte	0xf7
 14532 15b7 25       		.uleb128 0x25
 14533 15b8 1B       		.byte	0x1b
 14534 15b9 F7       		.byte	0xf7
 14535 15ba 00       		.uleb128 0
 14536 15bb 9F       		.byte	0x9f
 14537 15bc 00000000 		.4byte	0
 14538 15c0 00000000 		.4byte	0
 14539              	.LLST95:
 14540 15c4 CE030000 		.4byte	.LVL310
 14541 15c8 DD030000 		.4byte	.LVL313-1
 14542 15cc 0100     		.2byte	0x1
 14543 15ce 52       		.byte	0x52
 14544 15cf 00000000 		.4byte	0
 14545 15d3 00000000 		.4byte	0
 14546              	.LLST96:
 14547 15d7 06040000 		.4byte	.LVL316
 14548 15db 0E040000 		.4byte	.LVL317
 14549 15df 0100     		.2byte	0x1
 14550 15e1 53       		.byte	0x53
 14551 15e2 0E040000 		.4byte	.LVL317
 14552 15e6 14040000 		.4byte	.LVL318
 14553 15ea 2300     		.2byte	0x23
 14554 15ec 91       		.byte	0x91
 14555 15ed E87E     		.sleb128 -152
 14556 15ef 06       		.byte	0x6
 14557 15f0 23       		.byte	0x23
 14558 15f1 06       		.uleb128 0x6
 14559 15f2 94       		.byte	0x94
 14560 15f3 02       		.byte	0x2
 14561 15f4 40       		.byte	0x40
 14562 15f5 24       		.byte	0x24
 14563 15f6 40       		.byte	0x40
 14564 15f7 26       		.byte	0x26
 14565 15f8 91       		.byte	0x91
 14566 15f9 BA7F     		.sleb128 -70
 14567 15fb 94       		.byte	0x94
 14568 15fc 02       		.byte	0x2
 14569 15fd 40       		.byte	0x40
 14570 15fe 24       		.byte	0x24
 14571 15ff 40       		.byte	0x40
 14572 1600 26       		.byte	0x26
 14573 1601 1C       		.byte	0x1c
ARM GAS  C:\Users\d3bug\AppData\Local\Temp\ccPpCIYA.s 			page 298


 14574 1602 08       		.byte	0x8
 14575 1603 FF       		.byte	0xff
 14576 1604 1E       		.byte	0x1e
 14577 1605 F7       		.byte	0xf7
 14578 1606 25       		.uleb128 0x25
 14579 1607 72       		.byte	0x72
 14580 1608 00       		.sleb128 0
 14581 1609 F7       		.byte	0xf7
 14582 160a 25       		.uleb128 0x25
 14583 160b 1B       		.byte	0x1b
 14584 160c F7       		.byte	0xf7
 14585 160d 00       		.uleb128 0
 14586 160e 9F       		.byte	0x9f
 14587 160f 14040000 		.4byte	.LVL318
 14588 1613 16040000 		.4byte	.LVL319
 14589 1617 0100     		.2byte	0x1
 14590 1619 53       		.byte	0x53
 14591 161a 16040000 		.4byte	.LVL319
 14592 161e 1C040000 		.4byte	.LVL320
 14593 1622 2300     		.2byte	0x23
 14594 1624 91       		.byte	0x91
 14595 1625 E87E     		.sleb128 -152
 14596 1627 06       		.byte	0x6
 14597 1628 23       		.byte	0x23
 14598 1629 06       		.uleb128 0x6
 14599 162a 94       		.byte	0x94
 14600 162b 02       		.byte	0x2
 14601 162c 40       		.byte	0x40
 14602 162d 24       		.byte	0x24
 14603 162e 40       		.byte	0x40
 14604 162f 26       		.byte	0x26
 14605 1630 91       		.byte	0x91
 14606 1631 BA7F     		.sleb128 -70
 14607 1633 94       		.byte	0x94
 14608 1634 02       		.byte	0x2
 14609 1635 40       		.byte	0x40
 14610 1636 24       		.byte	0x24
 14611 1637 40       		.byte	0x40
 14612 1638 26       		.byte	0x26
 14613 1639 1C       		.byte	0x1c
 14614 163a 08       		.byte	0x8
 14615 163b FF       		.byte	0xff
 14616 163c 1E       		.byte	0x1e
 14617 163d F7       		.byte	0xf7
 14618 163e 25       		.uleb128 0x25
 14619 163f 72       		.byte	0x72
 14620 1640 00       		.sleb128 0
 14621 1641 F7       		.byte	0xf7
 14622 1642 25       		.uleb128 0x25
 14623 1643 1B       		.byte	0x1b
 14624 1644 F7       		.byte	0xf7
 14625 1645 00       		.uleb128 0
 14626 1646 9F       		.byte	0x9f
 14627 1647 1C040000 		.4byte	.LVL320
 14628 164b 24040000 		.4byte	.LVL322
 14629 164f 2500     		.2byte	0x25
 14630 1651 91       		.byte	0x91
ARM GAS  C:\Users\d3bug\AppData\Local\Temp\ccPpCIYA.s 			page 299


 14631 1652 E87E     		.sleb128 -152
 14632 1654 06       		.byte	0x6
 14633 1655 23       		.byte	0x23
 14634 1656 06       		.uleb128 0x6
 14635 1657 94       		.byte	0x94
 14636 1658 02       		.byte	0x2
 14637 1659 40       		.byte	0x40
 14638 165a 24       		.byte	0x24
 14639 165b 40       		.byte	0x40
 14640 165c 26       		.byte	0x26
 14641 165d 91       		.byte	0x91
 14642 165e BA7F     		.sleb128 -70
 14643 1660 94       		.byte	0x94
 14644 1661 02       		.byte	0x2
 14645 1662 40       		.byte	0x40
 14646 1663 24       		.byte	0x24
 14647 1664 40       		.byte	0x40
 14648 1665 26       		.byte	0x26
 14649 1666 1C       		.byte	0x1c
 14650 1667 08       		.byte	0x8
 14651 1668 FF       		.byte	0xff
 14652 1669 1E       		.byte	0x1e
 14653 166a F7       		.byte	0xf7
 14654 166b 25       		.uleb128 0x25
 14655 166c 91       		.byte	0x91
 14656 166d D07E     		.sleb128 -176
 14657 166f 06       		.byte	0x6
 14658 1670 F7       		.byte	0xf7
 14659 1671 25       		.uleb128 0x25
 14660 1672 1B       		.byte	0x1b
 14661 1673 F7       		.byte	0xf7
 14662 1674 00       		.uleb128 0
 14663 1675 9F       		.byte	0x9f
 14664 1676 00000000 		.4byte	0
 14665 167a 00000000 		.4byte	0
 14666              	.LLST97:
 14667 167e 20040000 		.4byte	.LVL321
 14668 1682 2F040000 		.4byte	.LVL324-1
 14669 1686 0100     		.2byte	0x1
 14670 1688 52       		.byte	0x52
 14671 1689 00000000 		.4byte	0
 14672 168d 00000000 		.4byte	0
 14673              	.LLST98:
 14674 1691 58040000 		.4byte	.LVL327
 14675 1695 60040000 		.4byte	.LVL328
 14676 1699 0100     		.2byte	0x1
 14677 169b 53       		.byte	0x53
 14678 169c 60040000 		.4byte	.LVL328
 14679 16a0 70040000 		.4byte	.LVL329
 14680 16a4 2300     		.2byte	0x23
 14681 16a6 91       		.byte	0x91
 14682 16a7 E87E     		.sleb128 -152
 14683 16a9 06       		.byte	0x6
 14684 16aa 23       		.byte	0x23
 14685 16ab 06       		.uleb128 0x6
 14686 16ac 94       		.byte	0x94
 14687 16ad 02       		.byte	0x2
ARM GAS  C:\Users\d3bug\AppData\Local\Temp\ccPpCIYA.s 			page 300


 14688 16ae 40       		.byte	0x40
 14689 16af 24       		.byte	0x24
 14690 16b0 40       		.byte	0x40
 14691 16b1 26       		.byte	0x26
 14692 16b2 91       		.byte	0x91
 14693 16b3 B27F     		.sleb128 -78
 14694 16b5 94       		.byte	0x94
 14695 16b6 02       		.byte	0x2
 14696 16b7 40       		.byte	0x40
 14697 16b8 24       		.byte	0x24
 14698 16b9 40       		.byte	0x40
 14699 16ba 26       		.byte	0x26
 14700 16bb 1C       		.byte	0x1c
 14701 16bc 08       		.byte	0x8
 14702 16bd FF       		.byte	0xff
 14703 16be 1E       		.byte	0x1e
 14704 16bf F7       		.byte	0xf7
 14705 16c0 25       		.uleb128 0x25
 14706 16c1 72       		.byte	0x72
 14707 16c2 00       		.sleb128 0
 14708 16c3 F7       		.byte	0xf7
 14709 16c4 25       		.uleb128 0x25
 14710 16c5 1B       		.byte	0x1b
 14711 16c6 F7       		.byte	0xf7
 14712 16c7 00       		.uleb128 0
 14713 16c8 9F       		.byte	0x9f
 14714 16c9 70040000 		.4byte	.LVL329
 14715 16cd 72040000 		.4byte	.LVL330
 14716 16d1 0100     		.2byte	0x1
 14717 16d3 53       		.byte	0x53
 14718 16d4 72040000 		.4byte	.LVL330
 14719 16d8 78040000 		.4byte	.LVL331
 14720 16dc 2300     		.2byte	0x23
 14721 16de 91       		.byte	0x91
 14722 16df E87E     		.sleb128 -152
 14723 16e1 06       		.byte	0x6
 14724 16e2 23       		.byte	0x23
 14725 16e3 06       		.uleb128 0x6
 14726 16e4 94       		.byte	0x94
 14727 16e5 02       		.byte	0x2
 14728 16e6 40       		.byte	0x40
 14729 16e7 24       		.byte	0x24
 14730 16e8 40       		.byte	0x40
 14731 16e9 26       		.byte	0x26
 14732 16ea 91       		.byte	0x91
 14733 16eb B27F     		.sleb128 -78
 14734 16ed 94       		.byte	0x94
 14735 16ee 02       		.byte	0x2
 14736 16ef 40       		.byte	0x40
 14737 16f0 24       		.byte	0x24
 14738 16f1 40       		.byte	0x40
 14739 16f2 26       		.byte	0x26
 14740 16f3 1C       		.byte	0x1c
 14741 16f4 08       		.byte	0x8
 14742 16f5 FF       		.byte	0xff
 14743 16f6 1E       		.byte	0x1e
 14744 16f7 F7       		.byte	0xf7
ARM GAS  C:\Users\d3bug\AppData\Local\Temp\ccPpCIYA.s 			page 301


 14745 16f8 25       		.uleb128 0x25
 14746 16f9 72       		.byte	0x72
 14747 16fa 00       		.sleb128 0
 14748 16fb F7       		.byte	0xf7
 14749 16fc 25       		.uleb128 0x25
 14750 16fd 1B       		.byte	0x1b
 14751 16fe F7       		.byte	0xf7
 14752 16ff 00       		.uleb128 0
 14753 1700 9F       		.byte	0x9f
 14754 1701 78040000 		.4byte	.LVL331
 14755 1705 80040000 		.4byte	.LVL333
 14756 1709 2500     		.2byte	0x25
 14757 170b 91       		.byte	0x91
 14758 170c E87E     		.sleb128 -152
 14759 170e 06       		.byte	0x6
 14760 170f 23       		.byte	0x23
 14761 1710 06       		.uleb128 0x6
 14762 1711 94       		.byte	0x94
 14763 1712 02       		.byte	0x2
 14764 1713 40       		.byte	0x40
 14765 1714 24       		.byte	0x24
 14766 1715 40       		.byte	0x40
 14767 1716 26       		.byte	0x26
 14768 1717 91       		.byte	0x91
 14769 1718 B27F     		.sleb128 -78
 14770 171a 94       		.byte	0x94
 14771 171b 02       		.byte	0x2
 14772 171c 40       		.byte	0x40
 14773 171d 24       		.byte	0x24
 14774 171e 40       		.byte	0x40
 14775 171f 26       		.byte	0x26
 14776 1720 1C       		.byte	0x1c
 14777 1721 08       		.byte	0x8
 14778 1722 FF       		.byte	0xff
 14779 1723 1E       		.byte	0x1e
 14780 1724 F7       		.byte	0xf7
 14781 1725 25       		.uleb128 0x25
 14782 1726 91       		.byte	0x91
 14783 1727 D07E     		.sleb128 -176
 14784 1729 06       		.byte	0x6
 14785 172a F7       		.byte	0xf7
 14786 172b 25       		.uleb128 0x25
 14787 172c 1B       		.byte	0x1b
 14788 172d F7       		.byte	0xf7
 14789 172e 00       		.uleb128 0
 14790 172f 9F       		.byte	0x9f
 14791 1730 00000000 		.4byte	0
 14792 1734 00000000 		.4byte	0
 14793              	.LLST99:
 14794 1738 7C040000 		.4byte	.LVL332
 14795 173c 8B040000 		.4byte	.LVL335-1
 14796 1740 0100     		.2byte	0x1
 14797 1742 52       		.byte	0x52
 14798 1743 00000000 		.4byte	0
 14799 1747 00000000 		.4byte	0
 14800              	.LLST100:
 14801 174b B4040000 		.4byte	.LVL338
ARM GAS  C:\Users\d3bug\AppData\Local\Temp\ccPpCIYA.s 			page 302


 14802 174f BC040000 		.4byte	.LVL339
 14803 1753 0100     		.2byte	0x1
 14804 1755 53       		.byte	0x53
 14805 1756 BC040000 		.4byte	.LVL339
 14806 175a C2040000 		.4byte	.LVL340
 14807 175e 2300     		.2byte	0x23
 14808 1760 91       		.byte	0x91
 14809 1761 E87E     		.sleb128 -152
 14810 1763 06       		.byte	0x6
 14811 1764 23       		.byte	0x23
 14812 1765 06       		.uleb128 0x6
 14813 1766 94       		.byte	0x94
 14814 1767 02       		.byte	0x2
 14815 1768 40       		.byte	0x40
 14816 1769 24       		.byte	0x24
 14817 176a 40       		.byte	0x40
 14818 176b 26       		.byte	0x26
 14819 176c 91       		.byte	0x91
 14820 176d AA7F     		.sleb128 -86
 14821 176f 94       		.byte	0x94
 14822 1770 02       		.byte	0x2
 14823 1771 40       		.byte	0x40
 14824 1772 24       		.byte	0x24
 14825 1773 40       		.byte	0x40
 14826 1774 26       		.byte	0x26
 14827 1775 1C       		.byte	0x1c
 14828 1776 08       		.byte	0x8
 14829 1777 FF       		.byte	0xff
 14830 1778 1E       		.byte	0x1e
 14831 1779 F7       		.byte	0xf7
 14832 177a 25       		.uleb128 0x25
 14833 177b 72       		.byte	0x72
 14834 177c 00       		.sleb128 0
 14835 177d F7       		.byte	0xf7
 14836 177e 25       		.uleb128 0x25
 14837 177f 1B       		.byte	0x1b
 14838 1780 F7       		.byte	0xf7
 14839 1781 00       		.uleb128 0
 14840 1782 9F       		.byte	0x9f
 14841 1783 C2040000 		.4byte	.LVL340
 14842 1787 C4040000 		.4byte	.LVL341
 14843 178b 0100     		.2byte	0x1
 14844 178d 53       		.byte	0x53
 14845 178e C4040000 		.4byte	.LVL341
 14846 1792 CA040000 		.4byte	.LVL342
 14847 1796 2300     		.2byte	0x23
 14848 1798 91       		.byte	0x91
 14849 1799 E87E     		.sleb128 -152
 14850 179b 06       		.byte	0x6
 14851 179c 23       		.byte	0x23
 14852 179d 06       		.uleb128 0x6
 14853 179e 94       		.byte	0x94
 14854 179f 02       		.byte	0x2
 14855 17a0 40       		.byte	0x40
 14856 17a1 24       		.byte	0x24
 14857 17a2 40       		.byte	0x40
 14858 17a3 26       		.byte	0x26
ARM GAS  C:\Users\d3bug\AppData\Local\Temp\ccPpCIYA.s 			page 303


 14859 17a4 91       		.byte	0x91
 14860 17a5 AA7F     		.sleb128 -86
 14861 17a7 94       		.byte	0x94
 14862 17a8 02       		.byte	0x2
 14863 17a9 40       		.byte	0x40
 14864 17aa 24       		.byte	0x24
 14865 17ab 40       		.byte	0x40
 14866 17ac 26       		.byte	0x26
 14867 17ad 1C       		.byte	0x1c
 14868 17ae 08       		.byte	0x8
 14869 17af FF       		.byte	0xff
 14870 17b0 1E       		.byte	0x1e
 14871 17b1 F7       		.byte	0xf7
 14872 17b2 25       		.uleb128 0x25
 14873 17b3 72       		.byte	0x72
 14874 17b4 00       		.sleb128 0
 14875 17b5 F7       		.byte	0xf7
 14876 17b6 25       		.uleb128 0x25
 14877 17b7 1B       		.byte	0x1b
 14878 17b8 F7       		.byte	0xf7
 14879 17b9 00       		.uleb128 0
 14880 17ba 9F       		.byte	0x9f
 14881 17bb CA040000 		.4byte	.LVL342
 14882 17bf D2040000 		.4byte	.LVL344
 14883 17c3 2500     		.2byte	0x25
 14884 17c5 91       		.byte	0x91
 14885 17c6 E87E     		.sleb128 -152
 14886 17c8 06       		.byte	0x6
 14887 17c9 23       		.byte	0x23
 14888 17ca 06       		.uleb128 0x6
 14889 17cb 94       		.byte	0x94
 14890 17cc 02       		.byte	0x2
 14891 17cd 40       		.byte	0x40
 14892 17ce 24       		.byte	0x24
 14893 17cf 40       		.byte	0x40
 14894 17d0 26       		.byte	0x26
 14895 17d1 91       		.byte	0x91
 14896 17d2 AA7F     		.sleb128 -86
 14897 17d4 94       		.byte	0x94
 14898 17d5 02       		.byte	0x2
 14899 17d6 40       		.byte	0x40
 14900 17d7 24       		.byte	0x24
 14901 17d8 40       		.byte	0x40
 14902 17d9 26       		.byte	0x26
 14903 17da 1C       		.byte	0x1c
 14904 17db 08       		.byte	0x8
 14905 17dc FF       		.byte	0xff
 14906 17dd 1E       		.byte	0x1e
 14907 17de F7       		.byte	0xf7
 14908 17df 25       		.uleb128 0x25
 14909 17e0 91       		.byte	0x91
 14910 17e1 D07E     		.sleb128 -176
 14911 17e3 06       		.byte	0x6
 14912 17e4 F7       		.byte	0xf7
 14913 17e5 25       		.uleb128 0x25
 14914 17e6 1B       		.byte	0x1b
 14915 17e7 F7       		.byte	0xf7
ARM GAS  C:\Users\d3bug\AppData\Local\Temp\ccPpCIYA.s 			page 304


 14916 17e8 00       		.uleb128 0
 14917 17e9 9F       		.byte	0x9f
 14918 17ea 00000000 		.4byte	0
 14919 17ee 00000000 		.4byte	0
 14920              	.LLST101:
 14921 17f2 CE040000 		.4byte	.LVL343
 14922 17f6 DD040000 		.4byte	.LVL345-1
 14923 17fa 0100     		.2byte	0x1
 14924 17fc 52       		.byte	0x52
 14925 17fd 00000000 		.4byte	0
 14926 1801 00000000 		.4byte	0
 14927              	.LLST102:
 14928 1805 B8050000 		.4byte	.LVL353
 14929 1809 C0050000 		.4byte	.LVL354
 14930 180d 0100     		.2byte	0x1
 14931 180f 53       		.byte	0x53
 14932 1810 C0050000 		.4byte	.LVL354
 14933 1814 C4050000 		.4byte	.LVL355
 14934 1818 2200     		.2byte	0x22
 14935 181a 91       		.byte	0x91
 14936 181b E87E     		.sleb128 -152
 14937 181d 06       		.byte	0x6
 14938 181e 23       		.byte	0x23
 14939 181f 06       		.uleb128 0x6
 14940 1820 94       		.byte	0x94
 14941 1821 02       		.byte	0x2
 14942 1822 40       		.byte	0x40
 14943 1823 24       		.byte	0x24
 14944 1824 40       		.byte	0x40
 14945 1825 26       		.byte	0x26
 14946 1826 91       		.byte	0x91
 14947 1827 42       		.sleb128 -62
 14948 1828 94       		.byte	0x94
 14949 1829 02       		.byte	0x2
 14950 182a 40       		.byte	0x40
 14951 182b 24       		.byte	0x24
 14952 182c 40       		.byte	0x40
 14953 182d 26       		.byte	0x26
 14954 182e 1C       		.byte	0x1c
 14955 182f 08       		.byte	0x8
 14956 1830 FF       		.byte	0xff
 14957 1831 1E       		.byte	0x1e
 14958 1832 F7       		.byte	0xf7
 14959 1833 25       		.uleb128 0x25
 14960 1834 72       		.byte	0x72
 14961 1835 00       		.sleb128 0
 14962 1836 F7       		.byte	0xf7
 14963 1837 25       		.uleb128 0x25
 14964 1838 1B       		.byte	0x1b
 14965 1839 F7       		.byte	0xf7
 14966 183a 00       		.uleb128 0
 14967 183b 9F       		.byte	0x9f
 14968 183c C4050000 		.4byte	.LVL355
 14969 1840 C6050000 		.4byte	.LVL356
 14970 1844 2400     		.2byte	0x24
 14971 1846 91       		.byte	0x91
 14972 1847 E87E     		.sleb128 -152
ARM GAS  C:\Users\d3bug\AppData\Local\Temp\ccPpCIYA.s 			page 305


 14973 1849 06       		.byte	0x6
 14974 184a 23       		.byte	0x23
 14975 184b 06       		.uleb128 0x6
 14976 184c 94       		.byte	0x94
 14977 184d 02       		.byte	0x2
 14978 184e 40       		.byte	0x40
 14979 184f 24       		.byte	0x24
 14980 1850 40       		.byte	0x40
 14981 1851 26       		.byte	0x26
 14982 1852 91       		.byte	0x91
 14983 1853 42       		.sleb128 -62
 14984 1854 94       		.byte	0x94
 14985 1855 02       		.byte	0x2
 14986 1856 40       		.byte	0x40
 14987 1857 24       		.byte	0x24
 14988 1858 40       		.byte	0x40
 14989 1859 26       		.byte	0x26
 14990 185a 1C       		.byte	0x1c
 14991 185b 08       		.byte	0x8
 14992 185c FF       		.byte	0xff
 14993 185d 1E       		.byte	0x1e
 14994 185e F7       		.byte	0xf7
 14995 185f 25       		.uleb128 0x25
 14996 1860 91       		.byte	0x91
 14997 1861 D07E     		.sleb128 -176
 14998 1863 06       		.byte	0x6
 14999 1864 F7       		.byte	0xf7
 15000 1865 25       		.uleb128 0x25
 15001 1866 1B       		.byte	0x1b
 15002 1867 F7       		.byte	0xf7
 15003 1868 00       		.uleb128 0
 15004 1869 9F       		.byte	0x9f
 15005 186a C6050000 		.4byte	.LVL356
 15006 186e C8050000 		.4byte	.LVL357
 15007 1872 0100     		.2byte	0x1
 15008 1874 53       		.byte	0x53
 15009 1875 C8050000 		.4byte	.LVL357
 15010 1879 CC050000 		.4byte	.LVL358
 15011 187d 2200     		.2byte	0x22
 15012 187f 91       		.byte	0x91
 15013 1880 E87E     		.sleb128 -152
 15014 1882 06       		.byte	0x6
 15015 1883 23       		.byte	0x23
 15016 1884 06       		.uleb128 0x6
 15017 1885 94       		.byte	0x94
 15018 1886 02       		.byte	0x2
 15019 1887 40       		.byte	0x40
 15020 1888 24       		.byte	0x24
 15021 1889 40       		.byte	0x40
 15022 188a 26       		.byte	0x26
 15023 188b 91       		.byte	0x91
 15024 188c 42       		.sleb128 -62
 15025 188d 94       		.byte	0x94
 15026 188e 02       		.byte	0x2
 15027 188f 40       		.byte	0x40
 15028 1890 24       		.byte	0x24
 15029 1891 40       		.byte	0x40
ARM GAS  C:\Users\d3bug\AppData\Local\Temp\ccPpCIYA.s 			page 306


 15030 1892 26       		.byte	0x26
 15031 1893 1C       		.byte	0x1c
 15032 1894 08       		.byte	0x8
 15033 1895 FF       		.byte	0xff
 15034 1896 1E       		.byte	0x1e
 15035 1897 F7       		.byte	0xf7
 15036 1898 25       		.uleb128 0x25
 15037 1899 72       		.byte	0x72
 15038 189a 00       		.sleb128 0
 15039 189b F7       		.byte	0xf7
 15040 189c 25       		.uleb128 0x25
 15041 189d 1B       		.byte	0x1b
 15042 189e F7       		.byte	0xf7
 15043 189f 00       		.uleb128 0
 15044 18a0 9F       		.byte	0x9f
 15045 18a1 00000000 		.4byte	0
 15046 18a5 00000000 		.4byte	0
 15047              	.LLST103:
 15048 18a9 08060000 		.4byte	.LVL360
 15049 18ad 10060000 		.4byte	.LVL361
 15050 18b1 0100     		.2byte	0x1
 15051 18b3 53       		.byte	0x53
 15052 18b4 10060000 		.4byte	.LVL361
 15053 18b8 14060000 		.4byte	.LVL362
 15054 18bc 2300     		.2byte	0x23
 15055 18be 91       		.byte	0x91
 15056 18bf E87E     		.sleb128 -152
 15057 18c1 06       		.byte	0x6
 15058 18c2 23       		.byte	0x23
 15059 18c3 06       		.uleb128 0x6
 15060 18c4 94       		.byte	0x94
 15061 18c5 02       		.byte	0x2
 15062 18c6 40       		.byte	0x40
 15063 18c7 24       		.byte	0x24
 15064 18c8 40       		.byte	0x40
 15065 18c9 26       		.byte	0x26
 15066 18ca 91       		.byte	0x91
 15067 18cb BA7F     		.sleb128 -70
 15068 18cd 94       		.byte	0x94
 15069 18ce 02       		.byte	0x2
 15070 18cf 40       		.byte	0x40
 15071 18d0 24       		.byte	0x24
 15072 18d1 40       		.byte	0x40
 15073 18d2 26       		.byte	0x26
 15074 18d3 1C       		.byte	0x1c
 15075 18d4 08       		.byte	0x8
 15076 18d5 FF       		.byte	0xff
 15077 18d6 1E       		.byte	0x1e
 15078 18d7 F7       		.byte	0xf7
 15079 18d8 25       		.uleb128 0x25
 15080 18d9 72       		.byte	0x72
 15081 18da 00       		.sleb128 0
 15082 18db F7       		.byte	0xf7
 15083 18dc 25       		.uleb128 0x25
 15084 18dd 1B       		.byte	0x1b
 15085 18de F7       		.byte	0xf7
 15086 18df 00       		.uleb128 0
ARM GAS  C:\Users\d3bug\AppData\Local\Temp\ccPpCIYA.s 			page 307


 15087 18e0 9F       		.byte	0x9f
 15088 18e1 14060000 		.4byte	.LVL362
 15089 18e5 16060000 		.4byte	.LVL363
 15090 18e9 2500     		.2byte	0x25
 15091 18eb 91       		.byte	0x91
 15092 18ec E87E     		.sleb128 -152
 15093 18ee 06       		.byte	0x6
 15094 18ef 23       		.byte	0x23
 15095 18f0 06       		.uleb128 0x6
 15096 18f1 94       		.byte	0x94
 15097 18f2 02       		.byte	0x2
 15098 18f3 40       		.byte	0x40
 15099 18f4 24       		.byte	0x24
 15100 18f5 40       		.byte	0x40
 15101 18f6 26       		.byte	0x26
 15102 18f7 91       		.byte	0x91
 15103 18f8 BA7F     		.sleb128 -70
 15104 18fa 94       		.byte	0x94
 15105 18fb 02       		.byte	0x2
 15106 18fc 40       		.byte	0x40
 15107 18fd 24       		.byte	0x24
 15108 18fe 40       		.byte	0x40
 15109 18ff 26       		.byte	0x26
 15110 1900 1C       		.byte	0x1c
 15111 1901 08       		.byte	0x8
 15112 1902 FF       		.byte	0xff
 15113 1903 1E       		.byte	0x1e
 15114 1904 F7       		.byte	0xf7
 15115 1905 25       		.uleb128 0x25
 15116 1906 91       		.byte	0x91
 15117 1907 D07E     		.sleb128 -176
 15118 1909 06       		.byte	0x6
 15119 190a F7       		.byte	0xf7
 15120 190b 25       		.uleb128 0x25
 15121 190c 1B       		.byte	0x1b
 15122 190d F7       		.byte	0xf7
 15123 190e 00       		.uleb128 0
 15124 190f 9F       		.byte	0x9f
 15125 1910 16060000 		.4byte	.LVL363
 15126 1914 18060000 		.4byte	.LVL364
 15127 1918 0100     		.2byte	0x1
 15128 191a 53       		.byte	0x53
 15129 191b 18060000 		.4byte	.LVL364
 15130 191f 1C060000 		.4byte	.LVL365
 15131 1923 2300     		.2byte	0x23
 15132 1925 91       		.byte	0x91
 15133 1926 E87E     		.sleb128 -152
 15134 1928 06       		.byte	0x6
 15135 1929 23       		.byte	0x23
 15136 192a 06       		.uleb128 0x6
 15137 192b 94       		.byte	0x94
 15138 192c 02       		.byte	0x2
 15139 192d 40       		.byte	0x40
 15140 192e 24       		.byte	0x24
 15141 192f 40       		.byte	0x40
 15142 1930 26       		.byte	0x26
 15143 1931 91       		.byte	0x91
ARM GAS  C:\Users\d3bug\AppData\Local\Temp\ccPpCIYA.s 			page 308


 15144 1932 BA7F     		.sleb128 -70
 15145 1934 94       		.byte	0x94
 15146 1935 02       		.byte	0x2
 15147 1936 40       		.byte	0x40
 15148 1937 24       		.byte	0x24
 15149 1938 40       		.byte	0x40
 15150 1939 26       		.byte	0x26
 15151 193a 1C       		.byte	0x1c
 15152 193b 08       		.byte	0x8
 15153 193c FF       		.byte	0xff
 15154 193d 1E       		.byte	0x1e
 15155 193e F7       		.byte	0xf7
 15156 193f 25       		.uleb128 0x25
 15157 1940 72       		.byte	0x72
 15158 1941 00       		.sleb128 0
 15159 1942 F7       		.byte	0xf7
 15160 1943 25       		.uleb128 0x25
 15161 1944 1B       		.byte	0x1b
 15162 1945 F7       		.byte	0xf7
 15163 1946 00       		.uleb128 0
 15164 1947 9F       		.byte	0x9f
 15165 1948 00000000 		.4byte	0
 15166 194c 00000000 		.4byte	0
 15167              	.LLST104:
 15168 1950 4C060000 		.4byte	.LVL367
 15169 1954 54060000 		.4byte	.LVL368
 15170 1958 0100     		.2byte	0x1
 15171 195a 53       		.byte	0x53
 15172 195b 54060000 		.4byte	.LVL368
 15173 195f 58060000 		.4byte	.LVL369
 15174 1963 2300     		.2byte	0x23
 15175 1965 91       		.byte	0x91
 15176 1966 E87E     		.sleb128 -152
 15177 1968 06       		.byte	0x6
 15178 1969 23       		.byte	0x23
 15179 196a 06       		.uleb128 0x6
 15180 196b 94       		.byte	0x94
 15181 196c 02       		.byte	0x2
 15182 196d 40       		.byte	0x40
 15183 196e 24       		.byte	0x24
 15184 196f 40       		.byte	0x40
 15185 1970 26       		.byte	0x26
 15186 1971 91       		.byte	0x91
 15187 1972 B27F     		.sleb128 -78
 15188 1974 94       		.byte	0x94
 15189 1975 02       		.byte	0x2
 15190 1976 40       		.byte	0x40
 15191 1977 24       		.byte	0x24
 15192 1978 40       		.byte	0x40
 15193 1979 26       		.byte	0x26
 15194 197a 1C       		.byte	0x1c
 15195 197b 08       		.byte	0x8
 15196 197c FF       		.byte	0xff
 15197 197d 1E       		.byte	0x1e
 15198 197e F7       		.byte	0xf7
 15199 197f 25       		.uleb128 0x25
 15200 1980 72       		.byte	0x72
ARM GAS  C:\Users\d3bug\AppData\Local\Temp\ccPpCIYA.s 			page 309


 15201 1981 00       		.sleb128 0
 15202 1982 F7       		.byte	0xf7
 15203 1983 25       		.uleb128 0x25
 15204 1984 1B       		.byte	0x1b
 15205 1985 F7       		.byte	0xf7
 15206 1986 00       		.uleb128 0
 15207 1987 9F       		.byte	0x9f
 15208 1988 58060000 		.4byte	.LVL369
 15209 198c 5A060000 		.4byte	.LVL370
 15210 1990 2500     		.2byte	0x25
 15211 1992 91       		.byte	0x91
 15212 1993 E87E     		.sleb128 -152
 15213 1995 06       		.byte	0x6
 15214 1996 23       		.byte	0x23
 15215 1997 06       		.uleb128 0x6
 15216 1998 94       		.byte	0x94
 15217 1999 02       		.byte	0x2
 15218 199a 40       		.byte	0x40
 15219 199b 24       		.byte	0x24
 15220 199c 40       		.byte	0x40
 15221 199d 26       		.byte	0x26
 15222 199e 91       		.byte	0x91
 15223 199f B27F     		.sleb128 -78
 15224 19a1 94       		.byte	0x94
 15225 19a2 02       		.byte	0x2
 15226 19a3 40       		.byte	0x40
 15227 19a4 24       		.byte	0x24
 15228 19a5 40       		.byte	0x40
 15229 19a6 26       		.byte	0x26
 15230 19a7 1C       		.byte	0x1c
 15231 19a8 08       		.byte	0x8
 15232 19a9 FF       		.byte	0xff
 15233 19aa 1E       		.byte	0x1e
 15234 19ab F7       		.byte	0xf7
 15235 19ac 25       		.uleb128 0x25
 15236 19ad 91       		.byte	0x91
 15237 19ae D07E     		.sleb128 -176
 15238 19b0 06       		.byte	0x6
 15239 19b1 F7       		.byte	0xf7
 15240 19b2 25       		.uleb128 0x25
 15241 19b3 1B       		.byte	0x1b
 15242 19b4 F7       		.byte	0xf7
 15243 19b5 00       		.uleb128 0
 15244 19b6 9F       		.byte	0x9f
 15245 19b7 5A060000 		.4byte	.LVL370
 15246 19bb 5C060000 		.4byte	.LVL371
 15247 19bf 0100     		.2byte	0x1
 15248 19c1 53       		.byte	0x53
 15249 19c2 5C060000 		.4byte	.LVL371
 15250 19c6 60060000 		.4byte	.LVL372
 15251 19ca 2300     		.2byte	0x23
 15252 19cc 91       		.byte	0x91
 15253 19cd E87E     		.sleb128 -152
 15254 19cf 06       		.byte	0x6
 15255 19d0 23       		.byte	0x23
 15256 19d1 06       		.uleb128 0x6
 15257 19d2 94       		.byte	0x94
ARM GAS  C:\Users\d3bug\AppData\Local\Temp\ccPpCIYA.s 			page 310


 15258 19d3 02       		.byte	0x2
 15259 19d4 40       		.byte	0x40
 15260 19d5 24       		.byte	0x24
 15261 19d6 40       		.byte	0x40
 15262 19d7 26       		.byte	0x26
 15263 19d8 91       		.byte	0x91
 15264 19d9 B27F     		.sleb128 -78
 15265 19db 94       		.byte	0x94
 15266 19dc 02       		.byte	0x2
 15267 19dd 40       		.byte	0x40
 15268 19de 24       		.byte	0x24
 15269 19df 40       		.byte	0x40
 15270 19e0 26       		.byte	0x26
 15271 19e1 1C       		.byte	0x1c
 15272 19e2 08       		.byte	0x8
 15273 19e3 FF       		.byte	0xff
 15274 19e4 1E       		.byte	0x1e
 15275 19e5 F7       		.byte	0xf7
 15276 19e6 25       		.uleb128 0x25
 15277 19e7 72       		.byte	0x72
 15278 19e8 00       		.sleb128 0
 15279 19e9 F7       		.byte	0xf7
 15280 19ea 25       		.uleb128 0x25
 15281 19eb 1B       		.byte	0x1b
 15282 19ec F7       		.byte	0xf7
 15283 19ed 00       		.uleb128 0
 15284 19ee 9F       		.byte	0x9f
 15285 19ef 00000000 		.4byte	0
 15286 19f3 00000000 		.4byte	0
 15287              	.LLST105:
 15288 19f7 9C060000 		.4byte	.LVL374
 15289 19fb A4060000 		.4byte	.LVL375
 15290 19ff 0100     		.2byte	0x1
 15291 1a01 53       		.byte	0x53
 15292 1a02 A4060000 		.4byte	.LVL375
 15293 1a06 A8060000 		.4byte	.LVL376
 15294 1a0a 2300     		.2byte	0x23
 15295 1a0c 91       		.byte	0x91
 15296 1a0d E87E     		.sleb128 -152
 15297 1a0f 06       		.byte	0x6
 15298 1a10 23       		.byte	0x23
 15299 1a11 06       		.uleb128 0x6
 15300 1a12 94       		.byte	0x94
 15301 1a13 02       		.byte	0x2
 15302 1a14 40       		.byte	0x40
 15303 1a15 24       		.byte	0x24
 15304 1a16 40       		.byte	0x40
 15305 1a17 26       		.byte	0x26
 15306 1a18 91       		.byte	0x91
 15307 1a19 AA7F     		.sleb128 -86
 15308 1a1b 94       		.byte	0x94
 15309 1a1c 02       		.byte	0x2
 15310 1a1d 40       		.byte	0x40
 15311 1a1e 24       		.byte	0x24
 15312 1a1f 40       		.byte	0x40
 15313 1a20 26       		.byte	0x26
 15314 1a21 1C       		.byte	0x1c
ARM GAS  C:\Users\d3bug\AppData\Local\Temp\ccPpCIYA.s 			page 311


 15315 1a22 08       		.byte	0x8
 15316 1a23 FF       		.byte	0xff
 15317 1a24 1E       		.byte	0x1e
 15318 1a25 F7       		.byte	0xf7
 15319 1a26 25       		.uleb128 0x25
 15320 1a27 72       		.byte	0x72
 15321 1a28 00       		.sleb128 0
 15322 1a29 F7       		.byte	0xf7
 15323 1a2a 25       		.uleb128 0x25
 15324 1a2b 1B       		.byte	0x1b
 15325 1a2c F7       		.byte	0xf7
 15326 1a2d 00       		.uleb128 0
 15327 1a2e 9F       		.byte	0x9f
 15328 1a2f A8060000 		.4byte	.LVL376
 15329 1a33 AA060000 		.4byte	.LVL377
 15330 1a37 2500     		.2byte	0x25
 15331 1a39 91       		.byte	0x91
 15332 1a3a E87E     		.sleb128 -152
 15333 1a3c 06       		.byte	0x6
 15334 1a3d 23       		.byte	0x23
 15335 1a3e 06       		.uleb128 0x6
 15336 1a3f 94       		.byte	0x94
 15337 1a40 02       		.byte	0x2
 15338 1a41 40       		.byte	0x40
 15339 1a42 24       		.byte	0x24
 15340 1a43 40       		.byte	0x40
 15341 1a44 26       		.byte	0x26
 15342 1a45 91       		.byte	0x91
 15343 1a46 AA7F     		.sleb128 -86
 15344 1a48 94       		.byte	0x94
 15345 1a49 02       		.byte	0x2
 15346 1a4a 40       		.byte	0x40
 15347 1a4b 24       		.byte	0x24
 15348 1a4c 40       		.byte	0x40
 15349 1a4d 26       		.byte	0x26
 15350 1a4e 1C       		.byte	0x1c
 15351 1a4f 08       		.byte	0x8
 15352 1a50 FF       		.byte	0xff
 15353 1a51 1E       		.byte	0x1e
 15354 1a52 F7       		.byte	0xf7
 15355 1a53 25       		.uleb128 0x25
 15356 1a54 91       		.byte	0x91
 15357 1a55 D07E     		.sleb128 -176
 15358 1a57 06       		.byte	0x6
 15359 1a58 F7       		.byte	0xf7
 15360 1a59 25       		.uleb128 0x25
 15361 1a5a 1B       		.byte	0x1b
 15362 1a5b F7       		.byte	0xf7
 15363 1a5c 00       		.uleb128 0
 15364 1a5d 9F       		.byte	0x9f
 15365 1a5e AA060000 		.4byte	.LVL377
 15366 1a62 AC060000 		.4byte	.LVL378
 15367 1a66 0100     		.2byte	0x1
 15368 1a68 53       		.byte	0x53
 15369 1a69 AC060000 		.4byte	.LVL378
 15370 1a6d B0060000 		.4byte	.LVL379
 15371 1a71 2300     		.2byte	0x23
ARM GAS  C:\Users\d3bug\AppData\Local\Temp\ccPpCIYA.s 			page 312


 15372 1a73 91       		.byte	0x91
 15373 1a74 E87E     		.sleb128 -152
 15374 1a76 06       		.byte	0x6
 15375 1a77 23       		.byte	0x23
 15376 1a78 06       		.uleb128 0x6
 15377 1a79 94       		.byte	0x94
 15378 1a7a 02       		.byte	0x2
 15379 1a7b 40       		.byte	0x40
 15380 1a7c 24       		.byte	0x24
 15381 1a7d 40       		.byte	0x40
 15382 1a7e 26       		.byte	0x26
 15383 1a7f 91       		.byte	0x91
 15384 1a80 AA7F     		.sleb128 -86
 15385 1a82 94       		.byte	0x94
 15386 1a83 02       		.byte	0x2
 15387 1a84 40       		.byte	0x40
 15388 1a85 24       		.byte	0x24
 15389 1a86 40       		.byte	0x40
 15390 1a87 26       		.byte	0x26
 15391 1a88 1C       		.byte	0x1c
 15392 1a89 08       		.byte	0x8
 15393 1a8a FF       		.byte	0xff
 15394 1a8b 1E       		.byte	0x1e
 15395 1a8c F7       		.byte	0xf7
 15396 1a8d 25       		.uleb128 0x25
 15397 1a8e 72       		.byte	0x72
 15398 1a8f 00       		.sleb128 0
 15399 1a90 F7       		.byte	0xf7
 15400 1a91 25       		.uleb128 0x25
 15401 1a92 1B       		.byte	0x1b
 15402 1a93 F7       		.byte	0xf7
 15403 1a94 00       		.uleb128 0
 15404 1a95 9F       		.byte	0x9f
 15405 1a96 00000000 		.4byte	0
 15406 1a9a 00000000 		.4byte	0
 15407              	.LLST106:
 15408 1a9e 36070000 		.4byte	.LVL386
 15409 1aa2 4E070000 		.4byte	.LVL387
 15410 1aa6 0100     		.2byte	0x1
 15411 1aa8 53       		.byte	0x53
 15412 1aa9 00000000 		.4byte	0
 15413 1aad 00000000 		.4byte	0
 15414              	.LLST107:
 15415 1ab1 4E070000 		.4byte	.LVL387
 15416 1ab5 54070000 		.4byte	.LVL388
 15417 1ab9 0100     		.2byte	0x1
 15418 1abb 53       		.byte	0x53
 15419 1abc 54070000 		.4byte	.LVL388
 15420 1ac0 6A070000 		.4byte	.LVL389
 15421 1ac4 1600     		.2byte	0x16
 15422 1ac6 76       		.byte	0x76
 15423 1ac7 00       		.sleb128 0
 15424 1ac8 91       		.byte	0x91
 15425 1ac9 C07E     		.sleb128 -192
 15426 1acb 06       		.byte	0x6
 15427 1acc 1C       		.byte	0x1c
 15428 1acd 08       		.byte	0x8
ARM GAS  C:\Users\d3bug\AppData\Local\Temp\ccPpCIYA.s 			page 313


 15429 1ace FF       		.byte	0xff
 15430 1acf 1E       		.byte	0x1e
 15431 1ad0 F7       		.byte	0xf7
 15432 1ad1 25       		.uleb128 0x25
 15433 1ad2 91       		.byte	0x91
 15434 1ad3 D07E     		.sleb128 -176
 15435 1ad5 06       		.byte	0x6
 15436 1ad6 F7       		.byte	0xf7
 15437 1ad7 25       		.uleb128 0x25
 15438 1ad8 1B       		.byte	0x1b
 15439 1ad9 F7       		.byte	0xf7
 15440 1ada 00       		.uleb128 0
 15441 1adb 9F       		.byte	0x9f
 15442 1adc 00000000 		.4byte	0
 15443 1ae0 00000000 		.4byte	0
 15444              	.LLST108:
 15445 1ae4 8A070000 		.4byte	.LVL392
 15446 1ae8 E0080000 		.4byte	.LVL408
 15447 1aec 0100     		.2byte	0x1
 15448 1aee 56       		.byte	0x56
 15449 1aef 00000000 		.4byte	0
 15450 1af3 00000000 		.4byte	0
 15451              	.LLST109:
 15452 1af7 3C080000 		.4byte	.LVL399
 15453 1afb 54080000 		.4byte	.LVL400
 15454 1aff 0100     		.2byte	0x1
 15455 1b01 55       		.byte	0x55
 15456 1b02 00000000 		.4byte	0
 15457 1b06 00000000 		.4byte	0
 15458              	.LLST110:
 15459 1b0a 7A070000 		.4byte	.LVL390
 15460 1b0e 42090000 		.4byte	.LVL415
 15461 1b12 0100     		.2byte	0x1
 15462 1b14 58       		.byte	0x58
 15463 1b15 B6090000 		.4byte	.LVL419
 15464 1b19 BC090000 		.4byte	.LVL420
 15465 1b1d 0100     		.2byte	0x1
 15466 1b1f 58       		.byte	0x58
 15467 1b20 00000000 		.4byte	0
 15468 1b24 00000000 		.4byte	0
 15469              	.LLST111:
 15470 1b28 8C080000 		.4byte	.LVL402
 15471 1b2c A2080000 		.4byte	.LVL403
 15472 1b30 0100     		.2byte	0x1
 15473 1b32 55       		.byte	0x55
 15474 1b33 00000000 		.4byte	0
 15475 1b37 00000000 		.4byte	0
 15476              	.LLST112:
 15477 1b3b 7A070000 		.4byte	.LVL390
 15478 1b3f BC090000 		.4byte	.LVL420
 15479 1b43 0100     		.2byte	0x1
 15480 1b45 5B       		.byte	0x5b
 15481 1b46 00000000 		.4byte	0
 15482 1b4a 00000000 		.4byte	0
 15483              	.LLST113:
 15484 1b4e 42090000 		.4byte	.LVL415
 15485 1b52 B6090000 		.4byte	.LVL419
ARM GAS  C:\Users\d3bug\AppData\Local\Temp\ccPpCIYA.s 			page 314


 15486 1b56 0100     		.2byte	0x1
 15487 1b58 58       		.byte	0x58
 15488 1b59 00000000 		.4byte	0
 15489 1b5d 00000000 		.4byte	0
 15490              	.LLST114:
 15491 1b61 06090000 		.4byte	.LVL409
 15492 1b65 22090000 		.4byte	.LVL411
 15493 1b69 0100     		.2byte	0x1
 15494 1b6b 53       		.byte	0x53
 15495 1b6c 00000000 		.4byte	0
 15496 1b70 00000000 		.4byte	0
 15497              	.LLST115:
 15498 1b74 22090000 		.4byte	.LVL411
 15499 1b78 BC090000 		.4byte	.LVL420
 15500 1b7c 0100     		.2byte	0x1
 15501 1b7e 55       		.byte	0x55
 15502 1b7f 00000000 		.4byte	0
 15503 1b83 00000000 		.4byte	0
 15504              	.LLST116:
 15505 1b87 22090000 		.4byte	.LVL411
 15506 1b8b 28090000 		.4byte	.LVL412
 15507 1b8f 0100     		.2byte	0x1
 15508 1b91 53       		.byte	0x53
 15509 1b92 28090000 		.4byte	.LVL412
 15510 1b96 3C090000 		.4byte	.LVL414
 15511 1b9a 1300     		.2byte	0x13
 15512 1b9c 91       		.byte	0x91
 15513 1b9d C07E     		.sleb128 -192
 15514 1b9f 06       		.byte	0x6
 15515 1ba0 08       		.byte	0x8
 15516 1ba1 FF       		.byte	0xff
 15517 1ba2 1E       		.byte	0x1e
 15518 1ba3 F7       		.byte	0xf7
 15519 1ba4 25       		.uleb128 0x25
 15520 1ba5 91       		.byte	0x91
 15521 1ba6 D07E     		.sleb128 -176
 15522 1ba8 06       		.byte	0x6
 15523 1ba9 F7       		.byte	0xf7
 15524 1baa 25       		.uleb128 0x25
 15525 1bab 1B       		.byte	0x1b
 15526 1bac F7       		.byte	0xf7
 15527 1bad 00       		.uleb128 0
 15528 1bae 9F       		.byte	0x9f
 15529 1baf 00000000 		.4byte	0
 15530 1bb3 00000000 		.4byte	0
 15531              	.LLST117:
 15532 1bb7 3C090000 		.4byte	.LVL414
 15533 1bbb BC090000 		.4byte	.LVL420
 15534 1bbf 0100     		.2byte	0x1
 15535 1bc1 57       		.byte	0x57
 15536 1bc2 00000000 		.4byte	0
 15537 1bc6 00000000 		.4byte	0
 15538              	.LLST118:
 15539 1bca 00000000 		.4byte	.LVL421
 15540 1bce 41000000 		.4byte	.LVL427-1
 15541 1bd2 0100     		.2byte	0x1
 15542 1bd4 50       		.byte	0x50
ARM GAS  C:\Users\d3bug\AppData\Local\Temp\ccPpCIYA.s 			page 315


 15543 1bd5 41000000 		.4byte	.LVL427-1
 15544 1bd9 82000000 		.4byte	.LVL430
 15545 1bdd 0100     		.2byte	0x1
 15546 1bdf 56       		.byte	0x56
 15547 1be0 82000000 		.4byte	.LVL430
 15548 1be4 84000000 		.4byte	.LFE12
 15549 1be8 0400     		.2byte	0x4
 15550 1bea F3       		.byte	0xf3
 15551 1beb 01       		.uleb128 0x1
 15552 1bec 50       		.byte	0x50
 15553 1bed 9F       		.byte	0x9f
 15554 1bee 00000000 		.4byte	0
 15555 1bf2 00000000 		.4byte	0
 15556              	.LLST119:
 15557 1bf6 00000000 		.4byte	.LVL421
 15558 1bfa 41000000 		.4byte	.LVL427-1
 15559 1bfe 0100     		.2byte	0x1
 15560 1c00 51       		.byte	0x51
 15561 1c01 41000000 		.4byte	.LVL427-1
 15562 1c05 82000000 		.4byte	.LVL430
 15563 1c09 0100     		.2byte	0x1
 15564 1c0b 57       		.byte	0x57
 15565 1c0c 82000000 		.4byte	.LVL430
 15566 1c10 84000000 		.4byte	.LFE12
 15567 1c14 0400     		.2byte	0x4
 15568 1c16 F3       		.byte	0xf3
 15569 1c17 01       		.uleb128 0x1
 15570 1c18 51       		.byte	0x51
 15571 1c19 9F       		.byte	0x9f
 15572 1c1a 00000000 		.4byte	0
 15573 1c1e 00000000 		.4byte	0
 15574              	.LLST120:
 15575 1c22 00000000 		.4byte	.LVL421
 15576 1c26 41000000 		.4byte	.LVL427-1
 15577 1c2a 0100     		.2byte	0x1
 15578 1c2c 52       		.byte	0x52
 15579 1c2d 41000000 		.4byte	.LVL427-1
 15580 1c31 82000000 		.4byte	.LVL430
 15581 1c35 0100     		.2byte	0x1
 15582 1c37 54       		.byte	0x54
 15583 1c38 82000000 		.4byte	.LVL430
 15584 1c3c 84000000 		.4byte	.LFE12
 15585 1c40 0400     		.2byte	0x4
 15586 1c42 F3       		.byte	0xf3
 15587 1c43 01       		.uleb128 0x1
 15588 1c44 52       		.byte	0x52
 15589 1c45 9F       		.byte	0x9f
 15590 1c46 00000000 		.4byte	0
 15591 1c4a 00000000 		.4byte	0
 15592              	.LLST121:
 15593 1c4e 00000000 		.4byte	.LVL421
 15594 1c52 30000000 		.4byte	.LVL426
 15595 1c56 0100     		.2byte	0x1
 15596 1c58 53       		.byte	0x53
 15597 1c59 30000000 		.4byte	.LVL426
 15598 1c5d 84000000 		.4byte	.LFE12
 15599 1c61 0400     		.2byte	0x4
ARM GAS  C:\Users\d3bug\AppData\Local\Temp\ccPpCIYA.s 			page 316


 15600 1c63 F3       		.byte	0xf3
 15601 1c64 01       		.uleb128 0x1
 15602 1c65 53       		.byte	0x53
 15603 1c66 9F       		.byte	0x9f
 15604 1c67 00000000 		.4byte	0
 15605 1c6b 00000000 		.4byte	0
 15606              	.LLST122:
 15607 1c6f 02000000 		.4byte	.LVL422
 15608 1c73 10000000 		.4byte	.LVL423
 15609 1c77 0100     		.2byte	0x1
 15610 1c79 50       		.byte	0x50
 15611 1c7a 00000000 		.4byte	0
 15612 1c7e 00000000 		.4byte	0
 15613              	.LLST123:
 15614 1c82 14000000 		.4byte	.LVL424
 15615 1c86 22000000 		.4byte	.LVL425
 15616 1c8a 0100     		.2byte	0x1
 15617 1c8c 50       		.byte	0x50
 15618 1c8d 00000000 		.4byte	0
 15619 1c91 00000000 		.4byte	0
 15620              		.section	.debug_aranges,"",%progbits
 15621 0000 4C000000 		.4byte	0x4c
 15622 0004 0200     		.2byte	0x2
 15623 0006 00000000 		.4byte	.Ldebug_info0
 15624 000a 04       		.byte	0x4
 15625 000b 00       		.byte	0
 15626 000c 0000     		.2byte	0
 15627 000e 0000     		.2byte	0
 15628 0010 00000000 		.4byte	.LFB17
 15629 0014 24000000 		.4byte	.LFE17-.LFB17
 15630 0018 00000000 		.4byte	.LFB13
 15631 001c 40010000 		.4byte	.LFE13-.LFB13
 15632 0020 00000000 		.4byte	.LFB15
 15633 0024 4C040000 		.4byte	.LFE15-.LFB15
 15634 0028 00000000 		.4byte	.LFB18
 15635 002c 2C000000 		.4byte	.LFE18-.LFB18
 15636 0030 00000000 		.4byte	.LFB16
 15637 0034 180A0000 		.4byte	.LFE16-.LFB16
 15638 0038 00000000 		.4byte	.LFB14
 15639 003c C0090000 		.4byte	.LFE14-.LFB14
 15640 0040 00000000 		.4byte	.LFB12
 15641 0044 84000000 		.4byte	.LFE12-.LFB12
 15642 0048 00000000 		.4byte	0
 15643 004c 00000000 		.4byte	0
 15644              		.section	.debug_ranges,"",%progbits
 15645              	.Ldebug_ranges0:
 15646 0000 00000000 		.4byte	.LFB17
 15647 0004 24000000 		.4byte	.LFE17
 15648 0008 00000000 		.4byte	.LFB13
 15649 000c 40010000 		.4byte	.LFE13
 15650 0010 00000000 		.4byte	.LFB15
 15651 0014 4C040000 		.4byte	.LFE15
 15652 0018 00000000 		.4byte	.LFB18
 15653 001c 2C000000 		.4byte	.LFE18
 15654 0020 00000000 		.4byte	.LFB16
 15655 0024 180A0000 		.4byte	.LFE16
 15656 0028 00000000 		.4byte	.LFB14
ARM GAS  C:\Users\d3bug\AppData\Local\Temp\ccPpCIYA.s 			page 317


 15657 002c C0090000 		.4byte	.LFE14
 15658 0030 00000000 		.4byte	.LFB12
 15659 0034 84000000 		.4byte	.LFE12
 15660 0038 00000000 		.4byte	0
 15661 003c 00000000 		.4byte	0
 15662              		.section	.debug_line,"",%progbits
 15663              	.Ldebug_line0:
 15664 0000 58070000 		.section	.debug_str,"MS",%progbits,1
 15664      0200DE01 
 15664      00000201 
 15664      FB0E0D00 
 15664      01010101 
 15665              	.LASF29:
 15666 0000 4C565F4F 		.ascii	"LV_OPA_COVER\000"
 15666      50415F43 
 15666      4F564552 
 15666      00
 15667              	.LASF32:
 15668 000d 66756C6C 		.ascii	"full\000"
 15668      00
 15669              	.LASF142:
 15670 0012 61615F63 		.ascii	"aa_color_hor_top\000"
 15670      6F6C6F72 
 15670      5F686F72 
 15670      5F746F70 
 15670      00
 15671              	.LASF27:
 15672 0023 4C565F4F 		.ascii	"LV_OPA_90\000"
 15672      50415F39 
 15672      3000
 15673              	.LASF109:
 15674 002d 636F726E 		.ascii	"corner_size\000"
 15674      65725F73 
 15674      697A6500 
 15675              	.LASF145:
 15676 0039 65646765 		.ascii	"edge_top_refr\000"
 15676      5F746F70 
 15676      5F726566 
 15676      7200
 15677              	.LASF18:
 15678 0047 4C565F4F 		.ascii	"LV_OPA_0\000"
 15678      50415F30 
 15678      00
 15679              	.LASF122:
 15680 0050 746D705F 		.ascii	"tmp_in\000"
 15680      696E00
 15681              	.LASF132:
 15682 0057 696E5F78 		.ascii	"in_x_last\000"
 15682      5F6C6173 
 15682      7400
 15683              	.LASF0:
 15684 0061 756E7369 		.ascii	"unsigned int\000"
 15684      676E6564 
 15684      20696E74 
 15684      00
 15685              	.LASF88:
 15686 006e 6C765F73 		.ascii	"lv_style_t\000"
ARM GAS  C:\Users\d3bug\AppData\Local\Temp\ccPpCIYA.s 			page 318


 15686      74796C65 
 15686      5F7400
 15687              	.LASF50:
 15688 0079 6765745F 		.ascii	"get_bitmap\000"
 15688      6269746D 
 15688      617000
 15689              	.LASF40:
 15690 0084 6C765F70 		.ascii	"lv_point_t\000"
 15690      6F696E74 
 15690      5F7400
 15691              	.LASF150:
 15692 008f 66696C6C 		.ascii	"fill_fp\000"
 15692      5F667000 
 15693              	.LASF127:
 15694 0097 6F75745F 		.ascii	"out_y_seg_start\000"
 15694      795F7365 
 15694      675F7374 
 15694      61727400 
 15695              	.LASF61:
 15696 00a7 4C565F42 		.ascii	"LV_BORDER_RIGHT\000"
 15696      4F524445 
 15696      525F5249 
 15696      47485400 
 15697              	.LASF49:
 15698 00b7 756E6963 		.ascii	"unicode_list\000"
 15698      6F64655F 
 15698      6C697374 
 15698      00
 15699              	.LASF119:
 15700 00c4 6369725F 		.ascii	"cir_out\000"
 15700      6F757400 
 15701              	.LASF112:
 15702 00cc 70785F69 		.ascii	"px_id\000"
 15702      6400
 15703              	.LASF93:
 15704 00d2 6C765F63 		.ascii	"lv_color_mix\000"
 15704      6F6C6F72 
 15704      5F6D6978 
 15704      00
 15705              	.LASF110:
 15706 00df 6C765F64 		.ascii	"lv_draw_cont_radius_corr\000"
 15706      7261775F 
 15706      636F6E74 
 15706      5F726164 
 15706      6975735F 
 15707              	.LASF154:
 15708 00f8 6C765F61 		.ascii	"lv_area_set\000"
 15708      7265615F 
 15708      73657400 
 15709              	.LASF70:
 15710 0104 696E6E65 		.ascii	"inner\000"
 15710      7200
 15711              	.LASF91:
 15712 010a 6C765F61 		.ascii	"lv_area_get_height\000"
 15712      7265615F 
 15712      6765745F 
 15712      68656967 
ARM GAS  C:\Users\d3bug\AppData\Local\Temp\ccPpCIYA.s 			page 319


 15712      687400
 15713              	.LASF16:
 15714 011d 75696E74 		.ascii	"uint32_t\000"
 15714      33325F74 
 15714      00
 15715              	.LASF129:
 15716 0126 6F75745F 		.ascii	"out_x_last\000"
 15716      785F6C61 
 15716      737400
 15717              	.LASF140:
 15718 0131 65646765 		.ascii	"edge_bot_area\000"
 15718      5F626F74 
 15718      5F617265 
 15718      6100
 15719              	.LASF125:
 15720 013f 6163745F 		.ascii	"act_w1\000"
 15720      773100
 15721              	.LASF126:
 15722 0146 6163745F 		.ascii	"act_w2\000"
 15722      773200
 15723              	.LASF137:
 15724 014d 65646765 		.ascii	"edge_top_area\000"
 15724      5F746F70 
 15724      5F617265 
 15724      6100
 15725              	.LASF14:
 15726 015b 696E7431 		.ascii	"int16_t\000"
 15726      365F7400 
 15727              	.LASF55:
 15728 0163 676C7970 		.ascii	"glyph_cnt\000"
 15728      685F636E 
 15728      7400
 15729              	.LASF12:
 15730 016d 6C6F6E67 		.ascii	"long long unsigned int\000"
 15730      206C6F6E 
 15730      6720756E 
 15730      7369676E 
 15730      65642069 
 15731              	.LASF68:
 15732 0184 70617274 		.ascii	"part\000"
 15732      00
 15733              	.LASF143:
 15734 0189 61615F63 		.ascii	"aa_color_hor_bottom\000"
 15734      6F6C6F72 
 15734      5F686F72 
 15734      5F626F74 
 15734      746F6D00 
 15735              	.LASF130:
 15736 019d 696E5F79 		.ascii	"in_y_seg_start\000"
 15736      5F736567 
 15736      5F737461 
 15736      727400
 15737              	.LASF17:
 15738 01ac 4C565F4F 		.ascii	"LV_OPA_TRANSP\000"
 15738      50415F54 
 15738      52414E53 
 15738      5000
ARM GAS  C:\Users\d3bug\AppData\Local\Temp\ccPpCIYA.s 			page 320


 15739              	.LASF131:
 15740 01ba 696E5F79 		.ascii	"in_y_seg_end\000"
 15740      5F736567 
 15740      5F656E64 
 15740      00
 15741              	.LASF106:
 15742 01c7 6C765F64 		.ascii	"lv_draw_rect_border_straight\000"
 15742      7261775F 
 15742      72656374 
 15742      5F626F72 
 15742      6465725F 
 15743              	.LASF6:
 15744 01e4 5F5F7569 		.ascii	"__uint16_t\000"
 15744      6E743136 
 15744      5F7400
 15745              	.LASF98:
 15746 01ef 6D636F6C 		.ascii	"mcolor\000"
 15746      6F7200
 15747              	.LASF107:
 15748 01f6 62776964 		.ascii	"bwidth\000"
 15748      746800
 15749              	.LASF74:
 15750 01fd 626F7264 		.ascii	"border\000"
 15750      657200
 15751              	.LASF63:
 15752 0204 4C565F42 		.ascii	"LV_BORDER_INTERNAL\000"
 15752      4F524445 
 15752      525F494E 
 15752      5445524E 
 15752      414C00
 15753              	.LASF121:
 15754 0217 6369725F 		.ascii	"cir_in\000"
 15754      696E00
 15755              	.LASF52:
 15756 021e 6E657874 		.ascii	"next_page\000"
 15756      5F706167 
 15756      6500
 15757              	.LASF66:
 15758 0228 636F6C6F 		.ascii	"color\000"
 15758      7200
 15759              	.LASF156:
 15760 022e 474E5520 		.ascii	"GNU C11 5.4.1 20160609 (release) [ARM/embedded-5-br"
 15760      43313120 
 15760      352E342E 
 15760      31203230 
 15760      31363036 
 15761 0261 616E6368 		.ascii	"anch revision 237715] -mcpu=cortex-m3 -mthumb -g -O"
 15761      20726576 
 15761      6973696F 
 15761      6E203233 
 15761      37373135 
 15762 0294 67202D66 		.ascii	"g -ffunction-sections -ffat-lto-objects\000"
 15762      66756E63 
 15762      74696F6E 
 15762      2D736563 
 15762      74696F6E 
 15763              	.LASF114:
ARM GAS  C:\Users\d3bug\AppData\Local\Temp\ccPpCIYA.s 			page 321


 15764 02bc 6C765F64 		.ascii	"lv_draw_rect_border_corner\000"
 15764      7261775F 
 15764      72656374 
 15764      5F626F72 
 15764      6465725F 
 15765              	.LASF82:
 15766 02d7 726F756E 		.ascii	"rounded\000"
 15766      64656400 
 15767              	.LASF108:
 15768 02df 6C656E67 		.ascii	"length_corr\000"
 15768      74685F63 
 15768      6F727200 
 15769              	.LASF67:
 15770 02eb 77696474 		.ascii	"width\000"
 15770      6800
 15771              	.LASF152:
 15772 02f1 6C765F63 		.ascii	"lv_circ_init\000"
 15772      6972635F 
 15772      696E6974 
 15772      00
 15773              	.LASF59:
 15774 02fe 4C565F42 		.ascii	"LV_BORDER_TOP\000"
 15774      4F524445 
 15774      525F544F 
 15774      5000
 15775              	.LASF89:
 15776 030c 5F426F6F 		.ascii	"_Bool\000"
 15776      6C00
 15777              	.LASF134:
 15778 0312 61615F70 		.ascii	"aa_p\000"
 15778      00
 15779              	.LASF159:
 15780 0317 5F6C765F 		.ascii	"_lv_font_struct\000"
 15780      666F6E74 
 15780      5F737472 
 15780      75637400 
 15781              	.LASF80:
 15782 0327 6C696E65 		.ascii	"line_space\000"
 15782      5F737061 
 15782      636500
 15783              	.LASF38:
 15784 0332 63686172 		.ascii	"char\000"
 15784      00
 15785              	.LASF128:
 15786 0337 6F75745F 		.ascii	"out_y_seg_end\000"
 15786      795F7365 
 15786      675F656E 
 15786      6400
 15787              	.LASF158:
 15788 0345 433A5C55 		.ascii	"C:\\Users\\d3bug\\Documents\\Creator\\lvgl_ssd1306\\"
 15788      73657273 
 15788      5C643362 
 15788      75675C44 
 15788      6F63756D 
 15789 0373 68656C6C 		.ascii	"hello_world_label.cydsn\000"
 15789      6F5F776F 
 15789      726C645F 
ARM GAS  C:\Users\d3bug\AppData\Local\Temp\ccPpCIYA.s 			page 322


 15789      6C616265 
 15789      6C2E6379 
 15790              	.LASF85:
 15791 038b 74657874 		.ascii	"text\000"
 15791      00
 15792              	.LASF147:
 15793 0390 6D69645F 		.ascii	"mid_bot_refr\000"
 15793      626F745F 
 15793      72656672 
 15793      00
 15794              	.LASF44:
 15795 039d 6C765F66 		.ascii	"lv_font_glyph_dsc_t\000"
 15795      6F6E745F 
 15795      676C7970 
 15795      685F6473 
 15795      635F7400 
 15796              	.LASF33:
 15797 03b1 6C765F63 		.ascii	"lv_color1_t\000"
 15797      6F6C6F72 
 15797      315F7400 
 15798              	.LASF13:
 15799 03bd 75696E74 		.ascii	"uint8_t\000"
 15799      385F7400 
 15800              	.LASF116:
 15801 03c5 6C625F6F 		.ascii	"lb_origo\000"
 15801      7269676F 
 15801      00
 15802              	.LASF157:
 15803 03ce 2E2E5C6C 		.ascii	"..\\lvgl\\lv_draw\\lv_draw_rect.c\000"
 15803      76676C5C 
 15803      6C765F64 
 15803      7261775C 
 15803      6C765F64 
 15804              	.LASF65:
 15805 03ed 6C765F73 		.ascii	"lv_shadow_type_t\000"
 15805      6861646F 
 15805      775F7479 
 15805      70655F74 
 15805      00
 15806              	.LASF19:
 15807 03fe 4C565F4F 		.ascii	"LV_OPA_10\000"
 15807      50415F31 
 15807      3000
 15808              	.LASF11:
 15809 0408 6C6F6E67 		.ascii	"long long int\000"
 15809      206C6F6E 
 15809      6720696E 
 15809      7400
 15810              	.LASF83:
 15811 0416 676C6173 		.ascii	"glass\000"
 15811      7300
 15812              	.LASF136:
 15813 041c 6C765F64 		.ascii	"lv_draw_rect_main_corner\000"
 15813      7261775F 
 15813      72656374 
 15813      5F6D6169 
 15813      6E5F636F 
ARM GAS  C:\Users\d3bug\AppData\Local\Temp\ccPpCIYA.s 			page 323


 15814              	.LASF115:
 15815 0435 6C745F6F 		.ascii	"lt_origo\000"
 15815      7269676F 
 15815      00
 15816              	.LASF76:
 15817 043e 70616464 		.ascii	"padding\000"
 15817      696E6700 
 15818              	.LASF62:
 15819 0446 4C565F42 		.ascii	"LV_BORDER_FULL\000"
 15819      4F524445 
 15819      525F4655 
 15819      4C4C00
 15820              	.LASF90:
 15821 0455 6C765F61 		.ascii	"lv_area_get_width\000"
 15821      7265615F 
 15821      6765745F 
 15821      77696474 
 15821      6800
 15822              	.LASF4:
 15823 0467 5F5F696E 		.ascii	"__int16_t\000"
 15823      7431365F 
 15823      7400
 15824              	.LASF146:
 15825 0471 6D69645F 		.ascii	"mid_top_refr\000"
 15825      746F705F 
 15825      72656672 
 15825      00
 15826              	.LASF20:
 15827 047e 4C565F4F 		.ascii	"LV_OPA_20\000"
 15827      50415F32 
 15827      3000
 15828              	.LASF47:
 15829 0488 676C7970 		.ascii	"glyph_bitmap\000"
 15829      685F6269 
 15829      746D6170 
 15829      00
 15830              	.LASF86:
 15831 0495 696D6167 		.ascii	"image\000"
 15831      6500
 15832              	.LASF95:
 15833 049b 6D61736B 		.ascii	"mask\000"
 15833      00
 15834              	.LASF58:
 15835 04a0 4C565F42 		.ascii	"LV_BORDER_BOTTOM\000"
 15835      4F524445 
 15835      525F424F 
 15835      54544F4D 
 15835      00
 15836              	.LASF100:
 15837 04b1 68656967 		.ascii	"height\000"
 15837      687400
 15838              	.LASF155:
 15839 04b8 6C765F63 		.ascii	"lv_circ_cont\000"
 15839      6972635F 
 15839      636F6E74 
 15839      00
 15840              	.LASF118:
ARM GAS  C:\Users\d3bug\AppData\Local\Temp\ccPpCIYA.s 			page 324


 15841 04c5 72625F6F 		.ascii	"rb_origo\000"
 15841      7269676F 
 15841      00
 15842              	.LASF34:
 15843 04ce 6C765F63 		.ascii	"lv_color_t\000"
 15843      6F6C6F72 
 15843      5F7400
 15844              	.LASF141:
 15845 04d9 6369725F 		.ascii	"cir_tmp\000"
 15845      746D7000 
 15846              	.LASF92:
 15847 04e1 61726561 		.ascii	"area_p\000"
 15847      5F7000
 15848              	.LASF31:
 15849 04e8 67726565 		.ascii	"green\000"
 15849      6E00
 15850              	.LASF21:
 15851 04ee 4C565F4F 		.ascii	"LV_OPA_30\000"
 15851      50415F33 
 15851      3000
 15852              	.LASF153:
 15853 04f8 6C765F63 		.ascii	"lv_circ_next\000"
 15853      6972635F 
 15853      6E657874 
 15853      00
 15854              	.LASF36:
 15855 0505 6C6F6E67 		.ascii	"long double\000"
 15855      20646F75 
 15855      626C6500 
 15856              	.LASF15:
 15857 0511 75696E74 		.ascii	"uint16_t\000"
 15857      31365F74 
 15857      00
 15858              	.LASF149:
 15859 051a 70785F66 		.ascii	"px_fp\000"
 15859      7000
 15860              	.LASF72:
 15861 0520 67726164 		.ascii	"grad_color\000"
 15861      5F636F6C 
 15861      6F7200
 15862              	.LASF117:
 15863 052b 72745F6F 		.ascii	"rt_origo\000"
 15863      7269676F 
 15863      00
 15864              	.LASF99:
 15865 0534 67636F6C 		.ascii	"gcolor\000"
 15865      6F7200
 15866              	.LASF123:
 15867 053b 72616469 		.ascii	"radius_in\000"
 15867      75735F69 
 15867      6E00
 15868              	.LASF160:
 15869 0545 6C765F64 		.ascii	"lv_draw_rect\000"
 15869      7261775F 
 15869      72656374 
 15869      00
 15870              	.LASF101:
ARM GAS  C:\Users\d3bug\AppData\Local\Temp\ccPpCIYA.s 			page 325


 15871 0552 776F726B 		.ascii	"work_area\000"
 15871      5F617265 
 15871      6100
 15872              	.LASF56:
 15873 055c 6C765F66 		.ascii	"lv_font_t\000"
 15873      6F6E745F 
 15873      7400
 15874              	.LASF79:
 15875 0566 6C657474 		.ascii	"letter_space\000"
 15875      65725F73 
 15875      70616365 
 15875      00
 15876              	.LASF71:
 15877 0573 6D61696E 		.ascii	"main_color\000"
 15877      5F636F6C 
 15877      6F7200
 15878              	.LASF5:
 15879 057e 73686F72 		.ascii	"short int\000"
 15879      7420696E 
 15879      7400
 15880              	.LASF111:
 15881 0588 616E7469 		.ascii	"antialias_get_opa_circ\000"
 15881      616C6961 
 15881      735F6765 
 15881      745F6F70 
 15881      615F6369 
 15882              	.LASF94:
 15883 059f 636F6F72 		.ascii	"coords\000"
 15883      647300
 15884              	.LASF35:
 15885 05a6 6C765F6F 		.ascii	"lv_opa_t\000"
 15885      70615F74 
 15885      00
 15886              	.LASF60:
 15887 05af 4C565F42 		.ascii	"LV_BORDER_LEFT\000"
 15887      4F524445 
 15887      525F4C45 
 15887      465400
 15888              	.LASF8:
 15889 05be 6C6F6E67 		.ascii	"long int\000"
 15889      20696E74 
 15889      00
 15890              	.LASF22:
 15891 05c7 4C565F4F 		.ascii	"LV_OPA_40\000"
 15891      50415F34 
 15891      3000
 15892              	.LASF105:
 15893 05d1 6C765F64 		.ascii	"lv_draw_rect_main_mid\000"
 15893      7261775F 
 15893      72656374 
 15893      5F6D6169 
 15893      6E5F6D69 
 15894              	.LASF139:
 15895 05e7 6D69645F 		.ascii	"mid_bot_area\000"
 15895      626F745F 
 15895      61726561 
 15895      00
ARM GAS  C:\Users\d3bug\AppData\Local\Temp\ccPpCIYA.s 			page 326


 15896              	.LASF144:
 15897 05f4 61615F63 		.ascii	"aa_color_ver\000"
 15897      6F6C6F72 
 15897      5F766572 
 15897      00
 15898              	.LASF53:
 15899 0601 685F7078 		.ascii	"h_px\000"
 15899      00
 15900              	.LASF30:
 15901 0606 626C7565 		.ascii	"blue\000"
 15901      00
 15902              	.LASF39:
 15903 060b 6C765F63 		.ascii	"lv_coord_t\000"
 15903      6F6F7264 
 15903      5F7400
 15904              	.LASF135:
 15905 0616 61615F6F 		.ascii	"aa_opa\000"
 15905      706100
 15906              	.LASF28:
 15907 061d 4C565F4F 		.ascii	"LV_OPA_100\000"
 15907      50415F31 
 15907      303000
 15908              	.LASF3:
 15909 0628 5F5F7569 		.ascii	"__uint8_t\000"
 15909      6E74385F 
 15909      7400
 15910              	.LASF23:
 15911 0632 4C565F4F 		.ascii	"LV_OPA_50\000"
 15911      50415F35 
 15911      3000
 15912              	.LASF78:
 15913 063c 666F6E74 		.ascii	"font\000"
 15913      00
 15914              	.LASF37:
 15915 0641 73697A65 		.ascii	"sizetype\000"
 15915      74797065 
 15915      00
 15916              	.LASF120:
 15917 064a 746D705F 		.ascii	"tmp_out\000"
 15917      6F757400 
 15918              	.LASF10:
 15919 0652 6C6F6E67 		.ascii	"long unsigned int\000"
 15919      20756E73 
 15919      69676E65 
 15919      6420696E 
 15919      7400
 15920              	.LASF77:
 15921 0664 656D7074 		.ascii	"empty\000"
 15921      7900
 15922              	.LASF81:
 15923 066a 696E7465 		.ascii	"intense\000"
 15923      6E736500 
 15924              	.LASF54:
 15925 0672 6D6F6E6F 		.ascii	"monospace\000"
 15925      73706163 
 15925      6500
 15926              	.LASF138:
ARM GAS  C:\Users\d3bug\AppData\Local\Temp\ccPpCIYA.s 			page 327


 15927 067c 6D69645F 		.ascii	"mid_top_area\000"
 15927      746F705F 
 15927      61726561 
 15927      00
 15928              	.LASF43:
 15929 0689 676C7970 		.ascii	"glyph_index\000"
 15929      685F696E 
 15929      64657800 
 15930              	.LASF73:
 15931 0695 72616469 		.ascii	"radius\000"
 15931      757300
 15932              	.LASF97:
 15933 069c 6F70615F 		.ascii	"opa_scale\000"
 15933      7363616C 
 15933      6500
 15934              	.LASF84:
 15935 06a6 626F6479 		.ascii	"body\000"
 15935      00
 15936              	.LASF104:
 15937 06ab 6163745F 		.ascii	"act_color\000"
 15937      636F6C6F 
 15937      7200
 15938              	.LASF102:
 15939 06b5 726F775F 		.ascii	"row_start\000"
 15939      73746172 
 15939      7400
 15940              	.LASF24:
 15941 06bf 4C565F4F 		.ascii	"LV_OPA_60\000"
 15941      50415F36 
 15941      3000
 15942              	.LASF69:
 15943 06c9 74797065 		.ascii	"type\000"
 15943      00
 15944              	.LASF2:
 15945 06ce 756E7369 		.ascii	"unsigned char\000"
 15945      676E6564 
 15945      20636861 
 15945      7200
 15946              	.LASF9:
 15947 06dc 5F5F7569 		.ascii	"__uint32_t\000"
 15947      6E743332 
 15947      5F7400
 15948              	.LASF42:
 15949 06e7 775F7078 		.ascii	"w_px\000"
 15949      00
 15950              	.LASF87:
 15951 06ec 6C696E65 		.ascii	"line\000"
 15951      00
 15952              	.LASF133:
 15953 06f1 7365675F 		.ascii	"seg_size\000"
 15953      73697A65 
 15953      00
 15954              	.LASF96:
 15955 06fa 7374796C 		.ascii	"style\000"
 15955      6500
 15956              	.LASF57:
 15957 0700 4C565F42 		.ascii	"LV_BORDER_NONE\000"
ARM GAS  C:\Users\d3bug\AppData\Local\Temp\ccPpCIYA.s 			page 328


 15957      4F524445 
 15957      525F4E4F 
 15957      4E4500
 15958              	.LASF124:
 15959 070f 63697263 		.ascii	"circ_area\000"
 15959      5F617265 
 15959      6100
 15960              	.LASF25:
 15961 0719 4C565F4F 		.ascii	"LV_OPA_70\000"
 15961      50415F37 
 15961      3000
 15962              	.LASF51:
 15963 0723 6765745F 		.ascii	"get_width\000"
 15963      77696474 
 15963      6800
 15964              	.LASF113:
 15965 072d 6F70615F 		.ascii	"opa_map\000"
 15965      6D617000 
 15966              	.LASF75:
 15967 0735 73686164 		.ascii	"shadow\000"
 15967      6F7700
 15968              	.LASF151:
 15969 073c 6C765F64 		.ascii	"lv_draw_aa_get_opa\000"
 15969      7261775F 
 15969      61615F67 
 15969      65745F6F 
 15969      706100
 15970              	.LASF41:
 15971 074f 6C765F61 		.ascii	"lv_area_t\000"
 15971      7265615F 
 15971      7400
 15972              	.LASF1:
 15973 0759 7369676E 		.ascii	"signed char\000"
 15973      65642063 
 15973      68617200 
 15974              	.LASF7:
 15975 0765 73686F72 		.ascii	"short unsigned int\000"
 15975      7420756E 
 15975      7369676E 
 15975      65642069 
 15975      6E7400
 15976              	.LASF148:
 15977 0778 65646765 		.ascii	"edge_bot_refr\000"
 15977      5F626F74 
 15977      5F726566 
 15977      7200
 15978              	.LASF103:
 15979 0786 726F775F 		.ascii	"row_end\000"
 15979      656E6400 
 15980              	.LASF48:
 15981 078e 676C7970 		.ascii	"glyph_dsc\000"
 15981      685F6473 
 15981      6300
 15982              	.LASF26:
 15983 0798 4C565F4F 		.ascii	"LV_OPA_80\000"
 15983      50415F38 
 15983      3000
ARM GAS  C:\Users\d3bug\AppData\Local\Temp\ccPpCIYA.s 			page 329


 15984              	.LASF45:
 15985 07a2 756E6963 		.ascii	"unicode_first\000"
 15985      6F64655F 
 15985      66697273 
 15985      7400
 15986              	.LASF64:
 15987 07b0 6C765F62 		.ascii	"lv_border_part_t\000"
 15987      6F726465 
 15987      725F7061 
 15987      72745F74 
 15987      00
 15988              	.LASF46:
 15989 07c1 756E6963 		.ascii	"unicode_last\000"
 15989      6F64655F 
 15989      6C617374 
 15989      00
 15990              		.ident	"GCC: (GNU Tools for ARM Embedded Processors) 5.4.1 20160609 (release) [ARM/embedded-5-bran
