ARM GAS  C:\Users\d3bug\AppData\Local\Temp\cc5D6foa.s 			page 1


   1              		.syntax unified
   2              		.cpu cortex-m3
   3              		.fpu softvfp
   4              		.eabi_attribute 20, 1
   5              		.eabi_attribute 21, 1
   6              		.eabi_attribute 23, 3
   7              		.eabi_attribute 24, 1
   8              		.eabi_attribute 25, 1
   9              		.eabi_attribute 26, 1
  10              		.eabi_attribute 30, 1
  11              		.eabi_attribute 34, 1
  12              		.eabi_attribute 18, 4
  13              		.thumb
  14              		.syntax unified
  15              		.file	"lv_draw_vbasic.c"
  16              		.text
  17              	.Ltext0:
  18              		.cfi_sections	.debug_frame
  19              		.section	.text.sw_color_fill,"ax",%progbits
  20              		.align	2
  21              		.thumb
  22              		.thumb_func
  23              		.type	sw_color_fill, %function
  24              	sw_color_fill:
  25              	.LFB17:
  26              		.file 1 "..\\lvgl\\lv_draw\\lv_draw_vbasic.c"
   1:..\lvgl\lv_draw/lv_draw_vbasic.c **** /**
   2:..\lvgl\lv_draw/lv_draw_vbasic.c ****  * @file lv_vdraw.c
   3:..\lvgl\lv_draw/lv_draw_vbasic.c ****  *
   4:..\lvgl\lv_draw/lv_draw_vbasic.c ****  */
   5:..\lvgl\lv_draw/lv_draw_vbasic.c **** 
   6:..\lvgl\lv_draw/lv_draw_vbasic.c **** #include "lv_draw_vbasic.h"
   7:..\lvgl\lv_draw/lv_draw_vbasic.c **** 
   8:..\lvgl\lv_draw/lv_draw_vbasic.c **** #include <stdbool.h>
   9:..\lvgl\lv_draw/lv_draw_vbasic.c **** #include <stdint.h>
  10:..\lvgl\lv_draw/lv_draw_vbasic.c **** #include <string.h>
  11:..\lvgl\lv_draw/lv_draw_vbasic.c **** 
  12:..\lvgl\lv_draw/lv_draw_vbasic.c **** #include "../lv_hal/lv_hal_disp.h"
  13:..\lvgl\lv_draw/lv_draw_vbasic.c **** #include "../lv_misc/lv_area.h"
  14:..\lvgl\lv_draw/lv_draw_vbasic.c **** #include "../lv_misc/lv_font.h"
  15:..\lvgl\lv_draw/lv_draw_vbasic.c **** #include "../lv_misc/lv_color.h"
  16:..\lvgl\lv_draw/lv_draw_vbasic.c **** #include "../lv_misc/lv_log.h"
  17:..\lvgl\lv_draw/lv_draw_vbasic.c **** 
  18:..\lvgl\lv_draw/lv_draw_vbasic.c **** #if LV_VDB_SIZE != 0
  19:..\lvgl\lv_draw/lv_draw_vbasic.c **** 
  20:..\lvgl\lv_draw/lv_draw_vbasic.c **** #include <stddef.h>
  21:..\lvgl\lv_draw/lv_draw_vbasic.c **** #include "../lv_core/lv_vdb.h"
  22:..\lvgl\lv_draw/lv_draw_vbasic.c **** #include "lv_draw.h"
  23:..\lvgl\lv_draw/lv_draw_vbasic.c **** 
  24:..\lvgl\lv_draw/lv_draw_vbasic.c **** /*********************
  25:..\lvgl\lv_draw/lv_draw_vbasic.c ****  *      INCLUDES
  26:..\lvgl\lv_draw/lv_draw_vbasic.c ****  *********************/
  27:..\lvgl\lv_draw/lv_draw_vbasic.c **** 
  28:..\lvgl\lv_draw/lv_draw_vbasic.c **** /*********************
  29:..\lvgl\lv_draw/lv_draw_vbasic.c ****  *      DEFINES
  30:..\lvgl\lv_draw/lv_draw_vbasic.c ****  *********************/
  31:..\lvgl\lv_draw/lv_draw_vbasic.c **** #define VFILL_HW_ACC_SIZE_LIMIT    50      /*Always fill < 50 px with 'sw_color_fill' because of th
ARM GAS  C:\Users\d3bug\AppData\Local\Temp\cc5D6foa.s 			page 2


  32:..\lvgl\lv_draw/lv_draw_vbasic.c **** 
  33:..\lvgl\lv_draw/lv_draw_vbasic.c **** /**********************
  34:..\lvgl\lv_draw/lv_draw_vbasic.c ****  *      TYPEDEFS
  35:..\lvgl\lv_draw/lv_draw_vbasic.c ****  **********************/
  36:..\lvgl\lv_draw/lv_draw_vbasic.c **** 
  37:..\lvgl\lv_draw/lv_draw_vbasic.c **** /**********************
  38:..\lvgl\lv_draw/lv_draw_vbasic.c ****  *  STATIC PROTOTYPES
  39:..\lvgl\lv_draw/lv_draw_vbasic.c ****  **********************/
  40:..\lvgl\lv_draw/lv_draw_vbasic.c **** static void sw_mem_blend(lv_color_t * dest, const lv_color_t * src, uint32_t length, lv_opa_t opa);
  41:..\lvgl\lv_draw/lv_draw_vbasic.c **** static void sw_color_fill(lv_area_t * mem_area, lv_color_t * mem, const lv_area_t * fill_area, lv_c
  42:..\lvgl\lv_draw/lv_draw_vbasic.c **** 
  43:..\lvgl\lv_draw/lv_draw_vbasic.c **** #if LV_COLOR_SCREEN_TRANSP
  44:..\lvgl\lv_draw/lv_draw_vbasic.c **** static inline lv_color_t color_mix_2_alpha(lv_color_t bg_color, lv_opa_t bg_opa, lv_color_t fg_colo
  45:..\lvgl\lv_draw/lv_draw_vbasic.c **** #endif
  46:..\lvgl\lv_draw/lv_draw_vbasic.c **** 
  47:..\lvgl\lv_draw/lv_draw_vbasic.c **** /**********************
  48:..\lvgl\lv_draw/lv_draw_vbasic.c ****  *  STATIC VARIABLES
  49:..\lvgl\lv_draw/lv_draw_vbasic.c ****  **********************/
  50:..\lvgl\lv_draw/lv_draw_vbasic.c **** 
  51:..\lvgl\lv_draw/lv_draw_vbasic.c **** /**********************
  52:..\lvgl\lv_draw/lv_draw_vbasic.c ****  *      MACROS
  53:..\lvgl\lv_draw/lv_draw_vbasic.c ****  **********************/
  54:..\lvgl\lv_draw/lv_draw_vbasic.c **** 
  55:..\lvgl\lv_draw/lv_draw_vbasic.c **** /**********************
  56:..\lvgl\lv_draw/lv_draw_vbasic.c ****  *   GLOBAL FUNCTIONS
  57:..\lvgl\lv_draw/lv_draw_vbasic.c ****  **********************/
  58:..\lvgl\lv_draw/lv_draw_vbasic.c **** 
  59:..\lvgl\lv_draw/lv_draw_vbasic.c **** /**
  60:..\lvgl\lv_draw/lv_draw_vbasic.c ****  * Put a pixel in the Virtual Display Buffer
  61:..\lvgl\lv_draw/lv_draw_vbasic.c ****  * @param x pixel x coordinate
  62:..\lvgl\lv_draw/lv_draw_vbasic.c ****  * @param y pixel y coordinate
  63:..\lvgl\lv_draw/lv_draw_vbasic.c ****  * @param mask_p fill only on this mask (truncated to VDB area)
  64:..\lvgl\lv_draw/lv_draw_vbasic.c ****  * @param color pixel color
  65:..\lvgl\lv_draw/lv_draw_vbasic.c ****  * @param opa opacity of the area (0..255)
  66:..\lvgl\lv_draw/lv_draw_vbasic.c ****  */
  67:..\lvgl\lv_draw/lv_draw_vbasic.c **** void lv_vpx(lv_coord_t x, lv_coord_t y, const lv_area_t * mask_p, lv_color_t color, lv_opa_t opa)
  68:..\lvgl\lv_draw/lv_draw_vbasic.c **** {
  69:..\lvgl\lv_draw/lv_draw_vbasic.c ****     if(opa < LV_OPA_MIN) return;
  70:..\lvgl\lv_draw/lv_draw_vbasic.c ****     if(opa > LV_OPA_MAX) opa = LV_OPA_COVER;
  71:..\lvgl\lv_draw/lv_draw_vbasic.c **** 
  72:..\lvgl\lv_draw/lv_draw_vbasic.c ****     lv_vdb_t * vdb_p = lv_vdb_get();
  73:..\lvgl\lv_draw/lv_draw_vbasic.c ****     if(!vdb_p) {
  74:..\lvgl\lv_draw/lv_draw_vbasic.c ****         LV_LOG_WARN("Invalid VDB pointer");
  75:..\lvgl\lv_draw/lv_draw_vbasic.c ****         return;
  76:..\lvgl\lv_draw/lv_draw_vbasic.c ****     }
  77:..\lvgl\lv_draw/lv_draw_vbasic.c **** 
  78:..\lvgl\lv_draw/lv_draw_vbasic.c ****     /*Pixel out of the mask*/
  79:..\lvgl\lv_draw/lv_draw_vbasic.c ****     if(x < mask_p->x1 || x > mask_p->x2 ||
  80:..\lvgl\lv_draw/lv_draw_vbasic.c ****             y < mask_p->y1 || y > mask_p->y2) {
  81:..\lvgl\lv_draw/lv_draw_vbasic.c ****         return;
  82:..\lvgl\lv_draw/lv_draw_vbasic.c ****     }
  83:..\lvgl\lv_draw/lv_draw_vbasic.c **** 
  84:..\lvgl\lv_draw/lv_draw_vbasic.c ****     uint32_t vdb_width = lv_area_get_width(&vdb_p->area);
  85:..\lvgl\lv_draw/lv_draw_vbasic.c **** 
  86:..\lvgl\lv_draw/lv_draw_vbasic.c ****     /*Make the coordinates relative to VDB*/
  87:..\lvgl\lv_draw/lv_draw_vbasic.c ****     x -= vdb_p->area.x1;
  88:..\lvgl\lv_draw/lv_draw_vbasic.c ****     y -= vdb_p->area.y1;
ARM GAS  C:\Users\d3bug\AppData\Local\Temp\cc5D6foa.s 			page 3


  89:..\lvgl\lv_draw/lv_draw_vbasic.c **** 
  90:..\lvgl\lv_draw/lv_draw_vbasic.c ****     lv_disp_t * disp = lv_disp_get_active();
  91:..\lvgl\lv_draw/lv_draw_vbasic.c ****     if(disp->driver.vdb_wr) {
  92:..\lvgl\lv_draw/lv_draw_vbasic.c ****         disp->driver.vdb_wr((uint8_t *)vdb_p->buf, vdb_width, x, y, color, opa);
  93:..\lvgl\lv_draw/lv_draw_vbasic.c ****     } else {
  94:..\lvgl\lv_draw/lv_draw_vbasic.c ****         lv_color_t * vdb_px_p = vdb_p->buf + y * vdb_width + x;
  95:..\lvgl\lv_draw/lv_draw_vbasic.c **** #if LV_COLOR_SCREEN_TRANSP == 0
  96:..\lvgl\lv_draw/lv_draw_vbasic.c ****         if(opa == LV_OPA_COVER) {
  97:..\lvgl\lv_draw/lv_draw_vbasic.c ****             *vdb_px_p = color;
  98:..\lvgl\lv_draw/lv_draw_vbasic.c ****         } else {
  99:..\lvgl\lv_draw/lv_draw_vbasic.c ****             *vdb_px_p = lv_color_mix(color, *vdb_px_p, opa);
 100:..\lvgl\lv_draw/lv_draw_vbasic.c ****         }
 101:..\lvgl\lv_draw/lv_draw_vbasic.c **** #else
 102:..\lvgl\lv_draw/lv_draw_vbasic.c ****         *vdb_px_p = color_mix_2_alpha(*vdb_px_p, (*vdb_px_p).alpha, color, opa);
 103:..\lvgl\lv_draw/lv_draw_vbasic.c **** #endif
 104:..\lvgl\lv_draw/lv_draw_vbasic.c ****     }
 105:..\lvgl\lv_draw/lv_draw_vbasic.c **** }
 106:..\lvgl\lv_draw/lv_draw_vbasic.c **** 
 107:..\lvgl\lv_draw/lv_draw_vbasic.c **** 
 108:..\lvgl\lv_draw/lv_draw_vbasic.c **** /**
 109:..\lvgl\lv_draw/lv_draw_vbasic.c ****  * Fill an area in the Virtual Display Buffer
 110:..\lvgl\lv_draw/lv_draw_vbasic.c ****  * @param cords_p coordinates of the area to fill
 111:..\lvgl\lv_draw/lv_draw_vbasic.c ****  * @param mask_p fill only o this mask  (truncated to VDB area)
 112:..\lvgl\lv_draw/lv_draw_vbasic.c ****  * @param color fill color
 113:..\lvgl\lv_draw/lv_draw_vbasic.c ****  * @param opa opacity of the area (0..255)
 114:..\lvgl\lv_draw/lv_draw_vbasic.c ****  */
 115:..\lvgl\lv_draw/lv_draw_vbasic.c **** void lv_vfill(const lv_area_t * cords_p, const lv_area_t * mask_p,
 116:..\lvgl\lv_draw/lv_draw_vbasic.c ****               lv_color_t color, lv_opa_t opa)
 117:..\lvgl\lv_draw/lv_draw_vbasic.c **** {
 118:..\lvgl\lv_draw/lv_draw_vbasic.c ****     if(opa < LV_OPA_MIN) return;
 119:..\lvgl\lv_draw/lv_draw_vbasic.c ****     if(opa > LV_OPA_MAX) opa = LV_OPA_COVER;
 120:..\lvgl\lv_draw/lv_draw_vbasic.c **** 
 121:..\lvgl\lv_draw/lv_draw_vbasic.c ****     lv_area_t res_a;
 122:..\lvgl\lv_draw/lv_draw_vbasic.c ****     bool union_ok;
 123:..\lvgl\lv_draw/lv_draw_vbasic.c ****     lv_vdb_t * vdb_p = lv_vdb_get();
 124:..\lvgl\lv_draw/lv_draw_vbasic.c ****     if(!vdb_p) {
 125:..\lvgl\lv_draw/lv_draw_vbasic.c ****         LV_LOG_WARN("Invalid VDB pointer");
 126:..\lvgl\lv_draw/lv_draw_vbasic.c ****         return;
 127:..\lvgl\lv_draw/lv_draw_vbasic.c ****     }
 128:..\lvgl\lv_draw/lv_draw_vbasic.c **** 
 129:..\lvgl\lv_draw/lv_draw_vbasic.c ****     /*Get the union of cord and mask*/
 130:..\lvgl\lv_draw/lv_draw_vbasic.c ****     /* The mask is already truncated to the vdb size
 131:..\lvgl\lv_draw/lv_draw_vbasic.c ****      * in 'lv_refr_area_with_vdb' function */
 132:..\lvgl\lv_draw/lv_draw_vbasic.c ****     union_ok = lv_area_intersect(&res_a, cords_p, mask_p);
 133:..\lvgl\lv_draw/lv_draw_vbasic.c **** 
 134:..\lvgl\lv_draw/lv_draw_vbasic.c ****     /*If there are common part of the three area then draw to the vdb*/
 135:..\lvgl\lv_draw/lv_draw_vbasic.c ****     if(union_ok == false) return;
 136:..\lvgl\lv_draw/lv_draw_vbasic.c **** 
 137:..\lvgl\lv_draw/lv_draw_vbasic.c ****     lv_area_t vdb_rel_a;   /*Stores relative coordinates on vdb*/
 138:..\lvgl\lv_draw/lv_draw_vbasic.c ****     vdb_rel_a.x1 = res_a.x1 - vdb_p->area.x1;
 139:..\lvgl\lv_draw/lv_draw_vbasic.c ****     vdb_rel_a.y1 = res_a.y1 - vdb_p->area.y1;
 140:..\lvgl\lv_draw/lv_draw_vbasic.c ****     vdb_rel_a.x2 = res_a.x2 - vdb_p->area.x1;
 141:..\lvgl\lv_draw/lv_draw_vbasic.c ****     vdb_rel_a.y2 = res_a.y2 - vdb_p->area.y1;
 142:..\lvgl\lv_draw/lv_draw_vbasic.c **** 
 143:..\lvgl\lv_draw/lv_draw_vbasic.c ****     lv_color_t * vdb_buf_tmp = vdb_p->buf;
 144:..\lvgl\lv_draw/lv_draw_vbasic.c ****     uint32_t vdb_width = lv_area_get_width(&vdb_p->area);
 145:..\lvgl\lv_draw/lv_draw_vbasic.c ****     /*Move the vdb_tmp to the first row*/
ARM GAS  C:\Users\d3bug\AppData\Local\Temp\cc5D6foa.s 			page 4


 146:..\lvgl\lv_draw/lv_draw_vbasic.c ****     vdb_buf_tmp += vdb_width * vdb_rel_a.y1;
 147:..\lvgl\lv_draw/lv_draw_vbasic.c **** 
 148:..\lvgl\lv_draw/lv_draw_vbasic.c **** 
 149:..\lvgl\lv_draw/lv_draw_vbasic.c **** #if USE_LV_GPU
 150:..\lvgl\lv_draw/lv_draw_vbasic.c ****     static lv_color_t color_array_tmp[LV_HOR_RES];       /*Used by 'lv_disp_mem_blend'*/
 151:..\lvgl\lv_draw/lv_draw_vbasic.c ****     static lv_coord_t last_width = -1;
 152:..\lvgl\lv_draw/lv_draw_vbasic.c **** 
 153:..\lvgl\lv_draw/lv_draw_vbasic.c ****     lv_coord_t w = lv_area_get_width(&vdb_rel_a);
 154:..\lvgl\lv_draw/lv_draw_vbasic.c ****     /*Don't use hw. acc. for every small fill (because of the init overhead)*/
 155:..\lvgl\lv_draw/lv_draw_vbasic.c ****     if(w < VFILL_HW_ACC_SIZE_LIMIT) {
 156:..\lvgl\lv_draw/lv_draw_vbasic.c ****         sw_color_fill(&vdb_p->area, vdb_p->buf, &vdb_rel_a, color, opa);
 157:..\lvgl\lv_draw/lv_draw_vbasic.c ****     }
 158:..\lvgl\lv_draw/lv_draw_vbasic.c ****     /*Not opaque fill*/
 159:..\lvgl\lv_draw/lv_draw_vbasic.c ****     else if(opa == LV_OPA_COVER) {
 160:..\lvgl\lv_draw/lv_draw_vbasic.c ****         /*Use hw fill if present*/
 161:..\lvgl\lv_draw/lv_draw_vbasic.c ****         if(lv_disp_is_mem_fill_supported()) {
 162:..\lvgl\lv_draw/lv_draw_vbasic.c ****             lv_coord_t row;
 163:..\lvgl\lv_draw/lv_draw_vbasic.c ****             for(row = vdb_rel_a.y1; row <= vdb_rel_a.y2; row++) {
 164:..\lvgl\lv_draw/lv_draw_vbasic.c ****                 lv_disp_mem_fill(&vdb_buf_tmp[vdb_rel_a.x1], w, color);
 165:..\lvgl\lv_draw/lv_draw_vbasic.c ****                 vdb_buf_tmp += vdb_width;
 166:..\lvgl\lv_draw/lv_draw_vbasic.c ****             }
 167:..\lvgl\lv_draw/lv_draw_vbasic.c ****         }
 168:..\lvgl\lv_draw/lv_draw_vbasic.c ****         /*Use hw blend if present and the area is not too small*/
 169:..\lvgl\lv_draw/lv_draw_vbasic.c ****         else if(lv_area_get_height(&vdb_rel_a) > VFILL_HW_ACC_SIZE_LIMIT &&
 170:..\lvgl\lv_draw/lv_draw_vbasic.c ****                 lv_disp_is_mem_blend_supported()) {
 171:..\lvgl\lv_draw/lv_draw_vbasic.c ****             /*Fill a  one line sized buffer with a color and blend this later*/
 172:..\lvgl\lv_draw/lv_draw_vbasic.c ****             if(color_array_tmp[0].full != color.full || last_width != w) {
 173:..\lvgl\lv_draw/lv_draw_vbasic.c ****                 uint16_t i;
 174:..\lvgl\lv_draw/lv_draw_vbasic.c ****                 for(i = 0; i < w; i++) {
 175:..\lvgl\lv_draw/lv_draw_vbasic.c ****                     color_array_tmp[i].full = color.full;
 176:..\lvgl\lv_draw/lv_draw_vbasic.c ****                 }
 177:..\lvgl\lv_draw/lv_draw_vbasic.c ****                 last_width = w;
 178:..\lvgl\lv_draw/lv_draw_vbasic.c ****             }
 179:..\lvgl\lv_draw/lv_draw_vbasic.c **** 
 180:..\lvgl\lv_draw/lv_draw_vbasic.c ****             /*Blend the filled line to every line VDB line-by-line*/
 181:..\lvgl\lv_draw/lv_draw_vbasic.c ****             lv_coord_t row;
 182:..\lvgl\lv_draw/lv_draw_vbasic.c ****             for(row = vdb_rel_a.y1; row <= vdb_rel_a.y2; row++) {
 183:..\lvgl\lv_draw/lv_draw_vbasic.c ****                 lv_disp_mem_blend(&vdb_buf_tmp[vdb_rel_a.x1], color_array_tmp, w, opa);
 184:..\lvgl\lv_draw/lv_draw_vbasic.c ****                 vdb_buf_tmp += vdb_width;
 185:..\lvgl\lv_draw/lv_draw_vbasic.c ****             }
 186:..\lvgl\lv_draw/lv_draw_vbasic.c **** 
 187:..\lvgl\lv_draw/lv_draw_vbasic.c ****         }
 188:..\lvgl\lv_draw/lv_draw_vbasic.c ****         /*Else use sw fill if no better option*/
 189:..\lvgl\lv_draw/lv_draw_vbasic.c ****         else {
 190:..\lvgl\lv_draw/lv_draw_vbasic.c ****             sw_color_fill(&vdb_p->area, vdb_p->buf, &vdb_rel_a, color, opa);
 191:..\lvgl\lv_draw/lv_draw_vbasic.c ****         }
 192:..\lvgl\lv_draw/lv_draw_vbasic.c **** 
 193:..\lvgl\lv_draw/lv_draw_vbasic.c ****     }
 194:..\lvgl\lv_draw/lv_draw_vbasic.c ****     /*Fill with opacity*/
 195:..\lvgl\lv_draw/lv_draw_vbasic.c ****     else {
 196:..\lvgl\lv_draw/lv_draw_vbasic.c ****         /*Use hw blend if present*/
 197:..\lvgl\lv_draw/lv_draw_vbasic.c ****         if(lv_disp_is_mem_blend_supported()) {
 198:..\lvgl\lv_draw/lv_draw_vbasic.c ****             if(color_array_tmp[0].full != color.full || last_width != w) {
 199:..\lvgl\lv_draw/lv_draw_vbasic.c ****                 uint16_t i;
 200:..\lvgl\lv_draw/lv_draw_vbasic.c ****                 for(i = 0; i < w; i++) {
 201:..\lvgl\lv_draw/lv_draw_vbasic.c ****                     color_array_tmp[i].full = color.full;
 202:..\lvgl\lv_draw/lv_draw_vbasic.c ****                 }
ARM GAS  C:\Users\d3bug\AppData\Local\Temp\cc5D6foa.s 			page 5


 203:..\lvgl\lv_draw/lv_draw_vbasic.c **** 
 204:..\lvgl\lv_draw/lv_draw_vbasic.c ****                 last_width = w;
 205:..\lvgl\lv_draw/lv_draw_vbasic.c ****             }
 206:..\lvgl\lv_draw/lv_draw_vbasic.c ****             lv_coord_t row;
 207:..\lvgl\lv_draw/lv_draw_vbasic.c ****             for(row = vdb_rel_a.y1; row <= vdb_rel_a.y2; row++) {
 208:..\lvgl\lv_draw/lv_draw_vbasic.c ****                 lv_disp_mem_blend(&vdb_buf_tmp[vdb_rel_a.x1], color_array_tmp, w, opa);
 209:..\lvgl\lv_draw/lv_draw_vbasic.c ****                 vdb_buf_tmp += vdb_width;
 210:..\lvgl\lv_draw/lv_draw_vbasic.c ****             }
 211:..\lvgl\lv_draw/lv_draw_vbasic.c **** 
 212:..\lvgl\lv_draw/lv_draw_vbasic.c ****         }
 213:..\lvgl\lv_draw/lv_draw_vbasic.c ****         /*Use sw fill with opa if no better option*/
 214:..\lvgl\lv_draw/lv_draw_vbasic.c ****         else {
 215:..\lvgl\lv_draw/lv_draw_vbasic.c ****             sw_color_fill(&vdb_p->area, vdb_p->buf, &vdb_rel_a, color, opa);
 216:..\lvgl\lv_draw/lv_draw_vbasic.c ****         }
 217:..\lvgl\lv_draw/lv_draw_vbasic.c **** 
 218:..\lvgl\lv_draw/lv_draw_vbasic.c ****     }
 219:..\lvgl\lv_draw/lv_draw_vbasic.c **** #else
 220:..\lvgl\lv_draw/lv_draw_vbasic.c ****     sw_color_fill(&vdb_p->area, vdb_p->buf, &vdb_rel_a, color, opa);
 221:..\lvgl\lv_draw/lv_draw_vbasic.c **** #endif
 222:..\lvgl\lv_draw/lv_draw_vbasic.c **** }
 223:..\lvgl\lv_draw/lv_draw_vbasic.c **** 
 224:..\lvgl\lv_draw/lv_draw_vbasic.c **** /**
 225:..\lvgl\lv_draw/lv_draw_vbasic.c ****  * Draw a letter in the Virtual Display Buffer
 226:..\lvgl\lv_draw/lv_draw_vbasic.c ****  * @param pos_p left-top coordinate of the latter
 227:..\lvgl\lv_draw/lv_draw_vbasic.c ****  * @param mask_p the letter will be drawn only on this area  (truncated to VDB area)
 228:..\lvgl\lv_draw/lv_draw_vbasic.c ****  * @param font_p pointer to font
 229:..\lvgl\lv_draw/lv_draw_vbasic.c ****  * @param letter a letter to draw
 230:..\lvgl\lv_draw/lv_draw_vbasic.c ****  * @param color color of letter
 231:..\lvgl\lv_draw/lv_draw_vbasic.c ****  * @param opa opacity of letter (0..255)
 232:..\lvgl\lv_draw/lv_draw_vbasic.c ****  */
 233:..\lvgl\lv_draw/lv_draw_vbasic.c **** void lv_vletter(const lv_point_t * pos_p, const lv_area_t * mask_p,
 234:..\lvgl\lv_draw/lv_draw_vbasic.c ****                 const lv_font_t * font_p, uint32_t letter,
 235:..\lvgl\lv_draw/lv_draw_vbasic.c ****                 lv_color_t color, lv_opa_t opa)
 236:..\lvgl\lv_draw/lv_draw_vbasic.c **** {
 237:..\lvgl\lv_draw/lv_draw_vbasic.c ****     const uint8_t bpp1_opa_table[2] =  {0, 255};                   /*Opacity mapping with bpp = 1 (
 238:..\lvgl\lv_draw/lv_draw_vbasic.c ****     const uint8_t bpp2_opa_table[4] =  {0, 85, 170, 255};          /*Opacity mapping with bpp = 2*/
 239:..\lvgl\lv_draw/lv_draw_vbasic.c ****     const uint8_t bpp4_opa_table[16] = {0,   17,  34,  51,         /*Opacity mapping with bpp = 4*/
 240:..\lvgl\lv_draw/lv_draw_vbasic.c ****                                         68,  85,  102, 119,
 241:..\lvgl\lv_draw/lv_draw_vbasic.c ****                                         136, 153, 170, 187,
 242:..\lvgl\lv_draw/lv_draw_vbasic.c ****                                         204, 221, 238, 255
 243:..\lvgl\lv_draw/lv_draw_vbasic.c ****                                        };
 244:..\lvgl\lv_draw/lv_draw_vbasic.c ****     if(opa < LV_OPA_MIN) return;
 245:..\lvgl\lv_draw/lv_draw_vbasic.c ****     if(opa > LV_OPA_MAX) opa = LV_OPA_COVER;
 246:..\lvgl\lv_draw/lv_draw_vbasic.c **** 
 247:..\lvgl\lv_draw/lv_draw_vbasic.c ****     if(font_p == NULL) {
 248:..\lvgl\lv_draw/lv_draw_vbasic.c ****         LV_LOG_WARN("Font: character's bitmap not found");
 249:..\lvgl\lv_draw/lv_draw_vbasic.c ****         return;
 250:..\lvgl\lv_draw/lv_draw_vbasic.c ****     }
 251:..\lvgl\lv_draw/lv_draw_vbasic.c **** 
 252:..\lvgl\lv_draw/lv_draw_vbasic.c ****     lv_coord_t pos_x = pos_p->x;
 253:..\lvgl\lv_draw/lv_draw_vbasic.c ****     lv_coord_t pos_y = pos_p->y;
 254:..\lvgl\lv_draw/lv_draw_vbasic.c ****     uint8_t letter_w = lv_font_get_real_width(font_p, letter);
 255:..\lvgl\lv_draw/lv_draw_vbasic.c ****     uint8_t letter_h = lv_font_get_height(font_p);
 256:..\lvgl\lv_draw/lv_draw_vbasic.c ****     uint8_t bpp = lv_font_get_bpp(font_p, letter);  /*Bit per pixel (1,2, 4 or 8)*/
 257:..\lvgl\lv_draw/lv_draw_vbasic.c ****     const uint8_t * bpp_opa_table;
 258:..\lvgl\lv_draw/lv_draw_vbasic.c ****     uint8_t mask_init;
 259:..\lvgl\lv_draw/lv_draw_vbasic.c ****     uint8_t mask;
ARM GAS  C:\Users\d3bug\AppData\Local\Temp\cc5D6foa.s 			page 6


 260:..\lvgl\lv_draw/lv_draw_vbasic.c **** 
 261:..\lvgl\lv_draw/lv_draw_vbasic.c ****     if(lv_font_is_monospace(font_p, letter)) {
 262:..\lvgl\lv_draw/lv_draw_vbasic.c ****         pos_x += (lv_font_get_width(font_p, letter) - letter_w) / 2;
 263:..\lvgl\lv_draw/lv_draw_vbasic.c ****     }
 264:..\lvgl\lv_draw/lv_draw_vbasic.c **** 
 265:..\lvgl\lv_draw/lv_draw_vbasic.c **** 
 266:..\lvgl\lv_draw/lv_draw_vbasic.c ****     switch(bpp) {
 267:..\lvgl\lv_draw/lv_draw_vbasic.c ****         case 1:
 268:..\lvgl\lv_draw/lv_draw_vbasic.c ****             bpp_opa_table = bpp1_opa_table;
 269:..\lvgl\lv_draw/lv_draw_vbasic.c ****             mask_init = 0x80;
 270:..\lvgl\lv_draw/lv_draw_vbasic.c ****             break;
 271:..\lvgl\lv_draw/lv_draw_vbasic.c ****         case 2:
 272:..\lvgl\lv_draw/lv_draw_vbasic.c ****             bpp_opa_table = bpp2_opa_table;
 273:..\lvgl\lv_draw/lv_draw_vbasic.c ****             mask_init = 0xC0;
 274:..\lvgl\lv_draw/lv_draw_vbasic.c ****             break;
 275:..\lvgl\lv_draw/lv_draw_vbasic.c ****         case 4:
 276:..\lvgl\lv_draw/lv_draw_vbasic.c ****             bpp_opa_table = bpp4_opa_table;
 277:..\lvgl\lv_draw/lv_draw_vbasic.c ****             mask_init = 0xF0;
 278:..\lvgl\lv_draw/lv_draw_vbasic.c ****             break;
 279:..\lvgl\lv_draw/lv_draw_vbasic.c ****         case 8:
 280:..\lvgl\lv_draw/lv_draw_vbasic.c ****             bpp_opa_table = NULL;
 281:..\lvgl\lv_draw/lv_draw_vbasic.c ****             mask_init = 0xFF;
 282:..\lvgl\lv_draw/lv_draw_vbasic.c ****             break;             /*No opa table, pixel value will be used directly*/
 283:..\lvgl\lv_draw/lv_draw_vbasic.c ****         default:
 284:..\lvgl\lv_draw/lv_draw_vbasic.c ****             return;        /*Invalid bpp. Can't render the letter*/
 285:..\lvgl\lv_draw/lv_draw_vbasic.c ****     }
 286:..\lvgl\lv_draw/lv_draw_vbasic.c **** 
 287:..\lvgl\lv_draw/lv_draw_vbasic.c ****     const uint8_t * map_p = lv_font_get_bitmap(font_p, letter);
 288:..\lvgl\lv_draw/lv_draw_vbasic.c **** 
 289:..\lvgl\lv_draw/lv_draw_vbasic.c ****     if(map_p == NULL) return;
 290:..\lvgl\lv_draw/lv_draw_vbasic.c **** 
 291:..\lvgl\lv_draw/lv_draw_vbasic.c ****     /*If the letter is completely out of mask don't draw it */
 292:..\lvgl\lv_draw/lv_draw_vbasic.c ****     if(pos_x + letter_w < mask_p->x1 || pos_x > mask_p->x2 ||
 293:..\lvgl\lv_draw/lv_draw_vbasic.c ****             pos_y + letter_h < mask_p->y1 || pos_y > mask_p->y2) return;
 294:..\lvgl\lv_draw/lv_draw_vbasic.c **** 
 295:..\lvgl\lv_draw/lv_draw_vbasic.c ****     lv_vdb_t * vdb_p = lv_vdb_get();
 296:..\lvgl\lv_draw/lv_draw_vbasic.c ****     if(!vdb_p) {
 297:..\lvgl\lv_draw/lv_draw_vbasic.c ****         LV_LOG_WARN("Invalid VDB pointer");
 298:..\lvgl\lv_draw/lv_draw_vbasic.c ****         return;
 299:..\lvgl\lv_draw/lv_draw_vbasic.c ****     }
 300:..\lvgl\lv_draw/lv_draw_vbasic.c **** 
 301:..\lvgl\lv_draw/lv_draw_vbasic.c ****     lv_coord_t vdb_width = lv_area_get_width(&vdb_p->area);
 302:..\lvgl\lv_draw/lv_draw_vbasic.c ****     lv_color_t * vdb_buf_tmp = vdb_p->buf;
 303:..\lvgl\lv_draw/lv_draw_vbasic.c ****     lv_coord_t col, row;
 304:..\lvgl\lv_draw/lv_draw_vbasic.c ****     uint8_t col_bit;
 305:..\lvgl\lv_draw/lv_draw_vbasic.c ****     uint8_t col_byte_cnt;
 306:..\lvgl\lv_draw/lv_draw_vbasic.c ****     uint8_t width_byte_scr = letter_w >> 3;      /*Width in bytes (on the screen finally) (e.g. w =
 307:..\lvgl\lv_draw/lv_draw_vbasic.c ****     if(letter_w & 0x7) width_byte_scr++;
 308:..\lvgl\lv_draw/lv_draw_vbasic.c ****     uint8_t width_byte_bpp = (letter_w * bpp) >> 3;    /*Letter width in byte. Real width in the fo
 309:..\lvgl\lv_draw/lv_draw_vbasic.c ****     if((letter_w * bpp) & 0x7) width_byte_bpp++;
 310:..\lvgl\lv_draw/lv_draw_vbasic.c **** 
 311:..\lvgl\lv_draw/lv_draw_vbasic.c ****     /* Calculate the col/row start/end on the map*/
 312:..\lvgl\lv_draw/lv_draw_vbasic.c ****     lv_coord_t col_start = pos_x >= mask_p->x1 ? 0 : mask_p->x1 - pos_x;
 313:..\lvgl\lv_draw/lv_draw_vbasic.c ****     lv_coord_t col_end = pos_x + letter_w <= mask_p->x2 ? letter_w : mask_p->x2 - pos_x + 1;
 314:..\lvgl\lv_draw/lv_draw_vbasic.c ****     lv_coord_t row_start = pos_y >= mask_p->y1 ? 0 : mask_p->y1 - pos_y;
 315:..\lvgl\lv_draw/lv_draw_vbasic.c ****     lv_coord_t row_end  = pos_y + letter_h <= mask_p->y2 ? letter_h : mask_p->y2 - pos_y + 1;
 316:..\lvgl\lv_draw/lv_draw_vbasic.c **** 
ARM GAS  C:\Users\d3bug\AppData\Local\Temp\cc5D6foa.s 			page 7


 317:..\lvgl\lv_draw/lv_draw_vbasic.c ****     /*Set a pointer on VDB to the first pixel of the letter*/
 318:..\lvgl\lv_draw/lv_draw_vbasic.c ****     vdb_buf_tmp += ((pos_y - vdb_p->area.y1) * vdb_width)
 319:..\lvgl\lv_draw/lv_draw_vbasic.c ****                    + pos_x - vdb_p->area.x1;
 320:..\lvgl\lv_draw/lv_draw_vbasic.c **** 
 321:..\lvgl\lv_draw/lv_draw_vbasic.c ****     /*If the letter is partially out of mask the move there on VDB*/
 322:..\lvgl\lv_draw/lv_draw_vbasic.c ****     vdb_buf_tmp += (row_start * vdb_width) + col_start;
 323:..\lvgl\lv_draw/lv_draw_vbasic.c **** 
 324:..\lvgl\lv_draw/lv_draw_vbasic.c ****     /*Move on the map too*/
 325:..\lvgl\lv_draw/lv_draw_vbasic.c ****     map_p += (row_start * width_byte_bpp) + ((col_start * bpp) >> 3);
 326:..\lvgl\lv_draw/lv_draw_vbasic.c **** 
 327:..\lvgl\lv_draw/lv_draw_vbasic.c ****     lv_disp_t * disp = lv_disp_get_active();
 328:..\lvgl\lv_draw/lv_draw_vbasic.c **** 
 329:..\lvgl\lv_draw/lv_draw_vbasic.c ****     uint8_t letter_px;
 330:..\lvgl\lv_draw/lv_draw_vbasic.c ****     lv_opa_t px_opa;
 331:..\lvgl\lv_draw/lv_draw_vbasic.c ****     for(row = row_start; row < row_end; row ++) {
 332:..\lvgl\lv_draw/lv_draw_vbasic.c ****         col_byte_cnt = 0;
 333:..\lvgl\lv_draw/lv_draw_vbasic.c ****         col_bit = (col_start * bpp) % 8;
 334:..\lvgl\lv_draw/lv_draw_vbasic.c ****         mask = mask_init >> col_bit;
 335:..\lvgl\lv_draw/lv_draw_vbasic.c ****         for(col = col_start; col < col_end; col ++) {
 336:..\lvgl\lv_draw/lv_draw_vbasic.c ****             letter_px = (*map_p & mask) >> (8 - col_bit - bpp);
 337:..\lvgl\lv_draw/lv_draw_vbasic.c ****             if(letter_px != 0) {
 338:..\lvgl\lv_draw/lv_draw_vbasic.c ****                 if(opa == LV_OPA_COVER) {
 339:..\lvgl\lv_draw/lv_draw_vbasic.c ****                     px_opa = bpp == 8 ? letter_px : bpp_opa_table[letter_px];
 340:..\lvgl\lv_draw/lv_draw_vbasic.c ****                 } else {
 341:..\lvgl\lv_draw/lv_draw_vbasic.c ****                     px_opa = bpp == 8 ?
 342:..\lvgl\lv_draw/lv_draw_vbasic.c ****                              (uint16_t)((uint16_t)letter_px * opa) >> 8 :
 343:..\lvgl\lv_draw/lv_draw_vbasic.c ****                              (uint16_t)((uint16_t)bpp_opa_table[letter_px] * opa) >> 8;
 344:..\lvgl\lv_draw/lv_draw_vbasic.c ****                 }
 345:..\lvgl\lv_draw/lv_draw_vbasic.c **** 
 346:..\lvgl\lv_draw/lv_draw_vbasic.c ****                 if(disp->driver.vdb_wr) {
 347:..\lvgl\lv_draw/lv_draw_vbasic.c ****                     disp->driver.vdb_wr((uint8_t *)vdb_p->buf, vdb_width,
 348:..\lvgl\lv_draw/lv_draw_vbasic.c ****                                         (col + pos_x) - vdb_p->area.x1, (row + pos_y) - vdb_p->area
 349:..\lvgl\lv_draw/lv_draw_vbasic.c ****                                         color, px_opa);
 350:..\lvgl\lv_draw/lv_draw_vbasic.c ****                 } else {
 351:..\lvgl\lv_draw/lv_draw_vbasic.c **** #if LV_COLOR_SCREEN_TRANSP == 0
 352:..\lvgl\lv_draw/lv_draw_vbasic.c ****                     *vdb_buf_tmp = lv_color_mix(color, *vdb_buf_tmp, px_opa);
 353:..\lvgl\lv_draw/lv_draw_vbasic.c **** #else
 354:..\lvgl\lv_draw/lv_draw_vbasic.c ****                     *vdb_buf_tmp = color_mix_2_alpha(*vdb_buf_tmp, (*vdb_buf_tmp).alpha, color, px_
 355:..\lvgl\lv_draw/lv_draw_vbasic.c **** #endif
 356:..\lvgl\lv_draw/lv_draw_vbasic.c ****                 }
 357:..\lvgl\lv_draw/lv_draw_vbasic.c ****             }
 358:..\lvgl\lv_draw/lv_draw_vbasic.c **** 
 359:..\lvgl\lv_draw/lv_draw_vbasic.c ****             vdb_buf_tmp++;
 360:..\lvgl\lv_draw/lv_draw_vbasic.c **** 
 361:..\lvgl\lv_draw/lv_draw_vbasic.c ****             if(col_bit < 8 - bpp) {
 362:..\lvgl\lv_draw/lv_draw_vbasic.c ****                 col_bit += bpp;
 363:..\lvgl\lv_draw/lv_draw_vbasic.c ****                 mask = mask >> bpp;
 364:..\lvgl\lv_draw/lv_draw_vbasic.c ****             } else {
 365:..\lvgl\lv_draw/lv_draw_vbasic.c ****                 col_bit = 0;
 366:..\lvgl\lv_draw/lv_draw_vbasic.c ****                 col_byte_cnt ++;
 367:..\lvgl\lv_draw/lv_draw_vbasic.c ****                 mask = mask_init;
 368:..\lvgl\lv_draw/lv_draw_vbasic.c ****                 map_p ++;
 369:..\lvgl\lv_draw/lv_draw_vbasic.c ****             }
 370:..\lvgl\lv_draw/lv_draw_vbasic.c ****         }
 371:..\lvgl\lv_draw/lv_draw_vbasic.c **** 
 372:..\lvgl\lv_draw/lv_draw_vbasic.c ****         map_p += (width_byte_bpp) - col_byte_cnt;
 373:..\lvgl\lv_draw/lv_draw_vbasic.c ****         vdb_buf_tmp += vdb_width  - (col_end - col_start); /*Next row in VDB*/
ARM GAS  C:\Users\d3bug\AppData\Local\Temp\cc5D6foa.s 			page 8


 374:..\lvgl\lv_draw/lv_draw_vbasic.c ****     }
 375:..\lvgl\lv_draw/lv_draw_vbasic.c **** }
 376:..\lvgl\lv_draw/lv_draw_vbasic.c **** 
 377:..\lvgl\lv_draw/lv_draw_vbasic.c **** /**
 378:..\lvgl\lv_draw/lv_draw_vbasic.c ****  * Draw a color map to the display (image)
 379:..\lvgl\lv_draw/lv_draw_vbasic.c ****  * @param cords_p coordinates the color map
 380:..\lvgl\lv_draw/lv_draw_vbasic.c ****  * @param mask_p the map will drawn only on this area  (truncated to VDB area)
 381:..\lvgl\lv_draw/lv_draw_vbasic.c ****  * @param map_p pointer to a lv_color_t array
 382:..\lvgl\lv_draw/lv_draw_vbasic.c ****  * @param opa opacity of the map
 383:..\lvgl\lv_draw/lv_draw_vbasic.c ****  * @param chroma_keyed true: enable transparency of LV_IMG_LV_COLOR_TRANSP color pixels
 384:..\lvgl\lv_draw/lv_draw_vbasic.c ****  * @param alpha_byte true: extra alpha byte is inserted for every pixel
 385:..\lvgl\lv_draw/lv_draw_vbasic.c ****  * @param recolor mix the pixels with this color
 386:..\lvgl\lv_draw/lv_draw_vbasic.c ****  * @param recolor_opa the intense of recoloring
 387:..\lvgl\lv_draw/lv_draw_vbasic.c ****  */
 388:..\lvgl\lv_draw/lv_draw_vbasic.c **** void lv_vmap(const lv_area_t * cords_p, const lv_area_t * mask_p,
 389:..\lvgl\lv_draw/lv_draw_vbasic.c ****              const uint8_t * map_p, lv_opa_t opa, bool chroma_key, bool alpha_byte,
 390:..\lvgl\lv_draw/lv_draw_vbasic.c ****              lv_color_t recolor, lv_opa_t recolor_opa)
 391:..\lvgl\lv_draw/lv_draw_vbasic.c **** {
 392:..\lvgl\lv_draw/lv_draw_vbasic.c **** 
 393:..\lvgl\lv_draw/lv_draw_vbasic.c ****     if(opa < LV_OPA_MIN) return;
 394:..\lvgl\lv_draw/lv_draw_vbasic.c ****     if(opa > LV_OPA_MAX) opa = LV_OPA_COVER;
 395:..\lvgl\lv_draw/lv_draw_vbasic.c **** 
 396:..\lvgl\lv_draw/lv_draw_vbasic.c ****     lv_area_t masked_a;
 397:..\lvgl\lv_draw/lv_draw_vbasic.c ****     bool union_ok;
 398:..\lvgl\lv_draw/lv_draw_vbasic.c ****     lv_vdb_t * vdb_p = lv_vdb_get();
 399:..\lvgl\lv_draw/lv_draw_vbasic.c ****     if(!vdb_p) {
 400:..\lvgl\lv_draw/lv_draw_vbasic.c ****         LV_LOG_WARN("Invalid VDB pointer");
 401:..\lvgl\lv_draw/lv_draw_vbasic.c ****         return;
 402:..\lvgl\lv_draw/lv_draw_vbasic.c ****     }
 403:..\lvgl\lv_draw/lv_draw_vbasic.c **** 
 404:..\lvgl\lv_draw/lv_draw_vbasic.c ****     /*Get the union of map size and mask*/
 405:..\lvgl\lv_draw/lv_draw_vbasic.c ****     /* The mask is already truncated to the vdb size
 406:..\lvgl\lv_draw/lv_draw_vbasic.c ****     * in 'lv_refr_area_with_vdb' function */
 407:..\lvgl\lv_draw/lv_draw_vbasic.c ****     union_ok = lv_area_intersect(&masked_a, cords_p, mask_p);
 408:..\lvgl\lv_draw/lv_draw_vbasic.c **** 
 409:..\lvgl\lv_draw/lv_draw_vbasic.c ****     /*If there are common part of the three area then draw to the vdb*/
 410:..\lvgl\lv_draw/lv_draw_vbasic.c ****     if(union_ok == false)  return;
 411:..\lvgl\lv_draw/lv_draw_vbasic.c **** 
 412:..\lvgl\lv_draw/lv_draw_vbasic.c ****     /*The pixel size in byte is different if an alpha byte is added too*/
 413:..\lvgl\lv_draw/lv_draw_vbasic.c ****     uint8_t px_size_byte = alpha_byte ? LV_IMG_PX_SIZE_ALPHA_BYTE : sizeof(lv_color_t);
 414:..\lvgl\lv_draw/lv_draw_vbasic.c **** 
 415:..\lvgl\lv_draw/lv_draw_vbasic.c ****     /*If the map starts OUT of the masked area then calc. the first pixel*/
 416:..\lvgl\lv_draw/lv_draw_vbasic.c ****     lv_coord_t map_width = lv_area_get_width(cords_p);
 417:..\lvgl\lv_draw/lv_draw_vbasic.c ****     if(cords_p->y1 < masked_a.y1) {
 418:..\lvgl\lv_draw/lv_draw_vbasic.c ****         map_p += (uint32_t) map_width * ((masked_a.y1 - cords_p->y1)) * px_size_byte;
 419:..\lvgl\lv_draw/lv_draw_vbasic.c ****     }
 420:..\lvgl\lv_draw/lv_draw_vbasic.c ****     if(cords_p->x1 < masked_a.x1) {
 421:..\lvgl\lv_draw/lv_draw_vbasic.c ****         map_p += (masked_a.x1 - cords_p->x1) * px_size_byte;
 422:..\lvgl\lv_draw/lv_draw_vbasic.c ****     }
 423:..\lvgl\lv_draw/lv_draw_vbasic.c **** 
 424:..\lvgl\lv_draw/lv_draw_vbasic.c ****     /*Stores coordinates relative to the current VDB*/
 425:..\lvgl\lv_draw/lv_draw_vbasic.c ****     masked_a.x1 = masked_a.x1 - vdb_p->area.x1;
 426:..\lvgl\lv_draw/lv_draw_vbasic.c ****     masked_a.y1 = masked_a.y1 - vdb_p->area.y1;
 427:..\lvgl\lv_draw/lv_draw_vbasic.c ****     masked_a.x2 = masked_a.x2 - vdb_p->area.x1;
 428:..\lvgl\lv_draw/lv_draw_vbasic.c ****     masked_a.y2 = masked_a.y2 - vdb_p->area.y1;
 429:..\lvgl\lv_draw/lv_draw_vbasic.c **** 
 430:..\lvgl\lv_draw/lv_draw_vbasic.c ****     lv_coord_t vdb_width = lv_area_get_width(&vdb_p->area);
ARM GAS  C:\Users\d3bug\AppData\Local\Temp\cc5D6foa.s 			page 9


 431:..\lvgl\lv_draw/lv_draw_vbasic.c ****     lv_color_t * vdb_buf_tmp = vdb_p->buf;
 432:..\lvgl\lv_draw/lv_draw_vbasic.c ****     vdb_buf_tmp += (uint32_t) vdb_width * masked_a.y1; /*Move to the first row*/
 433:..\lvgl\lv_draw/lv_draw_vbasic.c ****     vdb_buf_tmp += (uint32_t) masked_a.x1; /*Move to the first col*/
 434:..\lvgl\lv_draw/lv_draw_vbasic.c **** 
 435:..\lvgl\lv_draw/lv_draw_vbasic.c ****     lv_coord_t row;
 436:..\lvgl\lv_draw/lv_draw_vbasic.c ****     lv_coord_t map_useful_w = lv_area_get_width(&masked_a);
 437:..\lvgl\lv_draw/lv_draw_vbasic.c **** 
 438:..\lvgl\lv_draw/lv_draw_vbasic.c ****     lv_disp_t * disp = lv_disp_get_active();
 439:..\lvgl\lv_draw/lv_draw_vbasic.c **** 
 440:..\lvgl\lv_draw/lv_draw_vbasic.c ****     /*The simplest case just copy the pixels into the VDB*/
 441:..\lvgl\lv_draw/lv_draw_vbasic.c ****     if(chroma_key == false && alpha_byte == false && opa == LV_OPA_COVER && recolor_opa == LV_OPA_T
 442:..\lvgl\lv_draw/lv_draw_vbasic.c **** 
 443:..\lvgl\lv_draw/lv_draw_vbasic.c ****         /*Use the custom VDB write function is exists*/
 444:..\lvgl\lv_draw/lv_draw_vbasic.c ****         if(disp->driver.vdb_wr) {
 445:..\lvgl\lv_draw/lv_draw_vbasic.c ****             lv_coord_t col;
 446:..\lvgl\lv_draw/lv_draw_vbasic.c ****             for(row = masked_a.y1; row <= masked_a.y2; row++) {
 447:..\lvgl\lv_draw/lv_draw_vbasic.c ****                 for(col = 0; col < map_useful_w; col++) {
 448:..\lvgl\lv_draw/lv_draw_vbasic.c ****                     lv_color_t px_color = *((lv_color_t *)&map_p[(uint32_t)col * px_size_byte]);
 449:..\lvgl\lv_draw/lv_draw_vbasic.c ****                     disp->driver.vdb_wr((uint8_t *)vdb_p->buf, vdb_width, col + masked_a.x1, row, p
 450:..\lvgl\lv_draw/lv_draw_vbasic.c ****                 }
 451:..\lvgl\lv_draw/lv_draw_vbasic.c ****                 map_p += map_width * px_size_byte;  /*Next row on the map*/
 452:..\lvgl\lv_draw/lv_draw_vbasic.c ****             }
 453:..\lvgl\lv_draw/lv_draw_vbasic.c ****         }
 454:..\lvgl\lv_draw/lv_draw_vbasic.c ****         /*Normal native VDB*/
 455:..\lvgl\lv_draw/lv_draw_vbasic.c ****         else {
 456:..\lvgl\lv_draw/lv_draw_vbasic.c ****             for(row = masked_a.y1; row <= masked_a.y2; row++) {
 457:..\lvgl\lv_draw/lv_draw_vbasic.c **** #if USE_LV_GPU
 458:..\lvgl\lv_draw/lv_draw_vbasic.c ****                 if(lv_disp_is_mem_blend_supported() == false) {
 459:..\lvgl\lv_draw/lv_draw_vbasic.c ****                     sw_mem_blend(vdb_buf_tmp, (lv_color_t *)map_p, map_useful_w, opa);
 460:..\lvgl\lv_draw/lv_draw_vbasic.c ****                 } else {
 461:..\lvgl\lv_draw/lv_draw_vbasic.c ****                     lv_disp_mem_blend(vdb_buf_tmp, (lv_color_t *)map_p, map_useful_w, opa);
 462:..\lvgl\lv_draw/lv_draw_vbasic.c ****                 }
 463:..\lvgl\lv_draw/lv_draw_vbasic.c **** #else
 464:..\lvgl\lv_draw/lv_draw_vbasic.c ****                 sw_mem_blend(vdb_buf_tmp, (lv_color_t *)map_p, map_useful_w, opa);
 465:..\lvgl\lv_draw/lv_draw_vbasic.c **** #endif
 466:..\lvgl\lv_draw/lv_draw_vbasic.c ****                 map_p += map_width * px_size_byte;               /*Next row on the map*/
 467:..\lvgl\lv_draw/lv_draw_vbasic.c ****                 vdb_buf_tmp += vdb_width;                        /*Next row on the VDB*/
 468:..\lvgl\lv_draw/lv_draw_vbasic.c ****             }
 469:..\lvgl\lv_draw/lv_draw_vbasic.c ****         }
 470:..\lvgl\lv_draw/lv_draw_vbasic.c ****     }
 471:..\lvgl\lv_draw/lv_draw_vbasic.c **** 
 472:..\lvgl\lv_draw/lv_draw_vbasic.c ****     /*In the other cases every pixel need to be checked one-by-one*/
 473:..\lvgl\lv_draw/lv_draw_vbasic.c ****     else {
 474:..\lvgl\lv_draw/lv_draw_vbasic.c ****         lv_color_t chroma_key_color = LV_COLOR_TRANSP;
 475:..\lvgl\lv_draw/lv_draw_vbasic.c ****         lv_coord_t col;
 476:..\lvgl\lv_draw/lv_draw_vbasic.c ****         lv_color_t last_img_px = LV_COLOR_BLACK;
 477:..\lvgl\lv_draw/lv_draw_vbasic.c ****         lv_color_t recolored_px = lv_color_mix(recolor, last_img_px, recolor_opa);
 478:..\lvgl\lv_draw/lv_draw_vbasic.c ****         for(row = masked_a.y1; row <= masked_a.y2; row++) {
 479:..\lvgl\lv_draw/lv_draw_vbasic.c ****             for(col = 0; col < map_useful_w; col++) {
 480:..\lvgl\lv_draw/lv_draw_vbasic.c ****                 lv_opa_t opa_result = opa;
 481:..\lvgl\lv_draw/lv_draw_vbasic.c ****                 uint8_t * px_color_p = (uint8_t *) &map_p[(uint32_t)col * px_size_byte];
 482:..\lvgl\lv_draw/lv_draw_vbasic.c ****                 lv_color_t px_color;
 483:..\lvgl\lv_draw/lv_draw_vbasic.c **** 
 484:..\lvgl\lv_draw/lv_draw_vbasic.c ****                 /*Calculate with the pixel level alpha*/
 485:..\lvgl\lv_draw/lv_draw_vbasic.c ****                 if(alpha_byte) {
 486:..\lvgl\lv_draw/lv_draw_vbasic.c **** #if LV_COLOR_DEPTH == 8 || LV_COLOR_DEPTH == 1
 487:..\lvgl\lv_draw/lv_draw_vbasic.c ****                     px_color.full = px_color_p[0];
ARM GAS  C:\Users\d3bug\AppData\Local\Temp\cc5D6foa.s 			page 10


 488:..\lvgl\lv_draw/lv_draw_vbasic.c **** #elif LV_COLOR_DEPTH == 16
 489:..\lvgl\lv_draw/lv_draw_vbasic.c ****                     /*Because of Alpha byte 16 bit color can start on odd address which can cause c
 490:..\lvgl\lv_draw/lv_draw_vbasic.c ****                     px_color.full = px_color_p[0] + (px_color_p[1] << 8);
 491:..\lvgl\lv_draw/lv_draw_vbasic.c **** #elif LV_COLOR_DEPTH == 32
 492:..\lvgl\lv_draw/lv_draw_vbasic.c ****                     px_color = *((lv_color_t *)px_color_p);
 493:..\lvgl\lv_draw/lv_draw_vbasic.c **** #endif
 494:..\lvgl\lv_draw/lv_draw_vbasic.c ****                     lv_opa_t px_opa = *(px_color_p + LV_IMG_PX_SIZE_ALPHA_BYTE - 1);
 495:..\lvgl\lv_draw/lv_draw_vbasic.c ****                     if(px_opa == LV_OPA_TRANSP) continue;
 496:..\lvgl\lv_draw/lv_draw_vbasic.c ****                     else if(px_opa != LV_OPA_COVER) opa_result = (uint32_t)((uint32_t)px_opa * opa_
 497:..\lvgl\lv_draw/lv_draw_vbasic.c ****                 } else {
 498:..\lvgl\lv_draw/lv_draw_vbasic.c ****                     px_color = *((lv_color_t *)px_color_p);
 499:..\lvgl\lv_draw/lv_draw_vbasic.c ****                 }
 500:..\lvgl\lv_draw/lv_draw_vbasic.c **** 
 501:..\lvgl\lv_draw/lv_draw_vbasic.c ****                 /*Handle chroma key*/
 502:..\lvgl\lv_draw/lv_draw_vbasic.c ****                 if(chroma_key && px_color.full == chroma_key_color.full) continue;
 503:..\lvgl\lv_draw/lv_draw_vbasic.c **** 
 504:..\lvgl\lv_draw/lv_draw_vbasic.c ****                 /*Re-color the pixel if required*/
 505:..\lvgl\lv_draw/lv_draw_vbasic.c ****                 if(recolor_opa != LV_OPA_TRANSP) {
 506:..\lvgl\lv_draw/lv_draw_vbasic.c ****                     if(last_img_px.full != px_color.full) {     /*Minor acceleration: calculate onl
 507:..\lvgl\lv_draw/lv_draw_vbasic.c ****                         last_img_px = px_color;
 508:..\lvgl\lv_draw/lv_draw_vbasic.c ****                         recolored_px = lv_color_mix(recolor, last_img_px, recolor_opa);
 509:..\lvgl\lv_draw/lv_draw_vbasic.c ****                     }
 510:..\lvgl\lv_draw/lv_draw_vbasic.c ****                     /*Handle custom VDB write is present*/
 511:..\lvgl\lv_draw/lv_draw_vbasic.c ****                     if(disp->driver.vdb_wr) {
 512:..\lvgl\lv_draw/lv_draw_vbasic.c ****                         disp->driver.vdb_wr((uint8_t *)vdb_p->buf, vdb_width, col + masked_a.x1, ro
 513:..\lvgl\lv_draw/lv_draw_vbasic.c ****                     }
 514:..\lvgl\lv_draw/lv_draw_vbasic.c ****                     /*Normal native VDB write*/
 515:..\lvgl\lv_draw/lv_draw_vbasic.c ****                     else {
 516:..\lvgl\lv_draw/lv_draw_vbasic.c ****                         if(opa_result == LV_OPA_COVER) vdb_buf_tmp[col].full = recolored_px.full;
 517:..\lvgl\lv_draw/lv_draw_vbasic.c ****                         else vdb_buf_tmp[col] = lv_color_mix(recolored_px, vdb_buf_tmp[col], opa_re
 518:..\lvgl\lv_draw/lv_draw_vbasic.c ****                     }
 519:..\lvgl\lv_draw/lv_draw_vbasic.c ****                 } else {
 520:..\lvgl\lv_draw/lv_draw_vbasic.c ****                     /*Handle custom VDB write is present*/
 521:..\lvgl\lv_draw/lv_draw_vbasic.c ****                     if(disp->driver.vdb_wr) {
 522:..\lvgl\lv_draw/lv_draw_vbasic.c ****                         disp->driver.vdb_wr((uint8_t *)vdb_p->buf, vdb_width, col + masked_a.x1, ro
 523:..\lvgl\lv_draw/lv_draw_vbasic.c ****                     }
 524:..\lvgl\lv_draw/lv_draw_vbasic.c ****                     /*Normal native VDB write*/
 525:..\lvgl\lv_draw/lv_draw_vbasic.c ****                     else {
 526:..\lvgl\lv_draw/lv_draw_vbasic.c ****                         if(opa_result == LV_OPA_COVER) vdb_buf_tmp[col] = px_color;
 527:..\lvgl\lv_draw/lv_draw_vbasic.c ****                         else {
 528:..\lvgl\lv_draw/lv_draw_vbasic.c **** #if LV_COLOR_SCREEN_TRANSP == 0
 529:..\lvgl\lv_draw/lv_draw_vbasic.c ****                             vdb_buf_tmp[col] = lv_color_mix(px_color, vdb_buf_tmp[col], opa_result)
 530:..\lvgl\lv_draw/lv_draw_vbasic.c **** #else
 531:..\lvgl\lv_draw/lv_draw_vbasic.c ****                             vdb_buf_tmp[col] = color_mix_2_alpha(vdb_buf_tmp[col], vdb_buf_tmp[col]
 532:..\lvgl\lv_draw/lv_draw_vbasic.c **** //                            if(vdb_buf_tmp[col].alpha == LV_OPA_TRANSP) {
 533:..\lvgl\lv_draw/lv_draw_vbasic.c **** //                                /* When it is the first visible pixel on the transparent screen
 534:..\lvgl\lv_draw/lv_draw_vbasic.c **** //                                 * simlply use this color and set the pixel opa as backrounds alp
 535:..\lvgl\lv_draw/lv_draw_vbasic.c **** //                                vdb_buf_tmp[col] = px_color;
 536:..\lvgl\lv_draw/lv_draw_vbasic.c **** //                                vdb_buf_tmp[col].alpha = opa_result;
 537:..\lvgl\lv_draw/lv_draw_vbasic.c **** //                            } else {
 538:..\lvgl\lv_draw/lv_draw_vbasic.c **** //                                /* If already this pixel is already written then for performance 
 539:..\lvgl\lv_draw/lv_draw_vbasic.c **** //                                 * don't care with alpha channel
 540:..\lvgl\lv_draw/lv_draw_vbasic.c **** //                                 */
 541:..\lvgl\lv_draw/lv_draw_vbasic.c **** //                                lv_opa_t bg_opa = vdb_buf_tmp[col].alpha;
 542:..\lvgl\lv_draw/lv_draw_vbasic.c **** //                                vdb_buf_tmp[col] = lv_color_mix(px_color, vdb_buf_tmp[col], opa_r
 543:..\lvgl\lv_draw/lv_draw_vbasic.c **** //
 544:..\lvgl\lv_draw/lv_draw_vbasic.c **** //                                uint16_t opa_tmp = (uint16_t)opa_result + ((bg_opa * (255 - opa_r
ARM GAS  C:\Users\d3bug\AppData\Local\Temp\cc5D6foa.s 			page 11


 545:..\lvgl\lv_draw/lv_draw_vbasic.c **** //                                vdb_buf_tmp[col].alpha = opa_tmp > 0xFF ? 0xFF : opa_tmp ;
 546:..\lvgl\lv_draw/lv_draw_vbasic.c **** //                            }
 547:..\lvgl\lv_draw/lv_draw_vbasic.c **** #endif
 548:..\lvgl\lv_draw/lv_draw_vbasic.c ****                         }
 549:..\lvgl\lv_draw/lv_draw_vbasic.c ****                     }
 550:..\lvgl\lv_draw/lv_draw_vbasic.c ****                 }
 551:..\lvgl\lv_draw/lv_draw_vbasic.c ****             }
 552:..\lvgl\lv_draw/lv_draw_vbasic.c **** 
 553:..\lvgl\lv_draw/lv_draw_vbasic.c ****             map_p += map_width * px_size_byte;  /*Next row on the map*/
 554:..\lvgl\lv_draw/lv_draw_vbasic.c ****             vdb_buf_tmp += vdb_width;           /*Next row on the VDB*/
 555:..\lvgl\lv_draw/lv_draw_vbasic.c ****         }
 556:..\lvgl\lv_draw/lv_draw_vbasic.c ****     }
 557:..\lvgl\lv_draw/lv_draw_vbasic.c **** }
 558:..\lvgl\lv_draw/lv_draw_vbasic.c **** 
 559:..\lvgl\lv_draw/lv_draw_vbasic.c **** /**********************
 560:..\lvgl\lv_draw/lv_draw_vbasic.c ****  *   STATIC FUNCTIONS
 561:..\lvgl\lv_draw/lv_draw_vbasic.c ****  **********************/
 562:..\lvgl\lv_draw/lv_draw_vbasic.c **** 
 563:..\lvgl\lv_draw/lv_draw_vbasic.c **** /**
 564:..\lvgl\lv_draw/lv_draw_vbasic.c ****  * Blend pixels to destination memory using opacity
 565:..\lvgl\lv_draw/lv_draw_vbasic.c ****  * @param dest a memory address. Copy 'src' here.
 566:..\lvgl\lv_draw/lv_draw_vbasic.c ****  * @param src pointer to pixel map. Copy it to 'dest'.
 567:..\lvgl\lv_draw/lv_draw_vbasic.c ****  * @param length number of pixels in 'src'
 568:..\lvgl\lv_draw/lv_draw_vbasic.c ****  * @param opa opacity (0, LV_OPA_TRANSP: transparent ... 255, LV_OPA_COVER, fully cover)
 569:..\lvgl\lv_draw/lv_draw_vbasic.c ****  */
 570:..\lvgl\lv_draw/lv_draw_vbasic.c **** static void sw_mem_blend(lv_color_t * dest, const lv_color_t * src, uint32_t length, lv_opa_t opa)
 571:..\lvgl\lv_draw/lv_draw_vbasic.c **** {
 572:..\lvgl\lv_draw/lv_draw_vbasic.c ****     if(opa == LV_OPA_COVER) {
 573:..\lvgl\lv_draw/lv_draw_vbasic.c ****         memcpy(dest, src, length * sizeof(lv_color_t));
 574:..\lvgl\lv_draw/lv_draw_vbasic.c ****     } else {
 575:..\lvgl\lv_draw/lv_draw_vbasic.c ****         uint32_t col;
 576:..\lvgl\lv_draw/lv_draw_vbasic.c ****         for(col = 0; col < length; col++) {
 577:..\lvgl\lv_draw/lv_draw_vbasic.c ****             dest[col] = lv_color_mix(src[col], dest[col], opa);
 578:..\lvgl\lv_draw/lv_draw_vbasic.c ****         }
 579:..\lvgl\lv_draw/lv_draw_vbasic.c ****     }
 580:..\lvgl\lv_draw/lv_draw_vbasic.c **** }
 581:..\lvgl\lv_draw/lv_draw_vbasic.c **** 
 582:..\lvgl\lv_draw/lv_draw_vbasic.c **** /**
 583:..\lvgl\lv_draw/lv_draw_vbasic.c ****  *
 584:..\lvgl\lv_draw/lv_draw_vbasic.c ****  * @param mem_area coordinates of 'mem' memory area
 585:..\lvgl\lv_draw/lv_draw_vbasic.c ****  * @param mem a memory address. Considered to a rectangular window according to 'mem_area'
 586:..\lvgl\lv_draw/lv_draw_vbasic.c ****  * @param fill_area coordinates of an area to fill. Relative to 'mem_area'.
 587:..\lvgl\lv_draw/lv_draw_vbasic.c ****  * @param color fill color
 588:..\lvgl\lv_draw/lv_draw_vbasic.c ****  * @param opa opacity (0, LV_OPA_TRANSP: transparent ... 255, LV_OPA_COVER, fully cover)
 589:..\lvgl\lv_draw/lv_draw_vbasic.c ****  */
 590:..\lvgl\lv_draw/lv_draw_vbasic.c **** static void sw_color_fill(lv_area_t * mem_area, lv_color_t * mem, const lv_area_t * fill_area, lv_c
 591:..\lvgl\lv_draw/lv_draw_vbasic.c **** {
  27              		.loc 1 591 0
  28              		.cfi_startproc
  29              		@ args = 4, pretend = 0, frame = 8
  30              		@ frame_needed = 0, uses_anonymous_args = 0
  31              	.LVL0:
  32 0000 2DE9F04F 		push	{r4, r5, r6, r7, r8, r9, r10, fp, lr}
  33              		.cfi_def_cfa_offset 36
  34              		.cfi_offset 4, -36
  35              		.cfi_offset 5, -32
  36              		.cfi_offset 6, -28
ARM GAS  C:\Users\d3bug\AppData\Local\Temp\cc5D6foa.s 			page 12


  37              		.cfi_offset 7, -24
  38              		.cfi_offset 8, -20
  39              		.cfi_offset 9, -16
  40              		.cfi_offset 10, -12
  41              		.cfi_offset 11, -8
  42              		.cfi_offset 14, -4
  43 0004 85B0     		sub	sp, sp, #20
  44              		.cfi_def_cfa_offset 56
  45 0006 0391     		str	r1, [sp, #12]
  46 0008 1746     		mov	r7, r2
  47 000a 9A46     		mov	r10, r3
  48 000c 9DF83890 		ldrb	r9, [sp, #56]	@ zero_extendqisi2
  49              	.LVL1:
  50              	.LBB45:
  51              	.LBB46:
  52              		.file 2 "..\\lvgl\\lv_draw\\../lv_misc/lv_area.h"
   1:..\lvgl\lv_draw\../lv_misc/lv_area.h **** /**
   2:..\lvgl\lv_draw\../lv_misc/lv_area.h ****  * @file lv_area.h
   3:..\lvgl\lv_draw\../lv_misc/lv_area.h ****  *
   4:..\lvgl\lv_draw\../lv_misc/lv_area.h ****  */
   5:..\lvgl\lv_draw\../lv_misc/lv_area.h **** 
   6:..\lvgl\lv_draw\../lv_misc/lv_area.h **** #ifndef LV_AREA_H
   7:..\lvgl\lv_draw\../lv_misc/lv_area.h **** #define LV_AREA_H
   8:..\lvgl\lv_draw\../lv_misc/lv_area.h **** 
   9:..\lvgl\lv_draw\../lv_misc/lv_area.h **** #ifdef __cplusplus
  10:..\lvgl\lv_draw\../lv_misc/lv_area.h **** extern "C" {
  11:..\lvgl\lv_draw\../lv_misc/lv_area.h **** #endif
  12:..\lvgl\lv_draw\../lv_misc/lv_area.h **** 
  13:..\lvgl\lv_draw\../lv_misc/lv_area.h **** 
  14:..\lvgl\lv_draw\../lv_misc/lv_area.h **** /*********************
  15:..\lvgl\lv_draw\../lv_misc/lv_area.h ****  *      INCLUDES
  16:..\lvgl\lv_draw\../lv_misc/lv_area.h ****  *********************/
  17:..\lvgl\lv_draw\../lv_misc/lv_area.h **** #include <string.h>
  18:..\lvgl\lv_draw\../lv_misc/lv_area.h **** #include <stdbool.h>
  19:..\lvgl\lv_draw\../lv_misc/lv_area.h **** #include <stdint.h>
  20:..\lvgl\lv_draw\../lv_misc/lv_area.h **** 
  21:..\lvgl\lv_draw\../lv_misc/lv_area.h **** /*********************
  22:..\lvgl\lv_draw\../lv_misc/lv_area.h ****  *      DEFINES
  23:..\lvgl\lv_draw\../lv_misc/lv_area.h ****  *********************/
  24:..\lvgl\lv_draw\../lv_misc/lv_area.h **** #define LV_COORD_MAX     (16383)    /*To avoid overflow don't let the max [-32,32k] range */
  25:..\lvgl\lv_draw\../lv_misc/lv_area.h **** #define LV_COORD_MIN     (-16384)
  26:..\lvgl\lv_draw\../lv_misc/lv_area.h **** 
  27:..\lvgl\lv_draw\../lv_misc/lv_area.h **** /**********************
  28:..\lvgl\lv_draw\../lv_misc/lv_area.h ****  *      TYPEDEFS
  29:..\lvgl\lv_draw\../lv_misc/lv_area.h ****  **********************/
  30:..\lvgl\lv_draw\../lv_misc/lv_area.h **** typedef int16_t lv_coord_t;
  31:..\lvgl\lv_draw\../lv_misc/lv_area.h **** 
  32:..\lvgl\lv_draw\../lv_misc/lv_area.h **** typedef struct
  33:..\lvgl\lv_draw\../lv_misc/lv_area.h **** {
  34:..\lvgl\lv_draw\../lv_misc/lv_area.h ****     lv_coord_t x;
  35:..\lvgl\lv_draw\../lv_misc/lv_area.h ****     lv_coord_t y;
  36:..\lvgl\lv_draw\../lv_misc/lv_area.h **** } lv_point_t;
  37:..\lvgl\lv_draw\../lv_misc/lv_area.h **** 
  38:..\lvgl\lv_draw\../lv_misc/lv_area.h **** typedef struct
  39:..\lvgl\lv_draw\../lv_misc/lv_area.h **** {
  40:..\lvgl\lv_draw\../lv_misc/lv_area.h ****     lv_coord_t x1;
  41:..\lvgl\lv_draw\../lv_misc/lv_area.h ****     lv_coord_t y1;
ARM GAS  C:\Users\d3bug\AppData\Local\Temp\cc5D6foa.s 			page 13


  42:..\lvgl\lv_draw\../lv_misc/lv_area.h ****     lv_coord_t x2;
  43:..\lvgl\lv_draw\../lv_misc/lv_area.h ****     lv_coord_t y2;
  44:..\lvgl\lv_draw\../lv_misc/lv_area.h **** } lv_area_t;
  45:..\lvgl\lv_draw\../lv_misc/lv_area.h **** 
  46:..\lvgl\lv_draw\../lv_misc/lv_area.h **** /**********************
  47:..\lvgl\lv_draw\../lv_misc/lv_area.h ****  * GLOBAL PROTOTYPES
  48:..\lvgl\lv_draw\../lv_misc/lv_area.h ****  **********************/
  49:..\lvgl\lv_draw\../lv_misc/lv_area.h **** 
  50:..\lvgl\lv_draw\../lv_misc/lv_area.h **** /**
  51:..\lvgl\lv_draw\../lv_misc/lv_area.h ****  * Initialize an area
  52:..\lvgl\lv_draw\../lv_misc/lv_area.h ****  * @param area_p pointer to an area
  53:..\lvgl\lv_draw\../lv_misc/lv_area.h ****  * @param x1 left coordinate of the area
  54:..\lvgl\lv_draw\../lv_misc/lv_area.h ****  * @param y1 top coordinate of the area
  55:..\lvgl\lv_draw\../lv_misc/lv_area.h ****  * @param x2 right coordinate of the area
  56:..\lvgl\lv_draw\../lv_misc/lv_area.h ****  * @param y2 bottom coordinate of the area
  57:..\lvgl\lv_draw\../lv_misc/lv_area.h ****  */
  58:..\lvgl\lv_draw\../lv_misc/lv_area.h **** void lv_area_set(lv_area_t * area_p, lv_coord_t x1, lv_coord_t y1, lv_coord_t x2, lv_coord_t y2);
  59:..\lvgl\lv_draw\../lv_misc/lv_area.h **** 
  60:..\lvgl\lv_draw\../lv_misc/lv_area.h **** /**
  61:..\lvgl\lv_draw\../lv_misc/lv_area.h ****  * Copy an area
  62:..\lvgl\lv_draw\../lv_misc/lv_area.h ****  * @param dest pointer to the destination area
  63:..\lvgl\lv_draw\../lv_misc/lv_area.h ****  * @param src pointer to the source area
  64:..\lvgl\lv_draw\../lv_misc/lv_area.h ****  */
  65:..\lvgl\lv_draw\../lv_misc/lv_area.h **** inline static void lv_area_copy(lv_area_t * dest, const lv_area_t * src)
  66:..\lvgl\lv_draw\../lv_misc/lv_area.h **** {
  67:..\lvgl\lv_draw\../lv_misc/lv_area.h ****     memcpy(dest, src, sizeof(lv_area_t));
  68:..\lvgl\lv_draw\../lv_misc/lv_area.h **** }
  69:..\lvgl\lv_draw\../lv_misc/lv_area.h **** 
  70:..\lvgl\lv_draw\../lv_misc/lv_area.h **** /**
  71:..\lvgl\lv_draw\../lv_misc/lv_area.h ****  * Get the width of an area
  72:..\lvgl\lv_draw\../lv_misc/lv_area.h ****  * @param area_p pointer to an area
  73:..\lvgl\lv_draw\../lv_misc/lv_area.h ****  * @return the width of the area (if x1 == x2 -> width = 1)
  74:..\lvgl\lv_draw\../lv_misc/lv_area.h ****  */
  75:..\lvgl\lv_draw\../lv_misc/lv_area.h **** static inline lv_coord_t lv_area_get_width(const lv_area_t * area_p)
  76:..\lvgl\lv_draw\../lv_misc/lv_area.h **** {
  77:..\lvgl\lv_draw\../lv_misc/lv_area.h ****     return area_p->x2 - area_p->x1 + 1;
  53              		.loc 2 77 0
  54 0010 B0F90430 		ldrsh	r3, [r0, #4]
  55              	.LVL2:
  56 0014 B0F90080 		ldrsh	r8, [r0]
  57 0018 C8EB0308 		rsb	r8, r8, r3
  58 001c 08F10108 		add	r8, r8, #1
  59 0020 0FFA88F8 		sxth	r8, r8
  60              	.LVL3:
  61              	.LBE46:
  62              	.LBE45:
 592:..\lvgl\lv_draw/lv_draw_vbasic.c ****     /*Set all row in vdb to the given color*/
 593:..\lvgl\lv_draw/lv_draw_vbasic.c ****     lv_coord_t row;
 594:..\lvgl\lv_draw/lv_draw_vbasic.c ****     lv_coord_t col;
 595:..\lvgl\lv_draw/lv_draw_vbasic.c ****     lv_coord_t mem_width = lv_area_get_width(mem_area);
 596:..\lvgl\lv_draw/lv_draw_vbasic.c **** 
 597:..\lvgl\lv_draw/lv_draw_vbasic.c ****     lv_disp_t * disp = lv_disp_get_active();
  63              		.loc 1 597 0
  64 0024 FFF7FEFF 		bl	lv_disp_get_active
  65              	.LVL4:
 598:..\lvgl\lv_draw/lv_draw_vbasic.c ****     if(disp->driver.vdb_wr) {
  66              		.loc 1 598 0
ARM GAS  C:\Users\d3bug\AppData\Local\Temp\cc5D6foa.s 			page 14


  67 0028 C368     		ldr	r3, [r0, #12]
  68 002a FBB1     		cbz	r3, .L2
  69 002c 8346     		mov	fp, r0
 599:..\lvgl\lv_draw/lv_draw_vbasic.c ****         for(col = fill_area->x1; col <= fill_area->x2; col++) {
  70              		.loc 1 599 0
  71 002e B7F90060 		ldrsh	r6, [r7]
  72              	.LVL5:
  73 0032 16E0     		b	.L3
  74              	.LVL6:
  75              	.L6:
 600:..\lvgl\lv_draw/lv_draw_vbasic.c ****             for(row = fill_area->y1; row <= fill_area->y2; row++) {
  76              		.loc 1 600 0
  77 0034 B7F90240 		ldrsh	r4, [r7, #2]
  78              	.LVL7:
  79 0038 4D46     		mov	r5, r9
  80 003a 0BE0     		b	.L4
  81              	.L5:
 601:..\lvgl\lv_draw/lv_draw_vbasic.c ****                 disp->driver.vdb_wr((uint8_t *)mem, mem_width, col, row, color, opa);
  82              		.loc 1 601 0 discriminator 3
  83 003c DBF80C90 		ldr	r9, [fp, #12]
  84 0040 0195     		str	r5, [sp, #4]
  85 0042 8DF800A0 		strb	r10, [sp]
  86 0046 2346     		mov	r3, r4
  87 0048 3246     		mov	r2, r6
  88 004a 4146     		mov	r1, r8
  89 004c 0398     		ldr	r0, [sp, #12]
  90 004e C847     		blx	r9
  91              	.LVL8:
 600:..\lvgl\lv_draw/lv_draw_vbasic.c ****             for(row = fill_area->y1; row <= fill_area->y2; row++) {
  92              		.loc 1 600 0 discriminator 3
  93 0050 0134     		adds	r4, r4, #1
  94              	.LVL9:
  95 0052 24B2     		sxth	r4, r4
  96              	.LVL10:
  97              	.L4:
 600:..\lvgl\lv_draw/lv_draw_vbasic.c ****             for(row = fill_area->y1; row <= fill_area->y2; row++) {
  98              		.loc 1 600 0 is_stmt 0 discriminator 1
  99 0054 B7F90630 		ldrsh	r3, [r7, #6]
 100 0058 9C42     		cmp	r4, r3
 101 005a EFDD     		ble	.L5
 102 005c A946     		mov	r9, r5
 599:..\lvgl\lv_draw/lv_draw_vbasic.c ****         for(col = fill_area->x1; col <= fill_area->x2; col++) {
 103              		.loc 1 599 0 is_stmt 1 discriminator 2
 104 005e 0136     		adds	r6, r6, #1
 105              	.LVL11:
 106 0060 36B2     		sxth	r6, r6
 107              	.LVL12:
 108              	.L3:
 599:..\lvgl\lv_draw/lv_draw_vbasic.c ****         for(col = fill_area->x1; col <= fill_area->x2; col++) {
 109              		.loc 1 599 0 is_stmt 0 discriminator 1
 110 0062 B7F90430 		ldrsh	r3, [r7, #4]
 111 0066 9E42     		cmp	r6, r3
 112 0068 E4DD     		ble	.L6
 113 006a 61E0     		b	.L1
 114              	.LVL13:
 115              	.L2:
 602:..\lvgl\lv_draw/lv_draw_vbasic.c ****             }
ARM GAS  C:\Users\d3bug\AppData\Local\Temp\cc5D6foa.s 			page 15


 603:..\lvgl\lv_draw/lv_draw_vbasic.c ****         }
 604:..\lvgl\lv_draw/lv_draw_vbasic.c ****     } else {
 605:..\lvgl\lv_draw/lv_draw_vbasic.c ****         mem += fill_area->y1 * mem_width;  /*Go to the first row*/
 116              		.loc 1 605 0 is_stmt 1
 117 006c B7F90200 		ldrsh	r0, [r7, #2]
 118              	.LVL14:
 119 0070 039B     		ldr	r3, [sp, #12]
 120 0072 08FB0031 		mla	r1, r8, r0, r3
 121              	.LVL15:
 606:..\lvgl\lv_draw/lv_draw_vbasic.c **** 
 607:..\lvgl\lv_draw/lv_draw_vbasic.c ****         /*Run simpler function without opacity*/
 608:..\lvgl\lv_draw/lv_draw_vbasic.c ****         if(opa == LV_OPA_COVER) {
 122              		.loc 1 608 0
 123 0076 B9F1FF0F 		cmp	r9, #255
 124 007a 27D1     		bne	.L8
 125              	.LBB47:
 609:..\lvgl\lv_draw/lv_draw_vbasic.c **** 
 610:..\lvgl\lv_draw/lv_draw_vbasic.c ****             /*Fill the first row with 'color'*/
 611:..\lvgl\lv_draw/lv_draw_vbasic.c ****             for(col = fill_area->x1; col <= fill_area->x2; col++) {
 126              		.loc 1 611 0
 127 007c B7F90030 		ldrsh	r3, [r7]
 128              	.LVL16:
 129 0080 03E0     		b	.L9
 130              	.LVL17:
 131              	.L10:
 612:..\lvgl\lv_draw/lv_draw_vbasic.c ****                 mem[col] = color;
 132              		.loc 1 612 0 discriminator 3
 133 0082 01F803A0 		strb	r10, [r1, r3]
 611:..\lvgl\lv_draw/lv_draw_vbasic.c ****                 mem[col] = color;
 134              		.loc 1 611 0 discriminator 3
 135 0086 0133     		adds	r3, r3, #1
 136              	.LVL18:
 137 0088 1BB2     		sxth	r3, r3
 138              	.LVL19:
 139              	.L9:
 611:..\lvgl\lv_draw/lv_draw_vbasic.c ****                 mem[col] = color;
 140              		.loc 1 611 0 is_stmt 0 discriminator 1
 141 008a B7F90420 		ldrsh	r2, [r7, #4]
 142 008e 9342     		cmp	r3, r2
 143 0090 F7DD     		ble	.L10
 613:..\lvgl\lv_draw/lv_draw_vbasic.c ****             }
 614:..\lvgl\lv_draw/lv_draw_vbasic.c **** 
 615:..\lvgl\lv_draw/lv_draw_vbasic.c ****             /*Copy the first row to all other rows*/
 616:..\lvgl\lv_draw/lv_draw_vbasic.c ****             lv_color_t * mem_first = &mem[fill_area->x1];
 144              		.loc 1 616 0 is_stmt 1
 145 0092 B7F90050 		ldrsh	r5, [r7]
 146 0096 01EB0509 		add	r9, r1, r5
 147              	.LVL20:
 617:..\lvgl\lv_draw/lv_draw_vbasic.c ****             lv_coord_t copy_size = (fill_area->x2 - fill_area->x1 + 1) * sizeof(lv_color_t);
 148              		.loc 1 617 0
 149 009a 551B     		subs	r5, r2, r5
 150 009c 0135     		adds	r5, r5, #1
 151 009e 2DB2     		sxth	r5, r5
 152              	.LVL21:
 618:..\lvgl\lv_draw/lv_draw_vbasic.c ****             mem += mem_width;
 153              		.loc 1 618 0
 154 00a0 4646     		mov	r6, r8
ARM GAS  C:\Users\d3bug\AppData\Local\Temp\cc5D6foa.s 			page 16


 155 00a2 8844     		add	r8, r8, r1
 156              	.LVL22:
 619:..\lvgl\lv_draw/lv_draw_vbasic.c **** 
 620:..\lvgl\lv_draw/lv_draw_vbasic.c ****             for(row = fill_area->y1 + 1; row <= fill_area->y2; row++) {
 157              		.loc 1 620 0
 158 00a4 B7F90240 		ldrsh	r4, [r7, #2]
 159 00a8 0134     		adds	r4, r4, #1
 160 00aa 24B2     		sxth	r4, r4
 161              	.LVL23:
 162 00ac 09E0     		b	.L11
 163              	.LVL24:
 164              	.L12:
 621:..\lvgl\lv_draw/lv_draw_vbasic.c ****                 memcpy(&mem[fill_area->x1], mem_first, copy_size);
 165              		.loc 1 621 0 discriminator 3
 166 00ae B7F90000 		ldrsh	r0, [r7]
 167 00b2 2A46     		mov	r2, r5
 168 00b4 4946     		mov	r1, r9
 169 00b6 4044     		add	r0, r0, r8
 170 00b8 FFF7FEFF 		bl	memcpy
 171              	.LVL25:
 622:..\lvgl\lv_draw/lv_draw_vbasic.c ****                 mem += mem_width;
 172              		.loc 1 622 0 discriminator 3
 173 00bc B044     		add	r8, r8, r6
 174              	.LVL26:
 620:..\lvgl\lv_draw/lv_draw_vbasic.c ****                 memcpy(&mem[fill_area->x1], mem_first, copy_size);
 175              		.loc 1 620 0 discriminator 3
 176 00be 0134     		adds	r4, r4, #1
 177              	.LVL27:
 178 00c0 24B2     		sxth	r4, r4
 179              	.LVL28:
 180              	.L11:
 620:..\lvgl\lv_draw/lv_draw_vbasic.c ****                 memcpy(&mem[fill_area->x1], mem_first, copy_size);
 181              		.loc 1 620 0 is_stmt 0 discriminator 1
 182 00c2 B7F90630 		ldrsh	r3, [r7, #6]
 183 00c6 9C42     		cmp	r4, r3
 184 00c8 F1DD     		ble	.L12
 185 00ca 31E0     		b	.L1
 186              	.LVL29:
 187              	.L8:
 188              	.LBE47:
 189              	.LBB48:
 623:..\lvgl\lv_draw/lv_draw_vbasic.c ****             }
 624:..\lvgl\lv_draw/lv_draw_vbasic.c ****         }
 625:..\lvgl\lv_draw/lv_draw_vbasic.c ****         /*Calculate with alpha too*/
 626:..\lvgl\lv_draw/lv_draw_vbasic.c ****         else {
 627:..\lvgl\lv_draw/lv_draw_vbasic.c **** 
 628:..\lvgl\lv_draw/lv_draw_vbasic.c **** #if LV_COLOR_SCREEN_TRANSP == 0
 629:..\lvgl\lv_draw/lv_draw_vbasic.c ****             lv_color_t bg_tmp = LV_COLOR_BLACK;
 190              		.loc 1 629 0 is_stmt 1
 191 00cc 4FF00005 		mov	r5, #0
 192              	.LVL30:
 193              	.LBB49:
 194              	.LBB50:
 195              		.file 3 "..\\lvgl\\lv_draw\\../lv_misc/lv_color.h"
   1:..\lvgl\lv_draw\../lv_misc/lv_color.h **** /**
   2:..\lvgl\lv_draw\../lv_misc/lv_color.h ****  * @file lv_color.h
   3:..\lvgl\lv_draw\../lv_misc/lv_color.h ****  *
ARM GAS  C:\Users\d3bug\AppData\Local\Temp\cc5D6foa.s 			page 17


   4:..\lvgl\lv_draw\../lv_misc/lv_color.h ****  */
   5:..\lvgl\lv_draw\../lv_misc/lv_color.h **** 
   6:..\lvgl\lv_draw\../lv_misc/lv_color.h **** #ifndef LV_COLOR_H
   7:..\lvgl\lv_draw\../lv_misc/lv_color.h **** #define LV_COLOR_H
   8:..\lvgl\lv_draw\../lv_misc/lv_color.h **** 
   9:..\lvgl\lv_draw\../lv_misc/lv_color.h **** #ifdef __cplusplus
  10:..\lvgl\lv_draw\../lv_misc/lv_color.h **** extern "C" {
  11:..\lvgl\lv_draw\../lv_misc/lv_color.h **** #endif
  12:..\lvgl\lv_draw\../lv_misc/lv_color.h **** 
  13:..\lvgl\lv_draw\../lv_misc/lv_color.h **** /*********************
  14:..\lvgl\lv_draw\../lv_misc/lv_color.h ****  *      INCLUDES
  15:..\lvgl\lv_draw\../lv_misc/lv_color.h ****  *********************/
  16:..\lvgl\lv_draw\../lv_misc/lv_color.h **** #ifdef LV_CONF_INCLUDE_SIMPLE
  17:..\lvgl\lv_draw\../lv_misc/lv_color.h **** #include "lv_conf.h"
  18:..\lvgl\lv_draw\../lv_misc/lv_color.h **** #else
  19:..\lvgl\lv_draw\../lv_misc/lv_color.h **** #include "../../lv_conf.h"
  20:..\lvgl\lv_draw\../lv_misc/lv_color.h **** #endif
  21:..\lvgl\lv_draw\../lv_misc/lv_color.h **** 
  22:..\lvgl\lv_draw\../lv_misc/lv_color.h **** /*Error checking*/
  23:..\lvgl\lv_draw\../lv_misc/lv_color.h **** #if LV_COLOR_DEPTH == 24
  24:..\lvgl\lv_draw\../lv_misc/lv_color.h **** #error "LV_COLOR_DEPTH  24 is deprecated. Use LV_COLOR_DEPTH  32 instead (lv_conf.h)"
  25:..\lvgl\lv_draw\../lv_misc/lv_color.h **** #endif
  26:..\lvgl\lv_draw\../lv_misc/lv_color.h **** 
  27:..\lvgl\lv_draw\../lv_misc/lv_color.h **** #if LV_COLOR_DEPTH != 32 && LV_COLOR_SCREEN_TRANSP != 0
  28:..\lvgl\lv_draw\../lv_misc/lv_color.h **** #error "LV_COLOR_SCREEN_TRANSP requires LV_COLOR_DEPTH == 32. Set it in lv_conf.h"
  29:..\lvgl\lv_draw\../lv_misc/lv_color.h **** #endif
  30:..\lvgl\lv_draw\../lv_misc/lv_color.h **** 
  31:..\lvgl\lv_draw\../lv_misc/lv_color.h **** #if LV_COLOR_DEPTH != 16 && LV_COLOR_16_SWAP != 0
  32:..\lvgl\lv_draw\../lv_misc/lv_color.h **** #error "LV_COLOR_16_SWAP requires LV_COLOR_DEPTH == 16. Set it in lv_conf.h"
  33:..\lvgl\lv_draw\../lv_misc/lv_color.h **** #endif
  34:..\lvgl\lv_draw\../lv_misc/lv_color.h **** 
  35:..\lvgl\lv_draw\../lv_misc/lv_color.h **** 
  36:..\lvgl\lv_draw\../lv_misc/lv_color.h **** #include <stdint.h>
  37:..\lvgl\lv_draw\../lv_misc/lv_color.h **** 
  38:..\lvgl\lv_draw\../lv_misc/lv_color.h **** /*********************
  39:..\lvgl\lv_draw\../lv_misc/lv_color.h ****  *      DEFINES
  40:..\lvgl\lv_draw\../lv_misc/lv_color.h ****  *********************/
  41:..\lvgl\lv_draw\../lv_misc/lv_color.h **** #define LV_COLOR_WHITE   LV_COLOR_MAKE(0xFF,0xFF,0xFF)
  42:..\lvgl\lv_draw\../lv_misc/lv_color.h **** #define LV_COLOR_SILVER  LV_COLOR_MAKE(0xC0,0xC0,0xC0)
  43:..\lvgl\lv_draw\../lv_misc/lv_color.h **** #define LV_COLOR_GRAY    LV_COLOR_MAKE(0x80,0x80,0x80)
  44:..\lvgl\lv_draw\../lv_misc/lv_color.h **** #define LV_COLOR_BLACK   LV_COLOR_MAKE(0x00,0x00,0x00)
  45:..\lvgl\lv_draw\../lv_misc/lv_color.h **** #define LV_COLOR_RED     LV_COLOR_MAKE(0xFF,0x00,0x00)
  46:..\lvgl\lv_draw\../lv_misc/lv_color.h **** #define LV_COLOR_MAROON  LV_COLOR_MAKE(0x80,0x00,0x00)
  47:..\lvgl\lv_draw\../lv_misc/lv_color.h **** #define LV_COLOR_YELLOW  LV_COLOR_MAKE(0xFF,0xFF,0x00)
  48:..\lvgl\lv_draw\../lv_misc/lv_color.h **** #define LV_COLOR_OLIVE   LV_COLOR_MAKE(0x80,0x80,0x00)
  49:..\lvgl\lv_draw\../lv_misc/lv_color.h **** #define LV_COLOR_LIME    LV_COLOR_MAKE(0x00,0xFF,0x00)
  50:..\lvgl\lv_draw\../lv_misc/lv_color.h **** #define LV_COLOR_GREEN   LV_COLOR_MAKE(0x00,0x80,0x00)
  51:..\lvgl\lv_draw\../lv_misc/lv_color.h **** #define LV_COLOR_CYAN    LV_COLOR_MAKE(0x00,0xFF,0xFF)
  52:..\lvgl\lv_draw\../lv_misc/lv_color.h **** #define LV_COLOR_AQUA    LV_COLOR_CYAN
  53:..\lvgl\lv_draw\../lv_misc/lv_color.h **** #define LV_COLOR_TEAL    LV_COLOR_MAKE(0x00,0x80,0x80)
  54:..\lvgl\lv_draw\../lv_misc/lv_color.h **** #define LV_COLOR_BLUE    LV_COLOR_MAKE(0x00,0x00,0xFF)
  55:..\lvgl\lv_draw\../lv_misc/lv_color.h **** #define LV_COLOR_NAVY    LV_COLOR_MAKE(0x00,0x00,0x80)
  56:..\lvgl\lv_draw\../lv_misc/lv_color.h **** #define LV_COLOR_MAGENTA LV_COLOR_MAKE(0xFF,0x00,0xFF)
  57:..\lvgl\lv_draw\../lv_misc/lv_color.h **** #define LV_COLOR_PURPLE  LV_COLOR_MAKE(0x80,0x00,0x80)
  58:..\lvgl\lv_draw\../lv_misc/lv_color.h **** #define LV_COLOR_ORANGE  LV_COLOR_MAKE(0xFF,0xA5,0x00)
  59:..\lvgl\lv_draw\../lv_misc/lv_color.h **** 
  60:..\lvgl\lv_draw\../lv_misc/lv_color.h **** enum {
ARM GAS  C:\Users\d3bug\AppData\Local\Temp\cc5D6foa.s 			page 18


  61:..\lvgl\lv_draw\../lv_misc/lv_color.h ****     LV_OPA_TRANSP =  0,
  62:..\lvgl\lv_draw\../lv_misc/lv_color.h ****     LV_OPA_0      =  0,
  63:..\lvgl\lv_draw\../lv_misc/lv_color.h ****     LV_OPA_10     =  25,
  64:..\lvgl\lv_draw\../lv_misc/lv_color.h ****     LV_OPA_20     =  51,
  65:..\lvgl\lv_draw\../lv_misc/lv_color.h ****     LV_OPA_30     =  76,
  66:..\lvgl\lv_draw\../lv_misc/lv_color.h ****     LV_OPA_40     =  102,
  67:..\lvgl\lv_draw\../lv_misc/lv_color.h ****     LV_OPA_50     =  127,
  68:..\lvgl\lv_draw\../lv_misc/lv_color.h ****     LV_OPA_60     =  153,
  69:..\lvgl\lv_draw\../lv_misc/lv_color.h ****     LV_OPA_70     =  178,
  70:..\lvgl\lv_draw\../lv_misc/lv_color.h ****     LV_OPA_80     =  204,
  71:..\lvgl\lv_draw\../lv_misc/lv_color.h ****     LV_OPA_90     =  229,
  72:..\lvgl\lv_draw\../lv_misc/lv_color.h ****     LV_OPA_100    =  255,
  73:..\lvgl\lv_draw\../lv_misc/lv_color.h ****     LV_OPA_COVER  =  255,
  74:..\lvgl\lv_draw\../lv_misc/lv_color.h **** };
  75:..\lvgl\lv_draw\../lv_misc/lv_color.h **** 
  76:..\lvgl\lv_draw\../lv_misc/lv_color.h **** #define LV_OPA_MIN      16      /*Opacities below this will be transparent*/
  77:..\lvgl\lv_draw\../lv_misc/lv_color.h **** #define LV_OPA_MAX      251     /*Opacities above this will fully cover*/
  78:..\lvgl\lv_draw\../lv_misc/lv_color.h **** 
  79:..\lvgl\lv_draw\../lv_misc/lv_color.h **** #if LV_COLOR_DEPTH == 1
  80:..\lvgl\lv_draw\../lv_misc/lv_color.h **** #define LV_COLOR_SIZE           8
  81:..\lvgl\lv_draw\../lv_misc/lv_color.h **** #elif LV_COLOR_DEPTH == 8
  82:..\lvgl\lv_draw\../lv_misc/lv_color.h **** #define LV_COLOR_SIZE           8
  83:..\lvgl\lv_draw\../lv_misc/lv_color.h **** #elif LV_COLOR_DEPTH == 16
  84:..\lvgl\lv_draw\../lv_misc/lv_color.h **** #define LV_COLOR_SIZE           16
  85:..\lvgl\lv_draw\../lv_misc/lv_color.h **** #elif LV_COLOR_DEPTH == 32
  86:..\lvgl\lv_draw\../lv_misc/lv_color.h **** #define LV_COLOR_SIZE           32
  87:..\lvgl\lv_draw\../lv_misc/lv_color.h **** #else
  88:..\lvgl\lv_draw\../lv_misc/lv_color.h **** #error "Invalid LV_COLOR_DEPTH in lv_conf.h! Set it to 1, 8, 16 or 32!"
  89:..\lvgl\lv_draw\../lv_misc/lv_color.h **** #endif
  90:..\lvgl\lv_draw\../lv_misc/lv_color.h **** 
  91:..\lvgl\lv_draw\../lv_misc/lv_color.h **** /**********************
  92:..\lvgl\lv_draw\../lv_misc/lv_color.h ****  *      TYPEDEFS
  93:..\lvgl\lv_draw\../lv_misc/lv_color.h ****  **********************/
  94:..\lvgl\lv_draw\../lv_misc/lv_color.h **** 
  95:..\lvgl\lv_draw\../lv_misc/lv_color.h **** typedef union
  96:..\lvgl\lv_draw\../lv_misc/lv_color.h **** {
  97:..\lvgl\lv_draw\../lv_misc/lv_color.h ****     uint8_t blue  :1;
  98:..\lvgl\lv_draw\../lv_misc/lv_color.h ****     uint8_t green :1;
  99:..\lvgl\lv_draw\../lv_misc/lv_color.h ****     uint8_t red   :1;
 100:..\lvgl\lv_draw\../lv_misc/lv_color.h ****     uint8_t full  :1;
 101:..\lvgl\lv_draw\../lv_misc/lv_color.h **** } lv_color1_t;
 102:..\lvgl\lv_draw\../lv_misc/lv_color.h **** 
 103:..\lvgl\lv_draw\../lv_misc/lv_color.h **** typedef union
 104:..\lvgl\lv_draw\../lv_misc/lv_color.h **** {
 105:..\lvgl\lv_draw\../lv_misc/lv_color.h ****     struct
 106:..\lvgl\lv_draw\../lv_misc/lv_color.h ****     {
 107:..\lvgl\lv_draw\../lv_misc/lv_color.h ****         uint8_t blue  :2;
 108:..\lvgl\lv_draw\../lv_misc/lv_color.h ****         uint8_t green :3;
 109:..\lvgl\lv_draw\../lv_misc/lv_color.h ****         uint8_t red   :3;
 110:..\lvgl\lv_draw\../lv_misc/lv_color.h ****     };
 111:..\lvgl\lv_draw\../lv_misc/lv_color.h ****     uint8_t full;
 112:..\lvgl\lv_draw\../lv_misc/lv_color.h **** } lv_color8_t;
 113:..\lvgl\lv_draw\../lv_misc/lv_color.h **** 
 114:..\lvgl\lv_draw\../lv_misc/lv_color.h **** typedef union
 115:..\lvgl\lv_draw\../lv_misc/lv_color.h **** {
 116:..\lvgl\lv_draw\../lv_misc/lv_color.h ****     struct
 117:..\lvgl\lv_draw\../lv_misc/lv_color.h ****     {
ARM GAS  C:\Users\d3bug\AppData\Local\Temp\cc5D6foa.s 			page 19


 118:..\lvgl\lv_draw\../lv_misc/lv_color.h **** #if LV_COLOR_16_SWAP == 0
 119:..\lvgl\lv_draw\../lv_misc/lv_color.h ****         uint16_t blue  :5;
 120:..\lvgl\lv_draw\../lv_misc/lv_color.h ****         uint16_t green :6;
 121:..\lvgl\lv_draw\../lv_misc/lv_color.h ****         uint16_t red   :5;
 122:..\lvgl\lv_draw\../lv_misc/lv_color.h **** #else
 123:..\lvgl\lv_draw\../lv_misc/lv_color.h ****         uint16_t green_h :3;
 124:..\lvgl\lv_draw\../lv_misc/lv_color.h ****         uint16_t red   :5;
 125:..\lvgl\lv_draw\../lv_misc/lv_color.h ****         uint16_t blue  :5;
 126:..\lvgl\lv_draw\../lv_misc/lv_color.h ****         uint16_t green_l :3;
 127:..\lvgl\lv_draw\../lv_misc/lv_color.h **** #endif
 128:..\lvgl\lv_draw\../lv_misc/lv_color.h ****     };
 129:..\lvgl\lv_draw\../lv_misc/lv_color.h ****     uint16_t full;
 130:..\lvgl\lv_draw\../lv_misc/lv_color.h **** } lv_color16_t;
 131:..\lvgl\lv_draw\../lv_misc/lv_color.h **** 
 132:..\lvgl\lv_draw\../lv_misc/lv_color.h **** typedef union
 133:..\lvgl\lv_draw\../lv_misc/lv_color.h **** {
 134:..\lvgl\lv_draw\../lv_misc/lv_color.h ****     struct
 135:..\lvgl\lv_draw\../lv_misc/lv_color.h ****     {
 136:..\lvgl\lv_draw\../lv_misc/lv_color.h ****         uint8_t blue;
 137:..\lvgl\lv_draw\../lv_misc/lv_color.h ****         uint8_t green;
 138:..\lvgl\lv_draw\../lv_misc/lv_color.h ****         uint8_t red;
 139:..\lvgl\lv_draw\../lv_misc/lv_color.h ****         uint8_t alpha;
 140:..\lvgl\lv_draw\../lv_misc/lv_color.h ****     };
 141:..\lvgl\lv_draw\../lv_misc/lv_color.h ****     uint32_t full;
 142:..\lvgl\lv_draw\../lv_misc/lv_color.h **** } lv_color32_t;
 143:..\lvgl\lv_draw\../lv_misc/lv_color.h **** 
 144:..\lvgl\lv_draw\../lv_misc/lv_color.h **** #if LV_COLOR_DEPTH == 1
 145:..\lvgl\lv_draw\../lv_misc/lv_color.h **** typedef uint8_t lv_color_int_t;
 146:..\lvgl\lv_draw\../lv_misc/lv_color.h **** typedef lv_color1_t lv_color_t;
 147:..\lvgl\lv_draw\../lv_misc/lv_color.h **** #elif LV_COLOR_DEPTH == 8
 148:..\lvgl\lv_draw\../lv_misc/lv_color.h **** typedef uint8_t lv_color_int_t;
 149:..\lvgl\lv_draw\../lv_misc/lv_color.h **** typedef lv_color8_t lv_color_t;
 150:..\lvgl\lv_draw\../lv_misc/lv_color.h **** #elif LV_COLOR_DEPTH == 16
 151:..\lvgl\lv_draw\../lv_misc/lv_color.h **** typedef uint16_t lv_color_int_t;
 152:..\lvgl\lv_draw\../lv_misc/lv_color.h **** typedef lv_color16_t lv_color_t;
 153:..\lvgl\lv_draw\../lv_misc/lv_color.h **** #elif LV_COLOR_DEPTH == 32
 154:..\lvgl\lv_draw\../lv_misc/lv_color.h **** typedef uint32_t lv_color_int_t;
 155:..\lvgl\lv_draw\../lv_misc/lv_color.h **** typedef lv_color32_t lv_color_t;
 156:..\lvgl\lv_draw\../lv_misc/lv_color.h **** #else
 157:..\lvgl\lv_draw\../lv_misc/lv_color.h **** #error "Invalid LV_COLOR_DEPTH in lv_conf.h! Set it to 1, 8, 16 or 32!"
 158:..\lvgl\lv_draw\../lv_misc/lv_color.h **** #endif
 159:..\lvgl\lv_draw\../lv_misc/lv_color.h **** 
 160:..\lvgl\lv_draw\../lv_misc/lv_color.h **** typedef uint8_t lv_opa_t;
 161:..\lvgl\lv_draw\../lv_misc/lv_color.h **** 
 162:..\lvgl\lv_draw\../lv_misc/lv_color.h **** typedef struct
 163:..\lvgl\lv_draw\../lv_misc/lv_color.h **** {
 164:..\lvgl\lv_draw\../lv_misc/lv_color.h ****     uint16_t h;
 165:..\lvgl\lv_draw\../lv_misc/lv_color.h ****     uint8_t s;
 166:..\lvgl\lv_draw\../lv_misc/lv_color.h ****     uint8_t v;
 167:..\lvgl\lv_draw\../lv_misc/lv_color.h **** } lv_color_hsv_t;
 168:..\lvgl\lv_draw\../lv_misc/lv_color.h **** 
 169:..\lvgl\lv_draw\../lv_misc/lv_color.h **** /**********************
 170:..\lvgl\lv_draw\../lv_misc/lv_color.h ****  * GLOBAL PROTOTYPES
 171:..\lvgl\lv_draw\../lv_misc/lv_color.h ****  **********************/
 172:..\lvgl\lv_draw\../lv_misc/lv_color.h **** 
 173:..\lvgl\lv_draw\../lv_misc/lv_color.h **** /*In color conversations:
 174:..\lvgl\lv_draw\../lv_misc/lv_color.h ****  * - When converting to bigger color type the LSB weight of 1 LSB is calculated
ARM GAS  C:\Users\d3bug\AppData\Local\Temp\cc5D6foa.s 			page 20


 175:..\lvgl\lv_draw\../lv_misc/lv_color.h ****  *   E.g. 16 bit Red has 5 bits
 176:..\lvgl\lv_draw\../lv_misc/lv_color.h ****  *         8 bit Red has 2 bits
 177:..\lvgl\lv_draw\../lv_misc/lv_color.h ****  *        ----------------------
 178:..\lvgl\lv_draw\../lv_misc/lv_color.h ****  *        8 bit red LSB = (2^5 - 1) / (2^2 - 1) = 31 / 3 = 10
 179:..\lvgl\lv_draw\../lv_misc/lv_color.h ****  *
 180:..\lvgl\lv_draw\../lv_misc/lv_color.h ****  * - When calculating to smaller color type simply shift out the LSBs
 181:..\lvgl\lv_draw\../lv_misc/lv_color.h ****  *   E.g.  8 bit Red has 2 bits
 182:..\lvgl\lv_draw\../lv_misc/lv_color.h ****  *        16 bit Red has 5 bits
 183:..\lvgl\lv_draw\../lv_misc/lv_color.h ****  *        ----------------------
 184:..\lvgl\lv_draw\../lv_misc/lv_color.h ****  *         Shift right with 5 - 3 = 2
 185:..\lvgl\lv_draw\../lv_misc/lv_color.h ****  */
 186:..\lvgl\lv_draw\../lv_misc/lv_color.h **** 
 187:..\lvgl\lv_draw\../lv_misc/lv_color.h **** static inline uint8_t lv_color_to1(lv_color_t color)
 188:..\lvgl\lv_draw\../lv_misc/lv_color.h **** {
 189:..\lvgl\lv_draw\../lv_misc/lv_color.h **** #if LV_COLOR_DEPTH == 1
 190:..\lvgl\lv_draw\../lv_misc/lv_color.h ****     return color.full;
 191:..\lvgl\lv_draw\../lv_misc/lv_color.h **** #elif LV_COLOR_DEPTH == 8
 192:..\lvgl\lv_draw\../lv_misc/lv_color.h ****     if((color.red   & 0x4) ||
 193:..\lvgl\lv_draw\../lv_misc/lv_color.h ****             (color.green & 0x4) ||
 194:..\lvgl\lv_draw\../lv_misc/lv_color.h ****             (color.blue  & 0x2)) {
 195:..\lvgl\lv_draw\../lv_misc/lv_color.h ****         return 1;
 196:..\lvgl\lv_draw\../lv_misc/lv_color.h ****     } else {
 197:..\lvgl\lv_draw\../lv_misc/lv_color.h ****         return 0;
 198:..\lvgl\lv_draw\../lv_misc/lv_color.h ****     }
 199:..\lvgl\lv_draw\../lv_misc/lv_color.h **** #elif LV_COLOR_DEPTH == 16
 200:..\lvgl\lv_draw\../lv_misc/lv_color.h **** #  if LV_COLOR_16_SWAP == 0
 201:..\lvgl\lv_draw\../lv_misc/lv_color.h ****     if((color.red   & 0x10) ||
 202:..\lvgl\lv_draw\../lv_misc/lv_color.h ****             (color.green & 0x20) ||
 203:..\lvgl\lv_draw\../lv_misc/lv_color.h ****             (color.blue  & 0x10)) {
 204:..\lvgl\lv_draw\../lv_misc/lv_color.h ****         return 1;
 205:..\lvgl\lv_draw\../lv_misc/lv_color.h **** #  else
 206:..\lvgl\lv_draw\../lv_misc/lv_color.h ****     if((color.red   & 0x10) ||
 207:..\lvgl\lv_draw\../lv_misc/lv_color.h ****             (color.green_h & 0x20) ||
 208:..\lvgl\lv_draw\../lv_misc/lv_color.h ****             (color.blue  & 0x10)) {
 209:..\lvgl\lv_draw\../lv_misc/lv_color.h ****         return 1;
 210:..\lvgl\lv_draw\../lv_misc/lv_color.h **** #  endif
 211:..\lvgl\lv_draw\../lv_misc/lv_color.h ****     } else {
 212:..\lvgl\lv_draw\../lv_misc/lv_color.h ****         return 0;
 213:..\lvgl\lv_draw\../lv_misc/lv_color.h ****     }
 214:..\lvgl\lv_draw\../lv_misc/lv_color.h **** #elif LV_COLOR_DEPTH == 32
 215:..\lvgl\lv_draw\../lv_misc/lv_color.h ****     if((color.red   & 0x80) ||
 216:..\lvgl\lv_draw\../lv_misc/lv_color.h ****             (color.green & 0x80) ||
 217:..\lvgl\lv_draw\../lv_misc/lv_color.h ****             (color.blue  & 0x80)) {
 218:..\lvgl\lv_draw\../lv_misc/lv_color.h ****         return 1;
 219:..\lvgl\lv_draw\../lv_misc/lv_color.h ****     } else {
 220:..\lvgl\lv_draw\../lv_misc/lv_color.h ****         return 0;
 221:..\lvgl\lv_draw\../lv_misc/lv_color.h ****     }
 222:..\lvgl\lv_draw\../lv_misc/lv_color.h **** #endif
 223:..\lvgl\lv_draw\../lv_misc/lv_color.h **** }
 224:..\lvgl\lv_draw\../lv_misc/lv_color.h **** 
 225:..\lvgl\lv_draw\../lv_misc/lv_color.h **** static inline uint8_t lv_color_to8(lv_color_t color)
 226:..\lvgl\lv_draw\../lv_misc/lv_color.h **** {
 227:..\lvgl\lv_draw\../lv_misc/lv_color.h **** #if LV_COLOR_DEPTH == 1
 228:..\lvgl\lv_draw\../lv_misc/lv_color.h ****     if(color.full == 0) return 0;
 229:..\lvgl\lv_draw\../lv_misc/lv_color.h ****     else return 0xFF;
 230:..\lvgl\lv_draw\../lv_misc/lv_color.h **** #elif LV_COLOR_DEPTH == 8
 231:..\lvgl\lv_draw\../lv_misc/lv_color.h ****     return color.full;
ARM GAS  C:\Users\d3bug\AppData\Local\Temp\cc5D6foa.s 			page 21


 232:..\lvgl\lv_draw\../lv_misc/lv_color.h **** #elif LV_COLOR_DEPTH == 16
 233:..\lvgl\lv_draw\../lv_misc/lv_color.h **** 
 234:..\lvgl\lv_draw\../lv_misc/lv_color.h **** #  if LV_COLOR_16_SWAP == 0
 235:..\lvgl\lv_draw\../lv_misc/lv_color.h ****     lv_color8_t ret;
 236:..\lvgl\lv_draw\../lv_misc/lv_color.h ****     ret.red = color.red >> 2;       /* 5 - 3  = 2*/
 237:..\lvgl\lv_draw\../lv_misc/lv_color.h ****     ret.green = color.green >> 3;   /* 6 - 3  = 3*/
 238:..\lvgl\lv_draw\../lv_misc/lv_color.h ****     ret.blue = color.blue >> 3;     /* 5 - 2  = 3*/
 239:..\lvgl\lv_draw\../lv_misc/lv_color.h ****     return ret.full;
 240:..\lvgl\lv_draw\../lv_misc/lv_color.h **** #  else
 241:..\lvgl\lv_draw\../lv_misc/lv_color.h ****     lv_color8_t ret;
 242:..\lvgl\lv_draw\../lv_misc/lv_color.h ****     ret.red = color.red >> 2;       /* 5 - 3  = 2*/
 243:..\lvgl\lv_draw\../lv_misc/lv_color.h ****     ret.green = color.green_h;      /* 6 - 3  = 3*/
 244:..\lvgl\lv_draw\../lv_misc/lv_color.h ****     ret.blue = color.blue >> 3;     /* 5 - 2  = 3*/
 245:..\lvgl\lv_draw\../lv_misc/lv_color.h ****     return ret.full;
 246:..\lvgl\lv_draw\../lv_misc/lv_color.h **** #  endif
 247:..\lvgl\lv_draw\../lv_misc/lv_color.h **** #elif LV_COLOR_DEPTH == 32
 248:..\lvgl\lv_draw\../lv_misc/lv_color.h ****     lv_color8_t ret;
 249:..\lvgl\lv_draw\../lv_misc/lv_color.h ****     ret.red = color.red >> 5;       /* 8 - 3  = 5*/
 250:..\lvgl\lv_draw\../lv_misc/lv_color.h ****     ret.green = color.green >> 5;   /* 8 - 3  = 5*/
 251:..\lvgl\lv_draw\../lv_misc/lv_color.h ****     ret.blue = color.blue >> 6;     /* 8 - 2  = 6*/
 252:..\lvgl\lv_draw\../lv_misc/lv_color.h ****     return ret.full;
 253:..\lvgl\lv_draw\../lv_misc/lv_color.h **** #endif
 254:..\lvgl\lv_draw\../lv_misc/lv_color.h **** }
 255:..\lvgl\lv_draw\../lv_misc/lv_color.h **** 
 256:..\lvgl\lv_draw\../lv_misc/lv_color.h **** static inline uint16_t lv_color_to16(lv_color_t color)
 257:..\lvgl\lv_draw\../lv_misc/lv_color.h **** {
 258:..\lvgl\lv_draw\../lv_misc/lv_color.h **** #if LV_COLOR_DEPTH == 1
 259:..\lvgl\lv_draw\../lv_misc/lv_color.h ****     if(color.full == 0) return 0;
 260:..\lvgl\lv_draw\../lv_misc/lv_color.h ****     else return 0xFFFF;
 261:..\lvgl\lv_draw\../lv_misc/lv_color.h **** #elif LV_COLOR_DEPTH == 8
 262:..\lvgl\lv_draw\../lv_misc/lv_color.h ****     lv_color16_t ret;
 263:..\lvgl\lv_draw\../lv_misc/lv_color.h **** #  if LV_COLOR_16_SWAP == 0
 264:..\lvgl\lv_draw\../lv_misc/lv_color.h ****     ret.red = color.red * 4;       /*(2^5 - 1)/(2^3 - 1) = 31/7 = 4*/
 265:..\lvgl\lv_draw\../lv_misc/lv_color.h ****     ret.green = color.green * 9;   /*(2^6 - 1)/(2^3 - 1) = 63/7 = 9*/
 266:..\lvgl\lv_draw\../lv_misc/lv_color.h ****     ret.blue = color.blue * 10;    /*(2^5 - 1)/(2^2 - 1) = 31/3 = 10*/
 267:..\lvgl\lv_draw\../lv_misc/lv_color.h **** #  else
 268:..\lvgl\lv_draw\../lv_misc/lv_color.h ****     ret.red = color.red * 4;
 269:..\lvgl\lv_draw\../lv_misc/lv_color.h ****     uint8_t g_tmp = color.green * 9;
 270:..\lvgl\lv_draw\../lv_misc/lv_color.h ****     ret.green_h = (g_tmp & 0x1F) >> 3;
 271:..\lvgl\lv_draw\../lv_misc/lv_color.h ****     ret.green_l = g_tmp & 0x07;
 272:..\lvgl\lv_draw\../lv_misc/lv_color.h ****     ret.blue = color.blue * 10;
 273:..\lvgl\lv_draw\../lv_misc/lv_color.h **** #  endif
 274:..\lvgl\lv_draw\../lv_misc/lv_color.h ****     return ret.full;
 275:..\lvgl\lv_draw\../lv_misc/lv_color.h **** #elif LV_COLOR_DEPTH == 16
 276:..\lvgl\lv_draw\../lv_misc/lv_color.h ****     return color.full;
 277:..\lvgl\lv_draw\../lv_misc/lv_color.h **** #elif LV_COLOR_DEPTH == 32
 278:..\lvgl\lv_draw\../lv_misc/lv_color.h ****     lv_color16_t ret;
 279:..\lvgl\lv_draw\../lv_misc/lv_color.h **** #  if LV_COLOR_16_SWAP == 0
 280:..\lvgl\lv_draw\../lv_misc/lv_color.h ****     ret.red = color.red >> 3;       /* 8 - 5  = 3*/
 281:..\lvgl\lv_draw\../lv_misc/lv_color.h ****     ret.green = color.green >> 2;   /* 8 - 6  = 2*/
 282:..\lvgl\lv_draw\../lv_misc/lv_color.h ****     ret.blue = color.blue >> 3;     /* 8 - 5  = 3*/
 283:..\lvgl\lv_draw\../lv_misc/lv_color.h **** #  else
 284:..\lvgl\lv_draw\../lv_misc/lv_color.h ****     ret.red = color.red >> 3;
 285:..\lvgl\lv_draw\../lv_misc/lv_color.h ****     ret.green_h = (color.green & 0xE0) >> 5;
 286:..\lvgl\lv_draw\../lv_misc/lv_color.h ****     ret.green_l = (color.green & 0x1C) >> 2;
 287:..\lvgl\lv_draw\../lv_misc/lv_color.h ****     ret.blue = color.blue >> 3;
 288:..\lvgl\lv_draw\../lv_misc/lv_color.h **** #  endif
ARM GAS  C:\Users\d3bug\AppData\Local\Temp\cc5D6foa.s 			page 22


 289:..\lvgl\lv_draw\../lv_misc/lv_color.h ****     return ret.full;
 290:..\lvgl\lv_draw\../lv_misc/lv_color.h **** #endif
 291:..\lvgl\lv_draw\../lv_misc/lv_color.h **** }
 292:..\lvgl\lv_draw\../lv_misc/lv_color.h **** 
 293:..\lvgl\lv_draw\../lv_misc/lv_color.h **** static inline uint32_t lv_color_to32(lv_color_t color)
 294:..\lvgl\lv_draw\../lv_misc/lv_color.h **** {
 295:..\lvgl\lv_draw\../lv_misc/lv_color.h **** #if LV_COLOR_DEPTH == 1
 296:..\lvgl\lv_draw\../lv_misc/lv_color.h ****     if(color.full == 0) return 0;
 297:..\lvgl\lv_draw\../lv_misc/lv_color.h ****     else return 0xFFFFFFFF;
 298:..\lvgl\lv_draw\../lv_misc/lv_color.h **** #elif LV_COLOR_DEPTH == 8
 299:..\lvgl\lv_draw\../lv_misc/lv_color.h ****     lv_color32_t ret;
 300:..\lvgl\lv_draw\../lv_misc/lv_color.h ****     ret.red = color.red * 36;        /*(2^8 - 1)/(2^3 - 1) = 255/7 = 36*/
 301:..\lvgl\lv_draw\../lv_misc/lv_color.h ****     ret.green = color.green * 36;    /*(2^8 - 1)/(2^3 - 1) = 255/7 = 36*/
 302:..\lvgl\lv_draw\../lv_misc/lv_color.h ****     ret.blue = color.blue * 85;      /*(2^8 - 1)/(2^2 - 1) = 255/3 = 85*/
 303:..\lvgl\lv_draw\../lv_misc/lv_color.h ****     ret.alpha = 0xFF;
 304:..\lvgl\lv_draw\../lv_misc/lv_color.h ****     return ret.full;
 305:..\lvgl\lv_draw\../lv_misc/lv_color.h **** #elif LV_COLOR_DEPTH == 16
 306:..\lvgl\lv_draw\../lv_misc/lv_color.h **** #  if LV_COLOR_16_SWAP == 0
 307:..\lvgl\lv_draw\../lv_misc/lv_color.h ****     lv_color32_t ret;
 308:..\lvgl\lv_draw\../lv_misc/lv_color.h ****     ret.red = color.red * 8;       /*(2^8 - 1)/(2^5 - 1) = 255/31 = 8*/
 309:..\lvgl\lv_draw\../lv_misc/lv_color.h ****     ret.green = color.green * 4;   /*(2^8 - 1)/(2^6 - 1) = 255/63 = 4*/
 310:..\lvgl\lv_draw\../lv_misc/lv_color.h ****     ret.blue = color.blue * 8;     /*(2^8 - 1)/(2^5 - 1) = 255/31 = 8*/
 311:..\lvgl\lv_draw\../lv_misc/lv_color.h ****     ret.alpha = 0xFF;
 312:..\lvgl\lv_draw\../lv_misc/lv_color.h ****     return ret.full;
 313:..\lvgl\lv_draw\../lv_misc/lv_color.h **** #  else
 314:..\lvgl\lv_draw\../lv_misc/lv_color.h ****     lv_color32_t ret;
 315:..\lvgl\lv_draw\../lv_misc/lv_color.h ****     ret.red = color.red * 8;                                    /*(2^8 - 1)/(2^5 - 1) = 255/31 = 8*
 316:..\lvgl\lv_draw\../lv_misc/lv_color.h ****     ret.green = ((color.green_h << 3) + color.green_l) * 4;     /*(2^8 - 1)/(2^6 - 1) = 255/63 = 4*
 317:..\lvgl\lv_draw\../lv_misc/lv_color.h ****     ret.blue = color.blue * 8;                                   /*(2^8 - 1)/(2^5 - 1) = 255/31 = 8
 318:..\lvgl\lv_draw\../lv_misc/lv_color.h ****     ret.alpha = 0xFF;
 319:..\lvgl\lv_draw\../lv_misc/lv_color.h ****     return ret.full;
 320:..\lvgl\lv_draw\../lv_misc/lv_color.h **** #  endif
 321:..\lvgl\lv_draw\../lv_misc/lv_color.h **** #elif LV_COLOR_DEPTH == 32
 322:..\lvgl\lv_draw\../lv_misc/lv_color.h ****     return color.full;
 323:..\lvgl\lv_draw\../lv_misc/lv_color.h **** #endif
 324:..\lvgl\lv_draw\../lv_misc/lv_color.h **** }
 325:..\lvgl\lv_draw\../lv_misc/lv_color.h **** 
 326:..\lvgl\lv_draw\../lv_misc/lv_color.h **** static inline lv_color_t lv_color_mix(lv_color_t c1, lv_color_t c2, uint8_t mix)
 327:..\lvgl\lv_draw\../lv_misc/lv_color.h **** {
 328:..\lvgl\lv_draw\../lv_misc/lv_color.h ****     lv_color_t ret;
 329:..\lvgl\lv_draw\../lv_misc/lv_color.h **** #if LV_COLOR_DEPTH != 1
 330:..\lvgl\lv_draw\../lv_misc/lv_color.h ****     /*LV_COLOR_DEPTH == 8, 16 or 32*/
 331:..\lvgl\lv_draw\../lv_misc/lv_color.h ****     ret.red =   (uint16_t)((uint16_t) c1.red * mix + (c2.red * (255 - mix))) >> 8;
 332:..\lvgl\lv_draw\../lv_misc/lv_color.h **** #  if LV_COLOR_DEPTH == 16 && LV_COLOR_16_SWAP
 333:..\lvgl\lv_draw\../lv_misc/lv_color.h ****     /*If swapped Green is in 2 parts*/
 334:..\lvgl\lv_draw\../lv_misc/lv_color.h ****     uint16_t g_1 = (c1.green_h << 3) + c1.green_l;
 335:..\lvgl\lv_draw\../lv_misc/lv_color.h ****     uint16_t g_2 = (c2.green_h << 3) + c2.green_l;
 336:..\lvgl\lv_draw\../lv_misc/lv_color.h ****     uint16_t g_out = (uint16_t)((uint16_t) g_1 * mix + (g_2 * (255 - mix))) >> 8;
 337:..\lvgl\lv_draw\../lv_misc/lv_color.h ****     ret.green_h = g_out >> 3;
 338:..\lvgl\lv_draw\../lv_misc/lv_color.h ****     ret.green_l = g_out & 0x7;
 339:..\lvgl\lv_draw\../lv_misc/lv_color.h **** #  else
 340:..\lvgl\lv_draw\../lv_misc/lv_color.h ****     ret.green = (uint16_t)((uint16_t) c1.green * mix + (c2.green * (255 - mix))) >> 8;
 341:..\lvgl\lv_draw\../lv_misc/lv_color.h **** #  endif
 342:..\lvgl\lv_draw\../lv_misc/lv_color.h ****     ret.blue =  (uint16_t)((uint16_t) c1.blue * mix + (c2.blue * (255 - mix))) >> 8;
 343:..\lvgl\lv_draw\../lv_misc/lv_color.h **** # if LV_COLOR_DEPTH == 32
 344:..\lvgl\lv_draw\../lv_misc/lv_color.h ****     ret.alpha = 0xFF;
 345:..\lvgl\lv_draw\../lv_misc/lv_color.h **** # endif
ARM GAS  C:\Users\d3bug\AppData\Local\Temp\cc5D6foa.s 			page 23


 346:..\lvgl\lv_draw\../lv_misc/lv_color.h **** #else
 347:..\lvgl\lv_draw\../lv_misc/lv_color.h ****     /*LV_COLOR_DEPTH == 1*/
 348:..\lvgl\lv_draw\../lv_misc/lv_color.h ****     ret.full = mix > LV_OPA_50 ? c1.full : c2.full;
 196              		.loc 3 348 0
 197 00d0 4FFA89F9 		sxtb	r9, r9
 198              	.LVL31:
 199 00d4 B9F1000F 		cmp	r9, #0
 200 00d8 02DA     		bge	.L21
 201              	.LVL32:
 202 00da 0AF0010E 		and	lr, r10, #1
 203 00de 23E0     		b	.L14
 204              	.LVL33:
 205              	.L21:
 206 00e0 4FF0000E 		mov	lr, #0
 207              	.LVL34:
 208              	.LBE50:
 209              	.LBE49:
 630:..\lvgl\lv_draw/lv_draw_vbasic.c ****             lv_color_t opa_tmp = lv_color_mix(color, bg_tmp, opa);
 631:..\lvgl\lv_draw/lv_draw_vbasic.c **** #endif
 632:..\lvgl\lv_draw/lv_draw_vbasic.c ****             for(row = fill_area->y1; row <= fill_area->y2; row++) {
 210              		.loc 1 632 0
 211 00e4 20E0     		b	.L14
 212              	.LVL35:
 213              	.L20:
 633:..\lvgl\lv_draw/lv_draw_vbasic.c ****                 for(col = fill_area->x1; col <= fill_area->x2; col++) {
 214              		.loc 1 633 0
 215 00e6 B7F90030 		ldrsh	r3, [r7]
 216              	.LVL36:
 217 00ea 16E0     		b	.L15
 218              	.L19:
 634:..\lvgl\lv_draw/lv_draw_vbasic.c **** #if LV_COLOR_SCREEN_TRANSP == 0
 635:..\lvgl\lv_draw/lv_draw_vbasic.c ****                     /*If the bg color changed recalculate the result color*/
 636:..\lvgl\lv_draw/lv_draw_vbasic.c ****                     if(mem[col].full != bg_tmp.full) {
 219              		.loc 1 636 0
 220 00ec CE18     		adds	r6, r1, r3
 221 00ee CA5C     		ldrb	r2, [r1, r3]	@ zero_extendqisi2
 222 00f0 6A40     		eors	r2, r2, r5
 223 00f2 12F0010F 		tst	r2, #1
 224 00f6 0CD0     		beq	.L16
 637:..\lvgl\lv_draw/lv_draw_vbasic.c ****                         bg_tmp = mem[col];
 225              		.loc 1 637 0
 226 00f8 CA5C     		ldrb	r2, [r1, r3]	@ zero_extendqisi2
 227 00fa 1546     		mov	r5, r2
 228              	.LVL37:
 229              	.LBB51:
 230              	.LBB52:
 231              		.loc 3 348 0
 232 00fc B9F1000F 		cmp	r9, #0
 233 0100 02DA     		bge	.L17
 234 0102 0AF00102 		and	r2, r10, #1
 235 0106 01E0     		b	.L18
 236              	.L17:
 237 0108 02F00102 		and	r2, r2, #1
 238              	.L18:
 239 010c 62F30004 		bfi	r4, r2, #0, #1
 240 0110 A646     		mov	lr, r4
 241              	.LVL38:
ARM GAS  C:\Users\d3bug\AppData\Local\Temp\cc5D6foa.s 			page 24


 242              	.L16:
 243              	.LBE52:
 244              	.LBE51:
 638:..\lvgl\lv_draw/lv_draw_vbasic.c ****                         opa_tmp = lv_color_mix(color, bg_tmp, opa);
 639:..\lvgl\lv_draw/lv_draw_vbasic.c ****                     }
 640:..\lvgl\lv_draw/lv_draw_vbasic.c **** 
 641:..\lvgl\lv_draw/lv_draw_vbasic.c ****                     mem[col] = opa_tmp;
 245              		.loc 1 641 0 discriminator 2
 246 0112 86F800E0 		strb	lr, [r6]
 633:..\lvgl\lv_draw/lv_draw_vbasic.c **** #if LV_COLOR_SCREEN_TRANSP == 0
 247              		.loc 1 633 0 discriminator 2
 248 0116 0133     		adds	r3, r3, #1
 249              	.LVL39:
 250 0118 1BB2     		sxth	r3, r3
 251              	.LVL40:
 252              	.L15:
 633:..\lvgl\lv_draw/lv_draw_vbasic.c **** #if LV_COLOR_SCREEN_TRANSP == 0
 253              		.loc 1 633 0 is_stmt 0 discriminator 1
 254 011a B7F90420 		ldrsh	r2, [r7, #4]
 255 011e 9342     		cmp	r3, r2
 256 0120 E4DD     		ble	.L19
 642:..\lvgl\lv_draw/lv_draw_vbasic.c **** 
 643:..\lvgl\lv_draw/lv_draw_vbasic.c **** #else
 644:..\lvgl\lv_draw/lv_draw_vbasic.c ****                     mem[col] = color_mix_2_alpha(mem[col], mem[col].alpha, color, opa);
 645:..\lvgl\lv_draw/lv_draw_vbasic.c **** #endif
 646:..\lvgl\lv_draw/lv_draw_vbasic.c ****                 }
 647:..\lvgl\lv_draw/lv_draw_vbasic.c ****                 mem += mem_width;
 257              		.loc 1 647 0 is_stmt 1 discriminator 2
 258 0122 4144     		add	r1, r1, r8
 259              	.LVL41:
 632:..\lvgl\lv_draw/lv_draw_vbasic.c ****                 for(col = fill_area->x1; col <= fill_area->x2; col++) {
 260              		.loc 1 632 0 discriminator 2
 261 0124 0130     		adds	r0, r0, #1
 262              	.LVL42:
 263 0126 00B2     		sxth	r0, r0
 264              	.LVL43:
 265              	.L14:
 632:..\lvgl\lv_draw/lv_draw_vbasic.c ****                 for(col = fill_area->x1; col <= fill_area->x2; col++) {
 266              		.loc 1 632 0 is_stmt 0 discriminator 1
 267 0128 B7F90630 		ldrsh	r3, [r7, #6]
 268 012c 9842     		cmp	r0, r3
 269 012e DADD     		ble	.L20
 270              	.LVL44:
 271              	.L1:
 272              	.LBE48:
 648:..\lvgl\lv_draw/lv_draw_vbasic.c ****             }
 649:..\lvgl\lv_draw/lv_draw_vbasic.c ****         }
 650:..\lvgl\lv_draw/lv_draw_vbasic.c ****     }
 651:..\lvgl\lv_draw/lv_draw_vbasic.c **** }
 273              		.loc 1 651 0 is_stmt 1
 274 0130 05B0     		add	sp, sp, #20
 275              		.cfi_def_cfa_offset 36
 276              		@ sp needed
 277 0132 BDE8F08F 		pop	{r4, r5, r6, r7, r8, r9, r10, fp, pc}
 278              		.cfi_endproc
 279              	.LFE17:
 280              		.size	sw_color_fill, .-sw_color_fill
ARM GAS  C:\Users\d3bug\AppData\Local\Temp\cc5D6foa.s 			page 25


 281 0136 00BF     		.section	.text.sw_mem_blend,"ax",%progbits
 282              		.align	2
 283              		.thumb
 284              		.thumb_func
 285              		.type	sw_mem_blend, %function
 286              	sw_mem_blend:
 287              	.LFB16:
 571:..\lvgl\lv_draw/lv_draw_vbasic.c ****     if(opa == LV_OPA_COVER) {
 288              		.loc 1 571 0
 289              		.cfi_startproc
 290              		@ args = 0, pretend = 0, frame = 0
 291              		@ frame_needed = 0, uses_anonymous_args = 0
 292              	.LVL45:
 293 0000 F8B5     		push	{r3, r4, r5, r6, r7, lr}
 294              		.cfi_def_cfa_offset 24
 295              		.cfi_offset 3, -24
 296              		.cfi_offset 4, -20
 297              		.cfi_offset 5, -16
 298              		.cfi_offset 6, -12
 299              		.cfi_offset 7, -8
 300              		.cfi_offset 14, -4
 572:..\lvgl\lv_draw/lv_draw_vbasic.c ****         memcpy(dest, src, length * sizeof(lv_color_t));
 301              		.loc 1 572 0
 302 0002 FF2B     		cmp	r3, #255
 303 0004 13D1     		bne	.L29
 573:..\lvgl\lv_draw/lv_draw_vbasic.c ****     } else {
 304              		.loc 1 573 0
 305 0006 FFF7FEFF 		bl	memcpy
 306              	.LVL46:
 307 000a F8BD     		pop	{r3, r4, r5, r6, r7, pc}
 308              	.LVL47:
 309              	.L28:
 310              	.LBB53:
 577:..\lvgl\lv_draw/lv_draw_vbasic.c ****         }
 311              		.loc 1 577 0 discriminator 3
 312 000c 0719     		adds	r7, r0, r4
 313 000e 11F804E0 		ldrb	lr, [r1, r4]	@ zero_extendqisi2
 314 0012 055D     		ldrb	r5, [r0, r4]	@ zero_extendqisi2
 315              	.LVL48:
 316              	.LBB54:
 317              	.LBB55:
 318              		.loc 3 348 0 discriminator 3
 319 0014 13F0800F 		tst	r3, #128
 320 0018 02D0     		beq	.L26
 321              		.loc 3 348 0 is_stmt 0
 322 001a 0EF00105 		and	r5, lr, #1
 323 001e 01E0     		b	.L27
 324              	.L26:
 325 0020 05F00105 		and	r5, r5, #1
 326              	.L27:
 327 0024 65F30006 		bfi	r6, r5, #0, #1
 328              	.LVL49:
 329              	.LBE55:
 330              	.LBE54:
 577:..\lvgl\lv_draw/lv_draw_vbasic.c ****         }
 331              		.loc 1 577 0 is_stmt 1
 332 0028 3E70     		strb	r6, [r7]
ARM GAS  C:\Users\d3bug\AppData\Local\Temp\cc5D6foa.s 			page 26


 576:..\lvgl\lv_draw/lv_draw_vbasic.c ****             dest[col] = lv_color_mix(src[col], dest[col], opa);
 333              		.loc 1 576 0
 334 002a 0134     		adds	r4, r4, #1
 335              	.LVL50:
 336 002c 00E0     		b	.L24
 337              	.LVL51:
 338              	.L29:
 339              	.LBE53:
 340 002e 0024     		movs	r4, #0
 341              	.LVL52:
 342              	.L24:
 343              	.LBB56:
 576:..\lvgl\lv_draw/lv_draw_vbasic.c ****             dest[col] = lv_color_mix(src[col], dest[col], opa);
 344              		.loc 1 576 0 is_stmt 0 discriminator 1
 345 0030 9442     		cmp	r4, r2
 346 0032 EBD3     		bcc	.L28
 347 0034 F8BD     		pop	{r3, r4, r5, r6, r7, pc}
 348              	.LBE56:
 349              		.cfi_endproc
 350              	.LFE16:
 351              		.size	sw_mem_blend, .-sw_mem_blend
 352 0036 00BF     		.section	.text.lv_vpx,"ax",%progbits
 353              		.align	2
 354              		.global	lv_vpx
 355              		.thumb
 356              		.thumb_func
 357              		.type	lv_vpx, %function
 358              	lv_vpx:
 359              	.LFB12:
  68:..\lvgl\lv_draw/lv_draw_vbasic.c ****     if(opa < LV_OPA_MIN) return;
 360              		.loc 1 68 0 is_stmt 1
 361              		.cfi_startproc
 362              		@ args = 4, pretend = 0, frame = 0
 363              		@ frame_needed = 0, uses_anonymous_args = 0
 364              	.LVL53:
 365 0000 2DE9F047 		push	{r4, r5, r6, r7, r8, r9, r10, lr}
 366              		.cfi_def_cfa_offset 32
 367              		.cfi_offset 4, -32
 368              		.cfi_offset 5, -28
 369              		.cfi_offset 6, -24
 370              		.cfi_offset 7, -20
 371              		.cfi_offset 8, -16
 372              		.cfi_offset 9, -12
 373              		.cfi_offset 10, -8
 374              		.cfi_offset 14, -4
 375 0004 82B0     		sub	sp, sp, #8
 376              		.cfi_def_cfa_offset 40
 377 0006 9DF82860 		ldrb	r6, [sp, #40]	@ zero_extendqisi2
  69:..\lvgl\lv_draw/lv_draw_vbasic.c ****     if(opa > LV_OPA_MAX) opa = LV_OPA_COVER;
 378              		.loc 1 69 0
 379 000a 0F2E     		cmp	r6, #15
 380 000c 52D9     		bls	.L31
  70:..\lvgl\lv_draw/lv_draw_vbasic.c **** 
 381              		.loc 1 70 0
 382 000e FB2E     		cmp	r6, #251
 383 0010 00D9     		bls	.L33
 384 0012 FF26     		movs	r6, #255
ARM GAS  C:\Users\d3bug\AppData\Local\Temp\cc5D6foa.s 			page 27


 385              	.L33:
 386 0014 1F46     		mov	r7, r3
 387 0016 1446     		mov	r4, r2
 388 0018 8846     		mov	r8, r1
 389 001a 0546     		mov	r5, r0
 390              	.LVL54:
  72:..\lvgl\lv_draw/lv_draw_vbasic.c ****     if(!vdb_p) {
 391              		.loc 1 72 0
 392 001c FFF7FEFF 		bl	lv_vdb_get
 393              	.LVL55:
  73:..\lvgl\lv_draw/lv_draw_vbasic.c ****         LV_LOG_WARN("Invalid VDB pointer");
 394              		.loc 1 73 0
 395 0020 8146     		mov	r9, r0
 396 0022 30B9     		cbnz	r0, .L34
  74:..\lvgl\lv_draw/lv_draw_vbasic.c ****         return;
 397              		.loc 1 74 0
 398 0024 254B     		ldr	r3, .L41
 399 0026 4A22     		movs	r2, #74
 400 0028 2549     		ldr	r1, .L41+4
 401 002a 0220     		movs	r0, #2
 402              	.LVL56:
 403 002c FFF7FEFF 		bl	lv_log_add
 404              	.LVL57:
  75:..\lvgl\lv_draw/lv_draw_vbasic.c ****     }
 405              		.loc 1 75 0
 406 0030 40E0     		b	.L31
 407              	.LVL58:
 408              	.L34:
  79:..\lvgl\lv_draw/lv_draw_vbasic.c ****             y < mask_p->y1 || y > mask_p->y2) {
 409              		.loc 1 79 0
 410 0032 B4F90030 		ldrsh	r3, [r4]
 411 0036 AB42     		cmp	r3, r5
 412 0038 3CDC     		bgt	.L31
  79:..\lvgl\lv_draw/lv_draw_vbasic.c ****             y < mask_p->y1 || y > mask_p->y2) {
 413              		.loc 1 79 0 is_stmt 0 discriminator 1
 414 003a B4F90430 		ldrsh	r3, [r4, #4]
 415 003e 9D42     		cmp	r5, r3
 416 0040 38DC     		bgt	.L31
  80:..\lvgl\lv_draw/lv_draw_vbasic.c ****         return;
 417              		.loc 1 80 0 is_stmt 1 discriminator 2
 418 0042 B4F90230 		ldrsh	r3, [r4, #2]
  79:..\lvgl\lv_draw/lv_draw_vbasic.c ****             y < mask_p->y1 || y > mask_p->y2) {
 419              		.loc 1 79 0 discriminator 2
 420 0046 4345     		cmp	r3, r8
 421 0048 34DC     		bgt	.L31
  80:..\lvgl\lv_draw/lv_draw_vbasic.c ****         return;
 422              		.loc 1 80 0
 423 004a B4F90630 		ldrsh	r3, [r4, #6]
 424 004e 9845     		cmp	r8, r3
 425 0050 30DC     		bgt	.L31
 426              	.LVL59:
 427              	.LBB57:
 428              	.LBB58:
 429              		.loc 2 77 0
 430 0052 B0F904A0 		ldrsh	r10, [r0, #4]
 431 0056 0288     		ldrh	r2, [r0]
 432 0058 C2EB0A0A 		rsb	r10, r2, r10
ARM GAS  C:\Users\d3bug\AppData\Local\Temp\cc5D6foa.s 			page 28


 433 005c 0AF1010A 		add	r10, r10, #1
 434 0060 0FFA8AFA 		sxth	r10, r10
 435              	.LVL60:
 436              	.LBE58:
 437              	.LBE57:
  87:..\lvgl\lv_draw/lv_draw_vbasic.c ****     y -= vdb_p->area.y1;
 438              		.loc 1 87 0
 439 0064 AA1A     		subs	r2, r5, r2
 440 0066 14B2     		sxth	r4, r2
 441              	.LVL61:
  88:..\lvgl\lv_draw/lv_draw_vbasic.c **** 
 442              		.loc 1 88 0
 443 0068 B0F90210 		ldrsh	r1, [r0, #2]
 444 006c C1EB0801 		rsb	r1, r1, r8
 445 0070 0FFA81F8 		sxth	r8, r1
 446              	.LVL62:
  90:..\lvgl\lv_draw/lv_draw_vbasic.c ****     if(disp->driver.vdb_wr) {
 447              		.loc 1 90 0
 448 0074 FFF7FEFF 		bl	lv_disp_get_active
 449              	.LVL63:
  91:..\lvgl\lv_draw/lv_draw_vbasic.c ****         disp->driver.vdb_wr((uint8_t *)vdb_p->buf, vdb_width, x, y, color, opa);
 450              		.loc 1 91 0
 451 0078 C568     		ldr	r5, [r0, #12]
 452 007a 4DB1     		cbz	r5, .L35
  92:..\lvgl\lv_draw/lv_draw_vbasic.c ****     } else {
 453              		.loc 1 92 0
 454 007c D9F80800 		ldr	r0, [r9, #8]
 455              	.LVL64:
 456 0080 0196     		str	r6, [sp, #4]
 457              	.LVL65:
 458 0082 8DF80070 		strb	r7, [sp]
 459 0086 4346     		mov	r3, r8
 460 0088 2246     		mov	r2, r4
 461 008a 5146     		mov	r1, r10
 462 008c A847     		blx	r5
 463              	.LVL66:
 464 008e 11E0     		b	.L31
 465              	.LVL67:
 466              	.L35:
 467              	.LBB59:
  94:..\lvgl\lv_draw/lv_draw_vbasic.c **** #if LV_COLOR_SCREEN_TRANSP == 0
 468              		.loc 1 94 0
 469 0090 D9F80820 		ldr	r2, [r9, #8]
 470 0094 08FB0A44 		mla	r4, r8, r10, r4
 471              	.LVL68:
  96:..\lvgl\lv_draw/lv_draw_vbasic.c ****             *vdb_px_p = color;
 472              		.loc 1 96 0
 473 0098 FF2E     		cmp	r6, #255
 474 009a 01D1     		bne	.L36
 475              	.LVL69:
  97:..\lvgl\lv_draw/lv_draw_vbasic.c ****         } else {
 476              		.loc 1 97 0
 477 009c 1755     		strb	r7, [r2, r4]
 478 009e 09E0     		b	.L31
 479              	.LVL70:
 480              	.L36:
 481 00a0 135D     		ldrb	r3, [r2, r4]	@ zero_extendqisi2
ARM GAS  C:\Users\d3bug\AppData\Local\Temp\cc5D6foa.s 			page 29


 482              	.LVL71:
 483              	.LBB60:
 484              	.LBB61:
 485              		.loc 3 348 0
 486 00a2 16F0800F 		tst	r6, #128
 487 00a6 02D0     		beq	.L37
 488              	.LVL72:
 489 00a8 07F00107 		and	r7, r7, #1
 490              	.LVL73:
 491 00ac 01E0     		b	.L38
 492              	.L37:
 493 00ae 03F00107 		and	r7, r3, #1
 494              	.L38:
 495              	.LVL74:
 496              	.LBE61:
 497              	.LBE60:
  99:..\lvgl\lv_draw/lv_draw_vbasic.c ****         }
 498              		.loc 1 99 0
 499 00b2 1755     		strb	r7, [r2, r4]
 500              	.LVL75:
 501              	.L31:
 502              	.LBE59:
 105:..\lvgl\lv_draw/lv_draw_vbasic.c **** 
 503              		.loc 1 105 0
 504 00b4 02B0     		add	sp, sp, #8
 505              		.cfi_def_cfa_offset 32
 506              		@ sp needed
 507 00b6 BDE8F087 		pop	{r4, r5, r6, r7, r8, r9, r10, pc}
 508              	.LVL76:
 509              	.L42:
 510 00ba 00BF     		.align	2
 511              	.L41:
 512 00bc 00000000 		.word	.LC2
 513 00c0 14000000 		.word	.LC3
 514              		.cfi_endproc
 515              	.LFE12:
 516              		.size	lv_vpx, .-lv_vpx
 517              		.section	.text.lv_vfill,"ax",%progbits
 518              		.align	2
 519              		.global	lv_vfill
 520              		.thumb
 521              		.thumb_func
 522              		.type	lv_vfill, %function
 523              	lv_vfill:
 524              	.LFB13:
 117:..\lvgl\lv_draw/lv_draw_vbasic.c ****     if(opa < LV_OPA_MIN) return;
 525              		.loc 1 117 0
 526              		.cfi_startproc
 527              		@ args = 0, pretend = 0, frame = 16
 528              		@ frame_needed = 0, uses_anonymous_args = 0
 529              	.LVL77:
 118:..\lvgl\lv_draw/lv_draw_vbasic.c ****     if(opa > LV_OPA_MAX) opa = LV_OPA_COVER;
 530              		.loc 1 118 0
 531 0000 0F2B     		cmp	r3, #15
 532 0002 41D9     		bls	.L50
 117:..\lvgl\lv_draw/lv_draw_vbasic.c ****     if(opa < LV_OPA_MIN) return;
 533              		.loc 1 117 0
ARM GAS  C:\Users\d3bug\AppData\Local\Temp\cc5D6foa.s 			page 30


 534 0004 2DE9F041 		push	{r4, r5, r6, r7, r8, lr}
 535              		.cfi_def_cfa_offset 24
 536              		.cfi_offset 4, -24
 537              		.cfi_offset 5, -20
 538              		.cfi_offset 6, -16
 539              		.cfi_offset 7, -12
 540              		.cfi_offset 8, -8
 541              		.cfi_offset 14, -4
 542 0008 86B0     		sub	sp, sp, #24
 543              		.cfi_def_cfa_offset 48
 544 000a 0546     		mov	r5, r0
 545 000c 0E46     		mov	r6, r1
 546 000e 1746     		mov	r7, r2
 547 0010 1C46     		mov	r4, r3
 119:..\lvgl\lv_draw/lv_draw_vbasic.c **** 
 548              		.loc 1 119 0
 549 0012 FB2B     		cmp	r3, #251
 550 0014 00D9     		bls	.L45
 551 0016 FF24     		movs	r4, #255
 552              	.L45:
 553              	.LVL78:
 123:..\lvgl\lv_draw/lv_draw_vbasic.c ****     if(!vdb_p) {
 554              		.loc 1 123 0
 555 0018 FFF7FEFF 		bl	lv_vdb_get
 556              	.LVL79:
 124:..\lvgl\lv_draw/lv_draw_vbasic.c ****         LV_LOG_WARN("Invalid VDB pointer");
 557              		.loc 1 124 0
 558 001c 8046     		mov	r8, r0
 559 001e 30B9     		cbnz	r0, .L46
 125:..\lvgl\lv_draw/lv_draw_vbasic.c ****         return;
 560              		.loc 1 125 0
 561 0020 1A4B     		ldr	r3, .L51
 562 0022 7D22     		movs	r2, #125
 563 0024 1A49     		ldr	r1, .L51+4
 564 0026 0220     		movs	r0, #2
 565              	.LVL80:
 566 0028 FFF7FEFF 		bl	lv_log_add
 567              	.LVL81:
 126:..\lvgl\lv_draw/lv_draw_vbasic.c ****     }
 568              		.loc 1 126 0
 569 002c 29E0     		b	.L43
 570              	.LVL82:
 571              	.L46:
 132:..\lvgl\lv_draw/lv_draw_vbasic.c **** 
 572              		.loc 1 132 0
 573 002e 3246     		mov	r2, r6
 574 0030 2946     		mov	r1, r5
 575 0032 04A8     		add	r0, sp, #16
 576              	.LVL83:
 577 0034 FFF7FEFF 		bl	lv_area_intersect
 578              	.LVL84:
 135:..\lvgl\lv_draw/lv_draw_vbasic.c **** 
 579              		.loc 1 135 0
 580 0038 18B3     		cbz	r0, .L43
 138:..\lvgl\lv_draw/lv_draw_vbasic.c ****     vdb_rel_a.y1 = res_a.y1 - vdb_p->area.y1;
 581              		.loc 1 138 0
 582 003a BDF91030 		ldrsh	r3, [sp, #16]
ARM GAS  C:\Users\d3bug\AppData\Local\Temp\cc5D6foa.s 			page 31


 583 003e B8F90020 		ldrsh	r2, [r8]
 584 0042 9B1A     		subs	r3, r3, r2
 585 0044 ADF80830 		strh	r3, [sp, #8]	@ movhi
 139:..\lvgl\lv_draw/lv_draw_vbasic.c ****     vdb_rel_a.x2 = res_a.x2 - vdb_p->area.x1;
 586              		.loc 1 139 0
 587 0048 BDF91230 		ldrsh	r3, [sp, #18]
 588 004c B8F90220 		ldrsh	r2, [r8, #2]
 589 0050 9B1A     		subs	r3, r3, r2
 590 0052 ADF80A30 		strh	r3, [sp, #10]	@ movhi
 140:..\lvgl\lv_draw/lv_draw_vbasic.c ****     vdb_rel_a.y2 = res_a.y2 - vdb_p->area.y1;
 591              		.loc 1 140 0
 592 0056 BDF91430 		ldrsh	r3, [sp, #20]
 593 005a B8F90020 		ldrsh	r2, [r8]
 594 005e 9B1A     		subs	r3, r3, r2
 595 0060 ADF80C30 		strh	r3, [sp, #12]	@ movhi
 141:..\lvgl\lv_draw/lv_draw_vbasic.c **** 
 596              		.loc 1 141 0
 597 0064 BDF91630 		ldrsh	r3, [sp, #22]
 598 0068 B8F90220 		ldrsh	r2, [r8, #2]
 599 006c 9B1A     		subs	r3, r3, r2
 600 006e ADF80E30 		strh	r3, [sp, #14]	@ movhi
 143:..\lvgl\lv_draw/lv_draw_vbasic.c ****     uint32_t vdb_width = lv_area_get_width(&vdb_p->area);
 601              		.loc 1 143 0
 602 0072 D8F80810 		ldr	r1, [r8, #8]
 603              	.LVL85:
 220:..\lvgl\lv_draw/lv_draw_vbasic.c **** #endif
 604              		.loc 1 220 0
 605 0076 0094     		str	r4, [sp]
 606              	.LVL86:
 607 0078 3B46     		mov	r3, r7
 608 007a 02AA     		add	r2, sp, #8
 609 007c 4046     		mov	r0, r8
 610              	.LVL87:
 611 007e FFF7FEFF 		bl	sw_color_fill
 612              	.LVL88:
 613              	.L43:
 222:..\lvgl\lv_draw/lv_draw_vbasic.c **** 
 614              		.loc 1 222 0
 615 0082 06B0     		add	sp, sp, #24
 616              		.cfi_def_cfa_offset 24
 617              		@ sp needed
 618 0084 BDE8F081 		pop	{r4, r5, r6, r7, r8, pc}
 619              	.LVL89:
 620              	.L50:
 621              		.cfi_def_cfa_offset 0
 622              		.cfi_restore 4
 623              		.cfi_restore 5
 624              		.cfi_restore 6
 625              		.cfi_restore 7
 626              		.cfi_restore 8
 627              		.cfi_restore 14
 628 0088 7047     		bx	lr
 629              	.L52:
 630 008a 00BF     		.align	2
 631              	.L51:
 632 008c 00000000 		.word	.LC2
 633 0090 14000000 		.word	.LC3
ARM GAS  C:\Users\d3bug\AppData\Local\Temp\cc5D6foa.s 			page 32


 634              		.cfi_endproc
 635              	.LFE13:
 636              		.size	lv_vfill, .-lv_vfill
 637              		.section	.text.lv_vletter,"ax",%progbits
 638              		.align	2
 639              		.global	lv_vletter
 640              		.thumb
 641              		.thumb_func
 642              		.type	lv_vletter, %function
 643              	lv_vletter:
 644              	.LFB14:
 236:..\lvgl\lv_draw/lv_draw_vbasic.c ****     const uint8_t bpp1_opa_table[2] =  {0, 255};                   /*Opacity mapping with bpp = 1 (
 645              		.loc 1 236 0
 646              		.cfi_startproc
 647              		@ args = 8, pretend = 0, frame = 112
 648              		@ frame_needed = 0, uses_anonymous_args = 0
 649              	.LVL90:
 650 0000 2DE9F04F 		push	{r4, r5, r6, r7, r8, r9, r10, fp, lr}
 651              		.cfi_def_cfa_offset 36
 652              		.cfi_offset 4, -36
 653              		.cfi_offset 5, -32
 654              		.cfi_offset 6, -28
 655              		.cfi_offset 7, -24
 656              		.cfi_offset 8, -20
 657              		.cfi_offset 9, -16
 658              		.cfi_offset 10, -12
 659              		.cfi_offset 11, -8
 660              		.cfi_offset 14, -4
 661 0004 9FB0     		sub	sp, sp, #124
 662              		.cfi_def_cfa_offset 160
 663 0006 8646     		mov	lr, r0
 664 0008 0D46     		mov	r5, r1
 665 000a 1446     		mov	r4, r2
 666 000c 1F46     		mov	r7, r3
 667 000e 9DF8A030 		ldrb	r3, [sp, #160]	@ zero_extendqisi2
 668              	.LVL91:
 669 0012 8DF81030 		strb	r3, [sp, #16]
 670 0016 9DF8A4B0 		ldrb	fp, [sp, #164]	@ zero_extendqisi2
 237:..\lvgl\lv_draw/lv_draw_vbasic.c ****     const uint8_t bpp2_opa_table[4] =  {0, 85, 170, 255};          /*Opacity mapping with bpp = 2*/
 671              		.loc 1 237 0
 672 001a 0023     		movs	r3, #0
 673 001c 8DF87430 		strb	r3, [sp, #116]
 674 0020 FF23     		movs	r3, #255
 675 0022 8DF87530 		strb	r3, [sp, #117]
 238:..\lvgl\lv_draw/lv_draw_vbasic.c ****     const uint8_t bpp4_opa_table[16] = {0,   17,  34,  51,         /*Opacity mapping with bpp = 4*/
 676              		.loc 1 238 0
 677 0026 AD4B     		ldr	r3, .L91
 678 0028 1868     		ldr	r0, [r3]	@ unaligned
 679              	.LVL92:
 680 002a 1C90     		str	r0, [sp, #112]	@ unaligned
 239:..\lvgl\lv_draw/lv_draw_vbasic.c ****                                         68,  85,  102, 119,
 681              		.loc 1 239 0
 682 002c 18AE     		add	r6, sp, #96
 683 002e 53F8040F 		ldr	r0, [r3, #4]!	@ unaligned
 684 0032 5968     		ldr	r1, [r3, #4]	@ unaligned
 685              	.LVL93:
 686 0034 9A68     		ldr	r2, [r3, #8]	@ unaligned
ARM GAS  C:\Users\d3bug\AppData\Local\Temp\cc5D6foa.s 			page 33


 687              	.LVL94:
 688 0036 DB68     		ldr	r3, [r3, #12]	@ unaligned
 689 0038 0FC6     		stmia	r6!, {r0, r1, r2, r3}
 244:..\lvgl\lv_draw/lv_draw_vbasic.c ****     if(opa > LV_OPA_MAX) opa = LV_OPA_COVER;
 690              		.loc 1 244 0
 691 003a BBF10F0F 		cmp	fp, #15
 692 003e 40F28B81 		bls	.L53
 245:..\lvgl\lv_draw/lv_draw_vbasic.c **** 
 693              		.loc 1 245 0
 694 0042 BBF1FB0F 		cmp	fp, #251
 695 0046 01D9     		bls	.L55
 696 0048 4FF0FF0B 		mov	fp, #255
 697              	.L55:
 698              	.LVL95:
 247:..\lvgl\lv_draw/lv_draw_vbasic.c ****         LV_LOG_WARN("Font: character's bitmap not found");
 699              		.loc 1 247 0
 700 004c 34B9     		cbnz	r4, .L56
 248:..\lvgl\lv_draw/lv_draw_vbasic.c ****         return;
 701              		.loc 1 248 0
 702 004e A44B     		ldr	r3, .L91+4
 703 0050 F822     		movs	r2, #248
 704 0052 A449     		ldr	r1, .L91+8
 705 0054 0220     		movs	r0, #2
 706 0056 FFF7FEFF 		bl	lv_log_add
 707              	.LVL96:
 249:..\lvgl\lv_draw/lv_draw_vbasic.c ****     }
 708              		.loc 1 249 0
 709 005a 7DE1     		b	.L53
 710              	.LVL97:
 711              	.L56:
 252:..\lvgl\lv_draw/lv_draw_vbasic.c ****     lv_coord_t pos_y = pos_p->y;
 712              		.loc 1 252 0
 713 005c BEF90030 		ldrsh	r3, [lr]
 714 0060 0693     		str	r3, [sp, #24]
 715              	.LVL98:
 253:..\lvgl\lv_draw/lv_draw_vbasic.c ****     uint8_t letter_w = lv_font_get_real_width(font_p, letter);
 716              		.loc 1 253 0
 717 0062 BEF90230 		ldrsh	r3, [lr, #2]
 718 0066 0993     		str	r3, [sp, #36]
 719              	.LVL99:
 254:..\lvgl\lv_draw/lv_draw_vbasic.c ****     uint8_t letter_h = lv_font_get_height(font_p);
 720              		.loc 1 254 0
 721 0068 3946     		mov	r1, r7
 722 006a 2046     		mov	r0, r4
 723 006c FFF7FEFF 		bl	lv_font_get_real_width
 724              	.LVL100:
 725 0070 8046     		mov	r8, r0
 726              	.LVL101:
 727              	.LBB62:
 728              	.LBB63:
 729              		.file 4 "..\\lvgl\\lv_draw\\../lv_misc/lv_font.h"
   1:..\lvgl\lv_draw\../lv_misc/lv_font.h **** /**
   2:..\lvgl\lv_draw\../lv_misc/lv_font.h ****  * @file lv_font.h
   3:..\lvgl\lv_draw\../lv_misc/lv_font.h ****  *
   4:..\lvgl\lv_draw\../lv_misc/lv_font.h ****  */
   5:..\lvgl\lv_draw\../lv_misc/lv_font.h **** 
   6:..\lvgl\lv_draw\../lv_misc/lv_font.h **** #ifndef LV_FONT_H
ARM GAS  C:\Users\d3bug\AppData\Local\Temp\cc5D6foa.s 			page 34


   7:..\lvgl\lv_draw\../lv_misc/lv_font.h **** #define LV_FONT_H
   8:..\lvgl\lv_draw\../lv_misc/lv_font.h **** 
   9:..\lvgl\lv_draw\../lv_misc/lv_font.h **** #ifdef __cplusplus
  10:..\lvgl\lv_draw\../lv_misc/lv_font.h **** extern "C" {
  11:..\lvgl\lv_draw\../lv_misc/lv_font.h **** #endif
  12:..\lvgl\lv_draw\../lv_misc/lv_font.h **** 
  13:..\lvgl\lv_draw\../lv_misc/lv_font.h **** 
  14:..\lvgl\lv_draw\../lv_misc/lv_font.h **** /*********************
  15:..\lvgl\lv_draw\../lv_misc/lv_font.h ****  *      INCLUDES
  16:..\lvgl\lv_draw\../lv_misc/lv_font.h ****  *********************/
  17:..\lvgl\lv_draw\../lv_misc/lv_font.h **** #ifdef LV_CONF_INCLUDE_SIMPLE
  18:..\lvgl\lv_draw\../lv_misc/lv_font.h **** #include "lv_conf.h"
  19:..\lvgl\lv_draw\../lv_misc/lv_font.h **** #else
  20:..\lvgl\lv_draw\../lv_misc/lv_font.h **** #include "../../lv_conf.h"
  21:..\lvgl\lv_draw\../lv_misc/lv_font.h **** #endif
  22:..\lvgl\lv_draw\../lv_misc/lv_font.h **** 
  23:..\lvgl\lv_draw\../lv_misc/lv_font.h **** #include <stdint.h>
  24:..\lvgl\lv_draw\../lv_misc/lv_font.h **** #include <stddef.h>
  25:..\lvgl\lv_draw\../lv_misc/lv_font.h **** #include <stdbool.h>
  26:..\lvgl\lv_draw\../lv_misc/lv_font.h **** 
  27:..\lvgl\lv_draw\../lv_misc/lv_font.h **** #include "lv_symbol_def.h"
  28:..\lvgl\lv_draw\../lv_misc/lv_font.h **** 
  29:..\lvgl\lv_draw\../lv_misc/lv_font.h **** /*********************
  30:..\lvgl\lv_draw\../lv_misc/lv_font.h ****  *      DEFINES
  31:..\lvgl\lv_draw\../lv_misc/lv_font.h ****  *********************/
  32:..\lvgl\lv_draw\../lv_misc/lv_font.h **** 
  33:..\lvgl\lv_draw\../lv_misc/lv_font.h **** /**********************
  34:..\lvgl\lv_draw\../lv_misc/lv_font.h ****  *      TYPEDEFS
  35:..\lvgl\lv_draw\../lv_misc/lv_font.h ****  **********************/
  36:..\lvgl\lv_draw\../lv_misc/lv_font.h **** 
  37:..\lvgl\lv_draw\../lv_misc/lv_font.h **** typedef struct
  38:..\lvgl\lv_draw\../lv_misc/lv_font.h **** {
  39:..\lvgl\lv_draw\../lv_misc/lv_font.h ****     uint32_t w_px         :8;
  40:..\lvgl\lv_draw\../lv_misc/lv_font.h ****     uint32_t glyph_index  :24;
  41:..\lvgl\lv_draw\../lv_misc/lv_font.h **** } lv_font_glyph_dsc_t;
  42:..\lvgl\lv_draw\../lv_misc/lv_font.h **** 
  43:..\lvgl\lv_draw\../lv_misc/lv_font.h **** typedef struct
  44:..\lvgl\lv_draw\../lv_misc/lv_font.h **** {
  45:..\lvgl\lv_draw\../lv_misc/lv_font.h ****     uint32_t unicode         :21;
  46:..\lvgl\lv_draw\../lv_misc/lv_font.h ****     uint32_t glyph_dsc_index :11;
  47:..\lvgl\lv_draw\../lv_misc/lv_font.h **** } lv_font_unicode_map_t;
  48:..\lvgl\lv_draw\../lv_misc/lv_font.h **** 
  49:..\lvgl\lv_draw\../lv_misc/lv_font.h **** typedef struct _lv_font_struct
  50:..\lvgl\lv_draw\../lv_misc/lv_font.h **** {
  51:..\lvgl\lv_draw\../lv_misc/lv_font.h ****     uint32_t unicode_first;
  52:..\lvgl\lv_draw\../lv_misc/lv_font.h ****     uint32_t unicode_last;
  53:..\lvgl\lv_draw\../lv_misc/lv_font.h ****     const uint8_t * glyph_bitmap;
  54:..\lvgl\lv_draw\../lv_misc/lv_font.h ****     const lv_font_glyph_dsc_t * glyph_dsc;
  55:..\lvgl\lv_draw\../lv_misc/lv_font.h ****     const uint32_t * unicode_list;
  56:..\lvgl\lv_draw\../lv_misc/lv_font.h ****     const uint8_t * (*get_bitmap)(const struct _lv_font_struct *,uint32_t);     /*Get a glyph's  bi
  57:..\lvgl\lv_draw\../lv_misc/lv_font.h ****     int16_t (*get_width)(const struct _lv_font_struct *,uint32_t);        /*Get a glyph's with with
  58:..\lvgl\lv_draw\../lv_misc/lv_font.h ****     struct _lv_font_struct * next_page;    /*Pointer to a font extension*/
  59:..\lvgl\lv_draw\../lv_misc/lv_font.h ****     uint32_t h_px       :8;
  60:..\lvgl\lv_draw\../lv_misc/lv_font.h ****     uint32_t bpp        :4;                /*Bit per pixel: 1, 2 or 4*/
  61:..\lvgl\lv_draw\../lv_misc/lv_font.h ****     uint32_t monospace  :8;                /*Fix width (0: normal width)*/
  62:..\lvgl\lv_draw\../lv_misc/lv_font.h ****     uint16_t glyph_cnt;                    /*Number of glyphs (letters) in the font*/
  63:..\lvgl\lv_draw\../lv_misc/lv_font.h **** } lv_font_t;
ARM GAS  C:\Users\d3bug\AppData\Local\Temp\cc5D6foa.s 			page 35


  64:..\lvgl\lv_draw\../lv_misc/lv_font.h **** 
  65:..\lvgl\lv_draw\../lv_misc/lv_font.h **** /**********************
  66:..\lvgl\lv_draw\../lv_misc/lv_font.h ****  * GLOBAL PROTOTYPES
  67:..\lvgl\lv_draw\../lv_misc/lv_font.h ****  **********************/
  68:..\lvgl\lv_draw\../lv_misc/lv_font.h **** 
  69:..\lvgl\lv_draw\../lv_misc/lv_font.h **** /**
  70:..\lvgl\lv_draw\../lv_misc/lv_font.h ****  * Initialize the fonts
  71:..\lvgl\lv_draw\../lv_misc/lv_font.h ****  */
  72:..\lvgl\lv_draw\../lv_misc/lv_font.h **** void lv_font_init(void);
  73:..\lvgl\lv_draw\../lv_misc/lv_font.h **** 
  74:..\lvgl\lv_draw\../lv_misc/lv_font.h **** /**
  75:..\lvgl\lv_draw\../lv_misc/lv_font.h ****  * Add a font to an other to extend the character set.
  76:..\lvgl\lv_draw\../lv_misc/lv_font.h ****  * @param child the font to add
  77:..\lvgl\lv_draw\../lv_misc/lv_font.h ****  * @param parent this font will be extended. Using it later will contain the characters from `child
  78:..\lvgl\lv_draw\../lv_misc/lv_font.h ****  */
  79:..\lvgl\lv_draw\../lv_misc/lv_font.h **** void lv_font_add(lv_font_t *child, lv_font_t *parent);
  80:..\lvgl\lv_draw\../lv_misc/lv_font.h **** 
  81:..\lvgl\lv_draw\../lv_misc/lv_font.h **** /**
  82:..\lvgl\lv_draw\../lv_misc/lv_font.h ****  * Remove a font from a character set.
  83:..\lvgl\lv_draw\../lv_misc/lv_font.h ****  * @param child the font to remove
  84:..\lvgl\lv_draw\../lv_misc/lv_font.h ****  * @param parent remove `child` from here
  85:..\lvgl\lv_draw\../lv_misc/lv_font.h ****  */
  86:..\lvgl\lv_draw\../lv_misc/lv_font.h **** void lv_font_remove(lv_font_t * child, lv_font_t * parent);
  87:..\lvgl\lv_draw\../lv_misc/lv_font.h **** 
  88:..\lvgl\lv_draw\../lv_misc/lv_font.h **** /**
  89:..\lvgl\lv_draw\../lv_misc/lv_font.h ****  * Tells if font which contains `letter` is monospace or not
  90:..\lvgl\lv_draw\../lv_misc/lv_font.h ****  * @param font_p point to font
  91:..\lvgl\lv_draw\../lv_misc/lv_font.h ****  * @param letter an UNICODE character code
  92:..\lvgl\lv_draw\../lv_misc/lv_font.h ****  * @return true: the letter is monospace; false not monospace
  93:..\lvgl\lv_draw\../lv_misc/lv_font.h ****  */
  94:..\lvgl\lv_draw\../lv_misc/lv_font.h **** bool lv_font_is_monospace(const lv_font_t * font_p, uint32_t letter);
  95:..\lvgl\lv_draw\../lv_misc/lv_font.h **** 
  96:..\lvgl\lv_draw\../lv_misc/lv_font.h **** /**
  97:..\lvgl\lv_draw\../lv_misc/lv_font.h ****  * Return with the bitmap of a font.
  98:..\lvgl\lv_draw\../lv_misc/lv_font.h ****  * @param font_p pointer to a font
  99:..\lvgl\lv_draw\../lv_misc/lv_font.h ****  * @param letter an UNICODE character code
 100:..\lvgl\lv_draw\../lv_misc/lv_font.h ****  * @return  pointer to the bitmap of the letter
 101:..\lvgl\lv_draw\../lv_misc/lv_font.h ****  */
 102:..\lvgl\lv_draw\../lv_misc/lv_font.h **** const uint8_t * lv_font_get_bitmap(const lv_font_t * font_p, uint32_t letter);
 103:..\lvgl\lv_draw\../lv_misc/lv_font.h **** 
 104:..\lvgl\lv_draw\../lv_misc/lv_font.h **** /**
 105:..\lvgl\lv_draw\../lv_misc/lv_font.h ****  * Get the width of a letter in a font. If `monospace` is set then return with it.
 106:..\lvgl\lv_draw\../lv_misc/lv_font.h ****  * @param font_p pointer to a font
 107:..\lvgl\lv_draw\../lv_misc/lv_font.h ****  * @param letter an UNICODE character code
 108:..\lvgl\lv_draw\../lv_misc/lv_font.h ****  * @return the width of a letter
 109:..\lvgl\lv_draw\../lv_misc/lv_font.h ****  */
 110:..\lvgl\lv_draw\../lv_misc/lv_font.h **** uint8_t lv_font_get_width(const lv_font_t * font_p, uint32_t letter);
 111:..\lvgl\lv_draw\../lv_misc/lv_font.h **** 
 112:..\lvgl\lv_draw\../lv_misc/lv_font.h **** 
 113:..\lvgl\lv_draw\../lv_misc/lv_font.h **** /**
 114:..\lvgl\lv_draw\../lv_misc/lv_font.h ****  * Get the width of the letter without overwriting it with the `monospace` attribute
 115:..\lvgl\lv_draw\../lv_misc/lv_font.h ****  * @param font_p pointer to a font
 116:..\lvgl\lv_draw\../lv_misc/lv_font.h ****  * @param letter an UNICODE character code
 117:..\lvgl\lv_draw\../lv_misc/lv_font.h ****  * @return the width of a letter
 118:..\lvgl\lv_draw\../lv_misc/lv_font.h ****  */
 119:..\lvgl\lv_draw\../lv_misc/lv_font.h **** uint8_t lv_font_get_real_width(const lv_font_t * font_p, uint32_t letter);
 120:..\lvgl\lv_draw\../lv_misc/lv_font.h **** 
ARM GAS  C:\Users\d3bug\AppData\Local\Temp\cc5D6foa.s 			page 36


 121:..\lvgl\lv_draw\../lv_misc/lv_font.h **** /**
 122:..\lvgl\lv_draw\../lv_misc/lv_font.h ****  * Get the height of a font
 123:..\lvgl\lv_draw\../lv_misc/lv_font.h ****  * @param font_p pointer to a font
 124:..\lvgl\lv_draw\../lv_misc/lv_font.h ****  * @return the height of a font
 125:..\lvgl\lv_draw\../lv_misc/lv_font.h ****  */
 126:..\lvgl\lv_draw\../lv_misc/lv_font.h **** static inline uint8_t lv_font_get_height(const lv_font_t * font_p)
 127:..\lvgl\lv_draw\../lv_misc/lv_font.h **** {
 128:..\lvgl\lv_draw\../lv_misc/lv_font.h ****     return font_p->h_px;
 730              		.loc 4 128 0
 731 0072 94F82060 		ldrb	r6, [r4, #32]	@ zero_extendqisi2
 732              	.LVL102:
 733              	.LBE63:
 734              	.LBE62:
 256:..\lvgl\lv_draw/lv_draw_vbasic.c ****     const uint8_t * bpp_opa_table;
 735              		.loc 1 256 0
 736 0076 3946     		mov	r1, r7
 737 0078 2046     		mov	r0, r4
 738 007a FFF7FEFF 		bl	lv_font_get_bpp
 739              	.LVL103:
 740 007e 0390     		str	r0, [sp, #12]
 741              	.LVL104:
 261:..\lvgl\lv_draw/lv_draw_vbasic.c ****         pos_x += (lv_font_get_width(font_p, letter) - letter_w) / 2;
 742              		.loc 1 261 0
 743 0080 3946     		mov	r1, r7
 744 0082 2046     		mov	r0, r4
 745 0084 FFF7FEFF 		bl	lv_font_is_monospace
 746              	.LVL105:
 747 0088 60B1     		cbz	r0, .L57
 262:..\lvgl\lv_draw/lv_draw_vbasic.c ****     }
 748              		.loc 1 262 0
 749 008a 3946     		mov	r1, r7
 750 008c 2046     		mov	r0, r4
 751 008e FFF7FEFF 		bl	lv_font_get_width
 752              	.LVL106:
 753 0092 C8EB0000 		rsb	r0, r8, r0
 754 0096 00EBD070 		add	r0, r0, r0, lsr #31
 755 009a 069B     		ldr	r3, [sp, #24]
 756 009c 03EB6000 		add	r0, r3, r0, asr #1
 757 00a0 03B2     		sxth	r3, r0
 758 00a2 0693     		str	r3, [sp, #24]
 759              	.LVL107:
 760              	.L57:
 266:..\lvgl\lv_draw/lv_draw_vbasic.c ****         case 1:
 761              		.loc 1 266 0
 762 00a4 039B     		ldr	r3, [sp, #12]
 763 00a6 013B     		subs	r3, r3, #1
 764 00a8 072B     		cmp	r3, #7
 765 00aa 00F25581 		bhi	.L53
 766 00ae DFE813F0 		tbh	[pc, r3, lsl #1]
 767              	.L59:
 768 00b2 0800     		.2byte	(.L58-.L59)/2
 769 00b4 1700     		.2byte	(.L87-.L59)/2
 770 00b6 5301     		.2byte	(.L53-.L59)/2
 771 00b8 0D00     		.2byte	(.L61-.L59)/2
 772 00ba 5301     		.2byte	(.L53-.L59)/2
 773 00bc 5301     		.2byte	(.L53-.L59)/2
 774 00be 5301     		.2byte	(.L53-.L59)/2
ARM GAS  C:\Users\d3bug\AppData\Local\Temp\cc5D6foa.s 			page 37


 775 00c0 1200     		.2byte	(.L62-.L59)/2
 776              		.p2align 1
 777              	.L58:
 269:..\lvgl\lv_draw/lv_draw_vbasic.c ****             break;
 778              		.loc 1 269 0
 779 00c2 8023     		movs	r3, #128
 780 00c4 0893     		str	r3, [sp, #32]
 268:..\lvgl\lv_draw/lv_draw_vbasic.c ****             mask_init = 0x80;
 781              		.loc 1 268 0
 782 00c6 1DAB     		add	r3, sp, #116
 783 00c8 0B93     		str	r3, [sp, #44]
 784 00ca 0DE0     		b	.L60
 785              	.L61:
 786              	.LVL108:
 277:..\lvgl\lv_draw/lv_draw_vbasic.c ****             break;
 787              		.loc 1 277 0
 788 00cc F023     		movs	r3, #240
 789 00ce 0893     		str	r3, [sp, #32]
 276:..\lvgl\lv_draw/lv_draw_vbasic.c ****             mask_init = 0xF0;
 790              		.loc 1 276 0
 791 00d0 18AB     		add	r3, sp, #96
 792              	.LVL109:
 793 00d2 0B93     		str	r3, [sp, #44]
 278:..\lvgl\lv_draw/lv_draw_vbasic.c ****         case 8:
 794              		.loc 1 278 0
 795 00d4 08E0     		b	.L60
 796              	.LVL110:
 797              	.L62:
 281:..\lvgl\lv_draw/lv_draw_vbasic.c ****             break;             /*No opa table, pixel value will be used directly*/
 798              		.loc 1 281 0
 799 00d6 FF23     		movs	r3, #255
 800 00d8 0893     		str	r3, [sp, #32]
 280:..\lvgl\lv_draw/lv_draw_vbasic.c ****             mask_init = 0xFF;
 801              		.loc 1 280 0
 802 00da 0023     		movs	r3, #0
 803 00dc 0B93     		str	r3, [sp, #44]
 282:..\lvgl\lv_draw/lv_draw_vbasic.c ****         default:
 804              		.loc 1 282 0
 805 00de 03E0     		b	.L60
 806              	.LVL111:
 807              	.L87:
 273:..\lvgl\lv_draw/lv_draw_vbasic.c ****             break;
 808              		.loc 1 273 0
 809 00e0 C023     		movs	r3, #192
 810 00e2 0893     		str	r3, [sp, #32]
 272:..\lvgl\lv_draw/lv_draw_vbasic.c ****             mask_init = 0xC0;
 811              		.loc 1 272 0
 812 00e4 1CAB     		add	r3, sp, #112
 813 00e6 0B93     		str	r3, [sp, #44]
 814              	.L60:
 815              	.LVL112:
 287:..\lvgl\lv_draw/lv_draw_vbasic.c **** 
 816              		.loc 1 287 0
 817 00e8 3946     		mov	r1, r7
 818 00ea 2046     		mov	r0, r4
 819 00ec FFF7FEFF 		bl	lv_font_get_bitmap
 820              	.LVL113:
ARM GAS  C:\Users\d3bug\AppData\Local\Temp\cc5D6foa.s 			page 38


 289:..\lvgl\lv_draw/lv_draw_vbasic.c **** 
 821              		.loc 1 289 0
 822 00f0 0290     		str	r0, [sp, #8]
 823 00f2 0028     		cmp	r0, #0
 824 00f4 00F03081 		beq	.L53
 292:..\lvgl\lv_draw/lv_draw_vbasic.c ****             pos_y + letter_h < mask_p->y1 || pos_y > mask_p->y2) return;
 825              		.loc 1 292 0
 826 00f8 069A     		ldr	r2, [sp, #24]
 827 00fa 1746     		mov	r7, r2
 828              	.LVL114:
 829 00fc 02EB0804 		add	r4, r2, r8
 830              	.LVL115:
 831 0100 B5F90030 		ldrsh	r3, [r5]
 832 0104 9C42     		cmp	r4, r3
 833 0106 C0F22781 		blt	.L53
 292:..\lvgl\lv_draw/lv_draw_vbasic.c ****             pos_y + letter_h < mask_p->y1 || pos_y > mask_p->y2) return;
 834              		.loc 1 292 0 is_stmt 0 discriminator 1
 835 010a B5F90430 		ldrsh	r3, [r5, #4]
 836 010e 9A42     		cmp	r2, r3
 837 0110 00F32281 		bgt	.L53
 293:..\lvgl\lv_draw/lv_draw_vbasic.c **** 
 838              		.loc 1 293 0 is_stmt 1 discriminator 2
 839 0114 099A     		ldr	r2, [sp, #36]
 840 0116 06EB0209 		add	r9, r6, r2
 841 011a B5F90230 		ldrsh	r3, [r5, #2]
 292:..\lvgl\lv_draw/lv_draw_vbasic.c ****             pos_y + letter_h < mask_p->y1 || pos_y > mask_p->y2) return;
 842              		.loc 1 292 0 discriminator 2
 843 011e 9945     		cmp	r9, r3
 844 0120 C0F21A81 		blt	.L53
 293:..\lvgl\lv_draw/lv_draw_vbasic.c **** 
 845              		.loc 1 293 0
 846 0124 B5F90630 		ldrsh	r3, [r5, #6]
 847 0128 9A42     		cmp	r2, r3
 848 012a 00F31581 		bgt	.L53
 295:..\lvgl\lv_draw/lv_draw_vbasic.c ****     if(!vdb_p) {
 849              		.loc 1 295 0
 850 012e FFF7FEFF 		bl	lv_vdb_get
 851              	.LVL116:
 296:..\lvgl\lv_draw/lv_draw_vbasic.c ****         LV_LOG_WARN("Invalid VDB pointer");
 852              		.loc 1 296 0
 853 0132 0E90     		str	r0, [sp, #56]
 854 0134 38B9     		cbnz	r0, .L63
 297:..\lvgl\lv_draw/lv_draw_vbasic.c ****         return;
 855              		.loc 1 297 0
 856 0136 6C4B     		ldr	r3, .L91+12
 857 0138 40F22912 		movw	r2, #297
 858 013c 6949     		ldr	r1, .L91+8
 859 013e 0220     		movs	r0, #2
 860              	.LVL117:
 861 0140 FFF7FEFF 		bl	lv_log_add
 862              	.LVL118:
 298:..\lvgl\lv_draw/lv_draw_vbasic.c ****     }
 863              		.loc 1 298 0
 864 0144 08E1     		b	.L53
 865              	.LVL119:
 866              	.L63:
 867              	.LBB64:
ARM GAS  C:\Users\d3bug\AppData\Local\Temp\cc5D6foa.s 			page 39


 868              	.LBB65:
 869              		.loc 2 77 0
 870 0146 0E99     		ldr	r1, [sp, #56]
 871 0148 B1F90430 		ldrsh	r3, [r1, #4]
 872 014c B1F90000 		ldrsh	r0, [r1]
 873              	.LVL120:
 874 0150 1B1A     		subs	r3, r3, r0
 875 0152 0133     		adds	r3, r3, #1
 876 0154 1BB2     		sxth	r3, r3
 877 0156 0F93     		str	r3, [sp, #60]
 878              	.LVL121:
 879              	.LBE65:
 880              	.LBE64:
 302:..\lvgl\lv_draw/lv_draw_vbasic.c ****     lv_coord_t col, row;
 881              		.loc 1 302 0
 882 0158 D1F808E0 		ldr	lr, [r1, #8]
 883              	.LVL122:
 308:..\lvgl\lv_draw/lv_draw_vbasic.c ****     if((letter_w * bpp) & 0x7) width_byte_bpp++;
 884              		.loc 1 308 0
 885 015c 039B     		ldr	r3, [sp, #12]
 886 015e 9A46     		mov	r10, r3
 887 0160 03FB08F3 		mul	r3, r3, r8
 888 0164 C3F3C702 		ubfx	r2, r3, #3, #8
 889              	.LVL123:
 309:..\lvgl\lv_draw/lv_draw_vbasic.c **** 
 890              		.loc 1 309 0
 891 0168 13F0070F 		tst	r3, #7
 892 016c 01D0     		beq	.L64
 309:..\lvgl\lv_draw/lv_draw_vbasic.c **** 
 893              		.loc 1 309 0 is_stmt 0 discriminator 1
 894 016e 0132     		adds	r2, r2, #1
 895              	.LVL124:
 896 0170 D2B2     		uxtb	r2, r2
 897              	.LVL125:
 898              	.L64:
 312:..\lvgl\lv_draw/lv_draw_vbasic.c ****     lv_coord_t col_end = pos_x + letter_w <= mask_p->x2 ? letter_w : mask_p->x2 - pos_x + 1;
 899              		.loc 1 312 0 is_stmt 1
 900 0172 B5F90030 		ldrsh	r3, [r5]
 901 0176 0699     		ldr	r1, [sp, #24]
 902 0178 9942     		cmp	r1, r3
 903 017a 03DA     		bge	.L88
 312:..\lvgl\lv_draw/lv_draw_vbasic.c ****     lv_coord_t col_end = pos_x + letter_w <= mask_p->x2 ? letter_w : mask_p->x2 - pos_x + 1;
 904              		.loc 1 312 0 is_stmt 0 discriminator 1
 905 017c 5B1A     		subs	r3, r3, r1
 906 017e 1BB2     		sxth	r3, r3
 907 0180 1293     		str	r3, [sp, #72]
 908 0182 01E0     		b	.L65
 909              	.L88:
 312:..\lvgl\lv_draw/lv_draw_vbasic.c ****     lv_coord_t col_end = pos_x + letter_w <= mask_p->x2 ? letter_w : mask_p->x2 - pos_x + 1;
 910              		.loc 1 312 0
 911 0184 0023     		movs	r3, #0
 912 0186 1293     		str	r3, [sp, #72]
 913              	.L65:
 914              	.LVL126:
 313:..\lvgl\lv_draw/lv_draw_vbasic.c ****     lv_coord_t row_start = pos_y >= mask_p->y1 ? 0 : mask_p->y1 - pos_y;
 915              		.loc 1 313 0 is_stmt 1 discriminator 4
 916 0188 B5F90430 		ldrsh	r3, [r5, #4]
ARM GAS  C:\Users\d3bug\AppData\Local\Temp\cc5D6foa.s 			page 40


 917 018c 9C42     		cmp	r4, r3
 918 018e 03DC     		bgt	.L66
 313:..\lvgl\lv_draw/lv_draw_vbasic.c ****     lv_coord_t row_start = pos_y >= mask_p->y1 ? 0 : mask_p->y1 - pos_y;
 919              		.loc 1 313 0 is_stmt 0 discriminator 1
 920 0190 0FFA88F3 		sxth	r3, r8
 921 0194 9846     		mov	r8, r3
 922              	.LVL127:
 923 0196 04E0     		b	.L67
 924              	.LVL128:
 925              	.L66:
 313:..\lvgl\lv_draw/lv_draw_vbasic.c ****     lv_coord_t row_start = pos_y >= mask_p->y1 ? 0 : mask_p->y1 - pos_y;
 926              		.loc 1 313 0 discriminator 2
 927 0198 0699     		ldr	r1, [sp, #24]
 928 019a 5B1A     		subs	r3, r3, r1
 929 019c 0133     		adds	r3, r3, #1
 930 019e 1BB2     		sxth	r3, r3
 931 01a0 9846     		mov	r8, r3
 932              	.LVL129:
 933              	.L67:
 314:..\lvgl\lv_draw/lv_draw_vbasic.c ****     lv_coord_t row_end  = pos_y + letter_h <= mask_p->y2 ? letter_h : mask_p->y2 - pos_y + 1;
 934              		.loc 1 314 0 is_stmt 1 discriminator 4
 935 01a2 B5F90230 		ldrsh	r3, [r5, #2]
 936 01a6 099C     		ldr	r4, [sp, #36]
 937 01a8 9C42     		cmp	r4, r3
 938 01aa 03DA     		bge	.L89
 314:..\lvgl\lv_draw/lv_draw_vbasic.c ****     lv_coord_t row_end  = pos_y + letter_h <= mask_p->y2 ? letter_h : mask_p->y2 - pos_y + 1;
 939              		.loc 1 314 0 is_stmt 0 discriminator 1
 940 01ac 1B1B     		subs	r3, r3, r4
 941 01ae 1BB2     		sxth	r3, r3
 942 01b0 0C93     		str	r3, [sp, #48]
 943 01b2 01E0     		b	.L68
 944              	.L89:
 314:..\lvgl\lv_draw/lv_draw_vbasic.c ****     lv_coord_t row_end  = pos_y + letter_h <= mask_p->y2 ? letter_h : mask_p->y2 - pos_y + 1;
 945              		.loc 1 314 0
 946 01b4 0023     		movs	r3, #0
 947 01b6 0C93     		str	r3, [sp, #48]
 948              	.L68:
 949              	.LVL130:
 315:..\lvgl\lv_draw/lv_draw_vbasic.c **** 
 950              		.loc 1 315 0 is_stmt 1 discriminator 4
 951 01b8 B5F90630 		ldrsh	r3, [r5, #6]
 952 01bc 9945     		cmp	r9, r3
 953 01be 02DC     		bgt	.L69
 315:..\lvgl\lv_draw/lv_draw_vbasic.c **** 
 954              		.loc 1 315 0 is_stmt 0 discriminator 1
 955 01c0 33B2     		sxth	r3, r6
 956 01c2 1393     		str	r3, [sp, #76]
 957 01c4 04E0     		b	.L70
 958              	.L69:
 315:..\lvgl\lv_draw/lv_draw_vbasic.c **** 
 959              		.loc 1 315 0 discriminator 2
 960 01c6 0999     		ldr	r1, [sp, #36]
 961 01c8 5B1A     		subs	r3, r3, r1
 962 01ca 5E1C     		adds	r6, r3, #1
 963 01cc 33B2     		sxth	r3, r6
 964 01ce 1393     		str	r3, [sp, #76]
 965              	.L70:
ARM GAS  C:\Users\d3bug\AppData\Local\Temp\cc5D6foa.s 			page 41


 966              	.LVL131:
 318:..\lvgl\lv_draw/lv_draw_vbasic.c ****                    + pos_x - vdb_p->area.x1;
 967              		.loc 1 318 0 is_stmt 1 discriminator 4
 968 01d0 0E9B     		ldr	r3, [sp, #56]
 969 01d2 B3F90230 		ldrsh	r3, [r3, #2]
 970 01d6 0999     		ldr	r1, [sp, #36]
 971 01d8 CB1A     		subs	r3, r1, r3
 972 01da 0F9C     		ldr	r4, [sp, #60]
 973 01dc 1494     		str	r4, [sp, #80]
 319:..\lvgl\lv_draw/lv_draw_vbasic.c **** 
 974              		.loc 1 319 0 discriminator 4
 975 01de 2546     		mov	r5, r4
 976              	.LVL132:
 977 01e0 04FB0373 		mla	r3, r4, r3, r7
 978 01e4 1B1A     		subs	r3, r3, r0
 979              	.LVL133:
 322:..\lvgl\lv_draw/lv_draw_vbasic.c **** 
 980              		.loc 1 322 0 discriminator 4
 981 01e6 1298     		ldr	r0, [sp, #72]
 982 01e8 1590     		str	r0, [sp, #84]
 983 01ea 0C9C     		ldr	r4, [sp, #48]
 984 01ec 04FB0507 		mla	r7, r4, r5, r0
 985 01f0 3B44     		add	r3, r3, r7
 986              	.LVL134:
 987 01f2 0EEB0307 		add	r7, lr, r3
 988              	.LVL135:
 325:..\lvgl\lv_draw/lv_draw_vbasic.c **** 
 989              		.loc 1 325 0 discriminator 4
 990 01f6 1692     		str	r2, [sp, #88]
 991 01f8 039B     		ldr	r3, [sp, #12]
 992 01fa 00FB03F3 		mul	r3, r0, r3
 993 01fe 1793     		str	r3, [sp, #92]
 994 0200 4FEAE309 		asr	r9, r3, #3
 995 0204 02FB0492 		mla	r2, r2, r4, r9
 996              	.LVL136:
 997 0208 029B     		ldr	r3, [sp, #8]
 998 020a 1344     		add	r3, r3, r2
 999 020c 9946     		mov	r9, r3
 1000              	.LVL137:
 327:..\lvgl\lv_draw/lv_draw_vbasic.c **** 
 1001              		.loc 1 327 0 discriminator 4
 1002 020e FFF7FEFF 		bl	lv_disp_get_active
 1003              	.LVL138:
 1004 0212 0D90     		str	r0, [sp, #52]
 1005              	.LVL139:
 1006 0214 CDF828B0 		str	fp, [sp, #40]
 331:..\lvgl\lv_draw/lv_draw_vbasic.c ****         col_byte_cnt = 0;
 1007              		.loc 1 331 0 discriminator 4
 1008 0218 99E0     		b	.L71
 1009              	.LVL140:
 1010              	.L84:
 333:..\lvgl\lv_draw/lv_draw_vbasic.c ****         mask = mask_init >> col_bit;
 1011              		.loc 1 333 0
 1012 021a 344D     		ldr	r5, .L91+16
 1013 021c 179B     		ldr	r3, [sp, #92]
 1014 021e 1D40     		ands	r5, r3, r5
 1015 0220 03D5     		bpl	.L72
ARM GAS  C:\Users\d3bug\AppData\Local\Temp\cc5D6foa.s 			page 42


 1016 0222 013D     		subs	r5, r5, #1
 1017 0224 65F00705 		orn	r5, r5, #7
 1018 0228 0135     		adds	r5, r5, #1
 1019              	.L72:
 1020 022a EDB2     		uxtb	r5, r5
 1021              	.LVL141:
 334:..\lvgl\lv_draw/lv_draw_vbasic.c ****         for(col = col_start; col < col_end; col ++) {
 1022              		.loc 1 334 0
 1023 022c 089B     		ldr	r3, [sp, #32]
 1024 022e 43FA05F6 		asr	r6, r3, r5
 1025 0232 F6B2     		uxtb	r6, r6
 1026              	.LVL142:
 335:..\lvgl\lv_draw/lv_draw_vbasic.c ****             letter_px = (*map_p & mask) >> (8 - col_bit - bpp);
 1027              		.loc 1 335 0
 1028 0234 129C     		ldr	r4, [sp, #72]
 332:..\lvgl\lv_draw/lv_draw_vbasic.c ****         col_bit = (col_start * bpp) % 8;
 1029              		.loc 1 332 0
 1030 0236 0023     		movs	r3, #0
 1031 0238 0793     		str	r3, [sp, #28]
 335:..\lvgl\lv_draw/lv_draw_vbasic.c ****             letter_px = (*map_p & mask) >> (8 - col_bit - bpp);
 1032              		.loc 1 335 0
 1033 023a 78E0     		b	.L73
 1034              	.LVL143:
 1035              	.L83:
 336:..\lvgl\lv_draw/lv_draw_vbasic.c ****             if(letter_px != 0) {
 1036              		.loc 1 336 0
 1037 023c 99F80030 		ldrb	r3, [r9]	@ zero_extendqisi2
 1038 0240 06EA0302 		and	r2, r6, r3
 1039 0244 0295     		str	r5, [sp, #8]
 1040 0246 C5F10803 		rsb	r3, r5, #8
 1041 024a CAEB0303 		rsb	r3, r10, r3
 1042 024e 42FA03F3 		asr	r3, r2, r3
 1043              	.LVL144:
 337:..\lvgl\lv_draw/lv_draw_vbasic.c ****                 if(opa == LV_OPA_COVER) {
 1044              		.loc 1 337 0
 1045 0252 13F0FF01 		ands	r1, r3, #255
 1046 0256 53D0     		beq	.L74
 338:..\lvgl\lv_draw/lv_draw_vbasic.c ****                     px_opa = bpp == 8 ? letter_px : bpp_opa_table[letter_px];
 1047              		.loc 1 338 0
 1048 0258 0A9A     		ldr	r2, [sp, #40]
 1049 025a FF2A     		cmp	r2, #255
 1050 025c 06D1     		bne	.L75
 339:..\lvgl\lv_draw/lv_draw_vbasic.c ****                 } else {
 1051              		.loc 1 339 0
 1052 025e 039A     		ldr	r2, [sp, #12]
 1053 0260 082A     		cmp	r2, #8
 1054 0262 14D0     		beq	.L76
 339:..\lvgl\lv_draw/lv_draw_vbasic.c ****                 } else {
 1055              		.loc 1 339 0 is_stmt 0 discriminator 1
 1056 0264 DBB2     		uxtb	r3, r3
 1057 0266 0B9A     		ldr	r2, [sp, #44]
 1058 0268 D15C     		ldrb	r1, [r2, r3]	@ zero_extendqisi2
 1059 026a 10E0     		b	.L76
 1060              	.L75:
 341:..\lvgl\lv_draw/lv_draw_vbasic.c ****                              (uint16_t)((uint16_t)letter_px * opa) >> 8 :
 1061              		.loc 1 341 0 is_stmt 1
 1062 026c 039A     		ldr	r2, [sp, #12]
ARM GAS  C:\Users\d3bug\AppData\Local\Temp\cc5D6foa.s 			page 43


 1063 026e 082A     		cmp	r2, #8
 1064 0270 05D1     		bne	.L77
 342:..\lvgl\lv_draw/lv_draw_vbasic.c ****                              (uint16_t)((uint16_t)bpp_opa_table[letter_px] * opa) >> 8;
 1065              		.loc 1 342 0 discriminator 1
 1066 0272 0A9B     		ldr	r3, [sp, #40]
 1067              	.LVL145:
 1068 0274 01FB03F1 		mul	r1, r1, r3
 341:..\lvgl\lv_draw/lv_draw_vbasic.c ****                              (uint16_t)((uint16_t)letter_px * opa) >> 8 :
 1069              		.loc 1 341 0 discriminator 1
 1070 0278 C1F30721 		ubfx	r1, r1, #8, #8
 1071 027c 07E0     		b	.L76
 1072              	.LVL146:
 1073              	.L77:
 343:..\lvgl\lv_draw/lv_draw_vbasic.c ****                 }
 1074              		.loc 1 343 0 discriminator 2
 1075 027e DBB2     		uxtb	r3, r3
 1076 0280 0B9A     		ldr	r2, [sp, #44]
 1077 0282 D15C     		ldrb	r1, [r2, r3]	@ zero_extendqisi2
 1078 0284 0A9B     		ldr	r3, [sp, #40]
 1079              	.LVL147:
 1080 0286 01FB03F1 		mul	r1, r1, r3
 341:..\lvgl\lv_draw/lv_draw_vbasic.c ****                              (uint16_t)((uint16_t)letter_px * opa) >> 8 :
 1081              		.loc 1 341 0 discriminator 2
 1082 028a C1F30721 		ubfx	r1, r1, #8, #8
 1083              	.L76:
 1084              	.LVL148:
 346:..\lvgl\lv_draw/lv_draw_vbasic.c ****                     disp->driver.vdb_wr((uint8_t *)vdb_p->buf, vdb_width,
 1085              		.loc 1 346 0
 1086 028e 0D9B     		ldr	r3, [sp, #52]
 1087 0290 D3F80CB0 		ldr	fp, [r3, #12]
 1088 0294 BBF1000F 		cmp	fp, #0
 1089 0298 18D0     		beq	.L78
 347:..\lvgl\lv_draw/lv_draw_vbasic.c ****                                         (col + pos_x) - vdb_p->area.x1, (row + pos_y) - vdb_p->area
 1090              		.loc 1 347 0
 1091 029a 0E9A     		ldr	r2, [sp, #56]
 1092 029c 9068     		ldr	r0, [r2, #8]
 348:..\lvgl\lv_draw/lv_draw_vbasic.c ****                                         color, px_opa);
 1093              		.loc 1 348 0
 1094 029e B2F900E0 		ldrsh	lr, [r2]
 1095 02a2 B2F902C0 		ldrsh	ip, [r2, #2]
 347:..\lvgl\lv_draw/lv_draw_vbasic.c ****                                         (col + pos_x) - vdb_p->area.x1, (row + pos_y) - vdb_p->area
 1096              		.loc 1 347 0
 1097 02a6 0C9B     		ldr	r3, [sp, #48]
 1098 02a8 099A     		ldr	r2, [sp, #36]
 1099 02aa 1344     		add	r3, r3, r2
 1100 02ac CCEB0303 		rsb	r3, ip, r3
 1101 02b0 069A     		ldr	r2, [sp, #24]
 1102 02b2 A218     		adds	r2, r4, r2
 1103 02b4 CEEB0202 		rsb	r2, lr, r2
 1104 02b8 0191     		str	r1, [sp, #4]
 1105              	.LVL149:
 1106 02ba 9DF81010 		ldrb	r1, [sp, #16]	@ zero_extendqisi2
 1107              	.LVL150:
 1108 02be 8DF80010 		strb	r1, [sp]
 1109 02c2 1BB2     		sxth	r3, r3
 1110 02c4 12B2     		sxth	r2, r2
 1111 02c6 0F99     		ldr	r1, [sp, #60]
ARM GAS  C:\Users\d3bug\AppData\Local\Temp\cc5D6foa.s 			page 44


 1112              	.LVL151:
 1113 02c8 D847     		blx	fp
 1114              	.LVL152:
 1115 02ca 19E0     		b	.L74
 1116              	.LVL153:
 1117              	.L78:
 1118 02cc 3B78     		ldrb	r3, [r7]	@ zero_extendqisi2
 1119              	.LVL154:
 1120              	.LBB66:
 1121              	.LBB67:
 1122              		.loc 3 348 0
 1123 02ce 11F0800F 		tst	r1, #128
 1124 02d2 0DD0     		beq	.L79
 1125 02d4 049B     		ldr	r3, [sp, #16]
 1126 02d6 03F00103 		and	r3, r3, #1
 1127 02da 0BE0     		b	.L80
 1128              	.L92:
 1129              		.align	2
 1130              	.L91:
 1131 02dc 00000000 		.word	.LANCHOR0
 1132 02e0 38000000 		.word	.LC4
 1133 02e4 14000000 		.word	.LC3
 1134 02e8 00000000 		.word	.LC2
 1135 02ec 07000080 		.word	-2147483641
 1136              	.L79:
 1137 02f0 03F00103 		and	r3, r3, #1
 1138              	.L80:
 1139 02f4 109A     		ldr	r2, [sp, #64]
 1140 02f6 63F30002 		bfi	r2, r3, #0, #1
 1141              	.LVL155:
 1142 02fa 8DF84020 		strb	r2, [sp, #64]
 1143              	.LVL156:
 1144              	.LBE67:
 1145              	.LBE66:
 352:..\lvgl\lv_draw/lv_draw_vbasic.c **** #else
 1146              		.loc 1 352 0
 1147 02fe 3A70     		strb	r2, [r7]
 1148              	.LVL157:
 1149              	.L74:
 359:..\lvgl\lv_draw/lv_draw_vbasic.c **** 
 1150              		.loc 1 359 0
 1151 0300 0137     		adds	r7, r7, #1
 1152              	.LVL158:
 361:..\lvgl\lv_draw/lv_draw_vbasic.c ****                 col_bit += bpp;
 1153              		.loc 1 361 0
 1154 0302 CAF10803 		rsb	r3, r10, #8
 1155 0306 029A     		ldr	r2, [sp, #8]
 1156              	.LVL159:
 1157 0308 9A42     		cmp	r2, r3
 1158 030a 06DA     		bge	.L81
 362:..\lvgl\lv_draw/lv_draw_vbasic.c ****                 mask = mask >> bpp;
 1159              		.loc 1 362 0
 1160 030c 039B     		ldr	r3, [sp, #12]
 1161 030e 1D44     		add	r5, r5, r3
 1162              	.LVL160:
 1163 0310 EDB2     		uxtb	r5, r5
 1164              	.LVL161:
ARM GAS  C:\Users\d3bug\AppData\Local\Temp\cc5D6foa.s 			page 45


 363:..\lvgl\lv_draw/lv_draw_vbasic.c ****             } else {
 1165              		.loc 1 363 0
 1166 0312 46FA0AF6 		asr	r6, r6, r10
 1167              	.LVL162:
 1168 0316 F6B2     		uxtb	r6, r6
 1169              	.LVL163:
 1170 0318 07E0     		b	.L82
 1171              	.L81:
 1172              	.LVL164:
 366:..\lvgl\lv_draw/lv_draw_vbasic.c ****                 mask = mask_init;
 1173              		.loc 1 366 0
 1174 031a 079B     		ldr	r3, [sp, #28]
 1175 031c 0133     		adds	r3, r3, #1
 1176 031e DBB2     		uxtb	r3, r3
 1177 0320 0793     		str	r3, [sp, #28]
 1178              	.LVL165:
 368:..\lvgl\lv_draw/lv_draw_vbasic.c ****             }
 1179              		.loc 1 368 0
 1180 0322 09F10109 		add	r9, r9, #1
 1181              	.LVL166:
 367:..\lvgl\lv_draw/lv_draw_vbasic.c ****                 map_p ++;
 1182              		.loc 1 367 0
 1183 0326 089E     		ldr	r6, [sp, #32]
 365:..\lvgl\lv_draw/lv_draw_vbasic.c ****                 col_byte_cnt ++;
 1184              		.loc 1 365 0
 1185 0328 0025     		movs	r5, #0
 1186              	.LVL167:
 1187              	.L82:
 335:..\lvgl\lv_draw/lv_draw_vbasic.c ****             letter_px = (*map_p & mask) >> (8 - col_bit - bpp);
 1188              		.loc 1 335 0 discriminator 2
 1189 032a 0134     		adds	r4, r4, #1
 1190              	.LVL168:
 1191 032c 24B2     		sxth	r4, r4
 1192              	.LVL169:
 1193              	.L73:
 335:..\lvgl\lv_draw/lv_draw_vbasic.c ****             letter_px = (*map_p & mask) >> (8 - col_bit - bpp);
 1194              		.loc 1 335 0 is_stmt 0 discriminator 1
 1195 032e 4445     		cmp	r4, r8
 1196 0330 84DB     		blt	.L83
 372:..\lvgl\lv_draw/lv_draw_vbasic.c ****         vdb_buf_tmp += vdb_width  - (col_end - col_start); /*Next row in VDB*/
 1197              		.loc 1 372 0 is_stmt 1 discriminator 2
 1198 0332 169B     		ldr	r3, [sp, #88]
 1199 0334 079A     		ldr	r2, [sp, #28]
 1200 0336 9B1A     		subs	r3, r3, r2
 1201 0338 9944     		add	r9, r9, r3
 1202              	.LVL170:
 373:..\lvgl\lv_draw/lv_draw_vbasic.c ****     }
 1203              		.loc 1 373 0 discriminator 2
 1204 033a 159B     		ldr	r3, [sp, #84]
 1205 033c C3EB0803 		rsb	r3, r3, r8
 1206 0340 149A     		ldr	r2, [sp, #80]
 1207 0342 D31A     		subs	r3, r2, r3
 1208 0344 1F44     		add	r7, r7, r3
 1209              	.LVL171:
 331:..\lvgl\lv_draw/lv_draw_vbasic.c ****         col_byte_cnt = 0;
 1210              		.loc 1 331 0 discriminator 2
 1211 0346 0C9B     		ldr	r3, [sp, #48]
ARM GAS  C:\Users\d3bug\AppData\Local\Temp\cc5D6foa.s 			page 46


 1212 0348 0133     		adds	r3, r3, #1
 1213 034a 1BB2     		sxth	r3, r3
 1214 034c 0C93     		str	r3, [sp, #48]
 1215              	.LVL172:
 1216              	.L71:
 331:..\lvgl\lv_draw/lv_draw_vbasic.c ****         col_byte_cnt = 0;
 1217              		.loc 1 331 0 is_stmt 0 discriminator 1
 1218 034e 0C9B     		ldr	r3, [sp, #48]
 1219 0350 139A     		ldr	r2, [sp, #76]
 1220 0352 9342     		cmp	r3, r2
 1221 0354 FFF661AF 		blt	.L84
 1222              	.LVL173:
 1223              	.L53:
 375:..\lvgl\lv_draw/lv_draw_vbasic.c **** 
 1224              		.loc 1 375 0 is_stmt 1
 1225 0358 1FB0     		add	sp, sp, #124
 1226              		.cfi_def_cfa_offset 36
 1227              		@ sp needed
 1228 035a BDE8F08F 		pop	{r4, r5, r6, r7, r8, r9, r10, fp, pc}
 1229              		.cfi_endproc
 1230              	.LFE14:
 1231              		.size	lv_vletter, .-lv_vletter
 1232 035e 00BF     		.section	.text.lv_vmap,"ax",%progbits
 1233              		.align	2
 1234              		.global	lv_vmap
 1235              		.thumb
 1236              		.thumb_func
 1237              		.type	lv_vmap, %function
 1238              	lv_vmap:
 1239              	.LFB15:
 391:..\lvgl\lv_draw/lv_draw_vbasic.c **** 
 1240              		.loc 1 391 0
 1241              		.cfi_startproc
 1242              		@ args = 16, pretend = 0, frame = 96
 1243              		@ frame_needed = 0, uses_anonymous_args = 0
 1244              	.LVL174:
 1245 0000 2DE9F04F 		push	{r4, r5, r6, r7, r8, r9, r10, fp, lr}
 1246              		.cfi_def_cfa_offset 36
 1247              		.cfi_offset 4, -36
 1248              		.cfi_offset 5, -32
 1249              		.cfi_offset 6, -28
 1250              		.cfi_offset 7, -24
 1251              		.cfi_offset 8, -20
 1252              		.cfi_offset 9, -16
 1253              		.cfi_offset 10, -12
 1254              		.cfi_offset 11, -8
 1255              		.cfi_offset 14, -4
 1256 0004 9BB0     		sub	sp, sp, #108
 1257              		.cfi_def_cfa_offset 144
 1258 0006 1546     		mov	r5, r2
 1259 0008 0293     		str	r3, [sp, #8]
 1260 000a 9DF890A0 		ldrb	r10, [sp, #144]	@ zero_extendqisi2
 1261 000e 9DF89490 		ldrb	r9, [sp, #148]	@ zero_extendqisi2
 1262 0012 9DF89820 		ldrb	r2, [sp, #152]	@ zero_extendqisi2
 1263              	.LVL175:
 1264 0016 8DF85820 		strb	r2, [sp, #88]
 1265 001a 9DF89C20 		ldrb	r2, [sp, #156]	@ zero_extendqisi2
ARM GAS  C:\Users\d3bug\AppData\Local\Temp\cc5D6foa.s 			page 47


 1266 001e 0492     		str	r2, [sp, #16]
 393:..\lvgl\lv_draw/lv_draw_vbasic.c ****     if(opa > LV_OPA_MAX) opa = LV_OPA_COVER;
 1267              		.loc 1 393 0
 1268 0020 0F2B     		cmp	r3, #15
 1269 0022 40F28B81 		bls	.L93
 1270 0026 0446     		mov	r4, r0
 1271 0028 0F46     		mov	r7, r1
 394:..\lvgl\lv_draw/lv_draw_vbasic.c **** 
 1272              		.loc 1 394 0
 1273 002a FB2B     		cmp	r3, #251
 1274 002c 01D9     		bls	.L95
 1275 002e FF23     		movs	r3, #255
 1276              	.LVL176:
 1277 0030 0293     		str	r3, [sp, #8]
 1278              	.L95:
 1279              	.LVL177:
 398:..\lvgl\lv_draw/lv_draw_vbasic.c ****     if(!vdb_p) {
 1280              		.loc 1 398 0
 1281 0032 FFF7FEFF 		bl	lv_vdb_get
 1282              	.LVL178:
 399:..\lvgl\lv_draw/lv_draw_vbasic.c ****         LV_LOG_WARN("Invalid VDB pointer");
 1283              		.loc 1 399 0
 1284 0036 0690     		str	r0, [sp, #24]
 1285 0038 38B9     		cbnz	r0, .L96
 400:..\lvgl\lv_draw/lv_draw_vbasic.c ****         return;
 1286              		.loc 1 400 0
 1287 003a B44B     		ldr	r3, .L138
 1288 003c 4FF4C872 		mov	r2, #400
 1289 0040 B349     		ldr	r1, .L138+4
 1290 0042 0220     		movs	r0, #2
 1291              	.LVL179:
 1292 0044 FFF7FEFF 		bl	lv_log_add
 1293              	.LVL180:
 401:..\lvgl\lv_draw/lv_draw_vbasic.c ****     }
 1294              		.loc 1 401 0
 1295 0048 78E1     		b	.L93
 1296              	.LVL181:
 1297              	.L96:
 407:..\lvgl\lv_draw/lv_draw_vbasic.c **** 
 1298              		.loc 1 407 0
 1299 004a 3A46     		mov	r2, r7
 1300 004c 2146     		mov	r1, r4
 1301 004e 18A8     		add	r0, sp, #96
 1302              	.LVL182:
 1303 0050 FFF7FEFF 		bl	lv_area_intersect
 1304              	.LVL183:
 410:..\lvgl\lv_draw/lv_draw_vbasic.c **** 
 1305              		.loc 1 410 0
 1306 0054 0028     		cmp	r0, #0
 1307 0056 00F07181 		beq	.L93
 413:..\lvgl\lv_draw/lv_draw_vbasic.c **** 
 1308              		.loc 1 413 0
 1309 005a B9F1000F 		cmp	r9, #0
 1310 005e 02D0     		beq	.L132
 1311 0060 4FF00208 		mov	r8, #2
 1312 0064 01E0     		b	.L97
 1313              	.L132:
ARM GAS  C:\Users\d3bug\AppData\Local\Temp\cc5D6foa.s 			page 48


 1314 0066 4FF00108 		mov	r8, #1
 1315              	.L97:
 1316              	.LVL184:
 1317              	.LBB68:
 1318              	.LBB69:
 1319              		.loc 2 77 0 discriminator 4
 1320 006a B4F90430 		ldrsh	r3, [r4, #4]
 1321 006e B4F90010 		ldrsh	r1, [r4]
 1322 0072 5B1A     		subs	r3, r3, r1
 1323 0074 0133     		adds	r3, r3, #1
 1324 0076 1BB2     		sxth	r3, r3
 1325 0078 1846     		mov	r0, r3
 1326              	.LVL185:
 1327 007a 1493     		str	r3, [sp, #80]
 1328              	.LVL186:
 1329              	.LBE69:
 1330              	.LBE68:
 417:..\lvgl\lv_draw/lv_draw_vbasic.c ****         map_p += (uint32_t) map_width * ((masked_a.y1 - cords_p->y1)) * px_size_byte;
 1331              		.loc 1 417 0 discriminator 4
 1332 007c B4F90220 		ldrsh	r2, [r4, #2]
 1333 0080 BDF96230 		ldrsh	r3, [sp, #98]
 1334 0084 9A42     		cmp	r2, r3
 1335 0086 04DA     		bge	.L98
 418:..\lvgl\lv_draw/lv_draw_vbasic.c ****     }
 1336              		.loc 1 418 0
 1337 0088 9A1A     		subs	r2, r3, r2
 1338 008a 00FB02F2 		mul	r2, r0, r2
 1339 008e 02FB0855 		mla	r5, r2, r8, r5
 1340              	.LVL187:
 1341              	.L98:
 420:..\lvgl\lv_draw/lv_draw_vbasic.c ****         map_p += (masked_a.x1 - cords_p->x1) * px_size_byte;
 1342              		.loc 1 420 0
 1343 0092 BDF96020 		ldrsh	r2, [sp, #96]
 1344 0096 9142     		cmp	r1, r2
 1345 0098 02DA     		bge	.L99
 421:..\lvgl\lv_draw/lv_draw_vbasic.c ****     }
 1346              		.loc 1 421 0
 1347 009a 511A     		subs	r1, r2, r1
 1348 009c 01FB0855 		mla	r5, r1, r8, r5
 1349              	.LVL188:
 1350              	.L99:
 425:..\lvgl\lv_draw/lv_draw_vbasic.c ****     masked_a.y1 = masked_a.y1 - vdb_p->area.y1;
 1351              		.loc 1 425 0
 1352 00a0 069C     		ldr	r4, [sp, #24]
 1353              	.LVL189:
 1354 00a2 B4F90070 		ldrsh	r7, [r4]
 1355              	.LVL190:
 1356 00a6 D71B     		subs	r7, r2, r7
 1357 00a8 BFB2     		uxth	r7, r7
 1358 00aa 38B2     		sxth	r0, r7
 1359 00ac ADF86000 		strh	r0, [sp, #96]	@ movhi
 426:..\lvgl\lv_draw/lv_draw_vbasic.c ****     masked_a.x2 = masked_a.x2 - vdb_p->area.x1;
 1360              		.loc 1 426 0
 1361 00b0 B4F90220 		ldrsh	r2, [r4, #2]
 1362 00b4 9B1A     		subs	r3, r3, r2
 1363 00b6 1AB2     		sxth	r2, r3
 1364 00b8 ADF86220 		strh	r2, [sp, #98]	@ movhi
ARM GAS  C:\Users\d3bug\AppData\Local\Temp\cc5D6foa.s 			page 49


 427:..\lvgl\lv_draw/lv_draw_vbasic.c ****     masked_a.y2 = masked_a.y2 - vdb_p->area.y1;
 1365              		.loc 1 427 0
 1366 00bc BDF96430 		ldrsh	r3, [sp, #100]
 1367 00c0 B4F90010 		ldrsh	r1, [r4]
 1368 00c4 5B1A     		subs	r3, r3, r1
 1369 00c6 9BB2     		uxth	r3, r3
 1370 00c8 ADF86430 		strh	r3, [sp, #100]	@ movhi
 428:..\lvgl\lv_draw/lv_draw_vbasic.c **** 
 1371              		.loc 1 428 0
 1372 00cc BDF96610 		ldrsh	r1, [sp, #102]
 1373 00d0 B4F90240 		ldrsh	r4, [r4, #2]
 1374 00d4 091B     		subs	r1, r1, r4
 1375 00d6 ADF86610 		strh	r1, [sp, #102]	@ movhi
 1376              	.LVL191:
 1377              	.LBB70:
 1378              	.LBB71:
 1379              		.loc 2 77 0
 1380 00da 069C     		ldr	r4, [sp, #24]
 1381 00dc B4F90410 		ldrsh	r1, [r4, #4]
 1382 00e0 B4F90040 		ldrsh	r4, [r4]
 1383 00e4 091B     		subs	r1, r1, r4
 1384 00e6 0131     		adds	r1, r1, #1
 1385 00e8 09B2     		sxth	r1, r1
 1386 00ea 0791     		str	r1, [sp, #28]
 1387              	.LVL192:
 1388              	.LBE71:
 1389              	.LBE70:
 431:..\lvgl\lv_draw/lv_draw_vbasic.c ****     vdb_buf_tmp += (uint32_t) vdb_width * masked_a.y1; /*Move to the first row*/
 1390              		.loc 1 431 0
 1391 00ec 069C     		ldr	r4, [sp, #24]
 1392 00ee A168     		ldr	r1, [r4, #8]
 1393              	.LVL193:
 432:..\lvgl\lv_draw/lv_draw_vbasic.c ****     vdb_buf_tmp += (uint32_t) masked_a.x1; /*Move to the first col*/
 1394              		.loc 1 432 0
 1395 00f0 079C     		ldr	r4, [sp, #28]
 1396 00f2 1594     		str	r4, [sp, #84]
 1397              	.LVL194:
 433:..\lvgl\lv_draw/lv_draw_vbasic.c **** 
 1398              		.loc 1 433 0
 1399 00f4 04FB0202 		mla	r2, r4, r2, r0
 1400              	.LVL195:
 1401 00f8 8A18     		adds	r2, r1, r2
 1402 00fa 0E92     		str	r2, [sp, #56]
 1403              	.LVL196:
 1404              	.LBB72:
 1405              	.LBB73:
 1406              		.loc 2 77 0
 1407 00fc DF1B     		subs	r7, r3, r7
 1408 00fe 0137     		adds	r7, r7, #1
 1409 0100 3FB2     		sxth	r7, r7
 1410              	.LVL197:
 1411              	.LBE73:
 1412              	.LBE72:
 438:..\lvgl\lv_draw/lv_draw_vbasic.c **** 
 1413              		.loc 1 438 0
 1414 0102 FFF7FEFF 		bl	lv_disp_get_active
 1415              	.LVL198:
ARM GAS  C:\Users\d3bug\AppData\Local\Temp\cc5D6foa.s 			page 50


 1416 0106 0590     		str	r0, [sp, #20]
 1417              	.LVL199:
 441:..\lvgl\lv_draw/lv_draw_vbasic.c **** 
 1418              		.loc 1 441 0
 1419 0108 BAF1000F 		cmp	r10, #0
 1420 010c 50D1     		bne	.L100
 441:..\lvgl\lv_draw/lv_draw_vbasic.c **** 
 1421              		.loc 1 441 0 is_stmt 0 discriminator 1
 1422 010e B9F1000F 		cmp	r9, #0
 1423 0112 4DD1     		bne	.L100
 441:..\lvgl\lv_draw/lv_draw_vbasic.c **** 
 1424              		.loc 1 441 0 discriminator 2
 1425 0114 029B     		ldr	r3, [sp, #8]
 1426 0116 FF2B     		cmp	r3, #255
 1427 0118 4AD1     		bne	.L100
 441:..\lvgl\lv_draw/lv_draw_vbasic.c **** 
 1428              		.loc 1 441 0 discriminator 3
 1429 011a 049B     		ldr	r3, [sp, #16]
 1430 011c 002B     		cmp	r3, #0
 1431 011e 47D1     		bne	.L100
 444:..\lvgl\lv_draw/lv_draw_vbasic.c ****             lv_coord_t col;
 1432              		.loc 1 444 0 is_stmt 1
 1433 0120 C368     		ldr	r3, [r0, #12]
 1434 0122 7BB3     		cbz	r3, .L101
 1435              	.LBB74:
 446:..\lvgl\lv_draw/lv_draw_vbasic.c ****                 for(col = 0; col < map_useful_w; col++) {
 1436              		.loc 1 446 0
 1437 0124 BDF96290 		ldrsh	r9, [sp, #98]
 1438              	.LVL200:
 1439 0128 CDF80C90 		str	r9, [sp, #12]
 1440 012c DDF81890 		ldr	r9, [sp, #24]
 1441              	.LVL201:
 1442 0130 8246     		mov	r10, r0
 1443 0132 DDF808B0 		ldr	fp, [sp, #8]
 1444 0136 1FE0     		b	.L102
 1445              	.LVL202:
 1446              	.L103:
 1447              	.LBB75:
 448:..\lvgl\lv_draw/lv_draw_vbasic.c ****                     disp->driver.vdb_wr((uint8_t *)vdb_p->buf, vdb_width, col + masked_a.x1, row, p
 1448              		.loc 1 448 0 discriminator 3
 1449 0138 08FB04F3 		mul	r3, r8, r4
 1450 013c EB5C     		ldrb	r3, [r5, r3]	@ zero_extendqisi2
 449:..\lvgl\lv_draw/lv_draw_vbasic.c ****                 }
 1451              		.loc 1 449 0 discriminator 3
 1452 013e DAF80C60 		ldr	r6, [r10, #12]
 1453 0142 D9F80800 		ldr	r0, [r9, #8]
 1454 0146 BDF96020 		ldrsh	r2, [sp, #96]
 1455 014a A4B2     		uxth	r4, r4
 1456 014c 2244     		add	r2, r2, r4
 1457 014e CDF804B0 		str	fp, [sp, #4]
 1458 0152 8DF80030 		strb	r3, [sp]
 1459 0156 039B     		ldr	r3, [sp, #12]
 1460 0158 12B2     		sxth	r2, r2
 1461 015a 0799     		ldr	r1, [sp, #28]
 1462 015c B047     		blx	r6
 1463              	.LVL203:
 1464              	.LBE75:
ARM GAS  C:\Users\d3bug\AppData\Local\Temp\cc5D6foa.s 			page 51


 447:..\lvgl\lv_draw/lv_draw_vbasic.c ****                     lv_color_t px_color = *((lv_color_t *)&map_p[(uint32_t)col * px_size_byte]);
 1465              		.loc 1 447 0 discriminator 3
 1466 015e 0134     		adds	r4, r4, #1
 1467              	.LVL204:
 1468 0160 24B2     		sxth	r4, r4
 1469              	.LVL205:
 1470 0162 00E0     		b	.L104
 1471              	.LVL206:
 1472              	.L133:
 1473 0164 0024     		movs	r4, #0
 1474              	.L104:
 1475              	.LVL207:
 447:..\lvgl\lv_draw/lv_draw_vbasic.c ****                     lv_color_t px_color = *((lv_color_t *)&map_p[(uint32_t)col * px_size_byte]);
 1476              		.loc 1 447 0 is_stmt 0 discriminator 1
 1477 0166 BC42     		cmp	r4, r7
 1478 0168 E6DB     		blt	.L103
 451:..\lvgl\lv_draw/lv_draw_vbasic.c ****             }
 1479              		.loc 1 451 0 is_stmt 1 discriminator 2
 1480 016a 149B     		ldr	r3, [sp, #80]
 1481 016c 08FB0355 		mla	r5, r8, r3, r5
 1482              	.LVL208:
 446:..\lvgl\lv_draw/lv_draw_vbasic.c ****                 for(col = 0; col < map_useful_w; col++) {
 1483              		.loc 1 446 0 discriminator 2
 1484 0170 039B     		ldr	r3, [sp, #12]
 1485 0172 0133     		adds	r3, r3, #1
 1486 0174 1BB2     		sxth	r3, r3
 1487 0176 0393     		str	r3, [sp, #12]
 1488              	.LVL209:
 1489              	.L102:
 446:..\lvgl\lv_draw/lv_draw_vbasic.c ****                 for(col = 0; col < map_useful_w; col++) {
 1490              		.loc 1 446 0 is_stmt 0 discriminator 1
 1491 0178 BDF96630 		ldrsh	r3, [sp, #102]
 1492 017c 039A     		ldr	r2, [sp, #12]
 1493 017e 9A42     		cmp	r2, r3
 1494 0180 F0DD     		ble	.L133
 1495 0182 DBE0     		b	.L93
 1496              	.LVL210:
 1497              	.L101:
 1498              	.LBE74:
 456:..\lvgl\lv_draw/lv_draw_vbasic.c **** #if USE_LV_GPU
 1499              		.loc 1 456 0 is_stmt 1
 1500 0184 BDF96240 		ldrsh	r4, [sp, #98]
 1501              	.LVL211:
 1502 0188 0E9E     		ldr	r6, [sp, #56]
 1503 018a 0CE0     		b	.L106
 1504              	.LVL212:
 1505              	.L107:
 464:..\lvgl\lv_draw/lv_draw_vbasic.c **** #endif
 1506              		.loc 1 464 0 discriminator 3
 1507 018c 029B     		ldr	r3, [sp, #8]
 1508 018e 3A46     		mov	r2, r7
 1509 0190 2946     		mov	r1, r5
 1510 0192 3046     		mov	r0, r6
 1511 0194 FFF7FEFF 		bl	sw_mem_blend
 1512              	.LVL213:
 466:..\lvgl\lv_draw/lv_draw_vbasic.c ****                 vdb_buf_tmp += vdb_width;                        /*Next row on the VDB*/
 1513              		.loc 1 466 0 discriminator 3
ARM GAS  C:\Users\d3bug\AppData\Local\Temp\cc5D6foa.s 			page 52


 1514 0198 149B     		ldr	r3, [sp, #80]
 1515 019a 08FB0355 		mla	r5, r8, r3, r5
 1516              	.LVL214:
 467:..\lvgl\lv_draw/lv_draw_vbasic.c ****             }
 1517              		.loc 1 467 0 discriminator 3
 1518 019e 159B     		ldr	r3, [sp, #84]
 1519 01a0 1E44     		add	r6, r6, r3
 1520              	.LVL215:
 456:..\lvgl\lv_draw/lv_draw_vbasic.c **** #if USE_LV_GPU
 1521              		.loc 1 456 0 discriminator 3
 1522 01a2 0134     		adds	r4, r4, #1
 1523              	.LVL216:
 1524 01a4 24B2     		sxth	r4, r4
 1525              	.LVL217:
 1526              	.L106:
 456:..\lvgl\lv_draw/lv_draw_vbasic.c **** #if USE_LV_GPU
 1527              		.loc 1 456 0 is_stmt 0 discriminator 1
 1528 01a6 BDF96630 		ldrsh	r3, [sp, #102]
 1529 01aa 9C42     		cmp	r4, r3
 1530 01ac EEDD     		ble	.L107
 1531 01ae C5E0     		b	.L93
 1532              	.LVL218:
 1533              	.L100:
 1534              	.LBB76:
 476:..\lvgl\lv_draw/lv_draw_vbasic.c ****         lv_color_t recolored_px = lv_color_mix(recolor, last_img_px, recolor_opa);
 1535              		.loc 1 476 0 is_stmt 1
 1536 01b0 4FF00003 		mov	r3, #0
 1537              	.LVL219:
 1538 01b4 8DF82030 		strb	r3, [sp, #32]
 1539              	.LVL220:
 1540              	.LBB77:
 1541              	.LBB78:
 1542              		.loc 3 348 0
 1543 01b8 9DF91030 		ldrsb	r3, [sp, #16]
 1544              	.LVL221:
 1545 01bc 0F93     		str	r3, [sp, #60]
 1546 01be 002B     		cmp	r3, #0
 1547 01c0 03DA     		bge	.L134
 1548 01c2 169B     		ldr	r3, [sp, #88]
 1549 01c4 03F00103 		and	r3, r3, #1
 1550 01c8 00E0     		b	.L108
 1551              	.L134:
 1552 01ca 0023     		movs	r3, #0
 1553              	.L108:
 1554 01cc 8DF82830 		strb	r3, [sp, #40]
 1555              	.LVL222:
 1556              	.LBE78:
 1557              	.LBE77:
 478:..\lvgl\lv_draw/lv_draw_vbasic.c ****             for(col = 0; col < map_useful_w; col++) {
 1558              		.loc 1 478 0
 1559 01d0 BDF96230 		ldrsh	r3, [sp, #98]
 1560 01d4 0393     		str	r3, [sp, #12]
 1561              	.LVL223:
 1562 01d6 ACE0     		b	.L109
 1563              	.LVL224:
 1564              	.L128:
 1565              	.LBB79:
ARM GAS  C:\Users\d3bug\AppData\Local\Temp\cc5D6foa.s 			page 53


 481:..\lvgl\lv_draw/lv_draw_vbasic.c ****                 lv_color_t px_color;
 1566              		.loc 1 481 0
 1567 01d8 2146     		mov	r1, r4
 1568 01da 08FB04F3 		mul	r3, r8, r4
 1569 01de EA18     		adds	r2, r5, r3
 1570              	.LVL225:
 485:..\lvgl\lv_draw/lv_draw_vbasic.c **** #if LV_COLOR_DEPTH == 8 || LV_COLOR_DEPTH == 1
 1571              		.loc 1 485 0
 1572 01e0 B9F1000F 		cmp	r9, #0
 1573 01e4 0ED0     		beq	.L110
 1574              	.LBB80:
 487:..\lvgl\lv_draw/lv_draw_vbasic.c **** #elif LV_COLOR_DEPTH == 16
 1575              		.loc 1 487 0
 1576 01e6 EB5C     		ldrb	r3, [r5, r3]	@ zero_extendqisi2
 1577 01e8 63F30006 		bfi	r6, r3, #0, #1
 494:..\lvgl\lv_draw/lv_draw_vbasic.c ****                     if(px_opa == LV_OPA_TRANSP) continue;
 1578              		.loc 1 494 0
 1579 01ec 5378     		ldrb	r3, [r2, #1]	@ zero_extendqisi2
 1580              	.LVL226:
 495:..\lvgl\lv_draw/lv_draw_vbasic.c ****                     else if(px_opa != LV_OPA_COVER) opa_result = (uint32_t)((uint32_t)px_opa * opa_
 1581              		.loc 1 495 0
 1582 01ee 002B     		cmp	r3, #0
 1583 01f0 00F08880 		beq	.L127
 496:..\lvgl\lv_draw/lv_draw_vbasic.c ****                 } else {
 1584              		.loc 1 496 0
 1585 01f4 FF2B     		cmp	r3, #255
 1586 01f6 08D0     		beq	.L135
 496:..\lvgl\lv_draw/lv_draw_vbasic.c ****                 } else {
 1587              		.loc 1 496 0 is_stmt 0 discriminator 1
 1588 01f8 029A     		ldr	r2, [sp, #8]
 1589              	.LVL227:
 1590 01fa 03FB02F3 		mul	r3, r3, r2
 1591              	.LVL228:
 1592 01fe C3F30723 		ubfx	r3, r3, #8, #8
 1593              	.LVL229:
 1594 0202 03E0     		b	.L112
 1595              	.LVL230:
 1596              	.L110:
 1597              	.LBE80:
 498:..\lvgl\lv_draw/lv_draw_vbasic.c ****                 }
 1598              		.loc 1 498 0 is_stmt 1
 1599 0204 EE5C     		ldrb	r6, [r5, r3]	@ zero_extendqisi2
 1600              	.LVL231:
 480:..\lvgl\lv_draw/lv_draw_vbasic.c ****                 uint8_t * px_color_p = (uint8_t *) &map_p[(uint32_t)col * px_size_byte];
 1601              		.loc 1 480 0
 1602 0206 029B     		ldr	r3, [sp, #8]
 1603 0208 00E0     		b	.L112
 1604              	.LVL232:
 1605              	.L135:
 1606 020a 029B     		ldr	r3, [sp, #8]
 1607              	.LVL233:
 1608              	.L112:
 502:..\lvgl\lv_draw/lv_draw_vbasic.c **** 
 1609              		.loc 1 502 0
 1610 020c BAF1000F 		cmp	r10, #0
 1611 0210 04D0     		beq	.L113
 502:..\lvgl\lv_draw/lv_draw_vbasic.c **** 
ARM GAS  C:\Users\d3bug\AppData\Local\Temp\cc5D6foa.s 			page 54


 1612              		.loc 1 502 0 is_stmt 0 discriminator 1
 1613 0212 86F00102 		eor	r2, r6, #1
 1614 0216 12F0010F 		tst	r2, #1
 1615 021a 73D0     		beq	.L127
 1616              	.L113:
 505:..\lvgl\lv_draw/lv_draw_vbasic.c ****                     if(last_img_px.full != px_color.full) {     /*Minor acceleration: calculate onl
 1617              		.loc 1 505 0 is_stmt 1
 1618 021c 049A     		ldr	r2, [sp, #16]
 1619 021e 002A     		cmp	r2, #0
 1620 0220 47D0     		beq	.L114
 506:..\lvgl\lv_draw/lv_draw_vbasic.c ****                         last_img_px = px_color;
 1621              		.loc 1 506 0
 1622 0222 089A     		ldr	r2, [sp, #32]
 1623 0224 7240     		eors	r2, r2, r6
 1624 0226 12F0010F 		tst	r2, #1
 1625 022a 11D0     		beq	.L115
 507:..\lvgl\lv_draw/lv_draw_vbasic.c ****                         recolored_px = lv_color_mix(recolor, last_img_px, recolor_opa);
 1626              		.loc 1 507 0
 1627 022c 8DF82060 		strb	r6, [sp, #32]
 1628              	.LVL234:
 1629              	.LBB81:
 1630              	.LBB82:
 1631              		.loc 3 348 0
 1632 0230 0F9A     		ldr	r2, [sp, #60]
 1633 0232 002A     		cmp	r2, #0
 1634 0234 03DA     		bge	.L116
 1635 0236 169A     		ldr	r2, [sp, #88]
 1636 0238 02F00102 		and	r2, r2, #1
 1637 023c 01E0     		b	.L117
 1638              	.L116:
 1639 023e 06F00102 		and	r2, r6, #1
 1640              	.L117:
 1641 0242 0C98     		ldr	r0, [sp, #48]
 1642 0244 62F30000 		bfi	r0, r2, #0, #1
 1643              	.LVL235:
 1644 0248 8DF83000 		strb	r0, [sp, #48]
 1645 024c 8DF82800 		strb	r0, [sp, #40]
 1646              	.LVL236:
 1647              	.L115:
 1648              	.LBE82:
 1649              	.LBE81:
 511:..\lvgl\lv_draw/lv_draw_vbasic.c ****                         disp->driver.vdb_wr((uint8_t *)vdb_p->buf, vdb_width, col + masked_a.x1, ro
 1650              		.loc 1 511 0
 1651 0250 059A     		ldr	r2, [sp, #20]
 1652 0252 D2F80CB0 		ldr	fp, [r2, #12]
 1653 0256 BBF1000F 		cmp	fp, #0
 1654 025a 0ED0     		beq	.L118
 512:..\lvgl\lv_draw/lv_draw_vbasic.c ****                     }
 1655              		.loc 1 512 0
 1656 025c 069A     		ldr	r2, [sp, #24]
 1657 025e 9068     		ldr	r0, [r2, #8]
 1658              	.LVL237:
 1659 0260 BDF96020 		ldrsh	r2, [sp, #96]
 1660 0264 2244     		add	r2, r2, r4
 1661 0266 0193     		str	r3, [sp, #4]
 1662 0268 9DF82830 		ldrb	r3, [sp, #40]	@ zero_extendqisi2
 1663              	.LVL238:
ARM GAS  C:\Users\d3bug\AppData\Local\Temp\cc5D6foa.s 			page 55


 1664 026c 8DF80030 		strb	r3, [sp]
 1665 0270 039B     		ldr	r3, [sp, #12]
 1666              	.LVL239:
 1667 0272 12B2     		sxth	r2, r2
 1668 0274 0799     		ldr	r1, [sp, #28]
 1669              	.LVL240:
 1670 0276 D847     		blx	fp
 1671              	.LVL241:
 1672 0278 44E0     		b	.L127
 1673              	.LVL242:
 1674              	.L118:
 516:..\lvgl\lv_draw/lv_draw_vbasic.c ****                         else vdb_buf_tmp[col] = lv_color_mix(recolored_px, vdb_buf_tmp[col], opa_re
 1675              		.loc 1 516 0
 1676 027a FF2B     		cmp	r3, #255
 1677 027c 06D1     		bne	.L120
 516:..\lvgl\lv_draw/lv_draw_vbasic.c ****                         else vdb_buf_tmp[col] = lv_color_mix(recolored_px, vdb_buf_tmp[col], opa_re
 1678              		.loc 1 516 0 is_stmt 0 discriminator 1
 1679 027e 0E9A     		ldr	r2, [sp, #56]
 1680 0280 535C     		ldrb	r3, [r2, r1]	@ zero_extendqisi2
 1681              	.LVL243:
 1682 0282 0A98     		ldr	r0, [sp, #40]
 1683              	.LVL244:
 1684 0284 60F30003 		bfi	r3, r0, #0, #1
 1685 0288 5354     		strb	r3, [r2, r1]
 1686 028a 3BE0     		b	.L127
 1687              	.LVL245:
 1688              	.L120:
 517:..\lvgl\lv_draw/lv_draw_vbasic.c ****                     }
 1689              		.loc 1 517 0 is_stmt 1
 1690 028c 0E9A     		ldr	r2, [sp, #56]
 1691 028e 5018     		adds	r0, r2, r1
 1692              	.LVL246:
 1693 0290 525C     		ldrb	r2, [r2, r1]	@ zero_extendqisi2
 1694              	.LVL247:
 1695              	.LBB83:
 1696              	.LBB84:
 1697              		.loc 3 348 0
 1698 0292 13F0800F 		tst	r3, #128
 1699 0296 03D0     		beq	.L121
 1700 0298 0A9B     		ldr	r3, [sp, #40]
 1701              	.LVL248:
 1702 029a 03F00103 		and	r3, r3, #1
 1703 029e 01E0     		b	.L122
 1704              	.LVL249:
 1705              	.L121:
 1706 02a0 02F00103 		and	r3, r2, #1
 1707              	.LVL250:
 1708              	.L122:
 1709 02a4 129A     		ldr	r2, [sp, #72]
 1710 02a6 63F30002 		bfi	r2, r3, #0, #1
 1711              	.LVL251:
 1712 02aa 8DF84820 		strb	r2, [sp, #72]
 1713              	.LBE84:
 1714              	.LBE83:
 517:..\lvgl\lv_draw/lv_draw_vbasic.c ****                     }
 1715              		.loc 1 517 0
 1716 02ae 0270     		strb	r2, [r0]
ARM GAS  C:\Users\d3bug\AppData\Local\Temp\cc5D6foa.s 			page 56


 1717 02b0 28E0     		b	.L127
 1718              	.LVL252:
 1719              	.L114:
 521:..\lvgl\lv_draw/lv_draw_vbasic.c ****                         disp->driver.vdb_wr((uint8_t *)vdb_p->buf, vdb_width, col + masked_a.x1, ro
 1720              		.loc 1 521 0
 1721 02b2 059A     		ldr	r2, [sp, #20]
 1722 02b4 D2F80CB0 		ldr	fp, [r2, #12]
 1723 02b8 BBF1000F 		cmp	fp, #0
 1724 02bc 0CD0     		beq	.L123
 522:..\lvgl\lv_draw/lv_draw_vbasic.c ****                     }
 1725              		.loc 1 522 0
 1726 02be 069A     		ldr	r2, [sp, #24]
 1727 02c0 9068     		ldr	r0, [r2, #8]
 1728 02c2 BDF96020 		ldrsh	r2, [sp, #96]
 1729 02c6 2244     		add	r2, r2, r4
 1730 02c8 0193     		str	r3, [sp, #4]
 1731 02ca 8DF80060 		strb	r6, [sp]
 1732 02ce 039B     		ldr	r3, [sp, #12]
 1733              	.LVL253:
 1734 02d0 12B2     		sxth	r2, r2
 1735 02d2 0799     		ldr	r1, [sp, #28]
 1736              	.LVL254:
 1737 02d4 D847     		blx	fp
 1738              	.LVL255:
 1739 02d6 15E0     		b	.L127
 1740              	.LVL256:
 1741              	.L123:
 526:..\lvgl\lv_draw/lv_draw_vbasic.c ****                         else {
 1742              		.loc 1 526 0
 1743 02d8 FF2B     		cmp	r3, #255
 1744 02da 02D1     		bne	.L124
 526:..\lvgl\lv_draw/lv_draw_vbasic.c ****                         else {
 1745              		.loc 1 526 0 is_stmt 0 discriminator 1
 1746 02dc 0E9B     		ldr	r3, [sp, #56]
 1747              	.LVL257:
 1748 02de 5E54     		strb	r6, [r3, r1]
 1749 02e0 10E0     		b	.L127
 1750              	.LVL258:
 1751              	.L124:
 529:..\lvgl\lv_draw/lv_draw_vbasic.c **** #else
 1752              		.loc 1 529 0 is_stmt 1
 1753 02e2 0E9A     		ldr	r2, [sp, #56]
 1754 02e4 5018     		adds	r0, r2, r1
 1755 02e6 525C     		ldrb	r2, [r2, r1]	@ zero_extendqisi2
 1756              	.LVL259:
 1757              	.LBB85:
 1758              	.LBB86:
 1759              		.loc 3 348 0
 1760 02e8 13F0800F 		tst	r3, #128
 1761 02ec 02D0     		beq	.L125
 1762 02ee 06F00103 		and	r3, r6, #1
 1763              	.LVL260:
 1764 02f2 01E0     		b	.L126
 1765              	.LVL261:
 1766              	.L125:
 1767 02f4 02F00103 		and	r3, r2, #1
 1768              	.LVL262:
ARM GAS  C:\Users\d3bug\AppData\Local\Temp\cc5D6foa.s 			page 57


 1769              	.L126:
 1770 02f8 109A     		ldr	r2, [sp, #64]
 1771 02fa 63F30002 		bfi	r2, r3, #0, #1
 1772              	.LVL263:
 1773 02fe 8DF84020 		strb	r2, [sp, #64]
 1774              	.LBE86:
 1775              	.LBE85:
 529:..\lvgl\lv_draw/lv_draw_vbasic.c **** #else
 1776              		.loc 1 529 0
 1777 0302 0270     		strb	r2, [r0]
 1778              	.LVL264:
 1779              	.L127:
 1780              	.LBE79:
 479:..\lvgl\lv_draw/lv_draw_vbasic.c ****                 lv_opa_t opa_result = opa;
 1781              		.loc 1 479 0 discriminator 2
 1782 0304 0134     		adds	r4, r4, #1
 1783              	.LVL265:
 1784 0306 24B2     		sxth	r4, r4
 1785              	.LVL266:
 1786 0308 05E0     		b	.L129
 1787              	.L139:
 1788 030a 00BF     		.align	2
 1789              	.L138:
 1790 030c 00000000 		.word	.LC2
 1791 0310 14000000 		.word	.LC3
 1792              	.LVL267:
 1793              	.L136:
 1794 0314 0024     		movs	r4, #0
 1795              	.LVL268:
 1796              	.L129:
 479:..\lvgl\lv_draw/lv_draw_vbasic.c ****                 lv_opa_t opa_result = opa;
 1797              		.loc 1 479 0 is_stmt 0 discriminator 1
 1798 0316 BC42     		cmp	r4, r7
 1799 0318 FFF65EAF 		blt	.L128
 553:..\lvgl\lv_draw/lv_draw_vbasic.c ****             vdb_buf_tmp += vdb_width;           /*Next row on the VDB*/
 1800              		.loc 1 553 0 is_stmt 1 discriminator 2
 1801 031c 149B     		ldr	r3, [sp, #80]
 1802 031e 08FB0355 		mla	r5, r8, r3, r5
 1803              	.LVL269:
 554:..\lvgl\lv_draw/lv_draw_vbasic.c ****         }
 1804              		.loc 1 554 0 discriminator 2
 1805 0322 0E9B     		ldr	r3, [sp, #56]
 1806 0324 159A     		ldr	r2, [sp, #84]
 1807              	.LVL270:
 1808 0326 1344     		add	r3, r3, r2
 1809 0328 0E93     		str	r3, [sp, #56]
 1810              	.LVL271:
 478:..\lvgl\lv_draw/lv_draw_vbasic.c ****             for(col = 0; col < map_useful_w; col++) {
 1811              		.loc 1 478 0 discriminator 2
 1812 032a 039B     		ldr	r3, [sp, #12]
 1813              	.LVL272:
 1814 032c 0133     		adds	r3, r3, #1
 1815 032e 1BB2     		sxth	r3, r3
 1816 0330 0393     		str	r3, [sp, #12]
 1817              	.LVL273:
 1818              	.L109:
 478:..\lvgl\lv_draw/lv_draw_vbasic.c ****             for(col = 0; col < map_useful_w; col++) {
ARM GAS  C:\Users\d3bug\AppData\Local\Temp\cc5D6foa.s 			page 58


 1819              		.loc 1 478 0 is_stmt 0 discriminator 1
 1820 0332 BDF96630 		ldrsh	r3, [sp, #102]
 1821 0336 039A     		ldr	r2, [sp, #12]
 1822 0338 9A42     		cmp	r2, r3
 1823 033a EBDD     		ble	.L136
 1824              	.LVL274:
 1825              	.L93:
 1826              	.LBE76:
 557:..\lvgl\lv_draw/lv_draw_vbasic.c **** 
 1827              		.loc 1 557 0 is_stmt 1
 1828 033c 1BB0     		add	sp, sp, #108
 1829              		.cfi_def_cfa_offset 36
 1830              		@ sp needed
 1831 033e BDE8F08F 		pop	{r4, r5, r6, r7, r8, r9, r10, fp, pc}
 1832              		.cfi_endproc
 1833              	.LFE15:
 1834              		.size	lv_vmap, .-lv_vmap
 1835 0342 00BF     		.section	.rodata
 1836              		.align	2
 1837              		.set	.LANCHOR0,. + 0
 1838              	.LC0:
 1839 0000 00       		.byte	0
 1840 0001 55       		.byte	85
 1841 0002 AA       		.byte	-86
 1842 0003 FF       		.byte	-1
 1843              	.LC1:
 1844 0004 00       		.byte	0
 1845 0005 11       		.byte	17
 1846 0006 22       		.byte	34
 1847 0007 33       		.byte	51
 1848 0008 44       		.byte	68
 1849 0009 55       		.byte	85
 1850 000a 66       		.byte	102
 1851 000b 77       		.byte	119
 1852 000c 88       		.byte	-120
 1853 000d 99       		.byte	-103
 1854 000e AA       		.byte	-86
 1855 000f BB       		.byte	-69
 1856 0010 CC       		.byte	-52
 1857 0011 DD       		.byte	-35
 1858 0012 EE       		.byte	-18
 1859 0013 FF       		.byte	-1
 1860              		.section	.rodata.str1.4,"aMS",%progbits,1
 1861              		.align	2
 1862              	.LC2:
 1863 0000 496E7661 		.ascii	"Invalid VDB pointer\000"
 1863      6C696420 
 1863      56444220 
 1863      706F696E 
 1863      74657200 
 1864              	.LC3:
 1865 0014 2E2E5C6C 		.ascii	"..\\lvgl\\lv_draw\\lv_draw_vbasic.c\000"
 1865      76676C5C 
 1865      6C765F64 
 1865      7261775C 
 1865      6C765F64 
 1866 0035 000000   		.space	3
ARM GAS  C:\Users\d3bug\AppData\Local\Temp\cc5D6foa.s 			page 59


 1867              	.LC4:
 1868 0038 466F6E74 		.ascii	"Font: character's bitmap not found\000"
 1868      3A206368 
 1868      61726163 
 1868      74657227 
 1868      73206269 
 1869              		.text
 1870              	.Letext0:
 1871              		.file 5 "c:\\program files (x86)\\cypress\\psoc creator\\4.2\\psoc creator\\import\\gnu\\arm\\5.4.
 1872              		.file 6 "c:\\program files (x86)\\cypress\\psoc creator\\4.2\\psoc creator\\import\\gnu\\arm\\5.4.
 1873              		.file 7 "..\\lvgl\\lv_draw\\../lv_hal/lv_hal_disp.h"
 1874              		.file 8 "..\\lvgl\\lv_draw\\../lv_core/lv_vdb.h"
 1875              		.file 9 "..\\lvgl\\lv_draw\\../lv_hal/../lv_core/../lv_misc/lv_log.h"