ARM GAS  C:\Users\d3bug\AppData\Local\Temp\ccojd9dS.s 			page 1


   1              		.syntax unified
   2              		.cpu cortex-m3
   3              		.fpu softvfp
   4              		.eabi_attribute 20, 1
   5              		.eabi_attribute 21, 1
   6              		.eabi_attribute 23, 3
   7              		.eabi_attribute 24, 1
   8              		.eabi_attribute 25, 1
   9              		.eabi_attribute 26, 1
  10              		.eabi_attribute 30, 1
  11              		.eabi_attribute 34, 1
  12              		.eabi_attribute 18, 4
  13              		.thumb
  14              		.syntax unified
  15              		.file	"lv_draw_triangle.c"
  16              		.text
  17              	.Ltext0:
  18              		.cfi_sections	.debug_frame
  19              		.section	.text.point_swap,"ax",%progbits
  20              		.align	2
  21              		.thumb
  22              		.thumb_func
  23              		.type	point_swap, %function
  24              	point_swap:
  25              	.LFB13:
  26              		.file 1 "..\\lvgl\\lv_draw\\lv_draw_triangle.c"
   1:..\lvgl\lv_draw/lv_draw_triangle.c **** /**
   2:..\lvgl\lv_draw/lv_draw_triangle.c ****  * @file lv_draw_triangle.c
   3:..\lvgl\lv_draw/lv_draw_triangle.c ****  *
   4:..\lvgl\lv_draw/lv_draw_triangle.c ****  */
   5:..\lvgl\lv_draw/lv_draw_triangle.c **** 
   6:..\lvgl\lv_draw/lv_draw_triangle.c **** /*********************
   7:..\lvgl\lv_draw/lv_draw_triangle.c ****  *      INCLUDES
   8:..\lvgl\lv_draw/lv_draw_triangle.c ****  *********************/
   9:..\lvgl\lv_draw/lv_draw_triangle.c **** #include "lv_draw_triangle.h"
  10:..\lvgl\lv_draw/lv_draw_triangle.c **** #include "../lv_misc/lv_math.h"
  11:..\lvgl\lv_draw/lv_draw_triangle.c **** 
  12:..\lvgl\lv_draw/lv_draw_triangle.c **** /*********************
  13:..\lvgl\lv_draw/lv_draw_triangle.c ****  *      DEFINES
  14:..\lvgl\lv_draw/lv_draw_triangle.c ****  *********************/
  15:..\lvgl\lv_draw/lv_draw_triangle.c **** 
  16:..\lvgl\lv_draw/lv_draw_triangle.c **** /**********************
  17:..\lvgl\lv_draw/lv_draw_triangle.c ****  *      TYPEDEFS
  18:..\lvgl\lv_draw/lv_draw_triangle.c ****  **********************/
  19:..\lvgl\lv_draw/lv_draw_triangle.c **** 
  20:..\lvgl\lv_draw/lv_draw_triangle.c **** /**********************
  21:..\lvgl\lv_draw/lv_draw_triangle.c ****  *  STATIC PROTOTYPES
  22:..\lvgl\lv_draw/lv_draw_triangle.c ****  **********************/
  23:..\lvgl\lv_draw/lv_draw_triangle.c **** 
  24:..\lvgl\lv_draw/lv_draw_triangle.c **** /**********************
  25:..\lvgl\lv_draw/lv_draw_triangle.c ****  *  STATIC VARIABLES
  26:..\lvgl\lv_draw/lv_draw_triangle.c ****  **********************/
  27:..\lvgl\lv_draw/lv_draw_triangle.c **** static void point_swap(lv_point_t * p1, lv_point_t * p2);
  28:..\lvgl\lv_draw/lv_draw_triangle.c **** 
  29:..\lvgl\lv_draw/lv_draw_triangle.c **** /**********************
  30:..\lvgl\lv_draw/lv_draw_triangle.c ****  *      MACROS
  31:..\lvgl\lv_draw/lv_draw_triangle.c ****  **********************/
ARM GAS  C:\Users\d3bug\AppData\Local\Temp\ccojd9dS.s 			page 2


  32:..\lvgl\lv_draw/lv_draw_triangle.c **** 
  33:..\lvgl\lv_draw/lv_draw_triangle.c **** /**********************
  34:..\lvgl\lv_draw/lv_draw_triangle.c ****  *   GLOBAL FUNCTIONS
  35:..\lvgl\lv_draw/lv_draw_triangle.c ****  **********************/
  36:..\lvgl\lv_draw/lv_draw_triangle.c **** #if USE_LV_TRIANGLE != 0
  37:..\lvgl\lv_draw/lv_draw_triangle.c **** /**
  38:..\lvgl\lv_draw/lv_draw_triangle.c ****  *
  39:..\lvgl\lv_draw/lv_draw_triangle.c ****  * @param points pointer to an array with 3 points
  40:..\lvgl\lv_draw/lv_draw_triangle.c ****  * @param mask the triangle will be drawn only in this mask
  41:..\lvgl\lv_draw/lv_draw_triangle.c ****  * @param color color of the triangle
  42:..\lvgl\lv_draw/lv_draw_triangle.c ****  */
  43:..\lvgl\lv_draw/lv_draw_triangle.c **** void lv_draw_triangle(const lv_point_t * points, const lv_area_t * mask, lv_color_t color)
  44:..\lvgl\lv_draw/lv_draw_triangle.c **** {
  45:..\lvgl\lv_draw/lv_draw_triangle.c ****     lv_point_t tri[3];
  46:..\lvgl\lv_draw/lv_draw_triangle.c **** 
  47:..\lvgl\lv_draw/lv_draw_triangle.c ****     memcpy(tri, points, sizeof(tri));
  48:..\lvgl\lv_draw/lv_draw_triangle.c **** 
  49:..\lvgl\lv_draw/lv_draw_triangle.c ****     /*Sort the vertices according to their y coordinate (0: y max, 1: y mid, 2:y min)*/
  50:..\lvgl\lv_draw/lv_draw_triangle.c ****     if(tri[1].y < tri[0].y) point_swap(&tri[1], &tri[0]);
  51:..\lvgl\lv_draw/lv_draw_triangle.c ****     if(tri[2].y < tri[1].y) point_swap(&tri[2], &tri[1]);
  52:..\lvgl\lv_draw/lv_draw_triangle.c ****     if(tri[1].y < tri[0].y) point_swap(&tri[1], &tri[0]);
  53:..\lvgl\lv_draw/lv_draw_triangle.c **** 
  54:..\lvgl\lv_draw/lv_draw_triangle.c ****     /*Return is the triangle is degenerated*/
  55:..\lvgl\lv_draw/lv_draw_triangle.c ****     if(tri[0].x == tri[1].x && tri[0].y == tri[1].y) return;
  56:..\lvgl\lv_draw/lv_draw_triangle.c ****     if(tri[1].x == tri[2].x && tri[1].y == tri[2].y) return;
  57:..\lvgl\lv_draw/lv_draw_triangle.c ****     if(tri[0].x == tri[2].x && tri[0].y == tri[2].y) return;
  58:..\lvgl\lv_draw/lv_draw_triangle.c **** 
  59:..\lvgl\lv_draw/lv_draw_triangle.c ****     if(tri[0].x == tri[1].x && tri[1].x == tri[2].x) return;
  60:..\lvgl\lv_draw/lv_draw_triangle.c ****     if(tri[0].y == tri[1].y && tri[1].y == tri[2].y) return;
  61:..\lvgl\lv_draw/lv_draw_triangle.c **** 
  62:..\lvgl\lv_draw/lv_draw_triangle.c ****     /*Draw the triangle*/
  63:..\lvgl\lv_draw/lv_draw_triangle.c ****     lv_point_t edge1;
  64:..\lvgl\lv_draw/lv_draw_triangle.c ****     lv_coord_t dx1 = LV_MATH_ABS(tri[0].x - tri[1].x);
  65:..\lvgl\lv_draw/lv_draw_triangle.c ****     lv_coord_t sx1 = tri[0].x < tri[1].x ? 1 : -1;
  66:..\lvgl\lv_draw/lv_draw_triangle.c ****     lv_coord_t dy1 = LV_MATH_ABS(tri[0].y - tri[1].y);
  67:..\lvgl\lv_draw/lv_draw_triangle.c ****     lv_coord_t sy1 = tri[0].y < tri[1].y ? 1 : -1;
  68:..\lvgl\lv_draw/lv_draw_triangle.c ****     lv_coord_t err1 = (dx1 > dy1 ? dx1 : -dy1) / 2;
  69:..\lvgl\lv_draw/lv_draw_triangle.c ****     lv_coord_t err_tmp1;
  70:..\lvgl\lv_draw/lv_draw_triangle.c **** 
  71:..\lvgl\lv_draw/lv_draw_triangle.c ****     lv_point_t edge2;
  72:..\lvgl\lv_draw/lv_draw_triangle.c ****     lv_coord_t dx2 = LV_MATH_ABS(tri[0].x - tri[2].x);
  73:..\lvgl\lv_draw/lv_draw_triangle.c ****     lv_coord_t sx2 = tri[0].x < tri[2].x ? 1 : -1;
  74:..\lvgl\lv_draw/lv_draw_triangle.c ****     lv_coord_t dy2 = LV_MATH_ABS(tri[0].y - tri[2].y);
  75:..\lvgl\lv_draw/lv_draw_triangle.c ****     lv_coord_t sy2 = tri[0].y < tri[2].y ? 1 : -1;
  76:..\lvgl\lv_draw/lv_draw_triangle.c ****     lv_coord_t err2 = (dx1 > dy2 ? dx2 : -dy2) / 2;
  77:..\lvgl\lv_draw/lv_draw_triangle.c ****     lv_coord_t err_tmp2;
  78:..\lvgl\lv_draw/lv_draw_triangle.c **** 
  79:..\lvgl\lv_draw/lv_draw_triangle.c ****     lv_coord_t y1_tmp;
  80:..\lvgl\lv_draw/lv_draw_triangle.c ****     lv_coord_t y2_tmp;
  81:..\lvgl\lv_draw/lv_draw_triangle.c **** 
  82:..\lvgl\lv_draw/lv_draw_triangle.c ****     edge1.x = tri[0].x;
  83:..\lvgl\lv_draw/lv_draw_triangle.c ****     edge1.y = tri[0].y;
  84:..\lvgl\lv_draw/lv_draw_triangle.c ****     edge2.x = tri[0].x;
  85:..\lvgl\lv_draw/lv_draw_triangle.c ****     edge2.y = tri[0].y;
  86:..\lvgl\lv_draw/lv_draw_triangle.c ****     lv_area_t act_area;
  87:..\lvgl\lv_draw/lv_draw_triangle.c ****     lv_area_t draw_area;
  88:..\lvgl\lv_draw/lv_draw_triangle.c **** 
ARM GAS  C:\Users\d3bug\AppData\Local\Temp\ccojd9dS.s 			page 3


  89:..\lvgl\lv_draw/lv_draw_triangle.c ****     while(1) {
  90:..\lvgl\lv_draw/lv_draw_triangle.c ****         act_area.x1 = edge1.x;
  91:..\lvgl\lv_draw/lv_draw_triangle.c ****         act_area.x2 = edge2.x ;
  92:..\lvgl\lv_draw/lv_draw_triangle.c ****         act_area.y1 = edge1.y;
  93:..\lvgl\lv_draw/lv_draw_triangle.c ****         act_area.y2 = edge2.y ;
  94:..\lvgl\lv_draw/lv_draw_triangle.c **** 
  95:..\lvgl\lv_draw/lv_draw_triangle.c **** 
  96:..\lvgl\lv_draw/lv_draw_triangle.c ****         draw_area.x1 = LV_MATH_MIN(act_area.x1, act_area.x2);
  97:..\lvgl\lv_draw/lv_draw_triangle.c ****         draw_area.x2 = LV_MATH_MAX(act_area.x1, act_area.x2);
  98:..\lvgl\lv_draw/lv_draw_triangle.c ****         draw_area.y1 = LV_MATH_MIN(act_area.y1, act_area.y2);
  99:..\lvgl\lv_draw/lv_draw_triangle.c ****         draw_area.y2 = LV_MATH_MAX(act_area.y1, act_area.y2);
 100:..\lvgl\lv_draw/lv_draw_triangle.c ****         draw_area.x2--; /*Do not draw most right pixel because it will be drawn by the adjacent tri
 101:..\lvgl\lv_draw/lv_draw_triangle.c ****         fill_fp(&draw_area, mask, color, LV_OPA_50);
 102:..\lvgl\lv_draw/lv_draw_triangle.c **** 
 103:..\lvgl\lv_draw/lv_draw_triangle.c ****         /*Calc. the next point of edge1*/
 104:..\lvgl\lv_draw/lv_draw_triangle.c ****         y1_tmp = edge1.y;
 105:..\lvgl\lv_draw/lv_draw_triangle.c ****         do {
 106:..\lvgl\lv_draw/lv_draw_triangle.c ****             if(edge1.x == tri[1].x && edge1.y == tri[1].y) {
 107:..\lvgl\lv_draw/lv_draw_triangle.c **** 
 108:..\lvgl\lv_draw/lv_draw_triangle.c ****                 dx1 = LV_MATH_ABS(tri[1].x - tri[2].x);
 109:..\lvgl\lv_draw/lv_draw_triangle.c ****                 sx1 = tri[1].x < tri[2].x ? 1 : -1;
 110:..\lvgl\lv_draw/lv_draw_triangle.c ****                 dy1 = LV_MATH_ABS(tri[1].y - tri[2].y);
 111:..\lvgl\lv_draw/lv_draw_triangle.c ****                 sy1 = tri[1].y < tri[2].y ? 1 : -1;
 112:..\lvgl\lv_draw/lv_draw_triangle.c ****                 err1 = (dx1 > dy1 ? dx1 : -dy1) / 2;
 113:..\lvgl\lv_draw/lv_draw_triangle.c ****             } else if(edge1.x == tri[2].x && edge1.y == tri[2].y) return;
 114:..\lvgl\lv_draw/lv_draw_triangle.c ****             err_tmp1 = err1;
 115:..\lvgl\lv_draw/lv_draw_triangle.c ****             if(err_tmp1 > -dx1) {
 116:..\lvgl\lv_draw/lv_draw_triangle.c ****                 err1 -= dy1;
 117:..\lvgl\lv_draw/lv_draw_triangle.c ****                 edge1.x += sx1;
 118:..\lvgl\lv_draw/lv_draw_triangle.c ****             }
 119:..\lvgl\lv_draw/lv_draw_triangle.c ****             if(err_tmp1 < dy1) {
 120:..\lvgl\lv_draw/lv_draw_triangle.c ****                 err1 += dx1;
 121:..\lvgl\lv_draw/lv_draw_triangle.c ****                 edge1.y += sy1;
 122:..\lvgl\lv_draw/lv_draw_triangle.c ****             }
 123:..\lvgl\lv_draw/lv_draw_triangle.c ****         } while(edge1.y == y1_tmp);
 124:..\lvgl\lv_draw/lv_draw_triangle.c **** 
 125:..\lvgl\lv_draw/lv_draw_triangle.c ****         /*Calc. the next point of edge2*/
 126:..\lvgl\lv_draw/lv_draw_triangle.c ****         y2_tmp = edge2.y;
 127:..\lvgl\lv_draw/lv_draw_triangle.c ****         do {
 128:..\lvgl\lv_draw/lv_draw_triangle.c ****             if(edge2.x == tri[2].x && edge2.y == tri[2].y) return;
 129:..\lvgl\lv_draw/lv_draw_triangle.c ****             err_tmp2 = err2;
 130:..\lvgl\lv_draw/lv_draw_triangle.c ****             if(err_tmp2 > -dx2) {
 131:..\lvgl\lv_draw/lv_draw_triangle.c ****                 err2 -= dy2;
 132:..\lvgl\lv_draw/lv_draw_triangle.c ****                 edge2.x += sx2;
 133:..\lvgl\lv_draw/lv_draw_triangle.c ****             }
 134:..\lvgl\lv_draw/lv_draw_triangle.c ****             if(err_tmp2 < dy2) {
 135:..\lvgl\lv_draw/lv_draw_triangle.c ****                 err2 += dx2;
 136:..\lvgl\lv_draw/lv_draw_triangle.c ****                 edge2.y += sy2;
 137:..\lvgl\lv_draw/lv_draw_triangle.c ****             }
 138:..\lvgl\lv_draw/lv_draw_triangle.c ****         } while(edge2.y == y2_tmp);
 139:..\lvgl\lv_draw/lv_draw_triangle.c ****     }
 140:..\lvgl\lv_draw/lv_draw_triangle.c **** }
 141:..\lvgl\lv_draw/lv_draw_triangle.c **** #endif
 142:..\lvgl\lv_draw/lv_draw_triangle.c **** 
 143:..\lvgl\lv_draw/lv_draw_triangle.c **** /**********************
 144:..\lvgl\lv_draw/lv_draw_triangle.c ****  *   STATIC FUNCTIONS
 145:..\lvgl\lv_draw/lv_draw_triangle.c ****  **********************/
ARM GAS  C:\Users\d3bug\AppData\Local\Temp\ccojd9dS.s 			page 4


 146:..\lvgl\lv_draw/lv_draw_triangle.c **** 
 147:..\lvgl\lv_draw/lv_draw_triangle.c **** 
 148:..\lvgl\lv_draw/lv_draw_triangle.c **** #if USE_LV_TRIANGLE != 0
 149:..\lvgl\lv_draw/lv_draw_triangle.c **** /**
 150:..\lvgl\lv_draw/lv_draw_triangle.c ****  * Swap two points
 151:..\lvgl\lv_draw/lv_draw_triangle.c ****  * p1 pointer to the first point
 152:..\lvgl\lv_draw/lv_draw_triangle.c ****  * p2 pointer to the second point
 153:..\lvgl\lv_draw/lv_draw_triangle.c ****  */
 154:..\lvgl\lv_draw/lv_draw_triangle.c **** static void point_swap(lv_point_t * p1, lv_point_t * p2)
 155:..\lvgl\lv_draw/lv_draw_triangle.c **** {
  27              		.loc 1 155 0
  28              		.cfi_startproc
  29              		@ args = 0, pretend = 0, frame = 0
  30              		@ frame_needed = 0, uses_anonymous_args = 0
  31              		@ link register save eliminated.
  32              	.LVL0:
  33 0000 10B4     		push	{r4}
  34              		.cfi_def_cfa_offset 4
  35              		.cfi_offset 4, -4
 156:..\lvgl\lv_draw/lv_draw_triangle.c ****     lv_point_t tmp;
 157:..\lvgl\lv_draw/lv_draw_triangle.c ****     tmp.x = p1->x;
  36              		.loc 1 157 0
  37 0002 B0F90020 		ldrsh	r2, [r0]
 158:..\lvgl\lv_draw/lv_draw_triangle.c ****     tmp.y = p1->y;
  38              		.loc 1 158 0
  39 0006 B0F90230 		ldrsh	r3, [r0, #2]
 159:..\lvgl\lv_draw/lv_draw_triangle.c **** 
 160:..\lvgl\lv_draw/lv_draw_triangle.c ****     p1->x = p2->x;
  40              		.loc 1 160 0
  41 000a B1F90040 		ldrsh	r4, [r1]
  42 000e 0480     		strh	r4, [r0]	@ movhi
 161:..\lvgl\lv_draw/lv_draw_triangle.c ****     p1->y = p2->y;
  43              		.loc 1 161 0
  44 0010 B1F90240 		ldrsh	r4, [r1, #2]
  45 0014 4480     		strh	r4, [r0, #2]	@ movhi
 162:..\lvgl\lv_draw/lv_draw_triangle.c **** 
 163:..\lvgl\lv_draw/lv_draw_triangle.c ****     p2->x = tmp.x;
  46              		.loc 1 163 0
  47 0016 0A80     		strh	r2, [r1]	@ movhi
 164:..\lvgl\lv_draw/lv_draw_triangle.c ****     p2->y = tmp.y;
  48              		.loc 1 164 0
  49 0018 4B80     		strh	r3, [r1, #2]	@ movhi
 165:..\lvgl\lv_draw/lv_draw_triangle.c **** 
 166:..\lvgl\lv_draw/lv_draw_triangle.c **** }
  50              		.loc 1 166 0
  51 001a 10BC     		pop	{r4}
  52              		.cfi_restore 4
  53              		.cfi_def_cfa_offset 0
  54 001c 7047     		bx	lr
  55              		.cfi_endproc
  56              	.LFE13:
  57              		.size	point_swap, .-point_swap
  58 001e 00BF     		.section	.text.lv_draw_triangle,"ax",%progbits
  59              		.align	2
  60              		.global	lv_draw_triangle
  61              		.thumb
  62              		.thumb_func
ARM GAS  C:\Users\d3bug\AppData\Local\Temp\ccojd9dS.s 			page 5


  63              		.type	lv_draw_triangle, %function
  64              	lv_draw_triangle:
  65              	.LFB12:
  44:..\lvgl\lv_draw/lv_draw_triangle.c ****     lv_point_t tri[3];
  66              		.loc 1 44 0
  67              		.cfi_startproc
  68              		@ args = 0, pretend = 0, frame = 72
  69              		@ frame_needed = 0, uses_anonymous_args = 0
  70              	.LVL1:
  71 0000 2DE9F04F 		push	{r4, r5, r6, r7, r8, r9, r10, fp, lr}
  72              		.cfi_def_cfa_offset 36
  73              		.cfi_offset 4, -36
  74              		.cfi_offset 5, -32
  75              		.cfi_offset 6, -28
  76              		.cfi_offset 7, -24
  77              		.cfi_offset 8, -20
  78              		.cfi_offset 9, -16
  79              		.cfi_offset 10, -12
  80              		.cfi_offset 11, -8
  81              		.cfi_offset 14, -4
  82 0004 93B0     		sub	sp, sp, #76
  83              		.cfi_def_cfa_offset 112
  84 0006 0446     		mov	r4, r0
  85 0008 0891     		str	r1, [sp, #32]
  86 000a 8DF82720 		strb	r2, [sp, #39]
  47:..\lvgl\lv_draw/lv_draw_triangle.c **** 
  87              		.loc 1 47 0
  88 000e 0FAB     		add	r3, sp, #60
  89 0010 0068     		ldr	r0, [r0]	@ unaligned
  90              	.LVL2:
  91 0012 6168     		ldr	r1, [r4, #4]	@ unaligned
  92              	.LVL3:
  93 0014 A268     		ldr	r2, [r4, #8]	@ unaligned
  94              	.LVL4:
  95 0016 07C3     		stmia	r3!, {r0, r1, r2}
  50:..\lvgl\lv_draw/lv_draw_triangle.c ****     if(tri[2].y < tri[1].y) point_swap(&tri[2], &tri[1]);
  96              		.loc 1 50 0
  97 0018 BDF94220 		ldrsh	r2, [sp, #66]
  98 001c BDF93E30 		ldrsh	r3, [sp, #62]
  99 0020 9A42     		cmp	r2, r3
 100 0022 03DA     		bge	.L4
  50:..\lvgl\lv_draw/lv_draw_triangle.c ****     if(tri[2].y < tri[1].y) point_swap(&tri[2], &tri[1]);
 101              		.loc 1 50 0 is_stmt 0 discriminator 1
 102 0024 0FA9     		add	r1, sp, #60
 103 0026 10A8     		add	r0, sp, #64
 104 0028 FFF7FEFF 		bl	point_swap
 105              	.LVL5:
 106              	.L4:
  51:..\lvgl\lv_draw/lv_draw_triangle.c ****     if(tri[1].y < tri[0].y) point_swap(&tri[1], &tri[0]);
 107              		.loc 1 51 0 is_stmt 1
 108 002c BDF94620 		ldrsh	r2, [sp, #70]
 109 0030 BDF94230 		ldrsh	r3, [sp, #66]
 110 0034 9A42     		cmp	r2, r3
 111 0036 03DA     		bge	.L5
  51:..\lvgl\lv_draw/lv_draw_triangle.c ****     if(tri[1].y < tri[0].y) point_swap(&tri[1], &tri[0]);
 112              		.loc 1 51 0 is_stmt 0 discriminator 1
 113 0038 10A9     		add	r1, sp, #64
ARM GAS  C:\Users\d3bug\AppData\Local\Temp\ccojd9dS.s 			page 6


 114 003a 11A8     		add	r0, sp, #68
 115 003c FFF7FEFF 		bl	point_swap
 116              	.LVL6:
 117              	.L5:
  52:..\lvgl\lv_draw/lv_draw_triangle.c **** 
 118              		.loc 1 52 0 is_stmt 1
 119 0040 BDF94220 		ldrsh	r2, [sp, #66]
 120 0044 BDF93E30 		ldrsh	r3, [sp, #62]
 121 0048 9A42     		cmp	r2, r3
 122 004a 03DA     		bge	.L6
  52:..\lvgl\lv_draw/lv_draw_triangle.c **** 
 123              		.loc 1 52 0 is_stmt 0 discriminator 1
 124 004c 0FA9     		add	r1, sp, #60
 125 004e 10A8     		add	r0, sp, #64
 126 0050 FFF7FEFF 		bl	point_swap
 127              	.LVL7:
 128              	.L6:
  55:..\lvgl\lv_draw/lv_draw_triangle.c ****     if(tri[1].x == tri[2].x && tri[1].y == tri[2].y) return;
 129              		.loc 1 55 0 is_stmt 1
 130 0054 BDF93C30 		ldrsh	r3, [sp, #60]
 131 0058 BDF94010 		ldrsh	r1, [sp, #64]
 132 005c 8B42     		cmp	r3, r1
 133 005e 06D1     		bne	.L7
  55:..\lvgl\lv_draw/lv_draw_triangle.c ****     if(tri[1].x == tri[2].x && tri[1].y == tri[2].y) return;
 134              		.loc 1 55 0 is_stmt 0 discriminator 1
 135 0060 BDF93E00 		ldrsh	r0, [sp, #62]
 136 0064 BDF94220 		ldrsh	r2, [sp, #66]
 137 0068 9042     		cmp	r0, r2
 138 006a 00F03581 		beq	.L3
 139              	.L7:
  56:..\lvgl\lv_draw/lv_draw_triangle.c ****     if(tri[0].x == tri[2].x && tri[0].y == tri[2].y) return;
 140              		.loc 1 56 0 is_stmt 1
 141 006e BDF94400 		ldrsh	r0, [sp, #68]
 142 0072 8142     		cmp	r1, r0
 143 0074 06D1     		bne	.L9
  56:..\lvgl\lv_draw/lv_draw_triangle.c ****     if(tri[0].x == tri[2].x && tri[0].y == tri[2].y) return;
 144              		.loc 1 56 0 is_stmt 0 discriminator 1
 145 0076 BDF94240 		ldrsh	r4, [sp, #66]
 146              	.LVL8:
 147 007a BDF94620 		ldrsh	r2, [sp, #70]
 148 007e 9442     		cmp	r4, r2
 149 0080 00F02A81 		beq	.L3
 150              	.L9:
  57:..\lvgl\lv_draw/lv_draw_triangle.c **** 
 151              		.loc 1 57 0 is_stmt 1
 152 0084 8342     		cmp	r3, r0
 153 0086 06D1     		bne	.L10
  57:..\lvgl\lv_draw/lv_draw_triangle.c **** 
 154              		.loc 1 57 0 is_stmt 0 discriminator 1
 155 0088 BDF93E40 		ldrsh	r4, [sp, #62]
 156 008c BDF94620 		ldrsh	r2, [sp, #70]
 157 0090 9442     		cmp	r4, r2
 158 0092 00F02181 		beq	.L3
 159              	.L10:
  59:..\lvgl\lv_draw/lv_draw_triangle.c ****     if(tri[0].y == tri[1].y && tri[1].y == tri[2].y) return;
 160              		.loc 1 59 0 is_stmt 1
 161 0096 8B42     		cmp	r3, r1
ARM GAS  C:\Users\d3bug\AppData\Local\Temp\ccojd9dS.s 			page 7


 162 0098 02D1     		bne	.L11
  59:..\lvgl\lv_draw/lv_draw_triangle.c ****     if(tri[0].y == tri[1].y && tri[1].y == tri[2].y) return;
 163              		.loc 1 59 0 is_stmt 0 discriminator 1
 164 009a 8142     		cmp	r1, r0
 165 009c 00F01C81 		beq	.L3
 166              	.L11:
  60:..\lvgl\lv_draw/lv_draw_triangle.c **** 
 167              		.loc 1 60 0 is_stmt 1
 168 00a0 BDF93E20 		ldrsh	r2, [sp, #62]
 169 00a4 BDF94240 		ldrsh	r4, [sp, #66]
 170 00a8 A242     		cmp	r2, r4
 171 00aa 04D1     		bne	.L12
  60:..\lvgl\lv_draw/lv_draw_triangle.c **** 
 172              		.loc 1 60 0 is_stmt 0 discriminator 1
 173 00ac BDF94650 		ldrsh	r5, [sp, #70]
 174 00b0 AC42     		cmp	r4, r5
 175 00b2 00F01181 		beq	.L3
 176              	.L12:
  64:..\lvgl\lv_draw/lv_draw_triangle.c ****     lv_coord_t sx1 = tri[0].x < tri[1].x ? 1 : -1;
 177              		.loc 1 64 0 is_stmt 1
 178 00b6 5E1A     		subs	r6, r3, r1
 179 00b8 002E     		cmp	r6, #0
 180 00ba B8BF     		it	lt
 181 00bc 7642     		rsblt	r6, r6, #0
 182 00be 36B2     		sxth	r6, r6
 183              	.LVL9:
  65:..\lvgl\lv_draw/lv_draw_triangle.c ****     lv_coord_t dy1 = LV_MATH_ABS(tri[0].y - tri[1].y);
 184              		.loc 1 65 0
 185 00c0 8B42     		cmp	r3, r1
 186 00c2 02DA     		bge	.L34
 187 00c4 0121     		movs	r1, #1
 188 00c6 0191     		str	r1, [sp, #4]
 189 00c8 02E0     		b	.L13
 190              	.L34:
 191 00ca 4FF0FF31 		mov	r1, #-1
 192 00ce 0191     		str	r1, [sp, #4]
 193              	.L13:
 194              	.LVL10:
  66:..\lvgl\lv_draw/lv_draw_triangle.c ****     lv_coord_t sy1 = tri[0].y < tri[1].y ? 1 : -1;
 195              		.loc 1 66 0 discriminator 4
 196 00d0 171B     		subs	r7, r2, r4
 197 00d2 002F     		cmp	r7, #0
 198 00d4 B8BF     		it	lt
 199 00d6 7F42     		rsblt	r7, r7, #0
 200 00d8 3FB2     		sxth	r7, r7
 201              	.LVL11:
  67:..\lvgl\lv_draw/lv_draw_triangle.c ****     lv_coord_t err1 = (dx1 > dy1 ? dx1 : -dy1) / 2;
 202              		.loc 1 67 0 discriminator 4
 203 00da A242     		cmp	r2, r4
 204 00dc 02DA     		bge	.L35
  67:..\lvgl\lv_draw/lv_draw_triangle.c ****     lv_coord_t err1 = (dx1 > dy1 ? dx1 : -dy1) / 2;
 205              		.loc 1 67 0 is_stmt 0
 206 00de 0121     		movs	r1, #1
 207 00e0 0291     		str	r1, [sp, #8]
 208 00e2 02E0     		b	.L14
 209              	.L35:
 210 00e4 4FF0FF31 		mov	r1, #-1
ARM GAS  C:\Users\d3bug\AppData\Local\Temp\ccojd9dS.s 			page 8


 211 00e8 0291     		str	r1, [sp, #8]
 212              	.L14:
 213              	.LVL12:
  68:..\lvgl\lv_draw/lv_draw_triangle.c ****     lv_coord_t err_tmp1;
 214              		.loc 1 68 0 is_stmt 1 discriminator 4
 215 00ea BE42     		cmp	r6, r7
 216 00ec 03DD     		ble	.L15
  68:..\lvgl\lv_draw/lv_draw_triangle.c ****     lv_coord_t err_tmp1;
 217              		.loc 1 68 0 is_stmt 0 discriminator 1
 218 00ee 06EBD674 		add	r4, r6, r6, lsr #31
 219 00f2 6410     		asrs	r4, r4, #1
 220 00f4 04E0     		b	.L16
 221              	.L15:
  68:..\lvgl\lv_draw/lv_draw_triangle.c ****     lv_coord_t err_tmp1;
 222              		.loc 1 68 0 discriminator 2
 223 00f6 7C42     		negs	r4, r7
 224 00f8 04EBD474 		add	r4, r4, r4, lsr #31
 225 00fc 44F34F04 		sbfx	r4, r4, #1, #16
 226              	.L16:
 227              	.LVL13:
  72:..\lvgl\lv_draw/lv_draw_triangle.c ****     lv_coord_t sx2 = tri[0].x < tri[2].x ? 1 : -1;
 228              		.loc 1 72 0 is_stmt 1 discriminator 4
 229 0100 191A     		subs	r1, r3, r0
 230 0102 0029     		cmp	r1, #0
 231 0104 B8BF     		it	lt
 232 0106 4942     		rsblt	r1, r1, #0
 233 0108 0491     		str	r1, [sp, #16]
 234 010a 0FFA81FB 		sxth	fp, r1
 235              	.LVL14:
  73:..\lvgl\lv_draw/lv_draw_triangle.c ****     lv_coord_t dy2 = LV_MATH_ABS(tri[0].y - tri[2].y);
 236              		.loc 1 73 0 discriminator 4
 237 010e 8342     		cmp	r3, r0
 238 0110 02DA     		bge	.L36
  73:..\lvgl\lv_draw/lv_draw_triangle.c ****     lv_coord_t dy2 = LV_MATH_ABS(tri[0].y - tri[2].y);
 239              		.loc 1 73 0 is_stmt 0
 240 0112 0121     		movs	r1, #1
 241 0114 0691     		str	r1, [sp, #24]
 242 0116 02E0     		b	.L17
 243              	.L36:
 244 0118 4FF0FF31 		mov	r1, #-1
 245 011c 0691     		str	r1, [sp, #24]
 246              	.L17:
 247              	.LVL15:
  74:..\lvgl\lv_draw/lv_draw_triangle.c ****     lv_coord_t sy2 = tri[0].y < tri[2].y ? 1 : -1;
 248              		.loc 1 74 0 is_stmt 1 discriminator 4
 249 011e BDF94610 		ldrsh	r1, [sp, #70]
 250 0122 501A     		subs	r0, r2, r1
 251 0124 0028     		cmp	r0, #0
 252 0126 B8BF     		it	lt
 253 0128 4042     		rsblt	r0, r0, #0
 254 012a 0590     		str	r0, [sp, #20]
 255 012c 0FFA80FA 		sxth	r10, r0
 256              	.LVL16:
  75:..\lvgl\lv_draw/lv_draw_triangle.c ****     lv_coord_t err2 = (dx1 > dy2 ? dx2 : -dy2) / 2;
 257              		.loc 1 75 0 discriminator 4
 258 0130 8A42     		cmp	r2, r1
 259 0132 02DA     		bge	.L37
ARM GAS  C:\Users\d3bug\AppData\Local\Temp\ccojd9dS.s 			page 9


  75:..\lvgl\lv_draw/lv_draw_triangle.c ****     lv_coord_t err2 = (dx1 > dy2 ? dx2 : -dy2) / 2;
 260              		.loc 1 75 0 is_stmt 0
 261 0134 0121     		movs	r1, #1
 262 0136 0791     		str	r1, [sp, #28]
 263 0138 02E0     		b	.L18
 264              	.L37:
 265 013a 4FF0FF31 		mov	r1, #-1
 266 013e 0791     		str	r1, [sp, #28]
 267              	.L18:
 268              	.LVL17:
  76:..\lvgl\lv_draw/lv_draw_triangle.c ****     lv_coord_t err_tmp2;
 269              		.loc 1 76 0 is_stmt 1 discriminator 4
 270 0140 5645     		cmp	r6, r10
 271 0142 03DD     		ble	.L19
  76:..\lvgl\lv_draw/lv_draw_triangle.c ****     lv_coord_t err_tmp2;
 272              		.loc 1 76 0 is_stmt 0 discriminator 1
 273 0144 0BEBDB75 		add	r5, fp, fp, lsr #31
 274 0148 6D10     		asrs	r5, r5, #1
 275 014a 05E0     		b	.L20
 276              	.L19:
  76:..\lvgl\lv_draw/lv_draw_triangle.c ****     lv_coord_t err_tmp2;
 277              		.loc 1 76 0 discriminator 2
 278 014c CAF10005 		rsb	r5, r10, #0
 279 0150 05EBD575 		add	r5, r5, r5, lsr #31
 280 0154 45F34F05 		sbfx	r5, r5, #1, #16
 281              	.L20:
 282              	.LVL18:
  82:..\lvgl\lv_draw/lv_draw_triangle.c ****     edge1.y = tri[0].y;
 283              		.loc 1 82 0 is_stmt 1 discriminator 4
 284 0158 ADF83830 		strh	r3, [sp, #56]	@ movhi
  83:..\lvgl\lv_draw/lv_draw_triangle.c ****     edge2.x = tri[0].x;
 285              		.loc 1 83 0 discriminator 4
 286 015c ADF83A20 		strh	r2, [sp, #58]	@ movhi
  84:..\lvgl\lv_draw/lv_draw_triangle.c ****     edge2.y = tri[0].y;
 287              		.loc 1 84 0 discriminator 4
 288 0160 ADF83430 		strh	r3, [sp, #52]	@ movhi
  85:..\lvgl\lv_draw/lv_draw_triangle.c ****     lv_area_t act_area;
 289              		.loc 1 85 0 discriminator 4
 290 0164 ADF83620 		strh	r2, [sp, #54]	@ movhi
 291 0168 0394     		str	r4, [sp, #12]
 292              	.LVL19:
 293              	.L33:
  90:..\lvgl\lv_draw/lv_draw_triangle.c ****         act_area.x2 = edge2.x ;
 294              		.loc 1 90 0
 295 016a BDF93820 		ldrsh	r2, [sp, #56]
  91:..\lvgl\lv_draw/lv_draw_triangle.c ****         act_area.y1 = edge1.y;
 296              		.loc 1 91 0
 297 016e BDF93430 		ldrsh	r3, [sp, #52]
  92:..\lvgl\lv_draw/lv_draw_triangle.c ****         act_area.y2 = edge2.y ;
 298              		.loc 1 92 0
 299 0172 BDF93A80 		ldrsh	r8, [sp, #58]
  93:..\lvgl\lv_draw/lv_draw_triangle.c **** 
 300              		.loc 1 93 0
 301 0176 BDF93690 		ldrsh	r9, [sp, #54]
  96:..\lvgl\lv_draw/lv_draw_triangle.c ****         draw_area.x2 = LV_MATH_MAX(act_area.x1, act_area.x2);
 302              		.loc 1 96 0
 303 017a 1146     		mov	r1, r2
ARM GAS  C:\Users\d3bug\AppData\Local\Temp\ccojd9dS.s 			page 10


 304 017c 9A42     		cmp	r2, r3
 305 017e A8BF     		it	ge
 306 0180 1946     		movge	r1, r3
 307 0182 ADF82C10 		strh	r1, [sp, #44]	@ movhi
  97:..\lvgl\lv_draw/lv_draw_triangle.c ****         draw_area.y1 = LV_MATH_MIN(act_area.y1, act_area.y2);
 308              		.loc 1 97 0
 309 0186 9342     		cmp	r3, r2
 310 0188 B8BF     		it	lt
 311 018a 1346     		movlt	r3, r2
  98:..\lvgl\lv_draw/lv_draw_triangle.c ****         draw_area.y2 = LV_MATH_MAX(act_area.y1, act_area.y2);
 312              		.loc 1 98 0
 313 018c 4246     		mov	r2, r8
 314 018e C845     		cmp	r8, r9
 315 0190 A8BF     		it	ge
 316 0192 4A46     		movge	r2, r9
 317 0194 ADF82E20 		strh	r2, [sp, #46]	@ movhi
  99:..\lvgl\lv_draw/lv_draw_triangle.c ****         draw_area.x2--; /*Do not draw most right pixel because it will be drawn by the adjacent tri
 318              		.loc 1 99 0
 319 0198 4246     		mov	r2, r8
 320 019a C845     		cmp	r8, r9
 321 019c B8BF     		it	lt
 322 019e 4A46     		movlt	r2, r9
 323 01a0 ADF83220 		strh	r2, [sp, #50]	@ movhi
 100:..\lvgl\lv_draw/lv_draw_triangle.c ****         fill_fp(&draw_area, mask, color, LV_OPA_50);
 324              		.loc 1 100 0
 325 01a4 013B     		subs	r3, r3, #1
 326 01a6 ADF83030 		strh	r3, [sp, #48]	@ movhi
 101:..\lvgl\lv_draw/lv_draw_triangle.c **** 
 327              		.loc 1 101 0
 328 01aa 4D4B     		ldr	r3, .L45
 329 01ac 1B68     		ldr	r3, [r3]
 330 01ae 1C46     		mov	r4, r3
 331 01b0 7F23     		movs	r3, #127
 332 01b2 9DF82720 		ldrb	r2, [sp, #39]	@ zero_extendqisi2
 333 01b6 0899     		ldr	r1, [sp, #32]
 334 01b8 0BA8     		add	r0, sp, #44
 335 01ba A047     		blx	r4
 336              	.LVL20:
 337 01bc 0199     		ldr	r1, [sp, #4]
 338 01be 0298     		ldr	r0, [sp, #8]
 339 01c0 039C     		ldr	r4, [sp, #12]
 340              	.LVL21:
 341              	.L28:
 106:..\lvgl\lv_draw/lv_draw_triangle.c **** 
 342              		.loc 1 106 0
 343 01c2 BDF93830 		ldrsh	r3, [sp, #56]
 344 01c6 BDF94020 		ldrsh	r2, [sp, #64]
 345 01ca 9342     		cmp	r3, r2
 346 01cc 2CD1     		bne	.L21
 106:..\lvgl\lv_draw/lv_draw_triangle.c **** 
 347              		.loc 1 106 0 is_stmt 0 discriminator 1
 348 01ce BDF93AC0 		ldrsh	ip, [sp, #58]
 349 01d2 BDF942E0 		ldrsh	lr, [sp, #66]
 350 01d6 F445     		cmp	ip, lr
 351 01d8 26D1     		bne	.L21
 108:..\lvgl\lv_draw/lv_draw_triangle.c ****                 sx1 = tri[1].x < tri[2].x ? 1 : -1;
 352              		.loc 1 108 0 is_stmt 1
ARM GAS  C:\Users\d3bug\AppData\Local\Temp\ccojd9dS.s 			page 11


 353 01da BDF94410 		ldrsh	r1, [sp, #68]
 354              	.LVL22:
 355 01de 561A     		subs	r6, r2, r1
 356              	.LVL23:
 357 01e0 002E     		cmp	r6, #0
 358 01e2 B8BF     		it	lt
 359 01e4 7642     		rsblt	r6, r6, #0
 360 01e6 36B2     		sxth	r6, r6
 361              	.LVL24:
 109:..\lvgl\lv_draw/lv_draw_triangle.c ****                 dy1 = LV_MATH_ABS(tri[1].y - tri[2].y);
 362              		.loc 1 109 0
 363 01e8 8A42     		cmp	r2, r1
 364 01ea 01DA     		bge	.L38
 365 01ec 0121     		movs	r1, #1
 366 01ee 01E0     		b	.L22
 367              	.L38:
 368 01f0 4FF0FF31 		mov	r1, #-1
 369              	.L22:
 370              	.LVL25:
 110:..\lvgl\lv_draw/lv_draw_triangle.c ****                 sy1 = tri[1].y < tri[2].y ? 1 : -1;
 371              		.loc 1 110 0 discriminator 4
 372 01f4 BDF94620 		ldrsh	r2, [sp, #70]
 373 01f8 C2EB0E07 		rsb	r7, r2, lr
 374              	.LVL26:
 375 01fc 002F     		cmp	r7, #0
 376 01fe B8BF     		it	lt
 377 0200 7F42     		rsblt	r7, r7, #0
 378 0202 3FB2     		sxth	r7, r7
 379              	.LVL27:
 111:..\lvgl\lv_draw/lv_draw_triangle.c ****                 err1 = (dx1 > dy1 ? dx1 : -dy1) / 2;
 380              		.loc 1 111 0 discriminator 4
 381 0204 9645     		cmp	lr, r2
 382 0206 01DA     		bge	.L39
 111:..\lvgl\lv_draw/lv_draw_triangle.c ****                 err1 = (dx1 > dy1 ? dx1 : -dy1) / 2;
 383              		.loc 1 111 0 is_stmt 0
 384 0208 0120     		movs	r0, #1
 385              	.LVL28:
 386 020a 01E0     		b	.L23
 387              	.LVL29:
 388              	.L39:
 389 020c 4FF0FF30 		mov	r0, #-1
 390              	.LVL30:
 391              	.L23:
 112:..\lvgl\lv_draw/lv_draw_triangle.c ****             } else if(edge1.x == tri[2].x && edge1.y == tri[2].y) return;
 392              		.loc 1 112 0 is_stmt 1 discriminator 4
 393 0210 BE42     		cmp	r6, r7
 394 0212 03DD     		ble	.L24
 112:..\lvgl\lv_draw/lv_draw_triangle.c ****             } else if(edge1.x == tri[2].x && edge1.y == tri[2].y) return;
 395              		.loc 1 112 0 is_stmt 0 discriminator 1
 396 0214 06EBD674 		add	r4, r6, r6, lsr #31
 397              	.LVL31:
 398 0218 6410     		asrs	r4, r4, #1
 399 021a 0FE0     		b	.L25
 400              	.LVL32:
 401              	.L24:
 112:..\lvgl\lv_draw/lv_draw_triangle.c ****             } else if(edge1.x == tri[2].x && edge1.y == tri[2].y) return;
 402              		.loc 1 112 0 discriminator 2
ARM GAS  C:\Users\d3bug\AppData\Local\Temp\ccojd9dS.s 			page 12


 403 021c 7C42     		negs	r4, r7
 404              	.LVL33:
 405 021e 04EBD474 		add	r4, r4, r4, lsr #31
 406 0222 44F34F04 		sbfx	r4, r4, #1, #16
 407 0226 09E0     		b	.L25
 408              	.LVL34:
 409              	.L21:
 113:..\lvgl\lv_draw/lv_draw_triangle.c ****             err_tmp1 = err1;
 410              		.loc 1 113 0 is_stmt 1
 411 0228 BDF94420 		ldrsh	r2, [sp, #68]
 412 022c 9342     		cmp	r3, r2
 413 022e 05D1     		bne	.L25
 113:..\lvgl\lv_draw/lv_draw_triangle.c ****             err_tmp1 = err1;
 414              		.loc 1 113 0 is_stmt 0 discriminator 1
 415 0230 BDF93AE0 		ldrsh	lr, [sp, #58]
 416 0234 BDF94620 		ldrsh	r2, [sp, #70]
 417 0238 9645     		cmp	lr, r2
 418 023a 4DD0     		beq	.L3
 419              	.LVL35:
 420              	.L25:
 115:..\lvgl\lv_draw/lv_draw_triangle.c ****                 err1 -= dy1;
 421              		.loc 1 115 0 is_stmt 1
 422 023c 7242     		negs	r2, r6
 423 023e 9442     		cmp	r4, r2
 424 0240 05DD     		ble	.L40
 116:..\lvgl\lv_draw/lv_draw_triangle.c ****                 edge1.x += sx1;
 425              		.loc 1 116 0
 426 0242 E21B     		subs	r2, r4, r7
 427 0244 12B2     		sxth	r2, r2
 428              	.LVL36:
 117:..\lvgl\lv_draw/lv_draw_triangle.c ****             }
 429              		.loc 1 117 0
 430 0246 0B44     		add	r3, r3, r1
 431 0248 ADF83830 		strh	r3, [sp, #56]	@ movhi
 432 024c 00E0     		b	.L26
 433              	.LVL37:
 434              	.L40:
 435 024e 2246     		mov	r2, r4
 436              	.LVL38:
 437              	.L26:
 119:..\lvgl\lv_draw/lv_draw_triangle.c ****                 err1 += dx1;
 438              		.loc 1 119 0
 439 0250 A742     		cmp	r7, r4
 440 0252 07DD     		ble	.L41
 120:..\lvgl\lv_draw/lv_draw_triangle.c ****                 edge1.y += sy1;
 441              		.loc 1 120 0
 442 0254 9419     		adds	r4, r2, r6
 443              	.LVL39:
 444 0256 24B2     		sxth	r4, r4
 445              	.LVL40:
 121:..\lvgl\lv_draw/lv_draw_triangle.c ****             }
 446              		.loc 1 121 0
 447 0258 BDF83A30 		ldrh	r3, [sp, #58]
 448 025c 0344     		add	r3, r3, r0
 449 025e ADF83A30 		strh	r3, [sp, #58]	@ movhi
 450 0262 00E0     		b	.L27
 451              	.LVL41:
ARM GAS  C:\Users\d3bug\AppData\Local\Temp\ccojd9dS.s 			page 13


 452              	.L41:
 453 0264 1446     		mov	r4, r2
 454              	.LVL42:
 455              	.L27:
 123:..\lvgl\lv_draw/lv_draw_triangle.c **** 
 456              		.loc 1 123 0
 457 0266 BDF93A30 		ldrsh	r3, [sp, #58]
 458 026a 9845     		cmp	r8, r3
 459 026c A9D0     		beq	.L28
 460 026e 0191     		str	r1, [sp, #4]
 461 0270 0290     		str	r0, [sp, #8]
 462 0272 069A     		ldr	r2, [sp, #24]
 463 0274 0799     		ldr	r1, [sp, #28]
 464              	.LVL43:
 465 0276 0498     		ldr	r0, [sp, #16]
 466              	.LVL44:
 467 0278 DDF814E0 		ldr	lr, [sp, #20]
 468              	.LVL45:
 469              	.L32:
 128:..\lvgl\lv_draw/lv_draw_triangle.c ****             err_tmp2 = err2;
 470              		.loc 1 128 0
 471 027c BDF934C0 		ldrsh	ip, [sp, #52]
 472 0280 BDF94430 		ldrsh	r3, [sp, #68]
 473 0284 9C45     		cmp	ip, r3
 474 0286 05D1     		bne	.L29
 128:..\lvgl\lv_draw/lv_draw_triangle.c ****             err_tmp2 = err2;
 475              		.loc 1 128 0 is_stmt 0 discriminator 1
 476 0288 BDF93680 		ldrsh	r8, [sp, #54]
 477 028c BDF94630 		ldrsh	r3, [sp, #70]
 478 0290 9845     		cmp	r8, r3
 479 0292 21D0     		beq	.L3
 480              	.L29:
 481              	.LVL46:
 130:..\lvgl\lv_draw/lv_draw_triangle.c ****                 err2 -= dy2;
 482              		.loc 1 130 0 is_stmt 1
 483 0294 CBF10003 		rsb	r3, fp, #0
 484 0298 9D42     		cmp	r5, r3
 485 029a 06DD     		ble	.L42
 131:..\lvgl\lv_draw/lv_draw_triangle.c ****                 edge2.x += sx2;
 486              		.loc 1 131 0
 487 029c CEEB0503 		rsb	r3, lr, r5
 488 02a0 1BB2     		sxth	r3, r3
 489              	.LVL47:
 132:..\lvgl\lv_draw/lv_draw_triangle.c ****             }
 490              		.loc 1 132 0
 491 02a2 9444     		add	ip, ip, r2
 492 02a4 ADF834C0 		strh	ip, [sp, #52]	@ movhi
 493 02a8 00E0     		b	.L30
 494              	.LVL48:
 495              	.L42:
 496 02aa 2B46     		mov	r3, r5
 497              	.LVL49:
 498              	.L30:
 134:..\lvgl\lv_draw/lv_draw_triangle.c ****                 err2 += dx2;
 499              		.loc 1 134 0
 500 02ac 5545     		cmp	r5, r10
 501 02ae 07DA     		bge	.L43
ARM GAS  C:\Users\d3bug\AppData\Local\Temp\ccojd9dS.s 			page 14


 135:..\lvgl\lv_draw/lv_draw_triangle.c ****                 edge2.y += sy2;
 502              		.loc 1 135 0
 503 02b0 1D18     		adds	r5, r3, r0
 504              	.LVL50:
 505 02b2 2DB2     		sxth	r5, r5
 506              	.LVL51:
 136:..\lvgl\lv_draw/lv_draw_triangle.c ****             }
 507              		.loc 1 136 0
 508 02b4 BDF83630 		ldrh	r3, [sp, #54]
 509 02b8 0B44     		add	r3, r3, r1
 510 02ba ADF83630 		strh	r3, [sp, #54]	@ movhi
 511 02be 00E0     		b	.L31
 512              	.LVL52:
 513              	.L43:
 514 02c0 1D46     		mov	r5, r3
 515              	.LVL53:
 516              	.L31:
 138:..\lvgl\lv_draw/lv_draw_triangle.c ****     }
 517              		.loc 1 138 0
 518 02c2 BDF93630 		ldrsh	r3, [sp, #54]
 519 02c6 9945     		cmp	r9, r3
 520 02c8 D8D0     		beq	.L32
 521 02ca 0394     		str	r4, [sp, #12]
 522 02cc 0692     		str	r2, [sp, #24]
 523 02ce 0791     		str	r1, [sp, #28]
 524 02d0 0490     		str	r0, [sp, #16]
 525 02d2 CDF814E0 		str	lr, [sp, #20]
 526 02d6 48E7     		b	.L33
 527              	.LVL54:
 528              	.L3:
 140:..\lvgl\lv_draw/lv_draw_triangle.c **** #endif
 529              		.loc 1 140 0
 530 02d8 13B0     		add	sp, sp, #76
 531              		.cfi_def_cfa_offset 36
 532              		@ sp needed
 533 02da BDE8F08F 		pop	{r4, r5, r6, r7, r8, r9, r10, fp, pc}
 534              	.LVL55:
 535              	.L46:
 536 02de 00BF     		.align	2
 537              	.L45:
 538 02e0 00000000 		.word	fill_fp
 539              		.cfi_endproc
 540              	.LFE12:
 541              		.size	lv_draw_triangle, .-lv_draw_triangle
 542              		.text
 543              	.Letext0:
 544              		.file 2 "c:\\program files (x86)\\cypress\\psoc creator\\4.2\\psoc creator\\import\\gnu\\arm\\5.4.
 545              		.file 3 "c:\\program files (x86)\\cypress\\psoc creator\\4.2\\psoc creator\\import\\gnu\\arm\\5.4.
 546              		.file 4 "..\\lvgl\\lv_draw\\../lv_core/../lv_misc/lv_color.h"
 547              		.file 5 "..\\lvgl\\lv_draw\\../lv_core/../lv_misc/lv_area.h"
 548              		.file 6 "..\\lvgl\\lv_draw\\lv_draw.h"