ARM GAS  C:\Users\d3bug\AppData\Local\Temp\ccD8CKMs.s 			page 1


   1              		.syntax unified
   2              		.cpu cortex-m3
   3              		.fpu softvfp
   4              		.eabi_attribute 20, 1
   5              		.eabi_attribute 21, 1
   6              		.eabi_attribute 23, 3
   7              		.eabi_attribute 24, 1
   8              		.eabi_attribute 25, 1
   9              		.eabi_attribute 26, 1
  10              		.eabi_attribute 30, 1
  11              		.eabi_attribute 34, 1
  12              		.eabi_attribute 18, 4
  13              		.thumb
  14              		.syntax unified
  15              		.file	"lv_draw_img.c"
  16              		.text
  17              	.Ltext0:
  18              		.cfi_sections	.debug_frame
  19              		.section	.text.lv_img_decoder_close,"ax",%progbits
  20              		.align	2
  21              		.thumb
  22              		.thumb_func
  23              		.type	lv_img_decoder_close, %function
  24              	lv_img_decoder_close:
  25              	.LFB22:
  26              		.file 1 "..\\lvgl\\lv_draw\\lv_draw_img.c"
   1:..\lvgl\lv_draw/lv_draw_img.c **** /**
   2:..\lvgl\lv_draw/lv_draw_img.c ****  * @file lv_draw_img.c
   3:..\lvgl\lv_draw/lv_draw_img.c ****  *
   4:..\lvgl\lv_draw/lv_draw_img.c ****  */
   5:..\lvgl\lv_draw/lv_draw_img.c **** 
   6:..\lvgl\lv_draw/lv_draw_img.c **** /*********************
   7:..\lvgl\lv_draw/lv_draw_img.c ****  *      INCLUDES
   8:..\lvgl\lv_draw/lv_draw_img.c ****  *********************/
   9:..\lvgl\lv_draw/lv_draw_img.c **** #include "lv_draw_img.h"
  10:..\lvgl\lv_draw/lv_draw_img.c **** #include "../lv_misc/lv_fs.h"
  11:..\lvgl\lv_draw/lv_draw_img.c **** 
  12:..\lvgl\lv_draw/lv_draw_img.c **** /*********************
  13:..\lvgl\lv_draw/lv_draw_img.c ****  *      DEFINES
  14:..\lvgl\lv_draw/lv_draw_img.c ****  *********************/
  15:..\lvgl\lv_draw/lv_draw_img.c **** 
  16:..\lvgl\lv_draw/lv_draw_img.c **** /**********************
  17:..\lvgl\lv_draw/lv_draw_img.c ****  *      TYPEDEFS
  18:..\lvgl\lv_draw/lv_draw_img.c ****  **********************/
  19:..\lvgl\lv_draw/lv_draw_img.c **** 
  20:..\lvgl\lv_draw/lv_draw_img.c **** /**********************
  21:..\lvgl\lv_draw/lv_draw_img.c ****  *  STATIC PROTOTYPES
  22:..\lvgl\lv_draw/lv_draw_img.c ****  **********************/
  23:..\lvgl\lv_draw/lv_draw_img.c **** static lv_res_t lv_img_draw_core(const lv_area_t * coords, const lv_area_t * mask,
  24:..\lvgl\lv_draw/lv_draw_img.c ****                                  const void * src, const lv_style_t * style, lv_opa_t opa_scale);
  25:..\lvgl\lv_draw/lv_draw_img.c **** 
  26:..\lvgl\lv_draw/lv_draw_img.c **** static const uint8_t * lv_img_decoder_open(const void * src, const lv_style_t * style);
  27:..\lvgl\lv_draw/lv_draw_img.c **** static lv_res_t lv_img_decoder_read_line(lv_coord_t x, lv_coord_t y, lv_coord_t len, uint8_t * buf)
  28:..\lvgl\lv_draw/lv_draw_img.c **** static void lv_img_decoder_close(void);
  29:..\lvgl\lv_draw/lv_draw_img.c **** static lv_res_t lv_img_built_in_decoder_line_alpha(lv_coord_t x, lv_coord_t y, lv_coord_t len, uint
  30:..\lvgl\lv_draw/lv_draw_img.c **** static lv_res_t lv_img_built_in_decoder_line_indexed(lv_coord_t x, lv_coord_t y, lv_coord_t len, ui
  31:..\lvgl\lv_draw/lv_draw_img.c **** 
ARM GAS  C:\Users\d3bug\AppData\Local\Temp\ccD8CKMs.s 			page 2


  32:..\lvgl\lv_draw/lv_draw_img.c **** /**********************
  33:..\lvgl\lv_draw/lv_draw_img.c ****  *  STATIC VARIABLES
  34:..\lvgl\lv_draw/lv_draw_img.c ****  **********************/
  35:..\lvgl\lv_draw/lv_draw_img.c **** static bool decoder_custom;
  36:..\lvgl\lv_draw/lv_draw_img.c **** static const void * decoder_src;
  37:..\lvgl\lv_draw/lv_draw_img.c **** static lv_img_src_t decoder_src_type;
  38:..\lvgl\lv_draw/lv_draw_img.c **** static lv_img_header_t decoder_header;
  39:..\lvgl\lv_draw/lv_draw_img.c **** static const lv_style_t * decoder_style;
  40:..\lvgl\lv_draw/lv_draw_img.c **** #if USE_LV_FILESYSTEM
  41:..\lvgl\lv_draw/lv_draw_img.c **** static lv_fs_file_t decoder_file;
  42:..\lvgl\lv_draw/lv_draw_img.c **** #endif
  43:..\lvgl\lv_draw/lv_draw_img.c **** #if LV_IMG_CF_INDEXED
  44:..\lvgl\lv_draw/lv_draw_img.c **** static lv_color_t decoder_index_map[256];
  45:..\lvgl\lv_draw/lv_draw_img.c **** #endif
  46:..\lvgl\lv_draw/lv_draw_img.c **** 
  47:..\lvgl\lv_draw/lv_draw_img.c **** static lv_img_decoder_info_f_t lv_img_decoder_info_custom;
  48:..\lvgl\lv_draw/lv_draw_img.c **** static lv_img_decoder_open_f_t lv_img_decoder_open_custom;
  49:..\lvgl\lv_draw/lv_draw_img.c **** static lv_img_decoder_read_line_f_t lv_img_decoder_read_line_custom;
  50:..\lvgl\lv_draw/lv_draw_img.c **** static lv_img_decoder_close_f_t lv_img_decoder_close_custom;
  51:..\lvgl\lv_draw/lv_draw_img.c **** 
  52:..\lvgl\lv_draw/lv_draw_img.c **** /**********************
  53:..\lvgl\lv_draw/lv_draw_img.c ****  *      MACROS
  54:..\lvgl\lv_draw/lv_draw_img.c ****  **********************/
  55:..\lvgl\lv_draw/lv_draw_img.c **** 
  56:..\lvgl\lv_draw/lv_draw_img.c **** /**********************
  57:..\lvgl\lv_draw/lv_draw_img.c ****  *   GLOBAL FUNCTIONS
  58:..\lvgl\lv_draw/lv_draw_img.c ****  **********************/
  59:..\lvgl\lv_draw/lv_draw_img.c **** 
  60:..\lvgl\lv_draw/lv_draw_img.c **** /**
  61:..\lvgl\lv_draw/lv_draw_img.c ****  * Draw an image
  62:..\lvgl\lv_draw/lv_draw_img.c ****  * @param coords the coordinates of the image
  63:..\lvgl\lv_draw/lv_draw_img.c ****  * @param mask the image will be drawn only in this area
  64:..\lvgl\lv_draw/lv_draw_img.c ****  * @param src pointer to a lv_color_t array which contains the pixels of the image
  65:..\lvgl\lv_draw/lv_draw_img.c ****  * @param style style of the image
  66:..\lvgl\lv_draw/lv_draw_img.c ****  * @param opa_scale scale down all opacities by the factor
  67:..\lvgl\lv_draw/lv_draw_img.c ****  */
  68:..\lvgl\lv_draw/lv_draw_img.c **** void lv_draw_img(const lv_area_t * coords, const lv_area_t * mask,
  69:..\lvgl\lv_draw/lv_draw_img.c ****                  const void * src, const lv_style_t * style, lv_opa_t opa_scale)
  70:..\lvgl\lv_draw/lv_draw_img.c **** {
  71:..\lvgl\lv_draw/lv_draw_img.c ****     if(src == NULL) {
  72:..\lvgl\lv_draw/lv_draw_img.c ****         LV_LOG_WARN("Image draw: src is NULL");
  73:..\lvgl\lv_draw/lv_draw_img.c ****         lv_draw_rect(coords, mask, &lv_style_plain, LV_OPA_COVER);
  74:..\lvgl\lv_draw/lv_draw_img.c ****         lv_draw_label(coords, mask, &lv_style_plain, LV_OPA_COVER, "No\ndata", LV_TXT_FLAG_NONE, NU
  75:..\lvgl\lv_draw/lv_draw_img.c ****         return;
  76:..\lvgl\lv_draw/lv_draw_img.c ****     }
  77:..\lvgl\lv_draw/lv_draw_img.c **** 
  78:..\lvgl\lv_draw/lv_draw_img.c ****     lv_res_t res;
  79:..\lvgl\lv_draw/lv_draw_img.c ****     res = lv_img_draw_core(coords, mask, src, style, opa_scale);
  80:..\lvgl\lv_draw/lv_draw_img.c **** 
  81:..\lvgl\lv_draw/lv_draw_img.c ****     if(res ==  LV_RES_INV) {
  82:..\lvgl\lv_draw/lv_draw_img.c ****         LV_LOG_WARN("Image draw error");
  83:..\lvgl\lv_draw/lv_draw_img.c ****         lv_draw_rect(coords, mask, &lv_style_plain, LV_OPA_COVER);
  84:..\lvgl\lv_draw/lv_draw_img.c ****         lv_draw_label(coords, mask, &lv_style_plain, LV_OPA_COVER, "No\ndata", LV_TXT_FLAG_NONE, NU
  85:..\lvgl\lv_draw/lv_draw_img.c ****         return;
  86:..\lvgl\lv_draw/lv_draw_img.c ****     }
  87:..\lvgl\lv_draw/lv_draw_img.c **** }
  88:..\lvgl\lv_draw/lv_draw_img.c **** 
ARM GAS  C:\Users\d3bug\AppData\Local\Temp\ccD8CKMs.s 			page 3


  89:..\lvgl\lv_draw/lv_draw_img.c **** 
  90:..\lvgl\lv_draw/lv_draw_img.c **** /**
  91:..\lvgl\lv_draw/lv_draw_img.c ****  *
  92:..\lvgl\lv_draw/lv_draw_img.c ****  * @param src
  93:..\lvgl\lv_draw/lv_draw_img.c ****  * @param header
  94:..\lvgl\lv_draw/lv_draw_img.c ****  * @param style
  95:..\lvgl\lv_draw/lv_draw_img.c ****  * @return
  96:..\lvgl\lv_draw/lv_draw_img.c ****  */
  97:..\lvgl\lv_draw/lv_draw_img.c **** lv_res_t lv_img_dsc_get_info(const char * src, lv_img_header_t * header)
  98:..\lvgl\lv_draw/lv_draw_img.c **** {
  99:..\lvgl\lv_draw/lv_draw_img.c ****     header->always_zero = 0;
 100:..\lvgl\lv_draw/lv_draw_img.c ****     /*Try to get info with the custom functions first*/
 101:..\lvgl\lv_draw/lv_draw_img.c ****     if(lv_img_decoder_info_custom) {
 102:..\lvgl\lv_draw/lv_draw_img.c ****         lv_res_t custom_res;
 103:..\lvgl\lv_draw/lv_draw_img.c ****         custom_res = lv_img_decoder_info_custom(src, header);
 104:..\lvgl\lv_draw/lv_draw_img.c ****         if(custom_res == LV_RES_OK) return LV_RES_OK;       /*Custom info has supported this source
 105:..\lvgl\lv_draw/lv_draw_img.c ****     }
 106:..\lvgl\lv_draw/lv_draw_img.c **** 
 107:..\lvgl\lv_draw/lv_draw_img.c ****     lv_img_src_t src_type = lv_img_src_get_type(src);
 108:..\lvgl\lv_draw/lv_draw_img.c ****     if(src_type == LV_IMG_SRC_VARIABLE) {
 109:..\lvgl\lv_draw/lv_draw_img.c ****         header->w = ((lv_img_dsc_t *)src)->header.w;
 110:..\lvgl\lv_draw/lv_draw_img.c ****         header->h = ((lv_img_dsc_t *)src)->header.h;
 111:..\lvgl\lv_draw/lv_draw_img.c ****         header->cf = ((lv_img_dsc_t *)src)->header.cf;
 112:..\lvgl\lv_draw/lv_draw_img.c ****     }
 113:..\lvgl\lv_draw/lv_draw_img.c **** #if USE_LV_FILESYSTEM
 114:..\lvgl\lv_draw/lv_draw_img.c ****     else if(src_type == LV_IMG_SRC_FILE) {
 115:..\lvgl\lv_draw/lv_draw_img.c ****         lv_fs_file_t file;
 116:..\lvgl\lv_draw/lv_draw_img.c ****         lv_fs_res_t res;
 117:..\lvgl\lv_draw/lv_draw_img.c ****         uint32_t rn;
 118:..\lvgl\lv_draw/lv_draw_img.c ****         res = lv_fs_open(&file, src, LV_FS_MODE_RD);
 119:..\lvgl\lv_draw/lv_draw_img.c ****         if(res == LV_FS_RES_OK) {
 120:..\lvgl\lv_draw/lv_draw_img.c ****             res = lv_fs_read(&file, header, sizeof(lv_img_header_t), &rn);
 121:..\lvgl\lv_draw/lv_draw_img.c ****         }
 122:..\lvgl\lv_draw/lv_draw_img.c **** 
 123:..\lvgl\lv_draw/lv_draw_img.c ****         /*Create a dummy header on fs error*/
 124:..\lvgl\lv_draw/lv_draw_img.c ****         if(res != LV_FS_RES_OK || rn != sizeof(lv_img_header_t)) {
 125:..\lvgl\lv_draw/lv_draw_img.c ****             header->w = LV_DPI;
 126:..\lvgl\lv_draw/lv_draw_img.c ****             header->h = LV_DPI;
 127:..\lvgl\lv_draw/lv_draw_img.c ****             header->cf = LV_IMG_CF_UNKOWN;
 128:..\lvgl\lv_draw/lv_draw_img.c ****         }
 129:..\lvgl\lv_draw/lv_draw_img.c **** 
 130:..\lvgl\lv_draw/lv_draw_img.c ****         lv_fs_close(&file);
 131:..\lvgl\lv_draw/lv_draw_img.c ****     }
 132:..\lvgl\lv_draw/lv_draw_img.c **** #endif
 133:..\lvgl\lv_draw/lv_draw_img.c ****     else if(src_type == LV_IMG_SRC_SYMBOL) {
 134:..\lvgl\lv_draw/lv_draw_img.c ****         /*The size depend on the font but it is unknown here. It should be handled outside of the f
 135:..\lvgl\lv_draw/lv_draw_img.c ****         header->w = 1;
 136:..\lvgl\lv_draw/lv_draw_img.c ****         header->h = 1;
 137:..\lvgl\lv_draw/lv_draw_img.c ****         /* Symbols always have transparent parts. Important because of cover check in the design fu
 138:..\lvgl\lv_draw/lv_draw_img.c ****          * The actual value doesn't matter because lv_draw_label will draw it*/
 139:..\lvgl\lv_draw/lv_draw_img.c ****         header->cf  = LV_IMG_CF_ALPHA_1BIT;
 140:..\lvgl\lv_draw/lv_draw_img.c ****     } else {
 141:..\lvgl\lv_draw/lv_draw_img.c ****         LV_LOG_WARN("Image get info found unknown src type");
 142:..\lvgl\lv_draw/lv_draw_img.c ****         return false;
 143:..\lvgl\lv_draw/lv_draw_img.c ****     }
 144:..\lvgl\lv_draw/lv_draw_img.c ****     return true;
 145:..\lvgl\lv_draw/lv_draw_img.c **** 
ARM GAS  C:\Users\d3bug\AppData\Local\Temp\ccD8CKMs.s 			page 4


 146:..\lvgl\lv_draw/lv_draw_img.c **** }
 147:..\lvgl\lv_draw/lv_draw_img.c **** 
 148:..\lvgl\lv_draw/lv_draw_img.c **** uint8_t lv_img_color_format_get_px_size(lv_img_cf_t cf)
 149:..\lvgl\lv_draw/lv_draw_img.c **** {
 150:..\lvgl\lv_draw/lv_draw_img.c ****     uint8_t px_size = 0;
 151:..\lvgl\lv_draw/lv_draw_img.c **** 
 152:..\lvgl\lv_draw/lv_draw_img.c ****     switch(cf) {
 153:..\lvgl\lv_draw/lv_draw_img.c ****         case LV_IMG_CF_UNKOWN:
 154:..\lvgl\lv_draw/lv_draw_img.c ****         case LV_IMG_CF_RAW:
 155:..\lvgl\lv_draw/lv_draw_img.c ****             px_size = 0;
 156:..\lvgl\lv_draw/lv_draw_img.c ****             break;
 157:..\lvgl\lv_draw/lv_draw_img.c ****         case LV_IMG_CF_TRUE_COLOR:
 158:..\lvgl\lv_draw/lv_draw_img.c ****         case LV_IMG_CF_TRUE_COLOR_CHROMA_KEYED:
 159:..\lvgl\lv_draw/lv_draw_img.c ****             px_size = LV_COLOR_SIZE;
 160:..\lvgl\lv_draw/lv_draw_img.c ****             break;
 161:..\lvgl\lv_draw/lv_draw_img.c ****         case LV_IMG_CF_TRUE_COLOR_ALPHA:
 162:..\lvgl\lv_draw/lv_draw_img.c ****             px_size = LV_IMG_PX_SIZE_ALPHA_BYTE << 3;
 163:..\lvgl\lv_draw/lv_draw_img.c ****             break;
 164:..\lvgl\lv_draw/lv_draw_img.c ****         case LV_IMG_CF_INDEXED_1BIT:
 165:..\lvgl\lv_draw/lv_draw_img.c ****         case LV_IMG_CF_ALPHA_1BIT:
 166:..\lvgl\lv_draw/lv_draw_img.c ****             px_size = 1;
 167:..\lvgl\lv_draw/lv_draw_img.c ****             break;
 168:..\lvgl\lv_draw/lv_draw_img.c ****         case LV_IMG_CF_INDEXED_2BIT:
 169:..\lvgl\lv_draw/lv_draw_img.c ****         case LV_IMG_CF_ALPHA_2BIT:
 170:..\lvgl\lv_draw/lv_draw_img.c ****             px_size = 2;
 171:..\lvgl\lv_draw/lv_draw_img.c ****             break;
 172:..\lvgl\lv_draw/lv_draw_img.c ****         case LV_IMG_CF_INDEXED_4BIT:
 173:..\lvgl\lv_draw/lv_draw_img.c ****         case LV_IMG_CF_ALPHA_4BIT:
 174:..\lvgl\lv_draw/lv_draw_img.c ****             px_size = 4;
 175:..\lvgl\lv_draw/lv_draw_img.c ****             break;
 176:..\lvgl\lv_draw/lv_draw_img.c ****         case LV_IMG_CF_INDEXED_8BIT:
 177:..\lvgl\lv_draw/lv_draw_img.c ****         case LV_IMG_CF_ALPHA_8BIT:
 178:..\lvgl\lv_draw/lv_draw_img.c ****             px_size = 8;
 179:..\lvgl\lv_draw/lv_draw_img.c ****             break;
 180:..\lvgl\lv_draw/lv_draw_img.c ****         default:
 181:..\lvgl\lv_draw/lv_draw_img.c ****             px_size = 0;
 182:..\lvgl\lv_draw/lv_draw_img.c ****             break;
 183:..\lvgl\lv_draw/lv_draw_img.c ****     }
 184:..\lvgl\lv_draw/lv_draw_img.c **** 
 185:..\lvgl\lv_draw/lv_draw_img.c ****     return px_size;
 186:..\lvgl\lv_draw/lv_draw_img.c **** }
 187:..\lvgl\lv_draw/lv_draw_img.c **** 
 188:..\lvgl\lv_draw/lv_draw_img.c **** bool lv_img_color_format_is_chroma_keyed(lv_img_cf_t cf)
 189:..\lvgl\lv_draw/lv_draw_img.c **** {
 190:..\lvgl\lv_draw/lv_draw_img.c ****     bool is_chroma_keyed = false;
 191:..\lvgl\lv_draw/lv_draw_img.c **** 
 192:..\lvgl\lv_draw/lv_draw_img.c ****     switch(cf) {
 193:..\lvgl\lv_draw/lv_draw_img.c ****         case LV_IMG_CF_TRUE_COLOR_CHROMA_KEYED:
 194:..\lvgl\lv_draw/lv_draw_img.c ****         case LV_IMG_CF_RAW_CHROMA_KEYED:
 195:..\lvgl\lv_draw/lv_draw_img.c ****         case LV_IMG_CF_INDEXED_1BIT:
 196:..\lvgl\lv_draw/lv_draw_img.c ****         case LV_IMG_CF_INDEXED_2BIT:
 197:..\lvgl\lv_draw/lv_draw_img.c ****         case LV_IMG_CF_INDEXED_4BIT:
 198:..\lvgl\lv_draw/lv_draw_img.c ****         case LV_IMG_CF_INDEXED_8BIT:
 199:..\lvgl\lv_draw/lv_draw_img.c ****             is_chroma_keyed = true;
 200:..\lvgl\lv_draw/lv_draw_img.c ****             break;
 201:..\lvgl\lv_draw/lv_draw_img.c ****         default:
 202:..\lvgl\lv_draw/lv_draw_img.c ****             is_chroma_keyed = false;
ARM GAS  C:\Users\d3bug\AppData\Local\Temp\ccD8CKMs.s 			page 5


 203:..\lvgl\lv_draw/lv_draw_img.c ****             break;
 204:..\lvgl\lv_draw/lv_draw_img.c ****     }
 205:..\lvgl\lv_draw/lv_draw_img.c **** 
 206:..\lvgl\lv_draw/lv_draw_img.c ****     return is_chroma_keyed;
 207:..\lvgl\lv_draw/lv_draw_img.c **** }
 208:..\lvgl\lv_draw/lv_draw_img.c **** 
 209:..\lvgl\lv_draw/lv_draw_img.c **** 
 210:..\lvgl\lv_draw/lv_draw_img.c **** bool lv_img_color_format_has_alpha(lv_img_cf_t cf)
 211:..\lvgl\lv_draw/lv_draw_img.c **** {
 212:..\lvgl\lv_draw/lv_draw_img.c ****     bool has_alpha = false;
 213:..\lvgl\lv_draw/lv_draw_img.c **** 
 214:..\lvgl\lv_draw/lv_draw_img.c ****     switch(cf) {
 215:..\lvgl\lv_draw/lv_draw_img.c ****         case LV_IMG_CF_TRUE_COLOR_ALPHA:
 216:..\lvgl\lv_draw/lv_draw_img.c ****         case LV_IMG_CF_RAW_ALPHA:
 217:..\lvgl\lv_draw/lv_draw_img.c ****         case LV_IMG_CF_ALPHA_1BIT:
 218:..\lvgl\lv_draw/lv_draw_img.c ****         case LV_IMG_CF_ALPHA_2BIT:
 219:..\lvgl\lv_draw/lv_draw_img.c ****         case LV_IMG_CF_ALPHA_4BIT:
 220:..\lvgl\lv_draw/lv_draw_img.c ****         case LV_IMG_CF_ALPHA_8BIT:
 221:..\lvgl\lv_draw/lv_draw_img.c ****             has_alpha = true;
 222:..\lvgl\lv_draw/lv_draw_img.c ****             break;
 223:..\lvgl\lv_draw/lv_draw_img.c ****         default:
 224:..\lvgl\lv_draw/lv_draw_img.c ****             has_alpha = false;
 225:..\lvgl\lv_draw/lv_draw_img.c ****             break;
 226:..\lvgl\lv_draw/lv_draw_img.c ****     }
 227:..\lvgl\lv_draw/lv_draw_img.c **** 
 228:..\lvgl\lv_draw/lv_draw_img.c ****     return has_alpha;
 229:..\lvgl\lv_draw/lv_draw_img.c **** }
 230:..\lvgl\lv_draw/lv_draw_img.c **** 
 231:..\lvgl\lv_draw/lv_draw_img.c **** /**
 232:..\lvgl\lv_draw/lv_draw_img.c ****  * Get the type of an image source
 233:..\lvgl\lv_draw/lv_draw_img.c ****  * @param src pointer to an image source:
 234:..\lvgl\lv_draw/lv_draw_img.c ****  *  - pointer to an 'lv_img_t' variable (image stored internally and compiled into the code)
 235:..\lvgl\lv_draw/lv_draw_img.c ****  *  - a path to a file (e.g. "S:/folder/image.bin")
 236:..\lvgl\lv_draw/lv_draw_img.c ****  *  - or a symbol (e.g. SYMBOL_CLOSE)
 237:..\lvgl\lv_draw/lv_draw_img.c ****  * @return type of the image source LV_IMG_SRC_VARIABLE/FILE/SYMBOL/UNKOWN
 238:..\lvgl\lv_draw/lv_draw_img.c ****  */
 239:..\lvgl\lv_draw/lv_draw_img.c **** lv_img_src_t lv_img_src_get_type(const void * src)
 240:..\lvgl\lv_draw/lv_draw_img.c **** {
 241:..\lvgl\lv_draw/lv_draw_img.c ****     lv_img_src_t img_src_type = LV_IMG_SRC_UNKNOWN;
 242:..\lvgl\lv_draw/lv_draw_img.c **** 
 243:..\lvgl\lv_draw/lv_draw_img.c ****     if(src == NULL) return img_src_type;
 244:..\lvgl\lv_draw/lv_draw_img.c ****     const uint8_t * u8_p = src;
 245:..\lvgl\lv_draw/lv_draw_img.c **** 
 246:..\lvgl\lv_draw/lv_draw_img.c ****     /*The first byte shows the type of the image source*/
 247:..\lvgl\lv_draw/lv_draw_img.c ****     if(u8_p[0] >= 0x20 && u8_p[0] <= 0x7F) {
 248:..\lvgl\lv_draw/lv_draw_img.c ****         img_src_type = LV_IMG_SRC_FILE;     /*If it's an ASCII character then it's file name*/
 249:..\lvgl\lv_draw/lv_draw_img.c ****     } else if(u8_p[0] >= 0x80) {
 250:..\lvgl\lv_draw/lv_draw_img.c ****         img_src_type = LV_IMG_SRC_SYMBOL;   /*Symbols begins after 0x7F*/
 251:..\lvgl\lv_draw/lv_draw_img.c ****     } else {
 252:..\lvgl\lv_draw/lv_draw_img.c ****         img_src_type = LV_IMG_SRC_VARIABLE; /*`lv_img_dsc_t` is design to the first byte < 0x20*/
 253:..\lvgl\lv_draw/lv_draw_img.c ****     }
 254:..\lvgl\lv_draw/lv_draw_img.c **** 
 255:..\lvgl\lv_draw/lv_draw_img.c ****     if (LV_IMG_SRC_UNKNOWN == img_src_type) {
 256:..\lvgl\lv_draw/lv_draw_img.c ****         LV_LOG_WARN("lv_img_src_get_type: unknown image type");
 257:..\lvgl\lv_draw/lv_draw_img.c ****     }
 258:..\lvgl\lv_draw/lv_draw_img.c **** 
 259:..\lvgl\lv_draw/lv_draw_img.c ****     return img_src_type;
ARM GAS  C:\Users\d3bug\AppData\Local\Temp\ccD8CKMs.s 			page 6


 260:..\lvgl\lv_draw/lv_draw_img.c **** }
 261:..\lvgl\lv_draw/lv_draw_img.c **** 
 262:..\lvgl\lv_draw/lv_draw_img.c **** /**
 263:..\lvgl\lv_draw/lv_draw_img.c ****  * Set custom decoder functions. See the typdefs of the function typed above for more info about th
 264:..\lvgl\lv_draw/lv_draw_img.c ****  * @param info_fp info get function
 265:..\lvgl\lv_draw/lv_draw_img.c ****  * @param open_fp open function
 266:..\lvgl\lv_draw/lv_draw_img.c ****  * @param read_fp read line function
 267:..\lvgl\lv_draw/lv_draw_img.c ****  * @param close_fp clode function
 268:..\lvgl\lv_draw/lv_draw_img.c ****  */
 269:..\lvgl\lv_draw/lv_draw_img.c **** void lv_img_decoder_set_custom(lv_img_decoder_info_f_t  info_fp, lv_img_decoder_open_f_t  open_fp,
 270:..\lvgl\lv_draw/lv_draw_img.c ****                                lv_img_decoder_read_line_f_t read_fp, lv_img_decoder_close_f_t close
 271:..\lvgl\lv_draw/lv_draw_img.c **** {
 272:..\lvgl\lv_draw/lv_draw_img.c ****     lv_img_decoder_info_custom = info_fp;
 273:..\lvgl\lv_draw/lv_draw_img.c ****     lv_img_decoder_open_custom = open_fp;
 274:..\lvgl\lv_draw/lv_draw_img.c ****     lv_img_decoder_read_line_custom = read_fp;
 275:..\lvgl\lv_draw/lv_draw_img.c ****     lv_img_decoder_close_custom = close_fp;
 276:..\lvgl\lv_draw/lv_draw_img.c **** }
 277:..\lvgl\lv_draw/lv_draw_img.c **** 
 278:..\lvgl\lv_draw/lv_draw_img.c **** 
 279:..\lvgl\lv_draw/lv_draw_img.c **** /**********************
 280:..\lvgl\lv_draw/lv_draw_img.c ****  *   STATIC FUNCTIONS
 281:..\lvgl\lv_draw/lv_draw_img.c ****  **********************/
 282:..\lvgl\lv_draw/lv_draw_img.c **** 
 283:..\lvgl\lv_draw/lv_draw_img.c **** 
 284:..\lvgl\lv_draw/lv_draw_img.c **** static lv_res_t lv_img_draw_core(const lv_area_t * coords, const lv_area_t * mask,
 285:..\lvgl\lv_draw/lv_draw_img.c ****                                  const void * src, const lv_style_t * style, lv_opa_t opa_scale)
 286:..\lvgl\lv_draw/lv_draw_img.c **** {
 287:..\lvgl\lv_draw/lv_draw_img.c **** 
 288:..\lvgl\lv_draw/lv_draw_img.c ****     lv_area_t mask_com;    /*Common area of mask and coords*/
 289:..\lvgl\lv_draw/lv_draw_img.c ****     bool union_ok;
 290:..\lvgl\lv_draw/lv_draw_img.c ****     union_ok = lv_area_intersect(&mask_com, mask, coords);
 291:..\lvgl\lv_draw/lv_draw_img.c ****     if(union_ok == false) {
 292:..\lvgl\lv_draw/lv_draw_img.c ****         return LV_RES_OK;         /*Out of mask. There is nothing to draw so the image is drawn suc
 293:..\lvgl\lv_draw/lv_draw_img.c ****     }
 294:..\lvgl\lv_draw/lv_draw_img.c **** 
 295:..\lvgl\lv_draw/lv_draw_img.c ****     lv_opa_t opa = opa_scale == LV_OPA_COVER ? style->image.opa : (uint16_t)((uint16_t) style->imag
 296:..\lvgl\lv_draw/lv_draw_img.c **** 
 297:..\lvgl\lv_draw/lv_draw_img.c ****     lv_img_header_t header;
 298:..\lvgl\lv_draw/lv_draw_img.c ****     lv_res_t header_res;
 299:..\lvgl\lv_draw/lv_draw_img.c ****     header_res = lv_img_dsc_get_info(src, &header);
 300:..\lvgl\lv_draw/lv_draw_img.c ****     if(header_res != LV_RES_OK) {
 301:..\lvgl\lv_draw/lv_draw_img.c ****         LV_LOG_WARN("Image draw can't get image info");
 302:..\lvgl\lv_draw/lv_draw_img.c ****         lv_img_decoder_close();
 303:..\lvgl\lv_draw/lv_draw_img.c ****         return LV_RES_INV;
 304:..\lvgl\lv_draw/lv_draw_img.c ****     }
 305:..\lvgl\lv_draw/lv_draw_img.c **** 
 306:..\lvgl\lv_draw/lv_draw_img.c ****     bool chroma_keyed = lv_img_color_format_is_chroma_keyed(header.cf);
 307:..\lvgl\lv_draw/lv_draw_img.c ****     bool alpha_byte = lv_img_color_format_has_alpha(header.cf);
 308:..\lvgl\lv_draw/lv_draw_img.c **** 
 309:..\lvgl\lv_draw/lv_draw_img.c ****     const uint8_t * img_data = lv_img_decoder_open(src, style);
 310:..\lvgl\lv_draw/lv_draw_img.c ****     if(img_data == LV_IMG_DECODER_OPEN_FAIL) {
 311:..\lvgl\lv_draw/lv_draw_img.c ****         LV_LOG_WARN("Image draw cannot open the image resource");
 312:..\lvgl\lv_draw/lv_draw_img.c ****         lv_img_decoder_close();
 313:..\lvgl\lv_draw/lv_draw_img.c ****         return LV_RES_INV;
 314:..\lvgl\lv_draw/lv_draw_img.c ****     }
 315:..\lvgl\lv_draw/lv_draw_img.c **** 
 316:..\lvgl\lv_draw/lv_draw_img.c ****     /* The decoder open could open the image and gave the entire uncompressed image.
ARM GAS  C:\Users\d3bug\AppData\Local\Temp\ccD8CKMs.s 			page 7


 317:..\lvgl\lv_draw/lv_draw_img.c ****      * Just draw it!*/
 318:..\lvgl\lv_draw/lv_draw_img.c ****     if(img_data) {
 319:..\lvgl\lv_draw/lv_draw_img.c ****         map_fp(coords, mask, img_data, opa, chroma_keyed, alpha_byte, style->image.color, style->im
 320:..\lvgl\lv_draw/lv_draw_img.c ****     }
 321:..\lvgl\lv_draw/lv_draw_img.c ****     /* The whole uncompressed image is not available. Try to read it line-by-line*/
 322:..\lvgl\lv_draw/lv_draw_img.c ****     else {
 323:..\lvgl\lv_draw/lv_draw_img.c ****         lv_coord_t width = lv_area_get_width(&mask_com);
 324:..\lvgl\lv_draw/lv_draw_img.c **** 
 325:..\lvgl\lv_draw/lv_draw_img.c **** #if LV_COMPILER_VLA_SUPPORTED
 326:..\lvgl\lv_draw/lv_draw_img.c ****         uint8_t buf[(lv_area_get_width(&mask_com) * ((LV_COLOR_DEPTH >> 3) + 1))];
 327:..\lvgl\lv_draw/lv_draw_img.c **** #else
 328:..\lvgl\lv_draw/lv_draw_img.c ****         uint8_t buf[LV_HOR_RES * ((LV_COLOR_DEPTH >> 3) + 1)];  /*+1 because of the possible alpha 
 329:..\lvgl\lv_draw/lv_draw_img.c **** #endif
 330:..\lvgl\lv_draw/lv_draw_img.c ****         lv_area_t line;
 331:..\lvgl\lv_draw/lv_draw_img.c ****         lv_area_copy(&line, &mask_com);
 332:..\lvgl\lv_draw/lv_draw_img.c ****         lv_area_set_height(&line, 1);
 333:..\lvgl\lv_draw/lv_draw_img.c ****         lv_coord_t x = mask_com.x1 - coords->x1;
 334:..\lvgl\lv_draw/lv_draw_img.c ****         lv_coord_t y = mask_com.y1 - coords->y1;
 335:..\lvgl\lv_draw/lv_draw_img.c ****         lv_coord_t row;
 336:..\lvgl\lv_draw/lv_draw_img.c ****         lv_res_t read_res;
 337:..\lvgl\lv_draw/lv_draw_img.c ****         for(row = mask_com.y1; row <= mask_com.y2; row++) {
 338:..\lvgl\lv_draw/lv_draw_img.c ****             read_res = lv_img_decoder_read_line(x, y, width, buf);
 339:..\lvgl\lv_draw/lv_draw_img.c ****             if(read_res != LV_RES_OK) {
 340:..\lvgl\lv_draw/lv_draw_img.c ****                 lv_img_decoder_close();
 341:..\lvgl\lv_draw/lv_draw_img.c ****                 LV_LOG_WARN("Image draw can't read the line");
 342:..\lvgl\lv_draw/lv_draw_img.c ****                 return LV_RES_INV;
 343:..\lvgl\lv_draw/lv_draw_img.c ****             }
 344:..\lvgl\lv_draw/lv_draw_img.c ****             map_fp(&line, mask, buf, opa, chroma_keyed, alpha_byte, style->image.color, style->imag
 345:..\lvgl\lv_draw/lv_draw_img.c ****             line.y1++;
 346:..\lvgl\lv_draw/lv_draw_img.c ****             line.y2++;
 347:..\lvgl\lv_draw/lv_draw_img.c ****             y++;
 348:..\lvgl\lv_draw/lv_draw_img.c ****         }
 349:..\lvgl\lv_draw/lv_draw_img.c ****     }
 350:..\lvgl\lv_draw/lv_draw_img.c **** 
 351:..\lvgl\lv_draw/lv_draw_img.c ****     lv_img_decoder_close();
 352:..\lvgl\lv_draw/lv_draw_img.c **** 
 353:..\lvgl\lv_draw/lv_draw_img.c ****     return LV_RES_OK;
 354:..\lvgl\lv_draw/lv_draw_img.c **** }
 355:..\lvgl\lv_draw/lv_draw_img.c **** 
 356:..\lvgl\lv_draw/lv_draw_img.c **** 
 357:..\lvgl\lv_draw/lv_draw_img.c **** static const uint8_t * lv_img_decoder_open(const void * src, const lv_style_t * style)
 358:..\lvgl\lv_draw/lv_draw_img.c **** {
 359:..\lvgl\lv_draw/lv_draw_img.c ****     decoder_custom = false;
 360:..\lvgl\lv_draw/lv_draw_img.c **** 
 361:..\lvgl\lv_draw/lv_draw_img.c ****     /*Try to open with the custom functions first*/
 362:..\lvgl\lv_draw/lv_draw_img.c ****     if(lv_img_decoder_open_custom) {
 363:..\lvgl\lv_draw/lv_draw_img.c ****         const uint8_t * custom_res;
 364:..\lvgl\lv_draw/lv_draw_img.c ****         custom_res = lv_img_decoder_open_custom(src, style);
 365:..\lvgl\lv_draw/lv_draw_img.c ****         if(custom_res != LV_IMG_DECODER_OPEN_FAIL) {
 366:..\lvgl\lv_draw/lv_draw_img.c ****             decoder_custom = true;  /*Mark that custom decoder function should be used for this img
 367:..\lvgl\lv_draw/lv_draw_img.c ****             return custom_res;      /*Custom open supported this source*/
 368:..\lvgl\lv_draw/lv_draw_img.c ****         }
 369:..\lvgl\lv_draw/lv_draw_img.c ****     }
 370:..\lvgl\lv_draw/lv_draw_img.c **** 
 371:..\lvgl\lv_draw/lv_draw_img.c ****     decoder_src = src;
 372:..\lvgl\lv_draw/lv_draw_img.c ****     decoder_style = style;
 373:..\lvgl\lv_draw/lv_draw_img.c ****     decoder_src_type = lv_img_src_get_type(src);
ARM GAS  C:\Users\d3bug\AppData\Local\Temp\ccD8CKMs.s 			page 8


 374:..\lvgl\lv_draw/lv_draw_img.c **** 
 375:..\lvgl\lv_draw/lv_draw_img.c ****     lv_res_t header_res;
 376:..\lvgl\lv_draw/lv_draw_img.c ****     header_res = lv_img_dsc_get_info(src, &decoder_header);
 377:..\lvgl\lv_draw/lv_draw_img.c ****     if(header_res == LV_RES_INV) {
 378:..\lvgl\lv_draw/lv_draw_img.c ****         decoder_src = NULL;
 379:..\lvgl\lv_draw/lv_draw_img.c ****         decoder_src_type = LV_IMG_SRC_UNKNOWN;
 380:..\lvgl\lv_draw/lv_draw_img.c ****         LV_LOG_WARN("Built-in image decoder can't get the header info");
 381:..\lvgl\lv_draw/lv_draw_img.c ****         return LV_IMG_DECODER_OPEN_FAIL;
 382:..\lvgl\lv_draw/lv_draw_img.c ****     }
 383:..\lvgl\lv_draw/lv_draw_img.c **** 
 384:..\lvgl\lv_draw/lv_draw_img.c ****     /*Open the file if it's a file*/
 385:..\lvgl\lv_draw/lv_draw_img.c ****     if(decoder_src_type == LV_IMG_SRC_FILE) {
 386:..\lvgl\lv_draw/lv_draw_img.c **** #if USE_LV_FILESYSTEM
 387:..\lvgl\lv_draw/lv_draw_img.c ****         lv_fs_res_t res = lv_fs_open(&decoder_file, src, LV_FS_MODE_RD);
 388:..\lvgl\lv_draw/lv_draw_img.c ****         if(res != LV_FS_RES_OK) {
 389:..\lvgl\lv_draw/lv_draw_img.c ****             LV_LOG_WARN("Built-in image decoder can't open the file");
 390:..\lvgl\lv_draw/lv_draw_img.c ****             return LV_IMG_DECODER_OPEN_FAIL;
 391:..\lvgl\lv_draw/lv_draw_img.c ****         }
 392:..\lvgl\lv_draw/lv_draw_img.c **** #else
 393:..\lvgl\lv_draw/lv_draw_img.c ****         LV_LOG_WARN("Image built-in decoder can read file because USE_LV_FILESYSTEM = 0");
 394:..\lvgl\lv_draw/lv_draw_img.c ****         return LV_IMG_DECODER_OPEN_FAIL;
 395:..\lvgl\lv_draw/lv_draw_img.c **** #endif
 396:..\lvgl\lv_draw/lv_draw_img.c ****     }
 397:..\lvgl\lv_draw/lv_draw_img.c **** 
 398:..\lvgl\lv_draw/lv_draw_img.c **** 
 399:..\lvgl\lv_draw/lv_draw_img.c ****     /*Process the different color formats*/
 400:..\lvgl\lv_draw/lv_draw_img.c ****     lv_img_cf_t cf = decoder_header.cf;
 401:..\lvgl\lv_draw/lv_draw_img.c ****     if(cf == LV_IMG_CF_TRUE_COLOR ||
 402:..\lvgl\lv_draw/lv_draw_img.c ****             cf == LV_IMG_CF_TRUE_COLOR_ALPHA ||
 403:..\lvgl\lv_draw/lv_draw_img.c ****             cf == LV_IMG_CF_TRUE_COLOR_CHROMA_KEYED) {
 404:..\lvgl\lv_draw/lv_draw_img.c ****         if(decoder_src_type == LV_IMG_SRC_VARIABLE) {
 405:..\lvgl\lv_draw/lv_draw_img.c ****             /*In case of uncompressed formats if the image stored in the ROM/RAM simply give it's p
 406:..\lvgl\lv_draw/lv_draw_img.c ****             return ((lv_img_dsc_t *)decoder_src)->data;
 407:..\lvgl\lv_draw/lv_draw_img.c ****         } else {
 408:..\lvgl\lv_draw/lv_draw_img.c ****             /*If it's file it need to be read line by line later*/
 409:..\lvgl\lv_draw/lv_draw_img.c ****             return NULL;
 410:..\lvgl\lv_draw/lv_draw_img.c ****         }
 411:..\lvgl\lv_draw/lv_draw_img.c ****     } else if(cf == LV_IMG_CF_INDEXED_1BIT ||
 412:..\lvgl\lv_draw/lv_draw_img.c ****               cf == LV_IMG_CF_INDEXED_2BIT ||
 413:..\lvgl\lv_draw/lv_draw_img.c ****               cf == LV_IMG_CF_INDEXED_4BIT ||
 414:..\lvgl\lv_draw/lv_draw_img.c ****               cf == LV_IMG_CF_INDEXED_8BIT) {
 415:..\lvgl\lv_draw/lv_draw_img.c **** 
 416:..\lvgl\lv_draw/lv_draw_img.c **** #if LV_IMG_CF_INDEXED
 417:..\lvgl\lv_draw/lv_draw_img.c **** #if USE_LV_FILESYSTEM
 418:..\lvgl\lv_draw/lv_draw_img.c ****         lv_color32_t palette_file[256];
 419:..\lvgl\lv_draw/lv_draw_img.c **** #endif
 420:..\lvgl\lv_draw/lv_draw_img.c **** 
 421:..\lvgl\lv_draw/lv_draw_img.c ****         lv_color32_t * palette_p = NULL;
 422:..\lvgl\lv_draw/lv_draw_img.c ****         uint8_t px_size = lv_img_color_format_get_px_size(cf);
 423:..\lvgl\lv_draw/lv_draw_img.c ****         uint32_t palette_size = 1 << px_size;
 424:..\lvgl\lv_draw/lv_draw_img.c **** 
 425:..\lvgl\lv_draw/lv_draw_img.c ****         if(decoder_src_type == LV_IMG_SRC_FILE) {
 426:..\lvgl\lv_draw/lv_draw_img.c ****             /*Read the palette from file*/
 427:..\lvgl\lv_draw/lv_draw_img.c **** #if USE_LV_FILESYSTEM
 428:..\lvgl\lv_draw/lv_draw_img.c ****             lv_fs_seek(&decoder_file, 4);   /*Skip the header*/
 429:..\lvgl\lv_draw/lv_draw_img.c ****             lv_fs_read(&decoder_file, palette_file, palette_size * sizeof(lv_color32_t), NULL);
 430:..\lvgl\lv_draw/lv_draw_img.c ****             palette_p = palette_file;
ARM GAS  C:\Users\d3bug\AppData\Local\Temp\ccD8CKMs.s 			page 9


 431:..\lvgl\lv_draw/lv_draw_img.c **** #else
 432:..\lvgl\lv_draw/lv_draw_img.c ****             LV_LOG_WARN("Image built-in decoder can read the palette because USE_LV_FILESYSTEM = 0"
 433:..\lvgl\lv_draw/lv_draw_img.c ****             return LV_IMG_DECODER_OPEN_FAIL;
 434:..\lvgl\lv_draw/lv_draw_img.c **** #endif
 435:..\lvgl\lv_draw/lv_draw_img.c ****         } else {
 436:..\lvgl\lv_draw/lv_draw_img.c ****             /*The palette begins in the beginning of the image data. Just point to it.*/
 437:..\lvgl\lv_draw/lv_draw_img.c ****             palette_p = (lv_color32_t *)((lv_img_dsc_t *)decoder_src)->data;
 438:..\lvgl\lv_draw/lv_draw_img.c ****         }
 439:..\lvgl\lv_draw/lv_draw_img.c **** 
 440:..\lvgl\lv_draw/lv_draw_img.c ****         uint32_t i;
 441:..\lvgl\lv_draw/lv_draw_img.c ****         for(i = 0; i < palette_size; i++) {
 442:..\lvgl\lv_draw/lv_draw_img.c ****             decoder_index_map[i] = LV_COLOR_MAKE(palette_p[i].red, palette_p[i].green, palette_p[i]
 443:..\lvgl\lv_draw/lv_draw_img.c ****         }
 444:..\lvgl\lv_draw/lv_draw_img.c ****         return NULL;
 445:..\lvgl\lv_draw/lv_draw_img.c **** #else
 446:..\lvgl\lv_draw/lv_draw_img.c ****         LV_LOG_WARN("Indexed (palette) images are not enabled in lv_conf.h. See LV_IMG_CF_INDEXED")
 447:..\lvgl\lv_draw/lv_draw_img.c ****         return LV_IMG_DECODER_OPEN_FAIL;
 448:..\lvgl\lv_draw/lv_draw_img.c **** #endif
 449:..\lvgl\lv_draw/lv_draw_img.c ****     } else if(cf == LV_IMG_CF_ALPHA_1BIT ||
 450:..\lvgl\lv_draw/lv_draw_img.c ****               cf == LV_IMG_CF_ALPHA_2BIT ||
 451:..\lvgl\lv_draw/lv_draw_img.c ****               cf == LV_IMG_CF_ALPHA_4BIT ||
 452:..\lvgl\lv_draw/lv_draw_img.c ****               cf == LV_IMG_CF_ALPHA_8BIT) {
 453:..\lvgl\lv_draw/lv_draw_img.c **** #if LV_IMG_CF_ALPHA
 454:..\lvgl\lv_draw/lv_draw_img.c ****         return NULL;   /*Nothing to process*/
 455:..\lvgl\lv_draw/lv_draw_img.c **** #else
 456:..\lvgl\lv_draw/lv_draw_img.c ****         LV_LOG_WARN("Alpha indexed images are not enabled in lv_conf.h. See LV_IMG_CF_ALPHA");
 457:..\lvgl\lv_draw/lv_draw_img.c ****         return LV_IMG_DECODER_OPEN_FAIL;
 458:..\lvgl\lv_draw/lv_draw_img.c **** #endif
 459:..\lvgl\lv_draw/lv_draw_img.c ****     } else {
 460:..\lvgl\lv_draw/lv_draw_img.c ****         LV_LOG_WARN("Image decoder open: unknown color format")
 461:..\lvgl\lv_draw/lv_draw_img.c ****         return LV_IMG_DECODER_OPEN_FAIL;
 462:..\lvgl\lv_draw/lv_draw_img.c ****     }
 463:..\lvgl\lv_draw/lv_draw_img.c **** }
 464:..\lvgl\lv_draw/lv_draw_img.c **** 
 465:..\lvgl\lv_draw/lv_draw_img.c **** 
 466:..\lvgl\lv_draw/lv_draw_img.c **** static lv_res_t lv_img_decoder_read_line(lv_coord_t x, lv_coord_t y, lv_coord_t len, uint8_t * buf)
 467:..\lvgl\lv_draw/lv_draw_img.c **** {
 468:..\lvgl\lv_draw/lv_draw_img.c ****     /*Try to read the line with the custom functions*/
 469:..\lvgl\lv_draw/lv_draw_img.c ****     if(decoder_custom) {
 470:..\lvgl\lv_draw/lv_draw_img.c ****         if(lv_img_decoder_read_line_custom) {
 471:..\lvgl\lv_draw/lv_draw_img.c ****             lv_res_t custom_res;
 472:..\lvgl\lv_draw/lv_draw_img.c ****             custom_res = lv_img_decoder_read_line_custom(x, y, len, buf);
 473:..\lvgl\lv_draw/lv_draw_img.c ****             return custom_res;
 474:..\lvgl\lv_draw/lv_draw_img.c ****         } else {
 475:..\lvgl\lv_draw/lv_draw_img.c ****             LV_LOG_WARN("Image open with custom decoder but read not supported")
 476:..\lvgl\lv_draw/lv_draw_img.c ****         }
 477:..\lvgl\lv_draw/lv_draw_img.c ****         return LV_RES_INV;  /*It"s an error if not returned earlier*/
 478:..\lvgl\lv_draw/lv_draw_img.c ****     }
 479:..\lvgl\lv_draw/lv_draw_img.c **** 
 480:..\lvgl\lv_draw/lv_draw_img.c ****     if(decoder_src_type == LV_IMG_SRC_FILE) {
 481:..\lvgl\lv_draw/lv_draw_img.c **** #if USE_LV_FILESYSTEM
 482:..\lvgl\lv_draw/lv_draw_img.c ****         uint8_t px_size = lv_img_color_format_get_px_size(decoder_header.cf);
 483:..\lvgl\lv_draw/lv_draw_img.c **** 
 484:..\lvgl\lv_draw/lv_draw_img.c ****         lv_fs_res_t res;
 485:..\lvgl\lv_draw/lv_draw_img.c **** 
 486:..\lvgl\lv_draw/lv_draw_img.c ****         if(decoder_header.cf == LV_IMG_CF_TRUE_COLOR ||
 487:..\lvgl\lv_draw/lv_draw_img.c ****                 decoder_header.cf == LV_IMG_CF_TRUE_COLOR_ALPHA ||
ARM GAS  C:\Users\d3bug\AppData\Local\Temp\ccD8CKMs.s 			page 10


 488:..\lvgl\lv_draw/lv_draw_img.c ****                 decoder_header.cf == LV_IMG_CF_TRUE_COLOR_CHROMA_KEYED) {
 489:..\lvgl\lv_draw/lv_draw_img.c ****             uint32_t pos = ((y * decoder_header.w + x) * px_size) >> 3;
 490:..\lvgl\lv_draw/lv_draw_img.c ****             pos += 4;    /*Skip the header*/
 491:..\lvgl\lv_draw/lv_draw_img.c ****             res = lv_fs_seek(&decoder_file, pos);
 492:..\lvgl\lv_draw/lv_draw_img.c ****             if(res != LV_FS_RES_OK) {
 493:..\lvgl\lv_draw/lv_draw_img.c ****                 LV_LOG_WARN("Built-in image decoder seek failed");
 494:..\lvgl\lv_draw/lv_draw_img.c ****                 return false;
 495:..\lvgl\lv_draw/lv_draw_img.c ****             }
 496:..\lvgl\lv_draw/lv_draw_img.c ****             uint32_t btr = len * (px_size >> 3);
 497:..\lvgl\lv_draw/lv_draw_img.c ****             uint32_t br = 0;
 498:..\lvgl\lv_draw/lv_draw_img.c ****             lv_fs_read(&decoder_file, buf, btr, &br);
 499:..\lvgl\lv_draw/lv_draw_img.c ****             if(res != LV_FS_RES_OK || btr != br) {
 500:..\lvgl\lv_draw/lv_draw_img.c ****                 LV_LOG_WARN("Built-in image decoder read failed");
 501:..\lvgl\lv_draw/lv_draw_img.c ****                 return false;
 502:..\lvgl\lv_draw/lv_draw_img.c ****             }
 503:..\lvgl\lv_draw/lv_draw_img.c ****         } else if(decoder_header.cf == LV_IMG_CF_ALPHA_1BIT ||
 504:..\lvgl\lv_draw/lv_draw_img.c ****                   decoder_header.cf == LV_IMG_CF_ALPHA_2BIT ||
 505:..\lvgl\lv_draw/lv_draw_img.c ****                   decoder_header.cf == LV_IMG_CF_ALPHA_4BIT ||
 506:..\lvgl\lv_draw/lv_draw_img.c ****                   decoder_header.cf == LV_IMG_CF_ALPHA_8BIT) {
 507:..\lvgl\lv_draw/lv_draw_img.c **** 
 508:..\lvgl\lv_draw/lv_draw_img.c ****             lv_img_built_in_decoder_line_alpha(x, y, len, buf);
 509:..\lvgl\lv_draw/lv_draw_img.c ****         } else if(decoder_header.cf == LV_IMG_CF_INDEXED_1BIT ||
 510:..\lvgl\lv_draw/lv_draw_img.c ****                   decoder_header.cf == LV_IMG_CF_INDEXED_2BIT ||
 511:..\lvgl\lv_draw/lv_draw_img.c ****                   decoder_header.cf == LV_IMG_CF_INDEXED_4BIT ||
 512:..\lvgl\lv_draw/lv_draw_img.c ****                   decoder_header.cf == LV_IMG_CF_INDEXED_8BIT) {
 513:..\lvgl\lv_draw/lv_draw_img.c ****             lv_img_built_in_decoder_line_indexed(x, y, len, buf);
 514:..\lvgl\lv_draw/lv_draw_img.c ****         } else {
 515:..\lvgl\lv_draw/lv_draw_img.c ****             LV_LOG_WARN("Built-in image decoder read not supports the color format");
 516:..\lvgl\lv_draw/lv_draw_img.c ****             return false;
 517:..\lvgl\lv_draw/lv_draw_img.c ****         }
 518:..\lvgl\lv_draw/lv_draw_img.c **** #else
 519:..\lvgl\lv_draw/lv_draw_img.c ****         LV_LOG_WARN("Image built-in decoder can't read file because USE_LV_FILESYSTEM = 0");
 520:..\lvgl\lv_draw/lv_draw_img.c ****         return false;
 521:..\lvgl\lv_draw/lv_draw_img.c **** #endif
 522:..\lvgl\lv_draw/lv_draw_img.c ****     } else if(decoder_src_type == LV_IMG_SRC_VARIABLE) {
 523:..\lvgl\lv_draw/lv_draw_img.c ****         const lv_img_dsc_t * img_dsc = decoder_src;
 524:..\lvgl\lv_draw/lv_draw_img.c **** 
 525:..\lvgl\lv_draw/lv_draw_img.c ****         if(img_dsc->header.cf == LV_IMG_CF_ALPHA_1BIT ||
 526:..\lvgl\lv_draw/lv_draw_img.c ****                 img_dsc->header.cf == LV_IMG_CF_ALPHA_2BIT ||
 527:..\lvgl\lv_draw/lv_draw_img.c ****                 img_dsc->header.cf == LV_IMG_CF_ALPHA_4BIT ||
 528:..\lvgl\lv_draw/lv_draw_img.c ****                 img_dsc->header.cf == LV_IMG_CF_ALPHA_8BIT) {
 529:..\lvgl\lv_draw/lv_draw_img.c ****             lv_img_built_in_decoder_line_alpha(x, y, len, buf);
 530:..\lvgl\lv_draw/lv_draw_img.c ****         } else if(img_dsc->header.cf == LV_IMG_CF_INDEXED_1BIT ||
 531:..\lvgl\lv_draw/lv_draw_img.c ****                   img_dsc->header.cf == LV_IMG_CF_INDEXED_2BIT ||
 532:..\lvgl\lv_draw/lv_draw_img.c ****                   img_dsc->header.cf == LV_IMG_CF_INDEXED_4BIT ||
 533:..\lvgl\lv_draw/lv_draw_img.c ****                   img_dsc->header.cf == LV_IMG_CF_INDEXED_8BIT) {
 534:..\lvgl\lv_draw/lv_draw_img.c ****             lv_img_built_in_decoder_line_indexed(x, y, len, buf);
 535:..\lvgl\lv_draw/lv_draw_img.c ****         } else {
 536:..\lvgl\lv_draw/lv_draw_img.c ****             LV_LOG_WARN("Built-in image decoder not supports the color format");
 537:..\lvgl\lv_draw/lv_draw_img.c ****             return false;
 538:..\lvgl\lv_draw/lv_draw_img.c ****         }
 539:..\lvgl\lv_draw/lv_draw_img.c ****     }
 540:..\lvgl\lv_draw/lv_draw_img.c **** 
 541:..\lvgl\lv_draw/lv_draw_img.c ****     return true;
 542:..\lvgl\lv_draw/lv_draw_img.c **** }
 543:..\lvgl\lv_draw/lv_draw_img.c **** 
 544:..\lvgl\lv_draw/lv_draw_img.c **** static void lv_img_decoder_close(void)
ARM GAS  C:\Users\d3bug\AppData\Local\Temp\ccD8CKMs.s 			page 11


 545:..\lvgl\lv_draw/lv_draw_img.c **** {
  27              		.loc 1 545 0
  28              		.cfi_startproc
  29              		@ args = 0, pretend = 0, frame = 0
  30              		@ frame_needed = 0, uses_anonymous_args = 0
  31 0000 08B5     		push	{r3, lr}
  32              		.cfi_def_cfa_offset 8
  33              		.cfi_offset 3, -8
  34              		.cfi_offset 14, -4
 546:..\lvgl\lv_draw/lv_draw_img.c ****     /*Try to close with the custom functions*/
 547:..\lvgl\lv_draw/lv_draw_img.c ****     if(decoder_custom) {
  35              		.loc 1 547 0
  36 0002 084B     		ldr	r3, .L5
  37 0004 1B78     		ldrb	r3, [r3]	@ zero_extendqisi2
  38 0006 23B1     		cbz	r3, .L2
 548:..\lvgl\lv_draw/lv_draw_img.c ****         if(lv_img_decoder_close_custom) lv_img_decoder_close_custom();
  39              		.loc 1 548 0
  40 0008 064B     		ldr	r3, .L5
  41 000a 5B68     		ldr	r3, [r3, #4]
  42 000c 4BB1     		cbz	r3, .L1
  43              		.loc 1 548 0 is_stmt 0 discriminator 1
  44 000e 9847     		blx	r3
  45              	.LVL0:
  46 0010 08BD     		pop	{r3, pc}
  47              	.L2:
 549:..\lvgl\lv_draw/lv_draw_img.c ****         return;
 550:..\lvgl\lv_draw/lv_draw_img.c ****     }
 551:..\lvgl\lv_draw/lv_draw_img.c **** 
 552:..\lvgl\lv_draw/lv_draw_img.c ****     /*It was opened with built-in decoder*/
 553:..\lvgl\lv_draw/lv_draw_img.c ****     if(decoder_src) {
  48              		.loc 1 553 0 is_stmt 1
  49 0012 044B     		ldr	r3, .L5
  50 0014 9B68     		ldr	r3, [r3, #8]
  51 0016 23B1     		cbz	r3, .L1
 554:..\lvgl\lv_draw/lv_draw_img.c **** #if USE_LV_FILESYSTEM
 555:..\lvgl\lv_draw/lv_draw_img.c ****         if(decoder_src_type == LV_IMG_SRC_FILE) {
 556:..\lvgl\lv_draw/lv_draw_img.c ****             lv_fs_close(&decoder_file);
 557:..\lvgl\lv_draw/lv_draw_img.c ****         }
 558:..\lvgl\lv_draw/lv_draw_img.c **** #endif
 559:..\lvgl\lv_draw/lv_draw_img.c ****         decoder_src_type = LV_IMG_SRC_UNKNOWN;
  52              		.loc 1 559 0
  53 0018 024B     		ldr	r3, .L5
  54 001a 0322     		movs	r2, #3
  55 001c 1A73     		strb	r2, [r3, #12]
 560:..\lvgl\lv_draw/lv_draw_img.c ****         decoder_src = NULL;
  56              		.loc 1 560 0
  57 001e 0022     		movs	r2, #0
  58 0020 9A60     		str	r2, [r3, #8]
  59              	.L1:
  60 0022 08BD     		pop	{r3, pc}
  61              	.L6:
  62              		.align	2
  63              	.L5:
  64 0024 00000000 		.word	.LANCHOR0
  65              		.cfi_endproc
  66              	.LFE22:
  67              		.size	lv_img_decoder_close, .-lv_img_decoder_close
ARM GAS  C:\Users\d3bug\AppData\Local\Temp\ccD8CKMs.s 			page 12


  68              		.section	.text.lv_img_built_in_decoder_line_alpha,"ax",%progbits
  69              		.align	2
  70              		.thumb
  71              		.thumb_func
  72              		.type	lv_img_built_in_decoder_line_alpha, %function
  73              	lv_img_built_in_decoder_line_alpha:
  74              	.LFB23:
 561:..\lvgl\lv_draw/lv_draw_img.c ****     }
 562:..\lvgl\lv_draw/lv_draw_img.c **** }
 563:..\lvgl\lv_draw/lv_draw_img.c **** 
 564:..\lvgl\lv_draw/lv_draw_img.c **** static lv_res_t lv_img_built_in_decoder_line_alpha(lv_coord_t x, lv_coord_t y, lv_coord_t len, uint
 565:..\lvgl\lv_draw/lv_draw_img.c **** {
  75              		.loc 1 565 0
  76              		.cfi_startproc
  77              		@ args = 0, pretend = 0, frame = 0
  78              		@ frame_needed = 0, uses_anonymous_args = 0
  79              	.LVL1:
  80 0000 08B5     		push	{r3, lr}
  81              		.cfi_def_cfa_offset 8
  82              		.cfi_offset 3, -8
  83              		.cfi_offset 14, -4
 566:..\lvgl\lv_draw/lv_draw_img.c **** 
 567:..\lvgl\lv_draw/lv_draw_img.c **** #if LV_IMG_CF_ALPHA
 568:..\lvgl\lv_draw/lv_draw_img.c ****     const lv_opa_t alpha1_opa_table[2] =  {0, 255};                   /*Opacity mapping with bpp = 
 569:..\lvgl\lv_draw/lv_draw_img.c ****     const lv_opa_t alpha2_opa_table[4] =  {0, 85, 170, 255};          /*Opacity mapping with bpp = 
 570:..\lvgl\lv_draw/lv_draw_img.c ****     const lv_opa_t alpha4_opa_table[16] = {0,   17,  34,  51,         /*Opacity mapping with bpp = 
 571:..\lvgl\lv_draw/lv_draw_img.c ****                                            68,  85,  102, 119,
 572:..\lvgl\lv_draw/lv_draw_img.c ****                                            136, 153, 170, 187,
 573:..\lvgl\lv_draw/lv_draw_img.c ****                                            204, 221, 238, 255
 574:..\lvgl\lv_draw/lv_draw_img.c ****                                           };
 575:..\lvgl\lv_draw/lv_draw_img.c **** 
 576:..\lvgl\lv_draw/lv_draw_img.c ****     /*Simply fill the buffer with the color. Later only the alpha value will be modified.*/
 577:..\lvgl\lv_draw/lv_draw_img.c ****     lv_color_t bg_color = decoder_style->image.color;
 578:..\lvgl\lv_draw/lv_draw_img.c ****     lv_coord_t i;
 579:..\lvgl\lv_draw/lv_draw_img.c ****     for(i = 0; i < len; i++) {
 580:..\lvgl\lv_draw/lv_draw_img.c **** #if LV_COLOR_DEPTH == 8 || LV_COLOR_DEPTH == 1
 581:..\lvgl\lv_draw/lv_draw_img.c ****         buf[i * LV_IMG_PX_SIZE_ALPHA_BYTE] = bg_color.full;
 582:..\lvgl\lv_draw/lv_draw_img.c **** #elif LV_COLOR_DEPTH == 16
 583:..\lvgl\lv_draw/lv_draw_img.c ****         /*Because of Alpha byte 16 bit color can start on odd address which can cause crash*/
 584:..\lvgl\lv_draw/lv_draw_img.c ****         buf[i * LV_IMG_PX_SIZE_ALPHA_BYTE] = bg_color.full & 0xFF;
 585:..\lvgl\lv_draw/lv_draw_img.c ****         buf[i * LV_IMG_PX_SIZE_ALPHA_BYTE + 1] = (bg_color.full >> 8) & 0xFF;
 586:..\lvgl\lv_draw/lv_draw_img.c **** #elif LV_COLOR_DEPTH == 32
 587:..\lvgl\lv_draw/lv_draw_img.c ****         *((uint32_t *)&buf[i * LV_IMG_PX_SIZE_ALPHA_BYTE]) = bg_color.full;
 588:..\lvgl\lv_draw/lv_draw_img.c **** #else
 589:..\lvgl\lv_draw/lv_draw_img.c **** #error "Invalid LV_COLOR_DEPTH. Check it in lv_conf.h"
 590:..\lvgl\lv_draw/lv_draw_img.c **** #endif
 591:..\lvgl\lv_draw/lv_draw_img.c ****     }
 592:..\lvgl\lv_draw/lv_draw_img.c **** 
 593:..\lvgl\lv_draw/lv_draw_img.c ****     const lv_opa_t * opa_table = NULL;
 594:..\lvgl\lv_draw/lv_draw_img.c ****     uint8_t px_size = lv_img_color_format_get_px_size(decoder_header.cf);
 595:..\lvgl\lv_draw/lv_draw_img.c ****     uint16_t mask = (1 << px_size) - 1; /*E.g. px_size = 2; mask = 0x03*/
 596:..\lvgl\lv_draw/lv_draw_img.c **** 
 597:..\lvgl\lv_draw/lv_draw_img.c ****     lv_coord_t w = 0;
 598:..\lvgl\lv_draw/lv_draw_img.c ****     uint32_t ofs = 0;
 599:..\lvgl\lv_draw/lv_draw_img.c ****     int8_t pos = 0;
 600:..\lvgl\lv_draw/lv_draw_img.c ****     switch(decoder_header.cf) {
 601:..\lvgl\lv_draw/lv_draw_img.c ****         case LV_IMG_CF_ALPHA_1BIT:
ARM GAS  C:\Users\d3bug\AppData\Local\Temp\ccD8CKMs.s 			page 13


 602:..\lvgl\lv_draw/lv_draw_img.c ****             w = (decoder_header.w >> 3);        /*E.g. w = 20 -> w = 2 + 1*/
 603:..\lvgl\lv_draw/lv_draw_img.c ****             if(decoder_header.w & 0x7) w++;
 604:..\lvgl\lv_draw/lv_draw_img.c ****             ofs += w * y + (x >> 3);      /*First pixel*/
 605:..\lvgl\lv_draw/lv_draw_img.c ****             pos = 7 - (x & 0x7);
 606:..\lvgl\lv_draw/lv_draw_img.c ****             opa_table = alpha1_opa_table;
 607:..\lvgl\lv_draw/lv_draw_img.c ****             break;
 608:..\lvgl\lv_draw/lv_draw_img.c ****         case LV_IMG_CF_ALPHA_2BIT:
 609:..\lvgl\lv_draw/lv_draw_img.c ****             w = (decoder_header.w >> 2);       /*E.g. w = 13 -> w = 3 + 1 (bytes)*/
 610:..\lvgl\lv_draw/lv_draw_img.c ****             if(decoder_header.w & 0x3) w++;
 611:..\lvgl\lv_draw/lv_draw_img.c ****             ofs += w * y + (x >> 2);      /*First pixel*/
 612:..\lvgl\lv_draw/lv_draw_img.c ****             pos = 6 - ((x & 0x3) * 2);
 613:..\lvgl\lv_draw/lv_draw_img.c ****             opa_table = alpha2_opa_table;
 614:..\lvgl\lv_draw/lv_draw_img.c ****             break;
 615:..\lvgl\lv_draw/lv_draw_img.c ****         case LV_IMG_CF_ALPHA_4BIT:
 616:..\lvgl\lv_draw/lv_draw_img.c ****             w = (decoder_header.w >> 1);       /*E.g. w = 13 -> w = 6 + 1 (bytes)*/
 617:..\lvgl\lv_draw/lv_draw_img.c ****             if(decoder_header.w & 0x1) w++;
 618:..\lvgl\lv_draw/lv_draw_img.c ****             ofs += w * y + (x >> 1);      /*First pixel*/
 619:..\lvgl\lv_draw/lv_draw_img.c ****             pos = 4 - ((x & 0x1) * 4);
 620:..\lvgl\lv_draw/lv_draw_img.c ****             opa_table = alpha4_opa_table;
 621:..\lvgl\lv_draw/lv_draw_img.c ****             break;
 622:..\lvgl\lv_draw/lv_draw_img.c ****         case LV_IMG_CF_ALPHA_8BIT:
 623:..\lvgl\lv_draw/lv_draw_img.c ****             w = decoder_header.w;              /*E.g. x = 7 -> w = 7 (bytes)*/
 624:..\lvgl\lv_draw/lv_draw_img.c ****             ofs += w * y + x;      /*First pixel*/
 625:..\lvgl\lv_draw/lv_draw_img.c ****             pos = 0;
 626:..\lvgl\lv_draw/lv_draw_img.c ****             break;
 627:..\lvgl\lv_draw/lv_draw_img.c ****     }
 628:..\lvgl\lv_draw/lv_draw_img.c **** 
 629:..\lvgl\lv_draw/lv_draw_img.c **** #if USE_LV_FILESYSTEM
 630:..\lvgl\lv_draw/lv_draw_img.c **** # if LV_COMPILER_VLA_SUPPORTED
 631:..\lvgl\lv_draw/lv_draw_img.c ****     uint8_t fs_buf[w];
 632:..\lvgl\lv_draw/lv_draw_img.c **** # else
 633:..\lvgl\lv_draw/lv_draw_img.c ****     uint8_t fs_buf[LV_HOR_RES];
 634:..\lvgl\lv_draw/lv_draw_img.c **** # endif
 635:..\lvgl\lv_draw/lv_draw_img.c **** #endif
 636:..\lvgl\lv_draw/lv_draw_img.c ****     const uint8_t * data_tmp = NULL;
 637:..\lvgl\lv_draw/lv_draw_img.c ****     if(decoder_src_type == LV_IMG_SRC_VARIABLE) {
 638:..\lvgl\lv_draw/lv_draw_img.c ****         const lv_img_dsc_t * img_dsc = decoder_src;
 639:..\lvgl\lv_draw/lv_draw_img.c ****         data_tmp = img_dsc->data + ofs;
 640:..\lvgl\lv_draw/lv_draw_img.c ****     } else {
 641:..\lvgl\lv_draw/lv_draw_img.c **** #if USE_LV_FILESYSTEM
 642:..\lvgl\lv_draw/lv_draw_img.c ****         lv_fs_seek(&decoder_file, ofs + 4);     /*+4 to skip the header*/
 643:..\lvgl\lv_draw/lv_draw_img.c ****         lv_fs_read(&decoder_file, fs_buf, w, NULL);
 644:..\lvgl\lv_draw/lv_draw_img.c ****         data_tmp = fs_buf;
 645:..\lvgl\lv_draw/lv_draw_img.c **** #else
 646:..\lvgl\lv_draw/lv_draw_img.c ****         LV_LOG_WARN("Image built-in alpha line reader can't read file because USE_LV_FILESYSTEM = 0
 647:..\lvgl\lv_draw/lv_draw_img.c ****         data_tmp = NULL;        /*To avoid warnings*/
 648:..\lvgl\lv_draw/lv_draw_img.c ****         return LV_RES_INV;
 649:..\lvgl\lv_draw/lv_draw_img.c **** #endif
 650:..\lvgl\lv_draw/lv_draw_img.c ****     }
 651:..\lvgl\lv_draw/lv_draw_img.c **** 
 652:..\lvgl\lv_draw/lv_draw_img.c **** 
 653:..\lvgl\lv_draw/lv_draw_img.c ****     uint8_t byte_act = 0;
 654:..\lvgl\lv_draw/lv_draw_img.c ****     uint8_t val_act;
 655:..\lvgl\lv_draw/lv_draw_img.c ****     for(i = 0; i < len; i ++) {
 656:..\lvgl\lv_draw/lv_draw_img.c ****         val_act = (data_tmp[byte_act] & (mask << pos)) >> pos;
 657:..\lvgl\lv_draw/lv_draw_img.c **** 
 658:..\lvgl\lv_draw/lv_draw_img.c ****         buf[i * LV_IMG_PX_SIZE_ALPHA_BYTE + LV_IMG_PX_SIZE_ALPHA_BYTE - 1] =
ARM GAS  C:\Users\d3bug\AppData\Local\Temp\ccD8CKMs.s 			page 14


 659:..\lvgl\lv_draw/lv_draw_img.c ****             decoder_header.cf == LV_IMG_CF_ALPHA_8BIT ? val_act : opa_table[val_act];
 660:..\lvgl\lv_draw/lv_draw_img.c **** 
 661:..\lvgl\lv_draw/lv_draw_img.c ****         pos -= px_size;
 662:..\lvgl\lv_draw/lv_draw_img.c ****         if(pos < 0) {
 663:..\lvgl\lv_draw/lv_draw_img.c ****             pos = 8 - px_size;
 664:..\lvgl\lv_draw/lv_draw_img.c ****             data_tmp++;
 665:..\lvgl\lv_draw/lv_draw_img.c ****         }
 666:..\lvgl\lv_draw/lv_draw_img.c ****     }
 667:..\lvgl\lv_draw/lv_draw_img.c **** 
 668:..\lvgl\lv_draw/lv_draw_img.c ****     return LV_RES_OK;
 669:..\lvgl\lv_draw/lv_draw_img.c **** 
 670:..\lvgl\lv_draw/lv_draw_img.c **** #else
 671:..\lvgl\lv_draw/lv_draw_img.c ****     LV_LOG_WARN("Image built-in alpha line reader failed because LV_IMG_CF_ALPHA is 0 in lv_conf.h"
  84              		.loc 1 671 0
  85 0002 044B     		ldr	r3, .L9
  86              	.LVL2:
  87 0004 40F29F22 		movw	r2, #671
  88              	.LVL3:
  89 0008 0349     		ldr	r1, .L9+4
  90              	.LVL4:
  91 000a 0220     		movs	r0, #2
  92              	.LVL5:
  93 000c FFF7FEFF 		bl	lv_log_add
  94              	.LVL6:
 672:..\lvgl\lv_draw/lv_draw_img.c ****     return LV_RES_INV;
 673:..\lvgl\lv_draw/lv_draw_img.c **** #endif
 674:..\lvgl\lv_draw/lv_draw_img.c **** }
  95              		.loc 1 674 0
  96 0010 0020     		movs	r0, #0
  97 0012 08BD     		pop	{r3, pc}
  98              	.L10:
  99              		.align	2
 100              	.L9:
 101 0014 00000000 		.word	.LC0
 102 0018 54000000 		.word	.LC1
 103              		.cfi_endproc
 104              	.LFE23:
 105              		.size	lv_img_built_in_decoder_line_alpha, .-lv_img_built_in_decoder_line_alpha
 106              		.section	.text.lv_img_built_in_decoder_line_indexed,"ax",%progbits
 107              		.align	2
 108              		.thumb
 109              		.thumb_func
 110              		.type	lv_img_built_in_decoder_line_indexed, %function
 111              	lv_img_built_in_decoder_line_indexed:
 112              	.LFB24:
 675:..\lvgl\lv_draw/lv_draw_img.c **** 
 676:..\lvgl\lv_draw/lv_draw_img.c **** static lv_res_t lv_img_built_in_decoder_line_indexed(lv_coord_t x, lv_coord_t y, lv_coord_t len, ui
 677:..\lvgl\lv_draw/lv_draw_img.c **** {
 113              		.loc 1 677 0
 114              		.cfi_startproc
 115              		@ args = 0, pretend = 0, frame = 0
 116              		@ frame_needed = 0, uses_anonymous_args = 0
 117              	.LVL7:
 118 0000 08B5     		push	{r3, lr}
 119              		.cfi_def_cfa_offset 8
 120              		.cfi_offset 3, -8
 121              		.cfi_offset 14, -4
ARM GAS  C:\Users\d3bug\AppData\Local\Temp\ccD8CKMs.s 			page 15


 678:..\lvgl\lv_draw/lv_draw_img.c **** 
 679:..\lvgl\lv_draw/lv_draw_img.c **** #if LV_IMG_CF_INDEXED
 680:..\lvgl\lv_draw/lv_draw_img.c ****     uint8_t px_size = lv_img_color_format_get_px_size(decoder_header.cf);
 681:..\lvgl\lv_draw/lv_draw_img.c ****     uint16_t mask = (1 << px_size) - 1; /*E.g. px_size = 2; mask = 0x03*/
 682:..\lvgl\lv_draw/lv_draw_img.c **** 
 683:..\lvgl\lv_draw/lv_draw_img.c ****     lv_coord_t w = 0;
 684:..\lvgl\lv_draw/lv_draw_img.c ****     int8_t pos = 0;
 685:..\lvgl\lv_draw/lv_draw_img.c ****     uint32_t ofs = 0;
 686:..\lvgl\lv_draw/lv_draw_img.c ****     switch(decoder_header.cf) {
 687:..\lvgl\lv_draw/lv_draw_img.c ****         case LV_IMG_CF_INDEXED_1BIT:
 688:..\lvgl\lv_draw/lv_draw_img.c ****             w = (decoder_header.w >> 3);       /*E.g. w = 20 -> w = 2 + 1*/
 689:..\lvgl\lv_draw/lv_draw_img.c ****             if(decoder_header.w & 0x7) w++;
 690:..\lvgl\lv_draw/lv_draw_img.c ****             ofs += w * y + (x >> 3);      /*First pixel*/
 691:..\lvgl\lv_draw/lv_draw_img.c ****             ofs += 8;                    /*Skip the palette*/
 692:..\lvgl\lv_draw/lv_draw_img.c ****             pos = 7 - (x & 0x7);
 693:..\lvgl\lv_draw/lv_draw_img.c ****             break;
 694:..\lvgl\lv_draw/lv_draw_img.c ****         case LV_IMG_CF_INDEXED_2BIT:
 695:..\lvgl\lv_draw/lv_draw_img.c ****             w = (decoder_header.w >> 2);       /*E.g. w = 13 -> w = 3 + 1 (bytes)*/
 696:..\lvgl\lv_draw/lv_draw_img.c ****             if(decoder_header.w & 0x3) w++;
 697:..\lvgl\lv_draw/lv_draw_img.c ****             ofs += w * y + (x >> 2);      /*First pixel*/
 698:..\lvgl\lv_draw/lv_draw_img.c ****             ofs += 16;                    /*Skip the palette*/
 699:..\lvgl\lv_draw/lv_draw_img.c ****             pos = 6 - ((x & 0x3) * 2);
 700:..\lvgl\lv_draw/lv_draw_img.c ****             break;
 701:..\lvgl\lv_draw/lv_draw_img.c ****         case LV_IMG_CF_INDEXED_4BIT:
 702:..\lvgl\lv_draw/lv_draw_img.c ****             w = (decoder_header.w >> 1);       /*E.g. w = 13 -> w = 6 + 1 (bytes)*/
 703:..\lvgl\lv_draw/lv_draw_img.c ****             if(decoder_header.w & 0x1) w++;
 704:..\lvgl\lv_draw/lv_draw_img.c ****             ofs += w * y + (x >> 1);      /*First pixel*/
 705:..\lvgl\lv_draw/lv_draw_img.c ****             ofs += 64;                    /*Skip the palette*/
 706:..\lvgl\lv_draw/lv_draw_img.c ****             pos = 4 - ((x & 0x1) * 4);
 707:..\lvgl\lv_draw/lv_draw_img.c ****             break;
 708:..\lvgl\lv_draw/lv_draw_img.c ****         case LV_IMG_CF_INDEXED_8BIT:
 709:..\lvgl\lv_draw/lv_draw_img.c ****             w = decoder_header.w;              /*E.g. x = 7 -> w = 7 (bytes)*/
 710:..\lvgl\lv_draw/lv_draw_img.c ****             ofs += w * y + x;              /*First pixel*/
 711:..\lvgl\lv_draw/lv_draw_img.c ****             ofs += 1024;                    /*Skip the palette*/
 712:..\lvgl\lv_draw/lv_draw_img.c ****             pos = 0;
 713:..\lvgl\lv_draw/lv_draw_img.c ****             break;
 714:..\lvgl\lv_draw/lv_draw_img.c ****     }
 715:..\lvgl\lv_draw/lv_draw_img.c **** 
 716:..\lvgl\lv_draw/lv_draw_img.c **** #if USE_LV_FILESYSTEM
 717:..\lvgl\lv_draw/lv_draw_img.c **** # if LV_COMPILER_VLA_SUPPORTED
 718:..\lvgl\lv_draw/lv_draw_img.c ****     uint8_t fs_buf[w];
 719:..\lvgl\lv_draw/lv_draw_img.c **** # else
 720:..\lvgl\lv_draw/lv_draw_img.c ****     uint8_t fs_buf[LV_HOR_RES];
 721:..\lvgl\lv_draw/lv_draw_img.c **** # endif
 722:..\lvgl\lv_draw/lv_draw_img.c **** #endif
 723:..\lvgl\lv_draw/lv_draw_img.c ****     const uint8_t * data_tmp = NULL;
 724:..\lvgl\lv_draw/lv_draw_img.c ****     if(decoder_src_type == LV_IMG_SRC_VARIABLE) {
 725:..\lvgl\lv_draw/lv_draw_img.c ****         const lv_img_dsc_t * img_dsc = decoder_src;
 726:..\lvgl\lv_draw/lv_draw_img.c ****         data_tmp = img_dsc->data + ofs;
 727:..\lvgl\lv_draw/lv_draw_img.c ****     } else {
 728:..\lvgl\lv_draw/lv_draw_img.c **** #if USE_LV_FILESYSTEM
 729:..\lvgl\lv_draw/lv_draw_img.c ****         lv_fs_seek(&decoder_file, ofs + 4);     /*+4 to skip the header*/
 730:..\lvgl\lv_draw/lv_draw_img.c ****         lv_fs_read(&decoder_file, fs_buf, w, NULL);
 731:..\lvgl\lv_draw/lv_draw_img.c ****         data_tmp = fs_buf;
 732:..\lvgl\lv_draw/lv_draw_img.c **** #else
 733:..\lvgl\lv_draw/lv_draw_img.c ****         LV_LOG_WARN("Image built-in indexed line reader can't read file because USE_LV_FILESYSTEM =
 734:..\lvgl\lv_draw/lv_draw_img.c ****         data_tmp = NULL;        /*To avoid warnings*/
ARM GAS  C:\Users\d3bug\AppData\Local\Temp\ccD8CKMs.s 			page 16


 735:..\lvgl\lv_draw/lv_draw_img.c ****         return LV_RES_INV;
 736:..\lvgl\lv_draw/lv_draw_img.c **** #endif
 737:..\lvgl\lv_draw/lv_draw_img.c ****     }
 738:..\lvgl\lv_draw/lv_draw_img.c **** 
 739:..\lvgl\lv_draw/lv_draw_img.c ****     uint8_t byte_act = 0;
 740:..\lvgl\lv_draw/lv_draw_img.c ****     uint8_t val_act;
 741:..\lvgl\lv_draw/lv_draw_img.c ****     lv_coord_t i;
 742:..\lvgl\lv_draw/lv_draw_img.c ****     lv_color_t * cbuf = (lv_color_t *) buf;
 743:..\lvgl\lv_draw/lv_draw_img.c ****     for(i = 0; i < len; i ++) {
 744:..\lvgl\lv_draw/lv_draw_img.c ****         val_act = (data_tmp[byte_act] & (mask << pos)) >> pos;
 745:..\lvgl\lv_draw/lv_draw_img.c ****         cbuf[i] = decoder_index_map[val_act];
 746:..\lvgl\lv_draw/lv_draw_img.c **** 
 747:..\lvgl\lv_draw/lv_draw_img.c ****         pos -= px_size;
 748:..\lvgl\lv_draw/lv_draw_img.c ****         if(pos < 0) {
 749:..\lvgl\lv_draw/lv_draw_img.c ****             pos = 8 - px_size;
 750:..\lvgl\lv_draw/lv_draw_img.c ****             data_tmp++;
 751:..\lvgl\lv_draw/lv_draw_img.c ****         }
 752:..\lvgl\lv_draw/lv_draw_img.c ****     }
 753:..\lvgl\lv_draw/lv_draw_img.c **** 
 754:..\lvgl\lv_draw/lv_draw_img.c ****     return LV_RES_OK;
 755:..\lvgl\lv_draw/lv_draw_img.c **** #else
 756:..\lvgl\lv_draw/lv_draw_img.c ****     LV_LOG_WARN("Image built-in indexed line reader failed because LV_IMG_CF_INDEXED is 0 in lv_con
 122              		.loc 1 756 0
 123 0002 044B     		ldr	r3, .L13
 124              	.LVL8:
 125 0004 4FF43D72 		mov	r2, #756
 126              	.LVL9:
 127 0008 0349     		ldr	r1, .L13+4
 128              	.LVL10:
 129 000a 0220     		movs	r0, #2
 130              	.LVL11:
 131 000c FFF7FEFF 		bl	lv_log_add
 132              	.LVL12:
 757:..\lvgl\lv_draw/lv_draw_img.c ****     return LV_RES_INV;
 758:..\lvgl\lv_draw/lv_draw_img.c **** #endif
 759:..\lvgl\lv_draw/lv_draw_img.c **** }
 133              		.loc 1 759 0
 134 0010 0020     		movs	r0, #0
 135 0012 08BD     		pop	{r3, pc}
 136              	.L14:
 137              		.align	2
 138              	.L13:
 139 0014 74000000 		.word	.LC2
 140 0018 54000000 		.word	.LC1
 141              		.cfi_endproc
 142              	.LFE24:
 143              		.size	lv_img_built_in_decoder_line_indexed, .-lv_img_built_in_decoder_line_indexed
 144              		.section	.text.lv_img_decoder_read_line,"ax",%progbits
 145              		.align	2
 146              		.thumb
 147              		.thumb_func
 148              		.type	lv_img_decoder_read_line, %function
 149              	lv_img_decoder_read_line:
 150              	.LFB21:
 467:..\lvgl\lv_draw/lv_draw_img.c ****     /*Try to read the line with the custom functions*/
 151              		.loc 1 467 0
 152              		.cfi_startproc
ARM GAS  C:\Users\d3bug\AppData\Local\Temp\ccD8CKMs.s 			page 17


 153              		@ args = 0, pretend = 0, frame = 0
 154              		@ frame_needed = 0, uses_anonymous_args = 0
 155              	.LVL13:
 156 0000 70B5     		push	{r4, r5, r6, lr}
 157              		.cfi_def_cfa_offset 16
 158              		.cfi_offset 4, -16
 159              		.cfi_offset 5, -12
 160              		.cfi_offset 6, -8
 161              		.cfi_offset 14, -4
 469:..\lvgl\lv_draw/lv_draw_img.c ****         if(lv_img_decoder_read_line_custom) {
 162              		.loc 1 469 0
 163 0002 204C     		ldr	r4, .L24
 164 0004 2478     		ldrb	r4, [r4]	@ zero_extendqisi2
 165 0006 74B1     		cbz	r4, .L16
 470:..\lvgl\lv_draw/lv_draw_img.c ****             lv_res_t custom_res;
 166              		.loc 1 470 0
 167 0008 1E4C     		ldr	r4, .L24
 168 000a 2469     		ldr	r4, [r4, #16]
 169 000c 14B1     		cbz	r4, .L17
 170              	.LBB9:
 472:..\lvgl\lv_draw/lv_draw_img.c ****             return custom_res;
 171              		.loc 1 472 0
 172 000e A047     		blx	r4
 173              	.LVL14:
 473:..\lvgl\lv_draw/lv_draw_img.c ****         } else {
 174              		.loc 1 473 0
 175 0010 0446     		mov	r4, r0
 176 0012 35E0     		b	.L18
 177              	.LVL15:
 178              	.L17:
 179              	.LBE9:
 475:..\lvgl\lv_draw/lv_draw_img.c ****         }
 180              		.loc 1 475 0
 181 0014 1C4B     		ldr	r3, .L24+4
 182              	.LVL16:
 183 0016 40F2DB12 		movw	r2, #475
 184              	.LVL17:
 185 001a 1C49     		ldr	r1, .L24+8
 186              	.LVL18:
 187 001c 0220     		movs	r0, #2
 188              	.LVL19:
 189 001e FFF7FEFF 		bl	lv_log_add
 190              	.LVL20:
 477:..\lvgl\lv_draw/lv_draw_img.c ****     }
 191              		.loc 1 477 0
 192 0022 0024     		movs	r4, #0
 193 0024 2CE0     		b	.L18
 194              	.LVL21:
 195              	.L16:
 480:..\lvgl\lv_draw/lv_draw_img.c **** #if USE_LV_FILESYSTEM
 196              		.loc 1 480 0
 197 0026 174C     		ldr	r4, .L24
 198 0028 247B     		ldrb	r4, [r4, #12]	@ zero_extendqisi2
 199 002a 012C     		cmp	r4, #1
 200 002c 08D1     		bne	.L19
 519:..\lvgl\lv_draw/lv_draw_img.c ****         return false;
 201              		.loc 1 519 0
ARM GAS  C:\Users\d3bug\AppData\Local\Temp\ccD8CKMs.s 			page 18


 202 002e 184B     		ldr	r3, .L24+12
 203              	.LVL22:
 204 0030 40F20722 		movw	r2, #519
 205              	.LVL23:
 206 0034 1549     		ldr	r1, .L24+8
 207              	.LVL24:
 208 0036 0220     		movs	r0, #2
 209              	.LVL25:
 210 0038 FFF7FEFF 		bl	lv_log_add
 211              	.LVL26:
 520:..\lvgl\lv_draw/lv_draw_img.c **** #endif
 212              		.loc 1 520 0
 213 003c 0024     		movs	r4, #0
 214 003e 1FE0     		b	.L18
 215              	.LVL27:
 216              	.L19:
 522:..\lvgl\lv_draw/lv_draw_img.c ****         const lv_img_dsc_t * img_dsc = decoder_src;
 217              		.loc 1 522 0
 218 0040 ECB9     		cbnz	r4, .L22
 219              	.LBB10:
 523:..\lvgl\lv_draw/lv_draw_img.c **** 
 220              		.loc 1 523 0
 221 0042 104D     		ldr	r5, .L24
 222 0044 AD68     		ldr	r5, [r5, #8]
 223              	.LVL28:
 525:..\lvgl\lv_draw/lv_draw_img.c ****                 img_dsc->header.cf == LV_IMG_CF_ALPHA_2BIT ||
 224              		.loc 1 525 0
 225 0046 2D78     		ldrb	r5, [r5]	@ zero_extendqisi2
 226              	.LVL29:
 527:..\lvgl\lv_draw/lv_draw_img.c ****                 img_dsc->header.cf == LV_IMG_CF_ALPHA_8BIT) {
 227              		.loc 1 527 0
 228 0048 05F01F05 		and	r5, r5, #31
 229 004c A5F10B06 		sub	r6, r5, #11
 230 0050 F6B2     		uxtb	r6, r6
 525:..\lvgl\lv_draw/lv_draw_img.c ****                 img_dsc->header.cf == LV_IMG_CF_ALPHA_2BIT ||
 231              		.loc 1 525 0
 232 0052 032E     		cmp	r6, #3
 233 0054 03D8     		bhi	.L20
 529:..\lvgl\lv_draw/lv_draw_img.c ****         } else if(img_dsc->header.cf == LV_IMG_CF_INDEXED_1BIT ||
 234              		.loc 1 529 0
 235 0056 FFF7FEFF 		bl	lv_img_built_in_decoder_line_alpha
 236              	.LVL30:
 237              	.LBE10:
 541:..\lvgl\lv_draw/lv_draw_img.c **** }
 238              		.loc 1 541 0
 239 005a 0124     		movs	r4, #1
 240              	.LBB11:
 241 005c 10E0     		b	.L18
 242              	.LVL31:
 243              	.L20:
 532:..\lvgl\lv_draw/lv_draw_img.c ****                   img_dsc->header.cf == LV_IMG_CF_INDEXED_8BIT) {
 244              		.loc 1 532 0
 245 005e 073D     		subs	r5, r5, #7
 246 0060 EDB2     		uxtb	r5, r5
 530:..\lvgl\lv_draw/lv_draw_img.c ****                   img_dsc->header.cf == LV_IMG_CF_INDEXED_2BIT ||
 247              		.loc 1 530 0
 248 0062 032D     		cmp	r5, #3
ARM GAS  C:\Users\d3bug\AppData\Local\Temp\ccD8CKMs.s 			page 19


 249 0064 03D8     		bhi	.L21
 534:..\lvgl\lv_draw/lv_draw_img.c ****         } else {
 250              		.loc 1 534 0
 251 0066 FFF7FEFF 		bl	lv_img_built_in_decoder_line_indexed
 252              	.LVL32:
 253              	.LBE11:
 541:..\lvgl\lv_draw/lv_draw_img.c **** }
 254              		.loc 1 541 0
 255 006a 0124     		movs	r4, #1
 256              	.LBB12:
 257 006c 08E0     		b	.L18
 258              	.LVL33:
 259              	.L21:
 536:..\lvgl\lv_draw/lv_draw_img.c ****             return false;
 260              		.loc 1 536 0
 261 006e 094B     		ldr	r3, .L24+16
 262              	.LVL34:
 263 0070 4FF40672 		mov	r2, #536
 264              	.LVL35:
 265 0074 0549     		ldr	r1, .L24+8
 266              	.LVL36:
 267 0076 0220     		movs	r0, #2
 268              	.LVL37:
 269 0078 FFF7FEFF 		bl	lv_log_add
 270              	.LVL38:
 537:..\lvgl\lv_draw/lv_draw_img.c ****         }
 271              		.loc 1 537 0
 272 007c 00E0     		b	.L18
 273              	.LVL39:
 274              	.L22:
 275              	.LBE12:
 541:..\lvgl\lv_draw/lv_draw_img.c **** }
 276              		.loc 1 541 0
 277 007e 0124     		movs	r4, #1
 278              	.LVL40:
 279              	.L18:
 542:..\lvgl\lv_draw/lv_draw_img.c **** 
 280              		.loc 1 542 0
 281 0080 2046     		mov	r0, r4
 282 0082 70BD     		pop	{r4, r5, r6, pc}
 283              	.L25:
 284              		.align	2
 285              	.L24:
 286 0084 00000000 		.word	.LANCHOR0
 287 0088 CC000000 		.word	.LC3
 288 008c 54000000 		.word	.LC1
 289 0090 04010000 		.word	.LC4
 290 0094 4C010000 		.word	.LC5
 291              		.cfi_endproc
 292              	.LFE21:
 293              		.size	lv_img_decoder_read_line, .-lv_img_decoder_read_line
 294              		.section	.text.lv_img_color_format_get_px_size,"ax",%progbits
 295              		.align	2
 296              		.global	lv_img_color_format_get_px_size
 297              		.thumb
 298              		.thumb_func
 299              		.type	lv_img_color_format_get_px_size, %function
ARM GAS  C:\Users\d3bug\AppData\Local\Temp\ccD8CKMs.s 			page 20


 300              	lv_img_color_format_get_px_size:
 301              	.LFB14:
 149:..\lvgl\lv_draw/lv_draw_img.c ****     uint8_t px_size = 0;
 302              		.loc 1 149 0
 303              		.cfi_startproc
 304              		@ args = 0, pretend = 0, frame = 0
 305              		@ frame_needed = 0, uses_anonymous_args = 0
 306              		@ link register save eliminated.
 307              	.LVL41:
 152:..\lvgl\lv_draw/lv_draw_img.c ****         case LV_IMG_CF_UNKOWN:
 308              		.loc 1 152 0
 309 0000 0438     		subs	r0, r0, #4
 310              	.LVL42:
 311 0002 0A28     		cmp	r0, #10
 312 0004 07D8     		bhi	.L27
 313 0006 DFE800F0 		tbb	[pc, r0]
 314              	.L29:
 315 000a 10       		.byte	(.L34-.L29)/2
 316 000b 08       		.byte	(.L30-.L29)/2
 317 000c 10       		.byte	(.L34-.L29)/2
 318 000d 0A       		.byte	(.L31-.L29)/2
 319 000e 0C       		.byte	(.L32-.L29)/2
 320 000f 0E       		.byte	(.L33-.L29)/2
 321 0010 10       		.byte	(.L34-.L29)/2
 322 0011 0A       		.byte	(.L31-.L29)/2
 323 0012 0C       		.byte	(.L32-.L29)/2
 324 0013 0E       		.byte	(.L33-.L29)/2
 325 0014 10       		.byte	(.L34-.L29)/2
 326 0015 00       		.p2align 1
 327              	.L27:
 155:..\lvgl\lv_draw/lv_draw_img.c ****             break;
 328              		.loc 1 155 0
 329 0016 0020     		movs	r0, #0
 330 0018 7047     		bx	lr
 331              	.L30:
 332              	.LVL43:
 162:..\lvgl\lv_draw/lv_draw_img.c ****             break;
 333              		.loc 1 162 0
 334 001a 1020     		movs	r0, #16
 163:..\lvgl\lv_draw/lv_draw_img.c ****         case LV_IMG_CF_INDEXED_1BIT:
 335              		.loc 1 163 0
 336 001c 7047     		bx	lr
 337              	.LVL44:
 338              	.L31:
 166:..\lvgl\lv_draw/lv_draw_img.c ****             break;
 339              		.loc 1 166 0
 340 001e 0120     		movs	r0, #1
 167:..\lvgl\lv_draw/lv_draw_img.c ****         case LV_IMG_CF_INDEXED_2BIT:
 341              		.loc 1 167 0
 342 0020 7047     		bx	lr
 343              	.LVL45:
 344              	.L32:
 170:..\lvgl\lv_draw/lv_draw_img.c ****             break;
 345              		.loc 1 170 0
 346 0022 0220     		movs	r0, #2
 171:..\lvgl\lv_draw/lv_draw_img.c ****         case LV_IMG_CF_INDEXED_4BIT:
 347              		.loc 1 171 0
ARM GAS  C:\Users\d3bug\AppData\Local\Temp\ccD8CKMs.s 			page 21


 348 0024 7047     		bx	lr
 349              	.LVL46:
 350              	.L33:
 174:..\lvgl\lv_draw/lv_draw_img.c ****             break;
 351              		.loc 1 174 0
 352 0026 0420     		movs	r0, #4
 175:..\lvgl\lv_draw/lv_draw_img.c ****         case LV_IMG_CF_INDEXED_8BIT:
 353              		.loc 1 175 0
 354 0028 7047     		bx	lr
 355              	.LVL47:
 356              	.L34:
 159:..\lvgl\lv_draw/lv_draw_img.c ****             break;
 357              		.loc 1 159 0
 358 002a 0820     		movs	r0, #8
 359              	.LVL48:
 186:..\lvgl\lv_draw/lv_draw_img.c **** 
 360              		.loc 1 186 0
 361 002c 7047     		bx	lr
 362              		.cfi_endproc
 363              	.LFE14:
 364              		.size	lv_img_color_format_get_px_size, .-lv_img_color_format_get_px_size
 365 002e 00BF     		.section	.text.lv_img_color_format_is_chroma_keyed,"ax",%progbits
 366              		.align	2
 367              		.global	lv_img_color_format_is_chroma_keyed
 368              		.thumb
 369              		.thumb_func
 370              		.type	lv_img_color_format_is_chroma_keyed, %function
 371              	lv_img_color_format_is_chroma_keyed:
 372              	.LFB15:
 189:..\lvgl\lv_draw/lv_draw_img.c ****     bool is_chroma_keyed = false;
 373              		.loc 1 189 0
 374              		.cfi_startproc
 375              		@ args = 0, pretend = 0, frame = 0
 376              		@ frame_needed = 0, uses_anonymous_args = 0
 377              		@ link register save eliminated.
 378              	.LVL49:
 192:..\lvgl\lv_draw/lv_draw_img.c ****         case LV_IMG_CF_TRUE_COLOR_CHROMA_KEYED:
 379              		.loc 1 192 0
 380 0000 0328     		cmp	r0, #3
 381 0002 03D0     		beq	.L37
 382 0004 04D3     		bcc	.L38
 383 0006 0638     		subs	r0, r0, #6
 384              	.LVL50:
 385 0008 0428     		cmp	r0, #4
 386 000a 01D8     		bhi	.L38
 387              	.L37:
 199:..\lvgl\lv_draw/lv_draw_img.c ****             break;
 388              		.loc 1 199 0
 389 000c 0120     		movs	r0, #1
 390 000e 7047     		bx	lr
 391              	.L38:
 202:..\lvgl\lv_draw/lv_draw_img.c ****             break;
 392              		.loc 1 202 0
 393 0010 0020     		movs	r0, #0
 394              	.LVL51:
 207:..\lvgl\lv_draw/lv_draw_img.c **** 
 395              		.loc 1 207 0
ARM GAS  C:\Users\d3bug\AppData\Local\Temp\ccD8CKMs.s 			page 22


 396 0012 7047     		bx	lr
 397              		.cfi_endproc
 398              	.LFE15:
 399              		.size	lv_img_color_format_is_chroma_keyed, .-lv_img_color_format_is_chroma_keyed
 400              		.section	.text.lv_img_color_format_has_alpha,"ax",%progbits
 401              		.align	2
 402              		.global	lv_img_color_format_has_alpha
 403              		.thumb
 404              		.thumb_func
 405              		.type	lv_img_color_format_has_alpha, %function
 406              	lv_img_color_format_has_alpha:
 407              	.LFB16:
 211:..\lvgl\lv_draw/lv_draw_img.c ****     bool has_alpha = false;
 408              		.loc 1 211 0
 409              		.cfi_startproc
 410              		@ args = 0, pretend = 0, frame = 0
 411              		@ frame_needed = 0, uses_anonymous_args = 0
 412              		@ link register save eliminated.
 413              	.LVL52:
 214:..\lvgl\lv_draw/lv_draw_img.c ****         case LV_IMG_CF_TRUE_COLOR_ALPHA:
 414              		.loc 1 214 0
 415 0000 0238     		subs	r0, r0, #2
 416              	.LVL53:
 417 0002 0C28     		cmp	r0, #12
 418 0004 0AD8     		bhi	.L43
 419 0006 DFE800F0 		tbb	[pc, r0]
 420              	.L42:
 421 000a 07       		.byte	(.L41-.L42)/2
 422 000b 09       		.byte	(.L43-.L42)/2
 423 000c 09       		.byte	(.L43-.L42)/2
 424 000d 07       		.byte	(.L41-.L42)/2
 425 000e 09       		.byte	(.L43-.L42)/2
 426 000f 09       		.byte	(.L43-.L42)/2
 427 0010 09       		.byte	(.L43-.L42)/2
 428 0011 09       		.byte	(.L43-.L42)/2
 429 0012 09       		.byte	(.L43-.L42)/2
 430 0013 07       		.byte	(.L41-.L42)/2
 431 0014 07       		.byte	(.L41-.L42)/2
 432 0015 07       		.byte	(.L41-.L42)/2
 433 0016 07       		.byte	(.L41-.L42)/2
 434 0017 00       		.p2align 1
 435              	.L41:
 221:..\lvgl\lv_draw/lv_draw_img.c ****             break;
 436              		.loc 1 221 0
 437 0018 0120     		movs	r0, #1
 438 001a 7047     		bx	lr
 439              	.L43:
 224:..\lvgl\lv_draw/lv_draw_img.c ****             break;
 440              		.loc 1 224 0
 441 001c 0020     		movs	r0, #0
 442              	.LVL54:
 229:..\lvgl\lv_draw/lv_draw_img.c **** 
 443              		.loc 1 229 0
 444 001e 7047     		bx	lr
 445              		.cfi_endproc
 446              	.LFE16:
 447              		.size	lv_img_color_format_has_alpha, .-lv_img_color_format_has_alpha
ARM GAS  C:\Users\d3bug\AppData\Local\Temp\ccD8CKMs.s 			page 23


 448              		.section	.text.lv_img_src_get_type,"ax",%progbits
 449              		.align	2
 450              		.global	lv_img_src_get_type
 451              		.thumb
 452              		.thumb_func
 453              		.type	lv_img_src_get_type, %function
 454              	lv_img_src_get_type:
 455              	.LFB17:
 240:..\lvgl\lv_draw/lv_draw_img.c ****     lv_img_src_t img_src_type = LV_IMG_SRC_UNKNOWN;
 456              		.loc 1 240 0
 457              		.cfi_startproc
 458              		@ args = 0, pretend = 0, frame = 0
 459              		@ frame_needed = 0, uses_anonymous_args = 0
 460              	.LVL55:
 243:..\lvgl\lv_draw/lv_draw_img.c ****     const uint8_t * u8_p = src;
 461              		.loc 1 243 0
 462 0000 C8B1     		cbz	r0, .L47
 240:..\lvgl\lv_draw/lv_draw_img.c ****     lv_img_src_t img_src_type = LV_IMG_SRC_UNKNOWN;
 463              		.loc 1 240 0
 464 0002 10B5     		push	{r4, lr}
 465              		.cfi_def_cfa_offset 8
 466              		.cfi_offset 4, -8
 467              		.cfi_offset 14, -4
 468              	.LVL56:
 247:..\lvgl\lv_draw/lv_draw_img.c ****         img_src_type = LV_IMG_SRC_FILE;     /*If it's an ASCII character then it's file name*/
 469              		.loc 1 247 0
 470 0004 0278     		ldrb	r2, [r0]	@ zero_extendqisi2
 471 0006 A2F12003 		sub	r3, r2, #32
 472 000a DBB2     		uxtb	r3, r3
 473 000c 5F2B     		cmp	r3, #95
 474 000e 04D9     		bls	.L48
 249:..\lvgl\lv_draw/lv_draw_img.c ****         img_src_type = LV_IMG_SRC_SYMBOL;   /*Symbols begins after 0x7F*/
 475              		.loc 1 249 0
 476 0010 12F0800F 		tst	r2, #128
 477 0014 03D0     		beq	.L49
 250:..\lvgl\lv_draw/lv_draw_img.c ****     } else {
 478              		.loc 1 250 0
 479 0016 0224     		movs	r4, #2
 480 0018 02E0     		b	.L46
 481              	.L48:
 248:..\lvgl\lv_draw/lv_draw_img.c ****     } else if(u8_p[0] >= 0x80) {
 482              		.loc 1 248 0
 483 001a 0124     		movs	r4, #1
 484 001c 00E0     		b	.L46
 485              	.L49:
 252:..\lvgl\lv_draw/lv_draw_img.c ****     }
 486              		.loc 1 252 0
 487 001e 0024     		movs	r4, #0
 488              	.L46:
 489              	.LVL57:
 255:..\lvgl\lv_draw/lv_draw_img.c ****         LV_LOG_WARN("lv_img_src_get_type: unknown image type");
 490              		.loc 1 255 0
 491 0020 032C     		cmp	r4, #3
 492 0022 0AD1     		bne	.L50
 256:..\lvgl\lv_draw/lv_draw_img.c ****     }
 493              		.loc 1 256 0
 494 0024 064B     		ldr	r3, .L52
ARM GAS  C:\Users\d3bug\AppData\Local\Temp\ccD8CKMs.s 			page 24


 495 0026 4FF48072 		mov	r2, #256
 496 002a 0649     		ldr	r1, .L52+4
 497 002c 0220     		movs	r0, #2
 498              	.LVL58:
 499 002e FFF7FEFF 		bl	lv_log_add
 500              	.LVL59:
 259:..\lvgl\lv_draw/lv_draw_img.c **** }
 501              		.loc 1 259 0
 502 0032 2046     		mov	r0, r4
 503 0034 10BD     		pop	{r4, pc}
 504              	.LVL60:
 505              	.L47:
 506              		.cfi_def_cfa_offset 0
 507              		.cfi_restore 4
 508              		.cfi_restore 14
 243:..\lvgl\lv_draw/lv_draw_img.c ****     const uint8_t * u8_p = src;
 509              		.loc 1 243 0
 510 0036 0320     		movs	r0, #3
 511              	.LVL61:
 260:..\lvgl\lv_draw/lv_draw_img.c **** 
 512              		.loc 1 260 0
 513 0038 7047     		bx	lr
 514              	.LVL62:
 515              	.L50:
 516              		.cfi_def_cfa_offset 8
 517              		.cfi_offset 4, -8
 518              		.cfi_offset 14, -4
 259:..\lvgl\lv_draw/lv_draw_img.c **** }
 519              		.loc 1 259 0
 520 003a 2046     		mov	r0, r4
 521              	.LVL63:
 260:..\lvgl\lv_draw/lv_draw_img.c **** 
 522              		.loc 1 260 0
 523 003c 10BD     		pop	{r4, pc}
 524              	.LVL64:
 525              	.L53:
 526 003e 00BF     		.align	2
 527              	.L52:
 528 0040 84010000 		.word	.LC6
 529 0044 54000000 		.word	.LC1
 530              		.cfi_endproc
 531              	.LFE17:
 532              		.size	lv_img_src_get_type, .-lv_img_src_get_type
 533              		.section	.text.lv_img_dsc_get_info,"ax",%progbits
 534              		.align	2
 535              		.global	lv_img_dsc_get_info
 536              		.thumb
 537              		.thumb_func
 538              		.type	lv_img_dsc_get_info, %function
 539              	lv_img_dsc_get_info:
 540              	.LFB13:
  98:..\lvgl\lv_draw/lv_draw_img.c ****     header->always_zero = 0;
 541              		.loc 1 98 0
 542              		.cfi_startproc
 543              		@ args = 0, pretend = 0, frame = 0
 544              		@ frame_needed = 0, uses_anonymous_args = 0
 545              	.LVL65:
ARM GAS  C:\Users\d3bug\AppData\Local\Temp\ccD8CKMs.s 			page 25


 546 0000 38B5     		push	{r3, r4, r5, lr}
 547              		.cfi_def_cfa_offset 16
 548              		.cfi_offset 3, -16
 549              		.cfi_offset 4, -12
 550              		.cfi_offset 5, -8
 551              		.cfi_offset 14, -4
 552 0002 0546     		mov	r5, r0
 553 0004 0C46     		mov	r4, r1
  99:..\lvgl\lv_draw/lv_draw_img.c ****     /*Try to get info with the custom functions first*/
 554              		.loc 1 99 0
 555 0006 0B78     		ldrb	r3, [r1]	@ zero_extendqisi2
 556 0008 6FF34713 		bfc	r3, #5, #3
 557 000c 0B70     		strb	r3, [r1]
 101:..\lvgl\lv_draw/lv_draw_img.c ****         lv_res_t custom_res;
 558              		.loc 1 101 0
 559 000e 1C4B     		ldr	r3, .L61
 560 0010 5B69     		ldr	r3, [r3, #20]
 561 0012 13B1     		cbz	r3, .L55
 562              	.LBB13:
 103:..\lvgl\lv_draw/lv_draw_img.c ****         if(custom_res == LV_RES_OK) return LV_RES_OK;       /*Custom info has supported this source
 563              		.loc 1 103 0
 564 0014 9847     		blx	r3
 565              	.LVL66:
 104:..\lvgl\lv_draw/lv_draw_img.c ****     }
 566              		.loc 1 104 0
 567 0016 0128     		cmp	r0, #1
 568 0018 30D0     		beq	.L59
 569              	.LVL67:
 570              	.L55:
 571              	.LBE13:
 107:..\lvgl\lv_draw/lv_draw_img.c ****     if(src_type == LV_IMG_SRC_VARIABLE) {
 572              		.loc 1 107 0
 573 001a 2846     		mov	r0, r5
 574 001c FFF7FEFF 		bl	lv_img_src_get_type
 575              	.LVL68:
 108:..\lvgl\lv_draw/lv_draw_img.c ****         header->w = ((lv_img_dsc_t *)src)->header.w;
 576              		.loc 1 108 0
 577 0020 A0B9     		cbnz	r0, .L57
 109:..\lvgl\lv_draw/lv_draw_img.c ****         header->h = ((lv_img_dsc_t *)src)->header.h;
 578              		.loc 1 109 0
 579 0022 2B68     		ldr	r3, [r5]
 580 0024 C3F38A23 		ubfx	r3, r3, #10, #11
 581 0028 2268     		ldr	r2, [r4]
 582 002a 63F39422 		bfi	r2, r3, #10, #11
 583 002e 2260     		str	r2, [r4]
 110:..\lvgl\lv_draw/lv_draw_img.c ****         header->cf = ((lv_img_dsc_t *)src)->header.cf;
 584              		.loc 1 110 0
 585 0030 6B88     		ldrh	r3, [r5, #2]
 586 0032 C3F34A13 		ubfx	r3, r3, #5, #11
 587 0036 6288     		ldrh	r2, [r4, #2]
 588 0038 63F34F12 		bfi	r2, r3, #5, #11
 589 003c 6280     		strh	r2, [r4, #2]	@ movhi
 111:..\lvgl\lv_draw/lv_draw_img.c ****     }
 590              		.loc 1 111 0
 591 003e 2A78     		ldrb	r2, [r5]	@ zero_extendqisi2
 592 0040 2378     		ldrb	r3, [r4]	@ zero_extendqisi2
 593 0042 62F30403 		bfi	r3, r2, #0, #5
ARM GAS  C:\Users\d3bug\AppData\Local\Temp\ccD8CKMs.s 			page 26


 594 0046 2370     		strb	r3, [r4]
 144:..\lvgl\lv_draw/lv_draw_img.c **** 
 595              		.loc 1 144 0
 596 0048 0120     		movs	r0, #1
 597              	.LVL69:
 598 004a 38BD     		pop	{r3, r4, r5, pc}
 599              	.LVL70:
 600              	.L57:
 133:..\lvgl\lv_draw/lv_draw_img.c ****         /*The size depend on the font but it is unknown here. It should be handled outside of the f
 601              		.loc 1 133 0
 602 004c 0228     		cmp	r0, #2
 603 004e 0DD1     		bne	.L58
 135:..\lvgl\lv_draw/lv_draw_img.c ****         header->h = 1;
 604              		.loc 1 135 0
 605 0050 2368     		ldr	r3, [r4]
 606 0052 0120     		movs	r0, #1
 607              	.LVL71:
 608 0054 60F39423 		bfi	r3, r0, #10, #11
 609 0058 2360     		str	r3, [r4]
 136:..\lvgl\lv_draw/lv_draw_img.c ****         /* Symbols always have transparent parts. Important because of cover check in the design fu
 610              		.loc 1 136 0
 611 005a 1A0C     		lsrs	r2, r3, #16
 612 005c 60F34F12 		bfi	r2, r0, #5, #11
 613 0060 6280     		strh	r2, [r4, #2]	@ movhi
 139:..\lvgl\lv_draw/lv_draw_img.c ****     } else {
 614              		.loc 1 139 0
 615 0062 0B22     		movs	r2, #11
 616 0064 62F30403 		bfi	r3, r2, #0, #5
 617 0068 2370     		strb	r3, [r4]
 618 006a 38BD     		pop	{r3, r4, r5, pc}
 619              	.LVL72:
 620              	.L58:
 141:..\lvgl\lv_draw/lv_draw_img.c ****         return false;
 621              		.loc 1 141 0
 622 006c 054B     		ldr	r3, .L61+4
 623 006e 8D22     		movs	r2, #141
 624 0070 0549     		ldr	r1, .L61+8
 625 0072 0220     		movs	r0, #2
 626              	.LVL73:
 627 0074 FFF7FEFF 		bl	lv_log_add
 628              	.LVL74:
 142:..\lvgl\lv_draw/lv_draw_img.c ****     }
 629              		.loc 1 142 0
 630 0078 0020     		movs	r0, #0
 631 007a 38BD     		pop	{r3, r4, r5, pc}
 632              	.LVL75:
 633              	.L59:
 634              	.LBB14:
 104:..\lvgl\lv_draw/lv_draw_img.c ****     }
 635              		.loc 1 104 0
 636 007c 0120     		movs	r0, #1
 637              	.LVL76:
 638              	.LBE14:
 146:..\lvgl\lv_draw/lv_draw_img.c **** 
 639              		.loc 1 146 0
 640 007e 38BD     		pop	{r3, r4, r5, pc}
 641              	.LVL77:
ARM GAS  C:\Users\d3bug\AppData\Local\Temp\ccD8CKMs.s 			page 27


 642              	.L62:
 643              		.align	2
 644              	.L61:
 645 0080 00000000 		.word	.LANCHOR0
 646 0084 AC010000 		.word	.LC7
 647 0088 54000000 		.word	.LC1
 648              		.cfi_endproc
 649              	.LFE13:
 650              		.size	lv_img_dsc_get_info, .-lv_img_dsc_get_info
 651              		.section	.text.lv_img_decoder_open,"ax",%progbits
 652              		.align	2
 653              		.thumb
 654              		.thumb_func
 655              		.type	lv_img_decoder_open, %function
 656              	lv_img_decoder_open:
 657              	.LFB20:
 358:..\lvgl\lv_draw/lv_draw_img.c ****     decoder_custom = false;
 658              		.loc 1 358 0
 659              		.cfi_startproc
 660              		@ args = 0, pretend = 0, frame = 0
 661              		@ frame_needed = 0, uses_anonymous_args = 0
 662              	.LVL78:
 663 0000 38B5     		push	{r3, r4, r5, lr}
 664              		.cfi_def_cfa_offset 16
 665              		.cfi_offset 3, -16
 666              		.cfi_offset 4, -12
 667              		.cfi_offset 5, -8
 668              		.cfi_offset 14, -4
 669 0002 0446     		mov	r4, r0
 359:..\lvgl\lv_draw/lv_draw_img.c **** 
 670              		.loc 1 359 0
 671 0004 344B     		ldr	r3, .L73
 672 0006 0022     		movs	r2, #0
 673 0008 1A70     		strb	r2, [r3]
 362:..\lvgl\lv_draw/lv_draw_img.c ****         const uint8_t * custom_res;
 674              		.loc 1 362 0
 675 000a 9B69     		ldr	r3, [r3, #24]
 676 000c 3BB1     		cbz	r3, .L64
 677              	.LBB15:
 364:..\lvgl\lv_draw/lv_draw_img.c ****         if(custom_res != LV_IMG_DECODER_OPEN_FAIL) {
 678              		.loc 1 364 0
 679 000e 9847     		blx	r3
 680              	.LVL79:
 365:..\lvgl\lv_draw/lv_draw_img.c ****             decoder_custom = true;  /*Mark that custom decoder function should be used for this img
 681              		.loc 1 365 0
 682 0010 B0F1FF3F 		cmp	r0, #-1
 683 0014 03D0     		beq	.L64
 366:..\lvgl\lv_draw/lv_draw_img.c ****             return custom_res;      /*Custom open supported this source*/
 684              		.loc 1 366 0
 685 0016 0122     		movs	r2, #1
 686 0018 2F4B     		ldr	r3, .L73
 687 001a 1A70     		strb	r2, [r3]
 367:..\lvgl\lv_draw/lv_draw_img.c ****         }
 688              		.loc 1 367 0
 689 001c 38BD     		pop	{r3, r4, r5, pc}
 690              	.LVL80:
 691              	.L64:
ARM GAS  C:\Users\d3bug\AppData\Local\Temp\ccD8CKMs.s 			page 28


 692              	.LBE15:
 371:..\lvgl\lv_draw/lv_draw_img.c ****     decoder_style = style;
 693              		.loc 1 371 0
 694 001e 2E4D     		ldr	r5, .L73
 695 0020 AC60     		str	r4, [r5, #8]
 373:..\lvgl\lv_draw/lv_draw_img.c **** 
 696              		.loc 1 373 0
 697 0022 2046     		mov	r0, r4
 698 0024 FFF7FEFF 		bl	lv_img_src_get_type
 699              	.LVL81:
 700 0028 2873     		strb	r0, [r5, #12]
 376:..\lvgl\lv_draw/lv_draw_img.c ****     if(header_res == LV_RES_INV) {
 701              		.loc 1 376 0
 702 002a 05F11C01 		add	r1, r5, #28
 703 002e 2046     		mov	r0, r4
 704 0030 FFF7FEFF 		bl	lv_img_dsc_get_info
 705              	.LVL82:
 377:..\lvgl\lv_draw/lv_draw_img.c ****         decoder_src = NULL;
 706              		.loc 1 377 0
 707 0034 68B9     		cbnz	r0, .L66
 378:..\lvgl\lv_draw/lv_draw_img.c ****         decoder_src_type = LV_IMG_SRC_UNKNOWN;
 708              		.loc 1 378 0
 709 0036 0022     		movs	r2, #0
 710 0038 AA60     		str	r2, [r5, #8]
 379:..\lvgl\lv_draw/lv_draw_img.c ****         LV_LOG_WARN("Built-in image decoder can't get the header info");
 711              		.loc 1 379 0
 712 003a 0322     		movs	r2, #3
 713 003c 2A73     		strb	r2, [r5, #12]
 380:..\lvgl\lv_draw/lv_draw_img.c ****         return LV_IMG_DECODER_OPEN_FAIL;
 714              		.loc 1 380 0
 715 003e 274B     		ldr	r3, .L73+4
 716 0040 4FF4BE72 		mov	r2, #380
 717 0044 2649     		ldr	r1, .L73+8
 718 0046 0220     		movs	r0, #2
 719              	.LVL83:
 720 0048 FFF7FEFF 		bl	lv_log_add
 721              	.LVL84:
 381:..\lvgl\lv_draw/lv_draw_img.c ****     }
 722              		.loc 1 381 0
 723 004c 4FF0FF30 		mov	r0, #-1
 724 0050 38BD     		pop	{r3, r4, r5, pc}
 725              	.LVL85:
 726              	.L66:
 385:..\lvgl\lv_draw/lv_draw_img.c **** #if USE_LV_FILESYSTEM
 727              		.loc 1 385 0
 728 0052 214B     		ldr	r3, .L73
 729 0054 197B     		ldrb	r1, [r3, #12]	@ zero_extendqisi2
 730 0056 0129     		cmp	r1, #1
 731 0058 09D1     		bne	.L67
 393:..\lvgl\lv_draw/lv_draw_img.c ****         return LV_IMG_DECODER_OPEN_FAIL;
 732              		.loc 1 393 0
 733 005a 224B     		ldr	r3, .L73+12
 734 005c 40F28912 		movw	r2, #393
 735 0060 1F49     		ldr	r1, .L73+8
 736 0062 0220     		movs	r0, #2
 737              	.LVL86:
 738 0064 FFF7FEFF 		bl	lv_log_add
ARM GAS  C:\Users\d3bug\AppData\Local\Temp\ccD8CKMs.s 			page 29


 739              	.LVL87:
 394:..\lvgl\lv_draw/lv_draw_img.c **** #endif
 740              		.loc 1 394 0
 741 0068 4FF0FF30 		mov	r0, #-1
 742 006c 38BD     		pop	{r3, r4, r5, pc}
 743              	.LVL88:
 744              	.L67:
 400:..\lvgl\lv_draw/lv_draw_img.c ****     if(cf == LV_IMG_CF_TRUE_COLOR ||
 745              		.loc 1 400 0
 746 006e 1A4B     		ldr	r3, .L73
 747 0070 1B7F     		ldrb	r3, [r3, #28]	@ zero_extendqisi2
 748 0072 03F01F03 		and	r3, r3, #31
 749              	.LVL89:
 402:..\lvgl\lv_draw/lv_draw_img.c ****             cf == LV_IMG_CF_TRUE_COLOR_CHROMA_KEYED) {
 750              		.loc 1 402 0
 751 0076 1A1F     		subs	r2, r3, #4
 752 0078 D2B2     		uxtb	r2, r2
 401:..\lvgl\lv_draw/lv_draw_img.c ****             cf == LV_IMG_CF_TRUE_COLOR_ALPHA ||
 753              		.loc 1 401 0
 754 007a 022A     		cmp	r2, #2
 755 007c 04D8     		bhi	.L68
 404:..\lvgl\lv_draw/lv_draw_img.c ****             /*In case of uncompressed formats if the image stored in the ROM/RAM simply give it's p
 756              		.loc 1 404 0
 757 007e 49BB     		cbnz	r1, .L71
 406:..\lvgl\lv_draw/lv_draw_img.c ****         } else {
 758              		.loc 1 406 0
 759 0080 154B     		ldr	r3, .L73
 760 0082 9B68     		ldr	r3, [r3, #8]
 761 0084 9868     		ldr	r0, [r3, #8]
 762              	.LVL90:
 763 0086 38BD     		pop	{r3, r4, r5, pc}
 764              	.LVL91:
 765              	.L68:
 413:..\lvgl\lv_draw/lv_draw_img.c ****               cf == LV_IMG_CF_INDEXED_8BIT) {
 766              		.loc 1 413 0
 767 0088 DA1F     		subs	r2, r3, #7
 768 008a D2B2     		uxtb	r2, r2
 411:..\lvgl\lv_draw/lv_draw_img.c ****               cf == LV_IMG_CF_INDEXED_2BIT ||
 769              		.loc 1 411 0
 770 008c 032A     		cmp	r2, #3
 771 008e 09D8     		bhi	.L69
 446:..\lvgl\lv_draw/lv_draw_img.c ****         return LV_IMG_DECODER_OPEN_FAIL;
 772              		.loc 1 446 0
 773 0090 154B     		ldr	r3, .L73+16
 774 0092 4FF4DF72 		mov	r2, #446
 775 0096 1249     		ldr	r1, .L73+8
 776 0098 0220     		movs	r0, #2
 777              	.LVL92:
 778 009a FFF7FEFF 		bl	lv_log_add
 779              	.LVL93:
 447:..\lvgl\lv_draw/lv_draw_img.c **** #endif
 780              		.loc 1 447 0
 781 009e 4FF0FF30 		mov	r0, #-1
 782 00a2 38BD     		pop	{r3, r4, r5, pc}
 783              	.LVL94:
 784              	.L69:
 451:..\lvgl\lv_draw/lv_draw_img.c ****               cf == LV_IMG_CF_ALPHA_8BIT) {
ARM GAS  C:\Users\d3bug\AppData\Local\Temp\ccD8CKMs.s 			page 30


 785              		.loc 1 451 0
 786 00a4 0B3B     		subs	r3, r3, #11
 787 00a6 DBB2     		uxtb	r3, r3
 449:..\lvgl\lv_draw/lv_draw_img.c ****               cf == LV_IMG_CF_ALPHA_2BIT ||
 788              		.loc 1 449 0
 789 00a8 032B     		cmp	r3, #3
 790 00aa 09D8     		bhi	.L70
 456:..\lvgl\lv_draw/lv_draw_img.c ****         return LV_IMG_DECODER_OPEN_FAIL;
 791              		.loc 1 456 0
 792 00ac 0F4B     		ldr	r3, .L73+20
 793 00ae 4FF4E472 		mov	r2, #456
 794 00b2 0B49     		ldr	r1, .L73+8
 795 00b4 0220     		movs	r0, #2
 796              	.LVL95:
 797 00b6 FFF7FEFF 		bl	lv_log_add
 798              	.LVL96:
 457:..\lvgl\lv_draw/lv_draw_img.c **** #endif
 799              		.loc 1 457 0
 800 00ba 4FF0FF30 		mov	r0, #-1
 801 00be 38BD     		pop	{r3, r4, r5, pc}
 802              	.LVL97:
 803              	.L70:
 460:..\lvgl\lv_draw/lv_draw_img.c ****         return LV_IMG_DECODER_OPEN_FAIL;
 804              		.loc 1 460 0
 805 00c0 0B4B     		ldr	r3, .L73+24
 806 00c2 4FF4E672 		mov	r2, #460
 807 00c6 0649     		ldr	r1, .L73+8
 808 00c8 0220     		movs	r0, #2
 809              	.LVL98:
 810 00ca FFF7FEFF 		bl	lv_log_add
 811              	.LVL99:
 461:..\lvgl\lv_draw/lv_draw_img.c ****     }
 812              		.loc 1 461 0
 813 00ce 4FF0FF30 		mov	r0, #-1
 814 00d2 38BD     		pop	{r3, r4, r5, pc}
 815              	.LVL100:
 816              	.L71:
 409:..\lvgl\lv_draw/lv_draw_img.c ****         }
 817              		.loc 1 409 0
 818 00d4 0020     		movs	r0, #0
 819              	.LVL101:
 463:..\lvgl\lv_draw/lv_draw_img.c **** 
 820              		.loc 1 463 0
 821 00d6 38BD     		pop	{r3, r4, r5, pc}
 822              	.LVL102:
 823              	.L74:
 824              		.align	2
 825              	.L73:
 826 00d8 00000000 		.word	.LANCHOR0
 827 00dc D4010000 		.word	.LC8
 828 00e0 54000000 		.word	.LC1
 829 00e4 08020000 		.word	.LC9
 830 00e8 4C020000 		.word	.LC10
 831 00ec 9C020000 		.word	.LC11
 832 00f0 E4020000 		.word	.LC12
 833              		.cfi_endproc
 834              	.LFE20:
ARM GAS  C:\Users\d3bug\AppData\Local\Temp\ccD8CKMs.s 			page 31


 835              		.size	lv_img_decoder_open, .-lv_img_decoder_open
 836              		.section	.text.lv_img_draw_core,"ax",%progbits
 837              		.align	2
 838              		.thumb
 839              		.thumb_func
 840              		.type	lv_img_draw_core, %function
 841              	lv_img_draw_core:
 842              	.LFB19:
 286:..\lvgl\lv_draw/lv_draw_img.c **** 
 843              		.loc 1 286 0
 844              		.cfi_startproc
 845              		@ args = 4, pretend = 0, frame = 48
 846              		@ frame_needed = 1, uses_anonymous_args = 0
 847              	.LVL103:
 848 0000 2DE9F04F 		push	{r4, r5, r6, r7, r8, r9, r10, fp, lr}
 849              		.cfi_def_cfa_offset 36
 850              		.cfi_offset 4, -36
 851              		.cfi_offset 5, -32
 852              		.cfi_offset 6, -28
 853              		.cfi_offset 7, -24
 854              		.cfi_offset 8, -20
 855              		.cfi_offset 9, -16
 856              		.cfi_offset 10, -12
 857              		.cfi_offset 11, -8
 858              		.cfi_offset 14, -4
 859 0004 91B0     		sub	sp, sp, #68
 860              		.cfi_def_cfa_offset 104
 861 0006 04AF     		add	r7, sp, #16
 862              		.cfi_def_cfa 7, 88
 863 0008 0646     		mov	r6, r0
 864 000a 7961     		str	r1, [r7, #20]
 865 000c 9046     		mov	r8, r2
 866 000e 1C46     		mov	r4, r3
 867 0010 97F85850 		ldrb	r5, [r7, #88]	@ zero_extendqisi2
 290:..\lvgl\lv_draw/lv_draw_img.c ****     if(union_ok == false) {
 868              		.loc 1 290 0
 869 0014 0246     		mov	r2, r0
 870              	.LVL104:
 871 0016 07F12800 		add	r0, r7, #40
 872              	.LVL105:
 873 001a FFF7FEFF 		bl	lv_area_intersect
 874              	.LVL106:
 291:..\lvgl\lv_draw/lv_draw_img.c ****         return LV_RES_OK;         /*Out of mask. There is nothing to draw so the image is drawn suc
 875              		.loc 1 291 0
 876 001e 0028     		cmp	r0, #0
 877 0020 00F0BC80 		beq	.L86
 295:..\lvgl\lv_draw/lv_draw_img.c **** 
 878              		.loc 1 295 0
 879 0024 FF2D     		cmp	r5, #255
 880 0026 02D1     		bne	.L77
 295:..\lvgl\lv_draw/lv_draw_img.c **** 
 881              		.loc 1 295 0 is_stmt 0 discriminator 1
 882 0028 94F82E50 		ldrb	r5, [r4, #46]	@ zero_extendqisi2
 883 002c 05E0     		b	.L78
 884              	.L77:
 295:..\lvgl\lv_draw/lv_draw_img.c **** 
 885              		.loc 1 295 0 discriminator 2
ARM GAS  C:\Users\d3bug\AppData\Local\Temp\ccD8CKMs.s 			page 32


 886 002e 94F82E30 		ldrb	r3, [r4, #46]	@ zero_extendqisi2
 887 0032 03FB05F5 		mul	r5, r3, r5
 888 0036 C5F30725 		ubfx	r5, r5, #8, #8
 889              	.L78:
 890              	.LVL107:
 299:..\lvgl\lv_draw/lv_draw_img.c ****     if(header_res != LV_RES_OK) {
 891              		.loc 1 299 0 is_stmt 1 discriminator 4
 892 003a 07F12401 		add	r1, r7, #36
 893 003e 4046     		mov	r0, r8
 894              	.LVL108:
 895 0040 FFF7FEFF 		bl	lv_img_dsc_get_info
 896              	.LVL109:
 300:..\lvgl\lv_draw/lv_draw_img.c ****         LV_LOG_WARN("Image draw can't get image info");
 897              		.loc 1 300 0 discriminator 4
 898 0044 0128     		cmp	r0, #1
 899 0046 0AD0     		beq	.L79
 301:..\lvgl\lv_draw/lv_draw_img.c ****         lv_img_decoder_close();
 900              		.loc 1 301 0
 901 0048 574B     		ldr	r3, .L88
 902 004a 40F22D12 		movw	r2, #301
 903 004e 5749     		ldr	r1, .L88+4
 904 0050 0220     		movs	r0, #2
 905              	.LVL110:
 906 0052 FFF7FEFF 		bl	lv_log_add
 907              	.LVL111:
 302:..\lvgl\lv_draw/lv_draw_img.c ****         return LV_RES_INV;
 908              		.loc 1 302 0
 909 0056 FFF7FEFF 		bl	lv_img_decoder_close
 910              	.LVL112:
 303:..\lvgl\lv_draw/lv_draw_img.c ****     }
 911              		.loc 1 303 0
 912 005a 0020     		movs	r0, #0
 913 005c 9FE0     		b	.L76
 914              	.LVL113:
 915              	.L79:
 306:..\lvgl\lv_draw/lv_draw_img.c ****     bool alpha_byte = lv_img_color_format_has_alpha(header.cf);
 916              		.loc 1 306 0
 917 005e 97F824A0 		ldrb	r10, [r7, #36]	@ zero_extendqisi2
 918 0062 0AF01F0A 		and	r10, r10, #31
 919 0066 5046     		mov	r0, r10
 920              	.LVL114:
 921 0068 FFF7FEFF 		bl	lv_img_color_format_is_chroma_keyed
 922              	.LVL115:
 923 006c 8146     		mov	r9, r0
 924              	.LVL116:
 307:..\lvgl\lv_draw/lv_draw_img.c **** 
 925              		.loc 1 307 0
 926 006e 5046     		mov	r0, r10
 927 0070 FFF7FEFF 		bl	lv_img_color_format_has_alpha
 928              	.LVL117:
 929 0074 8246     		mov	r10, r0
 930              	.LVL118:
 309:..\lvgl\lv_draw/lv_draw_img.c ****     if(img_data == LV_IMG_DECODER_OPEN_FAIL) {
 931              		.loc 1 309 0
 932 0076 2146     		mov	r1, r4
 933 0078 4046     		mov	r0, r8
 934 007a FFF7FEFF 		bl	lv_img_decoder_open
ARM GAS  C:\Users\d3bug\AppData\Local\Temp\ccD8CKMs.s 			page 33


 935              	.LVL119:
 310:..\lvgl\lv_draw/lv_draw_img.c ****         LV_LOG_WARN("Image draw cannot open the image resource");
 936              		.loc 1 310 0
 937 007e B0F1FF3F 		cmp	r0, #-1
 938 0082 0AD1     		bne	.L80
 311:..\lvgl\lv_draw/lv_draw_img.c ****         lv_img_decoder_close();
 939              		.loc 1 311 0
 940 0084 4A4B     		ldr	r3, .L88+8
 941 0086 40F23712 		movw	r2, #311
 942 008a 4849     		ldr	r1, .L88+4
 943 008c 0220     		movs	r0, #2
 944              	.LVL120:
 945 008e FFF7FEFF 		bl	lv_log_add
 946              	.LVL121:
 312:..\lvgl\lv_draw/lv_draw_img.c ****         return LV_RES_INV;
 947              		.loc 1 312 0
 948 0092 FFF7FEFF 		bl	lv_img_decoder_close
 949              	.LVL122:
 313:..\lvgl\lv_draw/lv_draw_img.c ****     }
 950              		.loc 1 313 0
 951 0096 0020     		movs	r0, #0
 952 0098 81E0     		b	.L76
 953              	.LVL123:
 954              	.L80:
 318:..\lvgl\lv_draw/lv_draw_img.c ****         map_fp(coords, mask, img_data, opa, chroma_keyed, alpha_byte, style->image.color, style->im
 955              		.loc 1 318 0
 956 009a 90B1     		cbz	r0, .L81
 319:..\lvgl\lv_draw/lv_draw_img.c ****     }
 957              		.loc 1 319 0
 958 009c 94F82D30 		ldrb	r3, [r4, #45]	@ zero_extendqisi2
 959 00a0 0393     		str	r3, [sp, #12]
 960 00a2 94F82C30 		ldrb	r3, [r4, #44]	@ zero_extendqisi2
 961 00a6 8DF80830 		strb	r3, [sp, #8]
 962 00aa CDF804A0 		str	r10, [sp, #4]
 963 00ae CDF80090 		str	r9, [sp]
 964 00b2 404B     		ldr	r3, .L88+12
 965 00b4 1C68     		ldr	r4, [r3]
 966              	.LVL124:
 967 00b6 2B46     		mov	r3, r5
 968 00b8 0246     		mov	r2, r0
 969 00ba 7969     		ldr	r1, [r7, #20]
 970 00bc 3046     		mov	r0, r6
 971              	.LVL125:
 972 00be A047     		blx	r4
 973              	.LVL126:
 974 00c0 68E0     		b	.L82
 975              	.LVL127:
 976              	.L81:
 977              	.LBB16:
 322:..\lvgl\lv_draw/lv_draw_img.c ****         lv_coord_t width = lv_area_get_width(&mask_com);
 978              		.loc 1 322 0
 979 00c2 C7F804D0 		str	sp, [r7, #4]
 980              	.LVL128:
 981              	.LBB17:
 982              	.LBB18:
 983              		.file 2 "..\\lvgl\\lv_draw\\../lv_core/../lv_misc/lv_area.h"
   1:..\lvgl\lv_draw\../lv_core/../lv_misc/lv_area.h **** /**
ARM GAS  C:\Users\d3bug\AppData\Local\Temp\ccD8CKMs.s 			page 34


   2:..\lvgl\lv_draw\../lv_core/../lv_misc/lv_area.h ****  * @file lv_area.h
   3:..\lvgl\lv_draw\../lv_core/../lv_misc/lv_area.h ****  *
   4:..\lvgl\lv_draw\../lv_core/../lv_misc/lv_area.h ****  */
   5:..\lvgl\lv_draw\../lv_core/../lv_misc/lv_area.h **** 
   6:..\lvgl\lv_draw\../lv_core/../lv_misc/lv_area.h **** #ifndef LV_AREA_H
   7:..\lvgl\lv_draw\../lv_core/../lv_misc/lv_area.h **** #define LV_AREA_H
   8:..\lvgl\lv_draw\../lv_core/../lv_misc/lv_area.h **** 
   9:..\lvgl\lv_draw\../lv_core/../lv_misc/lv_area.h **** #ifdef __cplusplus
  10:..\lvgl\lv_draw\../lv_core/../lv_misc/lv_area.h **** extern "C" {
  11:..\lvgl\lv_draw\../lv_core/../lv_misc/lv_area.h **** #endif
  12:..\lvgl\lv_draw\../lv_core/../lv_misc/lv_area.h **** 
  13:..\lvgl\lv_draw\../lv_core/../lv_misc/lv_area.h **** 
  14:..\lvgl\lv_draw\../lv_core/../lv_misc/lv_area.h **** /*********************
  15:..\lvgl\lv_draw\../lv_core/../lv_misc/lv_area.h ****  *      INCLUDES
  16:..\lvgl\lv_draw\../lv_core/../lv_misc/lv_area.h ****  *********************/
  17:..\lvgl\lv_draw\../lv_core/../lv_misc/lv_area.h **** #include <string.h>
  18:..\lvgl\lv_draw\../lv_core/../lv_misc/lv_area.h **** #include <stdbool.h>
  19:..\lvgl\lv_draw\../lv_core/../lv_misc/lv_area.h **** #include <stdint.h>
  20:..\lvgl\lv_draw\../lv_core/../lv_misc/lv_area.h **** 
  21:..\lvgl\lv_draw\../lv_core/../lv_misc/lv_area.h **** /*********************
  22:..\lvgl\lv_draw\../lv_core/../lv_misc/lv_area.h ****  *      DEFINES
  23:..\lvgl\lv_draw\../lv_core/../lv_misc/lv_area.h ****  *********************/
  24:..\lvgl\lv_draw\../lv_core/../lv_misc/lv_area.h **** #define LV_COORD_MAX     (16383)    /*To avoid overflow don't let the max [-32,32k] range */
  25:..\lvgl\lv_draw\../lv_core/../lv_misc/lv_area.h **** #define LV_COORD_MIN     (-16384)
  26:..\lvgl\lv_draw\../lv_core/../lv_misc/lv_area.h **** 
  27:..\lvgl\lv_draw\../lv_core/../lv_misc/lv_area.h **** /**********************
  28:..\lvgl\lv_draw\../lv_core/../lv_misc/lv_area.h ****  *      TYPEDEFS
  29:..\lvgl\lv_draw\../lv_core/../lv_misc/lv_area.h ****  **********************/
  30:..\lvgl\lv_draw\../lv_core/../lv_misc/lv_area.h **** typedef int16_t lv_coord_t;
  31:..\lvgl\lv_draw\../lv_core/../lv_misc/lv_area.h **** 
  32:..\lvgl\lv_draw\../lv_core/../lv_misc/lv_area.h **** typedef struct
  33:..\lvgl\lv_draw\../lv_core/../lv_misc/lv_area.h **** {
  34:..\lvgl\lv_draw\../lv_core/../lv_misc/lv_area.h ****     lv_coord_t x;
  35:..\lvgl\lv_draw\../lv_core/../lv_misc/lv_area.h ****     lv_coord_t y;
  36:..\lvgl\lv_draw\../lv_core/../lv_misc/lv_area.h **** } lv_point_t;
  37:..\lvgl\lv_draw\../lv_core/../lv_misc/lv_area.h **** 
  38:..\lvgl\lv_draw\../lv_core/../lv_misc/lv_area.h **** typedef struct
  39:..\lvgl\lv_draw\../lv_core/../lv_misc/lv_area.h **** {
  40:..\lvgl\lv_draw\../lv_core/../lv_misc/lv_area.h ****     lv_coord_t x1;
  41:..\lvgl\lv_draw\../lv_core/../lv_misc/lv_area.h ****     lv_coord_t y1;
  42:..\lvgl\lv_draw\../lv_core/../lv_misc/lv_area.h ****     lv_coord_t x2;
  43:..\lvgl\lv_draw\../lv_core/../lv_misc/lv_area.h ****     lv_coord_t y2;
  44:..\lvgl\lv_draw\../lv_core/../lv_misc/lv_area.h **** } lv_area_t;
  45:..\lvgl\lv_draw\../lv_core/../lv_misc/lv_area.h **** 
  46:..\lvgl\lv_draw\../lv_core/../lv_misc/lv_area.h **** /**********************
  47:..\lvgl\lv_draw\../lv_core/../lv_misc/lv_area.h ****  * GLOBAL PROTOTYPES
  48:..\lvgl\lv_draw\../lv_core/../lv_misc/lv_area.h ****  **********************/
  49:..\lvgl\lv_draw\../lv_core/../lv_misc/lv_area.h **** 
  50:..\lvgl\lv_draw\../lv_core/../lv_misc/lv_area.h **** /**
  51:..\lvgl\lv_draw\../lv_core/../lv_misc/lv_area.h ****  * Initialize an area
  52:..\lvgl\lv_draw\../lv_core/../lv_misc/lv_area.h ****  * @param area_p pointer to an area
  53:..\lvgl\lv_draw\../lv_core/../lv_misc/lv_area.h ****  * @param x1 left coordinate of the area
  54:..\lvgl\lv_draw\../lv_core/../lv_misc/lv_area.h ****  * @param y1 top coordinate of the area
  55:..\lvgl\lv_draw\../lv_core/../lv_misc/lv_area.h ****  * @param x2 right coordinate of the area
  56:..\lvgl\lv_draw\../lv_core/../lv_misc/lv_area.h ****  * @param y2 bottom coordinate of the area
  57:..\lvgl\lv_draw\../lv_core/../lv_misc/lv_area.h ****  */
  58:..\lvgl\lv_draw\../lv_core/../lv_misc/lv_area.h **** void lv_area_set(lv_area_t * area_p, lv_coord_t x1, lv_coord_t y1, lv_coord_t x2, lv_coord_t y2);
ARM GAS  C:\Users\d3bug\AppData\Local\Temp\ccD8CKMs.s 			page 35


  59:..\lvgl\lv_draw\../lv_core/../lv_misc/lv_area.h **** 
  60:..\lvgl\lv_draw\../lv_core/../lv_misc/lv_area.h **** /**
  61:..\lvgl\lv_draw\../lv_core/../lv_misc/lv_area.h ****  * Copy an area
  62:..\lvgl\lv_draw\../lv_core/../lv_misc/lv_area.h ****  * @param dest pointer to the destination area
  63:..\lvgl\lv_draw\../lv_core/../lv_misc/lv_area.h ****  * @param src pointer to the source area
  64:..\lvgl\lv_draw\../lv_core/../lv_misc/lv_area.h ****  */
  65:..\lvgl\lv_draw\../lv_core/../lv_misc/lv_area.h **** inline static void lv_area_copy(lv_area_t * dest, const lv_area_t * src)
  66:..\lvgl\lv_draw\../lv_core/../lv_misc/lv_area.h **** {
  67:..\lvgl\lv_draw\../lv_core/../lv_misc/lv_area.h ****     memcpy(dest, src, sizeof(lv_area_t));
  68:..\lvgl\lv_draw\../lv_core/../lv_misc/lv_area.h **** }
  69:..\lvgl\lv_draw\../lv_core/../lv_misc/lv_area.h **** 
  70:..\lvgl\lv_draw\../lv_core/../lv_misc/lv_area.h **** /**
  71:..\lvgl\lv_draw\../lv_core/../lv_misc/lv_area.h ****  * Get the width of an area
  72:..\lvgl\lv_draw\../lv_core/../lv_misc/lv_area.h ****  * @param area_p pointer to an area
  73:..\lvgl\lv_draw\../lv_core/../lv_misc/lv_area.h ****  * @return the width of the area (if x1 == x2 -> width = 1)
  74:..\lvgl\lv_draw\../lv_core/../lv_misc/lv_area.h ****  */
  75:..\lvgl\lv_draw\../lv_core/../lv_misc/lv_area.h **** static inline lv_coord_t lv_area_get_width(const lv_area_t * area_p)
  76:..\lvgl\lv_draw\../lv_core/../lv_misc/lv_area.h **** {
  77:..\lvgl\lv_draw\../lv_core/../lv_misc/lv_area.h ****     return area_p->x2 - area_p->x1 + 1;
 984              		.loc 2 77 0
 985 00c6 B7F92C30 		ldrsh	r3, [r7, #44]
 986 00ca B7F92820 		ldrsh	r2, [r7, #40]
 987 00ce 9B1A     		subs	r3, r3, r2
 988 00d0 0133     		adds	r3, r3, #1
 989 00d2 1BB2     		sxth	r3, r3
 990 00d4 BB60     		str	r3, [r7, #8]
 991              	.LVL129:
 992              	.LBE18:
 993              	.LBE17:
 326:..\lvgl\lv_draw/lv_draw_img.c **** #else
 994              		.loc 1 326 0
 995 00d6 0733     		adds	r3, r3, #7
 996              	.LVL130:
 997 00d8 23F00703 		bic	r3, r3, #7
 998 00dc ADEB030D 		sub	sp, sp, r3
 999 00e0 04AB     		add	r3, sp, #16
 1000 00e2 3B61     		str	r3, [r7, #16]
 1001              	.LVL131:
 1002              	.LBB19:
 1003              	.LBB20:
  67:..\lvgl\lv_draw\../lv_core/../lv_misc/lv_area.h **** }
 1004              		.loc 2 67 0
 1005 00e4 07F11C03 		add	r3, r7, #28
 1006              	.LVL132:
 1007 00e8 07F13002 		add	r2, r7, #48
 1008 00ec 12E90300 		ldmdb	r2, {r0, r1}
 1009              	.LVL133:
 1010 00f0 83E80300 		stmia	r3, {r0, r1}
 1011              	.LVL134:
 1012              	.LBE20:
 1013              	.LBE19:
 332:..\lvgl\lv_draw/lv_draw_img.c ****         lv_coord_t x = mask_com.x1 - coords->x1;
 1014              		.loc 1 332 0
 1015 00f4 0121     		movs	r1, #1
 1016 00f6 1846     		mov	r0, r3
 1017 00f8 FFF7FEFF 		bl	lv_area_set_height
 1018              	.LVL135:
ARM GAS  C:\Users\d3bug\AppData\Local\Temp\ccD8CKMs.s 			page 36


 333:..\lvgl\lv_draw/lv_draw_img.c ****         lv_coord_t y = mask_com.y1 - coords->y1;
 1019              		.loc 1 333 0
 1020 00fc B7F92830 		ldrsh	r3, [r7, #40]
 1021 0100 B6F90020 		ldrsh	r2, [r6]
 1022 0104 9B1A     		subs	r3, r3, r2
 1023 0106 1BB2     		sxth	r3, r3
 1024 0108 FB60     		str	r3, [r7, #12]
 1025              	.LVL136:
 334:..\lvgl\lv_draw/lv_draw_img.c ****         lv_coord_t row;
 1026              		.loc 1 334 0
 1027 010a B7F92A80 		ldrsh	r8, [r7, #42]
 1028              	.LVL137:
 1029 010e B6F90260 		ldrsh	r6, [r6, #2]
 1030              	.LVL138:
 1031 0112 C6EB0806 		rsb	r6, r6, r8
 1032 0116 36B2     		sxth	r6, r6
 1033              	.LVL139:
 1034 0118 AB46     		mov	fp, r5
 337:..\lvgl\lv_draw/lv_draw_img.c ****             read_res = lv_img_decoder_read_line(x, y, width, buf);
 1035              		.loc 1 337 0
 1036 011a 35E0     		b	.L83
 1037              	.LVL140:
 1038              	.L85:
 338:..\lvgl\lv_draw/lv_draw_img.c ****             if(read_res != LV_RES_OK) {
 1039              		.loc 1 338 0
 1040 011c 3B69     		ldr	r3, [r7, #16]
 1041 011e BA68     		ldr	r2, [r7, #8]
 1042 0120 3146     		mov	r1, r6
 1043 0122 F868     		ldr	r0, [r7, #12]
 1044 0124 FFF7FEFF 		bl	lv_img_decoder_read_line
 1045              	.LVL141:
 339:..\lvgl\lv_draw/lv_draw_img.c ****                 lv_img_decoder_close();
 1046              		.loc 1 339 0
 1047 0128 0128     		cmp	r0, #1
 1048 012a 0CD0     		beq	.L84
 340:..\lvgl\lv_draw/lv_draw_img.c ****                 LV_LOG_WARN("Image draw can't read the line");
 1049              		.loc 1 340 0
 1050 012c FFF7FEFF 		bl	lv_img_decoder_close
 1051              	.LVL142:
 341:..\lvgl\lv_draw/lv_draw_img.c ****                 return LV_RES_INV;
 1052              		.loc 1 341 0
 1053 0130 214B     		ldr	r3, .L88+16
 1054 0132 40F25512 		movw	r2, #341
 1055 0136 1D49     		ldr	r1, .L88+4
 1056 0138 0220     		movs	r0, #2
 1057 013a FFF7FEFF 		bl	lv_log_add
 1058              	.LVL143:
 342:..\lvgl\lv_draw/lv_draw_img.c ****             }
 1059              		.loc 1 342 0
 1060 013e D7F804D0 		ldr	sp, [r7, #4]
 1061              	.LVL144:
 1062 0142 0020     		movs	r0, #0
 1063 0144 2BE0     		b	.L76
 1064              	.LVL145:
 1065              	.L84:
 344:..\lvgl\lv_draw/lv_draw_img.c ****             line.y1++;
 1066              		.loc 1 344 0 discriminator 2
ARM GAS  C:\Users\d3bug\AppData\Local\Temp\ccD8CKMs.s 			page 37


 1067 0146 94F82D30 		ldrb	r3, [r4, #45]	@ zero_extendqisi2
 1068 014a 0393     		str	r3, [sp, #12]
 1069 014c 94F82C30 		ldrb	r3, [r4, #44]	@ zero_extendqisi2
 1070 0150 8DF80830 		strb	r3, [sp, #8]
 1071 0154 CDF804A0 		str	r10, [sp, #4]
 1072 0158 CDF80090 		str	r9, [sp]
 1073 015c 154B     		ldr	r3, .L88+12
 1074 015e 1D68     		ldr	r5, [r3]
 1075 0160 5B46     		mov	r3, fp
 1076 0162 3A69     		ldr	r2, [r7, #16]
 1077 0164 7969     		ldr	r1, [r7, #20]
 1078 0166 07F11C00 		add	r0, r7, #28
 1079              	.LVL146:
 1080 016a A847     		blx	r5
 1081              	.LVL147:
 345:..\lvgl\lv_draw/lv_draw_img.c ****             line.y2++;
 1082              		.loc 1 345 0 discriminator 2
 1083 016c B7F91E30 		ldrsh	r3, [r7, #30]
 1084 0170 0133     		adds	r3, r3, #1
 1085 0172 FB83     		strh	r3, [r7, #30]	@ movhi
 346:..\lvgl\lv_draw/lv_draw_img.c ****             y++;
 1086              		.loc 1 346 0 discriminator 2
 1087 0174 B7F92230 		ldrsh	r3, [r7, #34]
 1088 0178 0133     		adds	r3, r3, #1
 1089 017a 7B84     		strh	r3, [r7, #34]	@ movhi
 347:..\lvgl\lv_draw/lv_draw_img.c ****         }
 1090              		.loc 1 347 0 discriminator 2
 1091 017c 0136     		adds	r6, r6, #1
 1092              	.LVL148:
 1093 017e 36B2     		sxth	r6, r6
 1094              	.LVL149:
 337:..\lvgl\lv_draw/lv_draw_img.c ****             read_res = lv_img_decoder_read_line(x, y, width, buf);
 1095              		.loc 1 337 0 discriminator 2
 1096 0180 08F10108 		add	r8, r8, #1
 1097              	.LVL150:
 1098 0184 0FFA88F8 		sxth	r8, r8
 1099              	.LVL151:
 1100              	.L83:
 337:..\lvgl\lv_draw/lv_draw_img.c ****             read_res = lv_img_decoder_read_line(x, y, width, buf);
 1101              		.loc 1 337 0 is_stmt 0 discriminator 1
 1102 0188 B7F92E30 		ldrsh	r3, [r7, #46]
 1103 018c 9845     		cmp	r8, r3
 1104 018e C5DD     		ble	.L85
 1105 0190 D7F804D0 		ldr	sp, [r7, #4]
 1106              	.LVL152:
 1107              	.L82:
 1108              	.LBE16:
 351:..\lvgl\lv_draw/lv_draw_img.c **** 
 1109              		.loc 1 351 0 is_stmt 1
 1110 0194 FFF7FEFF 		bl	lv_img_decoder_close
 1111              	.LVL153:
 353:..\lvgl\lv_draw/lv_draw_img.c **** }
 1112              		.loc 1 353 0
 1113 0198 0120     		movs	r0, #1
 1114 019a 00E0     		b	.L76
 1115              	.LVL154:
 1116              	.L86:
ARM GAS  C:\Users\d3bug\AppData\Local\Temp\ccD8CKMs.s 			page 38


 292:..\lvgl\lv_draw/lv_draw_img.c ****     }
 1117              		.loc 1 292 0
 1118 019c 0120     		movs	r0, #1
 1119              	.LVL155:
 1120              	.L76:
 354:..\lvgl\lv_draw/lv_draw_img.c **** 
 1121              		.loc 1 354 0
 1122 019e 3437     		adds	r7, r7, #52
 1123              		.cfi_def_cfa_offset 36
 1124 01a0 BD46     		mov	sp, r7
 1125              		.cfi_def_cfa_register 13
 1126              		@ sp needed
 1127 01a2 BDE8F08F 		pop	{r4, r5, r6, r7, r8, r9, r10, fp, pc}
 1128              	.L89:
 1129 01a6 00BF     		.align	2
 1130              	.L88:
 1131 01a8 10030000 		.word	.LC13
 1132 01ac 54000000 		.word	.LC1
 1133 01b0 30030000 		.word	.LC14
 1134 01b4 00000000 		.word	map_fp
 1135 01b8 5C030000 		.word	.LC15
 1136              		.cfi_endproc
 1137              	.LFE19:
 1138              		.size	lv_img_draw_core, .-lv_img_draw_core
 1139              		.section	.text.lv_draw_img,"ax",%progbits
 1140              		.align	2
 1141              		.global	lv_draw_img
 1142              		.thumb
 1143              		.thumb_func
 1144              		.type	lv_draw_img, %function
 1145              	lv_draw_img:
 1146              	.LFB12:
  70:..\lvgl\lv_draw/lv_draw_img.c ****     if(src == NULL) {
 1147              		.loc 1 70 0
 1148              		.cfi_startproc
 1149              		@ args = 4, pretend = 0, frame = 0
 1150              		@ frame_needed = 0, uses_anonymous_args = 0
 1151              	.LVL156:
 1152 0000 70B5     		push	{r4, r5, r6, lr}
 1153              		.cfi_def_cfa_offset 16
 1154              		.cfi_offset 4, -16
 1155              		.cfi_offset 5, -12
 1156              		.cfi_offset 6, -8
 1157              		.cfi_offset 14, -4
 1158 0002 84B0     		sub	sp, sp, #16
 1159              		.cfi_def_cfa_offset 32
 1160 0004 0446     		mov	r4, r0
 1161 0006 0D46     		mov	r5, r1
  71:..\lvgl\lv_draw/lv_draw_img.c ****         LV_LOG_WARN("Image draw: src is NULL");
 1162              		.loc 1 71 0
 1163 0008 C2B9     		cbnz	r2, .L91
  72:..\lvgl\lv_draw/lv_draw_img.c ****         lv_draw_rect(coords, mask, &lv_style_plain, LV_OPA_COVER);
 1164              		.loc 1 72 0
 1165 000a 1E4B     		ldr	r3, .L94
 1166              	.LVL157:
 1167 000c 4822     		movs	r2, #72
 1168              	.LVL158:
ARM GAS  C:\Users\d3bug\AppData\Local\Temp\ccD8CKMs.s 			page 39


 1169 000e 1E49     		ldr	r1, .L94+4
 1170              	.LVL159:
 1171 0010 0220     		movs	r0, #2
 1172              	.LVL160:
 1173 0012 FFF7FEFF 		bl	lv_log_add
 1174              	.LVL161:
  73:..\lvgl\lv_draw/lv_draw_img.c ****         lv_draw_label(coords, mask, &lv_style_plain, LV_OPA_COVER, "No\ndata", LV_TXT_FLAG_NONE, NU
 1175              		.loc 1 73 0
 1176 0016 1D4E     		ldr	r6, .L94+8
 1177 0018 FF23     		movs	r3, #255
 1178 001a 3246     		mov	r2, r6
 1179 001c 2946     		mov	r1, r5
 1180 001e 2046     		mov	r0, r4
 1181 0020 FFF7FEFF 		bl	lv_draw_rect
 1182              	.LVL162:
  74:..\lvgl\lv_draw/lv_draw_img.c ****         return;
 1183              		.loc 1 74 0
 1184 0024 0023     		movs	r3, #0
 1185 0026 0293     		str	r3, [sp, #8]
 1186 0028 0193     		str	r3, [sp, #4]
 1187 002a 194B     		ldr	r3, .L94+12
 1188 002c 0093     		str	r3, [sp]
 1189 002e FF23     		movs	r3, #255
 1190 0030 3246     		mov	r2, r6
 1191 0032 2946     		mov	r1, r5
 1192 0034 2046     		mov	r0, r4
 1193 0036 FFF7FEFF 		bl	lv_draw_label
 1194              	.LVL163:
  75:..\lvgl\lv_draw/lv_draw_img.c ****     }
 1195              		.loc 1 75 0
 1196 003a 20E0     		b	.L90
 1197              	.LVL164:
 1198              	.L91:
 1199 003c 1146     		mov	r1, r2
 1200              	.LVL165:
  79:..\lvgl\lv_draw/lv_draw_img.c **** 
 1201              		.loc 1 79 0
 1202 003e 9DF82020 		ldrb	r2, [sp, #32]	@ zero_extendqisi2
 1203              	.LVL166:
 1204 0042 0092     		str	r2, [sp]
 1205 0044 0A46     		mov	r2, r1
 1206 0046 2946     		mov	r1, r5
 1207              	.LVL167:
 1208 0048 FFF7FEFF 		bl	lv_img_draw_core
 1209              	.LVL168:
  81:..\lvgl\lv_draw/lv_draw_img.c ****         LV_LOG_WARN("Image draw error");
 1210              		.loc 1 81 0
 1211 004c B8B9     		cbnz	r0, .L90
  82:..\lvgl\lv_draw/lv_draw_img.c ****         lv_draw_rect(coords, mask, &lv_style_plain, LV_OPA_COVER);
 1212              		.loc 1 82 0
 1213 004e 114B     		ldr	r3, .L94+16
 1214 0050 5222     		movs	r2, #82
 1215 0052 0D49     		ldr	r1, .L94+4
 1216 0054 0220     		movs	r0, #2
 1217              	.LVL169:
 1218 0056 FFF7FEFF 		bl	lv_log_add
 1219              	.LVL170:
ARM GAS  C:\Users\d3bug\AppData\Local\Temp\ccD8CKMs.s 			page 40


  83:..\lvgl\lv_draw/lv_draw_img.c ****         lv_draw_label(coords, mask, &lv_style_plain, LV_OPA_COVER, "No\ndata", LV_TXT_FLAG_NONE, NU
 1220              		.loc 1 83 0
 1221 005a 0C4E     		ldr	r6, .L94+8
 1222 005c FF23     		movs	r3, #255
 1223 005e 3246     		mov	r2, r6
 1224 0060 2946     		mov	r1, r5
 1225 0062 2046     		mov	r0, r4
 1226 0064 FFF7FEFF 		bl	lv_draw_rect
 1227              	.LVL171:
  84:..\lvgl\lv_draw/lv_draw_img.c ****         return;
 1228              		.loc 1 84 0
 1229 0068 0023     		movs	r3, #0
 1230 006a 0293     		str	r3, [sp, #8]
 1231 006c 0193     		str	r3, [sp, #4]
 1232 006e 084B     		ldr	r3, .L94+12
 1233 0070 0093     		str	r3, [sp]
 1234 0072 FF23     		movs	r3, #255
 1235 0074 3246     		mov	r2, r6
 1236 0076 2946     		mov	r1, r5
 1237 0078 2046     		mov	r0, r4
 1238 007a FFF7FEFF 		bl	lv_draw_label
 1239              	.LVL172:
 1240              	.L90:
  87:..\lvgl\lv_draw/lv_draw_img.c **** 
 1241              		.loc 1 87 0
 1242 007e 04B0     		add	sp, sp, #16
 1243              		.cfi_def_cfa_offset 16
 1244              		@ sp needed
 1245 0080 70BD     		pop	{r4, r5, r6, pc}
 1246              	.LVL173:
 1247              	.L95:
 1248 0082 00BF     		.align	2
 1249              	.L94:
 1250 0084 7C030000 		.word	.LC16
 1251 0088 54000000 		.word	.LC1
 1252 008c 00000000 		.word	lv_style_plain
 1253 0090 94030000 		.word	.LC17
 1254 0094 9C030000 		.word	.LC18
 1255              		.cfi_endproc
 1256              	.LFE12:
 1257              		.size	lv_draw_img, .-lv_draw_img
 1258              		.section	.text.lv_img_decoder_set_custom,"ax",%progbits
 1259              		.align	2
 1260              		.global	lv_img_decoder_set_custom
 1261              		.thumb
 1262              		.thumb_func
 1263              		.type	lv_img_decoder_set_custom, %function
 1264              	lv_img_decoder_set_custom:
 1265              	.LFB18:
 271:..\lvgl\lv_draw/lv_draw_img.c ****     lv_img_decoder_info_custom = info_fp;
 1266              		.loc 1 271 0
 1267              		.cfi_startproc
 1268              		@ args = 0, pretend = 0, frame = 0
 1269              		@ frame_needed = 0, uses_anonymous_args = 0
 1270              		@ link register save eliminated.
 1271              	.LVL174:
 1272 0000 10B4     		push	{r4}
ARM GAS  C:\Users\d3bug\AppData\Local\Temp\ccD8CKMs.s 			page 41


 1273              		.cfi_def_cfa_offset 4
 1274              		.cfi_offset 4, -4
 272:..\lvgl\lv_draw/lv_draw_img.c ****     lv_img_decoder_open_custom = open_fp;
 1275              		.loc 1 272 0
 1276 0002 034C     		ldr	r4, .L98
 1277 0004 6061     		str	r0, [r4, #20]
 273:..\lvgl\lv_draw/lv_draw_img.c ****     lv_img_decoder_read_line_custom = read_fp;
 1278              		.loc 1 273 0
 1279 0006 A161     		str	r1, [r4, #24]
 274:..\lvgl\lv_draw/lv_draw_img.c ****     lv_img_decoder_close_custom = close_fp;
 1280              		.loc 1 274 0
 1281 0008 2261     		str	r2, [r4, #16]
 275:..\lvgl\lv_draw/lv_draw_img.c **** }
 1282              		.loc 1 275 0
 1283 000a 6360     		str	r3, [r4, #4]
 276:..\lvgl\lv_draw/lv_draw_img.c **** 
 1284              		.loc 1 276 0
 1285 000c 10BC     		pop	{r4}
 1286              		.cfi_restore 4
 1287              		.cfi_def_cfa_offset 0
 1288 000e 7047     		bx	lr
 1289              	.L99:
 1290              		.align	2
 1291              	.L98:
 1292 0010 00000000 		.word	.LANCHOR0
 1293              		.cfi_endproc
 1294              	.LFE18:
 1295              		.size	lv_img_decoder_set_custom, .-lv_img_decoder_set_custom
 1296              		.section	.rodata.str1.4,"aMS",%progbits,1
 1297              		.align	2
 1298              	.LC0:
 1299 0000 496D6167 		.ascii	"Image built-in alpha line reader failed because LV_"
 1299      65206275 
 1299      696C742D 
 1299      696E2061 
 1299      6C706861 
 1300 0033 494D475F 		.ascii	"IMG_CF_ALPHA is 0 in lv_conf.h\000"
 1300      43465F41 
 1300      4C504841 
 1300      20697320 
 1300      3020696E 
 1301 0052 0000     		.space	2
 1302              	.LC1:
 1303 0054 2E2E5C6C 		.ascii	"..\\lvgl\\lv_draw\\lv_draw_img.c\000"
 1303      76676C5C 
 1303      6C765F64 
 1303      7261775C 
 1303      6C765F64 
 1304 0072 0000     		.space	2
 1305              	.LC2:
 1306 0074 496D6167 		.ascii	"Image built-in indexed line reader failed because L"
 1306      65206275 
 1306      696C742D 
 1306      696E2069 
 1306      6E646578 
 1307 00a7 565F494D 		.ascii	"V_IMG_CF_INDEXED is 0 in lv_conf.h\000"
 1307      475F4346 
ARM GAS  C:\Users\d3bug\AppData\Local\Temp\ccD8CKMs.s 			page 42


 1307      5F494E44 
 1307      45584544 
 1307      20697320 
 1308 00ca 0000     		.space	2
 1309              	.LC3:
 1310 00cc 496D6167 		.ascii	"Image open with custom decoder but read not support"
 1310      65206F70 
 1310      656E2077 
 1310      69746820 
 1310      63757374 
 1311 00ff 656400   		.ascii	"ed\000"
 1312 0102 0000     		.space	2
 1313              	.LC4:
 1314 0104 496D6167 		.ascii	"Image built-in decoder can't read file because USE_"
 1314      65206275 
 1314      696C742D 
 1314      696E2064 
 1314      65636F64 
 1315 0137 4C565F46 		.ascii	"LV_FILESYSTEM = 0\000"
 1315      494C4553 
 1315      59535445 
 1315      4D203D20 
 1315      3000
 1316 0149 000000   		.space	3
 1317              	.LC5:
 1318 014c 4275696C 		.ascii	"Built-in image decoder not supports the color forma"
 1318      742D696E 
 1318      20696D61 
 1318      67652064 
 1318      65636F64 
 1319 017f 7400     		.ascii	"t\000"
 1320 0181 000000   		.space	3
 1321              	.LC6:
 1322 0184 6C765F69 		.ascii	"lv_img_src_get_type: unknown image type\000"
 1322      6D675F73 
 1322      72635F67 
 1322      65745F74 
 1322      7970653A 
 1323              	.LC7:
 1324 01ac 496D6167 		.ascii	"Image get info found unknown src type\000"
 1324      65206765 
 1324      7420696E 
 1324      666F2066 
 1324      6F756E64 
 1325 01d2 0000     		.space	2
 1326              	.LC8:
 1327 01d4 4275696C 		.ascii	"Built-in image decoder can't get the header info\000"
 1327      742D696E 
 1327      20696D61 
 1327      67652064 
 1327      65636F64 
 1328 0205 000000   		.space	3
 1329              	.LC9:
 1330 0208 496D6167 		.ascii	"Image built-in decoder can read file because USE_LV"
 1330      65206275 
 1330      696C742D 
 1330      696E2064 
ARM GAS  C:\Users\d3bug\AppData\Local\Temp\ccD8CKMs.s 			page 43


 1330      65636F64 
 1331 023b 5F46494C 		.ascii	"_FILESYSTEM = 0\000"
 1331      45535953 
 1331      54454D20 
 1331      3D203000 
 1332 024b 00       		.space	1
 1333              	.LC10:
 1334 024c 496E6465 		.ascii	"Indexed (palette) images are not enabled in lv_conf"
 1334      78656420 
 1334      2870616C 
 1334      65747465 
 1334      2920696D 
 1335 027f 2E682E20 		.ascii	".h. See LV_IMG_CF_INDEXED\000"
 1335      53656520 
 1335      4C565F49 
 1335      4D475F43 
 1335      465F494E 
 1336 0299 000000   		.space	3
 1337              	.LC11:
 1338 029c 416C7068 		.ascii	"Alpha indexed images are not enabled in lv_conf.h. "
 1338      6120696E 
 1338      64657865 
 1338      6420696D 
 1338      61676573 
 1339 02cf 53656520 		.ascii	"See LV_IMG_CF_ALPHA\000"
 1339      4C565F49 
 1339      4D475F43 
 1339      465F414C 
 1339      50484100 
 1340 02e3 00       		.space	1
 1341              	.LC12:
 1342 02e4 496D6167 		.ascii	"Image decoder open: unknown color format\000"
 1342      65206465 
 1342      636F6465 
 1342      72206F70 
 1342      656E3A20 
 1343 030d 000000   		.space	3
 1344              	.LC13:
 1345 0310 496D6167 		.ascii	"Image draw can't get image info\000"
 1345      65206472 
 1345      61772063 
 1345      616E2774 
 1345      20676574 
 1346              	.LC14:
 1347 0330 496D6167 		.ascii	"Image draw cannot open the image resource\000"
 1347      65206472 
 1347      61772063 
 1347      616E6E6F 
 1347      74206F70 
 1348 035a 0000     		.space	2
 1349              	.LC15:
 1350 035c 496D6167 		.ascii	"Image draw can't read the line\000"
 1350      65206472 
 1350      61772063 
 1350      616E2774 
 1350      20726561 
 1351 037b 00       		.space	1
ARM GAS  C:\Users\d3bug\AppData\Local\Temp\ccD8CKMs.s 			page 44


 1352              	.LC16:
 1353 037c 496D6167 		.ascii	"Image draw: src is NULL\000"
 1353      65206472 
 1353      61773A20 
 1353      73726320 
 1353      6973204E 
 1354              	.LC17:
 1355 0394 4E6F0A64 		.ascii	"No\012data\000"
 1355      61746100 
 1356              	.LC18:
 1357 039c 496D6167 		.ascii	"Image draw error\000"
 1357      65206472 
 1357      61772065 
 1357      72726F72 
 1357      00
 1358              		.bss
 1359              		.align	2
 1360              		.set	.LANCHOR0,. + 0
 1361              		.type	decoder_custom, %object
 1362              		.size	decoder_custom, 1
 1363              	decoder_custom:
 1364 0000 00       		.space	1
 1365 0001 000000   		.space	3
 1366              		.type	lv_img_decoder_close_custom, %object
 1367              		.size	lv_img_decoder_close_custom, 4
 1368              	lv_img_decoder_close_custom:
 1369 0004 00000000 		.space	4
 1370              		.type	decoder_src, %object
 1371              		.size	decoder_src, 4
 1372              	decoder_src:
 1373 0008 00000000 		.space	4
 1374              		.type	decoder_src_type, %object
 1375              		.size	decoder_src_type, 1
 1376              	decoder_src_type:
 1377 000c 00       		.space	1
 1378 000d 000000   		.space	3
 1379              		.type	lv_img_decoder_read_line_custom, %object
 1380              		.size	lv_img_decoder_read_line_custom, 4
 1381              	lv_img_decoder_read_line_custom:
 1382 0010 00000000 		.space	4
 1383              		.type	lv_img_decoder_info_custom, %object
 1384              		.size	lv_img_decoder_info_custom, 4
 1385              	lv_img_decoder_info_custom:
 1386 0014 00000000 		.space	4
 1387              		.type	lv_img_decoder_open_custom, %object
 1388              		.size	lv_img_decoder_open_custom, 4
 1389              	lv_img_decoder_open_custom:
 1390 0018 00000000 		.space	4
 1391              		.type	decoder_header, %object
 1392              		.size	decoder_header, 4
 1393              	decoder_header:
 1394 001c 00000000 		.space	4
 1395              		.text
 1396              	.Letext0:
 1397              		.file 3 "c:\\program files (x86)\\cypress\\psoc creator\\4.2\\psoc creator\\import\\gnu\\arm\\5.4.
 1398              		.file 4 "c:\\program files (x86)\\cypress\\psoc creator\\4.2\\psoc creator\\import\\gnu\\arm\\5.4.
 1399              		.file 5 "..\\lvgl\\lv_draw\\../lv_core/../lv_misc/lv_color.h"
ARM GAS  C:\Users\d3bug\AppData\Local\Temp\ccD8CKMs.s 			page 45


 1400              		.file 6 "..\\lvgl\\lv_draw\\../lv_core/../lv_misc/lv_font.h"
 1401              		.file 7 "..\\lvgl\\lv_draw\\../lv_core/lv_style.h"
 1402              		.file 8 "..\\lvgl\\lv_draw\\../lv_misc/lv_txt.h"
 1403              		.file 9 "..\\lvgl\\lv_draw\\lv_draw.h"
 1404              		.file 10 "..\\lvgl\\lv_draw\\../lv_core/lv_obj.h"
 1405              		.file 11 "..\\lvgl\\lv_draw\\lv_draw_img.h"
 1406              		.file 12 "..\\lvgl\\lv_draw\\../lv_core/../lv_misc/lv_log.h"
 1407              		.file 13 "..\\lvgl\\lv_draw\\lv_draw_rect.h"
 1408              		.file 14 "..\\lvgl\\lv_draw\\lv_draw_label.h"