ARM GAS  C:\Users\d3bug\AppData\Local\Temp\ccg1LD4z.s 			page 1


   1              		.syntax unified
   2              		.cpu cortex-m3
   3              		.fpu softvfp
   4              		.eabi_attribute 20, 1
   5              		.eabi_attribute 21, 1
   6              		.eabi_attribute 23, 3
   7              		.eabi_attribute 24, 1
   8              		.eabi_attribute 25, 1
   9              		.eabi_attribute 26, 1
  10              		.eabi_attribute 30, 1
  11              		.eabi_attribute 34, 1
  12              		.eabi_attribute 18, 4
  13              		.thumb
  14              		.syntax unified
  15              		.file	"lv_draw_line.c"
  16              		.text
  17              	.Ltext0:
  18              		.cfi_sections	.debug_frame
  19              		.section	.text.line_draw_hor,"ax",%progbits
  20              		.align	2
  21              		.thumb
  22              		.thumb_func
  23              		.type	line_draw_hor, %function
  24              	line_draw_hor:
  25              	.LFB14:
  26              		.file 1 "..\\lvgl\\lv_draw\\lv_draw_line.c"
   1:..\lvgl\lv_draw/lv_draw_line.c **** /**
   2:..\lvgl\lv_draw/lv_draw_line.c ****  * @file lv_draw_line.c
   3:..\lvgl\lv_draw/lv_draw_line.c ****  *
   4:..\lvgl\lv_draw/lv_draw_line.c ****  */
   5:..\lvgl\lv_draw/lv_draw_line.c **** 
   6:..\lvgl\lv_draw/lv_draw_line.c **** /*********************
   7:..\lvgl\lv_draw/lv_draw_line.c ****  *      INCLUDES
   8:..\lvgl\lv_draw/lv_draw_line.c ****  *********************/
   9:..\lvgl\lv_draw/lv_draw_line.c **** #include <stdio.h>
  10:..\lvgl\lv_draw/lv_draw_line.c **** #include <stdbool.h>
  11:..\lvgl\lv_draw/lv_draw_line.c **** #include "lv_draw.h"
  12:..\lvgl\lv_draw/lv_draw_line.c **** #include "../lv_misc/lv_math.h"
  13:..\lvgl\lv_draw/lv_draw_line.c **** 
  14:..\lvgl\lv_draw/lv_draw_line.c **** /*********************
  15:..\lvgl\lv_draw/lv_draw_line.c ****  *      DEFINES
  16:..\lvgl\lv_draw/lv_draw_line.c ****  *********************/
  17:..\lvgl\lv_draw/lv_draw_line.c **** #if LV_COMPILER_VLA_SUPPORTED == 0
  18:..\lvgl\lv_draw/lv_draw_line.c **** #define LINE_MAX_WIDTH        64
  19:..\lvgl\lv_draw/lv_draw_line.c **** #endif
  20:..\lvgl\lv_draw/lv_draw_line.c **** 
  21:..\lvgl\lv_draw/lv_draw_line.c **** /**********************
  22:..\lvgl\lv_draw/lv_draw_line.c ****  *      TYPEDEFS
  23:..\lvgl\lv_draw/lv_draw_line.c ****  **********************/
  24:..\lvgl\lv_draw/lv_draw_line.c **** 
  25:..\lvgl\lv_draw/lv_draw_line.c **** typedef struct {
  26:..\lvgl\lv_draw/lv_draw_line.c ****     lv_point_t p1;
  27:..\lvgl\lv_draw/lv_draw_line.c ****     lv_point_t p2;
  28:..\lvgl\lv_draw/lv_draw_line.c ****     lv_point_t p_act;
  29:..\lvgl\lv_draw/lv_draw_line.c ****     lv_coord_t dx;
  30:..\lvgl\lv_draw/lv_draw_line.c ****     lv_coord_t sx;      /*-1: x1 < x2; 1: x2 >= x1*/
  31:..\lvgl\lv_draw/lv_draw_line.c ****     lv_coord_t dy;
ARM GAS  C:\Users\d3bug\AppData\Local\Temp\ccg1LD4z.s 			page 2


  32:..\lvgl\lv_draw/lv_draw_line.c ****     lv_coord_t sy;      /*-1: y1 < y2; 1: y2 >= y1*/
  33:..\lvgl\lv_draw/lv_draw_line.c ****     lv_coord_t err;
  34:..\lvgl\lv_draw/lv_draw_line.c ****     lv_coord_t e2;
  35:..\lvgl\lv_draw/lv_draw_line.c ****     bool hor;   /*Rather horizontal or vertical*/
  36:..\lvgl\lv_draw/lv_draw_line.c **** } line_draw_t;
  37:..\lvgl\lv_draw/lv_draw_line.c **** 
  38:..\lvgl\lv_draw/lv_draw_line.c **** typedef struct {
  39:..\lvgl\lv_draw/lv_draw_line.c ****     lv_coord_t width;
  40:..\lvgl\lv_draw/lv_draw_line.c ****     lv_coord_t width_1;
  41:..\lvgl\lv_draw/lv_draw_line.c ****     lv_coord_t width_half;
  42:..\lvgl\lv_draw/lv_draw_line.c **** } line_width_t;
  43:..\lvgl\lv_draw/lv_draw_line.c **** 
  44:..\lvgl\lv_draw/lv_draw_line.c **** /**********************
  45:..\lvgl\lv_draw/lv_draw_line.c ****  *  STATIC PROTOTYPES
  46:..\lvgl\lv_draw/lv_draw_line.c ****  **********************/
  47:..\lvgl\lv_draw/lv_draw_line.c **** static void line_draw_hor(line_draw_t * main_line, const lv_area_t * mask, const lv_style_t * style
  48:..\lvgl\lv_draw/lv_draw_line.c **** static void line_draw_ver(line_draw_t * main_line, const lv_area_t * mask, const lv_style_t * style
  49:..\lvgl\lv_draw/lv_draw_line.c **** static void line_draw_skew(line_draw_t * main_line, bool dir_ori, const lv_area_t * mask, const lv_
  50:..\lvgl\lv_draw/lv_draw_line.c **** static void line_init(line_draw_t * line, const lv_point_t * p1, const lv_point_t * p2);
  51:..\lvgl\lv_draw/lv_draw_line.c **** static bool line_next(line_draw_t * line);
  52:..\lvgl\lv_draw/lv_draw_line.c **** static bool line_next_y(line_draw_t * line);
  53:..\lvgl\lv_draw/lv_draw_line.c **** static bool line_next_x(line_draw_t * line);
  54:..\lvgl\lv_draw/lv_draw_line.c **** 
  55:..\lvgl\lv_draw/lv_draw_line.c **** /**********************
  56:..\lvgl\lv_draw/lv_draw_line.c ****  *  STATIC VARIABLES
  57:..\lvgl\lv_draw/lv_draw_line.c ****  **********************/
  58:..\lvgl\lv_draw/lv_draw_line.c **** 
  59:..\lvgl\lv_draw/lv_draw_line.c **** /**********************
  60:..\lvgl\lv_draw/lv_draw_line.c ****  *      MACROS
  61:..\lvgl\lv_draw/lv_draw_line.c ****  **********************/
  62:..\lvgl\lv_draw/lv_draw_line.c **** 
  63:..\lvgl\lv_draw/lv_draw_line.c **** /**********************
  64:..\lvgl\lv_draw/lv_draw_line.c ****  *   GLOBAL FUNCTIONS
  65:..\lvgl\lv_draw/lv_draw_line.c ****  **********************/
  66:..\lvgl\lv_draw/lv_draw_line.c **** 
  67:..\lvgl\lv_draw/lv_draw_line.c **** /**
  68:..\lvgl\lv_draw/lv_draw_line.c ****  * Draw a line
  69:..\lvgl\lv_draw/lv_draw_line.c ****  * @param point1 first point of the line
  70:..\lvgl\lv_draw/lv_draw_line.c ****  * @param point2 second point of the line
  71:..\lvgl\lv_draw/lv_draw_line.c ****  * @param mask the line will be drawn only on this area
  72:..\lvgl\lv_draw/lv_draw_line.c ****  * @param style pointer to a line's style
  73:..\lvgl\lv_draw/lv_draw_line.c ****  * @param opa_scale scale down all opacities by the factor
  74:..\lvgl\lv_draw/lv_draw_line.c ****  */
  75:..\lvgl\lv_draw/lv_draw_line.c **** void lv_draw_line(const lv_point_t * point1, const lv_point_t * point2, const lv_area_t * mask,
  76:..\lvgl\lv_draw/lv_draw_line.c ****         const lv_style_t * style, lv_opa_t opa_scale)
  77:..\lvgl\lv_draw/lv_draw_line.c **** {
  78:..\lvgl\lv_draw/lv_draw_line.c **** 
  79:..\lvgl\lv_draw/lv_draw_line.c ****     if(style->line.width == 0) return;
  80:..\lvgl\lv_draw/lv_draw_line.c ****     if(point1->x == point2->x && point1->y == point2->y) return;
  81:..\lvgl\lv_draw/lv_draw_line.c **** 
  82:..\lvgl\lv_draw/lv_draw_line.c ****     line_draw_t main_line;
  83:..\lvgl\lv_draw/lv_draw_line.c ****     lv_point_t p1;
  84:..\lvgl\lv_draw/lv_draw_line.c ****     lv_point_t p2;
  85:..\lvgl\lv_draw/lv_draw_line.c **** 
  86:..\lvgl\lv_draw/lv_draw_line.c ****     /*If the line if rather vertical then be sure y1 < y2 else x1 < x2*/
  87:..\lvgl\lv_draw/lv_draw_line.c **** 
  88:..\lvgl\lv_draw/lv_draw_line.c ****     if(LV_MATH_ABS(point1->x - point2->x) > LV_MATH_ABS(point1->y - point2->y)) {
ARM GAS  C:\Users\d3bug\AppData\Local\Temp\ccg1LD4z.s 			page 3


  89:..\lvgl\lv_draw/lv_draw_line.c **** 
  90:..\lvgl\lv_draw/lv_draw_line.c ****         /*Steps less in y then x -> rather horizontal*/
  91:..\lvgl\lv_draw/lv_draw_line.c ****         if(point1->x < point2->x) {
  92:..\lvgl\lv_draw/lv_draw_line.c ****             p1.x = point1->x;
  93:..\lvgl\lv_draw/lv_draw_line.c ****             p1.y = point1->y;
  94:..\lvgl\lv_draw/lv_draw_line.c ****             p2.x = point2->x;
  95:..\lvgl\lv_draw/lv_draw_line.c ****             p2.y = point2->y;
  96:..\lvgl\lv_draw/lv_draw_line.c ****         } else {
  97:..\lvgl\lv_draw/lv_draw_line.c ****             p1.x = point2->x;
  98:..\lvgl\lv_draw/lv_draw_line.c ****             p1.y = point2->y;
  99:..\lvgl\lv_draw/lv_draw_line.c ****             p2.x = point1->x;
 100:..\lvgl\lv_draw/lv_draw_line.c ****             p2.y = point1->y;
 101:..\lvgl\lv_draw/lv_draw_line.c ****         }
 102:..\lvgl\lv_draw/lv_draw_line.c ****     } else {
 103:..\lvgl\lv_draw/lv_draw_line.c ****         /*Steps less in x then y -> rather vertical*/
 104:..\lvgl\lv_draw/lv_draw_line.c ****         if(point1->y < point2->y) {
 105:..\lvgl\lv_draw/lv_draw_line.c ****             p1.x = point1->x;
 106:..\lvgl\lv_draw/lv_draw_line.c ****             p1.y = point1->y;
 107:..\lvgl\lv_draw/lv_draw_line.c ****             p2.x = point2->x;
 108:..\lvgl\lv_draw/lv_draw_line.c ****             p2.y = point2->y;
 109:..\lvgl\lv_draw/lv_draw_line.c ****         } else {
 110:..\lvgl\lv_draw/lv_draw_line.c ****             p1.x = point2->x;
 111:..\lvgl\lv_draw/lv_draw_line.c ****             p1.y = point2->y;
 112:..\lvgl\lv_draw/lv_draw_line.c ****             p2.x = point1->x;
 113:..\lvgl\lv_draw/lv_draw_line.c ****             p2.y = point1->y;
 114:..\lvgl\lv_draw/lv_draw_line.c ****         }
 115:..\lvgl\lv_draw/lv_draw_line.c ****     }
 116:..\lvgl\lv_draw/lv_draw_line.c **** 
 117:..\lvgl\lv_draw/lv_draw_line.c ****     line_init(&main_line, &p1, &p2);
 118:..\lvgl\lv_draw/lv_draw_line.c **** 
 119:..\lvgl\lv_draw/lv_draw_line.c **** 
 120:..\lvgl\lv_draw/lv_draw_line.c ****     /*Special case draw a horizontal line*/
 121:..\lvgl\lv_draw/lv_draw_line.c ****     if(main_line.p1.y == main_line.p2.y) {
 122:..\lvgl\lv_draw/lv_draw_line.c ****         line_draw_hor(&main_line, mask, style, opa_scale);
 123:..\lvgl\lv_draw/lv_draw_line.c ****     }
 124:..\lvgl\lv_draw/lv_draw_line.c ****     /*Special case draw a vertical line*/
 125:..\lvgl\lv_draw/lv_draw_line.c ****     else if(main_line.p1.x == main_line.p2.x) {
 126:..\lvgl\lv_draw/lv_draw_line.c ****         line_draw_ver(&main_line, mask, style, opa_scale);
 127:..\lvgl\lv_draw/lv_draw_line.c ****     }
 128:..\lvgl\lv_draw/lv_draw_line.c ****     /*Arbitrary skew line*/
 129:..\lvgl\lv_draw/lv_draw_line.c ****     else {
 130:..\lvgl\lv_draw/lv_draw_line.c ****         bool dir_ori = false;
 131:..\lvgl\lv_draw/lv_draw_line.c **** #if LV_ANTIALIAS
 132:..\lvgl\lv_draw/lv_draw_line.c ****         lv_point_t p_tmp;
 133:..\lvgl\lv_draw/lv_draw_line.c **** 
 134:..\lvgl\lv_draw/lv_draw_line.c ****         if(main_line.hor) {
 135:..\lvgl\lv_draw/lv_draw_line.c ****             if(main_line.p1.y < main_line.p2.y) {
 136:..\lvgl\lv_draw/lv_draw_line.c ****                 dir_ori = true;
 137:..\lvgl\lv_draw/lv_draw_line.c ****                 p_tmp.x = main_line.p2.x;
 138:..\lvgl\lv_draw/lv_draw_line.c ****                 p_tmp.y = main_line.p2.y - 1;
 139:..\lvgl\lv_draw/lv_draw_line.c ****                 line_init(&main_line, &p1, &p_tmp);
 140:..\lvgl\lv_draw/lv_draw_line.c ****                 main_line.sy = LV_MATH_ABS(main_line.sy);   /*The sign can change if the line becom
 141:..\lvgl\lv_draw/lv_draw_line.c ****             }
 142:..\lvgl\lv_draw/lv_draw_line.c ****             else if(main_line.p1.y > main_line.p2.y) {
 143:..\lvgl\lv_draw/lv_draw_line.c ****                 dir_ori = false;
 144:..\lvgl\lv_draw/lv_draw_line.c ****                 p_tmp.x = main_line.p2.x;
 145:..\lvgl\lv_draw/lv_draw_line.c ****                 p_tmp.y = main_line.p2.y + 1;
ARM GAS  C:\Users\d3bug\AppData\Local\Temp\ccg1LD4z.s 			page 4


 146:..\lvgl\lv_draw/lv_draw_line.c ****                 line_init(&main_line, &p1, &p_tmp);
 147:..\lvgl\lv_draw/lv_draw_line.c ****                 main_line.sy = -LV_MATH_ABS(main_line.sy);  /*The sign can change if the line becom
 148:..\lvgl\lv_draw/lv_draw_line.c ****             }
 149:..\lvgl\lv_draw/lv_draw_line.c ****         }
 150:..\lvgl\lv_draw/lv_draw_line.c ****         else {
 151:..\lvgl\lv_draw/lv_draw_line.c ****             if(main_line.p1.x < main_line.p2.x) {
 152:..\lvgl\lv_draw/lv_draw_line.c ****                 dir_ori = true;
 153:..\lvgl\lv_draw/lv_draw_line.c ****                 p_tmp.x = main_line.p2.x - 1;
 154:..\lvgl\lv_draw/lv_draw_line.c ****                 p_tmp.y = main_line.p2.y;
 155:..\lvgl\lv_draw/lv_draw_line.c ****                 line_init(&main_line, &p1, &p_tmp);
 156:..\lvgl\lv_draw/lv_draw_line.c ****                 main_line.sx = LV_MATH_ABS(main_line.sx);   /*The sign can change if the line becom
 157:..\lvgl\lv_draw/lv_draw_line.c ****             }
 158:..\lvgl\lv_draw/lv_draw_line.c ****             else if(main_line.p1.x > main_line.p2.x) {
 159:..\lvgl\lv_draw/lv_draw_line.c ****                 dir_ori = false;
 160:..\lvgl\lv_draw/lv_draw_line.c ****                 p_tmp.x = main_line.p2.x + 1;
 161:..\lvgl\lv_draw/lv_draw_line.c ****                 p_tmp.y = main_line.p2.y;
 162:..\lvgl\lv_draw/lv_draw_line.c ****                 line_init(&main_line, &p1, &p_tmp);
 163:..\lvgl\lv_draw/lv_draw_line.c ****                 main_line.sx = -LV_MATH_ABS(main_line.sx);  /*The sign can change if the line becom
 164:..\lvgl\lv_draw/lv_draw_line.c ****             }
 165:..\lvgl\lv_draw/lv_draw_line.c ****         }
 166:..\lvgl\lv_draw/lv_draw_line.c **** #endif
 167:..\lvgl\lv_draw/lv_draw_line.c ****         line_draw_skew(&main_line, dir_ori, mask, style, opa_scale);
 168:..\lvgl\lv_draw/lv_draw_line.c ****     }
 169:..\lvgl\lv_draw/lv_draw_line.c **** }
 170:..\lvgl\lv_draw/lv_draw_line.c **** 
 171:..\lvgl\lv_draw/lv_draw_line.c **** 
 172:..\lvgl\lv_draw/lv_draw_line.c **** /**********************
 173:..\lvgl\lv_draw/lv_draw_line.c ****  *   STATIC FUNCTIONS
 174:..\lvgl\lv_draw/lv_draw_line.c ****  **********************/
 175:..\lvgl\lv_draw/lv_draw_line.c **** 
 176:..\lvgl\lv_draw/lv_draw_line.c **** 
 177:..\lvgl\lv_draw/lv_draw_line.c **** static void line_draw_hor(line_draw_t * main_line, const lv_area_t * mask, const lv_style_t * style
 178:..\lvgl\lv_draw/lv_draw_line.c **** {
  27              		.loc 1 178 0
  28              		.cfi_startproc
  29              		@ args = 0, pretend = 0, frame = 8
  30              		@ frame_needed = 0, uses_anonymous_args = 0
  31              	.LVL0:
  32 0000 F0B5     		push	{r4, r5, r6, r7, lr}
  33              		.cfi_def_cfa_offset 20
  34              		.cfi_offset 4, -20
  35              		.cfi_offset 5, -16
  36              		.cfi_offset 6, -12
  37              		.cfi_offset 7, -8
  38              		.cfi_offset 14, -4
  39 0002 83B0     		sub	sp, sp, #12
  40              		.cfi_def_cfa_offset 32
 179:..\lvgl\lv_draw/lv_draw_line.c ****     lv_coord_t width = style->line.width - 1;
  41              		.loc 1 179 0
  42 0004 B2F93250 		ldrsh	r5, [r2, #50]
  43 0008 013D     		subs	r5, r5, #1
  44 000a 2DB2     		sxth	r5, r5
  45              	.LVL1:
 180:..\lvgl\lv_draw/lv_draw_line.c ****     lv_coord_t width_half = width >> 1;
  46              		.loc 1 180 0
  47 000c 6C10     		asrs	r4, r5, #1
  48              	.LVL2:
ARM GAS  C:\Users\d3bug\AppData\Local\Temp\ccg1LD4z.s 			page 5


 181:..\lvgl\lv_draw/lv_draw_line.c ****     lv_coord_t width_1 = width & 0x1;
  49              		.loc 1 181 0
  50 000e 05F00106 		and	r6, r5, #1
  51              	.LVL3:
 182:..\lvgl\lv_draw/lv_draw_line.c ****     lv_opa_t opa = opa_scale == LV_OPA_COVER ? style->line.opa : (uint16_t)((uint16_t) style->line.
  52              		.loc 1 182 0
  53 0012 FF2B     		cmp	r3, #255
  54 0014 02D1     		bne	.L2
  55              		.loc 1 182 0 is_stmt 0 discriminator 1
  56 0016 92F83430 		ldrb	r3, [r2, #52]	@ zero_extendqisi2
  57              	.LVL4:
  58 001a 05E0     		b	.L3
  59              	.LVL5:
  60              	.L2:
  61              		.loc 1 182 0 discriminator 2
  62 001c 92F83450 		ldrb	r5, [r2, #52]	@ zero_extendqisi2
  63              	.LVL6:
  64 0020 05FB03F3 		mul	r3, r5, r3
  65              	.LVL7:
  66 0024 C3F30723 		ubfx	r3, r3, #8, #8
  67              	.L3:
  68              	.LVL8:
 183:..\lvgl\lv_draw/lv_draw_line.c **** 
 184:..\lvgl\lv_draw/lv_draw_line.c ****     lv_area_t act_area;
 185:..\lvgl\lv_draw/lv_draw_line.c ****     act_area.x1 = main_line->p1.x;
  69              		.loc 1 185 0 is_stmt 1 discriminator 4
  70 0028 B0F900E0 		ldrsh	lr, [r0]
 186:..\lvgl\lv_draw/lv_draw_line.c ****     act_area.x2 = main_line->p2.x;
  71              		.loc 1 186 0 discriminator 4
  72 002c B0F90470 		ldrsh	r7, [r0, #4]
 187:..\lvgl\lv_draw/lv_draw_line.c ****     act_area.y1 = main_line->p1.y - width_half - width_1;
  73              		.loc 1 187 0 discriminator 4
  74 0030 B0F90250 		ldrsh	r5, [r0, #2]
  75 0034 1FFA84FC 		uxth	ip, r4
  76 0038 CCEB0505 		rsb	r5, ip, r5
  77 003c AD1B     		subs	r5, r5, r6
  78 003e 2DB2     		sxth	r5, r5
 188:..\lvgl\lv_draw/lv_draw_line.c ****     act_area.y2 = main_line->p2.y + width_half ;
  79              		.loc 1 188 0 discriminator 4
  80 0040 B0F90640 		ldrsh	r4, [r0, #6]
  81              	.LVL9:
  82 0044 6444     		add	r4, r4, ip
  83 0046 20B2     		sxth	r0, r4
  84              	.LVL10:
 189:..\lvgl\lv_draw/lv_draw_line.c **** 
 190:..\lvgl\lv_draw/lv_draw_line.c ****     lv_area_t draw_area;
 191:..\lvgl\lv_draw/lv_draw_line.c ****     draw_area.x1 = LV_MATH_MIN(act_area.x1, act_area.x2);
  85              		.loc 1 191 0 discriminator 4
  86 0048 7446     		mov	r4, lr
  87 004a BE45     		cmp	lr, r7
  88 004c A8BF     		it	ge
  89 004e 3C46     		movge	r4, r7
  90 0050 ADF80040 		strh	r4, [sp]	@ movhi
 192:..\lvgl\lv_draw/lv_draw_line.c ****     draw_area.x2 = LV_MATH_MAX(act_area.x1, act_area.x2);
  91              		.loc 1 192 0 discriminator 4
  92 0054 7745     		cmp	r7, lr
  93 0056 B8BF     		it	lt
ARM GAS  C:\Users\d3bug\AppData\Local\Temp\ccg1LD4z.s 			page 6


  94 0058 7746     		movlt	r7, lr
  95 005a ADF80470 		strh	r7, [sp, #4]	@ movhi
 193:..\lvgl\lv_draw/lv_draw_line.c ****     draw_area.y1 = LV_MATH_MIN(act_area.y1, act_area.y2);
  96              		.loc 1 193 0 discriminator 4
  97 005e 2C46     		mov	r4, r5
  98 0060 8542     		cmp	r5, r0
  99 0062 A8BF     		it	ge
 100 0064 0446     		movge	r4, r0
 101 0066 ADF80240 		strh	r4, [sp, #2]	@ movhi
 194:..\lvgl\lv_draw/lv_draw_line.c ****     draw_area.y2 = LV_MATH_MAX(act_area.y1, act_area.y2);
 102              		.loc 1 194 0 discriminator 4
 103 006a A842     		cmp	r0, r5
 104 006c B8BF     		it	lt
 105 006e 2846     		movlt	r0, r5
 106 0070 ADF80600 		strh	r0, [sp, #6]	@ movhi
 195:..\lvgl\lv_draw/lv_draw_line.c ****     fill_fp(&draw_area, mask, style->line.color, opa);
 107              		.loc 1 195 0 discriminator 4
 108 0074 0348     		ldr	r0, .L5
 109 0076 0468     		ldr	r4, [r0]
 110 0078 92F83020 		ldrb	r2, [r2, #48]	@ zero_extendqisi2
 111              	.LVL11:
 112 007c 6846     		mov	r0, sp
 113 007e A047     		blx	r4
 114              	.LVL12:
 196:..\lvgl\lv_draw/lv_draw_line.c **** }
 115              		.loc 1 196 0 discriminator 4
 116 0080 03B0     		add	sp, sp, #12
 117              		.cfi_def_cfa_offset 20
 118              		@ sp needed
 119 0082 F0BD     		pop	{r4, r5, r6, r7, pc}
 120              	.LVL13:
 121              	.L6:
 122              		.align	2
 123              	.L5:
 124 0084 00000000 		.word	fill_fp
 125              		.cfi_endproc
 126              	.LFE14:
 127              		.size	line_draw_hor, .-line_draw_hor
 128              		.section	.text.line_draw_ver,"ax",%progbits
 129              		.align	2
 130              		.thumb
 131              		.thumb_func
 132              		.type	line_draw_ver, %function
 133              	line_draw_ver:
 134              	.LFB15:
 197:..\lvgl\lv_draw/lv_draw_line.c **** 
 198:..\lvgl\lv_draw/lv_draw_line.c **** static void line_draw_ver(line_draw_t * main_line, const lv_area_t * mask, const lv_style_t * style
 199:..\lvgl\lv_draw/lv_draw_line.c **** {
 135              		.loc 1 199 0
 136              		.cfi_startproc
 137              		@ args = 0, pretend = 0, frame = 8
 138              		@ frame_needed = 0, uses_anonymous_args = 0
 139              	.LVL14:
 140 0000 F0B5     		push	{r4, r5, r6, r7, lr}
 141              		.cfi_def_cfa_offset 20
 142              		.cfi_offset 4, -20
 143              		.cfi_offset 5, -16
ARM GAS  C:\Users\d3bug\AppData\Local\Temp\ccg1LD4z.s 			page 7


 144              		.cfi_offset 6, -12
 145              		.cfi_offset 7, -8
 146              		.cfi_offset 14, -4
 147 0002 83B0     		sub	sp, sp, #12
 148              		.cfi_def_cfa_offset 32
 200:..\lvgl\lv_draw/lv_draw_line.c ****     lv_coord_t width = style->line.width - 1;
 149              		.loc 1 200 0
 150 0004 B2F93240 		ldrsh	r4, [r2, #50]
 151 0008 013C     		subs	r4, r4, #1
 152 000a 24B2     		sxth	r4, r4
 153              	.LVL15:
 201:..\lvgl\lv_draw/lv_draw_line.c ****     lv_coord_t width_half = width >> 1;
 154              		.loc 1 201 0
 155 000c 6510     		asrs	r5, r4, #1
 156              	.LVL16:
 202:..\lvgl\lv_draw/lv_draw_line.c ****     lv_coord_t width_1 = width & 0x1;
 157              		.loc 1 202 0
 158 000e 04F00104 		and	r4, r4, #1
 159              	.LVL17:
 203:..\lvgl\lv_draw/lv_draw_line.c ****     lv_opa_t opa = opa_scale == LV_OPA_COVER ? style->line.opa : (uint16_t)((uint16_t) style->line.
 160              		.loc 1 203 0
 161 0012 FF2B     		cmp	r3, #255
 162 0014 02D1     		bne	.L8
 163              		.loc 1 203 0 is_stmt 0 discriminator 1
 164 0016 92F83430 		ldrb	r3, [r2, #52]	@ zero_extendqisi2
 165              	.LVL18:
 166 001a 05E0     		b	.L9
 167              	.LVL19:
 168              	.L8:
 169              		.loc 1 203 0 discriminator 2
 170 001c 92F83460 		ldrb	r6, [r2, #52]	@ zero_extendqisi2
 171 0020 06FB03F3 		mul	r3, r6, r3
 172              	.LVL20:
 173 0024 C3F30723 		ubfx	r3, r3, #8, #8
 174              	.L9:
 175              	.LVL21:
 204:..\lvgl\lv_draw/lv_draw_line.c **** 
 205:..\lvgl\lv_draw/lv_draw_line.c **** 
 206:..\lvgl\lv_draw/lv_draw_line.c ****     lv_area_t act_area;
 207:..\lvgl\lv_draw/lv_draw_line.c ****     act_area.x1 = main_line->p1.x - width_half;
 176              		.loc 1 207 0 is_stmt 1 discriminator 4
 177 0028 B0F90060 		ldrsh	r6, [r0]
 178 002c ADB2     		uxth	r5, r5
 179 002e 761B     		subs	r6, r6, r5
 180 0030 36B2     		sxth	r6, r6
 208:..\lvgl\lv_draw/lv_draw_line.c ****     act_area.x2 = main_line->p2.x + width_half + width_1;
 181              		.loc 1 208 0 discriminator 4
 182 0032 B0F90470 		ldrsh	r7, [r0, #4]
 183 0036 3D44     		add	r5, r5, r7
 184              	.LVL22:
 185 0038 2544     		add	r5, r5, r4
 186 003a 2CB2     		sxth	r4, r5
 187              	.LVL23:
 209:..\lvgl\lv_draw/lv_draw_line.c ****     act_area.y1 = main_line->p1.y;
 188              		.loc 1 209 0 discriminator 4
 189 003c B0F90250 		ldrsh	r5, [r0, #2]
 210:..\lvgl\lv_draw/lv_draw_line.c ****     act_area.y2 = main_line->p2.y;
ARM GAS  C:\Users\d3bug\AppData\Local\Temp\ccg1LD4z.s 			page 8


 190              		.loc 1 210 0 discriminator 4
 191 0040 B0F90600 		ldrsh	r0, [r0, #6]
 192              	.LVL24:
 211:..\lvgl\lv_draw/lv_draw_line.c **** 
 212:..\lvgl\lv_draw/lv_draw_line.c ****     lv_area_t draw_area;
 213:..\lvgl\lv_draw/lv_draw_line.c ****     draw_area.x1 = LV_MATH_MIN(act_area.x1, act_area.x2);
 193              		.loc 1 213 0 discriminator 4
 194 0044 3746     		mov	r7, r6
 195 0046 A642     		cmp	r6, r4
 196 0048 A8BF     		it	ge
 197 004a 2746     		movge	r7, r4
 198 004c ADF80070 		strh	r7, [sp]	@ movhi
 214:..\lvgl\lv_draw/lv_draw_line.c ****     draw_area.x2 = LV_MATH_MAX(act_area.x1, act_area.x2);
 199              		.loc 1 214 0 discriminator 4
 200 0050 B442     		cmp	r4, r6
 201 0052 B8BF     		it	lt
 202 0054 3446     		movlt	r4, r6
 203 0056 ADF80440 		strh	r4, [sp, #4]	@ movhi
 215:..\lvgl\lv_draw/lv_draw_line.c ****     draw_area.y1 = LV_MATH_MIN(act_area.y1, act_area.y2);
 204              		.loc 1 215 0 discriminator 4
 205 005a 2C46     		mov	r4, r5
 206 005c 8542     		cmp	r5, r0
 207 005e A8BF     		it	ge
 208 0060 0446     		movge	r4, r0
 209 0062 ADF80240 		strh	r4, [sp, #2]	@ movhi
 216:..\lvgl\lv_draw/lv_draw_line.c ****     draw_area.y2 = LV_MATH_MAX(act_area.y1, act_area.y2);
 210              		.loc 1 216 0 discriminator 4
 211 0066 A842     		cmp	r0, r5
 212 0068 B8BF     		it	lt
 213 006a 2846     		movlt	r0, r5
 214 006c ADF80600 		strh	r0, [sp, #6]	@ movhi
 217:..\lvgl\lv_draw/lv_draw_line.c ****     fill_fp(&draw_area, mask, style->line.color, opa);
 215              		.loc 1 217 0 discriminator 4
 216 0070 0348     		ldr	r0, .L11
 217 0072 0468     		ldr	r4, [r0]
 218 0074 92F83020 		ldrb	r2, [r2, #48]	@ zero_extendqisi2
 219              	.LVL25:
 220 0078 6846     		mov	r0, sp
 221 007a A047     		blx	r4
 222              	.LVL26:
 218:..\lvgl\lv_draw/lv_draw_line.c **** }
 223              		.loc 1 218 0 discriminator 4
 224 007c 03B0     		add	sp, sp, #12
 225              		.cfi_def_cfa_offset 20
 226              		@ sp needed
 227 007e F0BD     		pop	{r4, r5, r6, r7, pc}
 228              	.L12:
 229              		.align	2
 230              	.L11:
 231 0080 00000000 		.word	fill_fp
 232              		.cfi_endproc
 233              	.LFE15:
 234              		.size	line_draw_ver, .-line_draw_ver
 235              		.section	.text.line_init,"ax",%progbits
 236              		.align	2
 237              		.thumb
 238              		.thumb_func
ARM GAS  C:\Users\d3bug\AppData\Local\Temp\ccg1LD4z.s 			page 9


 239              		.type	line_init, %function
 240              	line_init:
 241              	.LFB17:
 219:..\lvgl\lv_draw/lv_draw_line.c **** 
 220:..\lvgl\lv_draw/lv_draw_line.c **** static void line_draw_skew(line_draw_t * main_line, bool dir_ori, const lv_area_t * mask, const lv_
 221:..\lvgl\lv_draw/lv_draw_line.c **** {
 222:..\lvgl\lv_draw/lv_draw_line.c **** 
 223:..\lvgl\lv_draw/lv_draw_line.c ****     lv_opa_t opa = opa_scale == LV_OPA_COVER ? style->line.opa : (uint16_t)((uint16_t) style->line.
 224:..\lvgl\lv_draw/lv_draw_line.c **** 
 225:..\lvgl\lv_draw/lv_draw_line.c ****     lv_point_t vect_main, vect_norm;
 226:..\lvgl\lv_draw/lv_draw_line.c ****     vect_main.x = main_line->p2.x - main_line->p1.x;
 227:..\lvgl\lv_draw/lv_draw_line.c ****     vect_main.y = main_line->p2.y - main_line->p1.y;
 228:..\lvgl\lv_draw/lv_draw_line.c **** 
 229:..\lvgl\lv_draw/lv_draw_line.c ****     if(main_line->hor) {
 230:..\lvgl\lv_draw/lv_draw_line.c ****         if(main_line->p1.y < main_line->p2.y + dir_ori) {
 231:..\lvgl\lv_draw/lv_draw_line.c ****             vect_norm.x = - vect_main.y;
 232:..\lvgl\lv_draw/lv_draw_line.c ****             vect_norm.y = vect_main.x;
 233:..\lvgl\lv_draw/lv_draw_line.c ****         } else {
 234:..\lvgl\lv_draw/lv_draw_line.c ****             vect_norm.x = vect_main.y;
 235:..\lvgl\lv_draw/lv_draw_line.c ****             vect_norm.y = -vect_main.x;
 236:..\lvgl\lv_draw/lv_draw_line.c ****         }
 237:..\lvgl\lv_draw/lv_draw_line.c ****     } else {
 238:..\lvgl\lv_draw/lv_draw_line.c ****         if(main_line->p1.x < main_line->p2.x + dir_ori) {
 239:..\lvgl\lv_draw/lv_draw_line.c ****             vect_norm.x = vect_main.y;
 240:..\lvgl\lv_draw/lv_draw_line.c ****             vect_norm.y = - vect_main.x;
 241:..\lvgl\lv_draw/lv_draw_line.c ****         } else {
 242:..\lvgl\lv_draw/lv_draw_line.c ****             vect_norm.x = - vect_main.y;
 243:..\lvgl\lv_draw/lv_draw_line.c ****             vect_norm.y = vect_main.x;
 244:..\lvgl\lv_draw/lv_draw_line.c ****         }
 245:..\lvgl\lv_draw/lv_draw_line.c ****     }
 246:..\lvgl\lv_draw/lv_draw_line.c **** 
 247:..\lvgl\lv_draw/lv_draw_line.c ****     /* In case of a short but tick line the perpendicular ending is longer then the real line.
 248:..\lvgl\lv_draw/lv_draw_line.c ****      * it would break the calculations so make the normal vector larger*/
 249:..\lvgl\lv_draw/lv_draw_line.c ****     vect_norm.x = vect_norm.x << 4;
 250:..\lvgl\lv_draw/lv_draw_line.c ****     vect_norm.y = vect_norm.y << 4;
 251:..\lvgl\lv_draw/lv_draw_line.c **** 
 252:..\lvgl\lv_draw/lv_draw_line.c ****     lv_coord_t width;
 253:..\lvgl\lv_draw/lv_draw_line.c ****     width = style->line.width;
 254:..\lvgl\lv_draw/lv_draw_line.c **** 
 255:..\lvgl\lv_draw/lv_draw_line.c ****     /* The pattern stores the points of the line ending. It has the good direction and length.
 256:..\lvgl\lv_draw/lv_draw_line.c ****      * The worth case is the 45° line where pattern can have 1.41 x `width` points*/
 257:..\lvgl\lv_draw/lv_draw_line.c **** #if LV_COMPILER_VLA_SUPPORTED
 258:..\lvgl\lv_draw/lv_draw_line.c ****     lv_point_t pattern[width * 2];
 259:..\lvgl\lv_draw/lv_draw_line.c **** #else
 260:..\lvgl\lv_draw/lv_draw_line.c ****     lv_point_t pattern[LINE_MAX_WIDTH];
 261:..\lvgl\lv_draw/lv_draw_line.c **** #endif
 262:..\lvgl\lv_draw/lv_draw_line.c ****     lv_coord_t i = 0;
 263:..\lvgl\lv_draw/lv_draw_line.c **** 
 264:..\lvgl\lv_draw/lv_draw_line.c ****     /*Create a perpendicular pattern (a small line)*/
 265:..\lvgl\lv_draw/lv_draw_line.c ****     if(width != 0) {
 266:..\lvgl\lv_draw/lv_draw_line.c ****         line_draw_t pattern_line;
 267:..\lvgl\lv_draw/lv_draw_line.c ****         lv_point_t p0 = {0, 0};
 268:..\lvgl\lv_draw/lv_draw_line.c ****         line_init(&pattern_line, &p0, &vect_norm);
 269:..\lvgl\lv_draw/lv_draw_line.c **** 
 270:..\lvgl\lv_draw/lv_draw_line.c ****         uint32_t width_sqr = width * width;
 271:..\lvgl\lv_draw/lv_draw_line.c ****         /* Run for a lot of times. Meanwhile the real width will be determined as well */
 272:..\lvgl\lv_draw/lv_draw_line.c ****         for(i = 0; i < (lv_coord_t)sizeof(pattern); i ++) {
ARM GAS  C:\Users\d3bug\AppData\Local\Temp\ccg1LD4z.s 			page 10


 273:..\lvgl\lv_draw/lv_draw_line.c ****             pattern[i].x = pattern_line.p_act.x;
 274:..\lvgl\lv_draw/lv_draw_line.c ****             pattern[i].y = pattern_line.p_act.y;
 275:..\lvgl\lv_draw/lv_draw_line.c **** 
 276:..\lvgl\lv_draw/lv_draw_line.c ****             /*Finish the pattern line if it's length equal to the desired width (Use Pythagoras the
 277:..\lvgl\lv_draw/lv_draw_line.c ****             uint32_t  sqr = pattern_line.p_act.x * pattern_line.p_act.x + pattern_line.p_act.y * pa
 278:..\lvgl\lv_draw/lv_draw_line.c ****             if(sqr >= width_sqr) {
 279:..\lvgl\lv_draw/lv_draw_line.c ****                 width = i;
 280:..\lvgl\lv_draw/lv_draw_line.c **** #if LV_ANTIALIAS
 281:..\lvgl\lv_draw/lv_draw_line.c ****                 width--;
 282:..\lvgl\lv_draw/lv_draw_line.c **** #endif
 283:..\lvgl\lv_draw/lv_draw_line.c ****                 break;
 284:..\lvgl\lv_draw/lv_draw_line.c ****             }
 285:..\lvgl\lv_draw/lv_draw_line.c **** 
 286:..\lvgl\lv_draw/lv_draw_line.c ****             line_next(&pattern_line);
 287:..\lvgl\lv_draw/lv_draw_line.c ****         }
 288:..\lvgl\lv_draw/lv_draw_line.c ****     }
 289:..\lvgl\lv_draw/lv_draw_line.c **** 
 290:..\lvgl\lv_draw/lv_draw_line.c **** #if LV_ANTIALIAS
 291:..\lvgl\lv_draw/lv_draw_line.c ****     lv_coord_t width_safe = width;
 292:..\lvgl\lv_draw/lv_draw_line.c ****     if(width == 0) width_safe = 1;
 293:..\lvgl\lv_draw/lv_draw_line.c **** 
 294:..\lvgl\lv_draw/lv_draw_line.c ****     lv_coord_t aa_last_corner;
 295:..\lvgl\lv_draw/lv_draw_line.c ****     aa_last_corner = 0;
 296:..\lvgl\lv_draw/lv_draw_line.c **** #endif
 297:..\lvgl\lv_draw/lv_draw_line.c **** 
 298:..\lvgl\lv_draw/lv_draw_line.c ****     lv_coord_t x_center_ofs = 0;
 299:..\lvgl\lv_draw/lv_draw_line.c ****     lv_coord_t y_center_ofs = 0;
 300:..\lvgl\lv_draw/lv_draw_line.c **** 
 301:..\lvgl\lv_draw/lv_draw_line.c ****     if(width != 0) {
 302:..\lvgl\lv_draw/lv_draw_line.c ****         x_center_ofs = pattern[width - 1].x / 2;
 303:..\lvgl\lv_draw/lv_draw_line.c ****         y_center_ofs = pattern[width - 1].y / 2;
 304:..\lvgl\lv_draw/lv_draw_line.c ****     }
 305:..\lvgl\lv_draw/lv_draw_line.c ****     else {
 306:..\lvgl\lv_draw/lv_draw_line.c ****         if(main_line->hor && main_line->p1.y >= main_line->p2.y + dir_ori) pattern[0].y --;
 307:..\lvgl\lv_draw/lv_draw_line.c ****         if(!main_line->hor && main_line->p1.x >= main_line->p2.x + dir_ori) pattern[0].x --;
 308:..\lvgl\lv_draw/lv_draw_line.c ****     }
 309:..\lvgl\lv_draw/lv_draw_line.c **** 
 310:..\lvgl\lv_draw/lv_draw_line.c ****     /* Make the coordinates relative to the center */
 311:..\lvgl\lv_draw/lv_draw_line.c ****     for(i = 0; i < width; i++) {
 312:..\lvgl\lv_draw/lv_draw_line.c ****         pattern[i].x -= x_center_ofs;
 313:..\lvgl\lv_draw/lv_draw_line.c ****         pattern[i].y -= y_center_ofs;
 314:..\lvgl\lv_draw/lv_draw_line.c **** #if LV_ANTIALIAS
 315:..\lvgl\lv_draw/lv_draw_line.c ****         if(i != 0) {
 316:..\lvgl\lv_draw/lv_draw_line.c ****             if(main_line->hor) {
 317:..\lvgl\lv_draw/lv_draw_line.c ****                 if(pattern[i - 1].x != pattern[i].x) {
 318:..\lvgl\lv_draw/lv_draw_line.c ****                     lv_coord_t seg_w = pattern[i].y - pattern[aa_last_corner].y;
 319:..\lvgl\lv_draw/lv_draw_line.c ****                     if(main_line->sy < 0) {
 320:..\lvgl\lv_draw/lv_draw_line.c ****                         lv_draw_aa_ver_seg(main_line->p1.x + pattern[aa_last_corner].x - 1, main_li
 321:..\lvgl\lv_draw/lv_draw_line.c ****                                 seg_w, mask, style->line.color, opa);
 322:..\lvgl\lv_draw/lv_draw_line.c **** 
 323:..\lvgl\lv_draw/lv_draw_line.c ****                         lv_draw_aa_ver_seg(main_line->p2.x + pattern[aa_last_corner].x + 1, main_li
 324:..\lvgl\lv_draw/lv_draw_line.c ****                                 -seg_w, mask, style->line.color, opa);
 325:..\lvgl\lv_draw/lv_draw_line.c ****                     } else {
 326:..\lvgl\lv_draw/lv_draw_line.c ****                         lv_draw_aa_ver_seg(main_line->p1.x + pattern[aa_last_corner].x - 1, main_li
 327:..\lvgl\lv_draw/lv_draw_line.c ****                                 seg_w, mask, style->line.color, opa);
 328:..\lvgl\lv_draw/lv_draw_line.c **** 
 329:..\lvgl\lv_draw/lv_draw_line.c ****                         lv_draw_aa_ver_seg(main_line->p2.x + pattern[aa_last_corner].x + 1, main_li
ARM GAS  C:\Users\d3bug\AppData\Local\Temp\ccg1LD4z.s 			page 11


 330:..\lvgl\lv_draw/lv_draw_line.c ****                                 -seg_w, mask, style->line.color, opa);
 331:..\lvgl\lv_draw/lv_draw_line.c ****                     }
 332:..\lvgl\lv_draw/lv_draw_line.c ****                     aa_last_corner = i;
 333:..\lvgl\lv_draw/lv_draw_line.c ****                 }
 334:..\lvgl\lv_draw/lv_draw_line.c ****             } else {
 335:..\lvgl\lv_draw/lv_draw_line.c ****                 if(pattern[i - 1].y != pattern[i].y) {
 336:..\lvgl\lv_draw/lv_draw_line.c ****                     lv_coord_t seg_w = pattern[i].x - pattern[aa_last_corner].x;
 337:..\lvgl\lv_draw/lv_draw_line.c ****                     if(main_line->sx < 0) {
 338:..\lvgl\lv_draw/lv_draw_line.c ****                         lv_draw_aa_hor_seg(main_line->p1.x + pattern[aa_last_corner].x + seg_w + 1,
 339:..\lvgl\lv_draw/lv_draw_line.c ****                                 seg_w, mask, style->line.color, opa);
 340:..\lvgl\lv_draw/lv_draw_line.c **** 
 341:..\lvgl\lv_draw/lv_draw_line.c ****                         lv_draw_aa_hor_seg(main_line->p2.x + pattern[aa_last_corner].x + seg_w + 1,
 342:..\lvgl\lv_draw/lv_draw_line.c ****                                 -seg_w, mask, style->line.color, opa);
 343:..\lvgl\lv_draw/lv_draw_line.c ****                     } else {
 344:..\lvgl\lv_draw/lv_draw_line.c ****                         lv_draw_aa_hor_seg(main_line->p1.x + pattern[aa_last_corner].x, main_line->
 345:..\lvgl\lv_draw/lv_draw_line.c ****                                 seg_w, mask, style->line.color, opa);
 346:..\lvgl\lv_draw/lv_draw_line.c **** 
 347:..\lvgl\lv_draw/lv_draw_line.c ****                         lv_draw_aa_hor_seg(main_line->p2.x + pattern[aa_last_corner].x, main_line->
 348:..\lvgl\lv_draw/lv_draw_line.c ****                                 -seg_w, mask, style->line.color, opa);
 349:..\lvgl\lv_draw/lv_draw_line.c ****                     }
 350:..\lvgl\lv_draw/lv_draw_line.c ****                     aa_last_corner = i;
 351:..\lvgl\lv_draw/lv_draw_line.c ****                 }
 352:..\lvgl\lv_draw/lv_draw_line.c ****             }
 353:..\lvgl\lv_draw/lv_draw_line.c **** 
 354:..\lvgl\lv_draw/lv_draw_line.c ****         }
 355:..\lvgl\lv_draw/lv_draw_line.c **** #endif
 356:..\lvgl\lv_draw/lv_draw_line.c ****     }
 357:..\lvgl\lv_draw/lv_draw_line.c **** 
 358:..\lvgl\lv_draw/lv_draw_line.c **** 
 359:..\lvgl\lv_draw/lv_draw_line.c **** 
 360:..\lvgl\lv_draw/lv_draw_line.c **** #if LV_ANTIALIAS
 361:..\lvgl\lv_draw/lv_draw_line.c ****     /*Add the last part of anti-aliasing for the perpendicular ending*/
 362:..\lvgl\lv_draw/lv_draw_line.c ****     if(width != 0) {    /*Due to rounding error with very thin lines it looks ugly*/
 363:..\lvgl\lv_draw/lv_draw_line.c ****         if(main_line->hor) {
 364:..\lvgl\lv_draw/lv_draw_line.c ****             lv_coord_t seg_w = pattern[width_safe - 1].y - pattern[aa_last_corner].y;
 365:..\lvgl\lv_draw/lv_draw_line.c ****             if(main_line->sy < 0) {
 366:..\lvgl\lv_draw/lv_draw_line.c ****                 lv_draw_aa_ver_seg(main_line->p1.x + pattern[aa_last_corner].x - 1, main_line->p1.y
 367:..\lvgl\lv_draw/lv_draw_line.c ****                         seg_w + main_line->sy, mask, style->line.color, opa);
 368:..\lvgl\lv_draw/lv_draw_line.c **** 
 369:..\lvgl\lv_draw/lv_draw_line.c ****                 lv_draw_aa_ver_seg(main_line->p2.x + pattern[aa_last_corner].x + 1, main_line->p2.y
 370:..\lvgl\lv_draw/lv_draw_line.c ****                         -(seg_w + main_line->sy), mask, style->line.color, opa);
 371:..\lvgl\lv_draw/lv_draw_line.c **** 
 372:..\lvgl\lv_draw/lv_draw_line.c ****             } else {
 373:..\lvgl\lv_draw/lv_draw_line.c ****                 lv_draw_aa_ver_seg(main_line->p1.x + pattern[aa_last_corner].x - 1, main_line->p1.y
 374:..\lvgl\lv_draw/lv_draw_line.c ****                         seg_w + main_line->sy, mask, style->line.color, opa);
 375:..\lvgl\lv_draw/lv_draw_line.c **** 
 376:..\lvgl\lv_draw/lv_draw_line.c ****                 lv_draw_aa_ver_seg(main_line->p2.x + pattern[aa_last_corner].x + 1, main_line->p2.y
 377:..\lvgl\lv_draw/lv_draw_line.c ****                         -(seg_w + main_line->sy), mask, style->line.color, opa);
 378:..\lvgl\lv_draw/lv_draw_line.c ****             }
 379:..\lvgl\lv_draw/lv_draw_line.c ****         } else {
 380:..\lvgl\lv_draw/lv_draw_line.c ****             lv_coord_t seg_w = pattern[width_safe - 1].x - pattern[aa_last_corner].x;
 381:..\lvgl\lv_draw/lv_draw_line.c ****             if(main_line->sx < 0) {
 382:..\lvgl\lv_draw/lv_draw_line.c ****                 lv_draw_aa_hor_seg(main_line->p1.x + pattern[aa_last_corner].x + seg_w, main_line->
 383:..\lvgl\lv_draw/lv_draw_line.c ****                         seg_w + main_line->sx, mask, style->line.color, opa);
 384:..\lvgl\lv_draw/lv_draw_line.c **** 
 385:..\lvgl\lv_draw/lv_draw_line.c ****                 lv_draw_aa_hor_seg(main_line->p2.x + pattern[aa_last_corner].x + seg_w, main_line->
 386:..\lvgl\lv_draw/lv_draw_line.c ****                         -(seg_w + main_line->sx), mask, style->line.color, opa);
ARM GAS  C:\Users\d3bug\AppData\Local\Temp\ccg1LD4z.s 			page 12


 387:..\lvgl\lv_draw/lv_draw_line.c **** 
 388:..\lvgl\lv_draw/lv_draw_line.c ****             } else {
 389:..\lvgl\lv_draw/lv_draw_line.c ****                 lv_draw_aa_hor_seg(main_line->p1.x + pattern[aa_last_corner].x, main_line->p1.y + p
 390:..\lvgl\lv_draw/lv_draw_line.c ****                         seg_w + main_line->sx, mask, style->line.color, opa);
 391:..\lvgl\lv_draw/lv_draw_line.c **** 
 392:..\lvgl\lv_draw/lv_draw_line.c ****                 lv_draw_aa_hor_seg(main_line->p2.x + pattern[aa_last_corner].x, main_line->p2.y + p
 393:..\lvgl\lv_draw/lv_draw_line.c ****                         -(seg_w + main_line->sx), mask, style->line.color, opa);
 394:..\lvgl\lv_draw/lv_draw_line.c ****             }
 395:..\lvgl\lv_draw/lv_draw_line.c **** 
 396:..\lvgl\lv_draw/lv_draw_line.c ****         }
 397:..\lvgl\lv_draw/lv_draw_line.c ****     }
 398:..\lvgl\lv_draw/lv_draw_line.c **** #endif
 399:..\lvgl\lv_draw/lv_draw_line.c **** 
 400:..\lvgl\lv_draw/lv_draw_line.c **** #if LV_ANTIALIAS
 401:..\lvgl\lv_draw/lv_draw_line.c **** 
 402:..\lvgl\lv_draw/lv_draw_line.c ****     /*Shift the anti aliasing on the edges (-1, 1 or 0 (zero only in case width == 0))*/
 403:..\lvgl\lv_draw/lv_draw_line.c ****     lv_coord_t aa_shift1;
 404:..\lvgl\lv_draw/lv_draw_line.c ****     lv_coord_t aa_shift2;
 405:..\lvgl\lv_draw/lv_draw_line.c **** 
 406:..\lvgl\lv_draw/lv_draw_line.c ****     if(main_line->hor == false) {
 407:..\lvgl\lv_draw/lv_draw_line.c ****         if(main_line->sx < 0) {
 408:..\lvgl\lv_draw/lv_draw_line.c ****             aa_shift1 = -1;
 409:..\lvgl\lv_draw/lv_draw_line.c ****             aa_shift2 = width == 0 ? 0 : aa_shift1;
 410:..\lvgl\lv_draw/lv_draw_line.c ****         } else {
 411:..\lvgl\lv_draw/lv_draw_line.c ****             aa_shift2 = 1;
 412:..\lvgl\lv_draw/lv_draw_line.c ****             aa_shift1 = width == 0 ? 0 : aa_shift2;
 413:..\lvgl\lv_draw/lv_draw_line.c ****         }
 414:..\lvgl\lv_draw/lv_draw_line.c ****     } else {
 415:..\lvgl\lv_draw/lv_draw_line.c ****         if(main_line->sy < 0) {
 416:..\lvgl\lv_draw/lv_draw_line.c ****             aa_shift1 = -1;
 417:..\lvgl\lv_draw/lv_draw_line.c ****             aa_shift2 = width == 0 ? 0 : aa_shift1;
 418:..\lvgl\lv_draw/lv_draw_line.c ****         } else {
 419:..\lvgl\lv_draw/lv_draw_line.c ****             aa_shift2 = 1;
 420:..\lvgl\lv_draw/lv_draw_line.c ****             aa_shift1 = width == 0 ? 0 : aa_shift2;
 421:..\lvgl\lv_draw/lv_draw_line.c ****         }
 422:..\lvgl\lv_draw/lv_draw_line.c ****     }
 423:..\lvgl\lv_draw/lv_draw_line.c **** 
 424:..\lvgl\lv_draw/lv_draw_line.c **** #endif
 425:..\lvgl\lv_draw/lv_draw_line.c **** 
 426:..\lvgl\lv_draw/lv_draw_line.c ****     volatile lv_point_t prev_p;
 427:..\lvgl\lv_draw/lv_draw_line.c ****     prev_p.x = main_line->p1.x;
 428:..\lvgl\lv_draw/lv_draw_line.c ****     prev_p.y = main_line->p1.y;
 429:..\lvgl\lv_draw/lv_draw_line.c ****     lv_area_t draw_area;
 430:..\lvgl\lv_draw/lv_draw_line.c ****     bool first_run = true;
 431:..\lvgl\lv_draw/lv_draw_line.c **** 
 432:..\lvgl\lv_draw/lv_draw_line.c ****     if(main_line->hor) {
 433:..\lvgl\lv_draw/lv_draw_line.c ****         while(line_next_y(main_line)) {
 434:..\lvgl\lv_draw/lv_draw_line.c ****             for(i = 0; i < width; i++) {
 435:..\lvgl\lv_draw/lv_draw_line.c ****                 draw_area.x1 = prev_p.x + pattern[i].x;
 436:..\lvgl\lv_draw/lv_draw_line.c ****                 draw_area.y1 = prev_p.y + pattern[i].y;
 437:..\lvgl\lv_draw/lv_draw_line.c ****                 draw_area.x2 = draw_area.x1 + main_line->p_act.x - prev_p.x - 1;
 438:..\lvgl\lv_draw/lv_draw_line.c ****                 draw_area.y2 = draw_area.y1;
 439:..\lvgl\lv_draw/lv_draw_line.c ****                 fill_fp(&draw_area, mask, style->line.color, opa);
 440:..\lvgl\lv_draw/lv_draw_line.c **** 
 441:..\lvgl\lv_draw/lv_draw_line.c ****                 /* Fill the gaps
 442:..\lvgl\lv_draw/lv_draw_line.c ****                  * When stepping in y one pixel remains empty on every corner (don't do this on the
 443:..\lvgl\lv_draw/lv_draw_line.c ****                 if(i != 0 && pattern[i].x != pattern[i - 1].x && !first_run) {
ARM GAS  C:\Users\d3bug\AppData\Local\Temp\ccg1LD4z.s 			page 13


 444:..\lvgl\lv_draw/lv_draw_line.c ****                     px_fp(draw_area.x1, draw_area.y1 - main_line->sy, mask, style->line.color, opa)
 445:..\lvgl\lv_draw/lv_draw_line.c ****                 }
 446:..\lvgl\lv_draw/lv_draw_line.c ****             }
 447:..\lvgl\lv_draw/lv_draw_line.c **** 
 448:..\lvgl\lv_draw/lv_draw_line.c **** #if LV_ANTIALIAS
 449:..\lvgl\lv_draw/lv_draw_line.c ****             lv_draw_aa_hor_seg(prev_p.x + pattern[0].x, prev_p.y + pattern[0].y - aa_shift1,
 450:..\lvgl\lv_draw/lv_draw_line.c ****                     -(main_line->p_act.x - prev_p.x), mask, style->line.color, opa);
 451:..\lvgl\lv_draw/lv_draw_line.c ****             lv_draw_aa_hor_seg(prev_p.x + pattern[width_safe - 1].x, prev_p.y + pattern[width_safe 
 452:..\lvgl\lv_draw/lv_draw_line.c ****                     main_line->p_act.x - prev_p.x, mask, style->line.color, opa);
 453:..\lvgl\lv_draw/lv_draw_line.c **** #endif
 454:..\lvgl\lv_draw/lv_draw_line.c **** 
 455:..\lvgl\lv_draw/lv_draw_line.c ****             first_run = false;
 456:..\lvgl\lv_draw/lv_draw_line.c **** 
 457:..\lvgl\lv_draw/lv_draw_line.c ****             prev_p.x = main_line->p_act.x;
 458:..\lvgl\lv_draw/lv_draw_line.c ****             prev_p.y = main_line->p_act.y;
 459:..\lvgl\lv_draw/lv_draw_line.c ****         }
 460:..\lvgl\lv_draw/lv_draw_line.c **** 
 461:..\lvgl\lv_draw/lv_draw_line.c ****         for(i = 0; i < width; i++) {
 462:..\lvgl\lv_draw/lv_draw_line.c ****             draw_area.x1 = prev_p.x + pattern[i].x;
 463:..\lvgl\lv_draw/lv_draw_line.c ****             draw_area.y1 = prev_p.y + pattern[i].y;
 464:..\lvgl\lv_draw/lv_draw_line.c ****             draw_area.x2 = draw_area.x1 + main_line->p_act.x - prev_p.x;
 465:..\lvgl\lv_draw/lv_draw_line.c ****             draw_area.y2 = draw_area.y1;
 466:..\lvgl\lv_draw/lv_draw_line.c ****             fill_fp(&draw_area, mask, style->line.color, opa);
 467:..\lvgl\lv_draw/lv_draw_line.c **** 
 468:..\lvgl\lv_draw/lv_draw_line.c ****             /* Fill the gaps
 469:..\lvgl\lv_draw/lv_draw_line.c ****              * When stepping in y one pixel remains empty on every corner */
 470:..\lvgl\lv_draw/lv_draw_line.c ****             if(i != 0 && pattern[i].x != pattern[i - 1].x && !first_run) {
 471:..\lvgl\lv_draw/lv_draw_line.c ****                 px_fp(draw_area.x1, draw_area.y1 - main_line->sy, mask, style->line.color, opa);
 472:..\lvgl\lv_draw/lv_draw_line.c ****             }
 473:..\lvgl\lv_draw/lv_draw_line.c ****         }
 474:..\lvgl\lv_draw/lv_draw_line.c **** 
 475:..\lvgl\lv_draw/lv_draw_line.c **** #if LV_ANTIALIAS
 476:..\lvgl\lv_draw/lv_draw_line.c ****         lv_draw_aa_hor_seg(prev_p.x + pattern[0].x, prev_p.y + pattern[0].y - aa_shift1,
 477:..\lvgl\lv_draw/lv_draw_line.c ****                 -(main_line->p_act.x - prev_p.x + 1), mask, style->line.color, opa);
 478:..\lvgl\lv_draw/lv_draw_line.c ****         lv_draw_aa_hor_seg(prev_p.x + pattern[width_safe - 1].x, prev_p.y + pattern[width_safe - 1]
 479:..\lvgl\lv_draw/lv_draw_line.c ****                 main_line->p_act.x - prev_p.x + 1, mask, style->line.color, opa);
 480:..\lvgl\lv_draw/lv_draw_line.c **** #endif
 481:..\lvgl\lv_draw/lv_draw_line.c ****     }
 482:..\lvgl\lv_draw/lv_draw_line.c ****     /*Rather a vertical line*/
 483:..\lvgl\lv_draw/lv_draw_line.c ****     else {
 484:..\lvgl\lv_draw/lv_draw_line.c **** 
 485:..\lvgl\lv_draw/lv_draw_line.c ****         while(line_next_x(main_line)) {
 486:..\lvgl\lv_draw/lv_draw_line.c ****             for(i = 0; i < width; i++) {
 487:..\lvgl\lv_draw/lv_draw_line.c ****                 draw_area.x1 = prev_p.x + pattern[i].x;
 488:..\lvgl\lv_draw/lv_draw_line.c ****                 draw_area.y1 = prev_p.y + pattern[i].y;
 489:..\lvgl\lv_draw/lv_draw_line.c ****                 draw_area.x2 = draw_area.x1;
 490:..\lvgl\lv_draw/lv_draw_line.c ****                 draw_area.y2 = draw_area.y1 + main_line->p_act.y - prev_p.y - 1;
 491:..\lvgl\lv_draw/lv_draw_line.c **** 
 492:..\lvgl\lv_draw/lv_draw_line.c ****                 fill_fp(&draw_area, mask, style->line.color, opa);
 493:..\lvgl\lv_draw/lv_draw_line.c **** 
 494:..\lvgl\lv_draw/lv_draw_line.c ****                 /* Fill the gaps
 495:..\lvgl\lv_draw/lv_draw_line.c ****                  * When stepping in x one pixel remains empty on every corner (don't do this on the
 496:..\lvgl\lv_draw/lv_draw_line.c ****                 if(i != 0 && pattern[i].y != pattern[i - 1].y && !first_run) {
 497:..\lvgl\lv_draw/lv_draw_line.c ****                     px_fp(draw_area.x1 - main_line->sx, draw_area.y1, mask, style->line.color, opa)
 498:..\lvgl\lv_draw/lv_draw_line.c ****                 }
 499:..\lvgl\lv_draw/lv_draw_line.c **** 
 500:..\lvgl\lv_draw/lv_draw_line.c ****             }
ARM GAS  C:\Users\d3bug\AppData\Local\Temp\ccg1LD4z.s 			page 14


 501:..\lvgl\lv_draw/lv_draw_line.c **** 
 502:..\lvgl\lv_draw/lv_draw_line.c **** #if LV_ANTIALIAS
 503:..\lvgl\lv_draw/lv_draw_line.c ****             lv_draw_aa_ver_seg(prev_p.x + pattern[0].x - aa_shift1, prev_p.y + pattern[0].y,
 504:..\lvgl\lv_draw/lv_draw_line.c ****                     -(main_line->p_act.y - prev_p.y), mask, style->line.color, opa);
 505:..\lvgl\lv_draw/lv_draw_line.c ****             lv_draw_aa_ver_seg(prev_p.x + pattern[width_safe - 1].x + aa_shift2, prev_p.y + pattern
 506:..\lvgl\lv_draw/lv_draw_line.c ****                     main_line->p_act.y - prev_p.y, mask, style->line.color, opa);
 507:..\lvgl\lv_draw/lv_draw_line.c **** #endif
 508:..\lvgl\lv_draw/lv_draw_line.c **** 
 509:..\lvgl\lv_draw/lv_draw_line.c ****             first_run = false;
 510:..\lvgl\lv_draw/lv_draw_line.c **** 
 511:..\lvgl\lv_draw/lv_draw_line.c ****             prev_p.x = main_line->p_act.x;
 512:..\lvgl\lv_draw/lv_draw_line.c ****             prev_p.y = main_line->p_act.y;
 513:..\lvgl\lv_draw/lv_draw_line.c ****         }
 514:..\lvgl\lv_draw/lv_draw_line.c **** 
 515:..\lvgl\lv_draw/lv_draw_line.c ****         /*Draw the last part*/
 516:..\lvgl\lv_draw/lv_draw_line.c ****         for(i = 0; i < width; i++) {
 517:..\lvgl\lv_draw/lv_draw_line.c ****             draw_area.x1 = prev_p.x + pattern[i].x;
 518:..\lvgl\lv_draw/lv_draw_line.c ****             draw_area.y1 = prev_p.y + pattern[i].y;
 519:..\lvgl\lv_draw/lv_draw_line.c ****             draw_area.x2 = draw_area.x1;
 520:..\lvgl\lv_draw/lv_draw_line.c ****             draw_area.y2 = draw_area.y1 + main_line->p_act.y - prev_p.y;
 521:..\lvgl\lv_draw/lv_draw_line.c **** 
 522:..\lvgl\lv_draw/lv_draw_line.c ****             fill_fp(&draw_area, mask, style->line.color, opa);
 523:..\lvgl\lv_draw/lv_draw_line.c **** 
 524:..\lvgl\lv_draw/lv_draw_line.c ****             /* Fill the gaps
 525:..\lvgl\lv_draw/lv_draw_line.c ****              * When stepping in x one pixel remains empty on every corner */
 526:..\lvgl\lv_draw/lv_draw_line.c ****             if(i != 0 && pattern[i].y != pattern[i - 1].y && !first_run) {
 527:..\lvgl\lv_draw/lv_draw_line.c ****                 px_fp(draw_area.x1 - main_line->sx, draw_area.y1, mask, style->line.color, opa);
 528:..\lvgl\lv_draw/lv_draw_line.c ****             }
 529:..\lvgl\lv_draw/lv_draw_line.c ****         }
 530:..\lvgl\lv_draw/lv_draw_line.c **** 
 531:..\lvgl\lv_draw/lv_draw_line.c **** #if LV_ANTIALIAS
 532:..\lvgl\lv_draw/lv_draw_line.c ****         lv_draw_aa_ver_seg(prev_p.x + pattern[0].x - aa_shift1, prev_p.y + pattern[0].y,
 533:..\lvgl\lv_draw/lv_draw_line.c ****                 -(main_line->p_act.y - prev_p.y + 1), mask, style->line.color, opa);
 534:..\lvgl\lv_draw/lv_draw_line.c ****         lv_draw_aa_ver_seg(prev_p.x + pattern[width_safe - 1].x + aa_shift2, prev_p.y + pattern[wid
 535:..\lvgl\lv_draw/lv_draw_line.c ****                 main_line->p_act.y - prev_p.y + 1, mask, style->line.color, opa);
 536:..\lvgl\lv_draw/lv_draw_line.c **** #endif
 537:..\lvgl\lv_draw/lv_draw_line.c ****     }
 538:..\lvgl\lv_draw/lv_draw_line.c **** }
 539:..\lvgl\lv_draw/lv_draw_line.c **** 
 540:..\lvgl\lv_draw/lv_draw_line.c **** 
 541:..\lvgl\lv_draw/lv_draw_line.c **** static void line_init(line_draw_t * line, const lv_point_t * p1, const lv_point_t * p2)
 542:..\lvgl\lv_draw/lv_draw_line.c **** {
 242              		.loc 1 542 0
 243              		.cfi_startproc
 244              		@ args = 0, pretend = 0, frame = 0
 245              		@ frame_needed = 0, uses_anonymous_args = 0
 246              		@ link register save eliminated.
 247              	.LVL27:
 248 0000 70B4     		push	{r4, r5, r6}
 249              		.cfi_def_cfa_offset 12
 250              		.cfi_offset 4, -12
 251              		.cfi_offset 5, -8
 252              		.cfi_offset 6, -4
 543:..\lvgl\lv_draw/lv_draw_line.c ****     line->p1.x = p1->x;
 253              		.loc 1 543 0
 254 0002 B1F90050 		ldrsh	r5, [r1]
 255 0006 0580     		strh	r5, [r0]	@ movhi
ARM GAS  C:\Users\d3bug\AppData\Local\Temp\ccg1LD4z.s 			page 15


 544:..\lvgl\lv_draw/lv_draw_line.c ****     line->p1.y = p1->y;
 256              		.loc 1 544 0
 257 0008 B1F90240 		ldrsh	r4, [r1, #2]
 258 000c 4480     		strh	r4, [r0, #2]	@ movhi
 545:..\lvgl\lv_draw/lv_draw_line.c ****     line->p2.x = p2->x;
 259              		.loc 1 545 0
 260 000e B2F90060 		ldrsh	r6, [r2]
 261 0012 8680     		strh	r6, [r0, #4]	@ movhi
 546:..\lvgl\lv_draw/lv_draw_line.c ****     line->p2.y = p2->y;
 262              		.loc 1 546 0
 263 0014 B2F90210 		ldrsh	r1, [r2, #2]
 264              	.LVL28:
 265 0018 C180     		strh	r1, [r0, #6]	@ movhi
 547:..\lvgl\lv_draw/lv_draw_line.c **** 
 548:..\lvgl\lv_draw/lv_draw_line.c ****     line->dx = LV_MATH_ABS(line->p2.x - line->p1.x);
 266              		.loc 1 548 0
 267 001a 731B     		subs	r3, r6, r5
 268 001c 002B     		cmp	r3, #0
 269 001e B8BF     		it	lt
 270 0020 5B42     		rsblt	r3, r3, #0
 271 0022 1BB2     		sxth	r3, r3
 272 0024 8381     		strh	r3, [r0, #12]	@ movhi
 549:..\lvgl\lv_draw/lv_draw_line.c ****     line->sx = line->p1.x < line->p2.x ? 1 : -1;
 273              		.loc 1 549 0
 274 0026 B542     		cmp	r5, r6
 275 0028 01DA     		bge	.L18
 276 002a 0122     		movs	r2, #1
 277              	.LVL29:
 278 002c 01E0     		b	.L14
 279              	.LVL30:
 280              	.L18:
 281 002e 4FF0FF32 		mov	r2, #-1
 282              	.LVL31:
 283              	.L14:
 284              		.loc 1 549 0 is_stmt 0 discriminator 4
 285 0032 C281     		strh	r2, [r0, #14]	@ movhi
 550:..\lvgl\lv_draw/lv_draw_line.c ****     line->dy = LV_MATH_ABS(line->p2.y - line->p1.y);
 286              		.loc 1 550 0 is_stmt 1 discriminator 4
 287 0034 0A1B     		subs	r2, r1, r4
 288 0036 002A     		cmp	r2, #0
 289 0038 B8BF     		it	lt
 290 003a 5242     		rsblt	r2, r2, #0
 291 003c 12B2     		sxth	r2, r2
 292 003e 0282     		strh	r2, [r0, #16]	@ movhi
 551:..\lvgl\lv_draw/lv_draw_line.c ****     line->sy = line->p1.y < line->p2.y ? 1 : -1;
 293              		.loc 1 551 0 discriminator 4
 294 0040 8C42     		cmp	r4, r1
 295 0042 01DA     		bge	.L19
 296              		.loc 1 551 0 is_stmt 0
 297 0044 0121     		movs	r1, #1
 298 0046 01E0     		b	.L15
 299              	.L19:
 300 0048 4FF0FF31 		mov	r1, #-1
 301              	.L15:
 302              		.loc 1 551 0 discriminator 4
 303 004c 4182     		strh	r1, [r0, #18]	@ movhi
 552:..\lvgl\lv_draw/lv_draw_line.c ****     line->err = (line->dx > line->dy ? line->dx : -line->dy) / 2;
ARM GAS  C:\Users\d3bug\AppData\Local\Temp\ccg1LD4z.s 			page 16


 304              		.loc 1 552 0 is_stmt 1 discriminator 4
 305 004e 9342     		cmp	r3, r2
 306 0050 03DD     		ble	.L16
 307              		.loc 1 552 0 is_stmt 0 discriminator 1
 308 0052 03EBD371 		add	r1, r3, r3, lsr #31
 309 0056 4910     		asrs	r1, r1, #1
 310 0058 04E0     		b	.L17
 311              	.L16:
 312              		.loc 1 552 0 discriminator 2
 313 005a 5142     		negs	r1, r2
 314 005c 01EBD171 		add	r1, r1, r1, lsr #31
 315 0060 41F34F01 		sbfx	r1, r1, #1, #16
 316              	.L17:
 317              		.loc 1 552 0 discriminator 4
 318 0064 8182     		strh	r1, [r0, #20]	@ movhi
 553:..\lvgl\lv_draw/lv_draw_line.c ****     line->e2 = 0;
 319              		.loc 1 553 0 is_stmt 1 discriminator 4
 320 0066 0021     		movs	r1, #0
 321 0068 C182     		strh	r1, [r0, #22]	@ movhi
 554:..\lvgl\lv_draw/lv_draw_line.c ****     line->hor = line->dx > line->dy ? true : false; /*Rather horizontal or vertical*/
 322              		.loc 1 554 0 discriminator 4
 323 006a 9342     		cmp	r3, r2
 324 006c D4BF     		ite	le
 325 006e 0023     		movle	r3, #0
 326 0070 0123     		movgt	r3, #1
 327 0072 0376     		strb	r3, [r0, #24]
 555:..\lvgl\lv_draw/lv_draw_line.c **** 
 556:..\lvgl\lv_draw/lv_draw_line.c ****     line->p_act.x = line->p1.x;
 328              		.loc 1 556 0 discriminator 4
 329 0074 0581     		strh	r5, [r0, #8]	@ movhi
 557:..\lvgl\lv_draw/lv_draw_line.c ****     line->p_act.y = line->p1.y;
 330              		.loc 1 557 0 discriminator 4
 331 0076 4481     		strh	r4, [r0, #10]	@ movhi
 558:..\lvgl\lv_draw/lv_draw_line.c **** }
 332              		.loc 1 558 0 discriminator 4
 333 0078 70BC     		pop	{r4, r5, r6}
 334              		.cfi_restore 6
 335              		.cfi_restore 5
 336              		.cfi_restore 4
 337              		.cfi_def_cfa_offset 0
 338 007a 7047     		bx	lr
 339              		.cfi_endproc
 340              	.LFE17:
 341              		.size	line_init, .-line_init
 342              		.section	.text.line_next,"ax",%progbits
 343              		.align	2
 344              		.thumb
 345              		.thumb_func
 346              		.type	line_next, %function
 347              	line_next:
 348              	.LFB18:
 559:..\lvgl\lv_draw/lv_draw_line.c **** 
 560:..\lvgl\lv_draw/lv_draw_line.c **** static bool line_next(line_draw_t * line)
 561:..\lvgl\lv_draw/lv_draw_line.c **** {
 349              		.loc 1 561 0
 350              		.cfi_startproc
 351              		@ args = 0, pretend = 0, frame = 0
ARM GAS  C:\Users\d3bug\AppData\Local\Temp\ccg1LD4z.s 			page 17


 352              		@ frame_needed = 0, uses_anonymous_args = 0
 353              		@ link register save eliminated.
 354              	.LVL32:
 355 0000 10B4     		push	{r4}
 356              		.cfi_def_cfa_offset 4
 357              		.cfi_offset 4, -4
 562:..\lvgl\lv_draw/lv_draw_line.c ****     if(line->p_act.x == line->p2.x && line->p_act.y == line->p2.y) return false;
 358              		.loc 1 562 0
 359 0002 B0F90820 		ldrsh	r2, [r0, #8]
 360 0006 B0F90430 		ldrsh	r3, [r0, #4]
 361 000a 9A42     		cmp	r2, r3
 362 000c 05D1     		bne	.L22
 363              		.loc 1 562 0 is_stmt 0 discriminator 1
 364 000e B0F90A10 		ldrsh	r1, [r0, #10]
 365 0012 B0F90630 		ldrsh	r3, [r0, #6]
 366 0016 9942     		cmp	r1, r3
 367 0018 1DD0     		beq	.L25
 368              	.L22:
 563:..\lvgl\lv_draw/lv_draw_line.c ****     line->e2 = line->err;
 369              		.loc 1 563 0 is_stmt 1
 370 001a B0F91430 		ldrsh	r3, [r0, #20]
 371 001e C382     		strh	r3, [r0, #22]	@ movhi
 564:..\lvgl\lv_draw/lv_draw_line.c ****     if(line->e2 > -line->dx) {
 372              		.loc 1 564 0
 373 0020 B0F90C10 		ldrsh	r1, [r0, #12]
 374 0024 4C42     		negs	r4, r1
 375 0026 A342     		cmp	r3, r4
 376 0028 07DD     		ble	.L24
 565:..\lvgl\lv_draw/lv_draw_line.c ****         line->err -= line->dy;
 377              		.loc 1 565 0
 378 002a B0F91040 		ldrsh	r4, [r0, #16]
 379 002e 1C1B     		subs	r4, r3, r4
 380 0030 8482     		strh	r4, [r0, #20]	@ movhi
 566:..\lvgl\lv_draw/lv_draw_line.c ****         line->p_act.x += line->sx;
 381              		.loc 1 566 0
 382 0032 B0F90E40 		ldrsh	r4, [r0, #14]
 383 0036 2244     		add	r2, r2, r4
 384 0038 0281     		strh	r2, [r0, #8]	@ movhi
 385              	.L24:
 567:..\lvgl\lv_draw/lv_draw_line.c ****     }
 568:..\lvgl\lv_draw/lv_draw_line.c ****     if(line->e2 < line->dy) {
 386              		.loc 1 568 0
 387 003a B0F91020 		ldrsh	r2, [r0, #16]
 388 003e 9342     		cmp	r3, r2
 389 0040 0BDA     		bge	.L26
 569:..\lvgl\lv_draw/lv_draw_line.c ****         line->err += line->dx;
 390              		.loc 1 569 0
 391 0042 838A     		ldrh	r3, [r0, #20]
 392 0044 1944     		add	r1, r1, r3
 393 0046 8182     		strh	r1, [r0, #20]	@ movhi
 570:..\lvgl\lv_draw/lv_draw_line.c ****         line->p_act.y += line->sy;
 394              		.loc 1 570 0
 395 0048 B0F91220 		ldrsh	r2, [r0, #18]
 396 004c 4389     		ldrh	r3, [r0, #10]
 397 004e 1344     		add	r3, r3, r2
 398 0050 4381     		strh	r3, [r0, #10]	@ movhi
 571:..\lvgl\lv_draw/lv_draw_line.c ****     }
ARM GAS  C:\Users\d3bug\AppData\Local\Temp\ccg1LD4z.s 			page 18


 572:..\lvgl\lv_draw/lv_draw_line.c ****     return true;
 399              		.loc 1 572 0
 400 0052 0120     		movs	r0, #1
 401              	.LVL33:
 402 0054 02E0     		b	.L23
 403              	.LVL34:
 404              	.L25:
 562:..\lvgl\lv_draw/lv_draw_line.c ****     line->e2 = line->err;
 405              		.loc 1 562 0
 406 0056 0020     		movs	r0, #0
 407              	.LVL35:
 408 0058 00E0     		b	.L23
 409              	.LVL36:
 410              	.L26:
 411              		.loc 1 572 0
 412 005a 0120     		movs	r0, #1
 413              	.LVL37:
 414              	.L23:
 573:..\lvgl\lv_draw/lv_draw_line.c **** }
 415              		.loc 1 573 0
 416 005c 10BC     		pop	{r4}
 417              		.cfi_restore 4
 418              		.cfi_def_cfa_offset 0
 419 005e 7047     		bx	lr
 420              		.cfi_endproc
 421              	.LFE18:
 422              		.size	line_next, .-line_next
 423              		.section	.text.line_next_y,"ax",%progbits
 424              		.align	2
 425              		.thumb
 426              		.thumb_func
 427              		.type	line_next_y, %function
 428              	line_next_y:
 429              	.LFB19:
 574:..\lvgl\lv_draw/lv_draw_line.c **** 
 575:..\lvgl\lv_draw/lv_draw_line.c **** /**
 576:..\lvgl\lv_draw/lv_draw_line.c ****  * Iterate until step one in y direction.
 577:..\lvgl\lv_draw/lv_draw_line.c ****  * @param line
 578:..\lvgl\lv_draw/lv_draw_line.c ****  * @return
 579:..\lvgl\lv_draw/lv_draw_line.c ****  */
 580:..\lvgl\lv_draw/lv_draw_line.c **** static bool line_next_y(line_draw_t * line)
 581:..\lvgl\lv_draw/lv_draw_line.c **** {
 430              		.loc 1 581 0
 431              		.cfi_startproc
 432              		@ args = 0, pretend = 0, frame = 0
 433              		@ frame_needed = 0, uses_anonymous_args = 0
 434              	.LVL38:
 435 0000 38B5     		push	{r3, r4, r5, lr}
 436              		.cfi_def_cfa_offset 16
 437              		.cfi_offset 3, -16
 438              		.cfi_offset 4, -12
 439              		.cfi_offset 5, -8
 440              		.cfi_offset 14, -4
 441 0002 0446     		mov	r4, r0
 582:..\lvgl\lv_draw/lv_draw_line.c ****     lv_coord_t last_y = line->p_act.y;
 442              		.loc 1 582 0
 443 0004 B0F90A50 		ldrsh	r5, [r0, #10]
ARM GAS  C:\Users\d3bug\AppData\Local\Temp\ccg1LD4z.s 			page 19


 444              	.LVL39:
 445              	.L30:
 583:..\lvgl\lv_draw/lv_draw_line.c **** 
 584:..\lvgl\lv_draw/lv_draw_line.c ****     do {
 585:..\lvgl\lv_draw/lv_draw_line.c ****         if(!line_next(line)) return false;
 446              		.loc 1 585 0
 447 0008 2046     		mov	r0, r4
 448 000a FFF7FEFF 		bl	line_next
 449              	.LVL40:
 450 000e 0246     		mov	r2, r0
 451 0010 18B1     		cbz	r0, .L29
 586:..\lvgl\lv_draw/lv_draw_line.c ****     } while(last_y == line->p_act.y);
 452              		.loc 1 586 0
 453 0012 B4F90A30 		ldrsh	r3, [r4, #10]
 454 0016 9D42     		cmp	r5, r3
 455 0018 F6D0     		beq	.L30
 456              	.L29:
 587:..\lvgl\lv_draw/lv_draw_line.c **** 
 588:..\lvgl\lv_draw/lv_draw_line.c ****     return true;
 589:..\lvgl\lv_draw/lv_draw_line.c **** 
 590:..\lvgl\lv_draw/lv_draw_line.c **** }
 457              		.loc 1 590 0
 458 001a 1046     		mov	r0, r2
 459 001c 38BD     		pop	{r3, r4, r5, pc}
 460              		.cfi_endproc
 461              	.LFE19:
 462              		.size	line_next_y, .-line_next_y
 463 001e 00BF     		.section	.text.line_next_x,"ax",%progbits
 464              		.align	2
 465              		.thumb
 466              		.thumb_func
 467              		.type	line_next_x, %function
 468              	line_next_x:
 469              	.LFB20:
 591:..\lvgl\lv_draw/lv_draw_line.c **** 
 592:..\lvgl\lv_draw/lv_draw_line.c **** /**
 593:..\lvgl\lv_draw/lv_draw_line.c ****  * Iterate until step one in x direction.
 594:..\lvgl\lv_draw/lv_draw_line.c ****  * @param line
 595:..\lvgl\lv_draw/lv_draw_line.c ****  * @return
 596:..\lvgl\lv_draw/lv_draw_line.c ****  */
 597:..\lvgl\lv_draw/lv_draw_line.c **** static bool line_next_x(line_draw_t * line)
 598:..\lvgl\lv_draw/lv_draw_line.c **** {
 470              		.loc 1 598 0
 471              		.cfi_startproc
 472              		@ args = 0, pretend = 0, frame = 0
 473              		@ frame_needed = 0, uses_anonymous_args = 0
 474              	.LVL41:
 475 0000 38B5     		push	{r3, r4, r5, lr}
 476              		.cfi_def_cfa_offset 16
 477              		.cfi_offset 3, -16
 478              		.cfi_offset 4, -12
 479              		.cfi_offset 5, -8
 480              		.cfi_offset 14, -4
 481 0002 0446     		mov	r4, r0
 599:..\lvgl\lv_draw/lv_draw_line.c ****     lv_coord_t last_x = line->p_act.x;
 482              		.loc 1 599 0
 483 0004 B0F90850 		ldrsh	r5, [r0, #8]
ARM GAS  C:\Users\d3bug\AppData\Local\Temp\ccg1LD4z.s 			page 20


 484              	.LVL42:
 485              	.L34:
 600:..\lvgl\lv_draw/lv_draw_line.c **** 
 601:..\lvgl\lv_draw/lv_draw_line.c ****     do {
 602:..\lvgl\lv_draw/lv_draw_line.c ****         if(!line_next(line)) return false;
 486              		.loc 1 602 0
 487 0008 2046     		mov	r0, r4
 488 000a FFF7FEFF 		bl	line_next
 489              	.LVL43:
 490 000e 0246     		mov	r2, r0
 491 0010 18B1     		cbz	r0, .L33
 603:..\lvgl\lv_draw/lv_draw_line.c ****     } while(last_x == line->p_act.x);
 492              		.loc 1 603 0
 493 0012 B4F90830 		ldrsh	r3, [r4, #8]
 494 0016 9D42     		cmp	r5, r3
 495 0018 F6D0     		beq	.L34
 496              	.L33:
 604:..\lvgl\lv_draw/lv_draw_line.c **** 
 605:..\lvgl\lv_draw/lv_draw_line.c ****     return true;
 606:..\lvgl\lv_draw/lv_draw_line.c **** 
 607:..\lvgl\lv_draw/lv_draw_line.c **** }
 497              		.loc 1 607 0
 498 001a 1046     		mov	r0, r2
 499 001c 38BD     		pop	{r3, r4, r5, pc}
 500              		.cfi_endproc
 501              	.LFE20:
 502              		.size	line_next_x, .-line_next_x
 503 001e 00BF     		.section	.text.line_draw_skew,"ax",%progbits
 504              		.align	2
 505              		.thumb
 506              		.thumb_func
 507              		.type	line_draw_skew, %function
 508              	line_draw_skew:
 509              	.LFB16:
 221:..\lvgl\lv_draw/lv_draw_line.c **** 
 510              		.loc 1 221 0
 511              		.cfi_startproc
 512              		@ args = 4, pretend = 0, frame = 72
 513              		@ frame_needed = 1, uses_anonymous_args = 0
 514              	.LVL44:
 515 0000 2DE9F04F 		push	{r4, r5, r6, r7, r8, r9, r10, fp, lr}
 516              		.cfi_def_cfa_offset 36
 517              		.cfi_offset 4, -36
 518              		.cfi_offset 5, -32
 519              		.cfi_offset 6, -28
 520              		.cfi_offset 7, -24
 521              		.cfi_offset 8, -20
 522              		.cfi_offset 9, -16
 523              		.cfi_offset 10, -12
 524              		.cfi_offset 11, -8
 525              		.cfi_offset 14, -4
 526 0004 95B0     		sub	sp, sp, #84
 527              		.cfi_def_cfa_offset 120
 528 0006 02AF     		add	r7, sp, #8
 529              		.cfi_def_cfa 7, 112
 530 0008 0546     		mov	r5, r0
 531 000a B960     		str	r1, [r7, #8]
ARM GAS  C:\Users\d3bug\AppData\Local\Temp\ccg1LD4z.s 			page 21


 532 000c 3A61     		str	r2, [r7, #16]
 533 000e 1E46     		mov	r6, r3
 534 0010 97F87020 		ldrb	r2, [r7, #112]	@ zero_extendqisi2
 535              	.LVL45:
 223:..\lvgl\lv_draw/lv_draw_line.c **** 
 536              		.loc 1 223 0
 537 0014 FF2A     		cmp	r2, #255
 538 0016 03D1     		bne	.L37
 223:..\lvgl\lv_draw/lv_draw_line.c **** 
 539              		.loc 1 223 0 is_stmt 0 discriminator 1
 540 0018 93F83430 		ldrb	r3, [r3, #52]	@ zero_extendqisi2
 541              	.LVL46:
 542 001c 7B61     		str	r3, [r7, #20]
 543 001e 06E0     		b	.L38
 544              	.LVL47:
 545              	.L37:
 223:..\lvgl\lv_draw/lv_draw_line.c **** 
 546              		.loc 1 223 0 discriminator 2
 547 0020 93F83430 		ldrb	r3, [r3, #52]	@ zero_extendqisi2
 548              	.LVL48:
 549 0024 03FB02F3 		mul	r3, r3, r2
 550 0028 C3F30723 		ubfx	r3, r3, #8, #8
 551 002c 7B61     		str	r3, [r7, #20]
 552              	.L38:
 553              	.LVL49:
 226:..\lvgl\lv_draw/lv_draw_line.c ****     vect_main.y = main_line->p2.y - main_line->p1.y;
 554              		.loc 1 226 0 is_stmt 1 discriminator 4
 555 002e B5F90410 		ldrsh	r1, [r5, #4]
 556              	.LVL50:
 557 0032 B5F90040 		ldrsh	r4, [r5]
 558 0036 0A1B     		subs	r2, r1, r4
 559 0038 92B2     		uxth	r2, r2
 560 003a 0FFA82F8 		sxth	r8, r2
 227:..\lvgl\lv_draw/lv_draw_line.c **** 
 561              		.loc 1 227 0 discriminator 4
 562 003e B5F90600 		ldrsh	r0, [r5, #6]
 563              	.LVL51:
 564 0042 B5F902E0 		ldrsh	lr, [r5, #2]
 565 0046 CEEB0003 		rsb	r3, lr, r0
 566 004a 9BB2     		uxth	r3, r3
 567 004c 0FFA83F9 		sxth	r9, r3
 229:..\lvgl\lv_draw/lv_draw_line.c ****         if(main_line->p1.y < main_line->p2.y + dir_ori) {
 568              		.loc 1 229 0 discriminator 4
 569 0050 95F818C0 		ldrb	ip, [r5, #24]	@ zero_extendqisi2
 570 0054 BCF1000F 		cmp	ip, #0
 571 0058 0FD0     		beq	.L39
 230:..\lvgl\lv_draw/lv_draw_line.c ****             vect_norm.x = - vect_main.y;
 572              		.loc 1 230 0
 573 005a B968     		ldr	r1, [r7, #8]
 574 005c 0844     		add	r0, r0, r1
 575 005e 8645     		cmp	lr, r0
 576 0060 05DA     		bge	.L40
 231:..\lvgl\lv_draw/lv_draw_line.c ****             vect_norm.y = vect_main.x;
 577              		.loc 1 231 0
 578 0062 5B42     		negs	r3, r3
 579 0064 A7F84430 		strh	r3, [r7, #68]	@ movhi
 232:..\lvgl\lv_draw/lv_draw_line.c ****         } else {
ARM GAS  C:\Users\d3bug\AppData\Local\Temp\ccg1LD4z.s 			page 22


 580              		.loc 1 232 0
 581 0068 A7F84680 		strh	r8, [r7, #70]	@ movhi
 582 006c 14E0     		b	.L41
 583              	.L40:
 234:..\lvgl\lv_draw/lv_draw_line.c ****             vect_norm.y = -vect_main.x;
 584              		.loc 1 234 0
 585 006e A7F84490 		strh	r9, [r7, #68]	@ movhi
 235:..\lvgl\lv_draw/lv_draw_line.c ****         }
 586              		.loc 1 235 0
 587 0072 5242     		negs	r2, r2
 588 0074 A7F84620 		strh	r2, [r7, #70]	@ movhi
 589 0078 0EE0     		b	.L41
 590              	.L39:
 238:..\lvgl\lv_draw/lv_draw_line.c ****             vect_norm.x = vect_main.y;
 591              		.loc 1 238 0
 592 007a B868     		ldr	r0, [r7, #8]
 593 007c 0144     		add	r1, r1, r0
 594 007e 8C42     		cmp	r4, r1
 595 0080 05DA     		bge	.L42
 239:..\lvgl\lv_draw/lv_draw_line.c ****             vect_norm.y = - vect_main.x;
 596              		.loc 1 239 0
 597 0082 A7F84490 		strh	r9, [r7, #68]	@ movhi
 240:..\lvgl\lv_draw/lv_draw_line.c ****         } else {
 598              		.loc 1 240 0
 599 0086 5242     		negs	r2, r2
 600 0088 A7F84620 		strh	r2, [r7, #70]	@ movhi
 601 008c 04E0     		b	.L41
 602              	.L42:
 242:..\lvgl\lv_draw/lv_draw_line.c ****             vect_norm.y = vect_main.x;
 603              		.loc 1 242 0
 604 008e 5B42     		negs	r3, r3
 605 0090 A7F84430 		strh	r3, [r7, #68]	@ movhi
 243:..\lvgl\lv_draw/lv_draw_line.c ****         }
 606              		.loc 1 243 0
 607 0094 A7F84680 		strh	r8, [r7, #70]	@ movhi
 608              	.L41:
 249:..\lvgl\lv_draw/lv_draw_line.c ****     vect_norm.y = vect_norm.y << 4;
 609              		.loc 1 249 0
 610 0098 B7F94430 		ldrsh	r3, [r7, #68]
 611 009c 1B01     		lsls	r3, r3, #4
 612 009e A7F84430 		strh	r3, [r7, #68]	@ movhi
 250:..\lvgl\lv_draw/lv_draw_line.c **** 
 613              		.loc 1 250 0
 614 00a2 B7F94630 		ldrsh	r3, [r7, #70]
 615 00a6 1B01     		lsls	r3, r3, #4
 616 00a8 A7F84630 		strh	r3, [r7, #70]	@ movhi
 253:..\lvgl\lv_draw/lv_draw_line.c **** 
 617              		.loc 1 253 0
 618 00ac B6F932B0 		ldrsh	fp, [r6, #50]
 619              	.LVL52:
 258:..\lvgl\lv_draw/lv_draw_line.c **** #else
 620              		.loc 1 258 0
 621 00b0 4FEA4B09 		lsl	r9, fp, #1
 622              	.LVL53:
 623 00b4 4FEACB03 		lsl	r3, fp, #3
 624 00b8 0833     		adds	r3, r3, #8
 625 00ba ADEB030D 		sub	sp, sp, r3
ARM GAS  C:\Users\d3bug\AppData\Local\Temp\ccg1LD4z.s 			page 23


 626 00be 02AC     		add	r4, sp, #8
 627              	.LVL54:
 265:..\lvgl\lv_draw/lv_draw_line.c ****         line_draw_t pattern_line;
 628              		.loc 1 265 0
 629 00c0 BBF1000F 		cmp	fp, #0
 630 00c4 35D0     		beq	.L43
 631              	.LBB2:
 267:..\lvgl\lv_draw/lv_draw_line.c ****         line_init(&pattern_line, &p0, &vect_norm);
 632              		.loc 1 267 0
 633 00c6 4FF00008 		mov	r8, #0
 634 00ca A7F81880 		strh	r8, [r7, #24]	@ movhi
 635 00ce A7F81A80 		strh	r8, [r7, #26]	@ movhi
 268:..\lvgl\lv_draw/lv_draw_line.c **** 
 636              		.loc 1 268 0
 637 00d2 07F14402 		add	r2, r7, #68
 638 00d6 07F11801 		add	r1, r7, #24
 639 00da 07F11C00 		add	r0, r7, #28
 640 00de FFF7FEFF 		bl	line_init
 641              	.LVL55:
 270:..\lvgl\lv_draw/lv_draw_line.c ****         /* Run for a lot of times. Meanwhile the real width will be determined as well */
 642              		.loc 1 270 0
 643 00e2 0BFB0BFA 		mul	r10, fp, fp
 644              	.LVL56:
 272:..\lvgl\lv_draw/lv_draw_line.c ****             pattern[i].x = pattern_line.p_act.x;
 645              		.loc 1 272 0
 646 00e6 1FE0     		b	.L44
 647              	.LVL57:
 648              	.L47:
 649              	.LBB3:
 273:..\lvgl\lv_draw/lv_draw_line.c ****             pattern[i].y = pattern_line.p_act.y;
 650              		.loc 1 273 0
 651 00e8 B7F92430 		ldrsh	r3, [r7, #36]
 652 00ec 24F82830 		strh	r3, [r4, r8, lsl #2]	@ movhi
 274:..\lvgl\lv_draw/lv_draw_line.c **** 
 653              		.loc 1 274 0
 654 00f0 B7F92620 		ldrsh	r2, [r7, #38]
 655 00f4 04EB8803 		add	r3, r4, r8, lsl #2
 656 00f8 5A80     		strh	r2, [r3, #2]	@ movhi
 277:..\lvgl\lv_draw/lv_draw_line.c ****             if(sqr >= width_sqr) {
 657              		.loc 1 277 0
 658 00fa B7F92430 		ldrsh	r3, [r7, #36]
 659 00fe B7F92620 		ldrsh	r2, [r7, #38]
 660 0102 02FB02F2 		mul	r2, r2, r2
 661 0106 03FB0323 		mla	r3, r3, r3, r2
 662              	.LVL58:
 278:..\lvgl\lv_draw/lv_draw_line.c ****                 width = i;
 663              		.loc 1 278 0
 664 010a 9A45     		cmp	r10, r3
 665 010c 04D8     		bhi	.L45
 666              	.LVL59:
 281:..\lvgl\lv_draw/lv_draw_line.c **** #endif
 667              		.loc 1 281 0
 668 010e 08F1FF38 		add	r8, r8, #-1
 669              	.LVL60:
 670 0112 0FFA88FB 		sxth	fp, r8
 671              	.LVL61:
 283:..\lvgl\lv_draw/lv_draw_line.c ****             }
ARM GAS  C:\Users\d3bug\AppData\Local\Temp\ccg1LD4z.s 			page 24


 672              		.loc 1 283 0
 673 0116 0CE0     		b	.L43
 674              	.LVL62:
 675              	.L45:
 286:..\lvgl\lv_draw/lv_draw_line.c ****         }
 676              		.loc 1 286 0 discriminator 2
 677 0118 07F11C00 		add	r0, r7, #28
 678 011c FFF7FEFF 		bl	line_next
 679              	.LVL63:
 680              	.LBE3:
 272:..\lvgl\lv_draw/lv_draw_line.c ****             pattern[i].x = pattern_line.p_act.x;
 681              		.loc 1 272 0 discriminator 2
 682 0120 08F10108 		add	r8, r8, #1
 683              	.LVL64:
 684 0124 0FFA88F8 		sxth	r8, r8
 685              	.LVL65:
 686              	.L44:
 272:..\lvgl\lv_draw/lv_draw_line.c ****             pattern[i].x = pattern_line.p_act.x;
 687              		.loc 1 272 0 is_stmt 0 discriminator 1
 688 0128 4FEA8903 		lsl	r3, r9, #2
 689 012c 1BB2     		sxth	r3, r3
 690 012e 9845     		cmp	r8, r3
 691 0130 DADB     		blt	.L47
 692              	.LVL66:
 693              	.L43:
 694              	.LBE2:
 292:..\lvgl\lv_draw/lv_draw_line.c **** 
 695              		.loc 1 292 0 is_stmt 1
 696 0132 BBF1000F 		cmp	fp, #0
 697 0136 02D0     		beq	.L81
 291:..\lvgl\lv_draw/lv_draw_line.c ****     if(width == 0) width_safe = 1;
 698              		.loc 1 291 0
 699 0138 C7F80CB0 		str	fp, [r7, #12]
 700 013c 01E0     		b	.L48
 701              	.L81:
 292:..\lvgl\lv_draw/lv_draw_line.c **** 
 702              		.loc 1 292 0
 703 013e 0123     		movs	r3, #1
 704 0140 FB60     		str	r3, [r7, #12]
 705              	.L48:
 706              	.LVL67:
 301:..\lvgl\lv_draw/lv_draw_line.c ****         x_center_ofs = pattern[width - 1].x / 2;
 707              		.loc 1 301 0
 708 0142 BBF1000F 		cmp	fp, #0
 709 0146 10D0     		beq	.L49
 302:..\lvgl\lv_draw/lv_draw_line.c ****         y_center_ofs = pattern[width - 1].y / 2;
 710              		.loc 1 302 0
 711 0148 0BF1FF33 		add	r3, fp, #-1
 712 014c 34F92320 		ldrsh	r2, [r4, r3, lsl #2]
 713 0150 02EBD272 		add	r2, r2, r2, lsr #31
 714 0154 5210     		asrs	r2, r2, #1
 715 0156 BA60     		str	r2, [r7, #8]
 716              	.LVL68:
 303:..\lvgl\lv_draw/lv_draw_line.c ****     }
 717              		.loc 1 303 0
 718 0158 04EB8303 		add	r3, r4, r3, lsl #2
 719 015c B3F90230 		ldrsh	r3, [r3, #2]
ARM GAS  C:\Users\d3bug\AppData\Local\Temp\ccg1LD4z.s 			page 25


 720 0160 03EBD373 		add	r3, r3, r3, lsr #31
 721 0164 5B10     		asrs	r3, r3, #1
 722 0166 7B60     		str	r3, [r7, #4]
 723              	.LVL69:
 724 0168 26E0     		b	.L50
 725              	.LVL70:
 726              	.L49:
 306:..\lvgl\lv_draw/lv_draw_line.c ****         if(!main_line->hor && main_line->p1.x >= main_line->p2.x + dir_ori) pattern[0].x --;
 727              		.loc 1 306 0
 728 016a 2B7E     		ldrb	r3, [r5, #24]	@ zero_extendqisi2
 729 016c 5BB1     		cbz	r3, .L51
 306:..\lvgl\lv_draw/lv_draw_line.c ****         if(!main_line->hor && main_line->p1.x >= main_line->p2.x + dir_ori) pattern[0].x --;
 730              		.loc 1 306 0 is_stmt 0 discriminator 1
 731 016e B5F90220 		ldrsh	r2, [r5, #2]
 732 0172 B5F90630 		ldrsh	r3, [r5, #6]
 733 0176 B968     		ldr	r1, [r7, #8]
 734 0178 0B44     		add	r3, r3, r1
 735 017a 9A42     		cmp	r2, r3
 736 017c 03DB     		blt	.L51
 306:..\lvgl\lv_draw/lv_draw_line.c ****         if(!main_line->hor && main_line->p1.x >= main_line->p2.x + dir_ori) pattern[0].x --;
 737              		.loc 1 306 0 discriminator 2
 738 017e B4F90230 		ldrsh	r3, [r4, #2]
 739 0182 013B     		subs	r3, r3, #1
 740 0184 6380     		strh	r3, [r4, #2]	@ movhi
 741              	.L51:
 307:..\lvgl\lv_draw/lv_draw_line.c ****     }
 742              		.loc 1 307 0 is_stmt 1
 743 0186 2B7E     		ldrb	r3, [r5, #24]	@ zero_extendqisi2
 744 0188 7BB9     		cbnz	r3, .L82
 307:..\lvgl\lv_draw/lv_draw_line.c ****     }
 745              		.loc 1 307 0 is_stmt 0 discriminator 1
 746 018a B5F90030 		ldrsh	r3, [r5]
 747 018e B5F90420 		ldrsh	r2, [r5, #4]
 748 0192 B968     		ldr	r1, [r7, #8]
 749 0194 0A44     		add	r2, r2, r1
 750 0196 9342     		cmp	r3, r2
 751 0198 0BDB     		blt	.L83
 307:..\lvgl\lv_draw/lv_draw_line.c ****     }
 752              		.loc 1 307 0 discriminator 2
 753 019a B4F90030 		ldrsh	r3, [r4]
 754 019e 013B     		subs	r3, r3, #1
 755 01a0 2380     		strh	r3, [r4]	@ movhi
 299:..\lvgl\lv_draw/lv_draw_line.c **** 
 756              		.loc 1 299 0 is_stmt 1 discriminator 2
 757 01a2 0023     		movs	r3, #0
 758 01a4 7B60     		str	r3, [r7, #4]
 298:..\lvgl\lv_draw/lv_draw_line.c ****     lv_coord_t y_center_ofs = 0;
 759              		.loc 1 298 0 discriminator 2
 760 01a6 BB60     		str	r3, [r7, #8]
 761 01a8 06E0     		b	.L50
 762              	.L82:
 299:..\lvgl\lv_draw/lv_draw_line.c **** 
 763              		.loc 1 299 0
 764 01aa 0023     		movs	r3, #0
 765 01ac 7B60     		str	r3, [r7, #4]
 298:..\lvgl\lv_draw/lv_draw_line.c ****     lv_coord_t y_center_ofs = 0;
 766              		.loc 1 298 0
ARM GAS  C:\Users\d3bug\AppData\Local\Temp\ccg1LD4z.s 			page 26


 767 01ae BB60     		str	r3, [r7, #8]
 768 01b0 02E0     		b	.L50
 769              	.L83:
 299:..\lvgl\lv_draw/lv_draw_line.c **** 
 770              		.loc 1 299 0
 771 01b2 0023     		movs	r3, #0
 772 01b4 7B60     		str	r3, [r7, #4]
 298:..\lvgl\lv_draw/lv_draw_line.c ****     lv_coord_t y_center_ofs = 0;
 773              		.loc 1 298 0
 774 01b6 BB60     		str	r3, [r7, #8]
 775              	.LVL71:
 776              	.L50:
 295:..\lvgl\lv_draw/lv_draw_line.c **** #endif
 777              		.loc 1 295 0
 778 01b8 4FF0000A 		mov	r10, #0
 779 01bc 2346     		mov	r3, r4
 780 01be 5446     		mov	r4, r10
 781              	.LVL72:
 782 01c0 9846     		mov	r8, r3
 311:..\lvgl\lv_draw/lv_draw_line.c ****         pattern[i].x -= x_center_ofs;
 783              		.loc 1 311 0
 784 01c2 12E1     		b	.L52
 785              	.LVL73:
 786              	.L57:
 312:..\lvgl\lv_draw/lv_draw_line.c ****         pattern[i].y -= y_center_ofs;
 787              		.loc 1 312 0
 788 01c4 38F82430 		ldrh	r3, [r8, r4, lsl #2]
 789 01c8 B968     		ldr	r1, [r7, #8]
 790 01ca 5B1A     		subs	r3, r3, r1
 791 01cc 28F82430 		strh	r3, [r8, r4, lsl #2]	@ movhi
 313:..\lvgl\lv_draw/lv_draw_line.c **** #if LV_ANTIALIAS
 792              		.loc 1 313 0
 793 01d0 08EB8403 		add	r3, r8, r4, lsl #2
 794 01d4 B3F80290 		ldrh	r9, [r3, #2]
 795 01d8 7968     		ldr	r1, [r7, #4]
 796 01da C1EB0909 		rsb	r9, r1, r9
 797 01de 1FFA89F9 		uxth	r9, r9
 798 01e2 0FFA89F1 		sxth	r1, r9
 799 01e6 5980     		strh	r1, [r3, #2]	@ movhi
 315:..\lvgl\lv_draw/lv_draw_line.c ****             if(main_line->hor) {
 800              		.loc 1 315 0
 801 01e8 002C     		cmp	r4, #0
 802 01ea 00F0FC80 		beq	.L53
 316:..\lvgl\lv_draw/lv_draw_line.c ****                 if(pattern[i - 1].x != pattern[i].x) {
 803              		.loc 1 316 0
 804 01ee 2B7E     		ldrb	r3, [r5, #24]	@ zero_extendqisi2
 805 01f0 002B     		cmp	r3, #0
 806 01f2 7AD0     		beq	.L54
 317:..\lvgl\lv_draw/lv_draw_line.c ****                     lv_coord_t seg_w = pattern[i].y - pattern[aa_last_corner].y;
 807              		.loc 1 317 0
 808 01f4 631E     		subs	r3, r4, #1
 809 01f6 38F92310 		ldrsh	r1, [r8, r3, lsl #2]
 810 01fa 38F92430 		ldrsh	r3, [r8, r4, lsl #2]
 811 01fe 9942     		cmp	r1, r3
 812 0200 00F0F180 		beq	.L53
 813              	.LBB4:
 318:..\lvgl\lv_draw/lv_draw_line.c ****                     if(main_line->sy < 0) {
ARM GAS  C:\Users\d3bug\AppData\Local\Temp\ccg1LD4z.s 			page 27


 814              		.loc 1 318 0
 815 0204 08EB8A03 		add	r3, r8, r10, lsl #2
 816 0208 5988     		ldrh	r1, [r3, #2]
 817 020a C1EB0909 		rsb	r9, r1, r9
 818 020e 1FFA89F9 		uxth	r9, r9
 819 0212 0FFA89F2 		sxth	r2, r9
 820              	.LVL74:
 319:..\lvgl\lv_draw/lv_draw_line.c ****                         lv_draw_aa_ver_seg(main_line->p1.x + pattern[aa_last_corner].x - 1, main_li
 821              		.loc 1 319 0
 822 0216 B5F91230 		ldrsh	r3, [r5, #18]
 823 021a 002B     		cmp	r3, #0
 824 021c 34DA     		bge	.L55
 320:..\lvgl\lv_draw/lv_draw_line.c ****                                 seg_w, mask, style->line.color, opa);
 825              		.loc 1 320 0
 826 021e B5F90000 		ldrsh	r0, [r5]
 827 0222 38F92A30 		ldrsh	r3, [r8, r10, lsl #2]
 828 0226 B5F902E0 		ldrsh	lr, [r5, #2]
 829 022a 7144     		add	r1, r1, lr
 830 022c 4944     		add	r1, r1, r9
 831 022e 0131     		adds	r1, r1, #1
 832 0230 1844     		add	r0, r0, r3
 833 0232 0138     		subs	r0, r0, #1
 834 0234 7B69     		ldr	r3, [r7, #20]
 835 0236 0193     		str	r3, [sp, #4]
 836 0238 96F83030 		ldrb	r3, [r6, #48]	@ zero_extendqisi2
 837 023c 8DF80030 		strb	r3, [sp]
 838 0240 3B69     		ldr	r3, [r7, #16]
 839 0242 09B2     		sxth	r1, r1
 840 0244 00B2     		sxth	r0, r0
 841 0246 FFF7FEFF 		bl	lv_draw_aa_ver_seg
 842              	.LVL75:
 323:..\lvgl\lv_draw/lv_draw_line.c ****                                 -seg_w, mask, style->line.color, opa);
 843              		.loc 1 323 0
 844 024a B5F90400 		ldrsh	r0, [r5, #4]
 845 024e 38F92A30 		ldrsh	r3, [r8, r10, lsl #2]
 846 0252 B5F906E0 		ldrsh	lr, [r5, #6]
 847 0256 08EB8A0A 		add	r10, r8, r10, lsl #2
 848              	.LVL76:
 849 025a BAF90210 		ldrsh	r1, [r10, #2]
 850 025e C9F10002 		rsb	r2, r9, #0
 851 0262 7144     		add	r1, r1, lr
 852 0264 4944     		add	r1, r1, r9
 853 0266 0131     		adds	r1, r1, #1
 854 0268 1844     		add	r0, r0, r3
 855 026a 0130     		adds	r0, r0, #1
 856 026c 7B69     		ldr	r3, [r7, #20]
 857 026e 0193     		str	r3, [sp, #4]
 858 0270 96F83030 		ldrb	r3, [r6, #48]	@ zero_extendqisi2
 859 0274 8DF80030 		strb	r3, [sp]
 860 0278 3B69     		ldr	r3, [r7, #16]
 861 027a 12B2     		sxth	r2, r2
 862 027c 09B2     		sxth	r1, r1
 863 027e 00B2     		sxth	r0, r0
 864 0280 FFF7FEFF 		bl	lv_draw_aa_ver_seg
 865              	.LVL77:
 332:..\lvgl\lv_draw/lv_draw_line.c ****                 }
 866              		.loc 1 332 0
ARM GAS  C:\Users\d3bug\AppData\Local\Temp\ccg1LD4z.s 			page 28


 867 0284 A246     		mov	r10, r4
 868 0286 AEE0     		b	.L53
 869              	.LVL78:
 870              	.L55:
 326:..\lvgl\lv_draw/lv_draw_line.c ****                                 seg_w, mask, style->line.color, opa);
 871              		.loc 1 326 0
 872 0288 B5F90000 		ldrsh	r0, [r5]
 873 028c 38F92A30 		ldrsh	r3, [r8, r10, lsl #2]
 874 0290 B5F902E0 		ldrsh	lr, [r5, #2]
 875 0294 7144     		add	r1, r1, lr
 876 0296 1844     		add	r0, r0, r3
 877 0298 0138     		subs	r0, r0, #1
 878 029a 7B69     		ldr	r3, [r7, #20]
 879 029c 0193     		str	r3, [sp, #4]
 880 029e 96F83030 		ldrb	r3, [r6, #48]	@ zero_extendqisi2
 881 02a2 8DF80030 		strb	r3, [sp]
 882 02a6 3B69     		ldr	r3, [r7, #16]
 883 02a8 09B2     		sxth	r1, r1
 884 02aa 00B2     		sxth	r0, r0
 885 02ac FFF7FEFF 		bl	lv_draw_aa_ver_seg
 886              	.LVL79:
 329:..\lvgl\lv_draw/lv_draw_line.c ****                                 -seg_w, mask, style->line.color, opa);
 887              		.loc 1 329 0
 888 02b0 B5F90400 		ldrsh	r0, [r5, #4]
 889 02b4 38F92A30 		ldrsh	r3, [r8, r10, lsl #2]
 890 02b8 B5F906E0 		ldrsh	lr, [r5, #6]
 891 02bc 08EB8A0A 		add	r10, r8, r10, lsl #2
 892              	.LVL80:
 893 02c0 BAF90210 		ldrsh	r1, [r10, #2]
 894 02c4 C9F10002 		rsb	r2, r9, #0
 895 02c8 7144     		add	r1, r1, lr
 896 02ca 1844     		add	r0, r0, r3
 897 02cc 0130     		adds	r0, r0, #1
 898 02ce 7B69     		ldr	r3, [r7, #20]
 899 02d0 0193     		str	r3, [sp, #4]
 900 02d2 96F83030 		ldrb	r3, [r6, #48]	@ zero_extendqisi2
 901 02d6 8DF80030 		strb	r3, [sp]
 902 02da 3B69     		ldr	r3, [r7, #16]
 903 02dc 12B2     		sxth	r2, r2
 904 02de 09B2     		sxth	r1, r1
 905 02e0 00B2     		sxth	r0, r0
 906 02e2 FFF7FEFF 		bl	lv_draw_aa_ver_seg
 907              	.LVL81:
 332:..\lvgl\lv_draw/lv_draw_line.c ****                 }
 908              		.loc 1 332 0
 909 02e6 A246     		mov	r10, r4
 910 02e8 7DE0     		b	.L53
 911              	.LVL82:
 912              	.L54:
 913              	.LBE4:
 335:..\lvgl\lv_draw/lv_draw_line.c ****                     lv_coord_t seg_w = pattern[i].x - pattern[aa_last_corner].x;
 914              		.loc 1 335 0
 915 02ea 631E     		subs	r3, r4, #1
 916 02ec 08EB8303 		add	r3, r8, r3, lsl #2
 917 02f0 B3F90230 		ldrsh	r3, [r3, #2]
 918 02f4 9942     		cmp	r1, r3
 919 02f6 76D0     		beq	.L53
ARM GAS  C:\Users\d3bug\AppData\Local\Temp\ccg1LD4z.s 			page 29


 920              	.LBB5:
 336:..\lvgl\lv_draw/lv_draw_line.c ****                     if(main_line->sx < 0) {
 921              		.loc 1 336 0
 922 02f8 38F92490 		ldrsh	r9, [r8, r4, lsl #2]
 923 02fc 38F82A00 		ldrh	r0, [r8, r10, lsl #2]
 924 0300 C0EB0909 		rsb	r9, r0, r9
 925 0304 1FFA89F9 		uxth	r9, r9
 926 0308 0FFA89F2 		sxth	r2, r9
 927              	.LVL83:
 337:..\lvgl\lv_draw/lv_draw_line.c ****                         lv_draw_aa_hor_seg(main_line->p1.x + pattern[aa_last_corner].x + seg_w + 1,
 928              		.loc 1 337 0
 929 030c B5F90E30 		ldrsh	r3, [r5, #14]
 930 0310 002B     		cmp	r3, #0
 931 0312 36DA     		bge	.L56
 338:..\lvgl\lv_draw/lv_draw_line.c ****                                 seg_w, mask, style->line.color, opa);
 932              		.loc 1 338 0
 933 0314 B5F90030 		ldrsh	r3, [r5]
 934 0318 B5F902E0 		ldrsh	lr, [r5, #2]
 935 031c 08EB8A01 		add	r1, r8, r10, lsl #2
 936 0320 3960     		str	r1, [r7]
 937 0322 B1F90210 		ldrsh	r1, [r1, #2]
 938 0326 7144     		add	r1, r1, lr
 939 0328 0139     		subs	r1, r1, #1
 940 032a 1844     		add	r0, r0, r3
 941 032c 4844     		add	r0, r0, r9
 942 032e 0130     		adds	r0, r0, #1
 943 0330 7B69     		ldr	r3, [r7, #20]
 944 0332 0193     		str	r3, [sp, #4]
 945 0334 96F83030 		ldrb	r3, [r6, #48]	@ zero_extendqisi2
 946 0338 8DF80030 		strb	r3, [sp]
 947 033c 3B69     		ldr	r3, [r7, #16]
 948 033e 09B2     		sxth	r1, r1
 949 0340 00B2     		sxth	r0, r0
 950 0342 FFF7FEFF 		bl	lv_draw_aa_hor_seg
 951              	.LVL84:
 341:..\lvgl\lv_draw/lv_draw_line.c ****                                 -seg_w, mask, style->line.color, opa);
 952              		.loc 1 341 0
 953 0346 B5F90400 		ldrsh	r0, [r5, #4]
 954 034a 38F92A30 		ldrsh	r3, [r8, r10, lsl #2]
 955 034e B5F906E0 		ldrsh	lr, [r5, #6]
 956 0352 3968     		ldr	r1, [r7]
 957 0354 B1F90210 		ldrsh	r1, [r1, #2]
 958 0358 C9F10002 		rsb	r2, r9, #0
 959 035c 7144     		add	r1, r1, lr
 960 035e 0131     		adds	r1, r1, #1
 961 0360 1844     		add	r0, r0, r3
 962 0362 4844     		add	r0, r0, r9
 963 0364 0130     		adds	r0, r0, #1
 964 0366 7B69     		ldr	r3, [r7, #20]
 965 0368 0193     		str	r3, [sp, #4]
 966 036a 96F83030 		ldrb	r3, [r6, #48]	@ zero_extendqisi2
 967 036e 8DF80030 		strb	r3, [sp]
 968 0372 3B69     		ldr	r3, [r7, #16]
 969 0374 12B2     		sxth	r2, r2
 970 0376 09B2     		sxth	r1, r1
 971 0378 00B2     		sxth	r0, r0
 972 037a FFF7FEFF 		bl	lv_draw_aa_hor_seg
ARM GAS  C:\Users\d3bug\AppData\Local\Temp\ccg1LD4z.s 			page 30


 973              	.LVL85:
 350:..\lvgl\lv_draw/lv_draw_line.c ****                 }
 974              		.loc 1 350 0
 975 037e A246     		mov	r10, r4
 976              	.LVL86:
 977 0380 31E0     		b	.L53
 978              	.LVL87:
 979              	.L56:
 344:..\lvgl\lv_draw/lv_draw_line.c ****                                 seg_w, mask, style->line.color, opa);
 980              		.loc 1 344 0
 981 0382 B5F900E0 		ldrsh	lr, [r5]
 982 0386 B5F90210 		ldrsh	r1, [r5, #2]
 983 038a 08EB8A03 		add	r3, r8, r10, lsl #2
 984 038e 3B60     		str	r3, [r7]
 985 0390 B3F90230 		ldrsh	r3, [r3, #2]
 986 0394 1944     		add	r1, r1, r3
 987 0396 0139     		subs	r1, r1, #1
 988 0398 7044     		add	r0, r0, lr
 989 039a 7B69     		ldr	r3, [r7, #20]
 990 039c 0193     		str	r3, [sp, #4]
 991 039e 96F83030 		ldrb	r3, [r6, #48]	@ zero_extendqisi2
 992 03a2 8DF80030 		strb	r3, [sp]
 993 03a6 3B69     		ldr	r3, [r7, #16]
 994 03a8 09B2     		sxth	r1, r1
 995 03aa 00B2     		sxth	r0, r0
 996 03ac FFF7FEFF 		bl	lv_draw_aa_hor_seg
 997              	.LVL88:
 347:..\lvgl\lv_draw/lv_draw_line.c ****                                 -seg_w, mask, style->line.color, opa);
 998              		.loc 1 347 0
 999 03b0 B5F904E0 		ldrsh	lr, [r5, #4]
 1000 03b4 38F92A00 		ldrsh	r0, [r8, r10, lsl #2]
 1001 03b8 B5F90610 		ldrsh	r1, [r5, #6]
 1002 03bc 3A68     		ldr	r2, [r7]
 1003 03be B2F90230 		ldrsh	r3, [r2, #2]
 1004 03c2 C9F10002 		rsb	r2, r9, #0
 1005 03c6 1944     		add	r1, r1, r3
 1006 03c8 0131     		adds	r1, r1, #1
 1007 03ca 7044     		add	r0, r0, lr
 1008 03cc 7B69     		ldr	r3, [r7, #20]
 1009 03ce 0193     		str	r3, [sp, #4]
 1010 03d0 96F83030 		ldrb	r3, [r6, #48]	@ zero_extendqisi2
 1011 03d4 8DF80030 		strb	r3, [sp]
 1012 03d8 3B69     		ldr	r3, [r7, #16]
 1013 03da 12B2     		sxth	r2, r2
 1014 03dc 09B2     		sxth	r1, r1
 1015 03de 00B2     		sxth	r0, r0
 1016 03e0 FFF7FEFF 		bl	lv_draw_aa_hor_seg
 1017              	.LVL89:
 350:..\lvgl\lv_draw/lv_draw_line.c ****                 }
 1018              		.loc 1 350 0
 1019 03e4 A246     		mov	r10, r4
 1020              	.LVL90:
 1021              	.L53:
 1022              	.LBE5:
 311:..\lvgl\lv_draw/lv_draw_line.c ****         pattern[i].x -= x_center_ofs;
 1023              		.loc 1 311 0 discriminator 2
 1024 03e6 0134     		adds	r4, r4, #1
ARM GAS  C:\Users\d3bug\AppData\Local\Temp\ccg1LD4z.s 			page 31


 1025              	.LVL91:
 1026 03e8 24B2     		sxth	r4, r4
 1027              	.LVL92:
 1028              	.L52:
 311:..\lvgl\lv_draw/lv_draw_line.c ****         pattern[i].x -= x_center_ofs;
 1029              		.loc 1 311 0 is_stmt 0 discriminator 1
 1030 03ea A345     		cmp	fp, r4
 1031 03ec 3FF7EAAE 		bgt	.L57
 1032 03f0 4446     		mov	r4, r8
 1033              	.LVL93:
 362:..\lvgl\lv_draw/lv_draw_line.c ****         if(main_line->hor) {
 1034              		.loc 1 362 0 is_stmt 1
 1035 03f2 BBF1000F 		cmp	fp, #0
 1036 03f6 00F0FD80 		beq	.L58
 1037              	.LVL94:
 363:..\lvgl\lv_draw/lv_draw_line.c ****             lv_coord_t seg_w = pattern[width_safe - 1].y - pattern[aa_last_corner].y;
 1038              		.loc 1 363 0
 1039 03fa 2B7E     		ldrb	r3, [r5, #24]	@ zero_extendqisi2
 1040 03fc 002B     		cmp	r3, #0
 1041 03fe 00F08180 		beq	.L59
 1042              	.LBB6:
 364:..\lvgl\lv_draw/lv_draw_line.c ****             if(main_line->sy < 0) {
 1043              		.loc 1 364 0
 1044 0402 FB68     		ldr	r3, [r7, #12]
 1045 0404 013B     		subs	r3, r3, #1
 1046 0406 08EB8303 		add	r3, r8, r3, lsl #2
 1047 040a B3F90280 		ldrsh	r8, [r3, #2]
 1048 040e 04EB8A03 		add	r3, r4, r10, lsl #2
 1049 0412 5988     		ldrh	r1, [r3, #2]
 1050 0414 C1EB0808 		rsb	r8, r1, r8
 1051 0418 1FFA88F8 		uxth	r8, r8
 1052              	.LVL95:
 365:..\lvgl\lv_draw/lv_draw_line.c ****                 lv_draw_aa_ver_seg(main_line->p1.x + pattern[aa_last_corner].x - 1, main_line->p1.y
 1053              		.loc 1 365 0
 1054 041c B5F91230 		ldrsh	r3, [r5, #18]
 1055 0420 002B     		cmp	r3, #0
 1056 0422 38DA     		bge	.L60
 366:..\lvgl\lv_draw/lv_draw_line.c ****                         seg_w + main_line->sy, mask, style->line.color, opa);
 1057              		.loc 1 366 0
 1058 0424 B5F900E0 		ldrsh	lr, [r5]
 1059 0428 34F92A00 		ldrsh	r0, [r4, r10, lsl #2]
 1060 042c B5F902C0 		ldrsh	ip, [r5, #2]
 1061 0430 08EB0302 		add	r2, r8, r3
 1062 0434 6144     		add	r1, r1, ip
 1063 0436 4144     		add	r1, r1, r8
 1064 0438 7044     		add	r0, r0, lr
 1065 043a 0138     		subs	r0, r0, #1
 1066 043c 7B69     		ldr	r3, [r7, #20]
 1067 043e 0193     		str	r3, [sp, #4]
 1068 0440 96F83030 		ldrb	r3, [r6, #48]	@ zero_extendqisi2
 1069 0444 8DF80030 		strb	r3, [sp]
 1070 0448 D7F81090 		ldr	r9, [r7, #16]
 1071 044c 4B46     		mov	r3, r9
 1072 044e 12B2     		sxth	r2, r2
 1073 0450 09B2     		sxth	r1, r1
 1074 0452 00B2     		sxth	r0, r0
 1075 0454 FFF7FEFF 		bl	lv_draw_aa_ver_seg
ARM GAS  C:\Users\d3bug\AppData\Local\Temp\ccg1LD4z.s 			page 32


 1076              	.LVL96:
 369:..\lvgl\lv_draw/lv_draw_line.c ****                         -(seg_w + main_line->sy), mask, style->line.color, opa);
 1077              		.loc 1 369 0
 1078 0458 B5F90400 		ldrsh	r0, [r5, #4]
 1079 045c 34F92A30 		ldrsh	r3, [r4, r10, lsl #2]
 1080 0460 B5F906E0 		ldrsh	lr, [r5, #6]
 1081 0464 04EB8A02 		add	r2, r4, r10, lsl #2
 1082 0468 B2F90210 		ldrsh	r1, [r2, #2]
 370:..\lvgl\lv_draw/lv_draw_line.c **** 
 1083              		.loc 1 370 0
 1084 046c B5F91220 		ldrsh	r2, [r5, #18]
 369:..\lvgl\lv_draw/lv_draw_line.c ****                         -(seg_w + main_line->sy), mask, style->line.color, opa);
 1085              		.loc 1 369 0
 1086 0470 4244     		add	r2, r2, r8
 1087 0472 5242     		negs	r2, r2
 1088 0474 7144     		add	r1, r1, lr
 1089 0476 4144     		add	r1, r1, r8
 1090 0478 1844     		add	r0, r0, r3
 1091 047a 0130     		adds	r0, r0, #1
 1092 047c 7B69     		ldr	r3, [r7, #20]
 1093 047e 0193     		str	r3, [sp, #4]
 1094 0480 96F83030 		ldrb	r3, [r6, #48]	@ zero_extendqisi2
 1095 0484 8DF80030 		strb	r3, [sp]
 1096 0488 4B46     		mov	r3, r9
 1097 048a 12B2     		sxth	r2, r2
 1098 048c 09B2     		sxth	r1, r1
 1099 048e 00B2     		sxth	r0, r0
 1100 0490 FFF7FEFF 		bl	lv_draw_aa_ver_seg
 1101              	.LVL97:
 1102 0494 AEE0     		b	.L58
 1103              	.L60:
 373:..\lvgl\lv_draw/lv_draw_line.c ****                         seg_w + main_line->sy, mask, style->line.color, opa);
 1104              		.loc 1 373 0
 1105 0496 B5F900E0 		ldrsh	lr, [r5]
 1106 049a 34F92A00 		ldrsh	r0, [r4, r10, lsl #2]
 1107 049e B5F902C0 		ldrsh	ip, [r5, #2]
 1108 04a2 08EB0302 		add	r2, r8, r3
 1109 04a6 6144     		add	r1, r1, ip
 1110 04a8 7044     		add	r0, r0, lr
 1111 04aa 0138     		subs	r0, r0, #1
 1112 04ac 7B69     		ldr	r3, [r7, #20]
 1113 04ae 0193     		str	r3, [sp, #4]
 1114 04b0 96F83030 		ldrb	r3, [r6, #48]	@ zero_extendqisi2
 1115 04b4 8DF80030 		strb	r3, [sp]
 1116 04b8 D7F81090 		ldr	r9, [r7, #16]
 1117 04bc 4B46     		mov	r3, r9
 1118 04be 12B2     		sxth	r2, r2
 1119 04c0 09B2     		sxth	r1, r1
 1120 04c2 00B2     		sxth	r0, r0
 1121 04c4 FFF7FEFF 		bl	lv_draw_aa_ver_seg
 1122              	.LVL98:
 376:..\lvgl\lv_draw/lv_draw_line.c ****                         -(seg_w + main_line->sy), mask, style->line.color, opa);
 1123              		.loc 1 376 0
 1124 04c8 B5F90400 		ldrsh	r0, [r5, #4]
 1125 04cc 34F92A30 		ldrsh	r3, [r4, r10, lsl #2]
 1126 04d0 B5F906E0 		ldrsh	lr, [r5, #6]
 1127 04d4 04EB8A02 		add	r2, r4, r10, lsl #2
ARM GAS  C:\Users\d3bug\AppData\Local\Temp\ccg1LD4z.s 			page 33


 1128 04d8 B2F90210 		ldrsh	r1, [r2, #2]
 377:..\lvgl\lv_draw/lv_draw_line.c ****             }
 1129              		.loc 1 377 0
 1130 04dc B5F91220 		ldrsh	r2, [r5, #18]
 376:..\lvgl\lv_draw/lv_draw_line.c ****                         -(seg_w + main_line->sy), mask, style->line.color, opa);
 1131              		.loc 1 376 0
 1132 04e0 4244     		add	r2, r2, r8
 1133 04e2 5242     		negs	r2, r2
 1134 04e4 7144     		add	r1, r1, lr
 1135 04e6 1844     		add	r0, r0, r3
 1136 04e8 0130     		adds	r0, r0, #1
 1137 04ea 7B69     		ldr	r3, [r7, #20]
 1138 04ec 0193     		str	r3, [sp, #4]
 1139 04ee 96F83030 		ldrb	r3, [r6, #48]	@ zero_extendqisi2
 1140 04f2 8DF80030 		strb	r3, [sp]
 1141 04f6 4B46     		mov	r3, r9
 1142 04f8 12B2     		sxth	r2, r2
 1143 04fa 09B2     		sxth	r1, r1
 1144 04fc 00B2     		sxth	r0, r0
 1145 04fe FFF7FEFF 		bl	lv_draw_aa_ver_seg
 1146              	.LVL99:
 1147 0502 77E0     		b	.L58
 1148              	.LVL100:
 1149              	.L59:
 1150              	.LBE6:
 1151              	.LBB7:
 380:..\lvgl\lv_draw/lv_draw_line.c ****             if(main_line->sx < 0) {
 1152              		.loc 1 380 0
 1153 0504 FB68     		ldr	r3, [r7, #12]
 1154 0506 013B     		subs	r3, r3, #1
 1155 0508 38F92390 		ldrsh	r9, [r8, r3, lsl #2]
 1156 050c 38F82A30 		ldrh	r3, [r8, r10, lsl #2]
 1157 0510 C3EB0909 		rsb	r9, r3, r9
 1158 0514 1FFA89F9 		uxth	r9, r9
 1159              	.LVL101:
 381:..\lvgl\lv_draw/lv_draw_line.c ****                 lv_draw_aa_hor_seg(main_line->p1.x + pattern[aa_last_corner].x + seg_w, main_line->
 1160              		.loc 1 381 0
 1161 0518 B5F90E20 		ldrsh	r2, [r5, #14]
 1162 051c 002A     		cmp	r2, #0
 1163 051e 36DA     		bge	.L61
 382:..\lvgl\lv_draw/lv_draw_line.c ****                         seg_w + main_line->sx, mask, style->line.color, opa);
 1164              		.loc 1 382 0
 1165 0520 B5F90000 		ldrsh	r0, [r5]
 1166 0524 B5F902E0 		ldrsh	lr, [r5, #2]
 1167 0528 08EB8A08 		add	r8, r8, r10, lsl #2
 1168 052c B8F90210 		ldrsh	r1, [r8, #2]
 1169 0530 4A44     		add	r2, r2, r9
 1170 0532 7144     		add	r1, r1, lr
 1171 0534 0139     		subs	r1, r1, #1
 1172 0536 0344     		add	r3, r3, r0
 1173 0538 09EB0300 		add	r0, r9, r3
 1174 053c 7B69     		ldr	r3, [r7, #20]
 1175 053e 0193     		str	r3, [sp, #4]
 1176 0540 96F83030 		ldrb	r3, [r6, #48]	@ zero_extendqisi2
 1177 0544 8DF80030 		strb	r3, [sp]
 1178 0548 3B69     		ldr	r3, [r7, #16]
 1179 054a 12B2     		sxth	r2, r2
ARM GAS  C:\Users\d3bug\AppData\Local\Temp\ccg1LD4z.s 			page 34


 1180 054c 09B2     		sxth	r1, r1
 1181 054e 00B2     		sxth	r0, r0
 1182 0550 FFF7FEFF 		bl	lv_draw_aa_hor_seg
 1183              	.LVL102:
 385:..\lvgl\lv_draw/lv_draw_line.c ****                         -(seg_w + main_line->sx), mask, style->line.color, opa);
 1184              		.loc 1 385 0
 1185 0554 B5F90400 		ldrsh	r0, [r5, #4]
 1186 0558 34F92A30 		ldrsh	r3, [r4, r10, lsl #2]
 1187 055c B5F906E0 		ldrsh	lr, [r5, #6]
 1188 0560 B8F90210 		ldrsh	r1, [r8, #2]
 386:..\lvgl\lv_draw/lv_draw_line.c **** 
 1189              		.loc 1 386 0
 1190 0564 B5F90E20 		ldrsh	r2, [r5, #14]
 385:..\lvgl\lv_draw/lv_draw_line.c ****                         -(seg_w + main_line->sx), mask, style->line.color, opa);
 1191              		.loc 1 385 0
 1192 0568 4A44     		add	r2, r2, r9
 1193 056a 5242     		negs	r2, r2
 1194 056c 7144     		add	r1, r1, lr
 1195 056e 0131     		adds	r1, r1, #1
 1196 0570 1844     		add	r0, r0, r3
 1197 0572 4844     		add	r0, r0, r9
 1198 0574 7B69     		ldr	r3, [r7, #20]
 1199 0576 0193     		str	r3, [sp, #4]
 1200 0578 96F83030 		ldrb	r3, [r6, #48]	@ zero_extendqisi2
 1201 057c 8DF80030 		strb	r3, [sp]
 1202 0580 3B69     		ldr	r3, [r7, #16]
 1203 0582 12B2     		sxth	r2, r2
 1204 0584 09B2     		sxth	r1, r1
 1205 0586 00B2     		sxth	r0, r0
 1206 0588 FFF7FEFF 		bl	lv_draw_aa_hor_seg
 1207              	.LVL103:
 1208 058c 32E0     		b	.L58
 1209              	.L61:
 389:..\lvgl\lv_draw/lv_draw_line.c ****                         seg_w + main_line->sx, mask, style->line.color, opa);
 1210              		.loc 1 389 0
 1211 058e B5F90000 		ldrsh	r0, [r5]
 1212 0592 B5F902E0 		ldrsh	lr, [r5, #2]
 1213 0596 08EB8A08 		add	r8, r8, r10, lsl #2
 1214 059a B8F90210 		ldrsh	r1, [r8, #2]
 1215 059e 4A44     		add	r2, r2, r9
 1216 05a0 7144     		add	r1, r1, lr
 1217 05a2 0139     		subs	r1, r1, #1
 1218 05a4 1844     		add	r0, r0, r3
 1219 05a6 7B69     		ldr	r3, [r7, #20]
 1220 05a8 0193     		str	r3, [sp, #4]
 1221 05aa 96F83030 		ldrb	r3, [r6, #48]	@ zero_extendqisi2
 1222 05ae 8DF80030 		strb	r3, [sp]
 1223 05b2 3B69     		ldr	r3, [r7, #16]
 1224 05b4 12B2     		sxth	r2, r2
 1225 05b6 09B2     		sxth	r1, r1
 1226 05b8 00B2     		sxth	r0, r0
 1227 05ba FFF7FEFF 		bl	lv_draw_aa_hor_seg
 1228              	.LVL104:
 392:..\lvgl\lv_draw/lv_draw_line.c ****                         -(seg_w + main_line->sx), mask, style->line.color, opa);
 1229              		.loc 1 392 0
 1230 05be B5F904E0 		ldrsh	lr, [r5, #4]
 1231 05c2 34F92A00 		ldrsh	r0, [r4, r10, lsl #2]
ARM GAS  C:\Users\d3bug\AppData\Local\Temp\ccg1LD4z.s 			page 35


 1232 05c6 B5F90610 		ldrsh	r1, [r5, #6]
 1233 05ca B8F90230 		ldrsh	r3, [r8, #2]
 393:..\lvgl\lv_draw/lv_draw_line.c ****             }
 1234              		.loc 1 393 0
 1235 05ce B5F90E20 		ldrsh	r2, [r5, #14]
 392:..\lvgl\lv_draw/lv_draw_line.c ****                         -(seg_w + main_line->sx), mask, style->line.color, opa);
 1236              		.loc 1 392 0
 1237 05d2 4A44     		add	r2, r2, r9
 1238 05d4 5242     		negs	r2, r2
 1239 05d6 1944     		add	r1, r1, r3
 1240 05d8 0131     		adds	r1, r1, #1
 1241 05da 7044     		add	r0, r0, lr
 1242 05dc 7B69     		ldr	r3, [r7, #20]
 1243 05de 0193     		str	r3, [sp, #4]
 1244 05e0 96F83030 		ldrb	r3, [r6, #48]	@ zero_extendqisi2
 1245 05e4 8DF80030 		strb	r3, [sp]
 1246 05e8 3B69     		ldr	r3, [r7, #16]
 1247 05ea 12B2     		sxth	r2, r2
 1248 05ec 09B2     		sxth	r1, r1
 1249 05ee 00B2     		sxth	r0, r0
 1250 05f0 FFF7FEFF 		bl	lv_draw_aa_hor_seg
 1251              	.LVL105:
 1252              	.L58:
 1253              	.LBE7:
 406:..\lvgl\lv_draw/lv_draw_line.c ****         if(main_line->sx < 0) {
 1254              		.loc 1 406 0
 1255 05f4 2B7E     		ldrb	r3, [r5, #24]	@ zero_extendqisi2
 1256 05f6 93B9     		cbnz	r3, .L62
 407:..\lvgl\lv_draw/lv_draw_line.c ****             aa_shift1 = -1;
 1257              		.loc 1 407 0
 1258 05f8 B5F90E20 		ldrsh	r2, [r5, #14]
 1259 05fc 002A     		cmp	r2, #0
 1260 05fe 07DA     		bge	.L63
 1261              	.LVL106:
 409:..\lvgl\lv_draw/lv_draw_line.c ****         } else {
 1262              		.loc 1 409 0
 1263 0600 BBF1000F 		cmp	fp, #0
 1264 0604 1ED0     		beq	.L84
 1265 0606 4FF0FF32 		mov	r2, #-1
 1266 060a 7A60     		str	r2, [r7, #4]
 408:..\lvgl\lv_draw/lv_draw_line.c ****             aa_shift2 = width == 0 ? 0 : aa_shift1;
 1267              		.loc 1 408 0
 1268 060c BA60     		str	r2, [r7, #8]
 1269 060e 2EE0     		b	.L64
 1270              	.LVL107:
 1271              	.L63:
 412:..\lvgl\lv_draw/lv_draw_line.c ****         }
 1272              		.loc 1 412 0
 1273 0610 BBF1000F 		cmp	fp, #0
 1274 0614 1CD0     		beq	.L85
 411:..\lvgl\lv_draw/lv_draw_line.c ****             aa_shift1 = width == 0 ? 0 : aa_shift2;
 1275              		.loc 1 411 0
 1276 0616 0122     		movs	r2, #1
 1277 0618 7A60     		str	r2, [r7, #4]
 412:..\lvgl\lv_draw/lv_draw_line.c ****         }
 1278              		.loc 1 412 0
 1279 061a BA60     		str	r2, [r7, #8]
ARM GAS  C:\Users\d3bug\AppData\Local\Temp\ccg1LD4z.s 			page 36


 1280 061c 27E0     		b	.L64
 1281              	.LVL108:
 1282              	.L62:
 415:..\lvgl\lv_draw/lv_draw_line.c ****             aa_shift1 = -1;
 1283              		.loc 1 415 0
 1284 061e B5F91220 		ldrsh	r2, [r5, #18]
 1285 0622 002A     		cmp	r2, #0
 1286 0624 07DA     		bge	.L65
 1287              	.LVL109:
 417:..\lvgl\lv_draw/lv_draw_line.c ****         } else {
 1288              		.loc 1 417 0
 1289 0626 BBF1000F 		cmp	fp, #0
 1290 062a 16D0     		beq	.L86
 1291 062c 4FF0FF32 		mov	r2, #-1
 1292 0630 7A60     		str	r2, [r7, #4]
 416:..\lvgl\lv_draw/lv_draw_line.c ****             aa_shift2 = width == 0 ? 0 : aa_shift1;
 1293              		.loc 1 416 0
 1294 0632 BA60     		str	r2, [r7, #8]
 1295 0634 1BE0     		b	.L64
 1296              	.LVL110:
 1297              	.L65:
 420:..\lvgl\lv_draw/lv_draw_line.c ****         }
 1298              		.loc 1 420 0
 1299 0636 BBF1000F 		cmp	fp, #0
 1300 063a 14D0     		beq	.L87
 419:..\lvgl\lv_draw/lv_draw_line.c ****             aa_shift1 = width == 0 ? 0 : aa_shift2;
 1301              		.loc 1 419 0
 1302 063c 0122     		movs	r2, #1
 1303 063e 7A60     		str	r2, [r7, #4]
 420:..\lvgl\lv_draw/lv_draw_line.c ****         }
 1304              		.loc 1 420 0
 1305 0640 BA60     		str	r2, [r7, #8]
 1306 0642 14E0     		b	.L64
 1307              	.LVL111:
 1308              	.L84:
 409:..\lvgl\lv_draw/lv_draw_line.c ****         } else {
 1309              		.loc 1 409 0
 1310 0644 0022     		movs	r2, #0
 1311 0646 7A60     		str	r2, [r7, #4]
 408:..\lvgl\lv_draw/lv_draw_line.c ****             aa_shift2 = width == 0 ? 0 : aa_shift1;
 1312              		.loc 1 408 0
 1313 0648 4FF0FF32 		mov	r2, #-1
 1314 064c BA60     		str	r2, [r7, #8]
 1315 064e 0EE0     		b	.L64
 1316              	.LVL112:
 1317              	.L85:
 411:..\lvgl\lv_draw/lv_draw_line.c ****             aa_shift1 = width == 0 ? 0 : aa_shift2;
 1318              		.loc 1 411 0
 1319 0650 0122     		movs	r2, #1
 1320 0652 7A60     		str	r2, [r7, #4]
 412:..\lvgl\lv_draw/lv_draw_line.c ****         }
 1321              		.loc 1 412 0
 1322 0654 0022     		movs	r2, #0
 1323 0656 BA60     		str	r2, [r7, #8]
 1324 0658 09E0     		b	.L64
 1325              	.LVL113:
 1326              	.L86:
ARM GAS  C:\Users\d3bug\AppData\Local\Temp\ccg1LD4z.s 			page 37


 417:..\lvgl\lv_draw/lv_draw_line.c ****         } else {
 1327              		.loc 1 417 0
 1328 065a 0022     		movs	r2, #0
 1329 065c 7A60     		str	r2, [r7, #4]
 416:..\lvgl\lv_draw/lv_draw_line.c ****             aa_shift2 = width == 0 ? 0 : aa_shift1;
 1330              		.loc 1 416 0
 1331 065e 4FF0FF32 		mov	r2, #-1
 1332 0662 BA60     		str	r2, [r7, #8]
 1333 0664 03E0     		b	.L64
 1334              	.LVL114:
 1335              	.L87:
 419:..\lvgl\lv_draw/lv_draw_line.c ****             aa_shift1 = width == 0 ? 0 : aa_shift2;
 1336              		.loc 1 419 0
 1337 0666 0122     		movs	r2, #1
 1338 0668 7A60     		str	r2, [r7, #4]
 420:..\lvgl\lv_draw/lv_draw_line.c ****         }
 1339              		.loc 1 420 0
 1340 066a 0022     		movs	r2, #0
 1341 066c BA60     		str	r2, [r7, #8]
 1342              	.LVL115:
 1343              	.L64:
 427:..\lvgl\lv_draw/lv_draw_line.c ****     prev_p.y = main_line->p1.y;
 1344              		.loc 1 427 0
 1345 066e B5F90020 		ldrsh	r2, [r5]
 1346 0672 A7F84020 		strh	r2, [r7, #64]	@ movhi
 428:..\lvgl\lv_draw/lv_draw_line.c ****     lv_area_t draw_area;
 1347              		.loc 1 428 0
 1348 0676 B5F90220 		ldrsh	r2, [r5, #2]
 1349 067a A7F84220 		strh	r2, [r7, #66]	@ movhi
 1350              	.LVL116:
 432:..\lvgl\lv_draw/lv_draw_line.c ****         while(line_next_y(main_line)) {
 1351              		.loc 1 432 0
 1352 067e 002B     		cmp	r3, #0
 1353 0680 40F09380 		bne	.L88
 1354 0684 4FF0010A 		mov	r10, #1
 1355              	.LVL117:
 1356 0688 A046     		mov	r8, r4
 1357 068a A946     		mov	r9, r5
 1358 068c B7E1     		b	.L67
 1359              	.LVL118:
 1360              	.L69:
 435:..\lvgl\lv_draw/lv_draw_line.c ****                 draw_area.y1 = prev_p.y + pattern[i].y;
 1361              		.loc 1 435 0
 1362 068e B7F84030 		ldrh	r3, [r7, #64]
 1363 0692 38F92420 		ldrsh	r2, [r8, r4, lsl #2]
 1364 0696 1344     		add	r3, r3, r2
 1365 0698 9BB2     		uxth	r3, r3
 1366 069a 3B87     		strh	r3, [r7, #56]	@ movhi
 436:..\lvgl\lv_draw/lv_draw_line.c ****                 draw_area.x2 = draw_area.x1 + main_line->p_act.x - prev_p.x - 1;
 1367              		.loc 1 436 0
 1368 069c B7F84220 		ldrh	r2, [r7, #66]
 1369 06a0 08EB8401 		add	r1, r8, r4, lsl #2
 1370 06a4 B1F90210 		ldrsh	r1, [r1, #2]
 1371 06a8 1144     		add	r1, r1, r2
 1372 06aa 09B2     		sxth	r1, r1
 1373 06ac 7987     		strh	r1, [r7, #58]	@ movhi
 437:..\lvgl\lv_draw/lv_draw_line.c ****                 draw_area.y2 = draw_area.y1;
ARM GAS  C:\Users\d3bug\AppData\Local\Temp\ccg1LD4z.s 			page 38


 1374              		.loc 1 437 0
 1375 06ae B9F90820 		ldrsh	r2, [r9, #8]
 1376 06b2 B7F84000 		ldrh	r0, [r7, #64]
 1377 06b6 1344     		add	r3, r3, r2
 1378 06b8 1B1A     		subs	r3, r3, r0
 1379 06ba 013B     		subs	r3, r3, #1
 1380 06bc BB87     		strh	r3, [r7, #60]	@ movhi
 438:..\lvgl\lv_draw/lv_draw_line.c ****                 fill_fp(&draw_area, mask, style->line.color, opa);
 1381              		.loc 1 438 0
 1382 06be F987     		strh	r1, [r7, #62]	@ movhi
 439:..\lvgl\lv_draw/lv_draw_line.c **** 
 1383              		.loc 1 439 0
 1384 06c0 A64B     		ldr	r3, .L92
 1385 06c2 1D68     		ldr	r5, [r3]
 1386 06c4 7B69     		ldr	r3, [r7, #20]
 1387 06c6 96F83020 		ldrb	r2, [r6, #48]	@ zero_extendqisi2
 1388 06ca 3969     		ldr	r1, [r7, #16]
 1389 06cc 07F13800 		add	r0, r7, #56
 1390              	.LVL119:
 1391 06d0 A847     		blx	r5
 1392              	.LVL120:
 443:..\lvgl\lv_draw/lv_draw_line.c ****                     px_fp(draw_area.x1, draw_area.y1 - main_line->sy, mask, style->line.color, opa)
 1393              		.loc 1 443 0
 1394 06d2 CCB1     		cbz	r4, .L68
 443:..\lvgl\lv_draw/lv_draw_line.c ****                     px_fp(draw_area.x1, draw_area.y1 - main_line->sy, mask, style->line.color, opa)
 1395              		.loc 1 443 0 is_stmt 0 discriminator 1
 1396 06d4 38F92420 		ldrsh	r2, [r8, r4, lsl #2]
 1397 06d8 631E     		subs	r3, r4, #1
 1398 06da 38F92330 		ldrsh	r3, [r8, r3, lsl #2]
 1399 06de 9A42     		cmp	r2, r3
 1400 06e0 12D0     		beq	.L68
 443:..\lvgl\lv_draw/lv_draw_line.c ****                     px_fp(draw_area.x1, draw_area.y1 - main_line->sy, mask, style->line.color, opa)
 1401              		.loc 1 443 0 discriminator 2
 1402 06e2 BAF1000F 		cmp	r10, #0
 1403 06e6 0FD1     		bne	.L68
 444:..\lvgl\lv_draw/lv_draw_line.c ****                 }
 1404              		.loc 1 444 0 is_stmt 1
 1405 06e8 B7F93A20 		ldrsh	r2, [r7, #58]
 1406 06ec B9F91210 		ldrsh	r1, [r9, #18]
 1407 06f0 96F83030 		ldrb	r3, [r6, #48]	@ zero_extendqisi2
 1408 06f4 511A     		subs	r1, r2, r1
 1409 06f6 B7F93800 		ldrsh	r0, [r7, #56]
 1410 06fa 7A69     		ldr	r2, [r7, #20]
 1411 06fc 0092     		str	r2, [sp]
 1412 06fe 984A     		ldr	r2, .L92+4
 1413 0700 1568     		ldr	r5, [r2]
 1414 0702 3A69     		ldr	r2, [r7, #16]
 1415 0704 09B2     		sxth	r1, r1
 1416 0706 A847     		blx	r5
 1417              	.LVL121:
 1418              	.L68:
 434:..\lvgl\lv_draw/lv_draw_line.c ****                 draw_area.x1 = prev_p.x + pattern[i].x;
 1419              		.loc 1 434 0 discriminator 2
 1420 0708 0134     		adds	r4, r4, #1
 1421              	.LVL122:
 1422 070a 24B2     		sxth	r4, r4
 1423              	.LVL123:
ARM GAS  C:\Users\d3bug\AppData\Local\Temp\ccg1LD4z.s 			page 39


 1424 070c 00E0     		b	.L70
 1425              	.LVL124:
 1426              	.L89:
 1427 070e 0024     		movs	r4, #0
 1428              	.L70:
 1429              	.LVL125:
 434:..\lvgl\lv_draw/lv_draw_line.c ****                 draw_area.x1 = prev_p.x + pattern[i].x;
 1430              		.loc 1 434 0 is_stmt 0 discriminator 1
 1431 0710 A345     		cmp	fp, r4
 1432 0712 BCDC     		bgt	.L69
 449:..\lvgl\lv_draw/lv_draw_line.c ****                     -(main_line->p_act.x - prev_p.x), mask, style->line.color, opa);
 1433              		.loc 1 449 0 is_stmt 1
 1434 0714 B7F84000 		ldrh	r0, [r7, #64]
 1435 0718 B8F90040 		ldrsh	r4, [r8]
 1436              	.LVL126:
 1437 071c B7F84230 		ldrh	r3, [r7, #66]
 1438 0720 B8F90210 		ldrsh	r1, [r8, #2]
 450:..\lvgl\lv_draw/lv_draw_line.c ****             lv_draw_aa_hor_seg(prev_p.x + pattern[width_safe - 1].x, prev_p.y + pattern[width_safe 
 1439              		.loc 1 450 0
 1440 0724 B7F84050 		ldrh	r5, [r7, #64]
 1441 0728 B9F90820 		ldrsh	r2, [r9, #8]
 449:..\lvgl\lv_draw/lv_draw_line.c ****                     -(main_line->p_act.x - prev_p.x), mask, style->line.color, opa);
 1442              		.loc 1 449 0
 1443 072c AA1A     		subs	r2, r5, r2
 1444 072e 1944     		add	r1, r1, r3
 1445 0730 BB68     		ldr	r3, [r7, #8]
 1446 0732 C91A     		subs	r1, r1, r3
 1447 0734 2044     		add	r0, r0, r4
 1448 0736 7B69     		ldr	r3, [r7, #20]
 1449 0738 0193     		str	r3, [sp, #4]
 1450 073a 96F83030 		ldrb	r3, [r6, #48]	@ zero_extendqisi2
 1451 073e 8DF80030 		strb	r3, [sp]
 1452 0742 D7F810A0 		ldr	r10, [r7, #16]
 1453              	.LVL127:
 1454 0746 5346     		mov	r3, r10
 1455 0748 12B2     		sxth	r2, r2
 1456 074a 09B2     		sxth	r1, r1
 1457 074c 00B2     		sxth	r0, r0
 1458 074e FFF7FEFF 		bl	lv_draw_aa_hor_seg
 1459              	.LVL128:
 451:..\lvgl\lv_draw/lv_draw_line.c ****                     main_line->p_act.x - prev_p.x, mask, style->line.color, opa);
 1460              		.loc 1 451 0
 1461 0752 B7F84000 		ldrh	r0, [r7, #64]
 1462 0756 FA68     		ldr	r2, [r7, #12]
 1463 0758 531E     		subs	r3, r2, #1
 1464 075a 38F92340 		ldrsh	r4, [r8, r3, lsl #2]
 1465 075e B7F84210 		ldrh	r1, [r7, #66]
 1466 0762 08EB8303 		add	r3, r8, r3, lsl #2
 1467 0766 B3F90230 		ldrsh	r3, [r3, #2]
 452:..\lvgl\lv_draw/lv_draw_line.c **** #endif
 1468              		.loc 1 452 0
 1469 076a B9F90850 		ldrsh	r5, [r9, #8]
 1470 076e B7F84020 		ldrh	r2, [r7, #64]
 451:..\lvgl\lv_draw/lv_draw_line.c ****                     main_line->p_act.x - prev_p.x, mask, style->line.color, opa);
 1471              		.loc 1 451 0
 1472 0772 AA1A     		subs	r2, r5, r2
 1473 0774 1944     		add	r1, r1, r3
ARM GAS  C:\Users\d3bug\AppData\Local\Temp\ccg1LD4z.s 			page 40


 1474 0776 7D68     		ldr	r5, [r7, #4]
 1475 0778 2944     		add	r1, r1, r5
 1476 077a 2044     		add	r0, r0, r4
 1477 077c 7C69     		ldr	r4, [r7, #20]
 1478 077e 0194     		str	r4, [sp, #4]
 1479 0780 96F83030 		ldrb	r3, [r6, #48]	@ zero_extendqisi2
 1480 0784 8DF80030 		strb	r3, [sp]
 1481 0788 5346     		mov	r3, r10
 1482 078a 12B2     		sxth	r2, r2
 1483 078c 09B2     		sxth	r1, r1
 1484 078e 00B2     		sxth	r0, r0
 1485 0790 FFF7FEFF 		bl	lv_draw_aa_hor_seg
 1486              	.LVL129:
 457:..\lvgl\lv_draw/lv_draw_line.c ****             prev_p.y = main_line->p_act.y;
 1487              		.loc 1 457 0
 1488 0794 B9F90830 		ldrsh	r3, [r9, #8]
 1489 0798 A7F84030 		strh	r3, [r7, #64]	@ movhi
 458:..\lvgl\lv_draw/lv_draw_line.c ****         }
 1490              		.loc 1 458 0
 1491 079c B9F90A30 		ldrsh	r3, [r9, #10]
 1492 07a0 A7F84230 		strh	r3, [r7, #66]	@ movhi
 455:..\lvgl\lv_draw/lv_draw_line.c **** 
 1493              		.loc 1 455 0
 1494 07a4 4FF0000A 		mov	r10, #0
 1495 07a8 03E0     		b	.L66
 1496              	.LVL130:
 1497              	.L88:
 1498 07aa 4FF0010A 		mov	r10, #1
 1499              	.LVL131:
 1500 07ae A046     		mov	r8, r4
 1501 07b0 A946     		mov	r9, r5
 1502              	.LVL132:
 1503              	.L66:
 433:..\lvgl\lv_draw/lv_draw_line.c ****             for(i = 0; i < width; i++) {
 1504              		.loc 1 433 0
 1505 07b2 4846     		mov	r0, r9
 1506 07b4 FFF7FEFF 		bl	line_next_y
 1507              	.LVL133:
 1508 07b8 0028     		cmp	r0, #0
 1509 07ba A8D1     		bne	.L89
 1510 07bc 4446     		mov	r4, r8
 1511 07be 4FF00008 		mov	r8, #0
 1512              	.LVL134:
 1513 07c2 2346     		mov	r3, r4
 1514 07c4 4446     		mov	r4, r8
 1515              	.LVL135:
 1516 07c6 9846     		mov	r8, r3
 1517 07c8 3DE0     		b	.L71
 1518              	.LVL136:
 1519              	.L73:
 462:..\lvgl\lv_draw/lv_draw_line.c ****             draw_area.y1 = prev_p.y + pattern[i].y;
 1520              		.loc 1 462 0
 1521 07ca B7F84030 		ldrh	r3, [r7, #64]
 1522 07ce 38F92420 		ldrsh	r2, [r8, r4, lsl #2]
 1523 07d2 1A44     		add	r2, r2, r3
 1524 07d4 92B2     		uxth	r2, r2
 1525 07d6 3A87     		strh	r2, [r7, #56]	@ movhi
ARM GAS  C:\Users\d3bug\AppData\Local\Temp\ccg1LD4z.s 			page 41


 463:..\lvgl\lv_draw/lv_draw_line.c ****             draw_area.x2 = draw_area.x1 + main_line->p_act.x - prev_p.x;
 1526              		.loc 1 463 0
 1527 07d8 B7F84230 		ldrh	r3, [r7, #66]
 1528 07dc 08EB8401 		add	r1, r8, r4, lsl #2
 1529 07e0 B1F90210 		ldrsh	r1, [r1, #2]
 1530 07e4 0B44     		add	r3, r3, r1
 1531 07e6 1BB2     		sxth	r3, r3
 1532 07e8 7B87     		strh	r3, [r7, #58]	@ movhi
 464:..\lvgl\lv_draw/lv_draw_line.c ****             draw_area.y2 = draw_area.y1;
 1533              		.loc 1 464 0
 1534 07ea B9F90810 		ldrsh	r1, [r9, #8]
 1535 07ee B7F84000 		ldrh	r0, [r7, #64]
 1536 07f2 0A44     		add	r2, r2, r1
 1537 07f4 121A     		subs	r2, r2, r0
 1538 07f6 BA87     		strh	r2, [r7, #60]	@ movhi
 465:..\lvgl\lv_draw/lv_draw_line.c ****             fill_fp(&draw_area, mask, style->line.color, opa);
 1539              		.loc 1 465 0
 1540 07f8 FB87     		strh	r3, [r7, #62]	@ movhi
 466:..\lvgl\lv_draw/lv_draw_line.c **** 
 1541              		.loc 1 466 0
 1542 07fa 584B     		ldr	r3, .L92
 1543 07fc 1D68     		ldr	r5, [r3]
 1544 07fe 7B69     		ldr	r3, [r7, #20]
 1545 0800 96F83020 		ldrb	r2, [r6, #48]	@ zero_extendqisi2
 1546 0804 3969     		ldr	r1, [r7, #16]
 1547 0806 07F13800 		add	r0, r7, #56
 1548              	.LVL137:
 1549 080a A847     		blx	r5
 1550              	.LVL138:
 470:..\lvgl\lv_draw/lv_draw_line.c ****                 px_fp(draw_area.x1, draw_area.y1 - main_line->sy, mask, style->line.color, opa);
 1551              		.loc 1 470 0
 1552 080c CCB1     		cbz	r4, .L72
 470:..\lvgl\lv_draw/lv_draw_line.c ****                 px_fp(draw_area.x1, draw_area.y1 - main_line->sy, mask, style->line.color, opa);
 1553              		.loc 1 470 0 is_stmt 0 discriminator 1
 1554 080e 38F92420 		ldrsh	r2, [r8, r4, lsl #2]
 1555 0812 631E     		subs	r3, r4, #1
 1556 0814 38F92330 		ldrsh	r3, [r8, r3, lsl #2]
 1557 0818 9A42     		cmp	r2, r3
 1558 081a 12D0     		beq	.L72
 470:..\lvgl\lv_draw/lv_draw_line.c ****                 px_fp(draw_area.x1, draw_area.y1 - main_line->sy, mask, style->line.color, opa);
 1559              		.loc 1 470 0 discriminator 2
 1560 081c BAF1000F 		cmp	r10, #0
 1561 0820 0FD1     		bne	.L72
 471:..\lvgl\lv_draw/lv_draw_line.c ****             }
 1562              		.loc 1 471 0 is_stmt 1
 1563 0822 B7F93A20 		ldrsh	r2, [r7, #58]
 1564 0826 B9F91210 		ldrsh	r1, [r9, #18]
 1565 082a 96F83030 		ldrb	r3, [r6, #48]	@ zero_extendqisi2
 1566 082e 511A     		subs	r1, r2, r1
 1567 0830 B7F93800 		ldrsh	r0, [r7, #56]
 1568 0834 7A69     		ldr	r2, [r7, #20]
 1569 0836 0092     		str	r2, [sp]
 1570 0838 494A     		ldr	r2, .L92+4
 1571 083a 1568     		ldr	r5, [r2]
 1572 083c 3A69     		ldr	r2, [r7, #16]
 1573 083e 09B2     		sxth	r1, r1
 1574 0840 A847     		blx	r5
ARM GAS  C:\Users\d3bug\AppData\Local\Temp\ccg1LD4z.s 			page 42


 1575              	.LVL139:
 1576              	.L72:
 461:..\lvgl\lv_draw/lv_draw_line.c ****             draw_area.x1 = prev_p.x + pattern[i].x;
 1577              		.loc 1 461 0 discriminator 2
 1578 0842 0134     		adds	r4, r4, #1
 1579              	.LVL140:
 1580 0844 24B2     		sxth	r4, r4
 1581              	.LVL141:
 1582              	.L71:
 461:..\lvgl\lv_draw/lv_draw_line.c ****             draw_area.x1 = prev_p.x + pattern[i].x;
 1583              		.loc 1 461 0 is_stmt 0 discriminator 1
 1584 0846 A345     		cmp	fp, r4
 1585 0848 BFDC     		bgt	.L73
 1586 084a 4446     		mov	r4, r8
 1587              	.LVL142:
 476:..\lvgl\lv_draw/lv_draw_line.c ****                 -(main_line->p_act.x - prev_p.x + 1), mask, style->line.color, opa);
 1588              		.loc 1 476 0 is_stmt 1
 1589 084c B7F84000 		ldrh	r0, [r7, #64]
 1590 0850 B8F900E0 		ldrsh	lr, [r8]
 1591 0854 B7F84230 		ldrh	r3, [r7, #66]
 1592 0858 B8F90210 		ldrsh	r1, [r8, #2]
 477:..\lvgl\lv_draw/lv_draw_line.c ****         lv_draw_aa_hor_seg(prev_p.x + pattern[width_safe - 1].x, prev_p.y + pattern[width_safe - 1]
 1593              		.loc 1 477 0
 1594 085c B9F90820 		ldrsh	r2, [r9, #8]
 1595 0860 B7F840C0 		ldrh	ip, [r7, #64]
 476:..\lvgl\lv_draw/lv_draw_line.c ****                 -(main_line->p_act.x - prev_p.x + 1), mask, style->line.color, opa);
 1596              		.loc 1 476 0
 1597 0864 CCEB0202 		rsb	r2, ip, r2
 1598 0868 D243     		mvns	r2, r2
 1599 086a 1944     		add	r1, r1, r3
 1600 086c BB68     		ldr	r3, [r7, #8]
 1601 086e C91A     		subs	r1, r1, r3
 1602 0870 7044     		add	r0, r0, lr
 1603 0872 7B69     		ldr	r3, [r7, #20]
 1604 0874 0193     		str	r3, [sp, #4]
 1605 0876 96F83030 		ldrb	r3, [r6, #48]	@ zero_extendqisi2
 1606 087a 8DF80030 		strb	r3, [sp]
 1607 087e D7F81080 		ldr	r8, [r7, #16]
 1608              	.LVL143:
 1609 0882 4346     		mov	r3, r8
 1610 0884 12B2     		sxth	r2, r2
 1611 0886 09B2     		sxth	r1, r1
 1612 0888 00B2     		sxth	r0, r0
 1613 088a FFF7FEFF 		bl	lv_draw_aa_hor_seg
 1614              	.LVL144:
 478:..\lvgl\lv_draw/lv_draw_line.c ****                 main_line->p_act.x - prev_p.x + 1, mask, style->line.color, opa);
 1615              		.loc 1 478 0
 1616 088e B7F84000 		ldrh	r0, [r7, #64]
 1617 0892 FA68     		ldr	r2, [r7, #12]
 1618 0894 531E     		subs	r3, r2, #1
 1619 0896 34F923E0 		ldrsh	lr, [r4, r3, lsl #2]
 1620 089a B7F84210 		ldrh	r1, [r7, #66]
 1621 089e 04EB8303 		add	r3, r4, r3, lsl #2
 1622 08a2 B3F90240 		ldrsh	r4, [r3, #2]
 1623              	.LVL145:
 479:..\lvgl\lv_draw/lv_draw_line.c **** #endif
 1624              		.loc 1 479 0
ARM GAS  C:\Users\d3bug\AppData\Local\Temp\ccg1LD4z.s 			page 43


 1625 08a6 B9F90830 		ldrsh	r3, [r9, #8]
 1626 08aa B7F84020 		ldrh	r2, [r7, #64]
 478:..\lvgl\lv_draw/lv_draw_line.c ****                 main_line->p_act.x - prev_p.x + 1, mask, style->line.color, opa);
 1627              		.loc 1 478 0
 1628 08ae 9A1A     		subs	r2, r3, r2
 1629 08b0 0132     		adds	r2, r2, #1
 1630 08b2 2144     		add	r1, r1, r4
 1631 08b4 7D68     		ldr	r5, [r7, #4]
 1632 08b6 2944     		add	r1, r1, r5
 1633 08b8 7044     		add	r0, r0, lr
 1634 08ba 7C69     		ldr	r4, [r7, #20]
 1635 08bc 0194     		str	r4, [sp, #4]
 1636 08be 96F83030 		ldrb	r3, [r6, #48]	@ zero_extendqisi2
 1637 08c2 8DF80030 		strb	r3, [sp]
 1638 08c6 4346     		mov	r3, r8
 1639 08c8 12B2     		sxth	r2, r2
 1640 08ca 09B2     		sxth	r1, r1
 1641 08cc 00B2     		sxth	r0, r0
 1642 08ce FFF7FEFF 		bl	lv_draw_aa_hor_seg
 1643              	.LVL146:
 1644 08d2 28E1     		b	.L36
 1645              	.LVL147:
 1646              	.L76:
 487:..\lvgl\lv_draw/lv_draw_line.c ****                 draw_area.y1 = prev_p.y + pattern[i].y;
 1647              		.loc 1 487 0
 1648 08d4 B7F84030 		ldrh	r3, [r7, #64]
 1649 08d8 38F92420 		ldrsh	r2, [r8, r4, lsl #2]
 1650 08dc 1A44     		add	r2, r2, r3
 1651 08de 12B2     		sxth	r2, r2
 1652 08e0 3A87     		strh	r2, [r7, #56]	@ movhi
 488:..\lvgl\lv_draw/lv_draw_line.c ****                 draw_area.x2 = draw_area.x1;
 1653              		.loc 1 488 0
 1654 08e2 B7F84230 		ldrh	r3, [r7, #66]
 1655 08e6 08EB8401 		add	r1, r8, r4, lsl #2
 1656 08ea B1F90210 		ldrsh	r1, [r1, #2]
 1657 08ee 0B44     		add	r3, r3, r1
 1658 08f0 9BB2     		uxth	r3, r3
 1659 08f2 7B87     		strh	r3, [r7, #58]	@ movhi
 489:..\lvgl\lv_draw/lv_draw_line.c ****                 draw_area.y2 = draw_area.y1 + main_line->p_act.y - prev_p.y - 1;
 1660              		.loc 1 489 0
 1661 08f4 BA87     		strh	r2, [r7, #60]	@ movhi
 490:..\lvgl\lv_draw/lv_draw_line.c **** 
 1662              		.loc 1 490 0
 1663 08f6 B9F90A20 		ldrsh	r2, [r9, #10]
 1664 08fa B7F84210 		ldrh	r1, [r7, #66]
 1665 08fe 1344     		add	r3, r3, r2
 1666 0900 5B1A     		subs	r3, r3, r1
 1667 0902 013B     		subs	r3, r3, #1
 1668 0904 FB87     		strh	r3, [r7, #62]	@ movhi
 492:..\lvgl\lv_draw/lv_draw_line.c **** 
 1669              		.loc 1 492 0
 1670 0906 154B     		ldr	r3, .L92
 1671 0908 1D68     		ldr	r5, [r3]
 1672 090a 7B69     		ldr	r3, [r7, #20]
 1673 090c 96F83020 		ldrb	r2, [r6, #48]	@ zero_extendqisi2
 1674 0910 3969     		ldr	r1, [r7, #16]
 1675 0912 07F13800 		add	r0, r7, #56
ARM GAS  C:\Users\d3bug\AppData\Local\Temp\ccg1LD4z.s 			page 44


 1676              	.LVL148:
 1677 0916 A847     		blx	r5
 1678              	.LVL149:
 496:..\lvgl\lv_draw/lv_draw_line.c ****                     px_fp(draw_area.x1 - main_line->sx, draw_area.y1, mask, style->line.color, opa)
 1679              		.loc 1 496 0
 1680 0918 ECB1     		cbz	r4, .L75
 496:..\lvgl\lv_draw/lv_draw_line.c ****                     px_fp(draw_area.x1 - main_line->sx, draw_area.y1, mask, style->line.color, opa)
 1681              		.loc 1 496 0 is_stmt 0 discriminator 1
 1682 091a 08EB8403 		add	r3, r8, r4, lsl #2
 1683 091e B3F90220 		ldrsh	r2, [r3, #2]
 1684 0922 631E     		subs	r3, r4, #1
 1685 0924 08EB8303 		add	r3, r8, r3, lsl #2
 1686 0928 B3F90230 		ldrsh	r3, [r3, #2]
 1687 092c 9A42     		cmp	r2, r3
 1688 092e 12D0     		beq	.L75
 496:..\lvgl\lv_draw/lv_draw_line.c ****                     px_fp(draw_area.x1 - main_line->sx, draw_area.y1, mask, style->line.color, opa)
 1689              		.loc 1 496 0 discriminator 2
 1690 0930 BAF1000F 		cmp	r10, #0
 1691 0934 0FD1     		bne	.L75
 497:..\lvgl\lv_draw/lv_draw_line.c ****                 }
 1692              		.loc 1 497 0 is_stmt 1
 1693 0936 B7F93800 		ldrsh	r0, [r7, #56]
 1694 093a B9F90E20 		ldrsh	r2, [r9, #14]
 1695 093e 96F83030 		ldrb	r3, [r6, #48]	@ zero_extendqisi2
 1696 0942 B7F93A10 		ldrsh	r1, [r7, #58]
 1697 0946 801A     		subs	r0, r0, r2
 1698 0948 7A69     		ldr	r2, [r7, #20]
 1699 094a 0092     		str	r2, [sp]
 1700 094c 044A     		ldr	r2, .L92+4
 1701 094e 1568     		ldr	r5, [r2]
 1702 0950 3A69     		ldr	r2, [r7, #16]
 1703 0952 00B2     		sxth	r0, r0
 1704 0954 A847     		blx	r5
 1705              	.LVL150:
 1706              	.L75:
 486:..\lvgl\lv_draw/lv_draw_line.c ****                 draw_area.x1 = prev_p.x + pattern[i].x;
 1707              		.loc 1 486 0 discriminator 2
 1708 0956 0134     		adds	r4, r4, #1
 1709              	.LVL151:
 1710 0958 24B2     		sxth	r4, r4
 1711              	.LVL152:
 1712 095a 04E0     		b	.L77
 1713              	.L93:
 1714              		.align	2
 1715              	.L92:
 1716 095c 00000000 		.word	fill_fp
 1717 0960 00000000 		.word	px_fp
 1718              	.LVL153:
 1719              	.L90:
 1720 0964 0024     		movs	r4, #0
 1721              	.L77:
 1722              	.LVL154:
 486:..\lvgl\lv_draw/lv_draw_line.c ****                 draw_area.x1 = prev_p.x + pattern[i].x;
 1723              		.loc 1 486 0 is_stmt 0 discriminator 1
 1724 0966 A345     		cmp	fp, r4
 1725 0968 B4DC     		bgt	.L76
 503:..\lvgl\lv_draw/lv_draw_line.c ****                     -(main_line->p_act.y - prev_p.y), mask, style->line.color, opa);
ARM GAS  C:\Users\d3bug\AppData\Local\Temp\ccg1LD4z.s 			page 45


 1726              		.loc 1 503 0 is_stmt 1
 1727 096a B7F84030 		ldrh	r3, [r7, #64]
 1728 096e B8F90000 		ldrsh	r0, [r8]
 1729 0972 B7F84210 		ldrh	r1, [r7, #66]
 1730 0976 B8F90240 		ldrsh	r4, [r8, #2]
 1731              	.LVL155:
 504:..\lvgl\lv_draw/lv_draw_line.c ****             lv_draw_aa_ver_seg(prev_p.x + pattern[width_safe - 1].x + aa_shift2, prev_p.y + pattern
 1732              		.loc 1 504 0
 1733 097a B7F84250 		ldrh	r5, [r7, #66]
 1734 097e B9F90A20 		ldrsh	r2, [r9, #10]
 503:..\lvgl\lv_draw/lv_draw_line.c ****                     -(main_line->p_act.y - prev_p.y), mask, style->line.color, opa);
 1735              		.loc 1 503 0
 1736 0982 AA1A     		subs	r2, r5, r2
 1737 0984 2144     		add	r1, r1, r4
 1738 0986 1844     		add	r0, r0, r3
 1739 0988 BB68     		ldr	r3, [r7, #8]
 1740 098a C01A     		subs	r0, r0, r3
 1741 098c 7B69     		ldr	r3, [r7, #20]
 1742 098e 0193     		str	r3, [sp, #4]
 1743 0990 96F83030 		ldrb	r3, [r6, #48]	@ zero_extendqisi2
 1744 0994 8DF80030 		strb	r3, [sp]
 1745 0998 D7F810A0 		ldr	r10, [r7, #16]
 1746              	.LVL156:
 1747 099c 5346     		mov	r3, r10
 1748 099e 12B2     		sxth	r2, r2
 1749 09a0 09B2     		sxth	r1, r1
 1750 09a2 00B2     		sxth	r0, r0
 1751 09a4 FFF7FEFF 		bl	lv_draw_aa_ver_seg
 1752              	.LVL157:
 505:..\lvgl\lv_draw/lv_draw_line.c ****                     main_line->p_act.y - prev_p.y, mask, style->line.color, opa);
 1753              		.loc 1 505 0
 1754 09a8 B7F84000 		ldrh	r0, [r7, #64]
 1755 09ac FA68     		ldr	r2, [r7, #12]
 1756 09ae 531E     		subs	r3, r2, #1
 1757 09b0 38F92340 		ldrsh	r4, [r8, r3, lsl #2]
 1758 09b4 B7F84210 		ldrh	r1, [r7, #66]
 1759 09b8 08EB8303 		add	r3, r8, r3, lsl #2
 1760 09bc B3F90230 		ldrsh	r3, [r3, #2]
 506:..\lvgl\lv_draw/lv_draw_line.c **** #endif
 1761              		.loc 1 506 0
 1762 09c0 B9F90A50 		ldrsh	r5, [r9, #10]
 1763 09c4 B7F84220 		ldrh	r2, [r7, #66]
 505:..\lvgl\lv_draw/lv_draw_line.c ****                     main_line->p_act.y - prev_p.y, mask, style->line.color, opa);
 1764              		.loc 1 505 0
 1765 09c8 AA1A     		subs	r2, r5, r2
 1766 09ca 1944     		add	r1, r1, r3
 1767 09cc 2044     		add	r0, r0, r4
 1768 09ce 7D68     		ldr	r5, [r7, #4]
 1769 09d0 2844     		add	r0, r0, r5
 1770 09d2 7C69     		ldr	r4, [r7, #20]
 1771 09d4 0194     		str	r4, [sp, #4]
 1772 09d6 96F83030 		ldrb	r3, [r6, #48]	@ zero_extendqisi2
 1773 09da 8DF80030 		strb	r3, [sp]
 1774 09de 5346     		mov	r3, r10
 1775 09e0 12B2     		sxth	r2, r2
 1776 09e2 09B2     		sxth	r1, r1
 1777 09e4 00B2     		sxth	r0, r0
ARM GAS  C:\Users\d3bug\AppData\Local\Temp\ccg1LD4z.s 			page 46


 1778 09e6 FFF7FEFF 		bl	lv_draw_aa_ver_seg
 1779              	.LVL158:
 511:..\lvgl\lv_draw/lv_draw_line.c ****             prev_p.y = main_line->p_act.y;
 1780              		.loc 1 511 0
 1781 09ea B9F90830 		ldrsh	r3, [r9, #8]
 1782 09ee A7F84030 		strh	r3, [r7, #64]	@ movhi
 512:..\lvgl\lv_draw/lv_draw_line.c ****         }
 1783              		.loc 1 512 0
 1784 09f2 B9F90A30 		ldrsh	r3, [r9, #10]
 1785 09f6 A7F84230 		strh	r3, [r7, #66]	@ movhi
 509:..\lvgl\lv_draw/lv_draw_line.c **** 
 1786              		.loc 1 509 0
 1787 09fa 4FF0000A 		mov	r10, #0
 1788              	.LVL159:
 1789              	.L67:
 485:..\lvgl\lv_draw/lv_draw_line.c ****             for(i = 0; i < width; i++) {
 1790              		.loc 1 485 0
 1791 09fe 4846     		mov	r0, r9
 1792 0a00 FFF7FEFF 		bl	line_next_x
 1793              	.LVL160:
 1794 0a04 0028     		cmp	r0, #0
 1795 0a06 ADD1     		bne	.L90
 1796 0a08 4446     		mov	r4, r8
 1797 0a0a 4FF00008 		mov	r8, #0
 1798              	.LVL161:
 1799 0a0e 2346     		mov	r3, r4
 1800 0a10 4446     		mov	r4, r8
 1801              	.LVL162:
 1802 0a12 9846     		mov	r8, r3
 1803 0a14 41E0     		b	.L78
 1804              	.LVL163:
 1805              	.L80:
 517:..\lvgl\lv_draw/lv_draw_line.c ****             draw_area.y1 = prev_p.y + pattern[i].y;
 1806              		.loc 1 517 0
 1807 0a16 B7F84030 		ldrh	r3, [r7, #64]
 1808 0a1a 38F92420 		ldrsh	r2, [r8, r4, lsl #2]
 1809 0a1e 1A44     		add	r2, r2, r3
 1810 0a20 12B2     		sxth	r2, r2
 1811 0a22 3A87     		strh	r2, [r7, #56]	@ movhi
 518:..\lvgl\lv_draw/lv_draw_line.c ****             draw_area.x2 = draw_area.x1;
 1812              		.loc 1 518 0
 1813 0a24 B7F84230 		ldrh	r3, [r7, #66]
 1814 0a28 08EB8401 		add	r1, r8, r4, lsl #2
 1815 0a2c B1F90210 		ldrsh	r1, [r1, #2]
 1816 0a30 0B44     		add	r3, r3, r1
 1817 0a32 9BB2     		uxth	r3, r3
 1818 0a34 7B87     		strh	r3, [r7, #58]	@ movhi
 519:..\lvgl\lv_draw/lv_draw_line.c ****             draw_area.y2 = draw_area.y1 + main_line->p_act.y - prev_p.y;
 1819              		.loc 1 519 0
 1820 0a36 BA87     		strh	r2, [r7, #60]	@ movhi
 520:..\lvgl\lv_draw/lv_draw_line.c **** 
 1821              		.loc 1 520 0
 1822 0a38 B9F90A20 		ldrsh	r2, [r9, #10]
 1823 0a3c B7F84210 		ldrh	r1, [r7, #66]
 1824 0a40 1344     		add	r3, r3, r2
 1825 0a42 5B1A     		subs	r3, r3, r1
 1826 0a44 FB87     		strh	r3, [r7, #62]	@ movhi
ARM GAS  C:\Users\d3bug\AppData\Local\Temp\ccg1LD4z.s 			page 47


 522:..\lvgl\lv_draw/lv_draw_line.c **** 
 1827              		.loc 1 522 0
 1828 0a46 3A4B     		ldr	r3, .L94
 1829 0a48 1D68     		ldr	r5, [r3]
 1830 0a4a 7B69     		ldr	r3, [r7, #20]
 1831 0a4c 96F83020 		ldrb	r2, [r6, #48]	@ zero_extendqisi2
 1832 0a50 3969     		ldr	r1, [r7, #16]
 1833 0a52 07F13800 		add	r0, r7, #56
 1834              	.LVL164:
 1835 0a56 A847     		blx	r5
 1836              	.LVL165:
 526:..\lvgl\lv_draw/lv_draw_line.c ****                 px_fp(draw_area.x1 - main_line->sx, draw_area.y1, mask, style->line.color, opa);
 1837              		.loc 1 526 0
 1838 0a58 ECB1     		cbz	r4, .L79
 526:..\lvgl\lv_draw/lv_draw_line.c ****                 px_fp(draw_area.x1 - main_line->sx, draw_area.y1, mask, style->line.color, opa);
 1839              		.loc 1 526 0 is_stmt 0 discriminator 1
 1840 0a5a 08EB8403 		add	r3, r8, r4, lsl #2
 1841 0a5e B3F90220 		ldrsh	r2, [r3, #2]
 1842 0a62 631E     		subs	r3, r4, #1
 1843 0a64 08EB8303 		add	r3, r8, r3, lsl #2
 1844 0a68 B3F90230 		ldrsh	r3, [r3, #2]
 1845 0a6c 9A42     		cmp	r2, r3
 1846 0a6e 12D0     		beq	.L79
 526:..\lvgl\lv_draw/lv_draw_line.c ****                 px_fp(draw_area.x1 - main_line->sx, draw_area.y1, mask, style->line.color, opa);
 1847              		.loc 1 526 0 discriminator 2
 1848 0a70 BAF1000F 		cmp	r10, #0
 1849 0a74 0FD1     		bne	.L79
 527:..\lvgl\lv_draw/lv_draw_line.c ****             }
 1850              		.loc 1 527 0 is_stmt 1
 1851 0a76 B7F93800 		ldrsh	r0, [r7, #56]
 1852 0a7a B9F90E20 		ldrsh	r2, [r9, #14]
 1853 0a7e 96F83030 		ldrb	r3, [r6, #48]	@ zero_extendqisi2
 1854 0a82 B7F93A10 		ldrsh	r1, [r7, #58]
 1855 0a86 801A     		subs	r0, r0, r2
 1856 0a88 7A69     		ldr	r2, [r7, #20]
 1857 0a8a 0092     		str	r2, [sp]
 1858 0a8c 294A     		ldr	r2, .L94+4
 1859 0a8e 1568     		ldr	r5, [r2]
 1860 0a90 3A69     		ldr	r2, [r7, #16]
 1861 0a92 00B2     		sxth	r0, r0
 1862 0a94 A847     		blx	r5
 1863              	.LVL166:
 1864              	.L79:
 516:..\lvgl\lv_draw/lv_draw_line.c ****             draw_area.x1 = prev_p.x + pattern[i].x;
 1865              		.loc 1 516 0 discriminator 2
 1866 0a96 0134     		adds	r4, r4, #1
 1867              	.LVL167:
 1868 0a98 24B2     		sxth	r4, r4
 1869              	.LVL168:
 1870              	.L78:
 516:..\lvgl\lv_draw/lv_draw_line.c ****             draw_area.x1 = prev_p.x + pattern[i].x;
 1871              		.loc 1 516 0 is_stmt 0 discriminator 1
 1872 0a9a A345     		cmp	fp, r4
 1873 0a9c BBDC     		bgt	.L80
 1874 0a9e 4446     		mov	r4, r8
 1875              	.LVL169:
 532:..\lvgl\lv_draw/lv_draw_line.c ****                 -(main_line->p_act.y - prev_p.y + 1), mask, style->line.color, opa);
ARM GAS  C:\Users\d3bug\AppData\Local\Temp\ccg1LD4z.s 			page 48


 1876              		.loc 1 532 0 is_stmt 1
 1877 0aa0 B7F84030 		ldrh	r3, [r7, #64]
 1878 0aa4 B8F90000 		ldrsh	r0, [r8]
 1879 0aa8 B7F84210 		ldrh	r1, [r7, #66]
 1880 0aac B8F902E0 		ldrsh	lr, [r8, #2]
 533:..\lvgl\lv_draw/lv_draw_line.c ****         lv_draw_aa_ver_seg(prev_p.x + pattern[width_safe - 1].x + aa_shift2, prev_p.y + pattern[wid
 1881              		.loc 1 533 0
 1882 0ab0 B9F90A20 		ldrsh	r2, [r9, #10]
 1883 0ab4 B7F842C0 		ldrh	ip, [r7, #66]
 532:..\lvgl\lv_draw/lv_draw_line.c ****                 -(main_line->p_act.y - prev_p.y + 1), mask, style->line.color, opa);
 1884              		.loc 1 532 0
 1885 0ab8 CCEB0202 		rsb	r2, ip, r2
 1886 0abc D243     		mvns	r2, r2
 1887 0abe 7144     		add	r1, r1, lr
 1888 0ac0 1844     		add	r0, r0, r3
 1889 0ac2 BB68     		ldr	r3, [r7, #8]
 1890 0ac4 C01A     		subs	r0, r0, r3
 1891 0ac6 7B69     		ldr	r3, [r7, #20]
 1892 0ac8 0193     		str	r3, [sp, #4]
 1893 0aca 96F83030 		ldrb	r3, [r6, #48]	@ zero_extendqisi2
 1894 0ace 8DF80030 		strb	r3, [sp]
 1895 0ad2 D7F81080 		ldr	r8, [r7, #16]
 1896              	.LVL170:
 1897 0ad6 4346     		mov	r3, r8
 1898 0ad8 12B2     		sxth	r2, r2
 1899 0ada 09B2     		sxth	r1, r1
 1900 0adc 00B2     		sxth	r0, r0
 1901 0ade FFF7FEFF 		bl	lv_draw_aa_ver_seg
 1902              	.LVL171:
 534:..\lvgl\lv_draw/lv_draw_line.c ****                 main_line->p_act.y - prev_p.y + 1, mask, style->line.color, opa);
 1903              		.loc 1 534 0
 1904 0ae2 B7F84000 		ldrh	r0, [r7, #64]
 1905 0ae6 FA68     		ldr	r2, [r7, #12]
 1906 0ae8 531E     		subs	r3, r2, #1
 1907 0aea 34F923E0 		ldrsh	lr, [r4, r3, lsl #2]
 1908 0aee B7F84210 		ldrh	r1, [r7, #66]
 1909 0af2 04EB8304 		add	r4, r4, r3, lsl #2
 1910              	.LVL172:
 1911 0af6 B4F90240 		ldrsh	r4, [r4, #2]
 535:..\lvgl\lv_draw/lv_draw_line.c **** #endif
 1912              		.loc 1 535 0
 1913 0afa B9F90A30 		ldrsh	r3, [r9, #10]
 1914 0afe B7F84220 		ldrh	r2, [r7, #66]
 534:..\lvgl\lv_draw/lv_draw_line.c ****                 main_line->p_act.y - prev_p.y + 1, mask, style->line.color, opa);
 1915              		.loc 1 534 0
 1916 0b02 9A1A     		subs	r2, r3, r2
 1917 0b04 0132     		adds	r2, r2, #1
 1918 0b06 2144     		add	r1, r1, r4
 1919 0b08 7044     		add	r0, r0, lr
 1920 0b0a 7D68     		ldr	r5, [r7, #4]
 1921 0b0c 2844     		add	r0, r0, r5
 1922 0b0e 7C69     		ldr	r4, [r7, #20]
 1923 0b10 0194     		str	r4, [sp, #4]
 1924 0b12 96F83030 		ldrb	r3, [r6, #48]	@ zero_extendqisi2
 1925 0b16 8DF80030 		strb	r3, [sp]
 1926 0b1a 4346     		mov	r3, r8
 1927 0b1c 12B2     		sxth	r2, r2
ARM GAS  C:\Users\d3bug\AppData\Local\Temp\ccg1LD4z.s 			page 49


 1928 0b1e 09B2     		sxth	r1, r1
 1929 0b20 00B2     		sxth	r0, r0
 1930 0b22 FFF7FEFF 		bl	lv_draw_aa_ver_seg
 1931              	.LVL173:
 1932              	.L36:
 538:..\lvgl\lv_draw/lv_draw_line.c **** 
 1933              		.loc 1 538 0
 1934 0b26 4C37     		adds	r7, r7, #76
 1935              		.cfi_def_cfa_offset 36
 1936              	.LVL174:
 1937 0b28 BD46     		mov	sp, r7
 1938              		.cfi_def_cfa_register 13
 1939              	.LVL175:
 1940              		@ sp needed
 1941 0b2a BDE8F08F 		pop	{r4, r5, r6, r7, r8, r9, r10, fp, pc}
 1942              	.LVL176:
 1943              	.L95:
 1944 0b2e 00BF     		.align	2
 1945              	.L94:
 1946 0b30 00000000 		.word	fill_fp
 1947 0b34 00000000 		.word	px_fp
 1948              		.cfi_endproc
 1949              	.LFE16:
 1950              		.size	line_draw_skew, .-line_draw_skew
 1951              		.section	.text.lv_draw_line,"ax",%progbits
 1952              		.align	2
 1953              		.global	lv_draw_line
 1954              		.thumb
 1955              		.thumb_func
 1956              		.type	lv_draw_line, %function
 1957              	lv_draw_line:
 1958              	.LFB13:
  77:..\lvgl\lv_draw/lv_draw_line.c **** 
 1959              		.loc 1 77 0
 1960              		.cfi_startproc
 1961              		@ args = 4, pretend = 0, frame = 40
 1962              		@ frame_needed = 0, uses_anonymous_args = 0
 1963              	.LVL177:
 1964 0000 2DE9F041 		push	{r4, r5, r6, r7, r8, lr}
 1965              		.cfi_def_cfa_offset 24
 1966              		.cfi_offset 4, -24
 1967              		.cfi_offset 5, -20
 1968              		.cfi_offset 6, -16
 1969              		.cfi_offset 7, -12
 1970              		.cfi_offset 8, -8
 1971              		.cfi_offset 14, -4
 1972 0004 8CB0     		sub	sp, sp, #48
 1973              		.cfi_def_cfa_offset 72
 1974 0006 9DF84860 		ldrb	r6, [sp, #72]	@ zero_extendqisi2
  79:..\lvgl\lv_draw/lv_draw_line.c ****     if(point1->x == point2->x && point1->y == point2->y) return;
 1975              		.loc 1 79 0
 1976 000a B3F93240 		ldrsh	r4, [r3, #50]
 1977 000e 002C     		cmp	r4, #0
 1978 0010 00F0D780 		beq	.L96
  80:..\lvgl\lv_draw/lv_draw_line.c **** 
 1979              		.loc 1 80 0
 1980 0014 B0F90050 		ldrsh	r5, [r0]
ARM GAS  C:\Users\d3bug\AppData\Local\Temp\ccg1LD4z.s 			page 50


 1981 0018 B1F90040 		ldrsh	r4, [r1]
 1982 001c A542     		cmp	r5, r4
 1983 001e 06D1     		bne	.L98
  80:..\lvgl\lv_draw/lv_draw_line.c **** 
 1984              		.loc 1 80 0 is_stmt 0 discriminator 1
 1985 0020 B0F902E0 		ldrsh	lr, [r0, #2]
 1986 0024 B1F90270 		ldrsh	r7, [r1, #2]
 1987 0028 BE45     		cmp	lr, r7
 1988 002a 00F0CA80 		beq	.L96
 1989              	.L98:
  88:..\lvgl\lv_draw/lv_draw_line.c **** 
 1990              		.loc 1 88 0 is_stmt 1
 1991 002e C4EB050E 		rsb	lr, r4, r5
 1992 0032 BEF1000F 		cmp	lr, #0
 1993 0036 B8BF     		it	lt
 1994 0038 CEF1000E 		rsblt	lr, lr, #0
 1995 003c B0F90280 		ldrsh	r8, [r0, #2]
 1996 0040 B1F902C0 		ldrsh	ip, [r1, #2]
 1997 0044 CCEB0807 		rsb	r7, ip, r8
 1998 0048 002F     		cmp	r7, #0
 1999 004a B8BF     		it	lt
 2000 004c 7F42     		rsblt	r7, r7, #0
 2001 004e BE45     		cmp	lr, r7
 2002 0050 1BDD     		ble	.L99
  91:..\lvgl\lv_draw/lv_draw_line.c ****             p1.x = point1->x;
 2003              		.loc 1 91 0
 2004 0052 A542     		cmp	r5, r4
 2005 0054 0CDA     		bge	.L100
  92:..\lvgl\lv_draw/lv_draw_line.c ****             p1.y = point1->y;
 2006              		.loc 1 92 0
 2007 0056 ADF81050 		strh	r5, [sp, #16]	@ movhi
  93:..\lvgl\lv_draw/lv_draw_line.c ****             p2.x = point2->x;
 2008              		.loc 1 93 0
 2009 005a ADF81280 		strh	r8, [sp, #18]	@ movhi
  94:..\lvgl\lv_draw/lv_draw_line.c ****             p2.y = point2->y;
 2010              		.loc 1 94 0
 2011 005e B1F90000 		ldrsh	r0, [r1]
 2012              	.LVL178:
 2013 0062 ADF80C00 		strh	r0, [sp, #12]	@ movhi
  95:..\lvgl\lv_draw/lv_draw_line.c ****         } else {
 2014              		.loc 1 95 0
 2015 0066 B1F90210 		ldrsh	r1, [r1, #2]
 2016              	.LVL179:
 2017 006a ADF80E10 		strh	r1, [sp, #14]	@ movhi
 2018 006e 27E0     		b	.L101
 2019              	.LVL180:
 2020              	.L100:
  97:..\lvgl\lv_draw/lv_draw_line.c ****             p1.y = point2->y;
 2021              		.loc 1 97 0
 2022 0070 ADF81040 		strh	r4, [sp, #16]	@ movhi
  98:..\lvgl\lv_draw/lv_draw_line.c ****             p2.x = point1->x;
 2023              		.loc 1 98 0
 2024 0074 ADF812C0 		strh	ip, [sp, #18]	@ movhi
  99:..\lvgl\lv_draw/lv_draw_line.c ****             p2.y = point1->y;
 2025              		.loc 1 99 0
 2026 0078 B0F90010 		ldrsh	r1, [r0]
 2027              	.LVL181:
ARM GAS  C:\Users\d3bug\AppData\Local\Temp\ccg1LD4z.s 			page 51


 2028 007c ADF80C10 		strh	r1, [sp, #12]	@ movhi
 100:..\lvgl\lv_draw/lv_draw_line.c ****         }
 2029              		.loc 1 100 0
 2030 0080 B0F90210 		ldrsh	r1, [r0, #2]
 2031 0084 ADF80E10 		strh	r1, [sp, #14]	@ movhi
 2032 0088 1AE0     		b	.L101
 2033              	.LVL182:
 2034              	.L99:
 104:..\lvgl\lv_draw/lv_draw_line.c ****             p1.x = point1->x;
 2035              		.loc 1 104 0
 2036 008a E045     		cmp	r8, ip
 2037 008c 0CDA     		bge	.L102
 105:..\lvgl\lv_draw/lv_draw_line.c ****             p1.y = point1->y;
 2038              		.loc 1 105 0
 2039 008e ADF81050 		strh	r5, [sp, #16]	@ movhi
 106:..\lvgl\lv_draw/lv_draw_line.c ****             p2.x = point2->x;
 2040              		.loc 1 106 0
 2041 0092 ADF81280 		strh	r8, [sp, #18]	@ movhi
 107:..\lvgl\lv_draw/lv_draw_line.c ****             p2.y = point2->y;
 2042              		.loc 1 107 0
 2043 0096 B1F90000 		ldrsh	r0, [r1]
 2044              	.LVL183:
 2045 009a ADF80C00 		strh	r0, [sp, #12]	@ movhi
 108:..\lvgl\lv_draw/lv_draw_line.c ****         } else {
 2046              		.loc 1 108 0
 2047 009e B1F90210 		ldrsh	r1, [r1, #2]
 2048              	.LVL184:
 2049 00a2 ADF80E10 		strh	r1, [sp, #14]	@ movhi
 2050 00a6 0BE0     		b	.L101
 2051              	.LVL185:
 2052              	.L102:
 110:..\lvgl\lv_draw/lv_draw_line.c ****             p1.y = point2->y;
 2053              		.loc 1 110 0
 2054 00a8 ADF81040 		strh	r4, [sp, #16]	@ movhi
 111:..\lvgl\lv_draw/lv_draw_line.c ****             p2.x = point1->x;
 2055              		.loc 1 111 0
 2056 00ac ADF812C0 		strh	ip, [sp, #18]	@ movhi
 112:..\lvgl\lv_draw/lv_draw_line.c ****             p2.y = point1->y;
 2057              		.loc 1 112 0
 2058 00b0 B0F90010 		ldrsh	r1, [r0]
 2059              	.LVL186:
 2060 00b4 ADF80C10 		strh	r1, [sp, #12]	@ movhi
 113:..\lvgl\lv_draw/lv_draw_line.c ****         }
 2061              		.loc 1 113 0
 2062 00b8 B0F90210 		ldrsh	r1, [r0, #2]
 2063 00bc ADF80E10 		strh	r1, [sp, #14]	@ movhi
 2064              	.LVL187:
 2065              	.L101:
 2066 00c0 1C46     		mov	r4, r3
 2067 00c2 1546     		mov	r5, r2
 117:..\lvgl\lv_draw/lv_draw_line.c **** 
 2068              		.loc 1 117 0
 2069 00c4 03AA     		add	r2, sp, #12
 2070              	.LVL188:
 2071 00c6 04A9     		add	r1, sp, #16
 2072 00c8 05A8     		add	r0, sp, #20
 2073 00ca FFF7FEFF 		bl	line_init
ARM GAS  C:\Users\d3bug\AppData\Local\Temp\ccg1LD4z.s 			page 52


 2074              	.LVL189:
 121:..\lvgl\lv_draw/lv_draw_line.c ****         line_draw_hor(&main_line, mask, style, opa_scale);
 2075              		.loc 1 121 0
 2076 00ce BDF91610 		ldrsh	r1, [sp, #22]
 2077 00d2 BDF91A30 		ldrsh	r3, [sp, #26]
 2078 00d6 9942     		cmp	r1, r3
 2079 00d8 06D1     		bne	.L103
 122:..\lvgl\lv_draw/lv_draw_line.c ****     }
 2080              		.loc 1 122 0
 2081 00da 3346     		mov	r3, r6
 2082 00dc 2246     		mov	r2, r4
 2083 00de 2946     		mov	r1, r5
 2084 00e0 05A8     		add	r0, sp, #20
 2085 00e2 FFF7FEFF 		bl	line_draw_hor
 2086              	.LVL190:
 2087 00e6 6CE0     		b	.L96
 2088              	.L103:
 125:..\lvgl\lv_draw/lv_draw_line.c ****         line_draw_ver(&main_line, mask, style, opa_scale);
 2089              		.loc 1 125 0
 2090 00e8 BDF91400 		ldrsh	r0, [sp, #20]
 2091 00ec BDF91820 		ldrsh	r2, [sp, #24]
 2092 00f0 9042     		cmp	r0, r2
 2093 00f2 06D1     		bne	.L105
 126:..\lvgl\lv_draw/lv_draw_line.c ****     }
 2094              		.loc 1 126 0
 2095 00f4 3346     		mov	r3, r6
 2096 00f6 2246     		mov	r2, r4
 2097 00f8 2946     		mov	r1, r5
 2098 00fa 05A8     		add	r0, sp, #20
 2099 00fc FFF7FEFF 		bl	line_draw_ver
 2100              	.LVL191:
 2101 0100 5FE0     		b	.L96
 2102              	.L105:
 2103              	.LVL192:
 2104              	.LBB8:
 134:..\lvgl\lv_draw/lv_draw_line.c ****             if(main_line.p1.y < main_line.p2.y) {
 2105              		.loc 1 134 0
 2106 0102 9DF82C70 		ldrb	r7, [sp, #44]	@ zero_extendqisi2
 2107 0106 4FB3     		cbz	r7, .L106
 135:..\lvgl\lv_draw/lv_draw_line.c ****                 dir_ori = true;
 2108              		.loc 1 135 0
 2109 0108 9942     		cmp	r1, r3
 2110 010a 12DA     		bge	.L107
 2111              	.LVL193:
 137:..\lvgl\lv_draw/lv_draw_line.c ****                 p_tmp.y = main_line.p2.y - 1;
 2112              		.loc 1 137 0
 2113 010c ADF80820 		strh	r2, [sp, #8]	@ movhi
 138:..\lvgl\lv_draw/lv_draw_line.c ****                 line_init(&main_line, &p1, &p_tmp);
 2114              		.loc 1 138 0
 2115 0110 013B     		subs	r3, r3, #1
 2116 0112 ADF80A30 		strh	r3, [sp, #10]	@ movhi
 139:..\lvgl\lv_draw/lv_draw_line.c ****                 main_line.sy = LV_MATH_ABS(main_line.sy);   /*The sign can change if the line becom
 2117              		.loc 1 139 0
 2118 0116 02AA     		add	r2, sp, #8
 2119 0118 04A9     		add	r1, sp, #16
 2120 011a 05A8     		add	r0, sp, #20
 2121 011c FFF7FEFF 		bl	line_init
ARM GAS  C:\Users\d3bug\AppData\Local\Temp\ccg1LD4z.s 			page 53


 2122              	.LVL194:
 140:..\lvgl\lv_draw/lv_draw_line.c ****             }
 2123              		.loc 1 140 0
 2124 0120 BDF92630 		ldrsh	r3, [sp, #38]
 2125 0124 002B     		cmp	r3, #0
 2126 0126 B8BF     		it	lt
 2127 0128 5B42     		rsblt	r3, r3, #0
 2128 012a ADF82630 		strh	r3, [sp, #38]	@ movhi
 136:..\lvgl\lv_draw/lv_draw_line.c ****                 p_tmp.x = main_line.p2.x;
 2129              		.loc 1 136 0
 2130 012e 0121     		movs	r1, #1
 2131 0130 41E0     		b	.L108
 2132              	.LVL195:
 2133              	.L107:
 142:..\lvgl\lv_draw/lv_draw_line.c ****                 dir_ori = false;
 2134              		.loc 1 142 0
 2135 0132 9942     		cmp	r1, r3
 2136 0134 3CDD     		ble	.L111
 144:..\lvgl\lv_draw/lv_draw_line.c ****                 p_tmp.y = main_line.p2.y + 1;
 2137              		.loc 1 144 0
 2138 0136 ADF80820 		strh	r2, [sp, #8]	@ movhi
 145:..\lvgl\lv_draw/lv_draw_line.c ****                 line_init(&main_line, &p1, &p_tmp);
 2139              		.loc 1 145 0
 2140 013a 0133     		adds	r3, r3, #1
 2141 013c ADF80A30 		strh	r3, [sp, #10]	@ movhi
 146:..\lvgl\lv_draw/lv_draw_line.c ****                 main_line.sy = -LV_MATH_ABS(main_line.sy);  /*The sign can change if the line becom
 2142              		.loc 1 146 0
 2143 0140 02AA     		add	r2, sp, #8
 2144 0142 04A9     		add	r1, sp, #16
 2145 0144 05A8     		add	r0, sp, #20
 2146 0146 FFF7FEFF 		bl	line_init
 2147              	.LVL196:
 147:..\lvgl\lv_draw/lv_draw_line.c ****             }
 2148              		.loc 1 147 0
 2149 014a BDF92630 		ldrsh	r3, [sp, #38]
 2150 014e 002B     		cmp	r3, #0
 2151 0150 C8BF     		it	gt
 2152 0152 5B42     		rsbgt	r3, r3, #0
 2153 0154 ADF82630 		strh	r3, [sp, #38]	@ movhi
 143:..\lvgl\lv_draw/lv_draw_line.c ****                 p_tmp.x = main_line.p2.x;
 2154              		.loc 1 143 0
 2155 0158 0021     		movs	r1, #0
 2156 015a 2CE0     		b	.L108
 2157              	.L106:
 151:..\lvgl\lv_draw/lv_draw_line.c ****                 dir_ori = true;
 2158              		.loc 1 151 0
 2159 015c 9042     		cmp	r0, r2
 2160 015e 12DA     		bge	.L109
 2161              	.LVL197:
 153:..\lvgl\lv_draw/lv_draw_line.c ****                 p_tmp.y = main_line.p2.y;
 2162              		.loc 1 153 0
 2163 0160 013A     		subs	r2, r2, #1
 2164 0162 ADF80820 		strh	r2, [sp, #8]	@ movhi
 154:..\lvgl\lv_draw/lv_draw_line.c ****                 line_init(&main_line, &p1, &p_tmp);
 2165              		.loc 1 154 0
 2166 0166 ADF80A30 		strh	r3, [sp, #10]	@ movhi
 155:..\lvgl\lv_draw/lv_draw_line.c ****                 main_line.sx = LV_MATH_ABS(main_line.sx);   /*The sign can change if the line becom
ARM GAS  C:\Users\d3bug\AppData\Local\Temp\ccg1LD4z.s 			page 54


 2167              		.loc 1 155 0
 2168 016a 02AA     		add	r2, sp, #8
 2169 016c 04A9     		add	r1, sp, #16
 2170 016e 05A8     		add	r0, sp, #20
 2171 0170 FFF7FEFF 		bl	line_init
 2172              	.LVL198:
 156:..\lvgl\lv_draw/lv_draw_line.c ****             }
 2173              		.loc 1 156 0
 2174 0174 BDF92230 		ldrsh	r3, [sp, #34]
 2175 0178 002B     		cmp	r3, #0
 2176 017a B8BF     		it	lt
 2177 017c 5B42     		rsblt	r3, r3, #0
 2178 017e ADF82230 		strh	r3, [sp, #34]	@ movhi
 152:..\lvgl\lv_draw/lv_draw_line.c ****                 p_tmp.x = main_line.p2.x - 1;
 2179              		.loc 1 152 0
 2180 0182 0121     		movs	r1, #1
 2181 0184 17E0     		b	.L108
 2182              	.LVL199:
 2183              	.L109:
 158:..\lvgl\lv_draw/lv_draw_line.c ****                 dir_ori = false;
 2184              		.loc 1 158 0
 2185 0186 9042     		cmp	r0, r2
 2186 0188 14DD     		ble	.L112
 160:..\lvgl\lv_draw/lv_draw_line.c ****                 p_tmp.y = main_line.p2.y;
 2187              		.loc 1 160 0
 2188 018a 0132     		adds	r2, r2, #1
 2189 018c ADF80820 		strh	r2, [sp, #8]	@ movhi
 161:..\lvgl\lv_draw/lv_draw_line.c ****                 line_init(&main_line, &p1, &p_tmp);
 2190              		.loc 1 161 0
 2191 0190 ADF80A30 		strh	r3, [sp, #10]	@ movhi
 162:..\lvgl\lv_draw/lv_draw_line.c ****                 main_line.sx = -LV_MATH_ABS(main_line.sx);  /*The sign can change if the line becom
 2192              		.loc 1 162 0
 2193 0194 02AA     		add	r2, sp, #8
 2194 0196 04A9     		add	r1, sp, #16
 2195 0198 05A8     		add	r0, sp, #20
 2196 019a FFF7FEFF 		bl	line_init
 2197              	.LVL200:
 163:..\lvgl\lv_draw/lv_draw_line.c ****             }
 2198              		.loc 1 163 0
 2199 019e BDF92230 		ldrsh	r3, [sp, #34]
 2200 01a2 002B     		cmp	r3, #0
 2201 01a4 C8BF     		it	gt
 2202 01a6 5B42     		rsbgt	r3, r3, #0
 2203 01a8 ADF82230 		strh	r3, [sp, #34]	@ movhi
 159:..\lvgl\lv_draw/lv_draw_line.c ****                 p_tmp.x = main_line.p2.x + 1;
 2204              		.loc 1 159 0
 2205 01ac 0021     		movs	r1, #0
 2206 01ae 02E0     		b	.L108
 2207              	.L111:
 130:..\lvgl\lv_draw/lv_draw_line.c **** #if LV_ANTIALIAS
 2208              		.loc 1 130 0
 2209 01b0 0021     		movs	r1, #0
 2210 01b2 00E0     		b	.L108
 2211              	.L112:
 2212 01b4 0021     		movs	r1, #0
 2213              	.LVL201:
 2214              	.L108:
ARM GAS  C:\Users\d3bug\AppData\Local\Temp\ccg1LD4z.s 			page 55


 167:..\lvgl\lv_draw/lv_draw_line.c ****     }
 2215              		.loc 1 167 0 discriminator 1
 2216 01b6 0096     		str	r6, [sp]
 2217 01b8 2346     		mov	r3, r4
 2218 01ba 2A46     		mov	r2, r5
 2219 01bc 05A8     		add	r0, sp, #20
 2220 01be FFF7FEFF 		bl	line_draw_skew
 2221              	.LVL202:
 2222              	.L96:
 2223              	.LBE8:
 169:..\lvgl\lv_draw/lv_draw_line.c **** 
 2224              		.loc 1 169 0
 2225 01c2 0CB0     		add	sp, sp, #48
 2226              		.cfi_def_cfa_offset 24
 2227              		@ sp needed
 2228 01c4 BDE8F081 		pop	{r4, r5, r6, r7, r8, pc}
 2229              		.cfi_endproc
 2230              	.LFE13:
 2231              		.size	lv_draw_line, .-lv_draw_line
 2232              		.text
 2233              	.Letext0:
 2234              		.file 2 "c:\\program files (x86)\\cypress\\psoc creator\\4.2\\psoc creator\\import\\gnu\\arm\\5.4.
 2235              		.file 3 "c:\\program files (x86)\\cypress\\psoc creator\\4.2\\psoc creator\\import\\gnu\\arm\\5.4.
 2236              		.file 4 "..\\lvgl\\lv_draw\\../lv_core/../lv_misc/lv_color.h"
 2237              		.file 5 "..\\lvgl\\lv_draw\\../lv_core/../lv_misc/lv_area.h"
 2238              		.file 6 "..\\lvgl\\lv_draw\\../lv_core/../lv_misc/lv_font.h"
 2239              		.file 7 "..\\lvgl\\lv_draw\\../lv_core/lv_style.h"
 2240              		.file 8 "..\\lvgl\\lv_draw\\lv_draw.h"
 2241              		.section	.debug_info,"",%progbits
 2242              	.Ldebug_info0:
 2243 0000 5C100000 		.4byte	0x105c
 2244 0004 0400     		.2byte	0x4
 2245 0006 00000000 		.4byte	.Ldebug_abbrev0
 2246 000a 04       		.byte	0x4
 2247 000b 01       		.uleb128 0x1
 2248 000c 63010000 		.4byte	.LASF124
 2249 0010 0C       		.byte	0xc
 2250 0011 EC040000 		.4byte	.LASF125
 2251 0015 25020000 		.4byte	.LASF126
 2252 0019 00000000 		.4byte	.Ldebug_ranges0+0
 2253 001d 00000000 		.4byte	0
 2254 0021 00000000 		.4byte	.Ldebug_line0
 2255 0025 02       		.uleb128 0x2
 2256 0026 01       		.byte	0x1
 2257 0027 06       		.byte	0x6
 2258 0028 56050000 		.4byte	.LASF0
 2259 002c 03       		.uleb128 0x3
 2260 002d 2A040000 		.4byte	.LASF2
 2261 0031 02       		.byte	0x2
 2262 0032 1D       		.byte	0x1d
 2263 0033 37000000 		.4byte	0x37
 2264 0037 02       		.uleb128 0x2
 2265 0038 01       		.byte	0x1
 2266 0039 08       		.byte	0x8
 2267 003a CE040000 		.4byte	.LASF1
 2268 003e 03       		.uleb128 0x3
 2269 003f 17030000 		.4byte	.LASF3
ARM GAS  C:\Users\d3bug\AppData\Local\Temp\ccg1LD4z.s 			page 56


 2270 0043 02       		.byte	0x2
 2271 0044 29       		.byte	0x29
 2272 0045 49000000 		.4byte	0x49
 2273 0049 02       		.uleb128 0x2
 2274 004a 02       		.byte	0x2
 2275 004b 05       		.byte	0x5
 2276 004c C1030000 		.4byte	.LASF4
 2277 0050 03       		.uleb128 0x3
 2278 0051 33010000 		.4byte	.LASF5
 2279 0055 02       		.byte	0x2
 2280 0056 2B       		.byte	0x2b
 2281 0057 5B000000 		.4byte	0x5b
 2282 005b 02       		.uleb128 0x2
 2283 005c 02       		.byte	0x2
 2284 005d 07       		.byte	0x7
 2285 005e 62050000 		.4byte	.LASF6
 2286 0062 02       		.uleb128 0x2
 2287 0063 04       		.byte	0x4
 2288 0064 05       		.byte	0x5
 2289 0065 D4030000 		.4byte	.LASF7
 2290 0069 03       		.uleb128 0x3
 2291 006a DC040000 		.4byte	.LASF8
 2292 006e 02       		.byte	0x2
 2293 006f 41       		.byte	0x41
 2294 0070 74000000 		.4byte	0x74
 2295 0074 02       		.uleb128 0x2
 2296 0075 04       		.byte	0x4
 2297 0076 07       		.byte	0x7
 2298 0077 5A040000 		.4byte	.LASF9
 2299 007b 02       		.uleb128 0x2
 2300 007c 08       		.byte	0x8
 2301 007d 05       		.byte	0x5
 2302 007e ED020000 		.4byte	.LASF10
 2303 0082 02       		.uleb128 0x2
 2304 0083 08       		.byte	0x8
 2305 0084 07       		.byte	0x7
 2306 0085 09010000 		.4byte	.LASF11
 2307 0089 04       		.uleb128 0x4
 2308 008a 04       		.byte	0x4
 2309 008b 05       		.byte	0x5
 2310 008c 696E7400 		.ascii	"int\000"
 2311 0090 02       		.uleb128 0x2
 2312 0091 04       		.byte	0x4
 2313 0092 07       		.byte	0x7
 2314 0093 4D000000 		.4byte	.LASF12
 2315 0097 02       		.uleb128 0x2
 2316 0098 08       		.byte	0x8
 2317 0099 04       		.byte	0x4
 2318 009a 79030000 		.4byte	.LASF13
 2319 009e 02       		.uleb128 0x2
 2320 009f 04       		.byte	0x4
 2321 00a0 07       		.byte	0x7
 2322 00a1 51040000 		.4byte	.LASF14
 2323 00a5 02       		.uleb128 0x2
 2324 00a6 01       		.byte	0x1
 2325 00a7 08       		.byte	0x8
 2326 00a8 20020000 		.4byte	.LASF15
ARM GAS  C:\Users\d3bug\AppData\Local\Temp\ccg1LD4z.s 			page 57


 2327 00ac 03       		.uleb128 0x3
 2328 00ad 9A020000 		.4byte	.LASF16
 2329 00b1 03       		.byte	0x3
 2330 00b2 18       		.byte	0x18
 2331 00b3 2C000000 		.4byte	0x2c
 2332 00b7 03       		.uleb128 0x3
 2333 00b8 F1000000 		.4byte	.LASF17
 2334 00bc 03       		.byte	0x3
 2335 00bd 20       		.byte	0x20
 2336 00be 3E000000 		.4byte	0x3e
 2337 00c2 03       		.uleb128 0x3
 2338 00c3 85030000 		.4byte	.LASF18
 2339 00c7 03       		.byte	0x3
 2340 00c8 24       		.byte	0x24
 2341 00c9 50000000 		.4byte	0x50
 2342 00cd 03       		.uleb128 0x3
 2343 00ce D0000000 		.4byte	.LASF19
 2344 00d2 03       		.byte	0x3
 2345 00d3 30       		.byte	0x30
 2346 00d4 69000000 		.4byte	0x69
 2347 00d8 05       		.uleb128 0x5
 2348 00d9 01       		.byte	0x1
 2349 00da 37000000 		.4byte	0x37
 2350 00de 04       		.byte	0x4
 2351 00df 3C       		.byte	0x3c
 2352 00e0 33010000 		.4byte	0x133
 2353 00e4 06       		.uleb128 0x6
 2354 00e5 25010000 		.4byte	.LASF20
 2355 00e9 00       		.byte	0
 2356 00ea 06       		.uleb128 0x6
 2357 00eb 44000000 		.4byte	.LASF21
 2358 00ef 00       		.byte	0
 2359 00f0 06       		.uleb128 0x6
 2360 00f1 E3020000 		.4byte	.LASF22
 2361 00f5 19       		.byte	0x19
 2362 00f6 06       		.uleb128 0x6
 2363 00f7 2D030000 		.4byte	.LASF23
 2364 00fb 33       		.byte	0x33
 2365 00fc 06       		.uleb128 0x6
 2366 00fd 6F030000 		.4byte	.LASF24
 2367 0101 4C       		.byte	0x4c
 2368 0102 06       		.uleb128 0x6
 2369 0103 E7030000 		.4byte	.LASF25
 2370 0107 66       		.byte	0x66
 2371 0108 06       		.uleb128 0x6
 2372 0109 34040000 		.4byte	.LASF26
 2373 010d 7F       		.byte	0x7f
 2374 010e 06       		.uleb128 0x6
 2375 010f AC040000 		.4byte	.LASF27
 2376 0113 99       		.byte	0x99
 2377 0114 06       		.uleb128 0x6
 2378 0115 31050000 		.4byte	.LASF28
 2379 0119 B2       		.byte	0xb2
 2380 011a 06       		.uleb128 0x6
 2381 011b 8C050000 		.4byte	.LASF29
 2382 011f CC       		.byte	0xcc
 2383 0120 06       		.uleb128 0x6
ARM GAS  C:\Users\d3bug\AppData\Local\Temp\ccg1LD4z.s 			page 58


 2384 0121 27000000 		.4byte	.LASF30
 2385 0125 E5       		.byte	0xe5
 2386 0126 06       		.uleb128 0x6
 2387 0127 1F040000 		.4byte	.LASF31
 2388 012b FF       		.byte	0xff
 2389 012c 06       		.uleb128 0x6
 2390 012d 00000000 		.4byte	.LASF32
 2391 0131 FF       		.byte	0xff
 2392 0132 00       		.byte	0
 2393 0133 07       		.uleb128 0x7
 2394 0134 01       		.byte	0x1
 2395 0135 04       		.byte	0x4
 2396 0136 5F       		.byte	0x5f
 2397 0137 74010000 		.4byte	0x174
 2398 013b 08       		.uleb128 0x8
 2399 013c 0F040000 		.4byte	.LASF33
 2400 0140 04       		.byte	0x4
 2401 0141 61       		.byte	0x61
 2402 0142 AC000000 		.4byte	0xac
 2403 0146 01       		.byte	0x1
 2404 0147 01       		.byte	0x1
 2405 0148 07       		.byte	0x7
 2406 0149 08       		.uleb128 0x8
 2407 014a 69030000 		.4byte	.LASF34
 2408 014e 04       		.byte	0x4
 2409 014f 62       		.byte	0x62
 2410 0150 AC000000 		.4byte	0xac
 2411 0154 01       		.byte	0x1
 2412 0155 01       		.byte	0x1
 2413 0156 07       		.byte	0x7
 2414 0157 09       		.uleb128 0x9
 2415 0158 72656400 		.ascii	"red\000"
 2416 015c 04       		.byte	0x4
 2417 015d 63       		.byte	0x63
 2418 015e AC000000 		.4byte	0xac
 2419 0162 01       		.byte	0x1
 2420 0163 01       		.byte	0x1
 2421 0164 07       		.byte	0x7
 2422 0165 08       		.uleb128 0x8
 2423 0166 0D000000 		.4byte	.LASF35
 2424 016a 04       		.byte	0x4
 2425 016b 64       		.byte	0x64
 2426 016c AC000000 		.4byte	0xac
 2427 0170 01       		.byte	0x1
 2428 0171 01       		.byte	0x1
 2429 0172 07       		.byte	0x7
 2430 0173 00       		.byte	0
 2431 0174 03       		.uleb128 0x3
 2432 0175 8E020000 		.4byte	.LASF36
 2433 0179 04       		.byte	0x4
 2434 017a 65       		.byte	0x65
 2435 017b 33010000 		.4byte	0x133
 2436 017f 03       		.uleb128 0x3
 2437 0180 5E030000 		.4byte	.LASF37
 2438 0184 04       		.byte	0x4
 2439 0185 92       		.byte	0x92
 2440 0186 74010000 		.4byte	0x174
ARM GAS  C:\Users\d3bug\AppData\Local\Temp\ccg1LD4z.s 			page 59


 2441 018a 03       		.uleb128 0x3
 2442 018b CB030000 		.4byte	.LASF38
 2443 018f 04       		.byte	0x4
 2444 0190 A0       		.byte	0xa0
 2445 0191 AC000000 		.4byte	0xac
 2446 0195 03       		.uleb128 0x3
 2447 0196 14040000 		.4byte	.LASF39
 2448 019a 05       		.byte	0x5
 2449 019b 1E       		.byte	0x1e
 2450 019c B7000000 		.4byte	0xb7
 2451 01a0 0A       		.uleb128 0xa
 2452 01a1 04       		.byte	0x4
 2453 01a2 05       		.byte	0x5
 2454 01a3 20       		.byte	0x20
 2455 01a4 BD010000 		.4byte	0x1bd
 2456 01a8 0B       		.uleb128 0xb
 2457 01a9 7800     		.ascii	"x\000"
 2458 01ab 05       		.byte	0x5
 2459 01ac 22       		.byte	0x22
 2460 01ad 95010000 		.4byte	0x195
 2461 01b1 00       		.byte	0
 2462 01b2 0B       		.uleb128 0xb
 2463 01b3 7900     		.ascii	"y\000"
 2464 01b5 05       		.byte	0x5
 2465 01b6 23       		.byte	0x23
 2466 01b7 95010000 		.4byte	0x195
 2467 01bb 02       		.byte	0x2
 2468 01bc 00       		.byte	0
 2469 01bd 03       		.uleb128 0x3
 2470 01be 70000000 		.4byte	.LASF40
 2471 01c2 05       		.byte	0x5
 2472 01c3 24       		.byte	0x24
 2473 01c4 A0010000 		.4byte	0x1a0
 2474 01c8 0A       		.uleb128 0xa
 2475 01c9 08       		.byte	0x8
 2476 01ca 05       		.byte	0x5
 2477 01cb 26       		.byte	0x26
 2478 01cc FD010000 		.4byte	0x1fd
 2479 01d0 0B       		.uleb128 0xb
 2480 01d1 783100   		.ascii	"x1\000"
 2481 01d4 05       		.byte	0x5
 2482 01d5 28       		.byte	0x28
 2483 01d6 95010000 		.4byte	0x195
 2484 01da 00       		.byte	0
 2485 01db 0B       		.uleb128 0xb
 2486 01dc 793100   		.ascii	"y1\000"
 2487 01df 05       		.byte	0x5
 2488 01e0 29       		.byte	0x29
 2489 01e1 95010000 		.4byte	0x195
 2490 01e5 02       		.byte	0x2
 2491 01e6 0B       		.uleb128 0xb
 2492 01e7 783200   		.ascii	"x2\000"
 2493 01ea 05       		.byte	0x5
 2494 01eb 2A       		.byte	0x2a
 2495 01ec 95010000 		.4byte	0x195
 2496 01f0 04       		.byte	0x4
 2497 01f1 0B       		.uleb128 0xb
ARM GAS  C:\Users\d3bug\AppData\Local\Temp\ccg1LD4z.s 			page 60


 2498 01f2 793200   		.ascii	"y2\000"
 2499 01f5 05       		.byte	0x5
 2500 01f6 2B       		.byte	0x2b
 2501 01f7 95010000 		.4byte	0x195
 2502 01fb 06       		.byte	0x6
 2503 01fc 00       		.byte	0
 2504 01fd 03       		.uleb128 0x3
 2505 01fe 4C050000 		.4byte	.LASF41
 2506 0202 05       		.byte	0x5
 2507 0203 2C       		.byte	0x2c
 2508 0204 C8010000 		.4byte	0x1c8
 2509 0208 0A       		.uleb128 0xa
 2510 0209 04       		.byte	0x4
 2511 020a 06       		.byte	0x6
 2512 020b 25       		.byte	0x25
 2513 020c 2F020000 		.4byte	0x22f
 2514 0210 0C       		.uleb128 0xc
 2515 0211 E7040000 		.4byte	.LASF42
 2516 0215 06       		.byte	0x6
 2517 0216 27       		.byte	0x27
 2518 0217 CD000000 		.4byte	0xcd
 2519 021b 04       		.byte	0x4
 2520 021c 08       		.byte	0x8
 2521 021d 18       		.byte	0x18
 2522 021e 00       		.byte	0
 2523 021f 0C       		.uleb128 0xc
 2524 0220 84040000 		.4byte	.LASF43
 2525 0224 06       		.byte	0x6
 2526 0225 28       		.byte	0x28
 2527 0226 CD000000 		.4byte	0xcd
 2528 022a 04       		.byte	0x4
 2529 022b 18       		.byte	0x18
 2530 022c 00       		.byte	0
 2531 022d 00       		.byte	0
 2532 022e 00       		.byte	0
 2533 022f 03       		.uleb128 0x3
 2534 0230 7A020000 		.4byte	.LASF44
 2535 0234 06       		.byte	0x6
 2536 0235 29       		.byte	0x29
 2537 0236 08020000 		.4byte	0x208
 2538 023a 0D       		.uleb128 0xd
 2539 023b 05020000 		.4byte	.LASF127
 2540 023f 28       		.byte	0x28
 2541 0240 06       		.byte	0x6
 2542 0241 31       		.byte	0x31
 2543 0242 E0020000 		.4byte	0x2e0
 2544 0246 0E       		.uleb128 0xe
 2545 0247 A0050000 		.4byte	.LASF45
 2546 024b 06       		.byte	0x6
 2547 024c 33       		.byte	0x33
 2548 024d CD000000 		.4byte	0xcd
 2549 0251 00       		.byte	0
 2550 0252 0E       		.uleb128 0xe
 2551 0253 BF050000 		.4byte	.LASF46
 2552 0257 06       		.byte	0x6
 2553 0258 34       		.byte	0x34
 2554 0259 CD000000 		.4byte	0xcd
ARM GAS  C:\Users\d3bug\AppData\Local\Temp\ccg1LD4z.s 			page 61


 2555 025d 04       		.byte	0x4
 2556 025e 0E       		.uleb128 0xe
 2557 025f 37030000 		.4byte	.LASF47
 2558 0263 06       		.byte	0x6
 2559 0264 35       		.byte	0x35
 2560 0265 E0020000 		.4byte	0x2e0
 2561 0269 08       		.byte	0x8
 2562 026a 0E       		.uleb128 0xe
 2563 026b 82050000 		.4byte	.LASF48
 2564 026f 06       		.byte	0x6
 2565 0270 36       		.byte	0x36
 2566 0271 EB020000 		.4byte	0x2eb
 2567 0275 0C       		.byte	0xc
 2568 0276 0E       		.uleb128 0xe
 2569 0277 AF000000 		.4byte	.LASF49
 2570 027b 06       		.byte	0x6
 2571 027c 37       		.byte	0x37
 2572 027d F6020000 		.4byte	0x2f6
 2573 0281 10       		.byte	0x10
 2574 0282 0E       		.uleb128 0xe
 2575 0283 65000000 		.4byte	.LASF50
 2576 0287 06       		.byte	0x6
 2577 0288 38       		.byte	0x38
 2578 0289 20030000 		.4byte	0x320
 2579 028d 14       		.byte	0x14
 2580 028e 0E       		.uleb128 0xe
 2581 028f 3B050000 		.4byte	.LASF51
 2582 0293 06       		.byte	0x6
 2583 0294 39       		.byte	0x39
 2584 0295 3A030000 		.4byte	0x33a
 2585 0299 18       		.byte	0x18
 2586 029a 0E       		.uleb128 0xe
 2587 029b 53010000 		.4byte	.LASF52
 2588 029f 06       		.byte	0x6
 2589 02a0 3A       		.byte	0x3a
 2590 02a1 40030000 		.4byte	0x340
 2591 02a5 1C       		.byte	0x1c
 2592 02a6 0C       		.uleb128 0xc
 2593 02a7 0A040000 		.4byte	.LASF53
 2594 02ab 06       		.byte	0x6
 2595 02ac 3B       		.byte	0x3b
 2596 02ad CD000000 		.4byte	0xcd
 2597 02b1 04       		.byte	0x4
 2598 02b2 08       		.byte	0x8
 2599 02b3 18       		.byte	0x18
 2600 02b4 20       		.byte	0x20
 2601 02b5 0F       		.uleb128 0xf
 2602 02b6 62707000 		.ascii	"bpp\000"
 2603 02ba 06       		.byte	0x6
 2604 02bb 3C       		.byte	0x3c
 2605 02bc CD000000 		.4byte	0xcd
 2606 02c0 04       		.byte	0x4
 2607 02c1 04       		.byte	0x4
 2608 02c2 14       		.byte	0x14
 2609 02c3 20       		.byte	0x20
 2610 02c4 0C       		.uleb128 0xc
 2611 02c5 7A040000 		.4byte	.LASF54
ARM GAS  C:\Users\d3bug\AppData\Local\Temp\ccg1LD4z.s 			page 62


 2612 02c9 06       		.byte	0x6
 2613 02ca 3D       		.byte	0x3d
 2614 02cb CD000000 		.4byte	0xcd
 2615 02cf 04       		.byte	0x4
 2616 02d0 08       		.byte	0x8
 2617 02d1 0C       		.byte	0xc
 2618 02d2 20       		.byte	0x20
 2619 02d3 0E       		.uleb128 0xe
 2620 02d4 FF000000 		.4byte	.LASF55
 2621 02d8 06       		.byte	0x6
 2622 02d9 3E       		.byte	0x3e
 2623 02da C2000000 		.4byte	0xc2
 2624 02de 24       		.byte	0x24
 2625 02df 00       		.byte	0
 2626 02e0 10       		.uleb128 0x10
 2627 02e1 04       		.byte	0x4
 2628 02e2 E6020000 		.4byte	0x2e6
 2629 02e6 11       		.uleb128 0x11
 2630 02e7 AC000000 		.4byte	0xac
 2631 02eb 10       		.uleb128 0x10
 2632 02ec 04       		.byte	0x4
 2633 02ed F1020000 		.4byte	0x2f1
 2634 02f1 11       		.uleb128 0x11
 2635 02f2 2F020000 		.4byte	0x22f
 2636 02f6 10       		.uleb128 0x10
 2637 02f7 04       		.byte	0x4
 2638 02f8 FC020000 		.4byte	0x2fc
 2639 02fc 11       		.uleb128 0x11
 2640 02fd CD000000 		.4byte	0xcd
 2641 0301 12       		.uleb128 0x12
 2642 0302 E0020000 		.4byte	0x2e0
 2643 0306 15030000 		.4byte	0x315
 2644 030a 13       		.uleb128 0x13
 2645 030b 15030000 		.4byte	0x315
 2646 030f 13       		.uleb128 0x13
 2647 0310 CD000000 		.4byte	0xcd
 2648 0314 00       		.byte	0
 2649 0315 10       		.uleb128 0x10
 2650 0316 04       		.byte	0x4
 2651 0317 1B030000 		.4byte	0x31b
 2652 031b 11       		.uleb128 0x11
 2653 031c 3A020000 		.4byte	0x23a
 2654 0320 10       		.uleb128 0x10
 2655 0321 04       		.byte	0x4
 2656 0322 01030000 		.4byte	0x301
 2657 0326 12       		.uleb128 0x12
 2658 0327 B7000000 		.4byte	0xb7
 2659 032b 3A030000 		.4byte	0x33a
 2660 032f 13       		.uleb128 0x13
 2661 0330 15030000 		.4byte	0x315
 2662 0334 13       		.uleb128 0x13
 2663 0335 CD000000 		.4byte	0xcd
 2664 0339 00       		.byte	0
 2665 033a 10       		.uleb128 0x10
 2666 033b 04       		.byte	0x4
 2667 033c 26030000 		.4byte	0x326
 2668 0340 10       		.uleb128 0x10
ARM GAS  C:\Users\d3bug\AppData\Local\Temp\ccg1LD4z.s 			page 63


 2669 0341 04       		.byte	0x4
 2670 0342 3A020000 		.4byte	0x23a
 2671 0346 03       		.uleb128 0x3
 2672 0347 9F030000 		.4byte	.LASF56
 2673 034b 06       		.byte	0x6
 2674 034c 3F       		.byte	0x3f
 2675 034d 3A020000 		.4byte	0x23a
 2676 0351 03       		.uleb128 0x3
 2677 0352 AE050000 		.4byte	.LASF57
 2678 0356 07       		.byte	0x7
 2679 0357 2A       		.byte	0x2a
 2680 0358 AC000000 		.4byte	0xac
 2681 035c 03       		.uleb128 0x3
 2682 035d B8020000 		.4byte	.LASF58
 2683 0361 07       		.byte	0x7
 2684 0362 32       		.byte	0x32
 2685 0363 AC000000 		.4byte	0xac
 2686 0367 0A       		.uleb128 0xa
 2687 0368 06       		.byte	0x6
 2688 0369 07       		.byte	0x7
 2689 036a 3E       		.byte	0x3e
 2690 036b A0030000 		.4byte	0x3a0
 2691 036f 0E       		.uleb128 0xe
 2692 0370 5D010000 		.4byte	.LASF59
 2693 0374 07       		.byte	0x7
 2694 0375 3F       		.byte	0x3f
 2695 0376 7F010000 		.4byte	0x17f
 2696 037a 00       		.byte	0
 2697 037b 0E       		.uleb128 0xe
 2698 037c F9010000 		.4byte	.LASF60
 2699 0380 07       		.byte	0x7
 2700 0381 40       		.byte	0x40
 2701 0382 95010000 		.4byte	0x195
 2702 0386 02       		.byte	0x2
 2703 0387 0E       		.uleb128 0xe
 2704 0388 20010000 		.4byte	.LASF61
 2705 038c 07       		.byte	0x7
 2706 038d 41       		.byte	0x41
 2707 038e 51030000 		.4byte	0x351
 2708 0392 04       		.byte	0x4
 2709 0393 0B       		.uleb128 0xb
 2710 0394 6F706100 		.ascii	"opa\000"
 2711 0398 07       		.byte	0x7
 2712 0399 42       		.byte	0x42
 2713 039a 8A010000 		.4byte	0x18a
 2714 039e 05       		.byte	0x5
 2715 039f 00       		.byte	0
 2716 03a0 0A       		.uleb128 0xa
 2717 03a1 06       		.byte	0x6
 2718 03a2 07       		.byte	0x7
 2719 03a3 45       		.byte	0x45
 2720 03a4 CD030000 		.4byte	0x3cd
 2721 03a8 0E       		.uleb128 0xe
 2722 03a9 5D010000 		.4byte	.LASF59
 2723 03ad 07       		.byte	0x7
 2724 03ae 46       		.byte	0x46
 2725 03af 7F010000 		.4byte	0x17f
ARM GAS  C:\Users\d3bug\AppData\Local\Temp\ccg1LD4z.s 			page 64


 2726 03b3 00       		.byte	0
 2727 03b4 0E       		.uleb128 0xe
 2728 03b5 F9010000 		.4byte	.LASF60
 2729 03b9 07       		.byte	0x7
 2730 03ba 47       		.byte	0x47
 2731 03bb 95010000 		.4byte	0x195
 2732 03bf 02       		.byte	0x2
 2733 03c0 0E       		.uleb128 0xe
 2734 03c1 B6040000 		.4byte	.LASF62
 2735 03c5 07       		.byte	0x7
 2736 03c6 48       		.byte	0x48
 2737 03c7 5C030000 		.4byte	0x35c
 2738 03cb 04       		.byte	0x4
 2739 03cc 00       		.byte	0
 2740 03cd 0A       		.uleb128 0xa
 2741 03ce 06       		.byte	0x6
 2742 03cf 07       		.byte	0x7
 2743 03d0 4B       		.byte	0x4b
 2744 03d1 FA030000 		.4byte	0x3fa
 2745 03d5 0B       		.uleb128 0xb
 2746 03d6 76657200 		.ascii	"ver\000"
 2747 03da 07       		.byte	0x7
 2748 03db 4C       		.byte	0x4c
 2749 03dc 95010000 		.4byte	0x195
 2750 03e0 00       		.byte	0
 2751 03e1 0B       		.uleb128 0xb
 2752 03e2 686F7200 		.ascii	"hor\000"
 2753 03e6 07       		.byte	0x7
 2754 03e7 4D       		.byte	0x4d
 2755 03e8 95010000 		.4byte	0x195
 2756 03ec 02       		.byte	0x2
 2757 03ed 0E       		.uleb128 0xe
 2758 03ee CA000000 		.4byte	.LASF63
 2759 03f2 07       		.byte	0x7
 2760 03f3 4E       		.byte	0x4e
 2761 03f4 95010000 		.4byte	0x195
 2762 03f8 04       		.byte	0x4
 2763 03f9 00       		.byte	0
 2764 03fa 0A       		.uleb128 0xa
 2765 03fb 1A       		.byte	0x1a
 2766 03fc 07       		.byte	0x7
 2767 03fd 38       		.byte	0x38
 2768 03fe 66040000 		.4byte	0x466
 2769 0402 0E       		.uleb128 0xe
 2770 0403 B6030000 		.4byte	.LASF64
 2771 0407 07       		.byte	0x7
 2772 0408 39       		.byte	0x39
 2773 0409 7F010000 		.4byte	0x17f
 2774 040d 00       		.byte	0
 2775 040e 0E       		.uleb128 0xe
 2776 040f 94030000 		.4byte	.LASF65
 2777 0413 07       		.byte	0x7
 2778 0414 3A       		.byte	0x3a
 2779 0415 7F010000 		.4byte	0x17f
 2780 0419 01       		.byte	0x1
 2781 041a 0E       		.uleb128 0xe
 2782 041b 96040000 		.4byte	.LASF66
ARM GAS  C:\Users\d3bug\AppData\Local\Temp\ccg1LD4z.s 			page 65


 2783 041f 07       		.byte	0x7
 2784 0420 3B       		.byte	0x3b
 2785 0421 95010000 		.4byte	0x195
 2786 0425 02       		.byte	0x2
 2787 0426 0B       		.uleb128 0xb
 2788 0427 6F706100 		.ascii	"opa\000"
 2789 042b 07       		.byte	0x7
 2790 042c 3C       		.byte	0x3c
 2791 042d 8A010000 		.4byte	0x18a
 2792 0431 04       		.byte	0x4
 2793 0432 0E       		.uleb128 0xe
 2794 0433 3E010000 		.4byte	.LASF67
 2795 0437 07       		.byte	0x7
 2796 0438 43       		.byte	0x43
 2797 0439 67030000 		.4byte	0x367
 2798 043d 06       		.byte	0x6
 2799 043e 0E       		.uleb128 0xe
 2800 043f 45050000 		.4byte	.LASF68
 2801 0443 07       		.byte	0x7
 2802 0444 49       		.byte	0x49
 2803 0445 A0030000 		.4byte	0x3a0
 2804 0449 0C       		.byte	0xc
 2805 044a 0E       		.uleb128 0xe
 2806 044b 01030000 		.4byte	.LASF69
 2807 044f 07       		.byte	0x7
 2808 0450 4F       		.byte	0x4f
 2809 0451 CD030000 		.4byte	0x3cd
 2810 0455 12       		.byte	0x12
 2811 0456 0C       		.uleb128 0xc
 2812 0457 6C040000 		.4byte	.LASF70
 2813 045b 07       		.byte	0x7
 2814 045c 51       		.byte	0x51
 2815 045d AC000000 		.4byte	0xac
 2816 0461 01       		.byte	0x1
 2817 0462 01       		.byte	0x1
 2818 0463 07       		.byte	0x7
 2819 0464 18       		.byte	0x18
 2820 0465 00       		.byte	0
 2821 0466 0A       		.uleb128 0xa
 2822 0467 10       		.byte	0x10
 2823 0468 07       		.byte	0x7
 2824 0469 55       		.byte	0x55
 2825 046a AB040000 		.4byte	0x4ab
 2826 046e 0E       		.uleb128 0xe
 2827 046f 5D010000 		.4byte	.LASF59
 2828 0473 07       		.byte	0x7
 2829 0474 56       		.byte	0x56
 2830 0475 7F010000 		.4byte	0x17f
 2831 0479 00       		.byte	0
 2832 047a 0E       		.uleb128 0xe
 2833 047b 4C040000 		.4byte	.LASF71
 2834 047f 07       		.byte	0x7
 2835 0480 57       		.byte	0x57
 2836 0481 AB040000 		.4byte	0x4ab
 2837 0485 04       		.byte	0x4
 2838 0486 0E       		.uleb128 0xe
 2839 0487 A9030000 		.4byte	.LASF72
ARM GAS  C:\Users\d3bug\AppData\Local\Temp\ccg1LD4z.s 			page 66


 2840 048b 07       		.byte	0x7
 2841 048c 58       		.byte	0x58
 2842 048d 95010000 		.4byte	0x195
 2843 0491 08       		.byte	0x8
 2844 0492 0E       		.uleb128 0xe
 2845 0493 15020000 		.4byte	.LASF73
 2846 0497 07       		.byte	0x7
 2847 0498 59       		.byte	0x59
 2848 0499 95010000 		.4byte	0x195
 2849 049d 0A       		.byte	0xa
 2850 049e 0B       		.uleb128 0xb
 2851 049f 6F706100 		.ascii	"opa\000"
 2852 04a3 07       		.byte	0x7
 2853 04a4 5A       		.byte	0x5a
 2854 04a5 8A010000 		.4byte	0x18a
 2855 04a9 0C       		.byte	0xc
 2856 04aa 00       		.byte	0
 2857 04ab 10       		.uleb128 0x10
 2858 04ac 04       		.byte	0x4
 2859 04ad B1040000 		.4byte	0x4b1
 2860 04b1 11       		.uleb128 0x11
 2861 04b2 46030000 		.4byte	0x346
 2862 04b6 0A       		.uleb128 0xa
 2863 04b7 03       		.byte	0x3
 2864 04b8 07       		.byte	0x7
 2865 04b9 5D       		.byte	0x5d
 2866 04ba E3040000 		.4byte	0x4e3
 2867 04be 0E       		.uleb128 0xe
 2868 04bf 5D010000 		.4byte	.LASF59
 2869 04c3 07       		.byte	0x7
 2870 04c4 5E       		.byte	0x5e
 2871 04c5 7F010000 		.4byte	0x17f
 2872 04c9 00       		.byte	0
 2873 04ca 0E       		.uleb128 0xe
 2874 04cb 72040000 		.4byte	.LASF74
 2875 04cf 07       		.byte	0x7
 2876 04d0 5F       		.byte	0x5f
 2877 04d1 8A010000 		.4byte	0x18a
 2878 04d5 01       		.byte	0x1
 2879 04d6 0B       		.uleb128 0xb
 2880 04d7 6F706100 		.ascii	"opa\000"
 2881 04db 07       		.byte	0x7
 2882 04dc 60       		.byte	0x60
 2883 04dd 8A010000 		.4byte	0x18a
 2884 04e1 02       		.byte	0x2
 2885 04e2 00       		.byte	0
 2886 04e3 0A       		.uleb128 0xa
 2887 04e4 06       		.byte	0x6
 2888 04e5 07       		.byte	0x7
 2889 04e6 63       		.byte	0x63
 2890 04e7 1F050000 		.4byte	0x51f
 2891 04eb 0E       		.uleb128 0xe
 2892 04ec 5D010000 		.4byte	.LASF59
 2893 04f0 07       		.byte	0x7
 2894 04f1 64       		.byte	0x64
 2895 04f2 7F010000 		.4byte	0x17f
 2896 04f6 00       		.byte	0
ARM GAS  C:\Users\d3bug\AppData\Local\Temp\ccg1LD4z.s 			page 67


 2897 04f7 0E       		.uleb128 0xe
 2898 04f8 F9010000 		.4byte	.LASF60
 2899 04fc 07       		.byte	0x7
 2900 04fd 65       		.byte	0x65
 2901 04fe 95010000 		.4byte	0x195
 2902 0502 02       		.byte	0x2
 2903 0503 0B       		.uleb128 0xb
 2904 0504 6F706100 		.ascii	"opa\000"
 2905 0508 07       		.byte	0x7
 2906 0509 66       		.byte	0x66
 2907 050a 8A010000 		.4byte	0x18a
 2908 050e 04       		.byte	0x4
 2909 050f 0C       		.uleb128 0xc
 2910 0510 F1010000 		.4byte	.LASF75
 2911 0514 07       		.byte	0x7
 2912 0515 67       		.byte	0x67
 2913 0516 AC000000 		.4byte	0xac
 2914 051a 01       		.byte	0x1
 2915 051b 01       		.byte	0x1
 2916 051c 07       		.byte	0x7
 2917 051d 05       		.byte	0x5
 2918 051e 00       		.byte	0
 2919 051f 0A       		.uleb128 0xa
 2920 0520 38       		.byte	0x38
 2921 0521 07       		.byte	0x7
 2922 0522 34       		.byte	0x34
 2923 0523 67050000 		.4byte	0x567
 2924 0527 0C       		.uleb128 0xc
 2925 0528 FB020000 		.4byte	.LASF76
 2926 052c 07       		.byte	0x7
 2927 052d 36       		.byte	0x36
 2928 052e AC000000 		.4byte	0xac
 2929 0532 01       		.byte	0x1
 2930 0533 01       		.byte	0x1
 2931 0534 07       		.byte	0x7
 2932 0535 00       		.byte	0
 2933 0536 0E       		.uleb128 0xe
 2934 0537 A7040000 		.4byte	.LASF77
 2935 053b 07       		.byte	0x7
 2936 053c 52       		.byte	0x52
 2937 053d FA030000 		.4byte	0x3fa
 2938 0541 02       		.byte	0x2
 2939 0542 0E       		.uleb128 0xe
 2940 0543 6B020000 		.4byte	.LASF78
 2941 0547 07       		.byte	0x7
 2942 0548 5B       		.byte	0x5b
 2943 0549 66040000 		.4byte	0x466
 2944 054d 1C       		.byte	0x1c
 2945 054e 0E       		.uleb128 0xe
 2946 054f 44030000 		.4byte	.LASF79
 2947 0553 07       		.byte	0x7
 2948 0554 61       		.byte	0x61
 2949 0555 B6040000 		.4byte	0x4b6
 2950 0559 2C       		.byte	0x2c
 2951 055a 0E       		.uleb128 0xe
 2952 055b 7B000000 		.4byte	.LASF80
 2953 055f 07       		.byte	0x7
ARM GAS  C:\Users\d3bug\AppData\Local\Temp\ccg1LD4z.s 			page 68


 2954 0560 68       		.byte	0x68
 2955 0561 E3040000 		.4byte	0x4e3
 2956 0565 30       		.byte	0x30
 2957 0566 00       		.byte	0
 2958 0567 03       		.uleb128 0x3
 2959 0568 5A000000 		.4byte	.LASF81
 2960 056c 07       		.byte	0x7
 2961 056d 69       		.byte	0x69
 2962 056e 1F050000 		.4byte	0x51f
 2963 0572 02       		.uleb128 0x2
 2964 0573 01       		.byte	0x1
 2965 0574 02       		.byte	0x2
 2966 0575 FF010000 		.4byte	.LASF82
 2967 0579 10       		.uleb128 0x10
 2968 057a 04       		.byte	0x4
 2969 057b 7F050000 		.4byte	0x57f
 2970 057f 11       		.uleb128 0x11
 2971 0580 FD010000 		.4byte	0x1fd
 2972 0584 10       		.uleb128 0x10
 2973 0585 04       		.byte	0x4
 2974 0586 8A050000 		.4byte	0x58a
 2975 058a 11       		.uleb128 0x11
 2976 058b 67050000 		.4byte	0x567
 2977 058f 0A       		.uleb128 0xa
 2978 0590 1A       		.byte	0x1a
 2979 0591 01       		.byte	0x1
 2980 0592 19       		.byte	0x19
 2981 0593 09060000 		.4byte	0x609
 2982 0597 0B       		.uleb128 0xb
 2983 0598 703100   		.ascii	"p1\000"
 2984 059b 01       		.byte	0x1
 2985 059c 1A       		.byte	0x1a
 2986 059d BD010000 		.4byte	0x1bd
 2987 05a1 00       		.byte	0
 2988 05a2 0B       		.uleb128 0xb
 2989 05a3 703200   		.ascii	"p2\000"
 2990 05a6 01       		.byte	0x1
 2991 05a7 1B       		.byte	0x1b
 2992 05a8 BD010000 		.4byte	0x1bd
 2993 05ac 04       		.byte	0x4
 2994 05ad 0E       		.uleb128 0xe
 2995 05ae 90040000 		.4byte	.LASF83
 2996 05b2 01       		.byte	0x1
 2997 05b3 1C       		.byte	0x1c
 2998 05b4 BD010000 		.4byte	0x1bd
 2999 05b8 08       		.byte	0x8
 3000 05b9 0B       		.uleb128 0xb
 3001 05ba 647800   		.ascii	"dx\000"
 3002 05bd 01       		.byte	0x1
 3003 05be 1D       		.byte	0x1d
 3004 05bf 95010000 		.4byte	0x195
 3005 05c3 0C       		.byte	0xc
 3006 05c4 0B       		.uleb128 0xb
 3007 05c5 737800   		.ascii	"sx\000"
 3008 05c8 01       		.byte	0x1
 3009 05c9 1E       		.byte	0x1e
 3010 05ca 95010000 		.4byte	0x195
ARM GAS  C:\Users\d3bug\AppData\Local\Temp\ccg1LD4z.s 			page 69


 3011 05ce 0E       		.byte	0xe
 3012 05cf 0B       		.uleb128 0xb
 3013 05d0 647900   		.ascii	"dy\000"
 3014 05d3 01       		.byte	0x1
 3015 05d4 1F       		.byte	0x1f
 3016 05d5 95010000 		.4byte	0x195
 3017 05d9 10       		.byte	0x10
 3018 05da 0B       		.uleb128 0xb
 3019 05db 737900   		.ascii	"sy\000"
 3020 05de 01       		.byte	0x1
 3021 05df 20       		.byte	0x20
 3022 05e0 95010000 		.4byte	0x195
 3023 05e4 12       		.byte	0x12
 3024 05e5 0B       		.uleb128 0xb
 3025 05e6 65727200 		.ascii	"err\000"
 3026 05ea 01       		.byte	0x1
 3027 05eb 21       		.byte	0x21
 3028 05ec 95010000 		.4byte	0x195
 3029 05f0 14       		.byte	0x14
 3030 05f1 0B       		.uleb128 0xb
 3031 05f2 653200   		.ascii	"e2\000"
 3032 05f5 01       		.byte	0x1
 3033 05f6 22       		.byte	0x22
 3034 05f7 95010000 		.4byte	0x195
 3035 05fb 16       		.byte	0x16
 3036 05fc 0B       		.uleb128 0xb
 3037 05fd 686F7200 		.ascii	"hor\000"
 3038 0601 01       		.byte	0x1
 3039 0602 23       		.byte	0x23
 3040 0603 72050000 		.4byte	0x572
 3041 0607 18       		.byte	0x18
 3042 0608 00       		.byte	0
 3043 0609 03       		.uleb128 0x3
 3044 060a 21030000 		.4byte	.LASF84
 3045 060e 01       		.byte	0x1
 3046 060f 24       		.byte	0x24
 3047 0610 8F050000 		.4byte	0x58f
 3048 0614 14       		.uleb128 0x14
 3049 0615 45010000 		.4byte	.LASF92
 3050 0619 01       		.byte	0x1
 3051 061a B1       		.byte	0xb1
 3052 061b 00000000 		.4byte	.LFB14
 3053 061f 88000000 		.4byte	.LFE14-.LFB14
 3054 0623 01       		.uleb128 0x1
 3055 0624 9C       		.byte	0x9c
 3056 0625 CA060000 		.4byte	0x6ca
 3057 0629 15       		.uleb128 0x15
 3058 062a 21050000 		.4byte	.LASF85
 3059 062e 01       		.byte	0x1
 3060 062f B1       		.byte	0xb1
 3061 0630 CA060000 		.4byte	0x6ca
 3062 0634 00000000 		.4byte	.LLST0
 3063 0638 15       		.uleb128 0x15
 3064 0639 4A030000 		.4byte	.LASF86
 3065 063d 01       		.byte	0x1
 3066 063e B1       		.byte	0xb1
 3067 063f 79050000 		.4byte	0x579
ARM GAS  C:\Users\d3bug\AppData\Local\Temp\ccg1LD4z.s 			page 70


 3068 0643 21000000 		.4byte	.LLST1
 3069 0647 15       		.uleb128 0x15
 3070 0648 2B050000 		.4byte	.LASF87
 3071 064c 01       		.byte	0x1
 3072 064d B1       		.byte	0xb1
 3073 064e 84050000 		.4byte	0x584
 3074 0652 42000000 		.4byte	.LLST2
 3075 0656 15       		.uleb128 0x15
 3076 0657 9D040000 		.4byte	.LASF88
 3077 065b 01       		.byte	0x1
 3078 065c B1       		.byte	0xb1
 3079 065d 8A010000 		.4byte	0x18a
 3080 0661 63000000 		.4byte	.LLST3
 3081 0665 16       		.uleb128 0x16
 3082 0666 F9010000 		.4byte	.LASF60
 3083 066a 01       		.byte	0x1
 3084 066b B3       		.byte	0xb3
 3085 066c 95010000 		.4byte	0x195
 3086 0670 9D000000 		.4byte	.LLST4
 3087 0674 16       		.uleb128 0x16
 3088 0675 39000000 		.4byte	.LASF89
 3089 0679 01       		.byte	0x1
 3090 067a B4       		.byte	0xb4
 3091 067b 95010000 		.4byte	0x195
 3092 067f DD000000 		.4byte	.LLST5
 3093 0683 16       		.uleb128 0x16
 3094 0684 31000000 		.4byte	.LASF90
 3095 0688 01       		.byte	0x1
 3096 0689 B5       		.byte	0xb5
 3097 068a 95010000 		.4byte	0x195
 3098 068e FB000000 		.4byte	.LLST6
 3099 0692 17       		.uleb128 0x17
 3100 0693 6F706100 		.ascii	"opa\000"
 3101 0697 01       		.byte	0x1
 3102 0698 B6       		.byte	0xb6
 3103 0699 8A010000 		.4byte	0x18a
 3104 069d 0E010000 		.4byte	.LLST7
 3105 06a1 18       		.uleb128 0x18
 3106 06a2 A2020000 		.4byte	.LASF94
 3107 06a6 01       		.byte	0x1
 3108 06a7 B8       		.byte	0xb8
 3109 06a8 FD010000 		.4byte	0x1fd
 3110 06ac 19       		.uleb128 0x19
 3111 06ad F1030000 		.4byte	.LASF91
 3112 06b1 01       		.byte	0x1
 3113 06b2 BE       		.byte	0xbe
 3114 06b3 FD010000 		.4byte	0x1fd
 3115 06b7 02       		.uleb128 0x2
 3116 06b8 91       		.byte	0x91
 3117 06b9 60       		.sleb128 -32
 3118 06ba 1A       		.uleb128 0x1a
 3119 06bb 80000000 		.4byte	.LVL12
 3120 06bf 02       		.uleb128 0x2
 3121 06c0 74       		.byte	0x74
 3122 06c1 00       		.sleb128 0
 3123 06c2 1B       		.uleb128 0x1b
 3124 06c3 01       		.uleb128 0x1
ARM GAS  C:\Users\d3bug\AppData\Local\Temp\ccg1LD4z.s 			page 71


 3125 06c4 50       		.byte	0x50
 3126 06c5 02       		.uleb128 0x2
 3127 06c6 7D       		.byte	0x7d
 3128 06c7 00       		.sleb128 0
 3129 06c8 00       		.byte	0
 3130 06c9 00       		.byte	0
 3131 06ca 10       		.uleb128 0x10
 3132 06cb 04       		.byte	0x4
 3133 06cc 09060000 		.4byte	0x609
 3134 06d0 14       		.uleb128 0x14
 3135 06d1 BC000000 		.4byte	.LASF93
 3136 06d5 01       		.byte	0x1
 3137 06d6 C6       		.byte	0xc6
 3138 06d7 00000000 		.4byte	.LFB15
 3139 06db 84000000 		.4byte	.LFE15-.LFB15
 3140 06df 01       		.uleb128 0x1
 3141 06e0 9C       		.byte	0x9c
 3142 06e1 86070000 		.4byte	0x786
 3143 06e5 15       		.uleb128 0x15
 3144 06e6 21050000 		.4byte	.LASF85
 3145 06ea 01       		.byte	0x1
 3146 06eb C6       		.byte	0xc6
 3147 06ec CA060000 		.4byte	0x6ca
 3148 06f0 21010000 		.4byte	.LLST8
 3149 06f4 15       		.uleb128 0x15
 3150 06f5 4A030000 		.4byte	.LASF86
 3151 06f9 01       		.byte	0x1
 3152 06fa C6       		.byte	0xc6
 3153 06fb 79050000 		.4byte	0x579
 3154 06ff 42010000 		.4byte	.LLST9
 3155 0703 15       		.uleb128 0x15
 3156 0704 2B050000 		.4byte	.LASF87
 3157 0708 01       		.byte	0x1
 3158 0709 C6       		.byte	0xc6
 3159 070a 84050000 		.4byte	0x584
 3160 070e 63010000 		.4byte	.LLST10
 3161 0712 15       		.uleb128 0x15
 3162 0713 9D040000 		.4byte	.LASF88
 3163 0717 01       		.byte	0x1
 3164 0718 C6       		.byte	0xc6
 3165 0719 8A010000 		.4byte	0x18a
 3166 071d 84010000 		.4byte	.LLST11
 3167 0721 16       		.uleb128 0x16
 3168 0722 F9010000 		.4byte	.LASF60
 3169 0726 01       		.byte	0x1
 3170 0727 C8       		.byte	0xc8
 3171 0728 95010000 		.4byte	0x195
 3172 072c BE010000 		.4byte	.LLST12
 3173 0730 16       		.uleb128 0x16
 3174 0731 39000000 		.4byte	.LASF89
 3175 0735 01       		.byte	0x1
 3176 0736 C9       		.byte	0xc9
 3177 0737 95010000 		.4byte	0x195
 3178 073b FE010000 		.4byte	.LLST13
 3179 073f 16       		.uleb128 0x16
 3180 0740 31000000 		.4byte	.LASF90
 3181 0744 01       		.byte	0x1
ARM GAS  C:\Users\d3bug\AppData\Local\Temp\ccg1LD4z.s 			page 72


 3182 0745 CA       		.byte	0xca
 3183 0746 95010000 		.4byte	0x195
 3184 074a 42020000 		.4byte	.LLST14
 3185 074e 17       		.uleb128 0x17
 3186 074f 6F706100 		.ascii	"opa\000"
 3187 0753 01       		.byte	0x1
 3188 0754 CB       		.byte	0xcb
 3189 0755 8A010000 		.4byte	0x18a
 3190 0759 86020000 		.4byte	.LLST15
 3191 075d 18       		.uleb128 0x18
 3192 075e A2020000 		.4byte	.LASF94
 3193 0762 01       		.byte	0x1
 3194 0763 CE       		.byte	0xce
 3195 0764 FD010000 		.4byte	0x1fd
 3196 0768 19       		.uleb128 0x19
 3197 0769 F1030000 		.4byte	.LASF91
 3198 076d 01       		.byte	0x1
 3199 076e D4       		.byte	0xd4
 3200 076f FD010000 		.4byte	0x1fd
 3201 0773 02       		.uleb128 0x2
 3202 0774 91       		.byte	0x91
 3203 0775 60       		.sleb128 -32
 3204 0776 1A       		.uleb128 0x1a
 3205 0777 7C000000 		.4byte	.LVL26
 3206 077b 02       		.uleb128 0x2
 3207 077c 74       		.byte	0x74
 3208 077d 00       		.sleb128 0
 3209 077e 1B       		.uleb128 0x1b
 3210 077f 01       		.uleb128 0x1
 3211 0780 50       		.byte	0x50
 3212 0781 02       		.uleb128 0x2
 3213 0782 7D       		.byte	0x7d
 3214 0783 00       		.sleb128 0
 3215 0784 00       		.byte	0
 3216 0785 00       		.byte	0
 3217 0786 1C       		.uleb128 0x1c
 3218 0787 DD030000 		.4byte	.LASF95
 3219 078b 01       		.byte	0x1
 3220 078c 1D02     		.2byte	0x21d
 3221 078e 00000000 		.4byte	.LFB17
 3222 0792 7C000000 		.4byte	.LFE17-.LFB17
 3223 0796 01       		.uleb128 0x1
 3224 0797 9C       		.byte	0x9c
 3225 0798 C9070000 		.4byte	0x7c9
 3226 079c 1D       		.uleb128 0x1d
 3227 079d 7B000000 		.4byte	.LASF80
 3228 07a1 01       		.byte	0x1
 3229 07a2 1D02     		.2byte	0x21d
 3230 07a4 CA060000 		.4byte	0x6ca
 3231 07a8 01       		.uleb128 0x1
 3232 07a9 50       		.byte	0x50
 3233 07aa 1E       		.uleb128 0x1e
 3234 07ab 703100   		.ascii	"p1\000"
 3235 07ae 01       		.byte	0x1
 3236 07af 1D02     		.2byte	0x21d
 3237 07b1 C9070000 		.4byte	0x7c9
 3238 07b5 99020000 		.4byte	.LLST16
ARM GAS  C:\Users\d3bug\AppData\Local\Temp\ccg1LD4z.s 			page 73


 3239 07b9 1E       		.uleb128 0x1e
 3240 07ba 703200   		.ascii	"p2\000"
 3241 07bd 01       		.byte	0x1
 3242 07be 1D02     		.2byte	0x21d
 3243 07c0 C9070000 		.4byte	0x7c9
 3244 07c4 BA020000 		.4byte	.LLST17
 3245 07c8 00       		.byte	0
 3246 07c9 10       		.uleb128 0x10
 3247 07ca 04       		.byte	0x4
 3248 07cb CF070000 		.4byte	0x7cf
 3249 07cf 11       		.uleb128 0x11
 3250 07d0 BD010000 		.4byte	0x1bd
 3251 07d4 1F       		.uleb128 0x1f
 3252 07d5 D6050000 		.4byte	.LASF96
 3253 07d9 01       		.byte	0x1
 3254 07da 3002     		.2byte	0x230
 3255 07dc 72050000 		.4byte	0x572
 3256 07e0 00000000 		.4byte	.LFB18
 3257 07e4 60000000 		.4byte	.LFE18-.LFB18
 3258 07e8 01       		.uleb128 0x1
 3259 07e9 9C       		.byte	0x9c
 3260 07ea FF070000 		.4byte	0x7ff
 3261 07ee 20       		.uleb128 0x20
 3262 07ef 7B000000 		.4byte	.LASF80
 3263 07f3 01       		.byte	0x1
 3264 07f4 3002     		.2byte	0x230
 3265 07f6 CA060000 		.4byte	0x6ca
 3266 07fa F4020000 		.4byte	.LLST18
 3267 07fe 00       		.byte	0
 3268 07ff 1F       		.uleb128 0x1f
 3269 0800 E5000000 		.4byte	.LASF97
 3270 0804 01       		.byte	0x1
 3271 0805 4402     		.2byte	0x244
 3272 0807 72050000 		.4byte	0x572
 3273 080b 00000000 		.4byte	.LFB19
 3274 080f 1E000000 		.4byte	.LFE19-.LFB19
 3275 0813 01       		.uleb128 0x1
 3276 0814 9C       		.byte	0x9c
 3277 0815 48080000 		.4byte	0x848
 3278 0819 20       		.uleb128 0x20
 3279 081a 7B000000 		.4byte	.LASF80
 3280 081e 01       		.byte	0x1
 3281 081f 4402     		.2byte	0x244
 3282 0821 CA060000 		.4byte	0x6ca
 3283 0825 47030000 		.4byte	.LLST19
 3284 0829 21       		.uleb128 0x21
 3285 082a 45040000 		.4byte	.LASF98
 3286 082e 01       		.byte	0x1
 3287 082f 4602     		.2byte	0x246
 3288 0831 95010000 		.4byte	0x195
 3289 0835 01       		.uleb128 0x1
 3290 0836 55       		.byte	0x55
 3291 0837 22       		.uleb128 0x22
 3292 0838 0E000000 		.4byte	.LVL40
 3293 083c D4070000 		.4byte	0x7d4
 3294 0840 1B       		.uleb128 0x1b
 3295 0841 01       		.uleb128 0x1
ARM GAS  C:\Users\d3bug\AppData\Local\Temp\ccg1LD4z.s 			page 74


 3296 0842 50       		.byte	0x50
 3297 0843 02       		.uleb128 0x2
 3298 0844 74       		.byte	0x74
 3299 0845 00       		.sleb128 0
 3300 0846 00       		.byte	0
 3301 0847 00       		.byte	0
 3302 0848 1F       		.uleb128 0x1f
 3303 0849 D9000000 		.4byte	.LASF99
 3304 084d 01       		.byte	0x1
 3305 084e 5502     		.2byte	0x255
 3306 0850 72050000 		.4byte	0x572
 3307 0854 00000000 		.4byte	.LFB20
 3308 0858 1E000000 		.4byte	.LFE20-.LFB20
 3309 085c 01       		.uleb128 0x1
 3310 085d 9C       		.byte	0x9c
 3311 085e 91080000 		.4byte	0x891
 3312 0862 20       		.uleb128 0x20
 3313 0863 7B000000 		.4byte	.LASF80
 3314 0867 01       		.byte	0x1
 3315 0868 5502     		.2byte	0x255
 3316 086a CA060000 		.4byte	0x6ca
 3317 086e 65030000 		.4byte	.LLST20
 3318 0872 21       		.uleb128 0x21
 3319 0873 3E040000 		.4byte	.LASF100
 3320 0877 01       		.byte	0x1
 3321 0878 5702     		.2byte	0x257
 3322 087a 95010000 		.4byte	0x195
 3323 087e 01       		.uleb128 0x1
 3324 087f 55       		.byte	0x55
 3325 0880 22       		.uleb128 0x22
 3326 0881 0E000000 		.4byte	.LVL43
 3327 0885 D4070000 		.4byte	0x7d4
 3328 0889 1B       		.uleb128 0x1b
 3329 088a 01       		.uleb128 0x1
 3330 088b 50       		.byte	0x50
 3331 088c 02       		.uleb128 0x2
 3332 088d 74       		.byte	0x74
 3333 088e 00       		.sleb128 0
 3334 088f 00       		.byte	0
 3335 0890 00       		.byte	0
 3336 0891 14       		.uleb128 0x14
 3337 0892 4F030000 		.4byte	.LASF101
 3338 0896 01       		.byte	0x1
 3339 0897 DC       		.byte	0xdc
 3340 0898 00000000 		.4byte	.LFB16
 3341 089c 380B0000 		.4byte	.LFE16-.LFB16
 3342 08a0 01       		.uleb128 0x1
 3343 08a1 9C       		.byte	0x9c
 3344 08a2 090E0000 		.4byte	0xe09
 3345 08a6 15       		.uleb128 0x15
 3346 08a7 21050000 		.4byte	.LASF85
 3347 08ab 01       		.byte	0x1
 3348 08ac DC       		.byte	0xdc
 3349 08ad CA060000 		.4byte	0x6ca
 3350 08b1 83030000 		.4byte	.LLST21
 3351 08b5 15       		.uleb128 0x15
 3352 08b6 09030000 		.4byte	.LASF102
ARM GAS  C:\Users\d3bug\AppData\Local\Temp\ccg1LD4z.s 			page 75


 3353 08ba 01       		.byte	0x1
 3354 08bb DC       		.byte	0xdc
 3355 08bc 72050000 		.4byte	0x572
 3356 08c0 D0030000 		.4byte	.LLST22
 3357 08c4 15       		.uleb128 0x15
 3358 08c5 4A030000 		.4byte	.LASF86
 3359 08c9 01       		.byte	0x1
 3360 08ca DC       		.byte	0xdc
 3361 08cb 79050000 		.4byte	0x579
 3362 08cf F1030000 		.4byte	.LLST23
 3363 08d3 15       		.uleb128 0x15
 3364 08d4 2B050000 		.4byte	.LASF87
 3365 08d8 01       		.byte	0x1
 3366 08d9 DC       		.byte	0xdc
 3367 08da 84050000 		.4byte	0x584
 3368 08de 1E040000 		.4byte	.LLST24
 3369 08e2 15       		.uleb128 0x15
 3370 08e3 9D040000 		.4byte	.LASF88
 3371 08e7 01       		.byte	0x1
 3372 08e8 DC       		.byte	0xdc
 3373 08e9 8A010000 		.4byte	0x18a
 3374 08ed 60040000 		.4byte	.LLST25
 3375 08f1 17       		.uleb128 0x17
 3376 08f2 6F706100 		.ascii	"opa\000"
 3377 08f6 01       		.byte	0x1
 3378 08f7 DF       		.byte	0xdf
 3379 08f8 8A010000 		.4byte	0x18a
 3380 08fc E4040000 		.4byte	.LLST26
 3381 0900 18       		.uleb128 0x18
 3382 0901 70020000 		.4byte	.LASF103
 3383 0905 01       		.byte	0x1
 3384 0906 E1       		.byte	0xe1
 3385 0907 BD010000 		.4byte	0x1bd
 3386 090b 19       		.uleb128 0x19
 3387 090c CC050000 		.4byte	.LASF104
 3388 0910 01       		.byte	0x1
 3389 0911 E1       		.byte	0xe1
 3390 0912 BD010000 		.4byte	0x1bd
 3391 0916 02       		.uleb128 0x2
 3392 0917 91       		.byte	0x91
 3393 0918 54       		.sleb128 -44
 3394 0919 16       		.uleb128 0x16
 3395 091a F9010000 		.4byte	.LASF60
 3396 091e 01       		.byte	0x1
 3397 091f FC       		.byte	0xfc
 3398 0920 95010000 		.4byte	0x195
 3399 0924 F8040000 		.4byte	.LLST27
 3400 0928 23       		.uleb128 0x23
 3401 0929 1C0E0000 		.4byte	0xe1c
 3402 092d 21050000 		.4byte	.LLST28
 3403 0931 24       		.uleb128 0x24
 3404 0932 0B050000 		.4byte	.LASF105
 3405 0936 01       		.byte	0x1
 3406 0937 0201     		.2byte	0x102
 3407 0939 090E0000 		.4byte	0xe09
 3408 093d 36050000 		.4byte	.LLST29
 3409 0941 25       		.uleb128 0x25
ARM GAS  C:\Users\d3bug\AppData\Local\Temp\ccg1LD4z.s 			page 76


 3410 0942 6900     		.ascii	"i\000"
 3411 0944 01       		.byte	0x1
 3412 0945 0601     		.2byte	0x106
 3413 0947 95010000 		.4byte	0x195
 3414 094b 16060000 		.4byte	.LLST30
 3415 094f 24       		.uleb128 0x24
 3416 0950 12000000 		.4byte	.LASF106
 3417 0954 01       		.byte	0x1
 3418 0955 2301     		.2byte	0x123
 3419 0957 95010000 		.4byte	0x195
 3420 095b DB060000 		.4byte	.LLST31
 3421 095f 24       		.uleb128 0x24
 3422 0960 FB030000 		.4byte	.LASF107
 3423 0964 01       		.byte	0x1
 3424 0965 2601     		.2byte	0x126
 3425 0967 95010000 		.4byte	0x195
 3426 096b FA060000 		.4byte	.LLST32
 3427 096f 24       		.uleb128 0x24
 3428 0970 75050000 		.4byte	.LASF108
 3429 0974 01       		.byte	0x1
 3430 0975 2A01     		.2byte	0x12a
 3431 0977 95010000 		.4byte	0x195
 3432 097b 45070000 		.4byte	.LLST33
 3433 097f 24       		.uleb128 0x24
 3434 0980 C9020000 		.4byte	.LASF109
 3435 0984 01       		.byte	0x1
 3436 0985 2B01     		.2byte	0x12b
 3437 0987 95010000 		.4byte	0x195
 3438 098b 7D070000 		.4byte	.LLST34
 3439 098f 24       		.uleb128 0x24
 3440 0990 9B000000 		.4byte	.LASF110
 3441 0994 01       		.byte	0x1
 3442 0995 9301     		.2byte	0x193
 3443 0997 95010000 		.4byte	0x195
 3444 099b B5070000 		.4byte	.LLST35
 3445 099f 24       		.uleb128 0x24
 3446 09a0 A5000000 		.4byte	.LASF111
 3447 09a4 01       		.byte	0x1
 3448 09a5 9401     		.2byte	0x194
 3449 09a7 95010000 		.4byte	0x195
 3450 09ab 0A080000 		.4byte	.LLST36
 3451 09af 21       		.uleb128 0x21
 3452 09b0 E0050000 		.4byte	.LASF112
 3453 09b4 01       		.byte	0x1
 3454 09b5 AA01     		.2byte	0x1aa
 3455 09b7 210E0000 		.4byte	0xe21
 3456 09bb 02       		.uleb128 0x2
 3457 09bc 91       		.byte	0x91
 3458 09bd 50       		.sleb128 -48
 3459 09be 21       		.uleb128 0x21
 3460 09bf F1030000 		.4byte	.LASF91
 3461 09c3 01       		.byte	0x1
 3462 09c4 AD01     		.2byte	0x1ad
 3463 09c6 FD010000 		.4byte	0x1fd
 3464 09ca 02       		.uleb128 0x2
 3465 09cb 91       		.byte	0x91
 3466 09cc 48       		.sleb128 -56
ARM GAS  C:\Users\d3bug\AppData\Local\Temp\ccg1LD4z.s 			page 77


 3467 09cd 24       		.uleb128 0x24
 3468 09ce 1D000000 		.4byte	.LASF113
 3469 09d2 01       		.byte	0x1
 3470 09d3 AE01     		.2byte	0x1ae
 3471 09d5 72050000 		.4byte	0x572
 3472 09d9 5A080000 		.4byte	.LLST37
 3473 09dd 26       		.uleb128 0x26
 3474 09de C6000000 		.4byte	.LBB2
 3475 09e2 6C000000 		.4byte	.LBE2-.LBB2
 3476 09e6 640A0000 		.4byte	0xa64
 3477 09ea 21       		.uleb128 0x21
 3478 09eb AB020000 		.4byte	.LASF114
 3479 09ef 01       		.byte	0x1
 3480 09f0 0A01     		.2byte	0x10a
 3481 09f2 09060000 		.4byte	0x609
 3482 09f6 03       		.uleb128 0x3
 3483 09f7 91       		.byte	0x91
 3484 09f8 AC7F     		.sleb128 -84
 3485 09fa 27       		.uleb128 0x27
 3486 09fb 703000   		.ascii	"p0\000"
 3487 09fe 01       		.byte	0x1
 3488 09ff 0B01     		.2byte	0x10b
 3489 0a01 BD010000 		.4byte	0x1bd
 3490 0a05 03       		.uleb128 0x3
 3491 0a06 91       		.byte	0x91
 3492 0a07 A87F     		.sleb128 -88
 3493 0a09 24       		.uleb128 0x24
 3494 0a0a 96050000 		.4byte	.LASF115
 3495 0a0e 01       		.byte	0x1
 3496 0a0f 0E01     		.2byte	0x10e
 3497 0a11 CD000000 		.4byte	0xcd
 3498 0a15 B3080000 		.4byte	.LLST38
 3499 0a19 26       		.uleb128 0x26
 3500 0a1a E8000000 		.4byte	.LBB3
 3501 0a1e 38000000 		.4byte	.LBE3-.LBB3
 3502 0a22 470A0000 		.4byte	0xa47
 3503 0a26 25       		.uleb128 0x25
 3504 0a27 73717200 		.ascii	"sqr\000"
 3505 0a2b 01       		.byte	0x1
 3506 0a2c 1501     		.2byte	0x115
 3507 0a2e CD000000 		.4byte	0xcd
 3508 0a32 C6080000 		.4byte	.LLST39
 3509 0a36 22       		.uleb128 0x22
 3510 0a37 20010000 		.4byte	.LVL63
 3511 0a3b D4070000 		.4byte	0x7d4
 3512 0a3f 1B       		.uleb128 0x1b
 3513 0a40 01       		.uleb128 0x1
 3514 0a41 50       		.byte	0x50
 3515 0a42 02       		.uleb128 0x2
 3516 0a43 91       		.byte	0x91
 3517 0a44 64       		.sleb128 -28
 3518 0a45 00       		.byte	0
 3519 0a46 00       		.byte	0
 3520 0a47 22       		.uleb128 0x22
 3521 0a48 E2000000 		.4byte	.LVL55
 3522 0a4c 86070000 		.4byte	0x786
 3523 0a50 1B       		.uleb128 0x1b
ARM GAS  C:\Users\d3bug\AppData\Local\Temp\ccg1LD4z.s 			page 78


 3524 0a51 01       		.uleb128 0x1
 3525 0a52 50       		.byte	0x50
 3526 0a53 02       		.uleb128 0x2
 3527 0a54 91       		.byte	0x91
 3528 0a55 64       		.sleb128 -28
 3529 0a56 1B       		.uleb128 0x1b
 3530 0a57 01       		.uleb128 0x1
 3531 0a58 51       		.byte	0x51
 3532 0a59 02       		.uleb128 0x2
 3533 0a5a 91       		.byte	0x91
 3534 0a5b 60       		.sleb128 -32
 3535 0a5c 1B       		.uleb128 0x1b
 3536 0a5d 01       		.uleb128 0x1
 3537 0a5e 52       		.byte	0x52
 3538 0a5f 02       		.uleb128 0x2
 3539 0a60 91       		.byte	0x91
 3540 0a61 0C       		.sleb128 12
 3541 0a62 00       		.byte	0
 3542 0a63 00       		.byte	0
 3543 0a64 26       		.uleb128 0x26
 3544 0a65 04020000 		.4byte	.LBB4
 3545 0a69 E6000000 		.4byte	.LBE4-.LBB4
 3546 0a6d E60A0000 		.4byte	0xae6
 3547 0a71 24       		.uleb128 0x24
 3548 0a72 F9000000 		.4byte	.LASF116
 3549 0a76 01       		.byte	0x1
 3550 0a77 3E01     		.2byte	0x13e
 3551 0a79 95010000 		.4byte	0x195
 3552 0a7d D9080000 		.4byte	.LLST40
 3553 0a81 28       		.uleb128 0x28
 3554 0a82 4A020000 		.4byte	.LVL75
 3555 0a86 49100000 		.4byte	0x1049
 3556 0a8a 9C0A0000 		.4byte	0xa9c
 3557 0a8e 1B       		.uleb128 0x1b
 3558 0a8f 01       		.uleb128 0x1
 3559 0a90 52       		.byte	0x52
 3560 0a91 02       		.uleb128 0x2
 3561 0a92 79       		.byte	0x79
 3562 0a93 00       		.sleb128 0
 3563 0a94 1B       		.uleb128 0x1b
 3564 0a95 01       		.uleb128 0x1
 3565 0a96 53       		.byte	0x53
 3566 0a97 03       		.uleb128 0x3
 3567 0a98 91       		.byte	0x91
 3568 0a99 58       		.sleb128 -40
 3569 0a9a 06       		.byte	0x6
 3570 0a9b 00       		.byte	0
 3571 0a9c 28       		.uleb128 0x28
 3572 0a9d 84020000 		.4byte	.LVL77
 3573 0aa1 49100000 		.4byte	0x1049
 3574 0aa5 B80A0000 		.4byte	0xab8
 3575 0aa9 1B       		.uleb128 0x1b
 3576 0aaa 01       		.uleb128 0x1
 3577 0aab 52       		.byte	0x52
 3578 0aac 03       		.uleb128 0x3
 3579 0aad 79       		.byte	0x79
 3580 0aae 00       		.sleb128 0
ARM GAS  C:\Users\d3bug\AppData\Local\Temp\ccg1LD4z.s 			page 79


 3581 0aaf 1F       		.byte	0x1f
 3582 0ab0 1B       		.uleb128 0x1b
 3583 0ab1 01       		.uleb128 0x1
 3584 0ab2 53       		.byte	0x53
 3585 0ab3 03       		.uleb128 0x3
 3586 0ab4 91       		.byte	0x91
 3587 0ab5 58       		.sleb128 -40
 3588 0ab6 06       		.byte	0x6
 3589 0ab7 00       		.byte	0
 3590 0ab8 28       		.uleb128 0x28
 3591 0ab9 B0020000 		.4byte	.LVL79
 3592 0abd 49100000 		.4byte	0x1049
 3593 0ac1 CD0A0000 		.4byte	0xacd
 3594 0ac5 1B       		.uleb128 0x1b
 3595 0ac6 01       		.uleb128 0x1
 3596 0ac7 53       		.byte	0x53
 3597 0ac8 03       		.uleb128 0x3
 3598 0ac9 91       		.byte	0x91
 3599 0aca 58       		.sleb128 -40
 3600 0acb 06       		.byte	0x6
 3601 0acc 00       		.byte	0
 3602 0acd 22       		.uleb128 0x22
 3603 0ace E6020000 		.4byte	.LVL81
 3604 0ad2 49100000 		.4byte	0x1049
 3605 0ad6 1B       		.uleb128 0x1b
 3606 0ad7 01       		.uleb128 0x1
 3607 0ad8 52       		.byte	0x52
 3608 0ad9 03       		.uleb128 0x3
 3609 0ada 79       		.byte	0x79
 3610 0adb 00       		.sleb128 0
 3611 0adc 1F       		.byte	0x1f
 3612 0add 1B       		.uleb128 0x1b
 3613 0ade 01       		.uleb128 0x1
 3614 0adf 53       		.byte	0x53
 3615 0ae0 03       		.uleb128 0x3
 3616 0ae1 91       		.byte	0x91
 3617 0ae2 58       		.sleb128 -40
 3618 0ae3 06       		.byte	0x6
 3619 0ae4 00       		.byte	0
 3620 0ae5 00       		.byte	0
 3621 0ae6 26       		.uleb128 0x26
 3622 0ae7 F8020000 		.4byte	.LBB5
 3623 0aeb EE000000 		.4byte	.LBE5-.LBB5
 3624 0aef 680B0000 		.4byte	0xb68
 3625 0af3 24       		.uleb128 0x24
 3626 0af4 F9000000 		.4byte	.LASF116
 3627 0af8 01       		.byte	0x1
 3628 0af9 5001     		.2byte	0x150
 3629 0afb 95010000 		.4byte	0x195
 3630 0aff 0D090000 		.4byte	.LLST41
 3631 0b03 28       		.uleb128 0x28
 3632 0b04 46030000 		.4byte	.LVL84
 3633 0b08 54100000 		.4byte	0x1054
 3634 0b0c 1E0B0000 		.4byte	0xb1e
 3635 0b10 1B       		.uleb128 0x1b
 3636 0b11 01       		.uleb128 0x1
 3637 0b12 52       		.byte	0x52
ARM GAS  C:\Users\d3bug\AppData\Local\Temp\ccg1LD4z.s 			page 80


 3638 0b13 02       		.uleb128 0x2
 3639 0b14 79       		.byte	0x79
 3640 0b15 00       		.sleb128 0
 3641 0b16 1B       		.uleb128 0x1b
 3642 0b17 01       		.uleb128 0x1
 3643 0b18 53       		.byte	0x53
 3644 0b19 03       		.uleb128 0x3
 3645 0b1a 91       		.byte	0x91
 3646 0b1b 58       		.sleb128 -40
 3647 0b1c 06       		.byte	0x6
 3648 0b1d 00       		.byte	0
 3649 0b1e 28       		.uleb128 0x28
 3650 0b1f 7E030000 		.4byte	.LVL85
 3651 0b23 54100000 		.4byte	0x1054
 3652 0b27 3A0B0000 		.4byte	0xb3a
 3653 0b2b 1B       		.uleb128 0x1b
 3654 0b2c 01       		.uleb128 0x1
 3655 0b2d 52       		.byte	0x52
 3656 0b2e 03       		.uleb128 0x3
 3657 0b2f 79       		.byte	0x79
 3658 0b30 00       		.sleb128 0
 3659 0b31 1F       		.byte	0x1f
 3660 0b32 1B       		.uleb128 0x1b
 3661 0b33 01       		.uleb128 0x1
 3662 0b34 53       		.byte	0x53
 3663 0b35 03       		.uleb128 0x3
 3664 0b36 91       		.byte	0x91
 3665 0b37 58       		.sleb128 -40
 3666 0b38 06       		.byte	0x6
 3667 0b39 00       		.byte	0
 3668 0b3a 28       		.uleb128 0x28
 3669 0b3b B0030000 		.4byte	.LVL88
 3670 0b3f 54100000 		.4byte	0x1054
 3671 0b43 4F0B0000 		.4byte	0xb4f
 3672 0b47 1B       		.uleb128 0x1b
 3673 0b48 01       		.uleb128 0x1
 3674 0b49 53       		.byte	0x53
 3675 0b4a 03       		.uleb128 0x3
 3676 0b4b 91       		.byte	0x91
 3677 0b4c 58       		.sleb128 -40
 3678 0b4d 06       		.byte	0x6
 3679 0b4e 00       		.byte	0
 3680 0b4f 22       		.uleb128 0x22
 3681 0b50 E4030000 		.4byte	.LVL89
 3682 0b54 54100000 		.4byte	0x1054
 3683 0b58 1B       		.uleb128 0x1b
 3684 0b59 01       		.uleb128 0x1
 3685 0b5a 52       		.byte	0x52
 3686 0b5b 03       		.uleb128 0x3
 3687 0b5c 79       		.byte	0x79
 3688 0b5d 00       		.sleb128 0
 3689 0b5e 1F       		.byte	0x1f
 3690 0b5f 1B       		.uleb128 0x1b
 3691 0b60 01       		.uleb128 0x1
 3692 0b61 53       		.byte	0x53
 3693 0b62 03       		.uleb128 0x3
 3694 0b63 91       		.byte	0x91
ARM GAS  C:\Users\d3bug\AppData\Local\Temp\ccg1LD4z.s 			page 81


 3695 0b64 58       		.sleb128 -40
 3696 0b65 06       		.byte	0x6
 3697 0b66 00       		.byte	0
 3698 0b67 00       		.byte	0
 3699 0b68 26       		.uleb128 0x26
 3700 0b69 02040000 		.4byte	.LBB6
 3701 0b6d 02010000 		.4byte	.LBE6-.LBB6
 3702 0b71 D20B0000 		.4byte	0xbd2
 3703 0b75 24       		.uleb128 0x24
 3704 0b76 F9000000 		.4byte	.LASF116
 3705 0b7a 01       		.byte	0x1
 3706 0b7b 6C01     		.2byte	0x16c
 3707 0b7d 95010000 		.4byte	0x195
 3708 0b81 41090000 		.4byte	.LLST42
 3709 0b85 28       		.uleb128 0x28
 3710 0b86 58040000 		.4byte	.LVL96
 3711 0b8a 49100000 		.4byte	0x1049
 3712 0b8e 990B0000 		.4byte	0xb99
 3713 0b92 1B       		.uleb128 0x1b
 3714 0b93 01       		.uleb128 0x1
 3715 0b94 53       		.byte	0x53
 3716 0b95 02       		.uleb128 0x2
 3717 0b96 79       		.byte	0x79
 3718 0b97 00       		.sleb128 0
 3719 0b98 00       		.byte	0
 3720 0b99 28       		.uleb128 0x28
 3721 0b9a 94040000 		.4byte	.LVL97
 3722 0b9e 49100000 		.4byte	0x1049
 3723 0ba2 AD0B0000 		.4byte	0xbad
 3724 0ba6 1B       		.uleb128 0x1b
 3725 0ba7 01       		.uleb128 0x1
 3726 0ba8 53       		.byte	0x53
 3727 0ba9 02       		.uleb128 0x2
 3728 0baa 79       		.byte	0x79
 3729 0bab 00       		.sleb128 0
 3730 0bac 00       		.byte	0
 3731 0bad 28       		.uleb128 0x28
 3732 0bae C8040000 		.4byte	.LVL98
 3733 0bb2 49100000 		.4byte	0x1049
 3734 0bb6 C10B0000 		.4byte	0xbc1
 3735 0bba 1B       		.uleb128 0x1b
 3736 0bbb 01       		.uleb128 0x1
 3737 0bbc 53       		.byte	0x53
 3738 0bbd 02       		.uleb128 0x2
 3739 0bbe 79       		.byte	0x79
 3740 0bbf 00       		.sleb128 0
 3741 0bc0 00       		.byte	0
 3742 0bc1 22       		.uleb128 0x22
 3743 0bc2 02050000 		.4byte	.LVL99
 3744 0bc6 49100000 		.4byte	0x1049
 3745 0bca 1B       		.uleb128 0x1b
 3746 0bcb 01       		.uleb128 0x1
 3747 0bcc 53       		.byte	0x53
 3748 0bcd 02       		.uleb128 0x2
 3749 0bce 79       		.byte	0x79
 3750 0bcf 00       		.sleb128 0
 3751 0bd0 00       		.byte	0
ARM GAS  C:\Users\d3bug\AppData\Local\Temp\ccg1LD4z.s 			page 82


 3752 0bd1 00       		.byte	0
 3753 0bd2 26       		.uleb128 0x26
 3754 0bd3 04050000 		.4byte	.LBB7
 3755 0bd7 F0000000 		.4byte	.LBE7-.LBB7
 3756 0bdb 400C0000 		.4byte	0xc40
 3757 0bdf 24       		.uleb128 0x24
 3758 0be0 F9000000 		.4byte	.LASF116
 3759 0be4 01       		.byte	0x1
 3760 0be5 7C01     		.2byte	0x17c
 3761 0be7 95010000 		.4byte	0x195
 3762 0beb 54090000 		.4byte	.LLST43
 3763 0bef 28       		.uleb128 0x28
 3764 0bf0 54050000 		.4byte	.LVL102
 3765 0bf4 54100000 		.4byte	0x1054
 3766 0bf8 040C0000 		.4byte	0xc04
 3767 0bfc 1B       		.uleb128 0x1b
 3768 0bfd 01       		.uleb128 0x1
 3769 0bfe 53       		.byte	0x53
 3770 0bff 03       		.uleb128 0x3
 3771 0c00 91       		.byte	0x91
 3772 0c01 58       		.sleb128 -40
 3773 0c02 06       		.byte	0x6
 3774 0c03 00       		.byte	0
 3775 0c04 28       		.uleb128 0x28
 3776 0c05 8C050000 		.4byte	.LVL103
 3777 0c09 54100000 		.4byte	0x1054
 3778 0c0d 190C0000 		.4byte	0xc19
 3779 0c11 1B       		.uleb128 0x1b
 3780 0c12 01       		.uleb128 0x1
 3781 0c13 53       		.byte	0x53
 3782 0c14 03       		.uleb128 0x3
 3783 0c15 91       		.byte	0x91
 3784 0c16 58       		.sleb128 -40
 3785 0c17 06       		.byte	0x6
 3786 0c18 00       		.byte	0
 3787 0c19 28       		.uleb128 0x28
 3788 0c1a BE050000 		.4byte	.LVL104
 3789 0c1e 54100000 		.4byte	0x1054
 3790 0c22 2E0C0000 		.4byte	0xc2e
 3791 0c26 1B       		.uleb128 0x1b
 3792 0c27 01       		.uleb128 0x1
 3793 0c28 53       		.byte	0x53
 3794 0c29 03       		.uleb128 0x3
 3795 0c2a 91       		.byte	0x91
 3796 0c2b 58       		.sleb128 -40
 3797 0c2c 06       		.byte	0x6
 3798 0c2d 00       		.byte	0
 3799 0c2e 22       		.uleb128 0x22
 3800 0c2f F4050000 		.4byte	.LVL105
 3801 0c33 54100000 		.4byte	0x1054
 3802 0c37 1B       		.uleb128 0x1b
 3803 0c38 01       		.uleb128 0x1
 3804 0c39 53       		.byte	0x53
 3805 0c3a 03       		.uleb128 0x3
 3806 0c3b 91       		.byte	0x91
 3807 0c3c 58       		.sleb128 -40
 3808 0c3d 06       		.byte	0x6
ARM GAS  C:\Users\d3bug\AppData\Local\Temp\ccg1LD4z.s 			page 83


 3809 0c3e 00       		.byte	0
 3810 0c3f 00       		.byte	0
 3811 0c40 29       		.uleb128 0x29
 3812 0c41 D2060000 		.4byte	.LVL120
 3813 0c45 02       		.uleb128 0x2
 3814 0c46 75       		.byte	0x75
 3815 0c47 00       		.sleb128 0
 3816 0c48 650C0000 		.4byte	0xc65
 3817 0c4c 1B       		.uleb128 0x1b
 3818 0c4d 01       		.uleb128 0x1
 3819 0c4e 50       		.byte	0x50
 3820 0c4f 03       		.uleb128 0x3
 3821 0c50 77       		.byte	0x77
 3822 0c51 F000     		.sleb128 112
 3823 0c53 1B       		.uleb128 0x1b
 3824 0c54 01       		.uleb128 0x1
 3825 0c55 51       		.byte	0x51
 3826 0c56 04       		.uleb128 0x4
 3827 0c57 77       		.byte	0x77
 3828 0c58 C800     		.sleb128 72
 3829 0c5a 06       		.byte	0x6
 3830 0c5b 1B       		.uleb128 0x1b
 3831 0c5c 01       		.uleb128 0x1
 3832 0c5d 53       		.byte	0x53
 3833 0c5e 05       		.uleb128 0x5
 3834 0c5f 77       		.byte	0x77
 3835 0c60 CC00     		.sleb128 76
 3836 0c62 94       		.byte	0x94
 3837 0c63 01       		.byte	0x1
 3838 0c64 00       		.byte	0
 3839 0c65 29       		.uleb128 0x29
 3840 0c66 08070000 		.4byte	.LVL121
 3841 0c6a 02       		.uleb128 0x2
 3842 0c6b 75       		.byte	0x75
 3843 0c6c 00       		.sleb128 0
 3844 0c6d 7A0C0000 		.4byte	0xc7a
 3845 0c71 1B       		.uleb128 0x1b
 3846 0c72 01       		.uleb128 0x1
 3847 0c73 52       		.byte	0x52
 3848 0c74 04       		.uleb128 0x4
 3849 0c75 77       		.byte	0x77
 3850 0c76 C800     		.sleb128 72
 3851 0c78 06       		.byte	0x6
 3852 0c79 00       		.byte	0
 3853 0c7a 28       		.uleb128 0x28
 3854 0c7b 52070000 		.4byte	.LVL128
 3855 0c7f 54100000 		.4byte	0x1054
 3856 0c83 8E0C0000 		.4byte	0xc8e
 3857 0c87 1B       		.uleb128 0x1b
 3858 0c88 01       		.uleb128 0x1
 3859 0c89 53       		.byte	0x53
 3860 0c8a 02       		.uleb128 0x2
 3861 0c8b 7A       		.byte	0x7a
 3862 0c8c 00       		.sleb128 0
 3863 0c8d 00       		.byte	0
 3864 0c8e 28       		.uleb128 0x28
 3865 0c8f 94070000 		.4byte	.LVL129
ARM GAS  C:\Users\d3bug\AppData\Local\Temp\ccg1LD4z.s 			page 84


 3866 0c93 54100000 		.4byte	0x1054
 3867 0c97 A90C0000 		.4byte	0xca9
 3868 0c9b 1B       		.uleb128 0x1b
 3869 0c9c 01       		.uleb128 0x1
 3870 0c9d 53       		.byte	0x53
 3871 0c9e 02       		.uleb128 0x2
 3872 0c9f 7A       		.byte	0x7a
 3873 0ca0 00       		.sleb128 0
 3874 0ca1 1B       		.uleb128 0x1b
 3875 0ca2 02       		.uleb128 0x2
 3876 0ca3 7D       		.byte	0x7d
 3877 0ca4 04       		.sleb128 4
 3878 0ca5 02       		.uleb128 0x2
 3879 0ca6 74       		.byte	0x74
 3880 0ca7 00       		.sleb128 0
 3881 0ca8 00       		.byte	0
 3882 0ca9 28       		.uleb128 0x28
 3883 0caa B8070000 		.4byte	.LVL133
 3884 0cae FF070000 		.4byte	0x7ff
 3885 0cb2 BD0C0000 		.4byte	0xcbd
 3886 0cb6 1B       		.uleb128 0x1b
 3887 0cb7 01       		.uleb128 0x1
 3888 0cb8 50       		.byte	0x50
 3889 0cb9 02       		.uleb128 0x2
 3890 0cba 79       		.byte	0x79
 3891 0cbb 00       		.sleb128 0
 3892 0cbc 00       		.byte	0
 3893 0cbd 29       		.uleb128 0x29
 3894 0cbe 0C080000 		.4byte	.LVL138
 3895 0cc2 02       		.uleb128 0x2
 3896 0cc3 75       		.byte	0x75
 3897 0cc4 00       		.sleb128 0
 3898 0cc5 E20C0000 		.4byte	0xce2
 3899 0cc9 1B       		.uleb128 0x1b
 3900 0cca 01       		.uleb128 0x1
 3901 0ccb 50       		.byte	0x50
 3902 0ccc 03       		.uleb128 0x3
 3903 0ccd 77       		.byte	0x77
 3904 0cce F000     		.sleb128 112
 3905 0cd0 1B       		.uleb128 0x1b
 3906 0cd1 01       		.uleb128 0x1
 3907 0cd2 51       		.byte	0x51
 3908 0cd3 04       		.uleb128 0x4
 3909 0cd4 77       		.byte	0x77
 3910 0cd5 C800     		.sleb128 72
 3911 0cd7 06       		.byte	0x6
 3912 0cd8 1B       		.uleb128 0x1b
 3913 0cd9 01       		.uleb128 0x1
 3914 0cda 53       		.byte	0x53
 3915 0cdb 05       		.uleb128 0x5
 3916 0cdc 77       		.byte	0x77
 3917 0cdd CC00     		.sleb128 76
 3918 0cdf 94       		.byte	0x94
 3919 0ce0 01       		.byte	0x1
 3920 0ce1 00       		.byte	0
 3921 0ce2 29       		.uleb128 0x29
 3922 0ce3 42080000 		.4byte	.LVL139
ARM GAS  C:\Users\d3bug\AppData\Local\Temp\ccg1LD4z.s 			page 85


 3923 0ce7 02       		.uleb128 0x2
 3924 0ce8 75       		.byte	0x75
 3925 0ce9 00       		.sleb128 0
 3926 0cea F70C0000 		.4byte	0xcf7
 3927 0cee 1B       		.uleb128 0x1b
 3928 0cef 01       		.uleb128 0x1
 3929 0cf0 52       		.byte	0x52
 3930 0cf1 04       		.uleb128 0x4
 3931 0cf2 77       		.byte	0x77
 3932 0cf3 C800     		.sleb128 72
 3933 0cf5 06       		.byte	0x6
 3934 0cf6 00       		.byte	0
 3935 0cf7 28       		.uleb128 0x28
 3936 0cf8 8E080000 		.4byte	.LVL144
 3937 0cfc 54100000 		.4byte	0x1054
 3938 0d00 0B0D0000 		.4byte	0xd0b
 3939 0d04 1B       		.uleb128 0x1b
 3940 0d05 01       		.uleb128 0x1
 3941 0d06 53       		.byte	0x53
 3942 0d07 02       		.uleb128 0x2
 3943 0d08 78       		.byte	0x78
 3944 0d09 00       		.sleb128 0
 3945 0d0a 00       		.byte	0
 3946 0d0b 28       		.uleb128 0x28
 3947 0d0c D2080000 		.4byte	.LVL146
 3948 0d10 54100000 		.4byte	0x1054
 3949 0d14 260D0000 		.4byte	0xd26
 3950 0d18 1B       		.uleb128 0x1b
 3951 0d19 01       		.uleb128 0x1
 3952 0d1a 53       		.byte	0x53
 3953 0d1b 02       		.uleb128 0x2
 3954 0d1c 78       		.byte	0x78
 3955 0d1d 00       		.sleb128 0
 3956 0d1e 1B       		.uleb128 0x1b
 3957 0d1f 02       		.uleb128 0x2
 3958 0d20 7D       		.byte	0x7d
 3959 0d21 04       		.sleb128 4
 3960 0d22 02       		.uleb128 0x2
 3961 0d23 74       		.byte	0x74
 3962 0d24 00       		.sleb128 0
 3963 0d25 00       		.byte	0
 3964 0d26 29       		.uleb128 0x29
 3965 0d27 18090000 		.4byte	.LVL149
 3966 0d2b 02       		.uleb128 0x2
 3967 0d2c 75       		.byte	0x75
 3968 0d2d 00       		.sleb128 0
 3969 0d2e 4B0D0000 		.4byte	0xd4b
 3970 0d32 1B       		.uleb128 0x1b
 3971 0d33 01       		.uleb128 0x1
 3972 0d34 50       		.byte	0x50
 3973 0d35 03       		.uleb128 0x3
 3974 0d36 77       		.byte	0x77
 3975 0d37 F000     		.sleb128 112
 3976 0d39 1B       		.uleb128 0x1b
 3977 0d3a 01       		.uleb128 0x1
 3978 0d3b 51       		.byte	0x51
 3979 0d3c 04       		.uleb128 0x4
ARM GAS  C:\Users\d3bug\AppData\Local\Temp\ccg1LD4z.s 			page 86


 3980 0d3d 77       		.byte	0x77
 3981 0d3e C800     		.sleb128 72
 3982 0d40 06       		.byte	0x6
 3983 0d41 1B       		.uleb128 0x1b
 3984 0d42 01       		.uleb128 0x1
 3985 0d43 53       		.byte	0x53
 3986 0d44 05       		.uleb128 0x5
 3987 0d45 77       		.byte	0x77
 3988 0d46 CC00     		.sleb128 76
 3989 0d48 94       		.byte	0x94
 3990 0d49 01       		.byte	0x1
 3991 0d4a 00       		.byte	0
 3992 0d4b 29       		.uleb128 0x29
 3993 0d4c 56090000 		.4byte	.LVL150
 3994 0d50 02       		.uleb128 0x2
 3995 0d51 75       		.byte	0x75
 3996 0d52 00       		.sleb128 0
 3997 0d53 600D0000 		.4byte	0xd60
 3998 0d57 1B       		.uleb128 0x1b
 3999 0d58 01       		.uleb128 0x1
 4000 0d59 52       		.byte	0x52
 4001 0d5a 04       		.uleb128 0x4
 4002 0d5b 77       		.byte	0x77
 4003 0d5c C800     		.sleb128 72
 4004 0d5e 06       		.byte	0x6
 4005 0d5f 00       		.byte	0
 4006 0d60 28       		.uleb128 0x28
 4007 0d61 A8090000 		.4byte	.LVL157
 4008 0d65 49100000 		.4byte	0x1049
 4009 0d69 740D0000 		.4byte	0xd74
 4010 0d6d 1B       		.uleb128 0x1b
 4011 0d6e 01       		.uleb128 0x1
 4012 0d6f 53       		.byte	0x53
 4013 0d70 02       		.uleb128 0x2
 4014 0d71 7A       		.byte	0x7a
 4015 0d72 00       		.sleb128 0
 4016 0d73 00       		.byte	0
 4017 0d74 28       		.uleb128 0x28
 4018 0d75 EA090000 		.4byte	.LVL158
 4019 0d79 49100000 		.4byte	0x1049
 4020 0d7d 8F0D0000 		.4byte	0xd8f
 4021 0d81 1B       		.uleb128 0x1b
 4022 0d82 01       		.uleb128 0x1
 4023 0d83 53       		.byte	0x53
 4024 0d84 02       		.uleb128 0x2
 4025 0d85 7A       		.byte	0x7a
 4026 0d86 00       		.sleb128 0
 4027 0d87 1B       		.uleb128 0x1b
 4028 0d88 02       		.uleb128 0x2
 4029 0d89 7D       		.byte	0x7d
 4030 0d8a 04       		.sleb128 4
 4031 0d8b 02       		.uleb128 0x2
 4032 0d8c 74       		.byte	0x74
 4033 0d8d 00       		.sleb128 0
 4034 0d8e 00       		.byte	0
 4035 0d8f 28       		.uleb128 0x28
 4036 0d90 040A0000 		.4byte	.LVL160
ARM GAS  C:\Users\d3bug\AppData\Local\Temp\ccg1LD4z.s 			page 87


 4037 0d94 48080000 		.4byte	0x848
 4038 0d98 A30D0000 		.4byte	0xda3
 4039 0d9c 1B       		.uleb128 0x1b
 4040 0d9d 01       		.uleb128 0x1
 4041 0d9e 50       		.byte	0x50
 4042 0d9f 02       		.uleb128 0x2
 4043 0da0 79       		.byte	0x79
 4044 0da1 00       		.sleb128 0
 4045 0da2 00       		.byte	0
 4046 0da3 29       		.uleb128 0x29
 4047 0da4 580A0000 		.4byte	.LVL165
 4048 0da8 02       		.uleb128 0x2
 4049 0da9 75       		.byte	0x75
 4050 0daa 00       		.sleb128 0
 4051 0dab C80D0000 		.4byte	0xdc8
 4052 0daf 1B       		.uleb128 0x1b
 4053 0db0 01       		.uleb128 0x1
 4054 0db1 50       		.byte	0x50
 4055 0db2 03       		.uleb128 0x3
 4056 0db3 77       		.byte	0x77
 4057 0db4 F000     		.sleb128 112
 4058 0db6 1B       		.uleb128 0x1b
 4059 0db7 01       		.uleb128 0x1
 4060 0db8 51       		.byte	0x51
 4061 0db9 04       		.uleb128 0x4
 4062 0dba 77       		.byte	0x77
 4063 0dbb C800     		.sleb128 72
 4064 0dbd 06       		.byte	0x6
 4065 0dbe 1B       		.uleb128 0x1b
 4066 0dbf 01       		.uleb128 0x1
 4067 0dc0 53       		.byte	0x53
 4068 0dc1 05       		.uleb128 0x5
 4069 0dc2 77       		.byte	0x77
 4070 0dc3 CC00     		.sleb128 76
 4071 0dc5 94       		.byte	0x94
 4072 0dc6 01       		.byte	0x1
 4073 0dc7 00       		.byte	0
 4074 0dc8 29       		.uleb128 0x29
 4075 0dc9 960A0000 		.4byte	.LVL166
 4076 0dcd 02       		.uleb128 0x2
 4077 0dce 75       		.byte	0x75
 4078 0dcf 00       		.sleb128 0
 4079 0dd0 DD0D0000 		.4byte	0xddd
 4080 0dd4 1B       		.uleb128 0x1b
 4081 0dd5 01       		.uleb128 0x1
 4082 0dd6 52       		.byte	0x52
 4083 0dd7 04       		.uleb128 0x4
 4084 0dd8 77       		.byte	0x77
 4085 0dd9 C800     		.sleb128 72
 4086 0ddb 06       		.byte	0x6
 4087 0ddc 00       		.byte	0
 4088 0ddd 28       		.uleb128 0x28
 4089 0dde E20A0000 		.4byte	.LVL171
 4090 0de2 49100000 		.4byte	0x1049
 4091 0de6 F10D0000 		.4byte	0xdf1
 4092 0dea 1B       		.uleb128 0x1b
 4093 0deb 01       		.uleb128 0x1
ARM GAS  C:\Users\d3bug\AppData\Local\Temp\ccg1LD4z.s 			page 88


 4094 0dec 53       		.byte	0x53
 4095 0ded 02       		.uleb128 0x2
 4096 0dee 78       		.byte	0x78
 4097 0def 00       		.sleb128 0
 4098 0df0 00       		.byte	0
 4099 0df1 22       		.uleb128 0x22
 4100 0df2 260B0000 		.4byte	.LVL173
 4101 0df6 49100000 		.4byte	0x1049
 4102 0dfa 1B       		.uleb128 0x1b
 4103 0dfb 01       		.uleb128 0x1
 4104 0dfc 53       		.byte	0x53
 4105 0dfd 02       		.uleb128 0x2
 4106 0dfe 78       		.byte	0x78
 4107 0dff 00       		.sleb128 0
 4108 0e00 1B       		.uleb128 0x1b
 4109 0e01 02       		.uleb128 0x2
 4110 0e02 7D       		.byte	0x7d
 4111 0e03 04       		.sleb128 4
 4112 0e04 02       		.uleb128 0x2
 4113 0e05 74       		.byte	0x74
 4114 0e06 00       		.sleb128 0
 4115 0e07 00       		.byte	0
 4116 0e08 00       		.byte	0
 4117 0e09 2A       		.uleb128 0x2a
 4118 0e0a BD010000 		.4byte	0x1bd
 4119 0e0e 1C0E0000 		.4byte	0xe1c
 4120 0e12 2B       		.uleb128 0x2b
 4121 0e13 9E000000 		.4byte	0x9e
 4122 0e17 28090000 		.4byte	0x928
 4123 0e1b 00       		.byte	0
 4124 0e1c 11       		.uleb128 0x11
 4125 0e1d 9E000000 		.4byte	0x9e
 4126 0e21 2C       		.uleb128 0x2c
 4127 0e22 BD010000 		.4byte	0x1bd
 4128 0e26 2D       		.uleb128 0x2d
 4129 0e27 D6020000 		.4byte	.LASF128
 4130 0e2b 01       		.byte	0x1
 4131 0e2c 4B       		.byte	0x4b
 4132 0e2d 00000000 		.4byte	.LFB13
 4133 0e31 C8010000 		.4byte	.LFE13-.LFB13
 4134 0e35 01       		.uleb128 0x1
 4135 0e36 9C       		.byte	0x9c
 4136 0e37 E40F0000 		.4byte	0xfe4
 4137 0e3b 15       		.uleb128 0x15
 4138 0e3c 13050000 		.4byte	.LASF117
 4139 0e40 01       		.byte	0x1
 4140 0e41 4B       		.byte	0x4b
 4141 0e42 C9070000 		.4byte	0x7c9
 4142 0e46 67090000 		.4byte	.LLST44
 4143 0e4a 15       		.uleb128 0x15
 4144 0e4b 1A050000 		.4byte	.LASF118
 4145 0e4f 01       		.byte	0x1
 4146 0e50 4B       		.byte	0x4b
 4147 0e51 C9070000 		.4byte	0x7c9
 4148 0e55 BA090000 		.4byte	.LLST45
 4149 0e59 15       		.uleb128 0x15
 4150 0e5a 4A030000 		.4byte	.LASF86
ARM GAS  C:\Users\d3bug\AppData\Local\Temp\ccg1LD4z.s 			page 89


 4151 0e5e 01       		.byte	0x1
 4152 0e5f 4B       		.byte	0x4b
 4153 0e60 79050000 		.4byte	0x579
 4154 0e64 260A0000 		.4byte	.LLST46
 4155 0e68 15       		.uleb128 0x15
 4156 0e69 2B050000 		.4byte	.LASF87
 4157 0e6d 01       		.byte	0x1
 4158 0e6e 4C       		.byte	0x4c
 4159 0e6f 84050000 		.4byte	0x584
 4160 0e73 520A0000 		.4byte	.LLST47
 4161 0e77 2E       		.uleb128 0x2e
 4162 0e78 9D040000 		.4byte	.LASF88
 4163 0e7c 01       		.byte	0x1
 4164 0e7d 4C       		.byte	0x4c
 4165 0e7e 8A010000 		.4byte	0x18a
 4166 0e82 02       		.uleb128 0x2
 4167 0e83 91       		.byte	0x91
 4168 0e84 00       		.sleb128 0
 4169 0e85 19       		.uleb128 0x19
 4170 0e86 21050000 		.4byte	.LASF85
 4171 0e8a 01       		.byte	0x1
 4172 0e8b 52       		.byte	0x52
 4173 0e8c 09060000 		.4byte	0x609
 4174 0e90 02       		.uleb128 0x2
 4175 0e91 91       		.byte	0x91
 4176 0e92 4C       		.sleb128 -52
 4177 0e93 2F       		.uleb128 0x2f
 4178 0e94 703100   		.ascii	"p1\000"
 4179 0e97 01       		.byte	0x1
 4180 0e98 53       		.byte	0x53
 4181 0e99 BD010000 		.4byte	0x1bd
 4182 0e9d 02       		.uleb128 0x2
 4183 0e9e 91       		.byte	0x91
 4184 0e9f 48       		.sleb128 -56
 4185 0ea0 2F       		.uleb128 0x2f
 4186 0ea1 703200   		.ascii	"p2\000"
 4187 0ea4 01       		.byte	0x1
 4188 0ea5 54       		.byte	0x54
 4189 0ea6 BD010000 		.4byte	0x1bd
 4190 0eaa 02       		.uleb128 0x2
 4191 0eab 91       		.byte	0x91
 4192 0eac 44       		.sleb128 -60
 4193 0ead 26       		.uleb128 0x26
 4194 0eae 02010000 		.4byte	.LBB8
 4195 0eb2 C0000000 		.4byte	.LBE8-.LBB8
 4196 0eb6 7B0F0000 		.4byte	0xf7b
 4197 0eba 16       		.uleb128 0x16
 4198 0ebb 09030000 		.4byte	.LASF102
 4199 0ebf 01       		.byte	0x1
 4200 0ec0 82       		.byte	0x82
 4201 0ec1 72050000 		.4byte	0x572
 4202 0ec5 7E0A0000 		.4byte	.LLST48
 4203 0ec9 19       		.uleb128 0x19
 4204 0eca 11030000 		.4byte	.LASF119
 4205 0ece 01       		.byte	0x1
 4206 0ecf 84       		.byte	0x84
 4207 0ed0 BD010000 		.4byte	0x1bd
ARM GAS  C:\Users\d3bug\AppData\Local\Temp\ccg1LD4z.s 			page 90


 4208 0ed4 02       		.uleb128 0x2
 4209 0ed5 91       		.byte	0x91
 4210 0ed6 40       		.sleb128 -64
 4211 0ed7 28       		.uleb128 0x28
 4212 0ed8 20010000 		.4byte	.LVL194
 4213 0edc 86070000 		.4byte	0x786
 4214 0ee0 F70E0000 		.4byte	0xef7
 4215 0ee4 1B       		.uleb128 0x1b
 4216 0ee5 01       		.uleb128 0x1
 4217 0ee6 50       		.byte	0x50
 4218 0ee7 02       		.uleb128 0x2
 4219 0ee8 91       		.byte	0x91
 4220 0ee9 4C       		.sleb128 -52
 4221 0eea 1B       		.uleb128 0x1b
 4222 0eeb 01       		.uleb128 0x1
 4223 0eec 51       		.byte	0x51
 4224 0eed 02       		.uleb128 0x2
 4225 0eee 91       		.byte	0x91
 4226 0eef 48       		.sleb128 -56
 4227 0ef0 1B       		.uleb128 0x1b
 4228 0ef1 01       		.uleb128 0x1
 4229 0ef2 52       		.byte	0x52
 4230 0ef3 02       		.uleb128 0x2
 4231 0ef4 91       		.byte	0x91
 4232 0ef5 40       		.sleb128 -64
 4233 0ef6 00       		.byte	0
 4234 0ef7 28       		.uleb128 0x28
 4235 0ef8 4A010000 		.4byte	.LVL196
 4236 0efc 86070000 		.4byte	0x786
 4237 0f00 170F0000 		.4byte	0xf17
 4238 0f04 1B       		.uleb128 0x1b
 4239 0f05 01       		.uleb128 0x1
 4240 0f06 50       		.byte	0x50
 4241 0f07 02       		.uleb128 0x2
 4242 0f08 91       		.byte	0x91
 4243 0f09 4C       		.sleb128 -52
 4244 0f0a 1B       		.uleb128 0x1b
 4245 0f0b 01       		.uleb128 0x1
 4246 0f0c 51       		.byte	0x51
 4247 0f0d 02       		.uleb128 0x2
 4248 0f0e 91       		.byte	0x91
 4249 0f0f 48       		.sleb128 -56
 4250 0f10 1B       		.uleb128 0x1b
 4251 0f11 01       		.uleb128 0x1
 4252 0f12 52       		.byte	0x52
 4253 0f13 02       		.uleb128 0x2
 4254 0f14 91       		.byte	0x91
 4255 0f15 40       		.sleb128 -64
 4256 0f16 00       		.byte	0
 4257 0f17 28       		.uleb128 0x28
 4258 0f18 74010000 		.4byte	.LVL198
 4259 0f1c 86070000 		.4byte	0x786
 4260 0f20 370F0000 		.4byte	0xf37
 4261 0f24 1B       		.uleb128 0x1b
 4262 0f25 01       		.uleb128 0x1
 4263 0f26 50       		.byte	0x50
 4264 0f27 02       		.uleb128 0x2
ARM GAS  C:\Users\d3bug\AppData\Local\Temp\ccg1LD4z.s 			page 91


 4265 0f28 91       		.byte	0x91
 4266 0f29 4C       		.sleb128 -52
 4267 0f2a 1B       		.uleb128 0x1b
 4268 0f2b 01       		.uleb128 0x1
 4269 0f2c 51       		.byte	0x51
 4270 0f2d 02       		.uleb128 0x2
 4271 0f2e 91       		.byte	0x91
 4272 0f2f 48       		.sleb128 -56
 4273 0f30 1B       		.uleb128 0x1b
 4274 0f31 01       		.uleb128 0x1
 4275 0f32 52       		.byte	0x52
 4276 0f33 02       		.uleb128 0x2
 4277 0f34 91       		.byte	0x91
 4278 0f35 40       		.sleb128 -64
 4279 0f36 00       		.byte	0
 4280 0f37 28       		.uleb128 0x28
 4281 0f38 9E010000 		.4byte	.LVL200
 4282 0f3c 86070000 		.4byte	0x786
 4283 0f40 570F0000 		.4byte	0xf57
 4284 0f44 1B       		.uleb128 0x1b
 4285 0f45 01       		.uleb128 0x1
 4286 0f46 50       		.byte	0x50
 4287 0f47 02       		.uleb128 0x2
 4288 0f48 91       		.byte	0x91
 4289 0f49 4C       		.sleb128 -52
 4290 0f4a 1B       		.uleb128 0x1b
 4291 0f4b 01       		.uleb128 0x1
 4292 0f4c 51       		.byte	0x51
 4293 0f4d 02       		.uleb128 0x2
 4294 0f4e 91       		.byte	0x91
 4295 0f4f 48       		.sleb128 -56
 4296 0f50 1B       		.uleb128 0x1b
 4297 0f51 01       		.uleb128 0x1
 4298 0f52 52       		.byte	0x52
 4299 0f53 02       		.uleb128 0x2
 4300 0f54 91       		.byte	0x91
 4301 0f55 40       		.sleb128 -64
 4302 0f56 00       		.byte	0
 4303 0f57 22       		.uleb128 0x22
 4304 0f58 C2010000 		.4byte	.LVL202
 4305 0f5c 91080000 		.4byte	0x891
 4306 0f60 1B       		.uleb128 0x1b
 4307 0f61 01       		.uleb128 0x1
 4308 0f62 50       		.byte	0x50
 4309 0f63 02       		.uleb128 0x2
 4310 0f64 91       		.byte	0x91
 4311 0f65 4C       		.sleb128 -52
 4312 0f66 1B       		.uleb128 0x1b
 4313 0f67 01       		.uleb128 0x1
 4314 0f68 52       		.byte	0x52
 4315 0f69 02       		.uleb128 0x2
 4316 0f6a 75       		.byte	0x75
 4317 0f6b 00       		.sleb128 0
 4318 0f6c 1B       		.uleb128 0x1b
 4319 0f6d 01       		.uleb128 0x1
 4320 0f6e 53       		.byte	0x53
 4321 0f6f 02       		.uleb128 0x2
ARM GAS  C:\Users\d3bug\AppData\Local\Temp\ccg1LD4z.s 			page 92


 4322 0f70 74       		.byte	0x74
 4323 0f71 00       		.sleb128 0
 4324 0f72 1B       		.uleb128 0x1b
 4325 0f73 02       		.uleb128 0x2
 4326 0f74 7D       		.byte	0x7d
 4327 0f75 00       		.sleb128 0
 4328 0f76 02       		.uleb128 0x2
 4329 0f77 76       		.byte	0x76
 4330 0f78 00       		.sleb128 0
 4331 0f79 00       		.byte	0
 4332 0f7a 00       		.byte	0
 4333 0f7b 28       		.uleb128 0x28
 4334 0f7c CE000000 		.4byte	.LVL189
 4335 0f80 86070000 		.4byte	0x786
 4336 0f84 9B0F0000 		.4byte	0xf9b
 4337 0f88 1B       		.uleb128 0x1b
 4338 0f89 01       		.uleb128 0x1
 4339 0f8a 50       		.byte	0x50
 4340 0f8b 02       		.uleb128 0x2
 4341 0f8c 91       		.byte	0x91
 4342 0f8d 4C       		.sleb128 -52
 4343 0f8e 1B       		.uleb128 0x1b
 4344 0f8f 01       		.uleb128 0x1
 4345 0f90 51       		.byte	0x51
 4346 0f91 02       		.uleb128 0x2
 4347 0f92 91       		.byte	0x91
 4348 0f93 48       		.sleb128 -56
 4349 0f94 1B       		.uleb128 0x1b
 4350 0f95 01       		.uleb128 0x1
 4351 0f96 52       		.byte	0x52
 4352 0f97 02       		.uleb128 0x2
 4353 0f98 91       		.byte	0x91
 4354 0f99 44       		.sleb128 -60
 4355 0f9a 00       		.byte	0
 4356 0f9b 28       		.uleb128 0x28
 4357 0f9c E6000000 		.4byte	.LVL190
 4358 0fa0 14060000 		.4byte	0x614
 4359 0fa4 C10F0000 		.4byte	0xfc1
 4360 0fa8 1B       		.uleb128 0x1b
 4361 0fa9 01       		.uleb128 0x1
 4362 0faa 50       		.byte	0x50
 4363 0fab 02       		.uleb128 0x2
 4364 0fac 91       		.byte	0x91
 4365 0fad 4C       		.sleb128 -52
 4366 0fae 1B       		.uleb128 0x1b
 4367 0faf 01       		.uleb128 0x1
 4368 0fb0 51       		.byte	0x51
 4369 0fb1 02       		.uleb128 0x2
 4370 0fb2 75       		.byte	0x75
 4371 0fb3 00       		.sleb128 0
 4372 0fb4 1B       		.uleb128 0x1b
 4373 0fb5 01       		.uleb128 0x1
 4374 0fb6 52       		.byte	0x52
 4375 0fb7 02       		.uleb128 0x2
 4376 0fb8 74       		.byte	0x74
 4377 0fb9 00       		.sleb128 0
 4378 0fba 1B       		.uleb128 0x1b
ARM GAS  C:\Users\d3bug\AppData\Local\Temp\ccg1LD4z.s 			page 93


 4379 0fbb 01       		.uleb128 0x1
 4380 0fbc 53       		.byte	0x53
 4381 0fbd 02       		.uleb128 0x2
 4382 0fbe 76       		.byte	0x76
 4383 0fbf 00       		.sleb128 0
 4384 0fc0 00       		.byte	0
 4385 0fc1 22       		.uleb128 0x22
 4386 0fc2 00010000 		.4byte	.LVL191
 4387 0fc6 D0060000 		.4byte	0x6d0
 4388 0fca 1B       		.uleb128 0x1b
 4389 0fcb 01       		.uleb128 0x1
 4390 0fcc 50       		.byte	0x50
 4391 0fcd 02       		.uleb128 0x2
 4392 0fce 91       		.byte	0x91
 4393 0fcf 4C       		.sleb128 -52
 4394 0fd0 1B       		.uleb128 0x1b
 4395 0fd1 01       		.uleb128 0x1
 4396 0fd2 51       		.byte	0x51
 4397 0fd3 02       		.uleb128 0x2
 4398 0fd4 75       		.byte	0x75
 4399 0fd5 00       		.sleb128 0
 4400 0fd6 1B       		.uleb128 0x1b
 4401 0fd7 01       		.uleb128 0x1
 4402 0fd8 52       		.byte	0x52
 4403 0fd9 02       		.uleb128 0x2
 4404 0fda 74       		.byte	0x74
 4405 0fdb 00       		.sleb128 0
 4406 0fdc 1B       		.uleb128 0x1b
 4407 0fdd 01       		.uleb128 0x1
 4408 0fde 53       		.byte	0x53
 4409 0fdf 02       		.uleb128 0x2
 4410 0fe0 76       		.byte	0x76
 4411 0fe1 00       		.sleb128 0
 4412 0fe2 00       		.byte	0
 4413 0fe3 00       		.byte	0
 4414 0fe4 30       		.uleb128 0x30
 4415 0fe5 03100000 		.4byte	0x1003
 4416 0fe9 13       		.uleb128 0x13
 4417 0fea 95010000 		.4byte	0x195
 4418 0fee 13       		.uleb128 0x13
 4419 0fef 95010000 		.4byte	0x195
 4420 0ff3 13       		.uleb128 0x13
 4421 0ff4 79050000 		.4byte	0x579
 4422 0ff8 13       		.uleb128 0x13
 4423 0ff9 7F010000 		.4byte	0x17f
 4424 0ffd 13       		.uleb128 0x13
 4425 0ffe 8A010000 		.4byte	0x18a
 4426 1002 00       		.byte	0
 4427 1003 31       		.uleb128 0x31
 4428 1004 8E030000 		.4byte	.LASF120
 4429 1008 08       		.byte	0x8
 4430 1009 5B       		.byte	0x5b
 4431 100a 14100000 		.4byte	0x1014
 4432 100e 10       		.uleb128 0x10
 4433 100f 04       		.byte	0x4
 4434 1010 E40F0000 		.4byte	0xfe4
 4435 1014 11       		.uleb128 0x11
ARM GAS  C:\Users\d3bug\AppData\Local\Temp\ccg1LD4z.s 			page 94


 4436 1015 0E100000 		.4byte	0x100e
 4437 1019 30       		.uleb128 0x30
 4438 101a 33100000 		.4byte	0x1033
 4439 101e 13       		.uleb128 0x13
 4440 101f 79050000 		.4byte	0x579
 4441 1023 13       		.uleb128 0x13
 4442 1024 79050000 		.4byte	0x579
 4443 1028 13       		.uleb128 0x13
 4444 1029 7F010000 		.4byte	0x17f
 4445 102d 13       		.uleb128 0x13
 4446 102e 8A010000 		.4byte	0x18a
 4447 1032 00       		.byte	0
 4448 1033 31       		.uleb128 0x31
 4449 1034 80000000 		.4byte	.LASF121
 4450 1038 08       		.byte	0x8
 4451 1039 5C       		.byte	0x5c
 4452 103a 44100000 		.4byte	0x1044
 4453 103e 10       		.uleb128 0x10
 4454 103f 04       		.byte	0x4
 4455 1040 19100000 		.4byte	0x1019
 4456 1044 11       		.uleb128 0x11
 4457 1045 3E100000 		.4byte	0x103e
 4458 1049 32       		.uleb128 0x32
 4459 104a BB040000 		.4byte	.LASF122
 4460 104e BB040000 		.4byte	.LASF122
 4461 1052 08       		.byte	0x8
 4462 1053 4A       		.byte	0x4a
 4463 1054 32       		.uleb128 0x32
 4464 1055 88000000 		.4byte	.LASF123
 4465 1059 88000000 		.4byte	.LASF123
 4466 105d 08       		.byte	0x8
 4467 105e 55       		.byte	0x55
 4468 105f 00       		.byte	0
 4469              		.section	.debug_abbrev,"",%progbits
 4470              	.Ldebug_abbrev0:
 4471 0000 01       		.uleb128 0x1
 4472 0001 11       		.uleb128 0x11
 4473 0002 01       		.byte	0x1
 4474 0003 25       		.uleb128 0x25
 4475 0004 0E       		.uleb128 0xe
 4476 0005 13       		.uleb128 0x13
 4477 0006 0B       		.uleb128 0xb
 4478 0007 03       		.uleb128 0x3
 4479 0008 0E       		.uleb128 0xe
 4480 0009 1B       		.uleb128 0x1b
 4481 000a 0E       		.uleb128 0xe
 4482 000b 55       		.uleb128 0x55
 4483 000c 17       		.uleb128 0x17
 4484 000d 11       		.uleb128 0x11
 4485 000e 01       		.uleb128 0x1
 4486 000f 10       		.uleb128 0x10
 4487 0010 17       		.uleb128 0x17
 4488 0011 00       		.byte	0
 4489 0012 00       		.byte	0
 4490 0013 02       		.uleb128 0x2
 4491 0014 24       		.uleb128 0x24
 4492 0015 00       		.byte	0
ARM GAS  C:\Users\d3bug\AppData\Local\Temp\ccg1LD4z.s 			page 95


 4493 0016 0B       		.uleb128 0xb
 4494 0017 0B       		.uleb128 0xb
 4495 0018 3E       		.uleb128 0x3e
 4496 0019 0B       		.uleb128 0xb
 4497 001a 03       		.uleb128 0x3
 4498 001b 0E       		.uleb128 0xe
 4499 001c 00       		.byte	0
 4500 001d 00       		.byte	0
 4501 001e 03       		.uleb128 0x3
 4502 001f 16       		.uleb128 0x16
 4503 0020 00       		.byte	0
 4504 0021 03       		.uleb128 0x3
 4505 0022 0E       		.uleb128 0xe
 4506 0023 3A       		.uleb128 0x3a
 4507 0024 0B       		.uleb128 0xb
 4508 0025 3B       		.uleb128 0x3b
 4509 0026 0B       		.uleb128 0xb
 4510 0027 49       		.uleb128 0x49
 4511 0028 13       		.uleb128 0x13
 4512 0029 00       		.byte	0
 4513 002a 00       		.byte	0
 4514 002b 04       		.uleb128 0x4
 4515 002c 24       		.uleb128 0x24
 4516 002d 00       		.byte	0
 4517 002e 0B       		.uleb128 0xb
 4518 002f 0B       		.uleb128 0xb
 4519 0030 3E       		.uleb128 0x3e
 4520 0031 0B       		.uleb128 0xb
 4521 0032 03       		.uleb128 0x3
 4522 0033 08       		.uleb128 0x8
 4523 0034 00       		.byte	0
 4524 0035 00       		.byte	0
 4525 0036 05       		.uleb128 0x5
 4526 0037 04       		.uleb128 0x4
 4527 0038 01       		.byte	0x1
 4528 0039 0B       		.uleb128 0xb
 4529 003a 0B       		.uleb128 0xb
 4530 003b 49       		.uleb128 0x49
 4531 003c 13       		.uleb128 0x13
 4532 003d 3A       		.uleb128 0x3a
 4533 003e 0B       		.uleb128 0xb
 4534 003f 3B       		.uleb128 0x3b
 4535 0040 0B       		.uleb128 0xb
 4536 0041 01       		.uleb128 0x1
 4537 0042 13       		.uleb128 0x13
 4538 0043 00       		.byte	0
 4539 0044 00       		.byte	0
 4540 0045 06       		.uleb128 0x6
 4541 0046 28       		.uleb128 0x28
 4542 0047 00       		.byte	0
 4543 0048 03       		.uleb128 0x3
 4544 0049 0E       		.uleb128 0xe
 4545 004a 1C       		.uleb128 0x1c
 4546 004b 0B       		.uleb128 0xb
 4547 004c 00       		.byte	0
 4548 004d 00       		.byte	0
 4549 004e 07       		.uleb128 0x7
ARM GAS  C:\Users\d3bug\AppData\Local\Temp\ccg1LD4z.s 			page 96


 4550 004f 17       		.uleb128 0x17
 4551 0050 01       		.byte	0x1
 4552 0051 0B       		.uleb128 0xb
 4553 0052 0B       		.uleb128 0xb
 4554 0053 3A       		.uleb128 0x3a
 4555 0054 0B       		.uleb128 0xb
 4556 0055 3B       		.uleb128 0x3b
 4557 0056 0B       		.uleb128 0xb
 4558 0057 01       		.uleb128 0x1
 4559 0058 13       		.uleb128 0x13
 4560 0059 00       		.byte	0
 4561 005a 00       		.byte	0
 4562 005b 08       		.uleb128 0x8
 4563 005c 0D       		.uleb128 0xd
 4564 005d 00       		.byte	0
 4565 005e 03       		.uleb128 0x3
 4566 005f 0E       		.uleb128 0xe
 4567 0060 3A       		.uleb128 0x3a
 4568 0061 0B       		.uleb128 0xb
 4569 0062 3B       		.uleb128 0x3b
 4570 0063 0B       		.uleb128 0xb
 4571 0064 49       		.uleb128 0x49
 4572 0065 13       		.uleb128 0x13
 4573 0066 0B       		.uleb128 0xb
 4574 0067 0B       		.uleb128 0xb
 4575 0068 0D       		.uleb128 0xd
 4576 0069 0B       		.uleb128 0xb
 4577 006a 0C       		.uleb128 0xc
 4578 006b 0B       		.uleb128 0xb
 4579 006c 00       		.byte	0
 4580 006d 00       		.byte	0
 4581 006e 09       		.uleb128 0x9
 4582 006f 0D       		.uleb128 0xd
 4583 0070 00       		.byte	0
 4584 0071 03       		.uleb128 0x3
 4585 0072 08       		.uleb128 0x8
 4586 0073 3A       		.uleb128 0x3a
 4587 0074 0B       		.uleb128 0xb
 4588 0075 3B       		.uleb128 0x3b
 4589 0076 0B       		.uleb128 0xb
 4590 0077 49       		.uleb128 0x49
 4591 0078 13       		.uleb128 0x13
 4592 0079 0B       		.uleb128 0xb
 4593 007a 0B       		.uleb128 0xb
 4594 007b 0D       		.uleb128 0xd
 4595 007c 0B       		.uleb128 0xb
 4596 007d 0C       		.uleb128 0xc
 4597 007e 0B       		.uleb128 0xb
 4598 007f 00       		.byte	0
 4599 0080 00       		.byte	0
 4600 0081 0A       		.uleb128 0xa
 4601 0082 13       		.uleb128 0x13
 4602 0083 01       		.byte	0x1
 4603 0084 0B       		.uleb128 0xb
 4604 0085 0B       		.uleb128 0xb
 4605 0086 3A       		.uleb128 0x3a
 4606 0087 0B       		.uleb128 0xb
ARM GAS  C:\Users\d3bug\AppData\Local\Temp\ccg1LD4z.s 			page 97


 4607 0088 3B       		.uleb128 0x3b
 4608 0089 0B       		.uleb128 0xb
 4609 008a 01       		.uleb128 0x1
 4610 008b 13       		.uleb128 0x13
 4611 008c 00       		.byte	0
 4612 008d 00       		.byte	0
 4613 008e 0B       		.uleb128 0xb
 4614 008f 0D       		.uleb128 0xd
 4615 0090 00       		.byte	0
 4616 0091 03       		.uleb128 0x3
 4617 0092 08       		.uleb128 0x8
 4618 0093 3A       		.uleb128 0x3a
 4619 0094 0B       		.uleb128 0xb
 4620 0095 3B       		.uleb128 0x3b
 4621 0096 0B       		.uleb128 0xb
 4622 0097 49       		.uleb128 0x49
 4623 0098 13       		.uleb128 0x13
 4624 0099 38       		.uleb128 0x38
 4625 009a 0B       		.uleb128 0xb
 4626 009b 00       		.byte	0
 4627 009c 00       		.byte	0
 4628 009d 0C       		.uleb128 0xc
 4629 009e 0D       		.uleb128 0xd
 4630 009f 00       		.byte	0
 4631 00a0 03       		.uleb128 0x3
 4632 00a1 0E       		.uleb128 0xe
 4633 00a2 3A       		.uleb128 0x3a
 4634 00a3 0B       		.uleb128 0xb
 4635 00a4 3B       		.uleb128 0x3b
 4636 00a5 0B       		.uleb128 0xb
 4637 00a6 49       		.uleb128 0x49
 4638 00a7 13       		.uleb128 0x13
 4639 00a8 0B       		.uleb128 0xb
 4640 00a9 0B       		.uleb128 0xb
 4641 00aa 0D       		.uleb128 0xd
 4642 00ab 0B       		.uleb128 0xb
 4643 00ac 0C       		.uleb128 0xc
 4644 00ad 0B       		.uleb128 0xb
 4645 00ae 38       		.uleb128 0x38
 4646 00af 0B       		.uleb128 0xb
 4647 00b0 00       		.byte	0
 4648 00b1 00       		.byte	0
 4649 00b2 0D       		.uleb128 0xd
 4650 00b3 13       		.uleb128 0x13
 4651 00b4 01       		.byte	0x1
 4652 00b5 03       		.uleb128 0x3
 4653 00b6 0E       		.uleb128 0xe
 4654 00b7 0B       		.uleb128 0xb
 4655 00b8 0B       		.uleb128 0xb
 4656 00b9 3A       		.uleb128 0x3a
 4657 00ba 0B       		.uleb128 0xb
 4658 00bb 3B       		.uleb128 0x3b
 4659 00bc 0B       		.uleb128 0xb
 4660 00bd 01       		.uleb128 0x1
 4661 00be 13       		.uleb128 0x13
 4662 00bf 00       		.byte	0
 4663 00c0 00       		.byte	0
ARM GAS  C:\Users\d3bug\AppData\Local\Temp\ccg1LD4z.s 			page 98


 4664 00c1 0E       		.uleb128 0xe
 4665 00c2 0D       		.uleb128 0xd
 4666 00c3 00       		.byte	0
 4667 00c4 03       		.uleb128 0x3
 4668 00c5 0E       		.uleb128 0xe
 4669 00c6 3A       		.uleb128 0x3a
 4670 00c7 0B       		.uleb128 0xb
 4671 00c8 3B       		.uleb128 0x3b
 4672 00c9 0B       		.uleb128 0xb
 4673 00ca 49       		.uleb128 0x49
 4674 00cb 13       		.uleb128 0x13
 4675 00cc 38       		.uleb128 0x38
 4676 00cd 0B       		.uleb128 0xb
 4677 00ce 00       		.byte	0
 4678 00cf 00       		.byte	0
 4679 00d0 0F       		.uleb128 0xf
 4680 00d1 0D       		.uleb128 0xd
 4681 00d2 00       		.byte	0
 4682 00d3 03       		.uleb128 0x3
 4683 00d4 08       		.uleb128 0x8
 4684 00d5 3A       		.uleb128 0x3a
 4685 00d6 0B       		.uleb128 0xb
 4686 00d7 3B       		.uleb128 0x3b
 4687 00d8 0B       		.uleb128 0xb
 4688 00d9 49       		.uleb128 0x49
 4689 00da 13       		.uleb128 0x13
 4690 00db 0B       		.uleb128 0xb
 4691 00dc 0B       		.uleb128 0xb
 4692 00dd 0D       		.uleb128 0xd
 4693 00de 0B       		.uleb128 0xb
 4694 00df 0C       		.uleb128 0xc
 4695 00e0 0B       		.uleb128 0xb
 4696 00e1 38       		.uleb128 0x38
 4697 00e2 0B       		.uleb128 0xb
 4698 00e3 00       		.byte	0
 4699 00e4 00       		.byte	0
 4700 00e5 10       		.uleb128 0x10
 4701 00e6 0F       		.uleb128 0xf
 4702 00e7 00       		.byte	0
 4703 00e8 0B       		.uleb128 0xb
 4704 00e9 0B       		.uleb128 0xb
 4705 00ea 49       		.uleb128 0x49
 4706 00eb 13       		.uleb128 0x13
 4707 00ec 00       		.byte	0
 4708 00ed 00       		.byte	0
 4709 00ee 11       		.uleb128 0x11
 4710 00ef 26       		.uleb128 0x26
 4711 00f0 00       		.byte	0
 4712 00f1 49       		.uleb128 0x49
 4713 00f2 13       		.uleb128 0x13
 4714 00f3 00       		.byte	0
 4715 00f4 00       		.byte	0
 4716 00f5 12       		.uleb128 0x12
 4717 00f6 15       		.uleb128 0x15
 4718 00f7 01       		.byte	0x1
 4719 00f8 27       		.uleb128 0x27
 4720 00f9 19       		.uleb128 0x19
ARM GAS  C:\Users\d3bug\AppData\Local\Temp\ccg1LD4z.s 			page 99


 4721 00fa 49       		.uleb128 0x49
 4722 00fb 13       		.uleb128 0x13
 4723 00fc 01       		.uleb128 0x1
 4724 00fd 13       		.uleb128 0x13
 4725 00fe 00       		.byte	0
 4726 00ff 00       		.byte	0
 4727 0100 13       		.uleb128 0x13
 4728 0101 05       		.uleb128 0x5
 4729 0102 00       		.byte	0
 4730 0103 49       		.uleb128 0x49
 4731 0104 13       		.uleb128 0x13
 4732 0105 00       		.byte	0
 4733 0106 00       		.byte	0
 4734 0107 14       		.uleb128 0x14
 4735 0108 2E       		.uleb128 0x2e
 4736 0109 01       		.byte	0x1
 4737 010a 03       		.uleb128 0x3
 4738 010b 0E       		.uleb128 0xe
 4739 010c 3A       		.uleb128 0x3a
 4740 010d 0B       		.uleb128 0xb
 4741 010e 3B       		.uleb128 0x3b
 4742 010f 0B       		.uleb128 0xb
 4743 0110 27       		.uleb128 0x27
 4744 0111 19       		.uleb128 0x19
 4745 0112 11       		.uleb128 0x11
 4746 0113 01       		.uleb128 0x1
 4747 0114 12       		.uleb128 0x12
 4748 0115 06       		.uleb128 0x6
 4749 0116 40       		.uleb128 0x40
 4750 0117 18       		.uleb128 0x18
 4751 0118 9742     		.uleb128 0x2117
 4752 011a 19       		.uleb128 0x19
 4753 011b 01       		.uleb128 0x1
 4754 011c 13       		.uleb128 0x13
 4755 011d 00       		.byte	0
 4756 011e 00       		.byte	0
 4757 011f 15       		.uleb128 0x15
 4758 0120 05       		.uleb128 0x5
 4759 0121 00       		.byte	0
 4760 0122 03       		.uleb128 0x3
 4761 0123 0E       		.uleb128 0xe
 4762 0124 3A       		.uleb128 0x3a
 4763 0125 0B       		.uleb128 0xb
 4764 0126 3B       		.uleb128 0x3b
 4765 0127 0B       		.uleb128 0xb
 4766 0128 49       		.uleb128 0x49
 4767 0129 13       		.uleb128 0x13
 4768 012a 02       		.uleb128 0x2
 4769 012b 17       		.uleb128 0x17
 4770 012c 00       		.byte	0
 4771 012d 00       		.byte	0
 4772 012e 16       		.uleb128 0x16
 4773 012f 34       		.uleb128 0x34
 4774 0130 00       		.byte	0
 4775 0131 03       		.uleb128 0x3
 4776 0132 0E       		.uleb128 0xe
 4777 0133 3A       		.uleb128 0x3a
ARM GAS  C:\Users\d3bug\AppData\Local\Temp\ccg1LD4z.s 			page 100


 4778 0134 0B       		.uleb128 0xb
 4779 0135 3B       		.uleb128 0x3b
 4780 0136 0B       		.uleb128 0xb
 4781 0137 49       		.uleb128 0x49
 4782 0138 13       		.uleb128 0x13
 4783 0139 02       		.uleb128 0x2
 4784 013a 17       		.uleb128 0x17
 4785 013b 00       		.byte	0
 4786 013c 00       		.byte	0
 4787 013d 17       		.uleb128 0x17
 4788 013e 34       		.uleb128 0x34
 4789 013f 00       		.byte	0
 4790 0140 03       		.uleb128 0x3
 4791 0141 08       		.uleb128 0x8
 4792 0142 3A       		.uleb128 0x3a
 4793 0143 0B       		.uleb128 0xb
 4794 0144 3B       		.uleb128 0x3b
 4795 0145 0B       		.uleb128 0xb
 4796 0146 49       		.uleb128 0x49
 4797 0147 13       		.uleb128 0x13
 4798 0148 02       		.uleb128 0x2
 4799 0149 17       		.uleb128 0x17
 4800 014a 00       		.byte	0
 4801 014b 00       		.byte	0
 4802 014c 18       		.uleb128 0x18
 4803 014d 34       		.uleb128 0x34
 4804 014e 00       		.byte	0
 4805 014f 03       		.uleb128 0x3
 4806 0150 0E       		.uleb128 0xe
 4807 0151 3A       		.uleb128 0x3a
 4808 0152 0B       		.uleb128 0xb
 4809 0153 3B       		.uleb128 0x3b
 4810 0154 0B       		.uleb128 0xb
 4811 0155 49       		.uleb128 0x49
 4812 0156 13       		.uleb128 0x13
 4813 0157 00       		.byte	0
 4814 0158 00       		.byte	0
 4815 0159 19       		.uleb128 0x19
 4816 015a 34       		.uleb128 0x34
 4817 015b 00       		.byte	0
 4818 015c 03       		.uleb128 0x3
 4819 015d 0E       		.uleb128 0xe
 4820 015e 3A       		.uleb128 0x3a
 4821 015f 0B       		.uleb128 0xb
 4822 0160 3B       		.uleb128 0x3b
 4823 0161 0B       		.uleb128 0xb
 4824 0162 49       		.uleb128 0x49
 4825 0163 13       		.uleb128 0x13
 4826 0164 02       		.uleb128 0x2
 4827 0165 18       		.uleb128 0x18
 4828 0166 00       		.byte	0
 4829 0167 00       		.byte	0
 4830 0168 1A       		.uleb128 0x1a
 4831 0169 898201   		.uleb128 0x4109
 4832 016c 01       		.byte	0x1
 4833 016d 11       		.uleb128 0x11
 4834 016e 01       		.uleb128 0x1
ARM GAS  C:\Users\d3bug\AppData\Local\Temp\ccg1LD4z.s 			page 101


 4835 016f 9342     		.uleb128 0x2113
 4836 0171 18       		.uleb128 0x18
 4837 0172 00       		.byte	0
 4838 0173 00       		.byte	0
 4839 0174 1B       		.uleb128 0x1b
 4840 0175 8A8201   		.uleb128 0x410a
 4841 0178 00       		.byte	0
 4842 0179 02       		.uleb128 0x2
 4843 017a 18       		.uleb128 0x18
 4844 017b 9142     		.uleb128 0x2111
 4845 017d 18       		.uleb128 0x18
 4846 017e 00       		.byte	0
 4847 017f 00       		.byte	0
 4848 0180 1C       		.uleb128 0x1c
 4849 0181 2E       		.uleb128 0x2e
 4850 0182 01       		.byte	0x1
 4851 0183 03       		.uleb128 0x3
 4852 0184 0E       		.uleb128 0xe
 4853 0185 3A       		.uleb128 0x3a
 4854 0186 0B       		.uleb128 0xb
 4855 0187 3B       		.uleb128 0x3b
 4856 0188 05       		.uleb128 0x5
 4857 0189 27       		.uleb128 0x27
 4858 018a 19       		.uleb128 0x19
 4859 018b 11       		.uleb128 0x11
 4860 018c 01       		.uleb128 0x1
 4861 018d 12       		.uleb128 0x12
 4862 018e 06       		.uleb128 0x6
 4863 018f 40       		.uleb128 0x40
 4864 0190 18       		.uleb128 0x18
 4865 0191 9742     		.uleb128 0x2117
 4866 0193 19       		.uleb128 0x19
 4867 0194 01       		.uleb128 0x1
 4868 0195 13       		.uleb128 0x13
 4869 0196 00       		.byte	0
 4870 0197 00       		.byte	0
 4871 0198 1D       		.uleb128 0x1d
 4872 0199 05       		.uleb128 0x5
 4873 019a 00       		.byte	0
 4874 019b 03       		.uleb128 0x3
 4875 019c 0E       		.uleb128 0xe
 4876 019d 3A       		.uleb128 0x3a
 4877 019e 0B       		.uleb128 0xb
 4878 019f 3B       		.uleb128 0x3b
 4879 01a0 05       		.uleb128 0x5
 4880 01a1 49       		.uleb128 0x49
 4881 01a2 13       		.uleb128 0x13
 4882 01a3 02       		.uleb128 0x2
 4883 01a4 18       		.uleb128 0x18
 4884 01a5 00       		.byte	0
 4885 01a6 00       		.byte	0
 4886 01a7 1E       		.uleb128 0x1e
 4887 01a8 05       		.uleb128 0x5
 4888 01a9 00       		.byte	0
 4889 01aa 03       		.uleb128 0x3
 4890 01ab 08       		.uleb128 0x8
 4891 01ac 3A       		.uleb128 0x3a
ARM GAS  C:\Users\d3bug\AppData\Local\Temp\ccg1LD4z.s 			page 102


 4892 01ad 0B       		.uleb128 0xb
 4893 01ae 3B       		.uleb128 0x3b
 4894 01af 05       		.uleb128 0x5
 4895 01b0 49       		.uleb128 0x49
 4896 01b1 13       		.uleb128 0x13
 4897 01b2 02       		.uleb128 0x2
 4898 01b3 17       		.uleb128 0x17
 4899 01b4 00       		.byte	0
 4900 01b5 00       		.byte	0
 4901 01b6 1F       		.uleb128 0x1f
 4902 01b7 2E       		.uleb128 0x2e
 4903 01b8 01       		.byte	0x1
 4904 01b9 03       		.uleb128 0x3
 4905 01ba 0E       		.uleb128 0xe
 4906 01bb 3A       		.uleb128 0x3a
 4907 01bc 0B       		.uleb128 0xb
 4908 01bd 3B       		.uleb128 0x3b
 4909 01be 05       		.uleb128 0x5
 4910 01bf 27       		.uleb128 0x27
 4911 01c0 19       		.uleb128 0x19
 4912 01c1 49       		.uleb128 0x49
 4913 01c2 13       		.uleb128 0x13
 4914 01c3 11       		.uleb128 0x11
 4915 01c4 01       		.uleb128 0x1
 4916 01c5 12       		.uleb128 0x12
 4917 01c6 06       		.uleb128 0x6
 4918 01c7 40       		.uleb128 0x40
 4919 01c8 18       		.uleb128 0x18
 4920 01c9 9742     		.uleb128 0x2117
 4921 01cb 19       		.uleb128 0x19
 4922 01cc 01       		.uleb128 0x1
 4923 01cd 13       		.uleb128 0x13
 4924 01ce 00       		.byte	0
 4925 01cf 00       		.byte	0
 4926 01d0 20       		.uleb128 0x20
 4927 01d1 05       		.uleb128 0x5
 4928 01d2 00       		.byte	0
 4929 01d3 03       		.uleb128 0x3
 4930 01d4 0E       		.uleb128 0xe
 4931 01d5 3A       		.uleb128 0x3a
 4932 01d6 0B       		.uleb128 0xb
 4933 01d7 3B       		.uleb128 0x3b
 4934 01d8 05       		.uleb128 0x5
 4935 01d9 49       		.uleb128 0x49
 4936 01da 13       		.uleb128 0x13
 4937 01db 02       		.uleb128 0x2
 4938 01dc 17       		.uleb128 0x17
 4939 01dd 00       		.byte	0
 4940 01de 00       		.byte	0
 4941 01df 21       		.uleb128 0x21
 4942 01e0 34       		.uleb128 0x34
 4943 01e1 00       		.byte	0
 4944 01e2 03       		.uleb128 0x3
 4945 01e3 0E       		.uleb128 0xe
 4946 01e4 3A       		.uleb128 0x3a
 4947 01e5 0B       		.uleb128 0xb
 4948 01e6 3B       		.uleb128 0x3b
ARM GAS  C:\Users\d3bug\AppData\Local\Temp\ccg1LD4z.s 			page 103


 4949 01e7 05       		.uleb128 0x5
 4950 01e8 49       		.uleb128 0x49
 4951 01e9 13       		.uleb128 0x13
 4952 01ea 02       		.uleb128 0x2
 4953 01eb 18       		.uleb128 0x18
 4954 01ec 00       		.byte	0
 4955 01ed 00       		.byte	0
 4956 01ee 22       		.uleb128 0x22
 4957 01ef 898201   		.uleb128 0x4109
 4958 01f2 01       		.byte	0x1
 4959 01f3 11       		.uleb128 0x11
 4960 01f4 01       		.uleb128 0x1
 4961 01f5 31       		.uleb128 0x31
 4962 01f6 13       		.uleb128 0x13
 4963 01f7 00       		.byte	0
 4964 01f8 00       		.byte	0
 4965 01f9 23       		.uleb128 0x23
 4966 01fa 34       		.uleb128 0x34
 4967 01fb 00       		.byte	0
 4968 01fc 34       		.uleb128 0x34
 4969 01fd 19       		.uleb128 0x19
 4970 01fe 49       		.uleb128 0x49
 4971 01ff 13       		.uleb128 0x13
 4972 0200 02       		.uleb128 0x2
 4973 0201 17       		.uleb128 0x17
 4974 0202 00       		.byte	0
 4975 0203 00       		.byte	0
 4976 0204 24       		.uleb128 0x24
 4977 0205 34       		.uleb128 0x34
 4978 0206 00       		.byte	0
 4979 0207 03       		.uleb128 0x3
 4980 0208 0E       		.uleb128 0xe
 4981 0209 3A       		.uleb128 0x3a
 4982 020a 0B       		.uleb128 0xb
 4983 020b 3B       		.uleb128 0x3b
 4984 020c 05       		.uleb128 0x5
 4985 020d 49       		.uleb128 0x49
 4986 020e 13       		.uleb128 0x13
 4987 020f 02       		.uleb128 0x2
 4988 0210 17       		.uleb128 0x17
 4989 0211 00       		.byte	0
 4990 0212 00       		.byte	0
 4991 0213 25       		.uleb128 0x25
 4992 0214 34       		.uleb128 0x34
 4993 0215 00       		.byte	0
 4994 0216 03       		.uleb128 0x3
 4995 0217 08       		.uleb128 0x8
 4996 0218 3A       		.uleb128 0x3a
 4997 0219 0B       		.uleb128 0xb
 4998 021a 3B       		.uleb128 0x3b
 4999 021b 05       		.uleb128 0x5
 5000 021c 49       		.uleb128 0x49
 5001 021d 13       		.uleb128 0x13
 5002 021e 02       		.uleb128 0x2
 5003 021f 17       		.uleb128 0x17
 5004 0220 00       		.byte	0
 5005 0221 00       		.byte	0
ARM GAS  C:\Users\d3bug\AppData\Local\Temp\ccg1LD4z.s 			page 104


 5006 0222 26       		.uleb128 0x26
 5007 0223 0B       		.uleb128 0xb
 5008 0224 01       		.byte	0x1
 5009 0225 11       		.uleb128 0x11
 5010 0226 01       		.uleb128 0x1
 5011 0227 12       		.uleb128 0x12
 5012 0228 06       		.uleb128 0x6
 5013 0229 01       		.uleb128 0x1
 5014 022a 13       		.uleb128 0x13
 5015 022b 00       		.byte	0
 5016 022c 00       		.byte	0
 5017 022d 27       		.uleb128 0x27
 5018 022e 34       		.uleb128 0x34
 5019 022f 00       		.byte	0
 5020 0230 03       		.uleb128 0x3
 5021 0231 08       		.uleb128 0x8
 5022 0232 3A       		.uleb128 0x3a
 5023 0233 0B       		.uleb128 0xb
 5024 0234 3B       		.uleb128 0x3b
 5025 0235 05       		.uleb128 0x5
 5026 0236 49       		.uleb128 0x49
 5027 0237 13       		.uleb128 0x13
 5028 0238 02       		.uleb128 0x2
 5029 0239 18       		.uleb128 0x18
 5030 023a 00       		.byte	0
 5031 023b 00       		.byte	0
 5032 023c 28       		.uleb128 0x28
 5033 023d 898201   		.uleb128 0x4109
 5034 0240 01       		.byte	0x1
 5035 0241 11       		.uleb128 0x11
 5036 0242 01       		.uleb128 0x1
 5037 0243 31       		.uleb128 0x31
 5038 0244 13       		.uleb128 0x13
 5039 0245 01       		.uleb128 0x1
 5040 0246 13       		.uleb128 0x13
 5041 0247 00       		.byte	0
 5042 0248 00       		.byte	0
 5043 0249 29       		.uleb128 0x29
 5044 024a 898201   		.uleb128 0x4109
 5045 024d 01       		.byte	0x1
 5046 024e 11       		.uleb128 0x11
 5047 024f 01       		.uleb128 0x1
 5048 0250 9342     		.uleb128 0x2113
 5049 0252 18       		.uleb128 0x18
 5050 0253 01       		.uleb128 0x1
 5051 0254 13       		.uleb128 0x13
 5052 0255 00       		.byte	0
 5053 0256 00       		.byte	0
 5054 0257 2A       		.uleb128 0x2a
 5055 0258 01       		.uleb128 0x1
 5056 0259 01       		.byte	0x1
 5057 025a 49       		.uleb128 0x49
 5058 025b 13       		.uleb128 0x13
 5059 025c 01       		.uleb128 0x1
 5060 025d 13       		.uleb128 0x13
 5061 025e 00       		.byte	0
 5062 025f 00       		.byte	0
ARM GAS  C:\Users\d3bug\AppData\Local\Temp\ccg1LD4z.s 			page 105


 5063 0260 2B       		.uleb128 0x2b
 5064 0261 21       		.uleb128 0x21
 5065 0262 00       		.byte	0
 5066 0263 49       		.uleb128 0x49
 5067 0264 13       		.uleb128 0x13
 5068 0265 2F       		.uleb128 0x2f
 5069 0266 13       		.uleb128 0x13
 5070 0267 00       		.byte	0
 5071 0268 00       		.byte	0
 5072 0269 2C       		.uleb128 0x2c
 5073 026a 35       		.uleb128 0x35
 5074 026b 00       		.byte	0
 5075 026c 49       		.uleb128 0x49
 5076 026d 13       		.uleb128 0x13
 5077 026e 00       		.byte	0
 5078 026f 00       		.byte	0
 5079 0270 2D       		.uleb128 0x2d
 5080 0271 2E       		.uleb128 0x2e
 5081 0272 01       		.byte	0x1
 5082 0273 3F       		.uleb128 0x3f
 5083 0274 19       		.uleb128 0x19
 5084 0275 03       		.uleb128 0x3
 5085 0276 0E       		.uleb128 0xe
 5086 0277 3A       		.uleb128 0x3a
 5087 0278 0B       		.uleb128 0xb
 5088 0279 3B       		.uleb128 0x3b
 5089 027a 0B       		.uleb128 0xb
 5090 027b 27       		.uleb128 0x27
 5091 027c 19       		.uleb128 0x19
 5092 027d 11       		.uleb128 0x11
 5093 027e 01       		.uleb128 0x1
 5094 027f 12       		.uleb128 0x12
 5095 0280 06       		.uleb128 0x6
 5096 0281 40       		.uleb128 0x40
 5097 0282 18       		.uleb128 0x18
 5098 0283 9742     		.uleb128 0x2117
 5099 0285 19       		.uleb128 0x19
 5100 0286 01       		.uleb128 0x1
 5101 0287 13       		.uleb128 0x13
 5102 0288 00       		.byte	0
 5103 0289 00       		.byte	0
 5104 028a 2E       		.uleb128 0x2e
 5105 028b 05       		.uleb128 0x5
 5106 028c 00       		.byte	0
 5107 028d 03       		.uleb128 0x3
 5108 028e 0E       		.uleb128 0xe
 5109 028f 3A       		.uleb128 0x3a
 5110 0290 0B       		.uleb128 0xb
 5111 0291 3B       		.uleb128 0x3b
 5112 0292 0B       		.uleb128 0xb
 5113 0293 49       		.uleb128 0x49
 5114 0294 13       		.uleb128 0x13
 5115 0295 02       		.uleb128 0x2
 5116 0296 18       		.uleb128 0x18
 5117 0297 00       		.byte	0
 5118 0298 00       		.byte	0
 5119 0299 2F       		.uleb128 0x2f
ARM GAS  C:\Users\d3bug\AppData\Local\Temp\ccg1LD4z.s 			page 106


 5120 029a 34       		.uleb128 0x34
 5121 029b 00       		.byte	0
 5122 029c 03       		.uleb128 0x3
 5123 029d 08       		.uleb128 0x8
 5124 029e 3A       		.uleb128 0x3a
 5125 029f 0B       		.uleb128 0xb
 5126 02a0 3B       		.uleb128 0x3b
 5127 02a1 0B       		.uleb128 0xb
 5128 02a2 49       		.uleb128 0x49
 5129 02a3 13       		.uleb128 0x13
 5130 02a4 02       		.uleb128 0x2
 5131 02a5 18       		.uleb128 0x18
 5132 02a6 00       		.byte	0
 5133 02a7 00       		.byte	0
 5134 02a8 30       		.uleb128 0x30
 5135 02a9 15       		.uleb128 0x15
 5136 02aa 01       		.byte	0x1
 5137 02ab 27       		.uleb128 0x27
 5138 02ac 19       		.uleb128 0x19
 5139 02ad 01       		.uleb128 0x1
 5140 02ae 13       		.uleb128 0x13
 5141 02af 00       		.byte	0
 5142 02b0 00       		.byte	0
 5143 02b1 31       		.uleb128 0x31
 5144 02b2 34       		.uleb128 0x34
 5145 02b3 00       		.byte	0
 5146 02b4 03       		.uleb128 0x3
 5147 02b5 0E       		.uleb128 0xe
 5148 02b6 3A       		.uleb128 0x3a
 5149 02b7 0B       		.uleb128 0xb
 5150 02b8 3B       		.uleb128 0x3b
 5151 02b9 0B       		.uleb128 0xb
 5152 02ba 49       		.uleb128 0x49
 5153 02bb 13       		.uleb128 0x13
 5154 02bc 3F       		.uleb128 0x3f
 5155 02bd 19       		.uleb128 0x19
 5156 02be 3C       		.uleb128 0x3c
 5157 02bf 19       		.uleb128 0x19
 5158 02c0 00       		.byte	0
 5159 02c1 00       		.byte	0
 5160 02c2 32       		.uleb128 0x32
 5161 02c3 2E       		.uleb128 0x2e
 5162 02c4 00       		.byte	0
 5163 02c5 3F       		.uleb128 0x3f
 5164 02c6 19       		.uleb128 0x19
 5165 02c7 3C       		.uleb128 0x3c
 5166 02c8 19       		.uleb128 0x19
 5167 02c9 6E       		.uleb128 0x6e
 5168 02ca 0E       		.uleb128 0xe
 5169 02cb 03       		.uleb128 0x3
 5170 02cc 0E       		.uleb128 0xe
 5171 02cd 3A       		.uleb128 0x3a
 5172 02ce 0B       		.uleb128 0xb
 5173 02cf 3B       		.uleb128 0x3b
 5174 02d0 0B       		.uleb128 0xb
 5175 02d1 00       		.byte	0
 5176 02d2 00       		.byte	0
ARM GAS  C:\Users\d3bug\AppData\Local\Temp\ccg1LD4z.s 			page 107


 5177 02d3 00       		.byte	0
 5178              		.section	.debug_loc,"",%progbits
 5179              	.Ldebug_loc0:
 5180              	.LLST0:
 5181 0000 00000000 		.4byte	.LVL0
 5182 0004 48000000 		.4byte	.LVL10
 5183 0008 0100     		.2byte	0x1
 5184 000a 50       		.byte	0x50
 5185 000b 48000000 		.4byte	.LVL10
 5186 000f 88000000 		.4byte	.LFE14
 5187 0013 0400     		.2byte	0x4
 5188 0015 F3       		.byte	0xf3
 5189 0016 01       		.uleb128 0x1
 5190 0017 50       		.byte	0x50
 5191 0018 9F       		.byte	0x9f
 5192 0019 00000000 		.4byte	0
 5193 001d 00000000 		.4byte	0
 5194              	.LLST1:
 5195 0021 00000000 		.4byte	.LVL0
 5196 0025 7F000000 		.4byte	.LVL12-1
 5197 0029 0100     		.2byte	0x1
 5198 002b 51       		.byte	0x51
 5199 002c 7F000000 		.4byte	.LVL12-1
 5200 0030 88000000 		.4byte	.LFE14
 5201 0034 0400     		.2byte	0x4
 5202 0036 F3       		.byte	0xf3
 5203 0037 01       		.uleb128 0x1
 5204 0038 51       		.byte	0x51
 5205 0039 9F       		.byte	0x9f
 5206 003a 00000000 		.4byte	0
 5207 003e 00000000 		.4byte	0
 5208              	.LLST2:
 5209 0042 00000000 		.4byte	.LVL0
 5210 0046 7C000000 		.4byte	.LVL11
 5211 004a 0100     		.2byte	0x1
 5212 004c 52       		.byte	0x52
 5213 004d 7C000000 		.4byte	.LVL11
 5214 0051 88000000 		.4byte	.LFE14
 5215 0055 0400     		.2byte	0x4
 5216 0057 F3       		.byte	0xf3
 5217 0058 01       		.uleb128 0x1
 5218 0059 52       		.byte	0x52
 5219 005a 9F       		.byte	0x9f
 5220 005b 00000000 		.4byte	0
 5221 005f 00000000 		.4byte	0
 5222              	.LLST3:
 5223 0063 00000000 		.4byte	.LVL0
 5224 0067 1A000000 		.4byte	.LVL4
 5225 006b 0100     		.2byte	0x1
 5226 006d 53       		.byte	0x53
 5227 006e 1A000000 		.4byte	.LVL4
 5228 0072 1C000000 		.4byte	.LVL5
 5229 0076 0400     		.2byte	0x4
 5230 0078 F3       		.byte	0xf3
 5231 0079 01       		.uleb128 0x1
 5232 007a 53       		.byte	0x53
 5233 007b 9F       		.byte	0x9f
ARM GAS  C:\Users\d3bug\AppData\Local\Temp\ccg1LD4z.s 			page 108


 5234 007c 1C000000 		.4byte	.LVL5
 5235 0080 24000000 		.4byte	.LVL7
 5236 0084 0100     		.2byte	0x1
 5237 0086 53       		.byte	0x53
 5238 0087 24000000 		.4byte	.LVL7
 5239 008b 88000000 		.4byte	.LFE14
 5240 008f 0400     		.2byte	0x4
 5241 0091 F3       		.byte	0xf3
 5242 0092 01       		.uleb128 0x1
 5243 0093 53       		.byte	0x53
 5244 0094 9F       		.byte	0x9f
 5245 0095 00000000 		.4byte	0
 5246 0099 00000000 		.4byte	0
 5247              	.LLST4:
 5248 009d 0C000000 		.4byte	.LVL1
 5249 00a1 20000000 		.4byte	.LVL6
 5250 00a5 0100     		.2byte	0x1
 5251 00a7 55       		.byte	0x55
 5252 00a8 20000000 		.4byte	.LVL6
 5253 00ac 7C000000 		.4byte	.LVL11
 5254 00b0 0B00     		.2byte	0xb
 5255 00b2 72       		.byte	0x72
 5256 00b3 32       		.sleb128 50
 5257 00b4 94       		.byte	0x94
 5258 00b5 02       		.byte	0x2
 5259 00b6 40       		.byte	0x40
 5260 00b7 24       		.byte	0x24
 5261 00b8 40       		.byte	0x40
 5262 00b9 26       		.byte	0x26
 5263 00ba 31       		.byte	0x31
 5264 00bb 1C       		.byte	0x1c
 5265 00bc 9F       		.byte	0x9f
 5266 00bd 7C000000 		.4byte	.LVL11
 5267 00c1 7F000000 		.4byte	.LVL12-1
 5268 00c5 0E00     		.2byte	0xe
 5269 00c7 F3       		.byte	0xf3
 5270 00c8 01       		.uleb128 0x1
 5271 00c9 52       		.byte	0x52
 5272 00ca 23       		.byte	0x23
 5273 00cb 32       		.uleb128 0x32
 5274 00cc 94       		.byte	0x94
 5275 00cd 02       		.byte	0x2
 5276 00ce 40       		.byte	0x40
 5277 00cf 24       		.byte	0x24
 5278 00d0 40       		.byte	0x40
 5279 00d1 26       		.byte	0x26
 5280 00d2 31       		.byte	0x31
 5281 00d3 1C       		.byte	0x1c
 5282 00d4 9F       		.byte	0x9f
 5283 00d5 00000000 		.4byte	0
 5284 00d9 00000000 		.4byte	0
 5285              	.LLST5:
 5286 00dd 0E000000 		.4byte	.LVL2
 5287 00e1 44000000 		.4byte	.LVL9
 5288 00e5 0100     		.2byte	0x1
 5289 00e7 54       		.byte	0x54
 5290 00e8 44000000 		.4byte	.LVL9
ARM GAS  C:\Users\d3bug\AppData\Local\Temp\ccg1LD4z.s 			page 109


 5291 00ec 7F000000 		.4byte	.LVL12-1
 5292 00f0 0100     		.2byte	0x1
 5293 00f2 5C       		.byte	0x5c
 5294 00f3 00000000 		.4byte	0
 5295 00f7 00000000 		.4byte	0
 5296              	.LLST6:
 5297 00fb 12000000 		.4byte	.LVL3
 5298 00ff 84000000 		.4byte	.LVL13
 5299 0103 0100     		.2byte	0x1
 5300 0105 56       		.byte	0x56
 5301 0106 00000000 		.4byte	0
 5302 010a 00000000 		.4byte	0
 5303              	.LLST7:
 5304 010e 28000000 		.4byte	.LVL8
 5305 0112 7F000000 		.4byte	.LVL12-1
 5306 0116 0100     		.2byte	0x1
 5307 0118 53       		.byte	0x53
 5308 0119 00000000 		.4byte	0
 5309 011d 00000000 		.4byte	0
 5310              	.LLST8:
 5311 0121 00000000 		.4byte	.LVL14
 5312 0125 44000000 		.4byte	.LVL24
 5313 0129 0100     		.2byte	0x1
 5314 012b 50       		.byte	0x50
 5315 012c 44000000 		.4byte	.LVL24
 5316 0130 84000000 		.4byte	.LFE15
 5317 0134 0400     		.2byte	0x4
 5318 0136 F3       		.byte	0xf3
 5319 0137 01       		.uleb128 0x1
 5320 0138 50       		.byte	0x50
 5321 0139 9F       		.byte	0x9f
 5322 013a 00000000 		.4byte	0
 5323 013e 00000000 		.4byte	0
 5324              	.LLST9:
 5325 0142 00000000 		.4byte	.LVL14
 5326 0146 7B000000 		.4byte	.LVL26-1
 5327 014a 0100     		.2byte	0x1
 5328 014c 51       		.byte	0x51
 5329 014d 7B000000 		.4byte	.LVL26-1
 5330 0151 84000000 		.4byte	.LFE15
 5331 0155 0400     		.2byte	0x4
 5332 0157 F3       		.byte	0xf3
 5333 0158 01       		.uleb128 0x1
 5334 0159 51       		.byte	0x51
 5335 015a 9F       		.byte	0x9f
 5336 015b 00000000 		.4byte	0
 5337 015f 00000000 		.4byte	0
 5338              	.LLST10:
 5339 0163 00000000 		.4byte	.LVL14
 5340 0167 78000000 		.4byte	.LVL25
 5341 016b 0100     		.2byte	0x1
 5342 016d 52       		.byte	0x52
 5343 016e 78000000 		.4byte	.LVL25
 5344 0172 84000000 		.4byte	.LFE15
 5345 0176 0400     		.2byte	0x4
 5346 0178 F3       		.byte	0xf3
 5347 0179 01       		.uleb128 0x1
ARM GAS  C:\Users\d3bug\AppData\Local\Temp\ccg1LD4z.s 			page 110


 5348 017a 52       		.byte	0x52
 5349 017b 9F       		.byte	0x9f
 5350 017c 00000000 		.4byte	0
 5351 0180 00000000 		.4byte	0
 5352              	.LLST11:
 5353 0184 00000000 		.4byte	.LVL14
 5354 0188 1A000000 		.4byte	.LVL18
 5355 018c 0100     		.2byte	0x1
 5356 018e 53       		.byte	0x53
 5357 018f 1A000000 		.4byte	.LVL18
 5358 0193 1C000000 		.4byte	.LVL19
 5359 0197 0400     		.2byte	0x4
 5360 0199 F3       		.byte	0xf3
 5361 019a 01       		.uleb128 0x1
 5362 019b 53       		.byte	0x53
 5363 019c 9F       		.byte	0x9f
 5364 019d 1C000000 		.4byte	.LVL19
 5365 01a1 24000000 		.4byte	.LVL20
 5366 01a5 0100     		.2byte	0x1
 5367 01a7 53       		.byte	0x53
 5368 01a8 24000000 		.4byte	.LVL20
 5369 01ac 84000000 		.4byte	.LFE15
 5370 01b0 0400     		.2byte	0x4
 5371 01b2 F3       		.byte	0xf3
 5372 01b3 01       		.uleb128 0x1
 5373 01b4 53       		.byte	0x53
 5374 01b5 9F       		.byte	0x9f
 5375 01b6 00000000 		.4byte	0
 5376 01ba 00000000 		.4byte	0
 5377              	.LLST12:
 5378 01be 0C000000 		.4byte	.LVL15
 5379 01c2 12000000 		.4byte	.LVL17
 5380 01c6 0100     		.2byte	0x1
 5381 01c8 54       		.byte	0x54
 5382 01c9 12000000 		.4byte	.LVL17
 5383 01cd 78000000 		.4byte	.LVL25
 5384 01d1 0B00     		.2byte	0xb
 5385 01d3 72       		.byte	0x72
 5386 01d4 32       		.sleb128 50
 5387 01d5 94       		.byte	0x94
 5388 01d6 02       		.byte	0x2
 5389 01d7 40       		.byte	0x40
 5390 01d8 24       		.byte	0x24
 5391 01d9 40       		.byte	0x40
 5392 01da 26       		.byte	0x26
 5393 01db 31       		.byte	0x31
 5394 01dc 1C       		.byte	0x1c
 5395 01dd 9F       		.byte	0x9f
 5396 01de 78000000 		.4byte	.LVL25
 5397 01e2 7B000000 		.4byte	.LVL26-1
 5398 01e6 0E00     		.2byte	0xe
 5399 01e8 F3       		.byte	0xf3
 5400 01e9 01       		.uleb128 0x1
 5401 01ea 52       		.byte	0x52
 5402 01eb 23       		.byte	0x23
 5403 01ec 32       		.uleb128 0x32
 5404 01ed 94       		.byte	0x94
ARM GAS  C:\Users\d3bug\AppData\Local\Temp\ccg1LD4z.s 			page 111


 5405 01ee 02       		.byte	0x2
 5406 01ef 40       		.byte	0x40
 5407 01f0 24       		.byte	0x24
 5408 01f1 40       		.byte	0x40
 5409 01f2 26       		.byte	0x26
 5410 01f3 31       		.byte	0x31
 5411 01f4 1C       		.byte	0x1c
 5412 01f5 9F       		.byte	0x9f
 5413 01f6 00000000 		.4byte	0
 5414 01fa 00000000 		.4byte	0
 5415              	.LLST13:
 5416 01fe 0E000000 		.4byte	.LVL16
 5417 0202 38000000 		.4byte	.LVL22
 5418 0206 0100     		.2byte	0x1
 5419 0208 55       		.byte	0x55
 5420 0209 38000000 		.4byte	.LVL22
 5421 020d 78000000 		.4byte	.LVL25
 5422 0211 0D00     		.2byte	0xd
 5423 0213 72       		.byte	0x72
 5424 0214 32       		.sleb128 50
 5425 0215 94       		.byte	0x94
 5426 0216 02       		.byte	0x2
 5427 0217 40       		.byte	0x40
 5428 0218 24       		.byte	0x24
 5429 0219 40       		.byte	0x40
 5430 021a 26       		.byte	0x26
 5431 021b 31       		.byte	0x31
 5432 021c 1C       		.byte	0x1c
 5433 021d 31       		.byte	0x31
 5434 021e 26       		.byte	0x26
 5435 021f 9F       		.byte	0x9f
 5436 0220 78000000 		.4byte	.LVL25
 5437 0224 7B000000 		.4byte	.LVL26-1
 5438 0228 1000     		.2byte	0x10
 5439 022a F3       		.byte	0xf3
 5440 022b 01       		.uleb128 0x1
 5441 022c 52       		.byte	0x52
 5442 022d 23       		.byte	0x23
 5443 022e 32       		.uleb128 0x32
 5444 022f 94       		.byte	0x94
 5445 0230 02       		.byte	0x2
 5446 0231 40       		.byte	0x40
 5447 0232 24       		.byte	0x24
 5448 0233 40       		.byte	0x40
 5449 0234 26       		.byte	0x26
 5450 0235 31       		.byte	0x31
 5451 0236 1C       		.byte	0x1c
 5452 0237 31       		.byte	0x31
 5453 0238 26       		.byte	0x26
 5454 0239 9F       		.byte	0x9f
 5455 023a 00000000 		.4byte	0
 5456 023e 00000000 		.4byte	0
 5457              	.LLST14:
 5458 0242 12000000 		.4byte	.LVL17
 5459 0246 3C000000 		.4byte	.LVL23
 5460 024a 0100     		.2byte	0x1
 5461 024c 54       		.byte	0x54
ARM GAS  C:\Users\d3bug\AppData\Local\Temp\ccg1LD4z.s 			page 112


 5462 024d 3C000000 		.4byte	.LVL23
 5463 0251 78000000 		.4byte	.LVL25
 5464 0255 0D00     		.2byte	0xd
 5465 0257 72       		.byte	0x72
 5466 0258 32       		.sleb128 50
 5467 0259 94       		.byte	0x94
 5468 025a 02       		.byte	0x2
 5469 025b 40       		.byte	0x40
 5470 025c 24       		.byte	0x24
 5471 025d 40       		.byte	0x40
 5472 025e 26       		.byte	0x26
 5473 025f 31       		.byte	0x31
 5474 0260 1C       		.byte	0x1c
 5475 0261 31       		.byte	0x31
 5476 0262 1A       		.byte	0x1a
 5477 0263 9F       		.byte	0x9f
 5478 0264 78000000 		.4byte	.LVL25
 5479 0268 7B000000 		.4byte	.LVL26-1
 5480 026c 1000     		.2byte	0x10
 5481 026e F3       		.byte	0xf3
 5482 026f 01       		.uleb128 0x1
 5483 0270 52       		.byte	0x52
 5484 0271 23       		.byte	0x23
 5485 0272 32       		.uleb128 0x32
 5486 0273 94       		.byte	0x94
 5487 0274 02       		.byte	0x2
 5488 0275 40       		.byte	0x40
 5489 0276 24       		.byte	0x24
 5490 0277 40       		.byte	0x40
 5491 0278 26       		.byte	0x26
 5492 0279 31       		.byte	0x31
 5493 027a 1C       		.byte	0x1c
 5494 027b 31       		.byte	0x31
 5495 027c 1A       		.byte	0x1a
 5496 027d 9F       		.byte	0x9f
 5497 027e 00000000 		.4byte	0
 5498 0282 00000000 		.4byte	0
 5499              	.LLST15:
 5500 0286 28000000 		.4byte	.LVL21
 5501 028a 7B000000 		.4byte	.LVL26-1
 5502 028e 0100     		.2byte	0x1
 5503 0290 53       		.byte	0x53
 5504 0291 00000000 		.4byte	0
 5505 0295 00000000 		.4byte	0
 5506              	.LLST16:
 5507 0299 00000000 		.4byte	.LVL27
 5508 029d 18000000 		.4byte	.LVL28
 5509 02a1 0100     		.2byte	0x1
 5510 02a3 51       		.byte	0x51
 5511 02a4 18000000 		.4byte	.LVL28
 5512 02a8 7C000000 		.4byte	.LFE17
 5513 02ac 0400     		.2byte	0x4
 5514 02ae F3       		.byte	0xf3
 5515 02af 01       		.uleb128 0x1
 5516 02b0 51       		.byte	0x51
 5517 02b1 9F       		.byte	0x9f
 5518 02b2 00000000 		.4byte	0
ARM GAS  C:\Users\d3bug\AppData\Local\Temp\ccg1LD4z.s 			page 113


 5519 02b6 00000000 		.4byte	0
 5520              	.LLST17:
 5521 02ba 00000000 		.4byte	.LVL27
 5522 02be 2C000000 		.4byte	.LVL29
 5523 02c2 0100     		.2byte	0x1
 5524 02c4 52       		.byte	0x52
 5525 02c5 2C000000 		.4byte	.LVL29
 5526 02c9 2E000000 		.4byte	.LVL30
 5527 02cd 0400     		.2byte	0x4
 5528 02cf F3       		.byte	0xf3
 5529 02d0 01       		.uleb128 0x1
 5530 02d1 52       		.byte	0x52
 5531 02d2 9F       		.byte	0x9f
 5532 02d3 2E000000 		.4byte	.LVL30
 5533 02d7 32000000 		.4byte	.LVL31
 5534 02db 0100     		.2byte	0x1
 5535 02dd 52       		.byte	0x52
 5536 02de 32000000 		.4byte	.LVL31
 5537 02e2 7C000000 		.4byte	.LFE17
 5538 02e6 0400     		.2byte	0x4
 5539 02e8 F3       		.byte	0xf3
 5540 02e9 01       		.uleb128 0x1
 5541 02ea 52       		.byte	0x52
 5542 02eb 9F       		.byte	0x9f
 5543 02ec 00000000 		.4byte	0
 5544 02f0 00000000 		.4byte	0
 5545              	.LLST18:
 5546 02f4 00000000 		.4byte	.LVL32
 5547 02f8 54000000 		.4byte	.LVL33
 5548 02fc 0100     		.2byte	0x1
 5549 02fe 50       		.byte	0x50
 5550 02ff 54000000 		.4byte	.LVL33
 5551 0303 56000000 		.4byte	.LVL34
 5552 0307 0400     		.2byte	0x4
 5553 0309 F3       		.byte	0xf3
 5554 030a 01       		.uleb128 0x1
 5555 030b 50       		.byte	0x50
 5556 030c 9F       		.byte	0x9f
 5557 030d 56000000 		.4byte	.LVL34
 5558 0311 58000000 		.4byte	.LVL35
 5559 0315 0100     		.2byte	0x1
 5560 0317 50       		.byte	0x50
 5561 0318 58000000 		.4byte	.LVL35
 5562 031c 5A000000 		.4byte	.LVL36
 5563 0320 0400     		.2byte	0x4
 5564 0322 F3       		.byte	0xf3
 5565 0323 01       		.uleb128 0x1
 5566 0324 50       		.byte	0x50
 5567 0325 9F       		.byte	0x9f
 5568 0326 5A000000 		.4byte	.LVL36
 5569 032a 5C000000 		.4byte	.LVL37
 5570 032e 0100     		.2byte	0x1
 5571 0330 50       		.byte	0x50
 5572 0331 5C000000 		.4byte	.LVL37
 5573 0335 60000000 		.4byte	.LFE18
 5574 0339 0400     		.2byte	0x4
 5575 033b F3       		.byte	0xf3
ARM GAS  C:\Users\d3bug\AppData\Local\Temp\ccg1LD4z.s 			page 114


 5576 033c 01       		.uleb128 0x1
 5577 033d 50       		.byte	0x50
 5578 033e 9F       		.byte	0x9f
 5579 033f 00000000 		.4byte	0
 5580 0343 00000000 		.4byte	0
 5581              	.LLST19:
 5582 0347 00000000 		.4byte	.LVL38
 5583 034b 08000000 		.4byte	.LVL39
 5584 034f 0100     		.2byte	0x1
 5585 0351 50       		.byte	0x50
 5586 0352 08000000 		.4byte	.LVL39
 5587 0356 1E000000 		.4byte	.LFE19
 5588 035a 0100     		.2byte	0x1
 5589 035c 54       		.byte	0x54
 5590 035d 00000000 		.4byte	0
 5591 0361 00000000 		.4byte	0
 5592              	.LLST20:
 5593 0365 00000000 		.4byte	.LVL41
 5594 0369 08000000 		.4byte	.LVL42
 5595 036d 0100     		.2byte	0x1
 5596 036f 50       		.byte	0x50
 5597 0370 08000000 		.4byte	.LVL42
 5598 0374 1E000000 		.4byte	.LFE20
 5599 0378 0100     		.2byte	0x1
 5600 037a 54       		.byte	0x54
 5601 037b 00000000 		.4byte	0
 5602 037f 00000000 		.4byte	0
 5603              	.LLST21:
 5604 0383 00000000 		.4byte	.LVL44
 5605 0387 42000000 		.4byte	.LVL51
 5606 038b 0100     		.2byte	0x1
 5607 038d 50       		.byte	0x50
 5608 038e 42000000 		.4byte	.LVL51
 5609 0392 8E060000 		.4byte	.LVL118
 5610 0396 0100     		.2byte	0x1
 5611 0398 55       		.byte	0x55
 5612 0399 8E060000 		.4byte	.LVL118
 5613 039d AA070000 		.4byte	.LVL130
 5614 03a1 0100     		.2byte	0x1
 5615 03a3 59       		.byte	0x59
 5616 03a4 AA070000 		.4byte	.LVL130
 5617 03a8 B2070000 		.4byte	.LVL132
 5618 03ac 0100     		.2byte	0x1
 5619 03ae 55       		.byte	0x55
 5620 03af B2070000 		.4byte	.LVL132
 5621 03b3 2E0B0000 		.4byte	.LVL176
 5622 03b7 0100     		.2byte	0x1
 5623 03b9 59       		.byte	0x59
 5624 03ba 2E0B0000 		.4byte	.LVL176
 5625 03be 380B0000 		.4byte	.LFE16
 5626 03c2 0400     		.2byte	0x4
 5627 03c4 F3       		.byte	0xf3
 5628 03c5 01       		.uleb128 0x1
 5629 03c6 50       		.byte	0x50
 5630 03c7 9F       		.byte	0x9f
 5631 03c8 00000000 		.4byte	0
 5632 03cc 00000000 		.4byte	0
ARM GAS  C:\Users\d3bug\AppData\Local\Temp\ccg1LD4z.s 			page 115


 5633              	.LLST22:
 5634 03d0 00000000 		.4byte	.LVL44
 5635 03d4 32000000 		.4byte	.LVL50
 5636 03d8 0100     		.2byte	0x1
 5637 03da 51       		.byte	0x51
 5638 03db 32000000 		.4byte	.LVL50
 5639 03df 380B0000 		.4byte	.LFE16
 5640 03e3 0400     		.2byte	0x4
 5641 03e5 F3       		.byte	0xf3
 5642 03e6 01       		.uleb128 0x1
 5643 03e7 51       		.byte	0x51
 5644 03e8 9F       		.byte	0x9f
 5645 03e9 00000000 		.4byte	0
 5646 03ed 00000000 		.4byte	0
 5647              	.LLST23:
 5648 03f1 00000000 		.4byte	.LVL44
 5649 03f5 14000000 		.4byte	.LVL45
 5650 03f9 0100     		.2byte	0x1
 5651 03fb 52       		.byte	0x52
 5652 03fc 14000000 		.4byte	.LVL45
 5653 0400 C4010000 		.4byte	.LVL73
 5654 0404 0200     		.2byte	0x2
 5655 0406 91       		.byte	0x91
 5656 0407 58       		.sleb128 -40
 5657 0408 C4010000 		.4byte	.LVL73
 5658 040c 380B0000 		.4byte	.LFE16
 5659 0410 0400     		.2byte	0x4
 5660 0412 F3       		.byte	0xf3
 5661 0413 01       		.uleb128 0x1
 5662 0414 52       		.byte	0x52
 5663 0415 9F       		.byte	0x9f
 5664 0416 00000000 		.4byte	0
 5665 041a 00000000 		.4byte	0
 5666              	.LLST24:
 5667 041e 00000000 		.4byte	.LVL44
 5668 0422 1C000000 		.4byte	.LVL46
 5669 0426 0100     		.2byte	0x1
 5670 0428 53       		.byte	0x53
 5671 0429 1C000000 		.4byte	.LVL46
 5672 042d 20000000 		.4byte	.LVL47
 5673 0431 0100     		.2byte	0x1
 5674 0433 56       		.byte	0x56
 5675 0434 20000000 		.4byte	.LVL47
 5676 0438 24000000 		.4byte	.LVL48
 5677 043c 0100     		.2byte	0x1
 5678 043e 53       		.byte	0x53
 5679 043f 24000000 		.4byte	.LVL48
 5680 0443 2E0B0000 		.4byte	.LVL176
 5681 0447 0100     		.2byte	0x1
 5682 0449 56       		.byte	0x56
 5683 044a 2E0B0000 		.4byte	.LVL176
 5684 044e 380B0000 		.4byte	.LFE16
 5685 0452 0400     		.2byte	0x4
 5686 0454 F3       		.byte	0xf3
 5687 0455 01       		.uleb128 0x1
 5688 0456 53       		.byte	0x53
 5689 0457 9F       		.byte	0x9f
ARM GAS  C:\Users\d3bug\AppData\Local\Temp\ccg1LD4z.s 			page 116


 5690 0458 00000000 		.4byte	0
 5691 045c 00000000 		.4byte	0
 5692              	.LLST25:
 5693 0460 00000000 		.4byte	.LVL44
 5694 0464 D0060000 		.4byte	.LVL119
 5695 0468 0200     		.2byte	0x2
 5696 046a 91       		.byte	0x91
 5697 046b 00       		.sleb128 0
 5698 046c D0060000 		.4byte	.LVL119
 5699 0470 D1060000 		.4byte	.LVL120-1
 5700 0474 0200     		.2byte	0x2
 5701 0476 70       		.byte	0x70
 5702 0477 00       		.sleb128 0
 5703 0478 D1060000 		.4byte	.LVL120-1
 5704 047c 0A080000 		.4byte	.LVL137
 5705 0480 0300     		.2byte	0x3
 5706 0482 77       		.byte	0x77
 5707 0483 F000     		.sleb128 112
 5708 0485 0A080000 		.4byte	.LVL137
 5709 0489 0B080000 		.4byte	.LVL138-1
 5710 048d 0200     		.2byte	0x2
 5711 048f 70       		.byte	0x70
 5712 0490 00       		.sleb128 0
 5713 0491 0B080000 		.4byte	.LVL138-1
 5714 0495 16090000 		.4byte	.LVL148
 5715 0499 0300     		.2byte	0x3
 5716 049b 77       		.byte	0x77
 5717 049c F000     		.sleb128 112
 5718 049e 16090000 		.4byte	.LVL148
 5719 04a2 17090000 		.4byte	.LVL149-1
 5720 04a6 0200     		.2byte	0x2
 5721 04a8 70       		.byte	0x70
 5722 04a9 00       		.sleb128 0
 5723 04aa 17090000 		.4byte	.LVL149-1
 5724 04ae 560A0000 		.4byte	.LVL164
 5725 04b2 0300     		.2byte	0x3
 5726 04b4 77       		.byte	0x77
 5727 04b5 F000     		.sleb128 112
 5728 04b7 560A0000 		.4byte	.LVL164
 5729 04bb 570A0000 		.4byte	.LVL165-1
 5730 04bf 0200     		.2byte	0x2
 5731 04c1 70       		.byte	0x70
 5732 04c2 00       		.sleb128 0
 5733 04c3 570A0000 		.4byte	.LVL165-1
 5734 04c7 280B0000 		.4byte	.LVL174
 5735 04cb 0300     		.2byte	0x3
 5736 04cd 77       		.byte	0x77
 5737 04ce F000     		.sleb128 112
 5738 04d0 280B0000 		.4byte	.LVL174
 5739 04d4 380B0000 		.4byte	.LFE16
 5740 04d8 0200     		.2byte	0x2
 5741 04da 91       		.byte	0x91
 5742 04db 00       		.sleb128 0
 5743 04dc 00000000 		.4byte	0
 5744 04e0 00000000 		.4byte	0
 5745              	.LLST26:
 5746 04e4 2E000000 		.4byte	.LVL49
ARM GAS  C:\Users\d3bug\AppData\Local\Temp\ccg1LD4z.s 			page 117


 5747 04e8 C4010000 		.4byte	.LVL73
 5748 04ec 0200     		.2byte	0x2
 5749 04ee 91       		.byte	0x91
 5750 04ef 5C       		.sleb128 -36
 5751 04f0 00000000 		.4byte	0
 5752 04f4 00000000 		.4byte	0
 5753              	.LLST27:
 5754 04f8 B0000000 		.4byte	.LVL52
 5755 04fc 0E010000 		.4byte	.LVL59
 5756 0500 0100     		.2byte	0x1
 5757 0502 5B       		.byte	0x5b
 5758 0503 0E010000 		.4byte	.LVL59
 5759 0507 12010000 		.4byte	.LVL60
 5760 050b 0100     		.2byte	0x1
 5761 050d 58       		.byte	0x58
 5762 050e 16010000 		.4byte	.LVL61
 5763 0512 2E0B0000 		.4byte	.LVL176
 5764 0516 0100     		.2byte	0x1
 5765 0518 5B       		.byte	0x5b
 5766 0519 00000000 		.4byte	0
 5767 051d 00000000 		.4byte	0
 5768              	.LLST28:
 5769 0521 B4000000 		.4byte	.LVL53
 5770 0525 C4010000 		.4byte	.LVL73
 5771 0529 0300     		.2byte	0x3
 5772 052b 79       		.byte	0x79
 5773 052c 7F       		.sleb128 -1
 5774 052d 9F       		.byte	0x9f
 5775 052e 00000000 		.4byte	0
 5776 0532 00000000 		.4byte	0
 5777              	.LLST29:
 5778 0536 C0000000 		.4byte	.LVL54
 5779 053a C0010000 		.4byte	.LVL72
 5780 053e 0200     		.2byte	0x2
 5781 0540 74       		.byte	0x74
 5782 0541 00       		.sleb128 0
 5783 0542 C0010000 		.4byte	.LVL72
 5784 0546 C4010000 		.4byte	.LVL73
 5785 054a 0200     		.2byte	0x2
 5786 054c 73       		.byte	0x73
 5787 054d 00       		.sleb128 0
 5788 054e C4010000 		.4byte	.LVL73
 5789 0552 FA030000 		.4byte	.LVL94
 5790 0556 0200     		.2byte	0x2
 5791 0558 78       		.byte	0x78
 5792 0559 00       		.sleb128 0
 5793 055a FA030000 		.4byte	.LVL94
 5794 055e 8E060000 		.4byte	.LVL118
 5795 0562 0200     		.2byte	0x2
 5796 0564 74       		.byte	0x74
 5797 0565 00       		.sleb128 0
 5798 0566 8E060000 		.4byte	.LVL118
 5799 056a AA070000 		.4byte	.LVL130
 5800 056e 0200     		.2byte	0x2
 5801 0570 78       		.byte	0x78
 5802 0571 00       		.sleb128 0
 5803 0572 AA070000 		.4byte	.LVL130
ARM GAS  C:\Users\d3bug\AppData\Local\Temp\ccg1LD4z.s 			page 118


 5804 0576 B2070000 		.4byte	.LVL132
 5805 057a 0200     		.2byte	0x2
 5806 057c 74       		.byte	0x74
 5807 057d 00       		.sleb128 0
 5808 057e B2070000 		.4byte	.LVL132
 5809 0582 C2070000 		.4byte	.LVL134
 5810 0586 0200     		.2byte	0x2
 5811 0588 78       		.byte	0x78
 5812 0589 00       		.sleb128 0
 5813 058a C2070000 		.4byte	.LVL134
 5814 058e C6070000 		.4byte	.LVL135
 5815 0592 0200     		.2byte	0x2
 5816 0594 74       		.byte	0x74
 5817 0595 00       		.sleb128 0
 5818 0596 C6070000 		.4byte	.LVL135
 5819 059a CA070000 		.4byte	.LVL136
 5820 059e 0200     		.2byte	0x2
 5821 05a0 73       		.byte	0x73
 5822 05a1 00       		.sleb128 0
 5823 05a2 CA070000 		.4byte	.LVL136
 5824 05a6 82080000 		.4byte	.LVL143
 5825 05aa 0200     		.2byte	0x2
 5826 05ac 78       		.byte	0x78
 5827 05ad 00       		.sleb128 0
 5828 05ae 82080000 		.4byte	.LVL143
 5829 05b2 A6080000 		.4byte	.LVL145
 5830 05b6 0200     		.2byte	0x2
 5831 05b8 74       		.byte	0x74
 5832 05b9 00       		.sleb128 0
 5833 05ba A6080000 		.4byte	.LVL145
 5834 05be D4080000 		.4byte	.LVL147
 5835 05c2 0200     		.2byte	0x2
 5836 05c4 7D       		.byte	0x7d
 5837 05c5 08       		.sleb128 8
 5838 05c6 D4080000 		.4byte	.LVL147
 5839 05ca 0E0A0000 		.4byte	.LVL161
 5840 05ce 0200     		.2byte	0x2
 5841 05d0 78       		.byte	0x78
 5842 05d1 00       		.sleb128 0
 5843 05d2 0E0A0000 		.4byte	.LVL161
 5844 05d6 120A0000 		.4byte	.LVL162
 5845 05da 0200     		.2byte	0x2
 5846 05dc 74       		.byte	0x74
 5847 05dd 00       		.sleb128 0
 5848 05de 120A0000 		.4byte	.LVL162
 5849 05e2 160A0000 		.4byte	.LVL163
 5850 05e6 0200     		.2byte	0x2
 5851 05e8 73       		.byte	0x73
 5852 05e9 00       		.sleb128 0
 5853 05ea 160A0000 		.4byte	.LVL163
 5854 05ee D60A0000 		.4byte	.LVL170
 5855 05f2 0200     		.2byte	0x2
 5856 05f4 78       		.byte	0x78
 5857 05f5 00       		.sleb128 0
 5858 05f6 D60A0000 		.4byte	.LVL170
 5859 05fa F60A0000 		.4byte	.LVL172
 5860 05fe 0200     		.2byte	0x2
ARM GAS  C:\Users\d3bug\AppData\Local\Temp\ccg1LD4z.s 			page 119


 5861 0600 74       		.byte	0x74
 5862 0601 00       		.sleb128 0
 5863 0602 F60A0000 		.4byte	.LVL172
 5864 0606 2A0B0000 		.4byte	.LVL175
 5865 060a 0200     		.2byte	0x2
 5866 060c 7D       		.byte	0x7d
 5867 060d 08       		.sleb128 8
 5868 060e 00000000 		.4byte	0
 5869 0612 00000000 		.4byte	0
 5870              	.LLST30:
 5871 0616 C0000000 		.4byte	.LVL54
 5872 061a E8000000 		.4byte	.LVL57
 5873 061e 0200     		.2byte	0x2
 5874 0620 30       		.byte	0x30
 5875 0621 9F       		.byte	0x9f
 5876 0622 E8000000 		.4byte	.LVL57
 5877 0626 12010000 		.4byte	.LVL60
 5878 062a 0100     		.2byte	0x1
 5879 062c 58       		.byte	0x58
 5880 062d 18010000 		.4byte	.LVL62
 5881 0631 24010000 		.4byte	.LVL64
 5882 0635 0100     		.2byte	0x1
 5883 0637 58       		.byte	0x58
 5884 0638 28010000 		.4byte	.LVL65
 5885 063c 32010000 		.4byte	.LVL66
 5886 0640 0100     		.2byte	0x1
 5887 0642 58       		.byte	0x58
 5888 0643 B8010000 		.4byte	.LVL71
 5889 0647 C4010000 		.4byte	.LVL73
 5890 064b 0200     		.2byte	0x2
 5891 064d 30       		.byte	0x30
 5892 064e 9F       		.byte	0x9f
 5893 064f C4010000 		.4byte	.LVL73
 5894 0653 E8030000 		.4byte	.LVL91
 5895 0657 0100     		.2byte	0x1
 5896 0659 54       		.byte	0x54
 5897 065a EA030000 		.4byte	.LVL92
 5898 065e F2030000 		.4byte	.LVL93
 5899 0662 0100     		.2byte	0x1
 5900 0664 54       		.byte	0x54
 5901 0665 8E060000 		.4byte	.LVL118
 5902 0669 0A070000 		.4byte	.LVL122
 5903 066d 0100     		.2byte	0x1
 5904 066f 54       		.byte	0x54
 5905 0670 0C070000 		.4byte	.LVL123
 5906 0674 0E070000 		.4byte	.LVL124
 5907 0678 0100     		.2byte	0x1
 5908 067a 54       		.byte	0x54
 5909 067b 10070000 		.4byte	.LVL125
 5910 067f 1C070000 		.4byte	.LVL126
 5911 0683 0100     		.2byte	0x1
 5912 0685 54       		.byte	0x54
 5913 0686 CA070000 		.4byte	.LVL136
 5914 068a 44080000 		.4byte	.LVL140
 5915 068e 0100     		.2byte	0x1
 5916 0690 54       		.byte	0x54
 5917 0691 46080000 		.4byte	.LVL141
ARM GAS  C:\Users\d3bug\AppData\Local\Temp\ccg1LD4z.s 			page 120


 5918 0695 4C080000 		.4byte	.LVL142
 5919 0699 0100     		.2byte	0x1
 5920 069b 54       		.byte	0x54
 5921 069c D4080000 		.4byte	.LVL147
 5922 06a0 58090000 		.4byte	.LVL151
 5923 06a4 0100     		.2byte	0x1
 5924 06a6 54       		.byte	0x54
 5925 06a7 5A090000 		.4byte	.LVL152
 5926 06ab 64090000 		.4byte	.LVL153
 5927 06af 0100     		.2byte	0x1
 5928 06b1 54       		.byte	0x54
 5929 06b2 66090000 		.4byte	.LVL154
 5930 06b6 7A090000 		.4byte	.LVL155
 5931 06ba 0100     		.2byte	0x1
 5932 06bc 54       		.byte	0x54
 5933 06bd 160A0000 		.4byte	.LVL163
 5934 06c1 980A0000 		.4byte	.LVL167
 5935 06c5 0100     		.2byte	0x1
 5936 06c7 54       		.byte	0x54
 5937 06c8 9A0A0000 		.4byte	.LVL168
 5938 06cc A00A0000 		.4byte	.LVL169
 5939 06d0 0100     		.2byte	0x1
 5940 06d2 54       		.byte	0x54
 5941 06d3 00000000 		.4byte	0
 5942 06d7 00000000 		.4byte	0
 5943              	.LLST31:
 5944 06db 32010000 		.4byte	.LVL66
 5945 06df 42010000 		.4byte	.LVL67
 5946 06e3 0100     		.2byte	0x1
 5947 06e5 5B       		.byte	0x5b
 5948 06e6 42010000 		.4byte	.LVL67
 5949 06ea C4010000 		.4byte	.LVL73
 5950 06ee 0200     		.2byte	0x2
 5951 06f0 91       		.byte	0x91
 5952 06f1 54       		.sleb128 -44
 5953 06f2 00000000 		.4byte	0
 5954 06f6 00000000 		.4byte	0
 5955              	.LLST32:
 5956 06fa 42010000 		.4byte	.LVL67
 5957 06fe C4010000 		.4byte	.LVL73
 5958 0702 0200     		.2byte	0x2
 5959 0704 30       		.byte	0x30
 5960 0705 9F       		.byte	0x9f
 5961 0706 C4010000 		.4byte	.LVL73
 5962 070a 5A020000 		.4byte	.LVL76
 5963 070e 0100     		.2byte	0x1
 5964 0710 5A       		.byte	0x5a
 5965 0711 88020000 		.4byte	.LVL78
 5966 0715 C0020000 		.4byte	.LVL80
 5967 0719 0100     		.2byte	0x1
 5968 071b 5A       		.byte	0x5a
 5969 071c EA020000 		.4byte	.LVL82
 5970 0720 80030000 		.4byte	.LVL86
 5971 0724 0100     		.2byte	0x1
 5972 0726 5A       		.byte	0x5a
 5973 0727 82030000 		.4byte	.LVL87
 5974 072b 88060000 		.4byte	.LVL117
ARM GAS  C:\Users\d3bug\AppData\Local\Temp\ccg1LD4z.s 			page 121


 5975 072f 0100     		.2byte	0x1
 5976 0731 5A       		.byte	0x5a
 5977 0732 AA070000 		.4byte	.LVL130
 5978 0736 AE070000 		.4byte	.LVL131
 5979 073a 0100     		.2byte	0x1
 5980 073c 5A       		.byte	0x5a
 5981 073d 00000000 		.4byte	0
 5982 0741 00000000 		.4byte	0
 5983              	.LLST33:
 5984 0745 42010000 		.4byte	.LVL67
 5985 0749 58010000 		.4byte	.LVL68
 5986 074d 0200     		.2byte	0x2
 5987 074f 30       		.byte	0x30
 5988 0750 9F       		.byte	0x9f
 5989 0751 58010000 		.4byte	.LVL68
 5990 0755 6A010000 		.4byte	.LVL70
 5991 0759 0200     		.2byte	0x2
 5992 075b 91       		.byte	0x91
 5993 075c 50       		.sleb128 -48
 5994 075d 6A010000 		.4byte	.LVL70
 5995 0761 B8010000 		.4byte	.LVL71
 5996 0765 0200     		.2byte	0x2
 5997 0767 30       		.byte	0x30
 5998 0768 9F       		.byte	0x9f
 5999 0769 B8010000 		.4byte	.LVL71
 6000 076d C4010000 		.4byte	.LVL73
 6001 0771 0200     		.2byte	0x2
 6002 0773 91       		.byte	0x91
 6003 0774 50       		.sleb128 -48
 6004 0775 00000000 		.4byte	0
 6005 0779 00000000 		.4byte	0
 6006              	.LLST34:
 6007 077d 42010000 		.4byte	.LVL67
 6008 0781 68010000 		.4byte	.LVL69
 6009 0785 0200     		.2byte	0x2
 6010 0787 30       		.byte	0x30
 6011 0788 9F       		.byte	0x9f
 6012 0789 68010000 		.4byte	.LVL69
 6013 078d 6A010000 		.4byte	.LVL70
 6014 0791 0200     		.2byte	0x2
 6015 0793 91       		.byte	0x91
 6016 0794 4C       		.sleb128 -52
 6017 0795 6A010000 		.4byte	.LVL70
 6018 0799 B8010000 		.4byte	.LVL71
 6019 079d 0200     		.2byte	0x2
 6020 079f 30       		.byte	0x30
 6021 07a0 9F       		.byte	0x9f
 6022 07a1 B8010000 		.4byte	.LVL71
 6023 07a5 C4010000 		.4byte	.LVL73
 6024 07a9 0200     		.2byte	0x2
 6025 07ab 91       		.byte	0x91
 6026 07ac 4C       		.sleb128 -52
 6027 07ad 00000000 		.4byte	0
 6028 07b1 00000000 		.4byte	0
 6029              	.LLST35:
 6030 07b5 00060000 		.4byte	.LVL106
 6031 07b9 10060000 		.4byte	.LVL107
ARM GAS  C:\Users\d3bug\AppData\Local\Temp\ccg1LD4z.s 			page 122


 6032 07bd 0300     		.2byte	0x3
 6033 07bf 09       		.byte	0x9
 6034 07c0 FF       		.byte	0xff
 6035 07c1 9F       		.byte	0x9f
 6036 07c2 26060000 		.4byte	.LVL109
 6037 07c6 36060000 		.4byte	.LVL110
 6038 07ca 0300     		.2byte	0x3
 6039 07cc 09       		.byte	0x9
 6040 07cd FF       		.byte	0xff
 6041 07ce 9F       		.byte	0x9f
 6042 07cf 44060000 		.4byte	.LVL111
 6043 07d3 50060000 		.4byte	.LVL112
 6044 07d7 0300     		.2byte	0x3
 6045 07d9 09       		.byte	0x9
 6046 07da FF       		.byte	0xff
 6047 07db 9F       		.byte	0x9f
 6048 07dc 5A060000 		.4byte	.LVL113
 6049 07e0 66060000 		.4byte	.LVL114
 6050 07e4 0300     		.2byte	0x3
 6051 07e6 09       		.byte	0x9
 6052 07e7 FF       		.byte	0xff
 6053 07e8 9F       		.byte	0x9f
 6054 07e9 6E060000 		.4byte	.LVL115
 6055 07ed 8E060000 		.4byte	.LVL118
 6056 07f1 0200     		.2byte	0x2
 6057 07f3 91       		.byte	0x91
 6058 07f4 50       		.sleb128 -48
 6059 07f5 AA070000 		.4byte	.LVL130
 6060 07f9 B2070000 		.4byte	.LVL132
 6061 07fd 0300     		.2byte	0x3
 6062 07ff 77       		.byte	0x77
 6063 0800 C000     		.sleb128 64
 6064 0802 00000000 		.4byte	0
 6065 0806 00000000 		.4byte	0
 6066              	.LLST36:
 6067 080a 10060000 		.4byte	.LVL107
 6068 080e 1E060000 		.4byte	.LVL108
 6069 0812 0200     		.2byte	0x2
 6070 0814 31       		.byte	0x31
 6071 0815 9F       		.byte	0x9f
 6072 0816 36060000 		.4byte	.LVL110
 6073 081a 44060000 		.4byte	.LVL111
 6074 081e 0200     		.2byte	0x2
 6075 0820 31       		.byte	0x31
 6076 0821 9F       		.byte	0x9f
 6077 0822 50060000 		.4byte	.LVL112
 6078 0826 5A060000 		.4byte	.LVL113
 6079 082a 0200     		.2byte	0x2
 6080 082c 31       		.byte	0x31
 6081 082d 9F       		.byte	0x9f
 6082 082e 66060000 		.4byte	.LVL114
 6083 0832 6E060000 		.4byte	.LVL115
 6084 0836 0200     		.2byte	0x2
 6085 0838 31       		.byte	0x31
 6086 0839 9F       		.byte	0x9f
 6087 083a 6E060000 		.4byte	.LVL115
 6088 083e 8E060000 		.4byte	.LVL118
ARM GAS  C:\Users\d3bug\AppData\Local\Temp\ccg1LD4z.s 			page 123


 6089 0842 0200     		.2byte	0x2
 6090 0844 91       		.byte	0x91
 6091 0845 4C       		.sleb128 -52
 6092 0846 AA070000 		.4byte	.LVL130
 6093 084a B2070000 		.4byte	.LVL132
 6094 084e 0200     		.2byte	0x2
 6095 0850 77       		.byte	0x77
 6096 0851 3C       		.sleb128 60
 6097 0852 00000000 		.4byte	0
 6098 0856 00000000 		.4byte	0
 6099              	.LLST37:
 6100 085a 7E060000 		.4byte	.LVL116
 6101 085e 8E060000 		.4byte	.LVL118
 6102 0862 0200     		.2byte	0x2
 6103 0864 31       		.byte	0x31
 6104 0865 9F       		.byte	0x9f
 6105 0866 8E060000 		.4byte	.LVL118
 6106 086a 46070000 		.4byte	.LVL127
 6107 086e 0100     		.2byte	0x1
 6108 0870 5A       		.byte	0x5a
 6109 0871 94070000 		.4byte	.LVL129
 6110 0875 AA070000 		.4byte	.LVL130
 6111 0879 0200     		.2byte	0x2
 6112 087b 30       		.byte	0x30
 6113 087c 9F       		.byte	0x9f
 6114 087d AA070000 		.4byte	.LVL130
 6115 0881 B2070000 		.4byte	.LVL132
 6116 0885 0200     		.2byte	0x2
 6117 0887 31       		.byte	0x31
 6118 0888 9F       		.byte	0x9f
 6119 0889 B2070000 		.4byte	.LVL132
 6120 088d 9C090000 		.4byte	.LVL156
 6121 0891 0100     		.2byte	0x1
 6122 0893 5A       		.byte	0x5a
 6123 0894 EA090000 		.4byte	.LVL158
 6124 0898 FE090000 		.4byte	.LVL159
 6125 089c 0200     		.2byte	0x2
 6126 089e 30       		.byte	0x30
 6127 089f 9F       		.byte	0x9f
 6128 08a0 FE090000 		.4byte	.LVL159
 6129 08a4 2E0B0000 		.4byte	.LVL176
 6130 08a8 0100     		.2byte	0x1
 6131 08aa 5A       		.byte	0x5a
 6132 08ab 00000000 		.4byte	0
 6133 08af 00000000 		.4byte	0
 6134              	.LLST38:
 6135 08b3 E6000000 		.4byte	.LVL56
 6136 08b7 32010000 		.4byte	.LVL66
 6137 08bb 0100     		.2byte	0x1
 6138 08bd 5A       		.byte	0x5a
 6139 08be 00000000 		.4byte	0
 6140 08c2 00000000 		.4byte	0
 6141              	.LLST39:
 6142 08c6 0A010000 		.4byte	.LVL58
 6143 08ca 1F010000 		.4byte	.LVL63-1
 6144 08ce 0100     		.2byte	0x1
 6145 08d0 53       		.byte	0x53
ARM GAS  C:\Users\d3bug\AppData\Local\Temp\ccg1LD4z.s 			page 124


 6146 08d1 00000000 		.4byte	0
 6147 08d5 00000000 		.4byte	0
 6148              	.LLST40:
 6149 08d9 16020000 		.4byte	.LVL74
 6150 08dd 49020000 		.4byte	.LVL75-1
 6151 08e1 0100     		.2byte	0x1
 6152 08e3 52       		.byte	0x52
 6153 08e4 49020000 		.4byte	.LVL75-1
 6154 08e8 88020000 		.4byte	.LVL78
 6155 08ec 0100     		.2byte	0x1
 6156 08ee 59       		.byte	0x59
 6157 08ef 88020000 		.4byte	.LVL78
 6158 08f3 AF020000 		.4byte	.LVL79-1
 6159 08f7 0100     		.2byte	0x1
 6160 08f9 52       		.byte	0x52
 6161 08fa AF020000 		.4byte	.LVL79-1
 6162 08fe EA020000 		.4byte	.LVL82
 6163 0902 0100     		.2byte	0x1
 6164 0904 59       		.byte	0x59
 6165 0905 00000000 		.4byte	0
 6166 0909 00000000 		.4byte	0
 6167              	.LLST41:
 6168 090d 0C030000 		.4byte	.LVL83
 6169 0911 45030000 		.4byte	.LVL84-1
 6170 0915 0100     		.2byte	0x1
 6171 0917 52       		.byte	0x52
 6172 0918 45030000 		.4byte	.LVL84-1
 6173 091c 82030000 		.4byte	.LVL87
 6174 0920 0100     		.2byte	0x1
 6175 0922 59       		.byte	0x59
 6176 0923 82030000 		.4byte	.LVL87
 6177 0927 AF030000 		.4byte	.LVL88-1
 6178 092b 0100     		.2byte	0x1
 6179 092d 52       		.byte	0x52
 6180 092e AF030000 		.4byte	.LVL88-1
 6181 0932 E6030000 		.4byte	.LVL90
 6182 0936 0100     		.2byte	0x1
 6183 0938 59       		.byte	0x59
 6184 0939 00000000 		.4byte	0
 6185 093d 00000000 		.4byte	0
 6186              	.LLST42:
 6187 0941 1C040000 		.4byte	.LVL95
 6188 0945 04050000 		.4byte	.LVL100
 6189 0949 0100     		.2byte	0x1
 6190 094b 58       		.byte	0x58
 6191 094c 00000000 		.4byte	0
 6192 0950 00000000 		.4byte	0
 6193              	.LLST43:
 6194 0954 18050000 		.4byte	.LVL101
 6195 0958 F4050000 		.4byte	.LVL105
 6196 095c 0100     		.2byte	0x1
 6197 095e 59       		.byte	0x59
 6198 095f 00000000 		.4byte	0
 6199 0963 00000000 		.4byte	0
 6200              	.LLST44:
 6201 0967 00000000 		.4byte	.LVL177
 6202 096b 62000000 		.4byte	.LVL178
ARM GAS  C:\Users\d3bug\AppData\Local\Temp\ccg1LD4z.s 			page 125


 6203 096f 0100     		.2byte	0x1
 6204 0971 50       		.byte	0x50
 6205 0972 62000000 		.4byte	.LVL178
 6206 0976 70000000 		.4byte	.LVL180
 6207 097a 0400     		.2byte	0x4
 6208 097c F3       		.byte	0xf3
 6209 097d 01       		.uleb128 0x1
 6210 097e 50       		.byte	0x50
 6211 097f 9F       		.byte	0x9f
 6212 0980 70000000 		.4byte	.LVL180
 6213 0984 9A000000 		.4byte	.LVL183
 6214 0988 0100     		.2byte	0x1
 6215 098a 50       		.byte	0x50
 6216 098b 9A000000 		.4byte	.LVL183
 6217 098f A8000000 		.4byte	.LVL185
 6218 0993 0400     		.2byte	0x4
 6219 0995 F3       		.byte	0xf3
 6220 0996 01       		.uleb128 0x1
 6221 0997 50       		.byte	0x50
 6222 0998 9F       		.byte	0x9f
 6223 0999 A8000000 		.4byte	.LVL185
 6224 099d C0000000 		.4byte	.LVL187
 6225 09a1 0100     		.2byte	0x1
 6226 09a3 50       		.byte	0x50
 6227 09a4 C0000000 		.4byte	.LVL187
 6228 09a8 C8010000 		.4byte	.LFE13
 6229 09ac 0400     		.2byte	0x4
 6230 09ae F3       		.byte	0xf3
 6231 09af 01       		.uleb128 0x1
 6232 09b0 50       		.byte	0x50
 6233 09b1 9F       		.byte	0x9f
 6234 09b2 00000000 		.4byte	0
 6235 09b6 00000000 		.4byte	0
 6236              	.LLST45:
 6237 09ba 00000000 		.4byte	.LVL177
 6238 09be 6A000000 		.4byte	.LVL179
 6239 09c2 0100     		.2byte	0x1
 6240 09c4 51       		.byte	0x51
 6241 09c5 6A000000 		.4byte	.LVL179
 6242 09c9 70000000 		.4byte	.LVL180
 6243 09cd 0400     		.2byte	0x4
 6244 09cf F3       		.byte	0xf3
 6245 09d0 01       		.uleb128 0x1
 6246 09d1 51       		.byte	0x51
 6247 09d2 9F       		.byte	0x9f
 6248 09d3 70000000 		.4byte	.LVL180
 6249 09d7 7C000000 		.4byte	.LVL181
 6250 09db 0100     		.2byte	0x1
 6251 09dd 51       		.byte	0x51
 6252 09de 7C000000 		.4byte	.LVL181
 6253 09e2 8A000000 		.4byte	.LVL182
 6254 09e6 0400     		.2byte	0x4
 6255 09e8 F3       		.byte	0xf3
 6256 09e9 01       		.uleb128 0x1
 6257 09ea 51       		.byte	0x51
 6258 09eb 9F       		.byte	0x9f
 6259 09ec 8A000000 		.4byte	.LVL182
ARM GAS  C:\Users\d3bug\AppData\Local\Temp\ccg1LD4z.s 			page 126


 6260 09f0 A2000000 		.4byte	.LVL184
 6261 09f4 0100     		.2byte	0x1
 6262 09f6 51       		.byte	0x51
 6263 09f7 A2000000 		.4byte	.LVL184
 6264 09fb A8000000 		.4byte	.LVL185
 6265 09ff 0400     		.2byte	0x4
 6266 0a01 F3       		.byte	0xf3
 6267 0a02 01       		.uleb128 0x1
 6268 0a03 51       		.byte	0x51
 6269 0a04 9F       		.byte	0x9f
 6270 0a05 A8000000 		.4byte	.LVL185
 6271 0a09 B4000000 		.4byte	.LVL186
 6272 0a0d 0100     		.2byte	0x1
 6273 0a0f 51       		.byte	0x51
 6274 0a10 B4000000 		.4byte	.LVL186
 6275 0a14 C8010000 		.4byte	.LFE13
 6276 0a18 0400     		.2byte	0x4
 6277 0a1a F3       		.byte	0xf3
 6278 0a1b 01       		.uleb128 0x1
 6279 0a1c 51       		.byte	0x51
 6280 0a1d 9F       		.byte	0x9f
 6281 0a1e 00000000 		.4byte	0
 6282 0a22 00000000 		.4byte	0
 6283              	.LLST46:
 6284 0a26 00000000 		.4byte	.LVL177
 6285 0a2a C6000000 		.4byte	.LVL188
 6286 0a2e 0100     		.2byte	0x1
 6287 0a30 52       		.byte	0x52
 6288 0a31 C6000000 		.4byte	.LVL188
 6289 0a35 C2010000 		.4byte	.LVL202
 6290 0a39 0100     		.2byte	0x1
 6291 0a3b 55       		.byte	0x55
 6292 0a3c C2010000 		.4byte	.LVL202
 6293 0a40 C8010000 		.4byte	.LFE13
 6294 0a44 0400     		.2byte	0x4
 6295 0a46 F3       		.byte	0xf3
 6296 0a47 01       		.uleb128 0x1
 6297 0a48 52       		.byte	0x52
 6298 0a49 9F       		.byte	0x9f
 6299 0a4a 00000000 		.4byte	0
 6300 0a4e 00000000 		.4byte	0
 6301              	.LLST47:
 6302 0a52 00000000 		.4byte	.LVL177
 6303 0a56 CD000000 		.4byte	.LVL189-1
 6304 0a5a 0100     		.2byte	0x1
 6305 0a5c 53       		.byte	0x53
 6306 0a5d CD000000 		.4byte	.LVL189-1
 6307 0a61 C2010000 		.4byte	.LVL202
 6308 0a65 0100     		.2byte	0x1
 6309 0a67 54       		.byte	0x54
 6310 0a68 C2010000 		.4byte	.LVL202
 6311 0a6c C8010000 		.4byte	.LFE13
 6312 0a70 0400     		.2byte	0x4
 6313 0a72 F3       		.byte	0xf3
 6314 0a73 01       		.uleb128 0x1
 6315 0a74 53       		.byte	0x53
 6316 0a75 9F       		.byte	0x9f
ARM GAS  C:\Users\d3bug\AppData\Local\Temp\ccg1LD4z.s 			page 127


 6317 0a76 00000000 		.4byte	0
 6318 0a7a 00000000 		.4byte	0
 6319              	.LLST48:
 6320 0a7e 02010000 		.4byte	.LVL192
 6321 0a82 0C010000 		.4byte	.LVL193
 6322 0a86 0200     		.2byte	0x2
 6323 0a88 30       		.byte	0x30
 6324 0a89 9F       		.byte	0x9f
 6325 0a8a 0C010000 		.4byte	.LVL193
 6326 0a8e 32010000 		.4byte	.LVL195
 6327 0a92 0200     		.2byte	0x2
 6328 0a94 31       		.byte	0x31
 6329 0a95 9F       		.byte	0x9f
 6330 0a96 32010000 		.4byte	.LVL195
 6331 0a9a 60010000 		.4byte	.LVL197
 6332 0a9e 0200     		.2byte	0x2
 6333 0aa0 30       		.byte	0x30
 6334 0aa1 9F       		.byte	0x9f
 6335 0aa2 60010000 		.4byte	.LVL197
 6336 0aa6 86010000 		.4byte	.LVL199
 6337 0aaa 0200     		.2byte	0x2
 6338 0aac 31       		.byte	0x31
 6339 0aad 9F       		.byte	0x9f
 6340 0aae 86010000 		.4byte	.LVL199
 6341 0ab2 B6010000 		.4byte	.LVL201
 6342 0ab6 0200     		.2byte	0x2
 6343 0ab8 30       		.byte	0x30
 6344 0ab9 9F       		.byte	0x9f
 6345 0aba B6010000 		.4byte	.LVL201
 6346 0abe C1010000 		.4byte	.LVL202-1
 6347 0ac2 0100     		.2byte	0x1
 6348 0ac4 51       		.byte	0x51
 6349 0ac5 00000000 		.4byte	0
 6350 0ac9 00000000 		.4byte	0
 6351              		.section	.debug_aranges,"",%progbits
 6352 0000 54000000 		.4byte	0x54
 6353 0004 0200     		.2byte	0x2
 6354 0006 00000000 		.4byte	.Ldebug_info0
 6355 000a 04       		.byte	0x4
 6356 000b 00       		.byte	0
 6357 000c 0000     		.2byte	0
 6358 000e 0000     		.2byte	0
 6359 0010 00000000 		.4byte	.LFB14
 6360 0014 88000000 		.4byte	.LFE14-.LFB14
 6361 0018 00000000 		.4byte	.LFB15
 6362 001c 84000000 		.4byte	.LFE15-.LFB15
 6363 0020 00000000 		.4byte	.LFB17
 6364 0024 7C000000 		.4byte	.LFE17-.LFB17
 6365 0028 00000000 		.4byte	.LFB18
 6366 002c 60000000 		.4byte	.LFE18-.LFB18
 6367 0030 00000000 		.4byte	.LFB19
 6368 0034 1E000000 		.4byte	.LFE19-.LFB19
 6369 0038 00000000 		.4byte	.LFB20
 6370 003c 1E000000 		.4byte	.LFE20-.LFB20
 6371 0040 00000000 		.4byte	.LFB16
 6372 0044 380B0000 		.4byte	.LFE16-.LFB16
 6373 0048 00000000 		.4byte	.LFB13
ARM GAS  C:\Users\d3bug\AppData\Local\Temp\ccg1LD4z.s 			page 128


 6374 004c C8010000 		.4byte	.LFE13-.LFB13
 6375 0050 00000000 		.4byte	0
 6376 0054 00000000 		.4byte	0
 6377              		.section	.debug_ranges,"",%progbits
 6378              	.Ldebug_ranges0:
 6379 0000 00000000 		.4byte	.LFB14
 6380 0004 88000000 		.4byte	.LFE14
 6381 0008 00000000 		.4byte	.LFB15
 6382 000c 84000000 		.4byte	.LFE15
 6383 0010 00000000 		.4byte	.LFB17
 6384 0014 7C000000 		.4byte	.LFE17
 6385 0018 00000000 		.4byte	.LFB18
 6386 001c 60000000 		.4byte	.LFE18
 6387 0020 00000000 		.4byte	.LFB19
 6388 0024 1E000000 		.4byte	.LFE19
 6389 0028 00000000 		.4byte	.LFB20
 6390 002c 1E000000 		.4byte	.LFE20
 6391 0030 00000000 		.4byte	.LFB16
 6392 0034 380B0000 		.4byte	.LFE16
 6393 0038 00000000 		.4byte	.LFB13
 6394 003c C8010000 		.4byte	.LFE13
 6395 0040 00000000 		.4byte	0
 6396 0044 00000000 		.4byte	0
 6397              		.section	.debug_line,"",%progbits
 6398              	.Ldebug_line0:
 6399 0000 22050000 		.section	.debug_str,"MS",%progbits,1
 6399      0200B601 
 6399      00000201 
 6399      FB0E0D00 
 6399      01010101 
 6400              	.LASF32:
 6401 0000 4C565F4F 		.ascii	"LV_OPA_COVER\000"
 6401      50415F43 
 6401      4F564552 
 6401      00
 6402              	.LASF35:
 6403 000d 66756C6C 		.ascii	"full\000"
 6403      00
 6404              	.LASF106:
 6405 0012 77696474 		.ascii	"width_safe\000"
 6405      685F7361 
 6405      666500
 6406              	.LASF113:
 6407 001d 66697273 		.ascii	"first_run\000"
 6407      745F7275 
 6407      6E00
 6408              	.LASF30:
 6409 0027 4C565F4F 		.ascii	"LV_OPA_90\000"
 6409      50415F39 
 6409      3000
 6410              	.LASF90:
 6411 0031 77696474 		.ascii	"width_1\000"
 6411      685F3100 
 6412              	.LASF89:
 6413 0039 77696474 		.ascii	"width_half\000"
 6413      685F6861 
 6413      6C6600
ARM GAS  C:\Users\d3bug\AppData\Local\Temp\ccg1LD4z.s 			page 129


 6414              	.LASF21:
 6415 0044 4C565F4F 		.ascii	"LV_OPA_0\000"
 6415      50415F30 
 6415      00
 6416              	.LASF12:
 6417 004d 756E7369 		.ascii	"unsigned int\000"
 6417      676E6564 
 6417      20696E74 
 6417      00
 6418              	.LASF81:
 6419 005a 6C765F73 		.ascii	"lv_style_t\000"
 6419      74796C65 
 6419      5F7400
 6420              	.LASF50:
 6421 0065 6765745F 		.ascii	"get_bitmap\000"
 6421      6269746D 
 6421      617000
 6422              	.LASF40:
 6423 0070 6C765F70 		.ascii	"lv_point_t\000"
 6423      6F696E74 
 6423      5F7400
 6424              	.LASF80:
 6425 007b 6C696E65 		.ascii	"line\000"
 6425      00
 6426              	.LASF121:
 6427 0080 66696C6C 		.ascii	"fill_fp\000"
 6427      5F667000 
 6428              	.LASF123:
 6429 0088 6C765F64 		.ascii	"lv_draw_aa_hor_seg\000"
 6429      7261775F 
 6429      61615F68 
 6429      6F725F73 
 6429      656700
 6430              	.LASF110:
 6431 009b 61615F73 		.ascii	"aa_shift1\000"
 6431      68696674 
 6431      3100
 6432              	.LASF111:
 6433 00a5 61615F73 		.ascii	"aa_shift2\000"
 6433      68696674 
 6433      3200
 6434              	.LASF49:
 6435 00af 756E6963 		.ascii	"unicode_list\000"
 6435      6F64655F 
 6435      6C697374 
 6435      00
 6436              	.LASF93:
 6437 00bc 6C696E65 		.ascii	"line_draw_ver\000"
 6437      5F647261 
 6437      775F7665 
 6437      7200
 6438              	.LASF63:
 6439 00ca 696E6E65 		.ascii	"inner\000"
 6439      7200
 6440              	.LASF19:
 6441 00d0 75696E74 		.ascii	"uint32_t\000"
 6441      33325F74 
ARM GAS  C:\Users\d3bug\AppData\Local\Temp\ccg1LD4z.s 			page 130


 6441      00
 6442              	.LASF99:
 6443 00d9 6C696E65 		.ascii	"line_next_x\000"
 6443      5F6E6578 
 6443      745F7800 
 6444              	.LASF97:
 6445 00e5 6C696E65 		.ascii	"line_next_y\000"
 6445      5F6E6578 
 6445      745F7900 
 6446              	.LASF17:
 6447 00f1 696E7431 		.ascii	"int16_t\000"
 6447      365F7400 
 6448              	.LASF116:
 6449 00f9 7365675F 		.ascii	"seg_w\000"
 6449      7700
 6450              	.LASF55:
 6451 00ff 676C7970 		.ascii	"glyph_cnt\000"
 6451      685F636E 
 6451      7400
 6452              	.LASF11:
 6453 0109 6C6F6E67 		.ascii	"long long unsigned int\000"
 6453      206C6F6E 
 6453      6720756E 
 6453      7369676E 
 6453      65642069 
 6454              	.LASF61:
 6455 0120 70617274 		.ascii	"part\000"
 6455      00
 6456              	.LASF20:
 6457 0125 4C565F4F 		.ascii	"LV_OPA_TRANSP\000"
 6457      50415F54 
 6457      52414E53 
 6457      5000
 6458              	.LASF5:
 6459 0133 5F5F7569 		.ascii	"__uint16_t\000"
 6459      6E743136 
 6459      5F7400
 6460              	.LASF67:
 6461 013e 626F7264 		.ascii	"border\000"
 6461      657200
 6462              	.LASF92:
 6463 0145 6C696E65 		.ascii	"line_draw_hor\000"
 6463      5F647261 
 6463      775F686F 
 6463      7200
 6464              	.LASF52:
 6465 0153 6E657874 		.ascii	"next_page\000"
 6465      5F706167 
 6465      6500
 6466              	.LASF59:
 6467 015d 636F6C6F 		.ascii	"color\000"
 6467      7200
 6468              	.LASF124:
 6469 0163 474E5520 		.ascii	"GNU C11 5.4.1 20160609 (release) [ARM/embedded-5-br"
 6469      43313120 
 6469      352E342E 
 6469      31203230 
ARM GAS  C:\Users\d3bug\AppData\Local\Temp\ccg1LD4z.s 			page 131


 6469      31363036 
 6470 0196 616E6368 		.ascii	"anch revision 237715] -mcpu=cortex-m3 -mthumb -g -O"
 6470      20726576 
 6470      6973696F 
 6470      6E203233 
 6470      37373135 
 6471 01c9 67202D66 		.ascii	"g -ffunction-sections -ffat-lto-objects\000"
 6471      66756E63 
 6471      74696F6E 
 6471      2D736563 
 6471      74696F6E 
 6472              	.LASF75:
 6473 01f1 726F756E 		.ascii	"rounded\000"
 6473      64656400 
 6474              	.LASF60:
 6475 01f9 77696474 		.ascii	"width\000"
 6475      6800
 6476              	.LASF82:
 6477 01ff 5F426F6F 		.ascii	"_Bool\000"
 6477      6C00
 6478              	.LASF127:
 6479 0205 5F6C765F 		.ascii	"_lv_font_struct\000"
 6479      666F6E74 
 6479      5F737472 
 6479      75637400 
 6480              	.LASF73:
 6481 0215 6C696E65 		.ascii	"line_space\000"
 6481      5F737061 
 6481      636500
 6482              	.LASF15:
 6483 0220 63686172 		.ascii	"char\000"
 6483      00
 6484              	.LASF126:
 6485 0225 433A5C55 		.ascii	"C:\\Users\\d3bug\\Documents\\Creator\\lvgl_ssd1306\\"
 6485      73657273 
 6485      5C643362 
 6485      75675C44 
 6485      6F63756D 
 6486 0253 68656C6C 		.ascii	"hello_world_label.cydsn\000"
 6486      6F5F776F 
 6486      726C645F 
 6486      6C616265 
 6486      6C2E6379 
 6487              	.LASF78:
 6488 026b 74657874 		.ascii	"text\000"
 6488      00
 6489              	.LASF103:
 6490 0270 76656374 		.ascii	"vect_main\000"
 6490      5F6D6169 
 6490      6E00
 6491              	.LASF44:
 6492 027a 6C765F66 		.ascii	"lv_font_glyph_dsc_t\000"
 6492      6F6E745F 
 6492      676C7970 
 6492      685F6473 
 6492      635F7400 
 6493              	.LASF36:
ARM GAS  C:\Users\d3bug\AppData\Local\Temp\ccg1LD4z.s 			page 132


 6494 028e 6C765F63 		.ascii	"lv_color1_t\000"
 6494      6F6C6F72 
 6494      315F7400 
 6495              	.LASF16:
 6496 029a 75696E74 		.ascii	"uint8_t\000"
 6496      385F7400 
 6497              	.LASF94:
 6498 02a2 6163745F 		.ascii	"act_area\000"
 6498      61726561 
 6498      00
 6499              	.LASF114:
 6500 02ab 70617474 		.ascii	"pattern_line\000"
 6500      65726E5F 
 6500      6C696E65 
 6500      00
 6501              	.LASF58:
 6502 02b8 6C765F73 		.ascii	"lv_shadow_type_t\000"
 6502      6861646F 
 6502      775F7479 
 6502      70655F74 
 6502      00
 6503              	.LASF109:
 6504 02c9 795F6365 		.ascii	"y_center_ofs\000"
 6504      6E746572 
 6504      5F6F6673 
 6504      00
 6505              	.LASF128:
 6506 02d6 6C765F64 		.ascii	"lv_draw_line\000"
 6506      7261775F 
 6506      6C696E65 
 6506      00
 6507              	.LASF22:
 6508 02e3 4C565F4F 		.ascii	"LV_OPA_10\000"
 6508      50415F31 
 6508      3000
 6509              	.LASF10:
 6510 02ed 6C6F6E67 		.ascii	"long long int\000"
 6510      206C6F6E 
 6510      6720696E 
 6510      7400
 6511              	.LASF76:
 6512 02fb 676C6173 		.ascii	"glass\000"
 6512      7300
 6513              	.LASF69:
 6514 0301 70616464 		.ascii	"padding\000"
 6514      696E6700 
 6515              	.LASF102:
 6516 0309 6469725F 		.ascii	"dir_ori\000"
 6516      6F726900 
 6517              	.LASF119:
 6518 0311 705F746D 		.ascii	"p_tmp\000"
 6518      7000
 6519              	.LASF3:
 6520 0317 5F5F696E 		.ascii	"__int16_t\000"
 6520      7431365F 
 6520      7400
 6521              	.LASF84:
ARM GAS  C:\Users\d3bug\AppData\Local\Temp\ccg1LD4z.s 			page 133


 6522 0321 6C696E65 		.ascii	"line_draw_t\000"
 6522      5F647261 
 6522      775F7400 
 6523              	.LASF23:
 6524 032d 4C565F4F 		.ascii	"LV_OPA_20\000"
 6524      50415F32 
 6524      3000
 6525              	.LASF47:
 6526 0337 676C7970 		.ascii	"glyph_bitmap\000"
 6526      685F6269 
 6526      746D6170 
 6526      00
 6527              	.LASF79:
 6528 0344 696D6167 		.ascii	"image\000"
 6528      6500
 6529              	.LASF86:
 6530 034a 6D61736B 		.ascii	"mask\000"
 6530      00
 6531              	.LASF101:
 6532 034f 6C696E65 		.ascii	"line_draw_skew\000"
 6532      5F647261 
 6532      775F736B 
 6532      657700
 6533              	.LASF37:
 6534 035e 6C765F63 		.ascii	"lv_color_t\000"
 6534      6F6C6F72 
 6534      5F7400
 6535              	.LASF34:
 6536 0369 67726565 		.ascii	"green\000"
 6536      6E00
 6537              	.LASF24:
 6538 036f 4C565F4F 		.ascii	"LV_OPA_30\000"
 6538      50415F33 
 6538      3000
 6539              	.LASF13:
 6540 0379 6C6F6E67 		.ascii	"long double\000"
 6540      20646F75 
 6540      626C6500 
 6541              	.LASF18:
 6542 0385 75696E74 		.ascii	"uint16_t\000"
 6542      31365F74 
 6542      00
 6543              	.LASF120:
 6544 038e 70785F66 		.ascii	"px_fp\000"
 6544      7000
 6545              	.LASF65:
 6546 0394 67726164 		.ascii	"grad_color\000"
 6546      5F636F6C 
 6546      6F7200
 6547              	.LASF56:
 6548 039f 6C765F66 		.ascii	"lv_font_t\000"
 6548      6F6E745F 
 6548      7400
 6549              	.LASF72:
 6550 03a9 6C657474 		.ascii	"letter_space\000"
 6550      65725F73 
 6550      70616365 
ARM GAS  C:\Users\d3bug\AppData\Local\Temp\ccg1LD4z.s 			page 134


 6550      00
 6551              	.LASF64:
 6552 03b6 6D61696E 		.ascii	"main_color\000"
 6552      5F636F6C 
 6552      6F7200
 6553              	.LASF4:
 6554 03c1 73686F72 		.ascii	"short int\000"
 6554      7420696E 
 6554      7400
 6555              	.LASF38:
 6556 03cb 6C765F6F 		.ascii	"lv_opa_t\000"
 6556      70615F74 
 6556      00
 6557              	.LASF7:
 6558 03d4 6C6F6E67 		.ascii	"long int\000"
 6558      20696E74 
 6558      00
 6559              	.LASF95:
 6560 03dd 6C696E65 		.ascii	"line_init\000"
 6560      5F696E69 
 6560      7400
 6561              	.LASF25:
 6562 03e7 4C565F4F 		.ascii	"LV_OPA_40\000"
 6562      50415F34 
 6562      3000
 6563              	.LASF91:
 6564 03f1 64726177 		.ascii	"draw_area\000"
 6564      5F617265 
 6564      6100
 6565              	.LASF107:
 6566 03fb 61615F6C 		.ascii	"aa_last_corner\000"
 6566      6173745F 
 6566      636F726E 
 6566      657200
 6567              	.LASF53:
 6568 040a 685F7078 		.ascii	"h_px\000"
 6568      00
 6569              	.LASF33:
 6570 040f 626C7565 		.ascii	"blue\000"
 6570      00
 6571              	.LASF39:
 6572 0414 6C765F63 		.ascii	"lv_coord_t\000"
 6572      6F6F7264 
 6572      5F7400
 6573              	.LASF31:
 6574 041f 4C565F4F 		.ascii	"LV_OPA_100\000"
 6574      50415F31 
 6574      303000
 6575              	.LASF2:
 6576 042a 5F5F7569 		.ascii	"__uint8_t\000"
 6576      6E74385F 
 6576      7400
 6577              	.LASF26:
 6578 0434 4C565F4F 		.ascii	"LV_OPA_50\000"
 6578      50415F35 
 6578      3000
 6579              	.LASF100:
ARM GAS  C:\Users\d3bug\AppData\Local\Temp\ccg1LD4z.s 			page 135


 6580 043e 6C617374 		.ascii	"last_x\000"
 6580      5F7800
 6581              	.LASF98:
 6582 0445 6C617374 		.ascii	"last_y\000"
 6582      5F7900
 6583              	.LASF71:
 6584 044c 666F6E74 		.ascii	"font\000"
 6584      00
 6585              	.LASF14:
 6586 0451 73697A65 		.ascii	"sizetype\000"
 6586      74797065 
 6586      00
 6587              	.LASF9:
 6588 045a 6C6F6E67 		.ascii	"long unsigned int\000"
 6588      20756E73 
 6588      69676E65 
 6588      6420696E 
 6588      7400
 6589              	.LASF70:
 6590 046c 656D7074 		.ascii	"empty\000"
 6590      7900
 6591              	.LASF74:
 6592 0472 696E7465 		.ascii	"intense\000"
 6592      6E736500 
 6593              	.LASF54:
 6594 047a 6D6F6E6F 		.ascii	"monospace\000"
 6594      73706163 
 6594      6500
 6595              	.LASF43:
 6596 0484 676C7970 		.ascii	"glyph_index\000"
 6596      685F696E 
 6596      64657800 
 6597              	.LASF83:
 6598 0490 705F6163 		.ascii	"p_act\000"
 6598      7400
 6599              	.LASF66:
 6600 0496 72616469 		.ascii	"radius\000"
 6600      757300
 6601              	.LASF88:
 6602 049d 6F70615F 		.ascii	"opa_scale\000"
 6602      7363616C 
 6602      6500
 6603              	.LASF77:
 6604 04a7 626F6479 		.ascii	"body\000"
 6604      00
 6605              	.LASF27:
 6606 04ac 4C565F4F 		.ascii	"LV_OPA_60\000"
 6606      50415F36 
 6606      3000
 6607              	.LASF62:
 6608 04b6 74797065 		.ascii	"type\000"
 6608      00
 6609              	.LASF122:
 6610 04bb 6C765F64 		.ascii	"lv_draw_aa_ver_seg\000"
 6610      7261775F 
 6610      61615F76 
 6610      65725F73 
ARM GAS  C:\Users\d3bug\AppData\Local\Temp\ccg1LD4z.s 			page 136


 6610      656700
 6611              	.LASF1:
 6612 04ce 756E7369 		.ascii	"unsigned char\000"
 6612      676E6564 
 6612      20636861 
 6612      7200
 6613              	.LASF8:
 6614 04dc 5F5F7569 		.ascii	"__uint32_t\000"
 6614      6E743332 
 6614      5F7400
 6615              	.LASF42:
 6616 04e7 775F7078 		.ascii	"w_px\000"
 6616      00
 6617              	.LASF125:
 6618 04ec 2E2E5C6C 		.ascii	"..\\lvgl\\lv_draw\\lv_draw_line.c\000"
 6618      76676C5C 
 6618      6C765F64 
 6618      7261775C 
 6618      6C765F64 
 6619              	.LASF105:
 6620 050b 70617474 		.ascii	"pattern\000"
 6620      65726E00 
 6621              	.LASF117:
 6622 0513 706F696E 		.ascii	"point1\000"
 6622      743100
 6623              	.LASF118:
 6624 051a 706F696E 		.ascii	"point2\000"
 6624      743200
 6625              	.LASF85:
 6626 0521 6D61696E 		.ascii	"main_line\000"
 6626      5F6C696E 
 6626      6500
 6627              	.LASF87:
 6628 052b 7374796C 		.ascii	"style\000"
 6628      6500
 6629              	.LASF28:
 6630 0531 4C565F4F 		.ascii	"LV_OPA_70\000"
 6630      50415F37 
 6630      3000
 6631              	.LASF51:
 6632 053b 6765745F 		.ascii	"get_width\000"
 6632      77696474 
 6632      6800
 6633              	.LASF68:
 6634 0545 73686164 		.ascii	"shadow\000"
 6634      6F7700
 6635              	.LASF41:
 6636 054c 6C765F61 		.ascii	"lv_area_t\000"
 6636      7265615F 
 6636      7400
 6637              	.LASF0:
 6638 0556 7369676E 		.ascii	"signed char\000"
 6638      65642063 
 6638      68617200 
 6639              	.LASF6:
 6640 0562 73686F72 		.ascii	"short unsigned int\000"
 6640      7420756E 
ARM GAS  C:\Users\d3bug\AppData\Local\Temp\ccg1LD4z.s 			page 137


 6640      7369676E 
 6640      65642069 
 6640      6E7400
 6641              	.LASF108:
 6642 0575 785F6365 		.ascii	"x_center_ofs\000"
 6642      6E746572 
 6642      5F6F6673 
 6642      00
 6643              	.LASF48:
 6644 0582 676C7970 		.ascii	"glyph_dsc\000"
 6644      685F6473 
 6644      6300
 6645              	.LASF29:
 6646 058c 4C565F4F 		.ascii	"LV_OPA_80\000"
 6646      50415F38 
 6646      3000
 6647              	.LASF115:
 6648 0596 77696474 		.ascii	"width_sqr\000"
 6648      685F7371 
 6648      7200
 6649              	.LASF45:
 6650 05a0 756E6963 		.ascii	"unicode_first\000"
 6650      6F64655F 
 6650      66697273 
 6650      7400
 6651              	.LASF57:
 6652 05ae 6C765F62 		.ascii	"lv_border_part_t\000"
 6652      6F726465 
 6652      725F7061 
 6652      72745F74 
 6652      00
 6653              	.LASF46:
 6654 05bf 756E6963 		.ascii	"unicode_last\000"
 6654      6F64655F 
 6654      6C617374 
 6654      00
 6655              	.LASF104:
 6656 05cc 76656374 		.ascii	"vect_norm\000"
 6656      5F6E6F72 
 6656      6D00
 6657              	.LASF96:
 6658 05d6 6C696E65 		.ascii	"line_next\000"
 6658      5F6E6578 
 6658      7400
 6659              	.LASF112:
 6660 05e0 70726576 		.ascii	"prev_p\000"
 6660      5F7000
 6661              		.ident	"GCC: (GNU Tools for ARM Embedded Processors) 5.4.1 20160609 (release) [ARM/embedded-5-bran
