ARM GAS  C:\Users\d3bug\AppData\Local\Temp\cc6Fq6JX.s 			page 1


   1              		.syntax unified
   2              		.cpu cortex-m3
   3              		.fpu softvfp
   4              		.eabi_attribute 20, 1
   5              		.eabi_attribute 21, 1
   6              		.eabi_attribute 23, 3
   7              		.eabi_attribute 24, 1
   8              		.eabi_attribute 25, 1
   9              		.eabi_attribute 26, 1
  10              		.eabi_attribute 30, 1
  11              		.eabi_attribute 34, 1
  12              		.eabi_attribute 18, 4
  13              		.thumb
  14              		.syntax unified
  15              		.file	"lv_draw_arc.c"
  16              		.text
  17              	.Ltext0:
  18              		.cfi_sections	.debug_frame
  19              		.section	.text.fast_atan2,"ax",%progbits
  20              		.align	2
  21              		.thumb
  22              		.thumb_func
  23              		.type	fast_atan2, %function
  24              	fast_atan2:
  25              	.LFB13:
  26              		.file 1 "..\\lvgl\\lv_draw\\lv_draw_arc.c"
   1:..\lvgl\lv_draw/lv_draw_arc.c **** /**
   2:..\lvgl\lv_draw/lv_draw_arc.c ****  * @file lv_draw_arc.c
   3:..\lvgl\lv_draw/lv_draw_arc.c ****  *
   4:..\lvgl\lv_draw/lv_draw_arc.c ****  */
   5:..\lvgl\lv_draw/lv_draw_arc.c **** 
   6:..\lvgl\lv_draw/lv_draw_arc.c **** /*********************
   7:..\lvgl\lv_draw/lv_draw_arc.c ****  *      INCLUDES
   8:..\lvgl\lv_draw/lv_draw_arc.c ****  *********************/
   9:..\lvgl\lv_draw/lv_draw_arc.c **** #include "lv_draw_arc.h"
  10:..\lvgl\lv_draw/lv_draw_arc.c **** #include "../lv_misc/lv_math.h"
  11:..\lvgl\lv_draw/lv_draw_arc.c **** 
  12:..\lvgl\lv_draw/lv_draw_arc.c **** /*********************
  13:..\lvgl\lv_draw/lv_draw_arc.c ****  *      DEFINES
  14:..\lvgl\lv_draw/lv_draw_arc.c ****  *********************/
  15:..\lvgl\lv_draw/lv_draw_arc.c **** 
  16:..\lvgl\lv_draw/lv_draw_arc.c **** /**********************
  17:..\lvgl\lv_draw/lv_draw_arc.c ****  *      TYPEDEFS
  18:..\lvgl\lv_draw/lv_draw_arc.c ****  **********************/
  19:..\lvgl\lv_draw/lv_draw_arc.c **** 
  20:..\lvgl\lv_draw/lv_draw_arc.c **** /**********************
  21:..\lvgl\lv_draw/lv_draw_arc.c ****  *  STATIC PROTOTYPES
  22:..\lvgl\lv_draw/lv_draw_arc.c ****  **********************/
  23:..\lvgl\lv_draw/lv_draw_arc.c **** static uint16_t fast_atan2(int x, int y);
  24:..\lvgl\lv_draw/lv_draw_arc.c **** static void ver_line(lv_coord_t x, lv_coord_t y, const lv_area_t * mask, lv_coord_t len, lv_color_t
  25:..\lvgl\lv_draw/lv_draw_arc.c **** static void hor_line(lv_coord_t x, lv_coord_t y, const lv_area_t * mask, lv_coord_t len, lv_color_t
  26:..\lvgl\lv_draw/lv_draw_arc.c **** static bool deg_test_norm(uint16_t deg, uint16_t start, uint16_t end);
  27:..\lvgl\lv_draw/lv_draw_arc.c **** static bool deg_test_inv(uint16_t deg, uint16_t start, uint16_t end);
  28:..\lvgl\lv_draw/lv_draw_arc.c **** 
  29:..\lvgl\lv_draw/lv_draw_arc.c **** /**********************
  30:..\lvgl\lv_draw/lv_draw_arc.c ****  *  STATIC VARIABLES
  31:..\lvgl\lv_draw/lv_draw_arc.c ****  **********************/
ARM GAS  C:\Users\d3bug\AppData\Local\Temp\cc6Fq6JX.s 			page 2


  32:..\lvgl\lv_draw/lv_draw_arc.c **** 
  33:..\lvgl\lv_draw/lv_draw_arc.c **** /**********************
  34:..\lvgl\lv_draw/lv_draw_arc.c ****  *      MACROS
  35:..\lvgl\lv_draw/lv_draw_arc.c ****  **********************/
  36:..\lvgl\lv_draw/lv_draw_arc.c **** 
  37:..\lvgl\lv_draw/lv_draw_arc.c **** /**********************
  38:..\lvgl\lv_draw/lv_draw_arc.c ****  *   GLOBAL FUNCTIONS
  39:..\lvgl\lv_draw/lv_draw_arc.c ****  **********************/
  40:..\lvgl\lv_draw/lv_draw_arc.c **** 
  41:..\lvgl\lv_draw/lv_draw_arc.c **** /**
  42:..\lvgl\lv_draw/lv_draw_arc.c ****  * Draw an arc. (Can draw pie too with great thickness.)
  43:..\lvgl\lv_draw/lv_draw_arc.c ****  * @param center_x the x coordinate of the center of the arc
  44:..\lvgl\lv_draw/lv_draw_arc.c ****  * @param center_y the y coordinate of the center of the arc
  45:..\lvgl\lv_draw/lv_draw_arc.c ****  * @param radius the radius of the arc
  46:..\lvgl\lv_draw/lv_draw_arc.c ****  * @param mask the arc will be drawn only in this mask
  47:..\lvgl\lv_draw/lv_draw_arc.c ****  * @param start_angle the start angle of the arc (0 deg on the bottom, 90 deg on the right)
  48:..\lvgl\lv_draw/lv_draw_arc.c ****  * @param end_angle the end angle of the arc
  49:..\lvgl\lv_draw/lv_draw_arc.c ****  * @param style style of the arc (`body.thickness`, `body.main_color`, `body.opa` is used)
  50:..\lvgl\lv_draw/lv_draw_arc.c ****  * @param opa_scale scale down all opacities by the factor
  51:..\lvgl\lv_draw/lv_draw_arc.c ****  */
  52:..\lvgl\lv_draw/lv_draw_arc.c **** void lv_draw_arc(lv_coord_t center_x, lv_coord_t center_y, uint16_t radius, const lv_area_t * mask,
  53:..\lvgl\lv_draw/lv_draw_arc.c ****                  uint16_t start_angle, uint16_t end_angle, const lv_style_t * style, lv_opa_t opa_s
  54:..\lvgl\lv_draw/lv_draw_arc.c **** {
  55:..\lvgl\lv_draw/lv_draw_arc.c ****     lv_coord_t thickness = style->line.width;
  56:..\lvgl\lv_draw/lv_draw_arc.c ****     if(thickness > radius) thickness = radius;
  57:..\lvgl\lv_draw/lv_draw_arc.c **** 
  58:..\lvgl\lv_draw/lv_draw_arc.c ****     lv_coord_t r_out = radius;
  59:..\lvgl\lv_draw/lv_draw_arc.c ****     lv_coord_t r_in = r_out - thickness;
  60:..\lvgl\lv_draw/lv_draw_arc.c ****     int16_t deg_base;
  61:..\lvgl\lv_draw/lv_draw_arc.c ****     int16_t deg;
  62:..\lvgl\lv_draw/lv_draw_arc.c ****     lv_coord_t x_start[4];
  63:..\lvgl\lv_draw/lv_draw_arc.c ****     lv_coord_t x_end[4];
  64:..\lvgl\lv_draw/lv_draw_arc.c **** 
  65:..\lvgl\lv_draw/lv_draw_arc.c ****     lv_color_t color = style->line.color;
  66:..\lvgl\lv_draw/lv_draw_arc.c ****     lv_opa_t opa = opa_scale == LV_OPA_COVER ? style->body.opa : (uint16_t)((uint16_t) style->body.
  67:..\lvgl\lv_draw/lv_draw_arc.c **** 
  68:..\lvgl\lv_draw/lv_draw_arc.c **** 
  69:..\lvgl\lv_draw/lv_draw_arc.c ****     bool (*deg_test)(uint16_t, uint16_t, uint16_t);
  70:..\lvgl\lv_draw/lv_draw_arc.c ****     if(start_angle <= end_angle) deg_test = deg_test_norm;
  71:..\lvgl\lv_draw/lv_draw_arc.c ****     else deg_test = deg_test_inv;
  72:..\lvgl\lv_draw/lv_draw_arc.c **** 
  73:..\lvgl\lv_draw/lv_draw_arc.c ****     if(deg_test(270, start_angle, end_angle))  hor_line(center_x - r_out + 1, center_y, mask, thick
  74:..\lvgl\lv_draw/lv_draw_arc.c ****     if(deg_test(90, start_angle, end_angle))   hor_line(center_x + r_in, center_y,  mask, thickness
  75:..\lvgl\lv_draw/lv_draw_arc.c ****     if(deg_test(180, start_angle, end_angle))  ver_line(center_x, center_y - r_out + 1,  mask, thic
  76:..\lvgl\lv_draw/lv_draw_arc.c ****     if(deg_test(0, start_angle, end_angle))    ver_line(center_x, center_y + r_in,  mask, thickness
  77:..\lvgl\lv_draw/lv_draw_arc.c **** 
  78:..\lvgl\lv_draw/lv_draw_arc.c ****     uint32_t r_out_sqr = r_out * r_out;
  79:..\lvgl\lv_draw/lv_draw_arc.c ****     uint32_t r_in_sqr = r_in * r_in;
  80:..\lvgl\lv_draw/lv_draw_arc.c ****     int16_t xi;
  81:..\lvgl\lv_draw/lv_draw_arc.c ****     int16_t yi;
  82:..\lvgl\lv_draw/lv_draw_arc.c ****     for(yi = -r_out; yi < 0; yi++) {
  83:..\lvgl\lv_draw/lv_draw_arc.c ****         x_start[0] = LV_COORD_MIN;
  84:..\lvgl\lv_draw/lv_draw_arc.c ****         x_start[1] = LV_COORD_MIN;
  85:..\lvgl\lv_draw/lv_draw_arc.c ****         x_start[2] = LV_COORD_MIN;
  86:..\lvgl\lv_draw/lv_draw_arc.c ****         x_start[3] = LV_COORD_MIN;
  87:..\lvgl\lv_draw/lv_draw_arc.c ****         x_end[0] = LV_COORD_MIN;
  88:..\lvgl\lv_draw/lv_draw_arc.c ****         x_end[1] = LV_COORD_MIN;
ARM GAS  C:\Users\d3bug\AppData\Local\Temp\cc6Fq6JX.s 			page 3


  89:..\lvgl\lv_draw/lv_draw_arc.c ****         x_end[2] = LV_COORD_MIN;
  90:..\lvgl\lv_draw/lv_draw_arc.c ****         x_end[3] = LV_COORD_MIN;
  91:..\lvgl\lv_draw/lv_draw_arc.c ****         for(xi = -r_out; xi < 0; xi++) {
  92:..\lvgl\lv_draw/lv_draw_arc.c **** 
  93:..\lvgl\lv_draw/lv_draw_arc.c ****             uint32_t r_act_sqr = xi * xi + yi * yi;
  94:..\lvgl\lv_draw/lv_draw_arc.c ****             if(r_act_sqr > r_out_sqr) continue;
  95:..\lvgl\lv_draw/lv_draw_arc.c **** 
  96:..\lvgl\lv_draw/lv_draw_arc.c ****             deg_base =  fast_atan2(xi, yi) - 180;
  97:..\lvgl\lv_draw/lv_draw_arc.c **** 
  98:..\lvgl\lv_draw/lv_draw_arc.c ****             deg = 180 + deg_base;
  99:..\lvgl\lv_draw/lv_draw_arc.c ****             if(deg_test(deg, start_angle, end_angle)) {
 100:..\lvgl\lv_draw/lv_draw_arc.c ****                 if(x_start[0] == LV_COORD_MIN) x_start[0] = xi;
 101:..\lvgl\lv_draw/lv_draw_arc.c ****             } else if(x_start[0] != LV_COORD_MIN && x_end[0] == LV_COORD_MIN) {
 102:..\lvgl\lv_draw/lv_draw_arc.c ****                 x_end[0] = xi - 1;
 103:..\lvgl\lv_draw/lv_draw_arc.c ****             }
 104:..\lvgl\lv_draw/lv_draw_arc.c **** 
 105:..\lvgl\lv_draw/lv_draw_arc.c ****             deg = 360 - deg_base;
 106:..\lvgl\lv_draw/lv_draw_arc.c ****             if(deg_test(deg, start_angle, end_angle)) {
 107:..\lvgl\lv_draw/lv_draw_arc.c ****                 if(x_start[1] == LV_COORD_MIN) x_start[1] = xi;
 108:..\lvgl\lv_draw/lv_draw_arc.c ****             } else if(x_start[1] != LV_COORD_MIN && x_end[1] == LV_COORD_MIN) {
 109:..\lvgl\lv_draw/lv_draw_arc.c ****                 x_end[1] = xi - 1;
 110:..\lvgl\lv_draw/lv_draw_arc.c ****             }
 111:..\lvgl\lv_draw/lv_draw_arc.c **** 
 112:..\lvgl\lv_draw/lv_draw_arc.c ****             deg = 180 - deg_base;
 113:..\lvgl\lv_draw/lv_draw_arc.c ****             if(deg_test(deg, start_angle, end_angle)) {
 114:..\lvgl\lv_draw/lv_draw_arc.c ****                 if(x_start[2] == LV_COORD_MIN) x_start[2] = xi;
 115:..\lvgl\lv_draw/lv_draw_arc.c ****             } else if(x_start[2] != LV_COORD_MIN && x_end[2] == LV_COORD_MIN) {
 116:..\lvgl\lv_draw/lv_draw_arc.c ****                 x_end[2] = xi - 1;
 117:..\lvgl\lv_draw/lv_draw_arc.c ****             }
 118:..\lvgl\lv_draw/lv_draw_arc.c **** 
 119:..\lvgl\lv_draw/lv_draw_arc.c ****             deg = deg_base;
 120:..\lvgl\lv_draw/lv_draw_arc.c ****             if(deg_test(deg, start_angle, end_angle)) {
 121:..\lvgl\lv_draw/lv_draw_arc.c ****                 if(x_start[3] == LV_COORD_MIN) x_start[3] = xi;
 122:..\lvgl\lv_draw/lv_draw_arc.c ****             } else if(x_start[3] != LV_COORD_MIN && x_end[3] == LV_COORD_MIN) {
 123:..\lvgl\lv_draw/lv_draw_arc.c ****                 x_end[3] = xi - 1;
 124:..\lvgl\lv_draw/lv_draw_arc.c ****             }
 125:..\lvgl\lv_draw/lv_draw_arc.c **** 
 126:..\lvgl\lv_draw/lv_draw_arc.c ****             if(r_act_sqr < r_in_sqr) break; /*No need to continue the iteration in x once we found 
 127:..\lvgl\lv_draw/lv_draw_arc.c ****         }
 128:..\lvgl\lv_draw/lv_draw_arc.c **** 
 129:..\lvgl\lv_draw/lv_draw_arc.c **** 
 130:..\lvgl\lv_draw/lv_draw_arc.c ****         if(x_start[0] != LV_COORD_MIN) {
 131:..\lvgl\lv_draw/lv_draw_arc.c ****             if(x_end[0] == LV_COORD_MIN) x_end[0] = xi - 1;
 132:..\lvgl\lv_draw/lv_draw_arc.c ****             hor_line(center_x + x_start[0], center_y + yi, mask, x_end[0] - x_start[0], color, opa)
 133:..\lvgl\lv_draw/lv_draw_arc.c ****         }
 134:..\lvgl\lv_draw/lv_draw_arc.c **** 
 135:..\lvgl\lv_draw/lv_draw_arc.c ****         if(x_start[1] != LV_COORD_MIN) {
 136:..\lvgl\lv_draw/lv_draw_arc.c ****             if(x_end[1] == LV_COORD_MIN) x_end[1] = xi - 1;
 137:..\lvgl\lv_draw/lv_draw_arc.c ****             hor_line(center_x + x_start[1], center_y - yi, mask, x_end[1] - x_start[1], color, opa)
 138:..\lvgl\lv_draw/lv_draw_arc.c ****         }
 139:..\lvgl\lv_draw/lv_draw_arc.c **** 
 140:..\lvgl\lv_draw/lv_draw_arc.c ****         if(x_start[2] != LV_COORD_MIN) {
 141:..\lvgl\lv_draw/lv_draw_arc.c ****             if(x_end[2] == LV_COORD_MIN) x_end[2] = xi - 1;
 142:..\lvgl\lv_draw/lv_draw_arc.c ****             hor_line(center_x - x_end[2], center_y + yi, mask, LV_MATH_ABS(x_end[2] - x_start[2]), 
 143:..\lvgl\lv_draw/lv_draw_arc.c ****         }
 144:..\lvgl\lv_draw/lv_draw_arc.c **** 
 145:..\lvgl\lv_draw/lv_draw_arc.c ****         if(x_start[3] != LV_COORD_MIN) {
ARM GAS  C:\Users\d3bug\AppData\Local\Temp\cc6Fq6JX.s 			page 4


 146:..\lvgl\lv_draw/lv_draw_arc.c ****             if(x_end[3] == LV_COORD_MIN) x_end[3] = xi - 1;
 147:..\lvgl\lv_draw/lv_draw_arc.c ****             hor_line(center_x - x_end[3], center_y - yi, mask, LV_MATH_ABS(x_end[3] - x_start[3]), 
 148:..\lvgl\lv_draw/lv_draw_arc.c ****         }
 149:..\lvgl\lv_draw/lv_draw_arc.c **** 
 150:..\lvgl\lv_draw/lv_draw_arc.c **** 
 151:..\lvgl\lv_draw/lv_draw_arc.c **** #if LV_ANTIALIAS
 152:..\lvgl\lv_draw/lv_draw_arc.c ****         /*TODO*/
 153:..\lvgl\lv_draw/lv_draw_arc.c **** 
 154:..\lvgl\lv_draw/lv_draw_arc.c **** #endif
 155:..\lvgl\lv_draw/lv_draw_arc.c **** 
 156:..\lvgl\lv_draw/lv_draw_arc.c ****     }
 157:..\lvgl\lv_draw/lv_draw_arc.c **** }
 158:..\lvgl\lv_draw/lv_draw_arc.c **** 
 159:..\lvgl\lv_draw/lv_draw_arc.c **** static uint16_t fast_atan2(int x, int y)
 160:..\lvgl\lv_draw/lv_draw_arc.c **** {
  27              		.loc 1 160 0
  28              		.cfi_startproc
  29              		@ args = 0, pretend = 0, frame = 0
  30              		@ frame_needed = 0, uses_anonymous_args = 0
  31              		@ link register save eliminated.
  32              	.LVL0:
 161:..\lvgl\lv_draw/lv_draw_arc.c ****     // Fast XY vector to integer degree algorithm - Jan 2011 www.RomanBlack.com
 162:..\lvgl\lv_draw/lv_draw_arc.c ****     // Converts any XY values including 0 to a degree value that should be
 163:..\lvgl\lv_draw/lv_draw_arc.c ****     // within +/- 1 degree of the accurate value without needing
 164:..\lvgl\lv_draw/lv_draw_arc.c ****     // large slow trig functions like ArcTan() or ArcCos().
 165:..\lvgl\lv_draw/lv_draw_arc.c ****     // NOTE! at least one of the X or Y values must be non-zero!
 166:..\lvgl\lv_draw/lv_draw_arc.c ****     // This is the full version, for all 4 quadrants and will generate
 167:..\lvgl\lv_draw/lv_draw_arc.c ****     // the angle in integer degrees from 0-360.
 168:..\lvgl\lv_draw/lv_draw_arc.c ****     // Any values of X and Y are usable including negative values provided
 169:..\lvgl\lv_draw/lv_draw_arc.c ****     // they are between -1456 and 1456 so the 16bit multiply does not overflow.
 170:..\lvgl\lv_draw/lv_draw_arc.c **** 
 171:..\lvgl\lv_draw/lv_draw_arc.c ****     unsigned char negflag;
 172:..\lvgl\lv_draw/lv_draw_arc.c ****     unsigned char tempdegree;
 173:..\lvgl\lv_draw/lv_draw_arc.c ****     unsigned char comp;
 174:..\lvgl\lv_draw/lv_draw_arc.c ****     unsigned int degree;     // this will hold the result
 175:..\lvgl\lv_draw/lv_draw_arc.c ****     //signed int x;            // these hold the XY vector at the start
 176:..\lvgl\lv_draw/lv_draw_arc.c ****     //signed int y;            // (and they will be destroyed)
 177:..\lvgl\lv_draw/lv_draw_arc.c ****     unsigned int ux;
 178:..\lvgl\lv_draw/lv_draw_arc.c ****     unsigned int uy;
 179:..\lvgl\lv_draw/lv_draw_arc.c **** 
 180:..\lvgl\lv_draw/lv_draw_arc.c ****     // Save the sign flags then remove signs and get XY as unsigned ints
 181:..\lvgl\lv_draw/lv_draw_arc.c ****     negflag = 0;
 182:..\lvgl\lv_draw/lv_draw_arc.c ****     if(x < 0) {
  33              		.loc 1 182 0
  34 0000 0028     		cmp	r0, #0
  35 0002 02DA     		bge	.L18
  36              	.LVL1:
 183:..\lvgl\lv_draw/lv_draw_arc.c ****         negflag += 0x01;    // x flag bit
 184:..\lvgl\lv_draw/lv_draw_arc.c ****         x = (0 - x);        // is now +
  37              		.loc 1 184 0
  38 0004 4042     		negs	r0, r0
  39              	.LVL2:
 183:..\lvgl\lv_draw/lv_draw_arc.c ****         negflag += 0x01;    // x flag bit
  40              		.loc 1 183 0
  41 0006 0123     		movs	r3, #1
  42 0008 00E0     		b	.L2
  43              	.LVL3:
ARM GAS  C:\Users\d3bug\AppData\Local\Temp\cc6Fq6JX.s 			page 5


  44              	.L18:
 181:..\lvgl\lv_draw/lv_draw_arc.c ****     if(x < 0) {
  45              		.loc 1 181 0
  46 000a 0023     		movs	r3, #0
  47              	.LVL4:
  48              	.L2:
 185:..\lvgl\lv_draw/lv_draw_arc.c ****     }
 186:..\lvgl\lv_draw/lv_draw_arc.c ****     ux = x;                // copy to unsigned var before multiply
 187:..\lvgl\lv_draw/lv_draw_arc.c ****     if(y < 0) {
  49              		.loc 1 187 0
  50 000c 0029     		cmp	r1, #0
  51 000e 02DA     		bge	.L3
 188:..\lvgl\lv_draw/lv_draw_arc.c ****         negflag += 0x02;    // y flag bit
  52              		.loc 1 188 0
  53 0010 0233     		adds	r3, r3, #2
  54              	.LVL5:
  55 0012 DBB2     		uxtb	r3, r3
  56              	.LVL6:
 189:..\lvgl\lv_draw/lv_draw_arc.c ****         y = (0 - y);        // is now +
  57              		.loc 1 189 0
  58 0014 4942     		negs	r1, r1
  59              	.LVL7:
  60              	.L3:
 190:..\lvgl\lv_draw/lv_draw_arc.c ****     }
 191:..\lvgl\lv_draw/lv_draw_arc.c ****     uy = y;                // copy to unsigned var before multiply
 192:..\lvgl\lv_draw/lv_draw_arc.c **** 
 193:..\lvgl\lv_draw/lv_draw_arc.c ****     // 1. Calc the scaled "degrees"
 194:..\lvgl\lv_draw/lv_draw_arc.c ****     if(ux > uy) {
  61              		.loc 1 194 0
  62 0016 8842     		cmp	r0, r1
  63 0018 08D9     		bls	.L4
 195:..\lvgl\lv_draw/lv_draw_arc.c ****         degree = (uy * 45) / ux;   // degree result will be 0-45 range
  64              		.loc 1 195 0
  65 001a 01EB4101 		add	r1, r1, r1, lsl #1
  66              	.LVL8:
  67 001e C1EB0111 		rsb	r1, r1, r1, lsl #4
  68 0022 B1FBF0F1 		udiv	r1, r1, r0
  69              	.LVL9:
 196:..\lvgl\lv_draw/lv_draw_arc.c ****         negflag += 0x10;    // octant flag bit
  70              		.loc 1 196 0
  71 0026 1033     		adds	r3, r3, #16
  72              	.LVL10:
  73 0028 DBB2     		uxtb	r3, r3
  74              	.LVL11:
  75 002a 05E0     		b	.L5
  76              	.LVL12:
  77              	.L4:
 197:..\lvgl\lv_draw/lv_draw_arc.c ****     } else {
 198:..\lvgl\lv_draw/lv_draw_arc.c ****         degree = (ux * 45) / uy;   // degree result will be 0-45 range
  78              		.loc 1 198 0
  79 002c 00EB4000 		add	r0, r0, r0, lsl #1
  80              	.LVL13:
  81 0030 C0EB0010 		rsb	r0, r0, r0, lsl #4
  82 0034 B0FBF1F1 		udiv	r1, r0, r1
  83              	.LVL14:
  84              	.L5:
 199:..\lvgl\lv_draw/lv_draw_arc.c ****     }
ARM GAS  C:\Users\d3bug\AppData\Local\Temp\cc6Fq6JX.s 			page 6


 200:..\lvgl\lv_draw/lv_draw_arc.c **** 
 201:..\lvgl\lv_draw/lv_draw_arc.c ****     // 2. Compensate for the 4 degree error curve
 202:..\lvgl\lv_draw/lv_draw_arc.c ****     comp = 0;
 203:..\lvgl\lv_draw/lv_draw_arc.c ****     tempdegree = degree;    // use an unsigned char for speed!
  85              		.loc 1 203 0
  86 0038 CAB2     		uxtb	r2, r1
  87              	.LVL15:
 204:..\lvgl\lv_draw/lv_draw_arc.c ****     if(tempdegree > 22) {    // if top half of range
  88              		.loc 1 204 0
  89 003a 162A     		cmp	r2, #22
  90 003c 11D9     		bls	.L6
 205:..\lvgl\lv_draw/lv_draw_arc.c ****         if(tempdegree <= 44) comp++;
  91              		.loc 1 205 0
  92 003e 2C2A     		cmp	r2, #44
  93 0040 01D9     		bls	.L19
 202:..\lvgl\lv_draw/lv_draw_arc.c ****     tempdegree = degree;    // use an unsigned char for speed!
  94              		.loc 1 202 0
  95 0042 0020     		movs	r0, #0
  96 0044 00E0     		b	.L7
  97              	.L19:
  98              		.loc 1 205 0
  99 0046 0120     		movs	r0, #1
 100              	.L7:
 101              	.LVL16:
 206:..\lvgl\lv_draw/lv_draw_arc.c ****         if(tempdegree <= 41) comp++;
 102              		.loc 1 206 0
 103 0048 292A     		cmp	r2, #41
 104 004a 01D8     		bhi	.L8
 105              		.loc 1 206 0 is_stmt 0 discriminator 1
 106 004c 0130     		adds	r0, r0, #1
 107              	.LVL17:
 108 004e C0B2     		uxtb	r0, r0
 109              	.LVL18:
 110              	.L8:
 207:..\lvgl\lv_draw/lv_draw_arc.c ****         if(tempdegree <= 37) comp++;
 111              		.loc 1 207 0 is_stmt 1
 112 0050 252A     		cmp	r2, #37
 113 0052 01D8     		bhi	.L9
 114              		.loc 1 207 0 is_stmt 0 discriminator 1
 115 0054 0130     		adds	r0, r0, #1
 116              	.LVL19:
 117 0056 C0B2     		uxtb	r0, r0
 118              	.LVL20:
 119              	.L9:
 208:..\lvgl\lv_draw/lv_draw_arc.c ****         if(tempdegree <= 32) comp++;  // max is 4 degrees compensated
 120              		.loc 1 208 0 is_stmt 1
 121 0058 202A     		cmp	r2, #32
 122 005a 13D8     		bhi	.L10
 123              		.loc 1 208 0 is_stmt 0 discriminator 1
 124 005c 0130     		adds	r0, r0, #1
 125              	.LVL21:
 126 005e C0B2     		uxtb	r0, r0
 127              	.LVL22:
 128 0060 10E0     		b	.L10
 129              	.LVL23:
 130              	.L6:
 209:..\lvgl\lv_draw/lv_draw_arc.c ****     } else { // else is lower half of range
ARM GAS  C:\Users\d3bug\AppData\Local\Temp\cc6Fq6JX.s 			page 7


 210:..\lvgl\lv_draw/lv_draw_arc.c ****         if(tempdegree >= 2) comp++;
 131              		.loc 1 210 0 is_stmt 1
 132 0062 012A     		cmp	r2, #1
 133 0064 01D8     		bhi	.L20
 202:..\lvgl\lv_draw/lv_draw_arc.c ****     tempdegree = degree;    // use an unsigned char for speed!
 134              		.loc 1 202 0
 135 0066 0020     		movs	r0, #0
 136 0068 00E0     		b	.L11
 137              	.L20:
 138              		.loc 1 210 0
 139 006a 0120     		movs	r0, #1
 140              	.L11:
 141              	.LVL24:
 211:..\lvgl\lv_draw/lv_draw_arc.c ****         if(tempdegree >= 6) comp++;
 142              		.loc 1 211 0
 143 006c 052A     		cmp	r2, #5
 144 006e 01D9     		bls	.L12
 145              		.loc 1 211 0 is_stmt 0 discriminator 1
 146 0070 0130     		adds	r0, r0, #1
 147              	.LVL25:
 148 0072 C0B2     		uxtb	r0, r0
 149              	.LVL26:
 150              	.L12:
 212:..\lvgl\lv_draw/lv_draw_arc.c ****         if(tempdegree >= 10) comp++;
 151              		.loc 1 212 0 is_stmt 1
 152 0074 092A     		cmp	r2, #9
 153 0076 01D9     		bls	.L13
 154              		.loc 1 212 0 is_stmt 0 discriminator 1
 155 0078 0130     		adds	r0, r0, #1
 156              	.LVL27:
 157 007a C0B2     		uxtb	r0, r0
 158              	.LVL28:
 159              	.L13:
 213:..\lvgl\lv_draw/lv_draw_arc.c ****         if(tempdegree >= 15) comp++;  // max is 4 degrees compensated
 160              		.loc 1 213 0 is_stmt 1
 161 007c 0E2A     		cmp	r2, #14
 162 007e 01D9     		bls	.L10
 163              		.loc 1 213 0 is_stmt 0 discriminator 1
 164 0080 0130     		adds	r0, r0, #1
 165              	.LVL29:
 166 0082 C0B2     		uxtb	r0, r0
 167              	.LVL30:
 168              	.L10:
 214:..\lvgl\lv_draw/lv_draw_arc.c ****     }
 215:..\lvgl\lv_draw/lv_draw_arc.c ****     degree += comp;   // degree is now accurate to +/- 1 degree!
 169              		.loc 1 215 0 is_stmt 1
 170 0084 0844     		add	r0, r0, r1
 171              	.LVL31:
 216:..\lvgl\lv_draw/lv_draw_arc.c **** 
 217:..\lvgl\lv_draw/lv_draw_arc.c ****     // Invert degree if it was X>Y octant, makes 0-45 into 90-45
 218:..\lvgl\lv_draw/lv_draw_arc.c ****     if(negflag & 0x10) degree = (90 - degree);
 172              		.loc 1 218 0
 173 0086 13F0100F 		tst	r3, #16
 174 008a 01D0     		beq	.L14
 175              		.loc 1 218 0 is_stmt 0 discriminator 1
 176 008c C0F15A00 		rsb	r0, r0, #90
 177              	.LVL32:
ARM GAS  C:\Users\d3bug\AppData\Local\Temp\cc6Fq6JX.s 			page 8


 178              	.L14:
 219:..\lvgl\lv_draw/lv_draw_arc.c **** 
 220:..\lvgl\lv_draw/lv_draw_arc.c ****     // 3. Degree is now 0-90 range for this quadrant,
 221:..\lvgl\lv_draw/lv_draw_arc.c ****     // need to invert it for whichever quadrant it was in
 222:..\lvgl\lv_draw/lv_draw_arc.c ****     if(negflag & 0x02) { // if -Y
 179              		.loc 1 222 0 is_stmt 1
 180 0090 13F0020F 		tst	r3, #2
 181 0094 07D0     		beq	.L15
 223:..\lvgl\lv_draw/lv_draw_arc.c ****         if(negflag & 0x01)   // if -Y -X
 182              		.loc 1 223 0
 183 0096 13F0010F 		tst	r3, #1
 184 009a 01D0     		beq	.L16
 224:..\lvgl\lv_draw/lv_draw_arc.c ****             degree = (180 + degree);
 185              		.loc 1 224 0
 186 009c B430     		adds	r0, r0, #180
 187              	.LVL33:
 188 009e 07E0     		b	.L17
 189              	.L16:
 225:..\lvgl\lv_draw/lv_draw_arc.c ****         else        // else is -Y +X
 226:..\lvgl\lv_draw/lv_draw_arc.c ****             degree = (180 - degree);
 190              		.loc 1 226 0
 191 00a0 C0F1B400 		rsb	r0, r0, #180
 192              	.LVL34:
 193 00a4 04E0     		b	.L17
 194              	.L15:
 227:..\lvgl\lv_draw/lv_draw_arc.c ****     } else { // else is +Y
 228:..\lvgl\lv_draw/lv_draw_arc.c ****         if(negflag & 0x01)   // if +Y -X
 195              		.loc 1 228 0
 196 00a6 13F0010F 		tst	r3, #1
 197 00aa 01D0     		beq	.L17
 229:..\lvgl\lv_draw/lv_draw_arc.c ****             degree = (360 - degree);
 198              		.loc 1 229 0
 199 00ac C0F5B470 		rsb	r0, r0, #360
 200              	.LVL35:
 201              	.L17:
 230:..\lvgl\lv_draw/lv_draw_arc.c ****     }
 231:..\lvgl\lv_draw/lv_draw_arc.c ****     return degree;
 232:..\lvgl\lv_draw/lv_draw_arc.c **** }
 202              		.loc 1 232 0
 203 00b0 80B2     		uxth	r0, r0
 204              	.LVL36:
 205 00b2 7047     		bx	lr
 206              		.cfi_endproc
 207              	.LFE13:
 208              		.size	fast_atan2, .-fast_atan2
 209              		.section	.text.deg_test_norm,"ax",%progbits
 210              		.align	2
 211              		.thumb
 212              		.thumb_func
 213              		.type	deg_test_norm, %function
 214              	deg_test_norm:
 215              	.LFB16:
 233:..\lvgl\lv_draw/lv_draw_arc.c **** 
 234:..\lvgl\lv_draw/lv_draw_arc.c **** /**********************
 235:..\lvgl\lv_draw/lv_draw_arc.c ****  *   STATIC FUNCTIONS
 236:..\lvgl\lv_draw/lv_draw_arc.c ****  **********************/
 237:..\lvgl\lv_draw/lv_draw_arc.c **** static void ver_line(lv_coord_t x, lv_coord_t y, const lv_area_t * mask, lv_coord_t len, lv_color_t
ARM GAS  C:\Users\d3bug\AppData\Local\Temp\cc6Fq6JX.s 			page 9


 238:..\lvgl\lv_draw/lv_draw_arc.c **** {
 239:..\lvgl\lv_draw/lv_draw_arc.c ****     lv_area_t area;
 240:..\lvgl\lv_draw/lv_draw_arc.c ****     lv_area_set(&area, x, y, x, y + len);
 241:..\lvgl\lv_draw/lv_draw_arc.c **** 
 242:..\lvgl\lv_draw/lv_draw_arc.c ****     fill_fp(&area, mask, color, opa);
 243:..\lvgl\lv_draw/lv_draw_arc.c **** }
 244:..\lvgl\lv_draw/lv_draw_arc.c **** 
 245:..\lvgl\lv_draw/lv_draw_arc.c **** static void hor_line(lv_coord_t x, lv_coord_t y, const lv_area_t * mask, lv_coord_t len, lv_color_t
 246:..\lvgl\lv_draw/lv_draw_arc.c **** {
 247:..\lvgl\lv_draw/lv_draw_arc.c ****     lv_area_t area;
 248:..\lvgl\lv_draw/lv_draw_arc.c ****     lv_area_set(&area, x, y, x + len, y);
 249:..\lvgl\lv_draw/lv_draw_arc.c **** 
 250:..\lvgl\lv_draw/lv_draw_arc.c ****     fill_fp(&area, mask, color, opa);
 251:..\lvgl\lv_draw/lv_draw_arc.c **** }
 252:..\lvgl\lv_draw/lv_draw_arc.c **** 
 253:..\lvgl\lv_draw/lv_draw_arc.c **** static bool deg_test_norm(uint16_t deg, uint16_t start, uint16_t end)
 254:..\lvgl\lv_draw/lv_draw_arc.c **** {
 216              		.loc 1 254 0
 217              		.cfi_startproc
 218              		@ args = 0, pretend = 0, frame = 0
 219              		@ frame_needed = 0, uses_anonymous_args = 0
 220              		@ link register save eliminated.
 221              	.LVL37:
 255:..\lvgl\lv_draw/lv_draw_arc.c ****     if(deg >= start && deg <= end) return true;
 222              		.loc 1 255 0
 223 0000 8842     		cmp	r0, r1
 224 0002 03D3     		bcc	.L23
 225              		.loc 1 255 0 is_stmt 0 discriminator 1
 226 0004 9042     		cmp	r0, r2
 227 0006 03D9     		bls	.L24
 256:..\lvgl\lv_draw/lv_draw_arc.c ****     else return false;
 228              		.loc 1 256 0 is_stmt 1
 229 0008 0020     		movs	r0, #0
 230              	.LVL38:
 231 000a 7047     		bx	lr
 232              	.LVL39:
 233              	.L23:
 234 000c 0020     		movs	r0, #0
 235              	.LVL40:
 236 000e 7047     		bx	lr
 237              	.LVL41:
 238              	.L24:
 255:..\lvgl\lv_draw/lv_draw_arc.c ****     if(deg >= start && deg <= end) return true;
 239              		.loc 1 255 0
 240 0010 0120     		movs	r0, #1
 241              	.LVL42:
 257:..\lvgl\lv_draw/lv_draw_arc.c **** }
 242              		.loc 1 257 0
 243 0012 7047     		bx	lr
 244              		.cfi_endproc
 245              	.LFE16:
 246              		.size	deg_test_norm, .-deg_test_norm
 247              		.section	.text.deg_test_inv,"ax",%progbits
 248              		.align	2
 249              		.thumb
 250              		.thumb_func
 251              		.type	deg_test_inv, %function
ARM GAS  C:\Users\d3bug\AppData\Local\Temp\cc6Fq6JX.s 			page 10


 252              	deg_test_inv:
 253              	.LFB17:
 258:..\lvgl\lv_draw/lv_draw_arc.c **** 
 259:..\lvgl\lv_draw/lv_draw_arc.c **** static bool deg_test_inv(uint16_t deg, uint16_t start, uint16_t end)
 260:..\lvgl\lv_draw/lv_draw_arc.c **** {
 254              		.loc 1 260 0
 255              		.cfi_startproc
 256              		@ args = 0, pretend = 0, frame = 0
 257              		@ frame_needed = 0, uses_anonymous_args = 0
 258              		@ link register save eliminated.
 259              	.LVL43:
 261:..\lvgl\lv_draw/lv_draw_arc.c ****     if(deg >= start || deg <= end) {
 260              		.loc 1 261 0
 261 0000 8842     		cmp	r0, r1
 262 0002 03D2     		bcs	.L27
 263              		.loc 1 261 0 is_stmt 0 discriminator 1
 264 0004 9042     		cmp	r0, r2
 265 0006 03D8     		bhi	.L28
 262:..\lvgl\lv_draw/lv_draw_arc.c ****         return true;
 266              		.loc 1 262 0 is_stmt 1
 267 0008 0120     		movs	r0, #1
 268              	.LVL44:
 269 000a 7047     		bx	lr
 270              	.LVL45:
 271              	.L27:
 272 000c 0120     		movs	r0, #1
 273              	.LVL46:
 274 000e 7047     		bx	lr
 275              	.LVL47:
 276              	.L28:
 263:..\lvgl\lv_draw/lv_draw_arc.c ****     } else return false;
 277              		.loc 1 263 0
 278 0010 0020     		movs	r0, #0
 279              	.LVL48:
 264:..\lvgl\lv_draw/lv_draw_arc.c **** }
 280              		.loc 1 264 0
 281 0012 7047     		bx	lr
 282              		.cfi_endproc
 283              	.LFE17:
 284              		.size	deg_test_inv, .-deg_test_inv
 285              		.section	.text.ver_line,"ax",%progbits
 286              		.align	2
 287              		.thumb
 288              		.thumb_func
 289              		.type	ver_line, %function
 290              	ver_line:
 291              	.LFB14:
 238:..\lvgl\lv_draw/lv_draw_arc.c ****     lv_area_t area;
 292              		.loc 1 238 0
 293              		.cfi_startproc
 294              		@ args = 8, pretend = 0, frame = 8
 295              		@ frame_needed = 0, uses_anonymous_args = 0
 296              	.LVL49:
 297 0000 70B5     		push	{r4, r5, r6, lr}
 298              		.cfi_def_cfa_offset 16
 299              		.cfi_offset 4, -16
 300              		.cfi_offset 5, -12
ARM GAS  C:\Users\d3bug\AppData\Local\Temp\cc6Fq6JX.s 			page 11


 301              		.cfi_offset 6, -8
 302              		.cfi_offset 14, -4
 303 0002 84B0     		sub	sp, sp, #16
 304              		.cfi_def_cfa_offset 32
 305 0004 1546     		mov	r5, r2
 306 0006 9DF82060 		ldrb	r6, [sp, #32]	@ zero_extendqisi2
 307              	.LVL50:
 240:..\lvgl\lv_draw/lv_draw_arc.c **** 
 308              		.loc 1 240 0
 309 000a 0B44     		add	r3, r3, r1
 310              	.LVL51:
 311 000c 1BB2     		sxth	r3, r3
 312 000e 0093     		str	r3, [sp]
 313 0010 0346     		mov	r3, r0
 314 0012 0A46     		mov	r2, r1
 315              	.LVL52:
 316 0014 0146     		mov	r1, r0
 317              	.LVL53:
 318 0016 02A8     		add	r0, sp, #8
 319              	.LVL54:
 320 0018 FFF7FEFF 		bl	lv_area_set
 321              	.LVL55:
 242:..\lvgl\lv_draw/lv_draw_arc.c **** }
 322              		.loc 1 242 0
 323 001c 044B     		ldr	r3, .L31
 324 001e 1C68     		ldr	r4, [r3]
 325 0020 9DF82430 		ldrb	r3, [sp, #36]	@ zero_extendqisi2
 326              	.LVL56:
 327 0024 3246     		mov	r2, r6
 328 0026 2946     		mov	r1, r5
 329 0028 02A8     		add	r0, sp, #8
 330 002a A047     		blx	r4
 331              	.LVL57:
 243:..\lvgl\lv_draw/lv_draw_arc.c **** 
 332              		.loc 1 243 0
 333 002c 04B0     		add	sp, sp, #16
 334              		.cfi_def_cfa_offset 16
 335              		@ sp needed
 336 002e 70BD     		pop	{r4, r5, r6, pc}
 337              	.LVL58:
 338              	.L32:
 339              		.align	2
 340              	.L31:
 341 0030 00000000 		.word	fill_fp
 342              		.cfi_endproc
 343              	.LFE14:
 344              		.size	ver_line, .-ver_line
 345              		.section	.text.hor_line,"ax",%progbits
 346              		.align	2
 347              		.thumb
 348              		.thumb_func
 349              		.type	hor_line, %function
 350              	hor_line:
 351              	.LFB15:
 246:..\lvgl\lv_draw/lv_draw_arc.c ****     lv_area_t area;
 352              		.loc 1 246 0
 353              		.cfi_startproc
ARM GAS  C:\Users\d3bug\AppData\Local\Temp\cc6Fq6JX.s 			page 12


 354              		@ args = 8, pretend = 0, frame = 8
 355              		@ frame_needed = 0, uses_anonymous_args = 0
 356              	.LVL59:
 357 0000 70B5     		push	{r4, r5, r6, lr}
 358              		.cfi_def_cfa_offset 16
 359              		.cfi_offset 4, -16
 360              		.cfi_offset 5, -12
 361              		.cfi_offset 6, -8
 362              		.cfi_offset 14, -4
 363 0002 84B0     		sub	sp, sp, #16
 364              		.cfi_def_cfa_offset 32
 365 0004 1546     		mov	r5, r2
 366 0006 9DF82060 		ldrb	r6, [sp, #32]	@ zero_extendqisi2
 367              	.LVL60:
 248:..\lvgl\lv_draw/lv_draw_arc.c **** 
 368              		.loc 1 248 0
 369 000a 0344     		add	r3, r3, r0
 370              	.LVL61:
 371 000c 0091     		str	r1, [sp]
 372 000e 1BB2     		sxth	r3, r3
 373 0010 0A46     		mov	r2, r1
 374              	.LVL62:
 375 0012 0146     		mov	r1, r0
 376              	.LVL63:
 377 0014 02A8     		add	r0, sp, #8
 378              	.LVL64:
 379 0016 FFF7FEFF 		bl	lv_area_set
 380              	.LVL65:
 250:..\lvgl\lv_draw/lv_draw_arc.c **** }
 381              		.loc 1 250 0
 382 001a 054B     		ldr	r3, .L35
 383 001c 1C68     		ldr	r4, [r3]
 384 001e 9DF82430 		ldrb	r3, [sp, #36]	@ zero_extendqisi2
 385              	.LVL66:
 386 0022 3246     		mov	r2, r6
 387 0024 2946     		mov	r1, r5
 388 0026 02A8     		add	r0, sp, #8
 389 0028 A047     		blx	r4
 390              	.LVL67:
 251:..\lvgl\lv_draw/lv_draw_arc.c **** 
 391              		.loc 1 251 0
 392 002a 04B0     		add	sp, sp, #16
 393              		.cfi_def_cfa_offset 16
 394              		@ sp needed
 395 002c 70BD     		pop	{r4, r5, r6, pc}
 396              	.LVL68:
 397              	.L36:
 398 002e 00BF     		.align	2
 399              	.L35:
 400 0030 00000000 		.word	fill_fp
 401              		.cfi_endproc
 402              	.LFE15:
 403              		.size	hor_line, .-hor_line
 404              		.section	.text.lv_draw_arc,"ax",%progbits
 405              		.align	2
 406              		.global	lv_draw_arc
 407              		.thumb
ARM GAS  C:\Users\d3bug\AppData\Local\Temp\cc6Fq6JX.s 			page 13


 408              		.thumb_func
 409              		.type	lv_draw_arc, %function
 410              	lv_draw_arc:
 411              	.LFB12:
  54:..\lvgl\lv_draw/lv_draw_arc.c ****     lv_coord_t thickness = style->line.width;
 412              		.loc 1 54 0
 413              		.cfi_startproc
 414              		@ args = 16, pretend = 0, frame = 48
 415              		@ frame_needed = 0, uses_anonymous_args = 0
 416              	.LVL69:
 417 0000 2DE9F04F 		push	{r4, r5, r6, r7, r8, r9, r10, fp, lr}
 418              		.cfi_def_cfa_offset 36
 419              		.cfi_offset 4, -36
 420              		.cfi_offset 5, -32
 421              		.cfi_offset 6, -28
 422              		.cfi_offset 7, -24
 423              		.cfi_offset 8, -20
 424              		.cfi_offset 9, -16
 425              		.cfi_offset 10, -12
 426              		.cfi_offset 11, -8
 427              		.cfi_offset 14, -4
 428 0004 8FB0     		sub	sp, sp, #60
 429              		.cfi_def_cfa_offset 96
 430 0006 8346     		mov	fp, r0
 431 0008 0691     		str	r1, [sp, #24]
 432 000a 1446     		mov	r4, r2
 433 000c 0793     		str	r3, [sp, #28]
 434 000e BDF86030 		ldrh	r3, [sp, #96]
 435              	.LVL70:
 436 0012 0393     		str	r3, [sp, #12]
 437 0014 BDF86430 		ldrh	r3, [sp, #100]
 438 0018 0493     		str	r3, [sp, #16]
 439 001a 1A9B     		ldr	r3, [sp, #104]
 440 001c 9DF86C20 		ldrb	r2, [sp, #108]	@ zero_extendqisi2
 441              	.LVL71:
  55:..\lvgl\lv_draw/lv_draw_arc.c ****     if(thickness > radius) thickness = radius;
 442              		.loc 1 55 0
 443 0020 B3F93250 		ldrsh	r5, [r3, #50]
 444              	.LVL72:
  56:..\lvgl\lv_draw/lv_draw_arc.c **** 
 445              		.loc 1 56 0
 446 0024 A542     		cmp	r5, r4
 447 0026 00DD     		ble	.L38
  56:..\lvgl\lv_draw/lv_draw_arc.c **** 
 448              		.loc 1 56 0 is_stmt 0 discriminator 1
 449 0028 25B2     		sxth	r5, r4
 450              	.LVL73:
 451              	.L38:
  58:..\lvgl\lv_draw/lv_draw_arc.c ****     lv_coord_t r_in = r_out - thickness;
 452              		.loc 1 58 0 is_stmt 1
 453 002a 0FFA84F9 		sxth	r9, r4
 454              	.LVL74:
  59:..\lvgl\lv_draw/lv_draw_arc.c ****     int16_t deg_base;
 455              		.loc 1 59 0
 456 002e ADB2     		uxth	r5, r5
 457 0030 671B     		subs	r7, r4, r5
 458 0032 BFB2     		uxth	r7, r7
ARM GAS  C:\Users\d3bug\AppData\Local\Temp\cc6Fq6JX.s 			page 14


 459 0034 0FFA87FA 		sxth	r10, r7
 460              	.LVL75:
  65:..\lvgl\lv_draw/lv_draw_arc.c ****     lv_opa_t opa = opa_scale == LV_OPA_COVER ? style->body.opa : (uint16_t)((uint16_t) style->body.
 461              		.loc 1 65 0
 462 0038 93F83060 		ldrb	r6, [r3, #48]	@ zero_extendqisi2
 463 003c 8DF82360 		strb	r6, [sp, #35]
  66:..\lvgl\lv_draw/lv_draw_arc.c **** 
 464              		.loc 1 66 0
 465 0040 FF2A     		cmp	r2, #255
 466 0042 02D1     		bne	.L39
  66:..\lvgl\lv_draw/lv_draw_arc.c **** 
 467              		.loc 1 66 0 is_stmt 0 discriminator 1
 468 0044 9B79     		ldrb	r3, [r3, #6]	@ zero_extendqisi2
 469 0046 0593     		str	r3, [sp, #20]
 470 0048 05E0     		b	.L40
 471              	.L39:
  66:..\lvgl\lv_draw/lv_draw_arc.c **** 
 472              		.loc 1 66 0 discriminator 2
 473 004a 9B79     		ldrb	r3, [r3, #6]	@ zero_extendqisi2
 474 004c 03FB02F3 		mul	r3, r3, r2
 475 0050 C3F30723 		ubfx	r3, r3, #8, #8
 476 0054 0593     		str	r3, [sp, #20]
 477              	.L40:
 478              	.LVL76:
  70:..\lvgl\lv_draw/lv_draw_arc.c ****     else deg_test = deg_test_inv;
 479              		.loc 1 70 0 is_stmt 1 discriminator 4
 480 0056 039B     		ldr	r3, [sp, #12]
 481 0058 049A     		ldr	r2, [sp, #16]
 482 005a 9342     		cmp	r3, r2
 483 005c 02D8     		bhi	.L68
  70:..\lvgl\lv_draw/lv_draw_arc.c ****     else deg_test = deg_test_inv;
 484              		.loc 1 70 0 is_stmt 0
 485 005e DFF8F882 		ldr	r8, .L70
 486 0062 01E0     		b	.L41
 487              	.L68:
  71:..\lvgl\lv_draw/lv_draw_arc.c **** 
 488              		.loc 1 71 0 is_stmt 1
 489 0064 DFF8F482 		ldr	r8, .L70+4
 490              	.L41:
 491              	.LVL77:
  73:..\lvgl\lv_draw/lv_draw_arc.c ****     if(deg_test(90, start_angle, end_angle))   hor_line(center_x + r_in, center_y,  mask, thickness
 492              		.loc 1 73 0
 493 0068 049A     		ldr	r2, [sp, #16]
 494 006a 0399     		ldr	r1, [sp, #12]
 495              	.LVL78:
 496 006c 4FF48770 		mov	r0, #270
 497              	.LVL79:
 498 0070 C047     		blx	r8
 499              	.LVL80:
 500 0072 68B1     		cbz	r0, .L42
  73:..\lvgl\lv_draw/lv_draw_arc.c ****     if(deg_test(90, start_angle, end_angle))   hor_line(center_x + r_in, center_y,  mask, thickness
 501              		.loc 1 73 0 is_stmt 0 discriminator 1
 502 0074 6B1E     		subs	r3, r5, #1
 503 0076 C4EB0B00 		rsb	r0, r4, fp
 504 007a 0130     		adds	r0, r0, #1
 505 007c 059A     		ldr	r2, [sp, #20]
 506 007e 0192     		str	r2, [sp, #4]
ARM GAS  C:\Users\d3bug\AppData\Local\Temp\cc6Fq6JX.s 			page 15


 507 0080 8DF80060 		strb	r6, [sp]
 508 0084 1BB2     		sxth	r3, r3
 509 0086 079A     		ldr	r2, [sp, #28]
 510 0088 0699     		ldr	r1, [sp, #24]
 511 008a 00B2     		sxth	r0, r0
 512 008c FFF7FEFF 		bl	hor_line
 513              	.LVL81:
 514              	.L42:
  74:..\lvgl\lv_draw/lv_draw_arc.c ****     if(deg_test(180, start_angle, end_angle))  ver_line(center_x, center_y - r_out + 1,  mask, thic
 515              		.loc 1 74 0 is_stmt 1
 516 0090 049A     		ldr	r2, [sp, #16]
 517 0092 0399     		ldr	r1, [sp, #12]
 518 0094 5A20     		movs	r0, #90
 519 0096 C047     		blx	r8
 520              	.LVL82:
 521 0098 60B1     		cbz	r0, .L43
  74:..\lvgl\lv_draw/lv_draw_arc.c ****     if(deg_test(180, start_angle, end_angle))  ver_line(center_x, center_y - r_out + 1,  mask, thic
 522              		.loc 1 74 0 is_stmt 0 discriminator 1
 523 009a 6B1E     		subs	r3, r5, #1
 524 009c 07EB0B00 		add	r0, r7, fp
 525 00a0 059A     		ldr	r2, [sp, #20]
 526 00a2 0192     		str	r2, [sp, #4]
 527 00a4 8DF80060 		strb	r6, [sp]
 528 00a8 1BB2     		sxth	r3, r3
 529 00aa 079A     		ldr	r2, [sp, #28]
 530 00ac 0699     		ldr	r1, [sp, #24]
 531 00ae 00B2     		sxth	r0, r0
 532 00b0 FFF7FEFF 		bl	hor_line
 533              	.LVL83:
 534              	.L43:
  75:..\lvgl\lv_draw/lv_draw_arc.c ****     if(deg_test(0, start_angle, end_angle))    ver_line(center_x, center_y + r_in,  mask, thickness
 535              		.loc 1 75 0 is_stmt 1
 536 00b4 049A     		ldr	r2, [sp, #16]
 537 00b6 0399     		ldr	r1, [sp, #12]
 538 00b8 B420     		movs	r0, #180
 539 00ba C047     		blx	r8
 540              	.LVL84:
 541 00bc 68B1     		cbz	r0, .L44
  75:..\lvgl\lv_draw/lv_draw_arc.c ****     if(deg_test(0, start_angle, end_angle))    ver_line(center_x, center_y + r_in,  mask, thickness
 542              		.loc 1 75 0 is_stmt 0 discriminator 1
 543 00be 6B1E     		subs	r3, r5, #1
 544 00c0 069A     		ldr	r2, [sp, #24]
 545 00c2 111B     		subs	r1, r2, r4
 546 00c4 0131     		adds	r1, r1, #1
 547 00c6 059A     		ldr	r2, [sp, #20]
 548 00c8 0192     		str	r2, [sp, #4]
 549 00ca 8DF80060 		strb	r6, [sp]
 550 00ce 1BB2     		sxth	r3, r3
 551 00d0 079A     		ldr	r2, [sp, #28]
 552 00d2 09B2     		sxth	r1, r1
 553 00d4 5846     		mov	r0, fp
 554 00d6 FFF7FEFF 		bl	ver_line
 555              	.LVL85:
 556              	.L44:
  76:..\lvgl\lv_draw/lv_draw_arc.c **** 
 557              		.loc 1 76 0 is_stmt 1
 558 00da 049A     		ldr	r2, [sp, #16]
ARM GAS  C:\Users\d3bug\AppData\Local\Temp\cc6Fq6JX.s 			page 16


 559 00dc 0399     		ldr	r1, [sp, #12]
 560 00de 0020     		movs	r0, #0
 561 00e0 C047     		blx	r8
 562              	.LVL86:
 563 00e2 60B1     		cbz	r0, .L45
  76:..\lvgl\lv_draw/lv_draw_arc.c **** 
 564              		.loc 1 76 0 is_stmt 0 discriminator 1
 565 00e4 6B1E     		subs	r3, r5, #1
 566 00e6 069A     		ldr	r2, [sp, #24]
 567 00e8 B918     		adds	r1, r7, r2
 568 00ea 059A     		ldr	r2, [sp, #20]
 569 00ec 0192     		str	r2, [sp, #4]
 570 00ee 8DF80060 		strb	r6, [sp]
 571 00f2 1BB2     		sxth	r3, r3
 572 00f4 079A     		ldr	r2, [sp, #28]
 573 00f6 09B2     		sxth	r1, r1
 574 00f8 5846     		mov	r0, fp
 575 00fa FFF7FEFF 		bl	ver_line
 576              	.LVL87:
 577              	.L45:
  78:..\lvgl\lv_draw/lv_draw_arc.c ****     uint32_t r_in_sqr = r_in * r_in;
 578              		.loc 1 78 0 is_stmt 1
 579 00fe 09FB09F9 		mul	r9, r9, r9
 580              	.LVL88:
  79:..\lvgl\lv_draw/lv_draw_arc.c ****     int16_t xi;
 581              		.loc 1 79 0
 582 0102 0AFB0AFA 		mul	r10, r10, r10
 583              	.LVL89:
  82:..\lvgl\lv_draw/lv_draw_arc.c ****         x_start[0] = LV_COORD_MIN;
 584              		.loc 1 82 0
 585 0106 6442     		negs	r4, r4
 586              	.LVL90:
 587 0108 23B2     		sxth	r3, r4
 588 010a 0993     		str	r3, [sp, #36]
 589              	.LVL91:
 590 010c 1E46     		mov	r6, r3
 591 010e 1CE1     		b	.L46
 592              	.LVL92:
 593              	.L67:
  83:..\lvgl\lv_draw/lv_draw_arc.c ****         x_start[1] = LV_COORD_MIN;
 594              		.loc 1 83 0
 595 0110 4FF44043 		mov	r3, #49152
 596 0114 ADF83030 		strh	r3, [sp, #48]	@ movhi
  84:..\lvgl\lv_draw/lv_draw_arc.c ****         x_start[2] = LV_COORD_MIN;
 597              		.loc 1 84 0
 598 0118 ADF83230 		strh	r3, [sp, #50]	@ movhi
  85:..\lvgl\lv_draw/lv_draw_arc.c ****         x_start[3] = LV_COORD_MIN;
 599              		.loc 1 85 0
 600 011c ADF83430 		strh	r3, [sp, #52]	@ movhi
  86:..\lvgl\lv_draw/lv_draw_arc.c ****         x_end[0] = LV_COORD_MIN;
 601              		.loc 1 86 0
 602 0120 ADF83630 		strh	r3, [sp, #54]	@ movhi
  87:..\lvgl\lv_draw/lv_draw_arc.c ****         x_end[1] = LV_COORD_MIN;
 603              		.loc 1 87 0
 604 0124 ADF82830 		strh	r3, [sp, #40]	@ movhi
  88:..\lvgl\lv_draw/lv_draw_arc.c ****         x_end[2] = LV_COORD_MIN;
 605              		.loc 1 88 0
ARM GAS  C:\Users\d3bug\AppData\Local\Temp\cc6Fq6JX.s 			page 17


 606 0128 ADF82A30 		strh	r3, [sp, #42]	@ movhi
  89:..\lvgl\lv_draw/lv_draw_arc.c ****         x_end[3] = LV_COORD_MIN;
 607              		.loc 1 89 0
 608 012c ADF82C30 		strh	r3, [sp, #44]	@ movhi
  90:..\lvgl\lv_draw/lv_draw_arc.c ****         for(xi = -r_out; xi < 0; xi++) {
 609              		.loc 1 90 0
 610 0130 ADF82E30 		strh	r3, [sp, #46]	@ movhi
 611              	.LVL93:
  91:..\lvgl\lv_draw/lv_draw_arc.c **** 
 612              		.loc 1 91 0
 613 0134 099C     		ldr	r4, [sp, #36]
 614 0136 4746     		mov	r7, r8
 615 0138 7CE0     		b	.L47
 616              	.LVL94:
 617              	.L58:
 618              	.LBB2:
  93:..\lvgl\lv_draw/lv_draw_arc.c ****             if(r_act_sqr > r_out_sqr) continue;
 619              		.loc 1 93 0
 620 013a 06FB06F5 		mul	r5, r6, r6
 621 013e 04FB0455 		mla	r5, r4, r4, r5
 622              	.LVL95:
  94:..\lvgl\lv_draw/lv_draw_arc.c **** 
 623              		.loc 1 94 0
 624 0142 A945     		cmp	r9, r5
 625 0144 74D3     		bcc	.L48
  96:..\lvgl\lv_draw/lv_draw_arc.c **** 
 626              		.loc 1 96 0
 627 0146 3146     		mov	r1, r6
 628 0148 2046     		mov	r0, r4
 629 014a FFF7FEFF 		bl	fast_atan2
 630              	.LVL96:
 631 014e A0F1B408 		sub	r8, r0, #180
 632 0152 1FFA88F8 		uxth	r8, r8
 633              	.LVL97:
  99:..\lvgl\lv_draw/lv_draw_arc.c ****                 if(x_start[0] == LV_COORD_MIN) x_start[0] = xi;
 634              		.loc 1 99 0
 635 0156 049A     		ldr	r2, [sp, #16]
 636 0158 0399     		ldr	r1, [sp, #12]
 637 015a B847     		blx	r7
 638              	.LVL98:
 639 015c 38B1     		cbz	r0, .L49
 100:..\lvgl\lv_draw/lv_draw_arc.c ****             } else if(x_start[0] != LV_COORD_MIN && x_end[0] == LV_COORD_MIN) {
 640              		.loc 1 100 0
 641 015e BDF93030 		ldrsh	r3, [sp, #48]
 642 0162 13F5804F 		cmn	r3, #16384
 643 0166 0FD1     		bne	.L50
 100:..\lvgl\lv_draw/lv_draw_arc.c ****             } else if(x_start[0] != LV_COORD_MIN && x_end[0] == LV_COORD_MIN) {
 644              		.loc 1 100 0 is_stmt 0 discriminator 1
 645 0168 ADF83040 		strh	r4, [sp, #48]	@ movhi
 646 016c 0CE0     		b	.L50
 647              	.L49:
 101:..\lvgl\lv_draw/lv_draw_arc.c ****                 x_end[0] = xi - 1;
 648              		.loc 1 101 0 is_stmt 1
 649 016e BDF93030 		ldrsh	r3, [sp, #48]
 650 0172 13F5804F 		cmn	r3, #16384
 651 0176 07D0     		beq	.L50
 101:..\lvgl\lv_draw/lv_draw_arc.c ****                 x_end[0] = xi - 1;
ARM GAS  C:\Users\d3bug\AppData\Local\Temp\cc6Fq6JX.s 			page 18


 652              		.loc 1 101 0 is_stmt 0 discriminator 1
 653 0178 BDF92830 		ldrsh	r3, [sp, #40]
 654 017c 13F5804F 		cmn	r3, #16384
 655 0180 02D1     		bne	.L50
 102:..\lvgl\lv_draw/lv_draw_arc.c ****             }
 656              		.loc 1 102 0 is_stmt 1
 657 0182 631E     		subs	r3, r4, #1
 658 0184 ADF82830 		strh	r3, [sp, #40]	@ movhi
 659              	.L50:
 105:..\lvgl\lv_draw/lv_draw_arc.c ****             if(deg_test(deg, start_angle, end_angle)) {
 660              		.loc 1 105 0
 661 0188 C8F5B470 		rsb	r0, r8, #360
 106:..\lvgl\lv_draw/lv_draw_arc.c ****                 if(x_start[1] == LV_COORD_MIN) x_start[1] = xi;
 662              		.loc 1 106 0
 663 018c 049A     		ldr	r2, [sp, #16]
 664 018e 0399     		ldr	r1, [sp, #12]
 665 0190 80B2     		uxth	r0, r0
 666 0192 B847     		blx	r7
 667              	.LVL99:
 668 0194 38B1     		cbz	r0, .L51
 107:..\lvgl\lv_draw/lv_draw_arc.c ****             } else if(x_start[1] != LV_COORD_MIN && x_end[1] == LV_COORD_MIN) {
 669              		.loc 1 107 0
 670 0196 BDF93230 		ldrsh	r3, [sp, #50]
 671 019a 13F5804F 		cmn	r3, #16384
 672 019e 0FD1     		bne	.L52
 107:..\lvgl\lv_draw/lv_draw_arc.c ****             } else if(x_start[1] != LV_COORD_MIN && x_end[1] == LV_COORD_MIN) {
 673              		.loc 1 107 0 is_stmt 0 discriminator 1
 674 01a0 ADF83240 		strh	r4, [sp, #50]	@ movhi
 675 01a4 0CE0     		b	.L52
 676              	.L51:
 108:..\lvgl\lv_draw/lv_draw_arc.c ****                 x_end[1] = xi - 1;
 677              		.loc 1 108 0 is_stmt 1
 678 01a6 BDF93230 		ldrsh	r3, [sp, #50]
 679 01aa 13F5804F 		cmn	r3, #16384
 680 01ae 07D0     		beq	.L52
 108:..\lvgl\lv_draw/lv_draw_arc.c ****                 x_end[1] = xi - 1;
 681              		.loc 1 108 0 is_stmt 0 discriminator 1
 682 01b0 BDF92A30 		ldrsh	r3, [sp, #42]
 683 01b4 13F5804F 		cmn	r3, #16384
 684 01b8 02D1     		bne	.L52
 109:..\lvgl\lv_draw/lv_draw_arc.c ****             }
 685              		.loc 1 109 0 is_stmt 1
 686 01ba 631E     		subs	r3, r4, #1
 687 01bc ADF82A30 		strh	r3, [sp, #42]	@ movhi
 688              	.L52:
 112:..\lvgl\lv_draw/lv_draw_arc.c ****             if(deg_test(deg, start_angle, end_angle)) {
 689              		.loc 1 112 0
 690 01c0 C8F1B400 		rsb	r0, r8, #180
 113:..\lvgl\lv_draw/lv_draw_arc.c ****                 if(x_start[2] == LV_COORD_MIN) x_start[2] = xi;
 691              		.loc 1 113 0
 692 01c4 049A     		ldr	r2, [sp, #16]
 693 01c6 0399     		ldr	r1, [sp, #12]
 694 01c8 80B2     		uxth	r0, r0
 695 01ca B847     		blx	r7
 696              	.LVL100:
 697 01cc 38B1     		cbz	r0, .L53
 114:..\lvgl\lv_draw/lv_draw_arc.c ****             } else if(x_start[2] != LV_COORD_MIN && x_end[2] == LV_COORD_MIN) {
ARM GAS  C:\Users\d3bug\AppData\Local\Temp\cc6Fq6JX.s 			page 19


 698              		.loc 1 114 0
 699 01ce BDF93430 		ldrsh	r3, [sp, #52]
 700 01d2 13F5804F 		cmn	r3, #16384
 701 01d6 0FD1     		bne	.L54
 114:..\lvgl\lv_draw/lv_draw_arc.c ****             } else if(x_start[2] != LV_COORD_MIN && x_end[2] == LV_COORD_MIN) {
 702              		.loc 1 114 0 is_stmt 0 discriminator 1
 703 01d8 ADF83440 		strh	r4, [sp, #52]	@ movhi
 704 01dc 0CE0     		b	.L54
 705              	.L53:
 115:..\lvgl\lv_draw/lv_draw_arc.c ****                 x_end[2] = xi - 1;
 706              		.loc 1 115 0 is_stmt 1
 707 01de BDF93430 		ldrsh	r3, [sp, #52]
 708 01e2 13F5804F 		cmn	r3, #16384
 709 01e6 07D0     		beq	.L54
 115:..\lvgl\lv_draw/lv_draw_arc.c ****                 x_end[2] = xi - 1;
 710              		.loc 1 115 0 is_stmt 0 discriminator 1
 711 01e8 BDF92C30 		ldrsh	r3, [sp, #44]
 712 01ec 13F5804F 		cmn	r3, #16384
 713 01f0 02D1     		bne	.L54
 116:..\lvgl\lv_draw/lv_draw_arc.c ****             }
 714              		.loc 1 116 0 is_stmt 1
 715 01f2 631E     		subs	r3, r4, #1
 716 01f4 ADF82C30 		strh	r3, [sp, #44]	@ movhi
 717              	.L54:
 718              	.LVL101:
 120:..\lvgl\lv_draw/lv_draw_arc.c ****                 if(x_start[3] == LV_COORD_MIN) x_start[3] = xi;
 719              		.loc 1 120 0
 720 01f8 049A     		ldr	r2, [sp, #16]
 721 01fa 0399     		ldr	r1, [sp, #12]
 722 01fc 4046     		mov	r0, r8
 723 01fe B847     		blx	r7
 724              	.LVL102:
 725 0200 38B1     		cbz	r0, .L55
 121:..\lvgl\lv_draw/lv_draw_arc.c ****             } else if(x_start[3] != LV_COORD_MIN && x_end[3] == LV_COORD_MIN) {
 726              		.loc 1 121 0
 727 0202 BDF93630 		ldrsh	r3, [sp, #54]
 728 0206 13F5804F 		cmn	r3, #16384
 729 020a 0FD1     		bne	.L56
 121:..\lvgl\lv_draw/lv_draw_arc.c ****             } else if(x_start[3] != LV_COORD_MIN && x_end[3] == LV_COORD_MIN) {
 730              		.loc 1 121 0 is_stmt 0 discriminator 1
 731 020c ADF83640 		strh	r4, [sp, #54]	@ movhi
 732 0210 0CE0     		b	.L56
 733              	.L55:
 122:..\lvgl\lv_draw/lv_draw_arc.c ****                 x_end[3] = xi - 1;
 734              		.loc 1 122 0 is_stmt 1
 735 0212 BDF93630 		ldrsh	r3, [sp, #54]
 736 0216 13F5804F 		cmn	r3, #16384
 737 021a 07D0     		beq	.L56
 122:..\lvgl\lv_draw/lv_draw_arc.c ****                 x_end[3] = xi - 1;
 738              		.loc 1 122 0 is_stmt 0 discriminator 1
 739 021c BDF92E30 		ldrsh	r3, [sp, #46]
 740 0220 13F5804F 		cmn	r3, #16384
 741 0224 02D1     		bne	.L56
 123:..\lvgl\lv_draw/lv_draw_arc.c ****             }
 742              		.loc 1 123 0 is_stmt 1
 743 0226 631E     		subs	r3, r4, #1
 744 0228 ADF82E30 		strh	r3, [sp, #46]	@ movhi
ARM GAS  C:\Users\d3bug\AppData\Local\Temp\cc6Fq6JX.s 			page 20


 745              	.L56:
 126:..\lvgl\lv_draw/lv_draw_arc.c ****         }
 746              		.loc 1 126 0
 747 022c AA45     		cmp	r10, r5
 748 022e 03D8     		bhi	.L57
 749              	.LVL103:
 750              	.L48:
 751              	.LBE2:
  91:..\lvgl\lv_draw/lv_draw_arc.c **** 
 752              		.loc 1 91 0 discriminator 2
 753 0230 0134     		adds	r4, r4, #1
 754              	.LVL104:
 755 0232 24B2     		sxth	r4, r4
 756              	.LVL105:
 757              	.L47:
  91:..\lvgl\lv_draw/lv_draw_arc.c **** 
 758              		.loc 1 91 0 is_stmt 0 discriminator 1
 759 0234 002C     		cmp	r4, #0
 760 0236 80DB     		blt	.L58
 761              	.L57:
 762 0238 B846     		mov	r8, r7
 130:..\lvgl\lv_draw/lv_draw_arc.c ****             if(x_end[0] == LV_COORD_MIN) x_end[0] = xi - 1;
 763              		.loc 1 130 0 is_stmt 1
 764 023a BDF93030 		ldrsh	r3, [sp, #48]
 765 023e 13F5804F 		cmn	r3, #16384
 766 0242 1AD0     		beq	.L59
 131:..\lvgl\lv_draw/lv_draw_arc.c ****             hor_line(center_x + x_start[0], center_y + yi, mask, x_end[0] - x_start[0], color, opa)
 767              		.loc 1 131 0
 768 0244 BDF92820 		ldrsh	r2, [sp, #40]
 769 0248 12F5804F 		cmn	r2, #16384
 770 024c 02D1     		bne	.L60
 131:..\lvgl\lv_draw/lv_draw_arc.c ****             hor_line(center_x + x_start[0], center_y + yi, mask, x_end[0] - x_start[0], color, opa)
 771              		.loc 1 131 0 is_stmt 0 discriminator 1
 772 024e 621E     		subs	r2, r4, #1
 773 0250 ADF82820 		strh	r2, [sp, #40]	@ movhi
 774              	.L60:
 132:..\lvgl\lv_draw/lv_draw_arc.c ****         }
 775              		.loc 1 132 0 is_stmt 1
 776 0254 98B2     		uxth	r0, r3
 777 0256 BDF92830 		ldrsh	r3, [sp, #40]
 778 025a 1B1A     		subs	r3, r3, r0
 779 025c 069A     		ldr	r2, [sp, #24]
 780 025e 9119     		adds	r1, r2, r6
 781 0260 5844     		add	r0, r0, fp
 782 0262 059A     		ldr	r2, [sp, #20]
 783 0264 0192     		str	r2, [sp, #4]
 784 0266 9DF82320 		ldrb	r2, [sp, #35]	@ zero_extendqisi2
 785              	.LVL106:
 786 026a 8DF80020 		strb	r2, [sp]
 787 026e 1BB2     		sxth	r3, r3
 788 0270 079A     		ldr	r2, [sp, #28]
 789              	.LVL107:
 790 0272 09B2     		sxth	r1, r1
 791 0274 00B2     		sxth	r0, r0
 792 0276 FFF7FEFF 		bl	hor_line
 793              	.LVL108:
 794              	.L59:
ARM GAS  C:\Users\d3bug\AppData\Local\Temp\cc6Fq6JX.s 			page 21


 135:..\lvgl\lv_draw/lv_draw_arc.c ****             if(x_end[1] == LV_COORD_MIN) x_end[1] = xi - 1;
 795              		.loc 1 135 0
 796 027a BDF93230 		ldrsh	r3, [sp, #50]
 797 027e 13F5804F 		cmn	r3, #16384
 798 0282 1AD0     		beq	.L61
 136:..\lvgl\lv_draw/lv_draw_arc.c ****             hor_line(center_x + x_start[1], center_y - yi, mask, x_end[1] - x_start[1], color, opa)
 799              		.loc 1 136 0
 800 0284 BDF92A20 		ldrsh	r2, [sp, #42]
 801 0288 12F5804F 		cmn	r2, #16384
 802 028c 02D1     		bne	.L62
 136:..\lvgl\lv_draw/lv_draw_arc.c ****             hor_line(center_x + x_start[1], center_y - yi, mask, x_end[1] - x_start[1], color, opa)
 803              		.loc 1 136 0 is_stmt 0 discriminator 1
 804 028e 621E     		subs	r2, r4, #1
 805 0290 ADF82A20 		strh	r2, [sp, #42]	@ movhi
 806              	.L62:
 137:..\lvgl\lv_draw/lv_draw_arc.c ****         }
 807              		.loc 1 137 0 is_stmt 1
 808 0294 98B2     		uxth	r0, r3
 809 0296 BDF92A30 		ldrsh	r3, [sp, #42]
 810 029a 1B1A     		subs	r3, r3, r0
 811 029c 069A     		ldr	r2, [sp, #24]
 812 029e 911B     		subs	r1, r2, r6
 813 02a0 5844     		add	r0, r0, fp
 814 02a2 059A     		ldr	r2, [sp, #20]
 815 02a4 0192     		str	r2, [sp, #4]
 816 02a6 9DF82320 		ldrb	r2, [sp, #35]	@ zero_extendqisi2
 817              	.LVL109:
 818 02aa 8DF80020 		strb	r2, [sp]
 819 02ae 1BB2     		sxth	r3, r3
 820 02b0 079A     		ldr	r2, [sp, #28]
 821              	.LVL110:
 822 02b2 09B2     		sxth	r1, r1
 823 02b4 00B2     		sxth	r0, r0
 824 02b6 FFF7FEFF 		bl	hor_line
 825              	.LVL111:
 826              	.L61:
 140:..\lvgl\lv_draw/lv_draw_arc.c ****             if(x_end[2] == LV_COORD_MIN) x_end[2] = xi - 1;
 827              		.loc 1 140 0
 828 02ba BDF93430 		ldrsh	r3, [sp, #52]
 829 02be 13F5804F 		cmn	r3, #16384
 830 02c2 1DD0     		beq	.L63
 141:..\lvgl\lv_draw/lv_draw_arc.c ****             hor_line(center_x - x_end[2], center_y + yi, mask, LV_MATH_ABS(x_end[2] - x_start[2]), 
 831              		.loc 1 141 0
 832 02c4 BDF92C20 		ldrsh	r2, [sp, #44]
 833 02c8 12F5804F 		cmn	r2, #16384
 834 02cc 02D1     		bne	.L64
 141:..\lvgl\lv_draw/lv_draw_arc.c ****             hor_line(center_x - x_end[2], center_y + yi, mask, LV_MATH_ABS(x_end[2] - x_start[2]), 
 835              		.loc 1 141 0 is_stmt 0 discriminator 1
 836 02ce 621E     		subs	r2, r4, #1
 837 02d0 ADF82C20 		strh	r2, [sp, #44]	@ movhi
 838              	.L64:
 142:..\lvgl\lv_draw/lv_draw_arc.c ****         }
 839              		.loc 1 142 0 is_stmt 1
 840 02d4 BDF92C00 		ldrsh	r0, [sp, #44]
 841 02d8 C31A     		subs	r3, r0, r3
 842 02da 002B     		cmp	r3, #0
 843 02dc B8BF     		it	lt
ARM GAS  C:\Users\d3bug\AppData\Local\Temp\cc6Fq6JX.s 			page 22


 844 02de 5B42     		rsblt	r3, r3, #0
 845 02e0 069A     		ldr	r2, [sp, #24]
 846 02e2 9119     		adds	r1, r2, r6
 847 02e4 C0EB0B00 		rsb	r0, r0, fp
 848 02e8 059A     		ldr	r2, [sp, #20]
 849 02ea 0192     		str	r2, [sp, #4]
 850 02ec 9DF82320 		ldrb	r2, [sp, #35]	@ zero_extendqisi2
 851              	.LVL112:
 852 02f0 8DF80020 		strb	r2, [sp]
 853 02f4 1BB2     		sxth	r3, r3
 854 02f6 079A     		ldr	r2, [sp, #28]
 855              	.LVL113:
 856 02f8 09B2     		sxth	r1, r1
 857 02fa 00B2     		sxth	r0, r0
 858 02fc FFF7FEFF 		bl	hor_line
 859              	.LVL114:
 860              	.L63:
 145:..\lvgl\lv_draw/lv_draw_arc.c ****             if(x_end[3] == LV_COORD_MIN) x_end[3] = xi - 1;
 861              		.loc 1 145 0
 862 0300 BDF93630 		ldrsh	r3, [sp, #54]
 863 0304 13F5804F 		cmn	r3, #16384
 864 0308 1DD0     		beq	.L65
 146:..\lvgl\lv_draw/lv_draw_arc.c ****             hor_line(center_x - x_end[3], center_y - yi, mask, LV_MATH_ABS(x_end[3] - x_start[3]), 
 865              		.loc 1 146 0
 866 030a BDF92E20 		ldrsh	r2, [sp, #46]
 867 030e 12F5804F 		cmn	r2, #16384
 868 0312 02D1     		bne	.L66
 146:..\lvgl\lv_draw/lv_draw_arc.c ****             hor_line(center_x - x_end[3], center_y - yi, mask, LV_MATH_ABS(x_end[3] - x_start[3]), 
 869              		.loc 1 146 0 is_stmt 0 discriminator 1
 870 0314 013C     		subs	r4, r4, #1
 871              	.LVL115:
 872 0316 ADF82E40 		strh	r4, [sp, #46]	@ movhi
 873              	.L66:
 147:..\lvgl\lv_draw/lv_draw_arc.c ****         }
 874              		.loc 1 147 0 is_stmt 1
 875 031a BDF92E00 		ldrsh	r0, [sp, #46]
 876 031e C31A     		subs	r3, r0, r3
 877 0320 002B     		cmp	r3, #0
 878 0322 B8BF     		it	lt
 879 0324 5B42     		rsblt	r3, r3, #0
 880 0326 069A     		ldr	r2, [sp, #24]
 881 0328 911B     		subs	r1, r2, r6
 882 032a C0EB0B00 		rsb	r0, r0, fp
 883 032e 059A     		ldr	r2, [sp, #20]
 884 0330 0192     		str	r2, [sp, #4]
 885 0332 9DF82320 		ldrb	r2, [sp, #35]	@ zero_extendqisi2
 886              	.LVL116:
 887 0336 8DF80020 		strb	r2, [sp]
 888 033a 1BB2     		sxth	r3, r3
 889 033c 079A     		ldr	r2, [sp, #28]
 890              	.LVL117:
 891 033e 09B2     		sxth	r1, r1
 892 0340 00B2     		sxth	r0, r0
 893 0342 FFF7FEFF 		bl	hor_line
 894              	.LVL118:
 895              	.L65:
  82:..\lvgl\lv_draw/lv_draw_arc.c ****         x_start[0] = LV_COORD_MIN;
ARM GAS  C:\Users\d3bug\AppData\Local\Temp\cc6Fq6JX.s 			page 23


 896              		.loc 1 82 0 discriminator 2
 897 0346 0136     		adds	r6, r6, #1
 898              	.LVL119:
 899 0348 36B2     		sxth	r6, r6
 900              	.LVL120:
 901              	.L46:
  82:..\lvgl\lv_draw/lv_draw_arc.c ****         x_start[0] = LV_COORD_MIN;
 902              		.loc 1 82 0 is_stmt 0 discriminator 1
 903 034a 002E     		cmp	r6, #0
 904 034c FFF6E0AE 		blt	.L67
 157:..\lvgl\lv_draw/lv_draw_arc.c **** 
 905              		.loc 1 157 0 is_stmt 1
 906 0350 0FB0     		add	sp, sp, #60
 907              		.cfi_def_cfa_offset 36
 908              		@ sp needed
 909 0352 BDE8F08F 		pop	{r4, r5, r6, r7, r8, r9, r10, fp, pc}
 910              	.LVL121:
 911              	.L71:
 912 0356 00BF     		.align	2
 913              	.L70:
 914 0358 00000000 		.word	deg_test_norm
 915 035c 00000000 		.word	deg_test_inv
 916              		.cfi_endproc
 917              	.LFE12:
 918              		.size	lv_draw_arc, .-lv_draw_arc
 919              		.text
 920              	.Letext0:
 921              		.file 2 "c:\\program files (x86)\\cypress\\psoc creator\\4.2\\psoc creator\\import\\gnu\\arm\\5.4.
 922              		.file 3 "c:\\program files (x86)\\cypress\\psoc creator\\4.2\\psoc creator\\import\\gnu\\arm\\5.4.
 923              		.file 4 "..\\lvgl\\lv_draw\\../lv_core/../lv_misc/lv_color.h"
 924              		.file 5 "..\\lvgl\\lv_draw\\../lv_core/../lv_misc/lv_area.h"
 925              		.file 6 "..\\lvgl\\lv_draw\\../lv_core/../lv_misc/lv_font.h"
 926              		.file 7 "..\\lvgl\\lv_draw\\../lv_core/lv_style.h"
 927              		.file 8 "..\\lvgl\\lv_draw\\lv_draw.h"