ARM GAS  C:\Users\d3bug\AppData\Local\Temp\ccRilSBU.s 			page 1


   1              		.syntax unified
   2              		.cpu cortex-m3
   3              		.fpu softvfp
   4              		.eabi_attribute 20, 1
   5              		.eabi_attribute 21, 1
   6              		.eabi_attribute 23, 3
   7              		.eabi_attribute 24, 1
   8              		.eabi_attribute 25, 1
   9              		.eabi_attribute 26, 1
  10              		.eabi_attribute 30, 1
  11              		.eabi_attribute 34, 1
  12              		.eabi_attribute 18, 4
  13              		.thumb
  14              		.syntax unified
  15              		.file	"lv_font.c"
  16              		.text
  17              	.Ltext0:
  18              		.cfi_sections	.debug_frame
  19              		.section	.text.lv_font_init,"ax",%progbits
  20              		.align	2
  21              		.global	lv_font_init
  22              		.thumb
  23              		.thumb_func
  24              		.type	lv_font_init, %function
  25              	lv_font_init:
  26              	.LFB1:
  27              		.file 1 "..\\lvgl\\lv_misc\\lv_font.c"
   1:..\lvgl\lv_misc/lv_font.c **** /**
   2:..\lvgl\lv_misc/lv_font.c ****  * @file lv_font.c
   3:..\lvgl\lv_misc/lv_font.c ****  *
   4:..\lvgl\lv_misc/lv_font.c ****  */
   5:..\lvgl\lv_misc/lv_font.c **** 
   6:..\lvgl\lv_misc/lv_font.c **** /*********************
   7:..\lvgl\lv_misc/lv_font.c ****  *      INCLUDES
   8:..\lvgl\lv_misc/lv_font.c ****  *********************/
   9:..\lvgl\lv_misc/lv_font.c **** #include <stddef.h>
  10:..\lvgl\lv_misc/lv_font.c **** #include "lv_font.h"
  11:..\lvgl\lv_misc/lv_font.c **** #include "lv_log.h"
  12:..\lvgl\lv_misc/lv_font.c **** 
  13:..\lvgl\lv_misc/lv_font.c **** /*********************
  14:..\lvgl\lv_misc/lv_font.c ****  *      DEFINES
  15:..\lvgl\lv_misc/lv_font.c ****  *********************/
  16:..\lvgl\lv_misc/lv_font.c **** 
  17:..\lvgl\lv_misc/lv_font.c **** /**********************
  18:..\lvgl\lv_misc/lv_font.c ****  *      TYPEDEFS
  19:..\lvgl\lv_misc/lv_font.c ****  **********************/
  20:..\lvgl\lv_misc/lv_font.c **** 
  21:..\lvgl\lv_misc/lv_font.c **** /**********************
  22:..\lvgl\lv_misc/lv_font.c ****  *  STATIC PROTOTYPES
  23:..\lvgl\lv_misc/lv_font.c ****  **********************/
  24:..\lvgl\lv_misc/lv_font.c **** 
  25:..\lvgl\lv_misc/lv_font.c **** /**********************
  26:..\lvgl\lv_misc/lv_font.c ****  *  STATIC VARIABLES
  27:..\lvgl\lv_misc/lv_font.c ****  **********************/
  28:..\lvgl\lv_misc/lv_font.c **** 
  29:..\lvgl\lv_misc/lv_font.c **** /**********************
  30:..\lvgl\lv_misc/lv_font.c ****  * GLOBAL PROTOTYPES
ARM GAS  C:\Users\d3bug\AppData\Local\Temp\ccRilSBU.s 			page 2


  31:..\lvgl\lv_misc/lv_font.c ****  **********************/
  32:..\lvgl\lv_misc/lv_font.c **** 
  33:..\lvgl\lv_misc/lv_font.c **** /**********************
  34:..\lvgl\lv_misc/lv_font.c ****  *      MACROS
  35:..\lvgl\lv_misc/lv_font.c ****  **********************/
  36:..\lvgl\lv_misc/lv_font.c **** 
  37:..\lvgl\lv_misc/lv_font.c **** /**********************
  38:..\lvgl\lv_misc/lv_font.c ****  *   GLOBAL FUNCTIONS
  39:..\lvgl\lv_misc/lv_font.c ****  **********************/
  40:..\lvgl\lv_misc/lv_font.c **** 
  41:..\lvgl\lv_misc/lv_font.c **** /**
  42:..\lvgl\lv_misc/lv_font.c ****  * Initialize the fonts
  43:..\lvgl\lv_misc/lv_font.c ****  */
  44:..\lvgl\lv_misc/lv_font.c **** void lv_font_init(void)
  45:..\lvgl\lv_misc/lv_font.c **** {
  28              		.loc 1 45 0
  29              		.cfi_startproc
  30              		@ args = 0, pretend = 0, frame = 0
  31              		@ frame_needed = 0, uses_anonymous_args = 0
  32 0000 08B5     		push	{r3, lr}
  33              		.cfi_def_cfa_offset 8
  34              		.cfi_offset 3, -8
  35              		.cfi_offset 14, -4
  46:..\lvgl\lv_misc/lv_font.c ****     lv_font_builtin_init();
  36              		.loc 1 46 0
  37 0002 FFF7FEFF 		bl	lv_font_builtin_init
  38              	.LVL0:
  39 0006 08BD     		pop	{r3, pc}
  40              		.cfi_endproc
  41              	.LFE1:
  42              		.size	lv_font_init, .-lv_font_init
  43              		.section	.text.lv_font_add,"ax",%progbits
  44              		.align	2
  45              		.global	lv_font_add
  46              		.thumb
  47              		.thumb_func
  48              		.type	lv_font_add, %function
  49              	lv_font_add:
  50              	.LFB2:
  47:..\lvgl\lv_misc/lv_font.c **** }
  48:..\lvgl\lv_misc/lv_font.c **** 
  49:..\lvgl\lv_misc/lv_font.c **** /**
  50:..\lvgl\lv_misc/lv_font.c ****  * Add a font to an other to extend the character set.
  51:..\lvgl\lv_misc/lv_font.c ****  * @param child the font to add
  52:..\lvgl\lv_misc/lv_font.c ****  * @param parent this font will be extended. Using it later will contain the characters from `child
  53:..\lvgl\lv_misc/lv_font.c ****  */
  54:..\lvgl\lv_misc/lv_font.c **** void lv_font_add(lv_font_t * child, lv_font_t * parent)
  55:..\lvgl\lv_misc/lv_font.c **** {
  51              		.loc 1 55 0
  52              		.cfi_startproc
  53              		@ args = 0, pretend = 0, frame = 0
  54              		@ frame_needed = 0, uses_anonymous_args = 0
  55              		@ link register save eliminated.
  56              	.LVL1:
  56:..\lvgl\lv_misc/lv_font.c ****     if(parent == NULL) return;
  57              		.loc 1 56 0
  58 0000 0A46     		mov	r2, r1
ARM GAS  C:\Users\d3bug\AppData\Local\Temp\ccRilSBU.s 			page 3


  59 0002 09B9     		cbnz	r1, .L5
  60 0004 7047     		bx	lr
  61              	.LVL2:
  62              	.L6:
  57:..\lvgl\lv_misc/lv_font.c **** 
  58:..\lvgl\lv_misc/lv_font.c ****     while(parent->next_page != NULL) {
  59:..\lvgl\lv_misc/lv_font.c ****         parent = parent->next_page; /*Got to the last page and add the new font there*/
  63              		.loc 1 59 0
  64 0006 1A46     		mov	r2, r3
  65              	.LVL3:
  66              	.L5:
  58:..\lvgl\lv_misc/lv_font.c ****         parent = parent->next_page; /*Got to the last page and add the new font there*/
  67              		.loc 1 58 0
  68 0008 D369     		ldr	r3, [r2, #28]
  69 000a 002B     		cmp	r3, #0
  70 000c FBD1     		bne	.L6
  60:..\lvgl\lv_misc/lv_font.c ****     }
  61:..\lvgl\lv_misc/lv_font.c **** 
  62:..\lvgl\lv_misc/lv_font.c ****     parent->next_page = child;
  71              		.loc 1 62 0
  72 000e D061     		str	r0, [r2, #28]
  73 0010 7047     		bx	lr
  74              		.cfi_endproc
  75              	.LFE2:
  76              		.size	lv_font_add, .-lv_font_add
  77 0012 00BF     		.section	.text.lv_font_remove,"ax",%progbits
  78              		.align	2
  79              		.global	lv_font_remove
  80              		.thumb
  81              		.thumb_func
  82              		.type	lv_font_remove, %function
  83              	lv_font_remove:
  84              	.LFB3:
  63:..\lvgl\lv_misc/lv_font.c **** 
  64:..\lvgl\lv_misc/lv_font.c **** }
  65:..\lvgl\lv_misc/lv_font.c **** 
  66:..\lvgl\lv_misc/lv_font.c **** /**
  67:..\lvgl\lv_misc/lv_font.c ****  * Remove a font from a character set.
  68:..\lvgl\lv_misc/lv_font.c ****  * @param child the font to remove
  69:..\lvgl\lv_misc/lv_font.c ****  * @param parent remove `child` from here
  70:..\lvgl\lv_misc/lv_font.c ****  */
  71:..\lvgl\lv_misc/lv_font.c **** void lv_font_remove(lv_font_t * child, lv_font_t * parent)
  72:..\lvgl\lv_misc/lv_font.c **** {
  85              		.loc 1 72 0
  86              		.cfi_startproc
  87              		@ args = 0, pretend = 0, frame = 0
  88              		@ frame_needed = 0, uses_anonymous_args = 0
  89              		@ link register save eliminated.
  90              	.LVL4:
  73:..\lvgl\lv_misc/lv_font.c ****     if(parent == NULL) return;
  91              		.loc 1 73 0
  92 0000 0A46     		mov	r2, r1
  93 0002 39B1     		cbz	r1, .L7
  74:..\lvgl\lv_misc/lv_font.c ****     if(child == NULL) return;
  94              		.loc 1 74 0
  95 0004 08B9     		cbnz	r0, .L9
  96 0006 7047     		bx	lr
ARM GAS  C:\Users\d3bug\AppData\Local\Temp\ccRilSBU.s 			page 4


  97              	.LVL5:
  98              	.L10:
  75:..\lvgl\lv_misc/lv_font.c **** 
  76:..\lvgl\lv_misc/lv_font.c ****     while(parent->next_page != child) {
  77:..\lvgl\lv_misc/lv_font.c ****         parent = parent->next_page; /*Got to the last page and add the new font there*/
  99              		.loc 1 77 0
 100 0008 1A46     		mov	r2, r3
 101              	.LVL6:
 102              	.L9:
  76:..\lvgl\lv_misc/lv_font.c ****         parent = parent->next_page; /*Got to the last page and add the new font there*/
 103              		.loc 1 76 0
 104 000a D369     		ldr	r3, [r2, #28]
 105 000c 9842     		cmp	r0, r3
 106 000e FBD1     		bne	.L10
  78:..\lvgl\lv_misc/lv_font.c ****     }
  79:..\lvgl\lv_misc/lv_font.c **** 
  80:..\lvgl\lv_misc/lv_font.c ****     parent->next_page = child->next_page;
 107              		.loc 1 80 0
 108 0010 C369     		ldr	r3, [r0, #28]
 109 0012 D361     		str	r3, [r2, #28]
 110              	.L7:
 111 0014 7047     		bx	lr
 112              		.cfi_endproc
 113              	.LFE3:
 114              		.size	lv_font_remove, .-lv_font_remove
 115 0016 00BF     		.section	.text.lv_font_is_monospace,"ax",%progbits
 116              		.align	2
 117              		.global	lv_font_is_monospace
 118              		.thumb
 119              		.thumb_func
 120              		.type	lv_font_is_monospace, %function
 121              	lv_font_is_monospace:
 122              	.LFB4:
  81:..\lvgl\lv_misc/lv_font.c **** }
  82:..\lvgl\lv_misc/lv_font.c **** 
  83:..\lvgl\lv_misc/lv_font.c **** 
  84:..\lvgl\lv_misc/lv_font.c **** /**
  85:..\lvgl\lv_misc/lv_font.c ****  * Tells if font which contains `letter` is monospace or not
  86:..\lvgl\lv_misc/lv_font.c ****  * @param font_p point to font
  87:..\lvgl\lv_misc/lv_font.c ****  * @param letter an UNICODE character code
  88:..\lvgl\lv_misc/lv_font.c ****  * @return true: the letter is monospace; false not monospace
  89:..\lvgl\lv_misc/lv_font.c ****  */
  90:..\lvgl\lv_misc/lv_font.c **** bool lv_font_is_monospace(const lv_font_t * font_p, uint32_t letter)
  91:..\lvgl\lv_misc/lv_font.c **** {
 123              		.loc 1 91 0
 124              		.cfi_startproc
 125              		@ args = 0, pretend = 0, frame = 0
 126              		@ frame_needed = 0, uses_anonymous_args = 0
 127              	.LVL7:
 128 0000 38B5     		push	{r3, r4, r5, lr}
 129              		.cfi_def_cfa_offset 16
 130              		.cfi_offset 3, -16
 131              		.cfi_offset 4, -12
 132              		.cfi_offset 5, -8
 133              		.cfi_offset 14, -4
 134 0002 0446     		mov	r4, r0
 135 0004 0D46     		mov	r5, r1
ARM GAS  C:\Users\d3bug\AppData\Local\Temp\ccRilSBU.s 			page 5


 136              	.LVL8:
  92:..\lvgl\lv_misc/lv_font.c ****     const lv_font_t * font_i = font_p;
  93:..\lvgl\lv_misc/lv_font.c ****     int16_t w;
  94:..\lvgl\lv_misc/lv_font.c ****     while(font_i != NULL) {
 137              		.loc 1 94 0
 138 0006 0CE0     		b	.L12
 139              	.LVL9:
 140              	.L15:
  95:..\lvgl\lv_misc/lv_font.c ****         w = font_i->get_width(font_i, letter);
 141              		.loc 1 95 0
 142 0008 A369     		ldr	r3, [r4, #24]
 143 000a 2946     		mov	r1, r5
 144 000c 2046     		mov	r0, r4
 145 000e 9847     		blx	r3
 146              	.LVL10:
  96:..\lvgl\lv_misc/lv_font.c ****         if(w >= 0) {
 147              		.loc 1 96 0
 148 0010 0028     		cmp	r0, #0
 149 0012 05DB     		blt	.L13
  97:..\lvgl\lv_misc/lv_font.c ****             /*Glyph found*/
  98:..\lvgl\lv_misc/lv_font.c ****             if(font_i->monospace) return true;
 150              		.loc 1 98 0
 151 0014 236A     		ldr	r3, [r4, #32]
 152 0016 13F47F2F 		tst	r3, #1044480
 153 001a 06D0     		beq	.L16
 154 001c 0120     		movs	r0, #1
 155              	.LVL11:
 156 001e 38BD     		pop	{r3, r4, r5, pc}
 157              	.LVL12:
 158              	.L13:
  99:..\lvgl\lv_misc/lv_font.c ****             return false;
 100:..\lvgl\lv_misc/lv_font.c ****         }
 101:..\lvgl\lv_misc/lv_font.c **** 
 102:..\lvgl\lv_misc/lv_font.c ****         font_i = font_i->next_page;
 159              		.loc 1 102 0
 160 0020 E469     		ldr	r4, [r4, #28]
 161              	.LVL13:
 162              	.L12:
  94:..\lvgl\lv_misc/lv_font.c ****         w = font_i->get_width(font_i, letter);
 163              		.loc 1 94 0
 164 0022 002C     		cmp	r4, #0
 165 0024 F0D1     		bne	.L15
 103:..\lvgl\lv_misc/lv_font.c ****     }
 104:..\lvgl\lv_misc/lv_font.c **** 
 105:..\lvgl\lv_misc/lv_font.c ****     return 0;
 166              		.loc 1 105 0
 167 0026 0020     		movs	r0, #0
 168 0028 38BD     		pop	{r3, r4, r5, pc}
 169              	.LVL14:
 170              	.L16:
  99:..\lvgl\lv_misc/lv_font.c ****         }
 171              		.loc 1 99 0
 172 002a 0020     		movs	r0, #0
 173              	.LVL15:
 106:..\lvgl\lv_misc/lv_font.c **** }
 174              		.loc 1 106 0
 175 002c 38BD     		pop	{r3, r4, r5, pc}
ARM GAS  C:\Users\d3bug\AppData\Local\Temp\ccRilSBU.s 			page 6


 176              		.cfi_endproc
 177              	.LFE4:
 178              		.size	lv_font_is_monospace, .-lv_font_is_monospace
 179 002e 00BF     		.section	.text.lv_font_get_bitmap,"ax",%progbits
 180              		.align	2
 181              		.global	lv_font_get_bitmap
 182              		.thumb
 183              		.thumb_func
 184              		.type	lv_font_get_bitmap, %function
 185              	lv_font_get_bitmap:
 186              	.LFB5:
 107:..\lvgl\lv_misc/lv_font.c **** 
 108:..\lvgl\lv_misc/lv_font.c **** /**
 109:..\lvgl\lv_misc/lv_font.c ****  * Return with the bitmap of a font.
 110:..\lvgl\lv_misc/lv_font.c ****  * @param font_p pointer to a font
 111:..\lvgl\lv_misc/lv_font.c ****  * @param letter an UNICODE character code
 112:..\lvgl\lv_misc/lv_font.c ****  * @return  pointer to the bitmap of the letter
 113:..\lvgl\lv_misc/lv_font.c ****  */
 114:..\lvgl\lv_misc/lv_font.c **** const uint8_t * lv_font_get_bitmap(const lv_font_t * font_p, uint32_t letter)
 115:..\lvgl\lv_misc/lv_font.c **** {
 187              		.loc 1 115 0
 188              		.cfi_startproc
 189              		@ args = 0, pretend = 0, frame = 0
 190              		@ frame_needed = 0, uses_anonymous_args = 0
 191              	.LVL16:
 192 0000 38B5     		push	{r3, r4, r5, lr}
 193              		.cfi_def_cfa_offset 16
 194              		.cfi_offset 3, -16
 195              		.cfi_offset 4, -12
 196              		.cfi_offset 5, -8
 197              		.cfi_offset 14, -4
 198 0002 0446     		mov	r4, r0
 199 0004 0D46     		mov	r5, r1
 200              	.LVL17:
 116:..\lvgl\lv_misc/lv_font.c ****     const lv_font_t * font_i = font_p;
 117:..\lvgl\lv_misc/lv_font.c ****     while(font_i != NULL) {
 201              		.loc 1 117 0
 202 0006 05E0     		b	.L19
 203              	.LVL18:
 204              	.L21:
 205              	.LBB2:
 118:..\lvgl\lv_misc/lv_font.c ****         const uint8_t * bitmap = font_i->get_bitmap(font_i, letter);
 206              		.loc 1 118 0
 207 0008 6369     		ldr	r3, [r4, #20]
 208 000a 2946     		mov	r1, r5
 209 000c 2046     		mov	r0, r4
 210 000e 9847     		blx	r3
 211              	.LVL19:
 119:..\lvgl\lv_misc/lv_font.c ****         if(bitmap) return bitmap;
 212              		.loc 1 119 0
 213 0010 20B9     		cbnz	r0, .L22
 120:..\lvgl\lv_misc/lv_font.c **** 
 121:..\lvgl\lv_misc/lv_font.c ****         font_i = font_i->next_page;
 214              		.loc 1 121 0
 215 0012 E469     		ldr	r4, [r4, #28]
 216              	.LVL20:
 217              	.L19:
ARM GAS  C:\Users\d3bug\AppData\Local\Temp\ccRilSBU.s 			page 7


 218              	.LBE2:
 117:..\lvgl\lv_misc/lv_font.c ****         const uint8_t * bitmap = font_i->get_bitmap(font_i, letter);
 219              		.loc 1 117 0
 220 0014 002C     		cmp	r4, #0
 221 0016 F7D1     		bne	.L21
 122:..\lvgl\lv_misc/lv_font.c ****     }
 123:..\lvgl\lv_misc/lv_font.c **** 
 124:..\lvgl\lv_misc/lv_font.c ****     return NULL;
 222              		.loc 1 124 0
 223 0018 0020     		movs	r0, #0
 224 001a 38BD     		pop	{r3, r4, r5, pc}
 225              	.LVL21:
 226              	.L22:
 125:..\lvgl\lv_misc/lv_font.c **** }
 227              		.loc 1 125 0
 228 001c 38BD     		pop	{r3, r4, r5, pc}
 229              		.cfi_endproc
 230              	.LFE5:
 231              		.size	lv_font_get_bitmap, .-lv_font_get_bitmap
 232 001e 00BF     		.section	.text.lv_font_get_width,"ax",%progbits
 233              		.align	2
 234              		.global	lv_font_get_width
 235              		.thumb
 236              		.thumb_func
 237              		.type	lv_font_get_width, %function
 238              	lv_font_get_width:
 239              	.LFB6:
 126:..\lvgl\lv_misc/lv_font.c **** 
 127:..\lvgl\lv_misc/lv_font.c **** /**
 128:..\lvgl\lv_misc/lv_font.c ****  * Get the width of a letter in a font. If `monospace` is set then return with it.
 129:..\lvgl\lv_misc/lv_font.c ****  * @param font_p pointer to a font
 130:..\lvgl\lv_misc/lv_font.c ****  * @param letter an UNICODE character code
 131:..\lvgl\lv_misc/lv_font.c ****  * @return the width of a letter
 132:..\lvgl\lv_misc/lv_font.c ****  */
 133:..\lvgl\lv_misc/lv_font.c **** uint8_t lv_font_get_width(const lv_font_t * font_p, uint32_t letter)
 134:..\lvgl\lv_misc/lv_font.c **** {
 240              		.loc 1 134 0
 241              		.cfi_startproc
 242              		@ args = 0, pretend = 0, frame = 0
 243              		@ frame_needed = 0, uses_anonymous_args = 0
 244              	.LVL22:
 245 0000 38B5     		push	{r3, r4, r5, lr}
 246              		.cfi_def_cfa_offset 16
 247              		.cfi_offset 3, -16
 248              		.cfi_offset 4, -12
 249              		.cfi_offset 5, -8
 250              		.cfi_offset 14, -4
 251 0002 0446     		mov	r4, r0
 252 0004 0D46     		mov	r5, r1
 253              	.LVL23:
 135:..\lvgl\lv_misc/lv_font.c ****     const lv_font_t * font_i = font_p;
 136:..\lvgl\lv_misc/lv_font.c ****     int16_t w;
 137:..\lvgl\lv_misc/lv_font.c ****     while(font_i != NULL) {
 254              		.loc 1 137 0
 255 0006 0DE0     		b	.L25
 256              	.LVL24:
 257              	.L29:
ARM GAS  C:\Users\d3bug\AppData\Local\Temp\ccRilSBU.s 			page 8


 138:..\lvgl\lv_misc/lv_font.c ****         w = font_i->get_width(font_i, letter);
 258              		.loc 1 138 0
 259 0008 A369     		ldr	r3, [r4, #24]
 260 000a 2946     		mov	r1, r5
 261 000c 2046     		mov	r0, r4
 262 000e 9847     		blx	r3
 263              	.LVL25:
 139:..\lvgl\lv_misc/lv_font.c ****         if(w >= 0) {
 264              		.loc 1 139 0
 265 0010 0028     		cmp	r0, #0
 266              	.LVL26:
 267 0012 06DB     		blt	.L26
 268              	.LBB3:
 140:..\lvgl\lv_misc/lv_font.c ****             /*Glyph found*/
 141:..\lvgl\lv_misc/lv_font.c ****             uint8_t m = font_i->monospace;
 269              		.loc 1 141 0
 270 0014 236A     		ldr	r3, [r4, #32]
 271 0016 C3F30733 		ubfx	r3, r3, #12, #8
 272              	.LVL27:
 142:..\lvgl\lv_misc/lv_font.c ****             if(m) w = m;
 273              		.loc 1 142 0
 274 001a 03B1     		cbz	r3, .L27
 275              		.loc 1 142 0 is_stmt 0 discriminator 1
 276 001c 18B2     		sxth	r0, r3
 277              	.LVL28:
 278              	.L27:
 143:..\lvgl\lv_misc/lv_font.c ****             return w;
 279              		.loc 1 143 0 is_stmt 1
 280 001e C0B2     		uxtb	r0, r0
 281              	.LVL29:
 282 0020 38BD     		pop	{r3, r4, r5, pc}
 283              	.LVL30:
 284              	.L26:
 285              	.LBE3:
 144:..\lvgl\lv_misc/lv_font.c ****         }
 145:..\lvgl\lv_misc/lv_font.c **** 
 146:..\lvgl\lv_misc/lv_font.c ****         font_i = font_i->next_page;
 286              		.loc 1 146 0
 287 0022 E469     		ldr	r4, [r4, #28]
 288              	.LVL31:
 289              	.L25:
 137:..\lvgl\lv_misc/lv_font.c ****         w = font_i->get_width(font_i, letter);
 290              		.loc 1 137 0
 291 0024 002C     		cmp	r4, #0
 292 0026 EFD1     		bne	.L29
 147:..\lvgl\lv_misc/lv_font.c ****     }
 148:..\lvgl\lv_misc/lv_font.c **** 
 149:..\lvgl\lv_misc/lv_font.c ****     return 0;
 293              		.loc 1 149 0
 294 0028 0020     		movs	r0, #0
 150:..\lvgl\lv_misc/lv_font.c **** 
 151:..\lvgl\lv_misc/lv_font.c **** }
 295              		.loc 1 151 0
 296 002a 38BD     		pop	{r3, r4, r5, pc}
 297              		.cfi_endproc
 298              	.LFE6:
 299              		.size	lv_font_get_width, .-lv_font_get_width
ARM GAS  C:\Users\d3bug\AppData\Local\Temp\ccRilSBU.s 			page 9


 300              		.section	.text.lv_font_get_real_width,"ax",%progbits
 301              		.align	2
 302              		.global	lv_font_get_real_width
 303              		.thumb
 304              		.thumb_func
 305              		.type	lv_font_get_real_width, %function
 306              	lv_font_get_real_width:
 307              	.LFB7:
 152:..\lvgl\lv_misc/lv_font.c **** 
 153:..\lvgl\lv_misc/lv_font.c **** /**
 154:..\lvgl\lv_misc/lv_font.c ****  * Get the width of the letter without overwriting it with the `monospace` attribute
 155:..\lvgl\lv_misc/lv_font.c ****  * @param font_p pointer to a font
 156:..\lvgl\lv_misc/lv_font.c ****  * @param letter an UNICODE character code
 157:..\lvgl\lv_misc/lv_font.c ****  * @return the width of a letter
 158:..\lvgl\lv_misc/lv_font.c ****  */
 159:..\lvgl\lv_misc/lv_font.c **** uint8_t lv_font_get_real_width(const lv_font_t * font_p, uint32_t letter)
 160:..\lvgl\lv_misc/lv_font.c **** {
 308              		.loc 1 160 0
 309              		.cfi_startproc
 310              		@ args = 0, pretend = 0, frame = 0
 311              		@ frame_needed = 0, uses_anonymous_args = 0
 312              	.LVL32:
 313 0000 38B5     		push	{r3, r4, r5, lr}
 314              		.cfi_def_cfa_offset 16
 315              		.cfi_offset 3, -16
 316              		.cfi_offset 4, -12
 317              		.cfi_offset 5, -8
 318              		.cfi_offset 14, -4
 319 0002 0446     		mov	r4, r0
 320 0004 0D46     		mov	r5, r1
 321              	.LVL33:
 161:..\lvgl\lv_misc/lv_font.c ****     const lv_font_t * font_i = font_p;
 162:..\lvgl\lv_misc/lv_font.c ****     int16_t w;
 163:..\lvgl\lv_misc/lv_font.c ****     while(font_i != NULL) {
 322              		.loc 1 163 0
 323 0006 08E0     		b	.L32
 324              	.LVL34:
 325              	.L35:
 164:..\lvgl\lv_misc/lv_font.c ****         w = font_i->get_width(font_i, letter);
 326              		.loc 1 164 0
 327 0008 A369     		ldr	r3, [r4, #24]
 328 000a 2946     		mov	r1, r5
 329 000c 2046     		mov	r0, r4
 330 000e 9847     		blx	r3
 331              	.LVL35:
 165:..\lvgl\lv_misc/lv_font.c ****         if(w >= 0) return w;
 332              		.loc 1 165 0
 333 0010 0028     		cmp	r0, #0
 334              	.LVL36:
 335 0012 01DB     		blt	.L33
 336              		.loc 1 165 0 is_stmt 0 discriminator 1
 337 0014 C0B2     		uxtb	r0, r0
 338 0016 38BD     		pop	{r3, r4, r5, pc}
 339              	.LVL37:
 340              	.L33:
 166:..\lvgl\lv_misc/lv_font.c **** 
 167:..\lvgl\lv_misc/lv_font.c ****         font_i = font_i->next_page;
ARM GAS  C:\Users\d3bug\AppData\Local\Temp\ccRilSBU.s 			page 10


 341              		.loc 1 167 0 is_stmt 1
 342 0018 E469     		ldr	r4, [r4, #28]
 343              	.LVL38:
 344              	.L32:
 163:..\lvgl\lv_misc/lv_font.c ****         w = font_i->get_width(font_i, letter);
 345              		.loc 1 163 0
 346 001a 002C     		cmp	r4, #0
 347 001c F4D1     		bne	.L35
 168:..\lvgl\lv_misc/lv_font.c ****     }
 169:..\lvgl\lv_misc/lv_font.c **** 
 170:..\lvgl\lv_misc/lv_font.c ****     return 0;
 348              		.loc 1 170 0
 349 001e 0020     		movs	r0, #0
 171:..\lvgl\lv_misc/lv_font.c **** }
 350              		.loc 1 171 0
 351 0020 38BD     		pop	{r3, r4, r5, pc}
 352              		.cfi_endproc
 353              	.LFE7:
 354              		.size	lv_font_get_real_width, .-lv_font_get_real_width
 355 0022 00BF     		.section	.text.lv_font_get_bpp,"ax",%progbits
 356              		.align	2
 357              		.global	lv_font_get_bpp
 358              		.thumb
 359              		.thumb_func
 360              		.type	lv_font_get_bpp, %function
 361              	lv_font_get_bpp:
 362              	.LFB8:
 172:..\lvgl\lv_misc/lv_font.c **** 
 173:..\lvgl\lv_misc/lv_font.c **** /**
 174:..\lvgl\lv_misc/lv_font.c ****  * Get the bit-per-pixel of font
 175:..\lvgl\lv_misc/lv_font.c ****  * @param font pointer to font
 176:..\lvgl\lv_misc/lv_font.c ****  * @param letter a letter from font (font extensions can have different bpp)
 177:..\lvgl\lv_misc/lv_font.c ****  * @return bpp of the font (or font extension)
 178:..\lvgl\lv_misc/lv_font.c ****  */
 179:..\lvgl\lv_misc/lv_font.c **** uint8_t lv_font_get_bpp(const lv_font_t * font, uint32_t letter)
 180:..\lvgl\lv_misc/lv_font.c **** {
 363              		.loc 1 180 0
 364              		.cfi_startproc
 365              		@ args = 0, pretend = 0, frame = 0
 366              		@ frame_needed = 0, uses_anonymous_args = 0
 367              		@ link register save eliminated.
 368              	.LVL39:
 181:..\lvgl\lv_misc/lv_font.c ****     const lv_font_t * font_i = font;
 182:..\lvgl\lv_misc/lv_font.c ****     while(font_i != NULL) {
 369              		.loc 1 182 0
 370 0000 0BE0     		b	.L38
 371              	.LVL40:
 372              	.L41:
 183:..\lvgl\lv_misc/lv_font.c ****         if(letter >= font_i->unicode_first && letter <= font_i->unicode_last) {
 373              		.loc 1 183 0
 374 0002 0368     		ldr	r3, [r0]
 375 0004 8B42     		cmp	r3, r1
 376 0006 07D8     		bhi	.L39
 377              		.loc 1 183 0 is_stmt 0 discriminator 1
 378 0008 4368     		ldr	r3, [r0, #4]
 379 000a 9942     		cmp	r1, r3
 380 000c 04D8     		bhi	.L39
ARM GAS  C:\Users\d3bug\AppData\Local\Temp\ccRilSBU.s 			page 11


 184:..\lvgl\lv_misc/lv_font.c ****             return font_i->bpp;
 381              		.loc 1 184 0 is_stmt 1
 382 000e 90F82100 		ldrb	r0, [r0, #33]	@ zero_extendqisi2
 383              	.LVL41:
 384 0012 00F00F00 		and	r0, r0, #15
 385 0016 7047     		bx	lr
 386              	.LVL42:
 387              	.L39:
 185:..\lvgl\lv_misc/lv_font.c ****         }
 186:..\lvgl\lv_misc/lv_font.c ****         font_i = font_i->next_page;
 388              		.loc 1 186 0
 389 0018 C069     		ldr	r0, [r0, #28]
 390              	.LVL43:
 391              	.L38:
 182:..\lvgl\lv_misc/lv_font.c ****         if(letter >= font_i->unicode_first && letter <= font_i->unicode_last) {
 392              		.loc 1 182 0
 393 001a 0028     		cmp	r0, #0
 394 001c F1D1     		bne	.L41
 187:..\lvgl\lv_misc/lv_font.c ****     }
 188:..\lvgl\lv_misc/lv_font.c **** 
 189:..\lvgl\lv_misc/lv_font.c ****     return 0;
 190:..\lvgl\lv_misc/lv_font.c **** 
 191:..\lvgl\lv_misc/lv_font.c **** }
 395              		.loc 1 191 0
 396 001e 7047     		bx	lr
 397              		.cfi_endproc
 398              	.LFE8:
 399              		.size	lv_font_get_bpp, .-lv_font_get_bpp
 400              		.section	.text.lv_font_get_bitmap_continuous,"ax",%progbits
 401              		.align	2
 402              		.global	lv_font_get_bitmap_continuous
 403              		.thumb
 404              		.thumb_func
 405              		.type	lv_font_get_bitmap_continuous, %function
 406              	lv_font_get_bitmap_continuous:
 407              	.LFB9:
 192:..\lvgl\lv_misc/lv_font.c **** 
 193:..\lvgl\lv_misc/lv_font.c **** /**
 194:..\lvgl\lv_misc/lv_font.c ****  * Generic bitmap get function used in 'font->get_bitmap' when the font contains all characters in 
 195:..\lvgl\lv_misc/lv_font.c ****  * @param font pointer to font
 196:..\lvgl\lv_misc/lv_font.c ****  * @param unicode_letter an unicode letter which bitmap should be get
 197:..\lvgl\lv_misc/lv_font.c ****  * @return pointer to the bitmap or NULL if not found
 198:..\lvgl\lv_misc/lv_font.c ****  */
 199:..\lvgl\lv_misc/lv_font.c **** const uint8_t * lv_font_get_bitmap_continuous(const lv_font_t * font, uint32_t unicode_letter)
 200:..\lvgl\lv_misc/lv_font.c **** {
 408              		.loc 1 200 0
 409              		.cfi_startproc
 410              		@ args = 0, pretend = 0, frame = 0
 411              		@ frame_needed = 0, uses_anonymous_args = 0
 412              		@ link register save eliminated.
 413              	.LVL44:
 201:..\lvgl\lv_misc/lv_font.c ****     /*Check the range*/
 202:..\lvgl\lv_misc/lv_font.c ****     if(unicode_letter < font->unicode_first || unicode_letter > font->unicode_last) return NULL;
 414              		.loc 1 202 0
 415 0000 0368     		ldr	r3, [r0]
 416 0002 8B42     		cmp	r3, r1
 417 0004 0AD8     		bhi	.L44
ARM GAS  C:\Users\d3bug\AppData\Local\Temp\ccRilSBU.s 			page 12


 418              		.loc 1 202 0 is_stmt 0 discriminator 2
 419 0006 4268     		ldr	r2, [r0, #4]
 420 0008 9142     		cmp	r1, r2
 421 000a 09D8     		bhi	.L45
 203:..\lvgl\lv_misc/lv_font.c **** 
 204:..\lvgl\lv_misc/lv_font.c ****     uint32_t index = (unicode_letter - font->unicode_first);
 422              		.loc 1 204 0 is_stmt 1
 423 000c C91A     		subs	r1, r1, r3
 424              	.LVL45:
 205:..\lvgl\lv_misc/lv_font.c ****     return &font->glyph_bitmap[font->glyph_dsc[index].glyph_index];
 425              		.loc 1 205 0
 426 000e 8368     		ldr	r3, [r0, #8]
 427 0010 C268     		ldr	r2, [r0, #12]
 428 0012 52F82100 		ldr	r0, [r2, r1, lsl #2]
 429              	.LVL46:
 430 0016 03EB1020 		add	r0, r3, r0, lsr #8
 431 001a 7047     		bx	lr
 432              	.LVL47:
 433              	.L44:
 202:..\lvgl\lv_misc/lv_font.c **** 
 434              		.loc 1 202 0
 435 001c 0020     		movs	r0, #0
 436              	.LVL48:
 437 001e 7047     		bx	lr
 438              	.LVL49:
 439              	.L45:
 440 0020 0020     		movs	r0, #0
 441              	.LVL50:
 206:..\lvgl\lv_misc/lv_font.c **** }
 442              		.loc 1 206 0
 443 0022 7047     		bx	lr
 444              		.cfi_endproc
 445              	.LFE9:
 446              		.size	lv_font_get_bitmap_continuous, .-lv_font_get_bitmap_continuous
 447              		.section	.text.lv_font_get_bitmap_sparse,"ax",%progbits
 448              		.align	2
 449              		.global	lv_font_get_bitmap_sparse
 450              		.thumb
 451              		.thumb_func
 452              		.type	lv_font_get_bitmap_sparse, %function
 453              	lv_font_get_bitmap_sparse:
 454              	.LFB10:
 207:..\lvgl\lv_misc/lv_font.c **** 
 208:..\lvgl\lv_misc/lv_font.c **** /**
 209:..\lvgl\lv_misc/lv_font.c ****  * Generic bitmap get function used in 'font->get_bitmap' when the font NOT contains all characters
 210:..\lvgl\lv_misc/lv_font.c ****  * @param font pointer to font
 211:..\lvgl\lv_misc/lv_font.c ****  * @param unicode_letter an unicode letter which bitmap should be get
 212:..\lvgl\lv_misc/lv_font.c ****  * @return pointer to the bitmap or NULL if not found
 213:..\lvgl\lv_misc/lv_font.c ****  */
 214:..\lvgl\lv_misc/lv_font.c **** const uint8_t * lv_font_get_bitmap_sparse(const lv_font_t * font, uint32_t unicode_letter)
 215:..\lvgl\lv_misc/lv_font.c **** {
 455              		.loc 1 215 0
 456              		.cfi_startproc
 457              		@ args = 0, pretend = 0, frame = 0
 458              		@ frame_needed = 0, uses_anonymous_args = 0
 459              		@ link register save eliminated.
 460              	.LVL51:
ARM GAS  C:\Users\d3bug\AppData\Local\Temp\ccRilSBU.s 			page 13


 216:..\lvgl\lv_misc/lv_font.c ****     /*Check the range*/
 217:..\lvgl\lv_misc/lv_font.c ****     if(unicode_letter < font->unicode_first || unicode_letter > font->unicode_last) return NULL;
 461              		.loc 1 217 0
 462 0000 0368     		ldr	r3, [r0]
 463 0002 8B42     		cmp	r3, r1
 464 0004 16D8     		bhi	.L51
 465              		.loc 1 217 0 is_stmt 0 discriminator 2
 466 0006 4368     		ldr	r3, [r0, #4]
 467 0008 9942     		cmp	r1, r3
 468 000a 15D8     		bhi	.L52
 215:..\lvgl\lv_misc/lv_font.c ****     /*Check the range*/
 469              		.loc 1 215 0 is_stmt 1
 470 000c 10B4     		push	{r4}
 471              		.cfi_def_cfa_offset 4
 472              		.cfi_offset 4, -4
 473 000e 0023     		movs	r3, #0
 474 0010 08E0     		b	.L48
 475              	.LVL52:
 476              	.L50:
 218:..\lvgl\lv_misc/lv_font.c **** 
 219:..\lvgl\lv_misc/lv_font.c ****     uint32_t i;
 220:..\lvgl\lv_misc/lv_font.c ****     for(i = 0; font->unicode_list[i] != 0; i++) {
 221:..\lvgl\lv_misc/lv_font.c ****         if(font->unicode_list[i] == unicode_letter) {
 477              		.loc 1 221 0
 478 0012 9142     		cmp	r1, r2
 479 0014 05D1     		bne	.L49
 222:..\lvgl\lv_misc/lv_font.c ****             return &font->glyph_bitmap[font->glyph_dsc[i].glyph_index];
 480              		.loc 1 222 0
 481 0016 8368     		ldr	r3, [r0, #8]
 482              	.LVL53:
 483 0018 C268     		ldr	r2, [r0, #12]
 484 001a 1059     		ldr	r0, [r2, r4]
 485              	.LVL54:
 486 001c 03EB1020 		add	r0, r3, r0, lsr #8
 487 0020 0CE0     		b	.L47
 488              	.LVL55:
 489              	.L49:
 220:..\lvgl\lv_misc/lv_font.c ****         if(font->unicode_list[i] == unicode_letter) {
 490              		.loc 1 220 0 discriminator 2
 491 0022 0133     		adds	r3, r3, #1
 492              	.LVL56:
 493              	.L48:
 220:..\lvgl\lv_misc/lv_font.c ****         if(font->unicode_list[i] == unicode_letter) {
 494              		.loc 1 220 0 is_stmt 0 discriminator 1
 495 0024 0269     		ldr	r2, [r0, #16]
 496 0026 9C00     		lsls	r4, r3, #2
 497 0028 52F82320 		ldr	r2, [r2, r3, lsl #2]
 498 002c 002A     		cmp	r2, #0
 499 002e F0D1     		bne	.L50
 223:..\lvgl\lv_misc/lv_font.c ****         }
 224:..\lvgl\lv_misc/lv_font.c ****     }
 225:..\lvgl\lv_misc/lv_font.c **** 
 226:..\lvgl\lv_misc/lv_font.c ****     return NULL;
 500              		.loc 1 226 0 is_stmt 1
 501 0030 0020     		movs	r0, #0
 502              	.LVL57:
 503 0032 03E0     		b	.L47
ARM GAS  C:\Users\d3bug\AppData\Local\Temp\ccRilSBU.s 			page 14


 504              	.LVL58:
 505              	.L51:
 506              		.cfi_def_cfa_offset 0
 507              		.cfi_restore 4
 217:..\lvgl\lv_misc/lv_font.c **** 
 508              		.loc 1 217 0
 509 0034 0020     		movs	r0, #0
 510              	.LVL59:
 511 0036 7047     		bx	lr
 512              	.LVL60:
 513              	.L52:
 514 0038 0020     		movs	r0, #0
 515              	.LVL61:
 516 003a 7047     		bx	lr
 517              	.L47:
 518              		.cfi_def_cfa_offset 4
 519              		.cfi_offset 4, -4
 227:..\lvgl\lv_misc/lv_font.c **** }
 520              		.loc 1 227 0
 521 003c 10BC     		pop	{r4}
 522              		.cfi_restore 4
 523              		.cfi_def_cfa_offset 0
 524 003e 7047     		bx	lr
 525              		.cfi_endproc
 526              	.LFE10:
 527              		.size	lv_font_get_bitmap_sparse, .-lv_font_get_bitmap_sparse
 528              		.section	.text.lv_font_get_width_continuous,"ax",%progbits
 529              		.align	2
 530              		.global	lv_font_get_width_continuous
 531              		.thumb
 532              		.thumb_func
 533              		.type	lv_font_get_width_continuous, %function
 534              	lv_font_get_width_continuous:
 535              	.LFB11:
 228:..\lvgl\lv_misc/lv_font.c **** 
 229:..\lvgl\lv_misc/lv_font.c **** /**
 230:..\lvgl\lv_misc/lv_font.c ****  * Generic glyph width get function used in 'font->get_width' when the font contains all characters
 231:..\lvgl\lv_misc/lv_font.c ****  * @param font pointer to font
 232:..\lvgl\lv_misc/lv_font.c ****  * @param unicode_letter an unicode letter which width should be get
 233:..\lvgl\lv_misc/lv_font.c ****  * @return width of the gylph or -1 if not found
 234:..\lvgl\lv_misc/lv_font.c ****  */
 235:..\lvgl\lv_misc/lv_font.c **** int16_t lv_font_get_width_continuous(const lv_font_t * font, uint32_t unicode_letter)
 236:..\lvgl\lv_misc/lv_font.c **** {
 536              		.loc 1 236 0
 537              		.cfi_startproc
 538              		@ args = 0, pretend = 0, frame = 0
 539              		@ frame_needed = 0, uses_anonymous_args = 0
 540              		@ link register save eliminated.
 541              	.LVL62:
 237:..\lvgl\lv_misc/lv_font.c ****     /*Check the range*/
 238:..\lvgl\lv_misc/lv_font.c ****     if(unicode_letter < font->unicode_first || unicode_letter > font->unicode_last) {
 542              		.loc 1 238 0
 543 0000 0368     		ldr	r3, [r0]
 544 0002 8B42     		cmp	r3, r1
 545 0004 07D8     		bhi	.L57
 546              		.loc 1 238 0 is_stmt 0 discriminator 1
 547 0006 4268     		ldr	r2, [r0, #4]
ARM GAS  C:\Users\d3bug\AppData\Local\Temp\ccRilSBU.s 			page 15


 548 0008 9142     		cmp	r1, r2
 549 000a 07D8     		bhi	.L58
 239:..\lvgl\lv_misc/lv_font.c ****         return -1;
 240:..\lvgl\lv_misc/lv_font.c ****     }
 241:..\lvgl\lv_misc/lv_font.c **** 
 242:..\lvgl\lv_misc/lv_font.c ****     uint32_t index = (unicode_letter - font->unicode_first);
 550              		.loc 1 242 0 is_stmt 1
 551 000c C91A     		subs	r1, r1, r3
 552              	.LVL63:
 243:..\lvgl\lv_misc/lv_font.c ****     return font->glyph_dsc[index].w_px;
 553              		.loc 1 243 0
 554 000e C368     		ldr	r3, [r0, #12]
 555 0010 13F82100 		ldrb	r0, [r3, r1, lsl #2]	@ zero_extendqisi2
 556              	.LVL64:
 557 0014 7047     		bx	lr
 558              	.LVL65:
 559              	.L57:
 239:..\lvgl\lv_misc/lv_font.c ****         return -1;
 560              		.loc 1 239 0
 561 0016 4FF0FF30 		mov	r0, #-1
 562              	.LVL66:
 563 001a 7047     		bx	lr
 564              	.LVL67:
 565              	.L58:
 566 001c 4FF0FF30 		mov	r0, #-1
 567              	.LVL68:
 244:..\lvgl\lv_misc/lv_font.c **** }
 568              		.loc 1 244 0
 569 0020 7047     		bx	lr
 570              		.cfi_endproc
 571              	.LFE11:
 572              		.size	lv_font_get_width_continuous, .-lv_font_get_width_continuous
 573 0022 00BF     		.section	.text.lv_font_get_width_sparse,"ax",%progbits
 574              		.align	2
 575              		.global	lv_font_get_width_sparse
 576              		.thumb
 577              		.thumb_func
 578              		.type	lv_font_get_width_sparse, %function
 579              	lv_font_get_width_sparse:
 580              	.LFB12:
 245:..\lvgl\lv_misc/lv_font.c **** 
 246:..\lvgl\lv_misc/lv_font.c **** /**
 247:..\lvgl\lv_misc/lv_font.c ****  * Generic glyph width get function used in 'font->get_bitmap' when the font NOT contains all chara
 248:..\lvgl\lv_misc/lv_font.c ****  * @param font pointer to font
 249:..\lvgl\lv_misc/lv_font.c ****  * @param unicode_letter an unicode letter which width should be get
 250:..\lvgl\lv_misc/lv_font.c ****  * @return width of the glyph or -1 if not found
 251:..\lvgl\lv_misc/lv_font.c ****  */
 252:..\lvgl\lv_misc/lv_font.c **** int16_t lv_font_get_width_sparse(const lv_font_t * font, uint32_t unicode_letter)
 253:..\lvgl\lv_misc/lv_font.c **** {
 581              		.loc 1 253 0
 582              		.cfi_startproc
 583              		@ args = 0, pretend = 0, frame = 0
 584              		@ frame_needed = 0, uses_anonymous_args = 0
 585              		@ link register save eliminated.
 586              	.LVL69:
 254:..\lvgl\lv_misc/lv_font.c ****     /*Check the range*/
 255:..\lvgl\lv_misc/lv_font.c ****     if(unicode_letter < font->unicode_first || unicode_letter > font->unicode_last) return -1;
ARM GAS  C:\Users\d3bug\AppData\Local\Temp\ccRilSBU.s 			page 16


 587              		.loc 1 255 0
 588 0000 0368     		ldr	r3, [r0]
 589 0002 8B42     		cmp	r3, r1
 590 0004 14D8     		bhi	.L64
 591              		.loc 1 255 0 is_stmt 0 discriminator 2
 592 0006 4368     		ldr	r3, [r0, #4]
 593 0008 9942     		cmp	r1, r3
 594 000a 14D8     		bhi	.L65
 253:..\lvgl\lv_misc/lv_font.c ****     /*Check the range*/
 595              		.loc 1 253 0 is_stmt 1
 596 000c 10B4     		push	{r4}
 597              		.cfi_def_cfa_offset 4
 598              		.cfi_offset 4, -4
 599 000e 0023     		movs	r3, #0
 600 0010 05E0     		b	.L61
 601              	.LVL70:
 602              	.L63:
 256:..\lvgl\lv_misc/lv_font.c **** 
 257:..\lvgl\lv_misc/lv_font.c ****     uint32_t i;
 258:..\lvgl\lv_misc/lv_font.c ****     for(i = 0; font->unicode_list[i] != 0; i++) {
 259:..\lvgl\lv_misc/lv_font.c ****         if(font->unicode_list[i] == unicode_letter) {
 603              		.loc 1 259 0
 604 0012 9142     		cmp	r1, r2
 605 0014 02D1     		bne	.L62
 260:..\lvgl\lv_misc/lv_font.c ****             return font->glyph_dsc[i].w_px;
 606              		.loc 1 260 0
 607 0016 C368     		ldr	r3, [r0, #12]
 608              	.LVL71:
 609 0018 185D     		ldrb	r0, [r3, r4]	@ zero_extendqisi2
 610              	.LVL72:
 611 001a 0FE0     		b	.L60
 612              	.LVL73:
 613              	.L62:
 258:..\lvgl\lv_misc/lv_font.c ****         if(font->unicode_list[i] == unicode_letter) {
 614              		.loc 1 258 0 discriminator 2
 615 001c 0133     		adds	r3, r3, #1
 616              	.LVL74:
 617              	.L61:
 258:..\lvgl\lv_misc/lv_font.c ****         if(font->unicode_list[i] == unicode_letter) {
 618              		.loc 1 258 0 is_stmt 0 discriminator 1
 619 001e 0269     		ldr	r2, [r0, #16]
 620 0020 9C00     		lsls	r4, r3, #2
 621 0022 52F82320 		ldr	r2, [r2, r3, lsl #2]
 622 0026 002A     		cmp	r2, #0
 623 0028 F3D1     		bne	.L63
 261:..\lvgl\lv_misc/lv_font.c ****         }
 262:..\lvgl\lv_misc/lv_font.c ****     }
 263:..\lvgl\lv_misc/lv_font.c **** 
 264:..\lvgl\lv_misc/lv_font.c ****     return -1;
 624              		.loc 1 264 0 is_stmt 1
 625 002a 4FF0FF30 		mov	r0, #-1
 626              	.LVL75:
 627 002e 05E0     		b	.L60
 628              	.LVL76:
 629              	.L64:
 630              		.cfi_def_cfa_offset 0
 631              		.cfi_restore 4
ARM GAS  C:\Users\d3bug\AppData\Local\Temp\ccRilSBU.s 			page 17


 255:..\lvgl\lv_misc/lv_font.c **** 
 632              		.loc 1 255 0
 633 0030 4FF0FF30 		mov	r0, #-1
 634              	.LVL77:
 635 0034 7047     		bx	lr
 636              	.LVL78:
 637              	.L65:
 638 0036 4FF0FF30 		mov	r0, #-1
 639              	.LVL79:
 640 003a 7047     		bx	lr
 641              	.L60:
 642              		.cfi_def_cfa_offset 4
 643              		.cfi_offset 4, -4
 265:..\lvgl\lv_misc/lv_font.c **** }
 644              		.loc 1 265 0
 645 003c 10BC     		pop	{r4}
 646              		.cfi_restore 4
 647              		.cfi_def_cfa_offset 0
 648 003e 7047     		bx	lr
 649              		.cfi_endproc
 650              	.LFE12:
 651              		.size	lv_font_get_width_sparse, .-lv_font_get_width_sparse
 652              		.text
 653              	.Letext0:
 654              		.file 2 "c:\\program files (x86)\\cypress\\psoc creator\\4.2\\psoc creator\\import\\gnu\\arm\\5.4.
 655              		.file 3 "c:\\program files (x86)\\cypress\\psoc creator\\4.2\\psoc creator\\import\\gnu\\arm\\5.4.
 656              		.file 4 "..\\lvgl\\lv_misc\\lv_font.h"
 657              		.file 5 "..\\lvgl\\lv_misc\\../lv_fonts/lv_font_builtin.h"