ARM GAS  C:\Users\d3bug\AppData\Local\Temp\ccOo7w1g.s 			page 1


   1              		.syntax unified
   2              		.cpu cortex-m3
   3              		.fpu softvfp
   4              		.eabi_attribute 20, 1
   5              		.eabi_attribute 21, 1
   6              		.eabi_attribute 23, 3
   7              		.eabi_attribute 24, 1
   8              		.eabi_attribute 25, 1
   9              		.eabi_attribute 26, 1
  10              		.eabi_attribute 30, 1
  11              		.eabi_attribute 34, 1
  12              		.eabi_attribute 18, 4
  13              		.thumb
  14              		.syntax unified
  15              		.file	"lv_hal_disp.c"
  16              		.text
  17              	.Ltext0:
  18              		.cfi_sections	.debug_frame
  19              		.section	.text.lv_disp_drv_init,"ax",%progbits
  20              		.align	2
  21              		.global	lv_disp_drv_init
  22              		.thumb
  23              		.thumb_func
  24              		.type	lv_disp_drv_init, %function
  25              	lv_disp_drv_init:
  26              	.LFB12:
  27              		.file 1 "..\\lvgl\\lv_hal\\lv_hal_disp.c"
   1:..\lvgl\lv_hal/lv_hal_disp.c **** 
   2:..\lvgl\lv_hal/lv_hal_disp.c **** /**
   3:..\lvgl\lv_hal/lv_hal_disp.c ****  * @file hal_disp.c
   4:..\lvgl\lv_hal/lv_hal_disp.c ****  *
   5:..\lvgl\lv_hal/lv_hal_disp.c ****  * @description HAL layer for display driver
   6:..\lvgl\lv_hal/lv_hal_disp.c ****  *
   7:..\lvgl\lv_hal/lv_hal_disp.c ****  */
   8:..\lvgl\lv_hal/lv_hal_disp.c **** 
   9:..\lvgl\lv_hal/lv_hal_disp.c **** /*********************
  10:..\lvgl\lv_hal/lv_hal_disp.c ****  *      INCLUDES
  11:..\lvgl\lv_hal/lv_hal_disp.c ****  *********************/
  12:..\lvgl\lv_hal/lv_hal_disp.c **** #include <stdint.h>
  13:..\lvgl\lv_hal/lv_hal_disp.c **** #include <stddef.h>
  14:..\lvgl\lv_hal/lv_hal_disp.c **** #include "../lv_hal/lv_hal_disp.h"
  15:..\lvgl\lv_hal/lv_hal_disp.c **** #include "../lv_misc/lv_mem.h"
  16:..\lvgl\lv_hal/lv_hal_disp.c **** #include "../lv_core/lv_obj.h"
  17:..\lvgl\lv_hal/lv_hal_disp.c **** #include "../lv_misc/lv_gc.h"
  18:..\lvgl\lv_hal/lv_hal_disp.c **** 
  19:..\lvgl\lv_hal/lv_hal_disp.c **** #if defined(LV_GC_INCLUDE)
  20:..\lvgl\lv_hal/lv_hal_disp.c **** #   include LV_GC_INCLUDE
  21:..\lvgl\lv_hal/lv_hal_disp.c **** #endif /* LV_ENABLE_GC */
  22:..\lvgl\lv_hal/lv_hal_disp.c **** 
  23:..\lvgl\lv_hal/lv_hal_disp.c **** 
  24:..\lvgl\lv_hal/lv_hal_disp.c **** /*********************
  25:..\lvgl\lv_hal/lv_hal_disp.c ****  *      DEFINES
  26:..\lvgl\lv_hal/lv_hal_disp.c ****  *********************/
  27:..\lvgl\lv_hal/lv_hal_disp.c **** 
  28:..\lvgl\lv_hal/lv_hal_disp.c **** /**********************
  29:..\lvgl\lv_hal/lv_hal_disp.c ****  *      TYPEDEFS
  30:..\lvgl\lv_hal/lv_hal_disp.c ****  **********************/
ARM GAS  C:\Users\d3bug\AppData\Local\Temp\ccOo7w1g.s 			page 2


  31:..\lvgl\lv_hal/lv_hal_disp.c **** 
  32:..\lvgl\lv_hal/lv_hal_disp.c **** /**********************
  33:..\lvgl\lv_hal/lv_hal_disp.c ****  *  STATIC PROTOTYPES
  34:..\lvgl\lv_hal/lv_hal_disp.c ****  **********************/
  35:..\lvgl\lv_hal/lv_hal_disp.c **** 
  36:..\lvgl\lv_hal/lv_hal_disp.c **** /**********************
  37:..\lvgl\lv_hal/lv_hal_disp.c ****  *  STATIC VARIABLES
  38:..\lvgl\lv_hal/lv_hal_disp.c ****  **********************/
  39:..\lvgl\lv_hal/lv_hal_disp.c **** static lv_disp_t * active;
  40:..\lvgl\lv_hal/lv_hal_disp.c **** 
  41:..\lvgl\lv_hal/lv_hal_disp.c **** /**********************
  42:..\lvgl\lv_hal/lv_hal_disp.c ****  *      MACROS
  43:..\lvgl\lv_hal/lv_hal_disp.c ****  **********************/
  44:..\lvgl\lv_hal/lv_hal_disp.c **** 
  45:..\lvgl\lv_hal/lv_hal_disp.c **** /**********************
  46:..\lvgl\lv_hal/lv_hal_disp.c ****  *   GLOBAL FUNCTIONS
  47:..\lvgl\lv_hal/lv_hal_disp.c ****  **********************/
  48:..\lvgl\lv_hal/lv_hal_disp.c **** 
  49:..\lvgl\lv_hal/lv_hal_disp.c **** /**
  50:..\lvgl\lv_hal/lv_hal_disp.c ****  * Initialize a display driver with default values.
  51:..\lvgl\lv_hal/lv_hal_disp.c ****  * It is used to surly have known values in the fields ant not memory junk.
  52:..\lvgl\lv_hal/lv_hal_disp.c ****  * After it you can set the fields.
  53:..\lvgl\lv_hal/lv_hal_disp.c ****  * @param driver pointer to driver variable to initialize
  54:..\lvgl\lv_hal/lv_hal_disp.c ****  */
  55:..\lvgl\lv_hal/lv_hal_disp.c **** void lv_disp_drv_init(lv_disp_drv_t * driver)
  56:..\lvgl\lv_hal/lv_hal_disp.c **** {
  28              		.loc 1 56 0
  29              		.cfi_startproc
  30              		@ args = 0, pretend = 0, frame = 0
  31              		@ frame_needed = 0, uses_anonymous_args = 0
  32              		@ link register save eliminated.
  33              	.LVL0:
  57:..\lvgl\lv_hal/lv_hal_disp.c ****     driver->disp_fill = NULL;
  34              		.loc 1 57 0
  35 0000 0023     		movs	r3, #0
  36 0002 4360     		str	r3, [r0, #4]
  58:..\lvgl\lv_hal/lv_hal_disp.c ****     driver->disp_map = NULL;
  37              		.loc 1 58 0
  38 0004 8360     		str	r3, [r0, #8]
  59:..\lvgl\lv_hal/lv_hal_disp.c ****     driver->disp_flush = NULL;
  39              		.loc 1 59 0
  40 0006 0360     		str	r3, [r0]
  60:..\lvgl\lv_hal/lv_hal_disp.c **** 
  61:..\lvgl\lv_hal/lv_hal_disp.c **** #if USE_LV_GPU
  62:..\lvgl\lv_hal/lv_hal_disp.c ****     driver->mem_blend = NULL;
  63:..\lvgl\lv_hal/lv_hal_disp.c ****     driver->mem_fill = NULL;
  64:..\lvgl\lv_hal/lv_hal_disp.c **** #endif
  65:..\lvgl\lv_hal/lv_hal_disp.c **** 
  66:..\lvgl\lv_hal/lv_hal_disp.c **** #if LV_VDB_SIZE
  67:..\lvgl\lv_hal/lv_hal_disp.c ****     driver->vdb_wr = NULL;
  41              		.loc 1 67 0
  42 0008 C360     		str	r3, [r0, #12]
  43 000a 7047     		bx	lr
  44              		.cfi_endproc
  45              	.LFE12:
  46              		.size	lv_disp_drv_init, .-lv_disp_drv_init
  47              		.section	.text.lv_disp_drv_register,"ax",%progbits
ARM GAS  C:\Users\d3bug\AppData\Local\Temp\ccOo7w1g.s 			page 3


  48              		.align	2
  49              		.global	lv_disp_drv_register
  50              		.thumb
  51              		.thumb_func
  52              		.type	lv_disp_drv_register, %function
  53              	lv_disp_drv_register:
  54              	.LFB13:
  68:..\lvgl\lv_hal/lv_hal_disp.c **** #endif
  69:..\lvgl\lv_hal/lv_hal_disp.c **** }
  70:..\lvgl\lv_hal/lv_hal_disp.c **** 
  71:..\lvgl\lv_hal/lv_hal_disp.c **** /**
  72:..\lvgl\lv_hal/lv_hal_disp.c ****  * Register an initialized display driver.
  73:..\lvgl\lv_hal/lv_hal_disp.c ****  * Automatically set the first display as active.
  74:..\lvgl\lv_hal/lv_hal_disp.c ****  * @param driver pointer to an initialized 'lv_disp_drv_t' variable (can be local variable)
  75:..\lvgl\lv_hal/lv_hal_disp.c ****  * @return pointer to the new display or NULL on error
  76:..\lvgl\lv_hal/lv_hal_disp.c ****  */
  77:..\lvgl\lv_hal/lv_hal_disp.c **** lv_disp_t * lv_disp_drv_register(lv_disp_drv_t * driver)
  78:..\lvgl\lv_hal/lv_hal_disp.c **** {
  55              		.loc 1 78 0
  56              		.cfi_startproc
  57              		@ args = 0, pretend = 0, frame = 0
  58              		@ frame_needed = 0, uses_anonymous_args = 0
  59              	.LVL1:
  60 0000 38B5     		push	{r3, r4, r5, lr}
  61              		.cfi_def_cfa_offset 16
  62              		.cfi_offset 3, -16
  63              		.cfi_offset 4, -12
  64              		.cfi_offset 5, -8
  65              		.cfi_offset 14, -4
  66 0002 0546     		mov	r5, r0
  79:..\lvgl\lv_hal/lv_hal_disp.c ****     lv_disp_t * node;
  80:..\lvgl\lv_hal/lv_hal_disp.c **** 
  81:..\lvgl\lv_hal/lv_hal_disp.c ****     node = lv_mem_alloc(sizeof(lv_disp_t));
  67              		.loc 1 81 0
  68 0004 1420     		movs	r0, #20
  69              	.LVL2:
  70 0006 FFF7FEFF 		bl	lv_mem_alloc
  71              	.LVL3:
  82:..\lvgl\lv_hal/lv_hal_disp.c ****     lv_mem_assert(node);
  72              		.loc 1 82 0
  73 000a 30B9     		cbnz	r0, .L3
  74              		.loc 1 82 0 is_stmt 0 discriminator 1
  75 000c 124B     		ldr	r3, .L9
  76 000e 5222     		movs	r2, #82
  77 0010 1249     		ldr	r1, .L9+4
  78 0012 0320     		movs	r0, #3
  79              	.LVL4:
  80 0014 FFF7FEFF 		bl	lv_log_add
  81              	.LVL5:
  82              	.L4:
  83 0018 FEE7     		b	.L4
  84              	.LVL6:
  85              	.L3:
  86 001a 0446     		mov	r4, r0
  83:..\lvgl\lv_hal/lv_hal_disp.c ****     if(node == NULL) return NULL;
  87              		.loc 1 83 0 is_stmt 1
  88 001c C8B1     		cbz	r0, .L7
ARM GAS  C:\Users\d3bug\AppData\Local\Temp\ccOo7w1g.s 			page 4


  84:..\lvgl\lv_hal/lv_hal_disp.c **** 
  85:..\lvgl\lv_hal/lv_hal_disp.c ****     memcpy(&node->driver, driver, sizeof(lv_disp_drv_t));
  89              		.loc 1 85 0
  90 001e 2868     		ldr	r0, [r5]	@ unaligned
  91              	.LVL7:
  92 0020 6968     		ldr	r1, [r5, #4]	@ unaligned
  93 0022 AA68     		ldr	r2, [r5, #8]	@ unaligned
  94 0024 EB68     		ldr	r3, [r5, #12]	@ unaligned
  95 0026 2060     		str	r0, [r4]	@ unaligned
  96 0028 6160     		str	r1, [r4, #4]	@ unaligned
  97 002a A260     		str	r2, [r4, #8]	@ unaligned
  98 002c E360     		str	r3, [r4, #12]	@ unaligned
  86:..\lvgl\lv_hal/lv_hal_disp.c ****     node->next = NULL;
  99              		.loc 1 86 0
 100 002e 0023     		movs	r3, #0
 101 0030 2361     		str	r3, [r4, #16]
  87:..\lvgl\lv_hal/lv_hal_disp.c **** 
  88:..\lvgl\lv_hal/lv_hal_disp.c ****     /* Set first display as active by default */
  89:..\lvgl\lv_hal/lv_hal_disp.c ****     if(LV_GC_ROOT(_lv_disp_list) == NULL) {
 102              		.loc 1 89 0
 103 0032 0B4B     		ldr	r3, .L9+8
 104 0034 1B68     		ldr	r3, [r3]
 105 0036 4BB9     		cbnz	r3, .L6
  90:..\lvgl\lv_hal/lv_hal_disp.c ****         LV_GC_ROOT(_lv_disp_list) = node;
 106              		.loc 1 90 0
 107 0038 094B     		ldr	r3, .L9+8
 108 003a 1C60     		str	r4, [r3]
  91:..\lvgl\lv_hal/lv_hal_disp.c ****         active = node;
 109              		.loc 1 91 0
 110 003c 094B     		ldr	r3, .L9+12
 111 003e 1C60     		str	r4, [r3]
  92:..\lvgl\lv_hal/lv_hal_disp.c ****         lv_obj_invalidate(lv_scr_act());
 112              		.loc 1 92 0
 113 0040 FFF7FEFF 		bl	lv_scr_act
 114              	.LVL8:
 115 0044 FFF7FEFF 		bl	lv_obj_invalidate
 116              	.LVL9:
  93:..\lvgl\lv_hal/lv_hal_disp.c ****     } else {
  94:..\lvgl\lv_hal/lv_hal_disp.c ****         ((lv_disp_t*)LV_GC_ROOT(_lv_disp_list))->next = node;
  95:..\lvgl\lv_hal/lv_hal_disp.c ****     }
  96:..\lvgl\lv_hal/lv_hal_disp.c **** 
  97:..\lvgl\lv_hal/lv_hal_disp.c ****     return node;
 117              		.loc 1 97 0
 118 0048 2046     		mov	r0, r4
 119 004a 38BD     		pop	{r3, r4, r5, pc}
 120              	.LVL10:
 121              	.L6:
  94:..\lvgl\lv_hal/lv_hal_disp.c ****     }
 122              		.loc 1 94 0
 123 004c 1C61     		str	r4, [r3, #16]
 124              		.loc 1 97 0
 125 004e 2046     		mov	r0, r4
 126 0050 38BD     		pop	{r3, r4, r5, pc}
 127              	.LVL11:
 128              	.L7:
  83:..\lvgl\lv_hal/lv_hal_disp.c **** 
 129              		.loc 1 83 0
ARM GAS  C:\Users\d3bug\AppData\Local\Temp\ccOo7w1g.s 			page 5


 130 0052 0020     		movs	r0, #0
 131              	.LVL12:
  98:..\lvgl\lv_hal/lv_hal_disp.c **** }
 132              		.loc 1 98 0
 133 0054 38BD     		pop	{r3, r4, r5, pc}
 134              	.LVL13:
 135              	.L10:
 136 0056 00BF     		.align	2
 137              	.L9:
 138 0058 00000000 		.word	.LC0
 139 005c 10000000 		.word	.LC1
 140 0060 00000000 		.word	_lv_disp_list
 141 0064 00000000 		.word	.LANCHOR0
 142              		.cfi_endproc
 143              	.LFE13:
 144              		.size	lv_disp_drv_register, .-lv_disp_drv_register
 145              		.section	.text.lv_disp_set_active,"ax",%progbits
 146              		.align	2
 147              		.global	lv_disp_set_active
 148              		.thumb
 149              		.thumb_func
 150              		.type	lv_disp_set_active, %function
 151              	lv_disp_set_active:
 152              	.LFB14:
  99:..\lvgl\lv_hal/lv_hal_disp.c **** 
 100:..\lvgl\lv_hal/lv_hal_disp.c **** 
 101:..\lvgl\lv_hal/lv_hal_disp.c **** /**
 102:..\lvgl\lv_hal/lv_hal_disp.c ****  * Set the active display
 103:..\lvgl\lv_hal/lv_hal_disp.c ****  * @param disp pointer to a display (return value of 'lv_disp_register')
 104:..\lvgl\lv_hal/lv_hal_disp.c ****  */
 105:..\lvgl\lv_hal/lv_hal_disp.c **** void lv_disp_set_active(lv_disp_t * disp)
 106:..\lvgl\lv_hal/lv_hal_disp.c **** {
 153              		.loc 1 106 0
 154              		.cfi_startproc
 155              		@ args = 0, pretend = 0, frame = 0
 156              		@ frame_needed = 0, uses_anonymous_args = 0
 157              	.LVL14:
 158 0000 08B5     		push	{r3, lr}
 159              		.cfi_def_cfa_offset 8
 160              		.cfi_offset 3, -8
 161              		.cfi_offset 14, -4
 107:..\lvgl\lv_hal/lv_hal_disp.c ****     active = disp;
 162              		.loc 1 107 0
 163 0002 034B     		ldr	r3, .L13
 164 0004 1860     		str	r0, [r3]
 108:..\lvgl\lv_hal/lv_hal_disp.c ****     lv_obj_invalidate(lv_scr_act());
 165              		.loc 1 108 0
 166 0006 FFF7FEFF 		bl	lv_scr_act
 167              	.LVL15:
 168 000a FFF7FEFF 		bl	lv_obj_invalidate
 169              	.LVL16:
 170 000e 08BD     		pop	{r3, pc}
 171              	.L14:
 172              		.align	2
 173              	.L13:
 174 0010 00000000 		.word	.LANCHOR0
 175              		.cfi_endproc
ARM GAS  C:\Users\d3bug\AppData\Local\Temp\ccOo7w1g.s 			page 6


 176              	.LFE14:
 177              		.size	lv_disp_set_active, .-lv_disp_set_active
 178              		.section	.text.lv_disp_get_active,"ax",%progbits
 179              		.align	2
 180              		.global	lv_disp_get_active
 181              		.thumb
 182              		.thumb_func
 183              		.type	lv_disp_get_active, %function
 184              	lv_disp_get_active:
 185              	.LFB15:
 109:..\lvgl\lv_hal/lv_hal_disp.c **** }
 110:..\lvgl\lv_hal/lv_hal_disp.c **** 
 111:..\lvgl\lv_hal/lv_hal_disp.c **** /**
 112:..\lvgl\lv_hal/lv_hal_disp.c ****  * Get a pointer to the active display
 113:..\lvgl\lv_hal/lv_hal_disp.c ****  * @return pointer to the active display
 114:..\lvgl\lv_hal/lv_hal_disp.c ****  */
 115:..\lvgl\lv_hal/lv_hal_disp.c **** lv_disp_t * lv_disp_get_active(void)
 116:..\lvgl\lv_hal/lv_hal_disp.c **** {
 186              		.loc 1 116 0
 187              		.cfi_startproc
 188              		@ args = 0, pretend = 0, frame = 0
 189              		@ frame_needed = 0, uses_anonymous_args = 0
 190              		@ link register save eliminated.
 117:..\lvgl\lv_hal/lv_hal_disp.c ****     return active;
 118:..\lvgl\lv_hal/lv_hal_disp.c **** }
 191              		.loc 1 118 0
 192 0000 014B     		ldr	r3, .L16
 193 0002 1868     		ldr	r0, [r3]
 194 0004 7047     		bx	lr
 195              	.L17:
 196 0006 00BF     		.align	2
 197              	.L16:
 198 0008 00000000 		.word	.LANCHOR0
 199              		.cfi_endproc
 200              	.LFE15:
 201              		.size	lv_disp_get_active, .-lv_disp_get_active
 202              		.section	.text.lv_disp_next,"ax",%progbits
 203              		.align	2
 204              		.global	lv_disp_next
 205              		.thumb
 206              		.thumb_func
 207              		.type	lv_disp_next, %function
 208              	lv_disp_next:
 209              	.LFB16:
 119:..\lvgl\lv_hal/lv_hal_disp.c **** 
 120:..\lvgl\lv_hal/lv_hal_disp.c **** /**
 121:..\lvgl\lv_hal/lv_hal_disp.c ****  * Get the next display.
 122:..\lvgl\lv_hal/lv_hal_disp.c ****  * @param disp pointer to the current display. NULL to initialize.
 123:..\lvgl\lv_hal/lv_hal_disp.c ****  * @return the next display or NULL if no more. Give the first display when the parameter is NULL
 124:..\lvgl\lv_hal/lv_hal_disp.c ****  */
 125:..\lvgl\lv_hal/lv_hal_disp.c **** lv_disp_t * lv_disp_next(lv_disp_t * disp)
 126:..\lvgl\lv_hal/lv_hal_disp.c **** {
 210              		.loc 1 126 0
 211              		.cfi_startproc
 212              		@ args = 0, pretend = 0, frame = 0
 213              		@ frame_needed = 0, uses_anonymous_args = 0
 214              		@ link register save eliminated.
ARM GAS  C:\Users\d3bug\AppData\Local\Temp\ccOo7w1g.s 			page 7


 215              	.LVL17:
 127:..\lvgl\lv_hal/lv_hal_disp.c ****     if(disp == NULL) {
 216              		.loc 1 127 0
 217 0000 10B9     		cbnz	r0, .L19
 128:..\lvgl\lv_hal/lv_hal_disp.c ****         return LV_GC_ROOT(_lv_disp_list);
 218              		.loc 1 128 0
 219 0002 034B     		ldr	r3, .L21
 220 0004 1868     		ldr	r0, [r3]
 221              	.LVL18:
 222 0006 7047     		bx	lr
 223              	.LVL19:
 224              	.L19:
 129:..\lvgl\lv_hal/lv_hal_disp.c ****     } else {
 130:..\lvgl\lv_hal/lv_hal_disp.c ****         if(((lv_disp_t*)LV_GC_ROOT(_lv_disp_list))->next == NULL) return NULL;
 225              		.loc 1 130 0
 226 0008 014B     		ldr	r3, .L21
 227 000a 1B68     		ldr	r3, [r3]
 228 000c 1869     		ldr	r0, [r3, #16]
 229              	.LVL20:
 131:..\lvgl\lv_hal/lv_hal_disp.c ****         else return ((lv_disp_t*)LV_GC_ROOT(_lv_disp_list))->next;
 132:..\lvgl\lv_hal/lv_hal_disp.c ****     }
 133:..\lvgl\lv_hal/lv_hal_disp.c **** }
 230              		.loc 1 133 0
 231 000e 7047     		bx	lr
 232              	.L22:
 233              		.align	2
 234              	.L21:
 235 0010 00000000 		.word	_lv_disp_list
 236              		.cfi_endproc
 237              	.LFE16:
 238              		.size	lv_disp_next, .-lv_disp_next
 239              		.section	.text.lv_disp_fill,"ax",%progbits
 240              		.align	2
 241              		.global	lv_disp_fill
 242              		.thumb
 243              		.thumb_func
 244              		.type	lv_disp_fill, %function
 245              	lv_disp_fill:
 246              	.LFB17:
 134:..\lvgl\lv_hal/lv_hal_disp.c **** 
 135:..\lvgl\lv_hal/lv_hal_disp.c **** /**
 136:..\lvgl\lv_hal/lv_hal_disp.c ****  * Write the content of the internal buffer (VDB) to the display
 137:..\lvgl\lv_hal/lv_hal_disp.c ****  * @param x1 left coordinate of the rectangle
 138:..\lvgl\lv_hal/lv_hal_disp.c ****  * @param x2 right coordinate of the rectangle
 139:..\lvgl\lv_hal/lv_hal_disp.c ****  * @param y1 top coordinate of the rectangle
 140:..\lvgl\lv_hal/lv_hal_disp.c ****  * @param y2 bottom coordinate of the rectangle
 141:..\lvgl\lv_hal/lv_hal_disp.c ****  * @param color_p fill color
 142:..\lvgl\lv_hal/lv_hal_disp.c ****  */
 143:..\lvgl\lv_hal/lv_hal_disp.c **** void lv_disp_fill(int32_t x1, int32_t y1, int32_t x2, int32_t y2, lv_color_t color)
 144:..\lvgl\lv_hal/lv_hal_disp.c **** {
 247              		.loc 1 144 0
 248              		.cfi_startproc
 249              		@ args = 4, pretend = 0, frame = 0
 250              		@ frame_needed = 0, uses_anonymous_args = 0
 251              	.LVL21:
 252 0000 30B5     		push	{r4, r5, lr}
 253              		.cfi_def_cfa_offset 12
ARM GAS  C:\Users\d3bug\AppData\Local\Temp\ccOo7w1g.s 			page 8


 254              		.cfi_offset 4, -12
 255              		.cfi_offset 5, -8
 256              		.cfi_offset 14, -4
 257 0002 83B0     		sub	sp, sp, #12
 258              		.cfi_def_cfa_offset 24
 259 0004 9DF81850 		ldrb	r5, [sp, #24]	@ zero_extendqisi2
 145:..\lvgl\lv_hal/lv_hal_disp.c ****     if(active == NULL) return;
 260              		.loc 1 145 0
 261 0008 044C     		ldr	r4, .L26
 262 000a 2468     		ldr	r4, [r4]
 263 000c 24B1     		cbz	r4, .L23
 146:..\lvgl\lv_hal/lv_hal_disp.c ****     if(active->driver.disp_fill != NULL) active->driver.disp_fill(x1, y1, x2, y2, color);
 264              		.loc 1 146 0
 265 000e 6468     		ldr	r4, [r4, #4]
 266 0010 14B1     		cbz	r4, .L23
 267              		.loc 1 146 0 is_stmt 0 discriminator 1
 268 0012 8DF80050 		strb	r5, [sp]
 269 0016 A047     		blx	r4
 270              	.LVL22:
 271              	.L23:
 147:..\lvgl\lv_hal/lv_hal_disp.c **** }
 272              		.loc 1 147 0 is_stmt 1
 273 0018 03B0     		add	sp, sp, #12
 274              		.cfi_def_cfa_offset 12
 275              		@ sp needed
 276 001a 30BD     		pop	{r4, r5, pc}
 277              	.L27:
 278              		.align	2
 279              	.L26:
 280 001c 00000000 		.word	.LANCHOR0
 281              		.cfi_endproc
 282              	.LFE17:
 283              		.size	lv_disp_fill, .-lv_disp_fill
 284              		.section	.text.lv_disp_flush,"ax",%progbits
 285              		.align	2
 286              		.global	lv_disp_flush
 287              		.thumb
 288              		.thumb_func
 289              		.type	lv_disp_flush, %function
 290              	lv_disp_flush:
 291              	.LFB18:
 148:..\lvgl\lv_hal/lv_hal_disp.c **** 
 149:..\lvgl\lv_hal/lv_hal_disp.c **** /**
 150:..\lvgl\lv_hal/lv_hal_disp.c ****  * Fill a rectangular area with a color on the active display
 151:..\lvgl\lv_hal/lv_hal_disp.c ****  * @param x1 left coordinate of the rectangle
 152:..\lvgl\lv_hal/lv_hal_disp.c ****  * @param x2 right coordinate of the rectangle
 153:..\lvgl\lv_hal/lv_hal_disp.c ****  * @param y1 top coordinate of the rectangle
 154:..\lvgl\lv_hal/lv_hal_disp.c ****  * @param y2 bottom coordinate of the rectangle
 155:..\lvgl\lv_hal/lv_hal_disp.c ****  * @param color_p pointer to an array of colors
 156:..\lvgl\lv_hal/lv_hal_disp.c ****  */
 157:..\lvgl\lv_hal/lv_hal_disp.c **** void lv_disp_flush(int32_t x1, int32_t y1, int32_t x2, int32_t y2, lv_color_t * color_p)
 158:..\lvgl\lv_hal/lv_hal_disp.c **** {
 292              		.loc 1 158 0
 293              		.cfi_startproc
 294              		@ args = 4, pretend = 0, frame = 0
 295              		@ frame_needed = 0, uses_anonymous_args = 0
 296              	.LVL23:
ARM GAS  C:\Users\d3bug\AppData\Local\Temp\ccOo7w1g.s 			page 9


 297 0000 2DE9F043 		push	{r4, r5, r6, r7, r8, r9, lr}
 298              		.cfi_def_cfa_offset 28
 299              		.cfi_offset 4, -28
 300              		.cfi_offset 5, -24
 301              		.cfi_offset 6, -20
 302              		.cfi_offset 7, -16
 303              		.cfi_offset 8, -12
 304              		.cfi_offset 9, -8
 305              		.cfi_offset 14, -4
 306 0004 83B0     		sub	sp, sp, #12
 307              		.cfi_def_cfa_offset 40
 159:..\lvgl\lv_hal/lv_hal_disp.c ****     if(active == NULL) return;
 308              		.loc 1 159 0
 309 0006 154C     		ldr	r4, .L32
 310 0008 2468     		ldr	r4, [r4]
 311 000a 24B3     		cbz	r4, .L28
 312 000c 1F46     		mov	r7, r3
 313 000e 9046     		mov	r8, r2
 314 0010 0E46     		mov	r6, r1
 315 0012 0546     		mov	r5, r0
 160:..\lvgl\lv_hal/lv_hal_disp.c ****     if(active->driver.disp_flush != NULL) {
 316              		.loc 1 160 0
 317 0014 2368     		ldr	r3, [r4]
 318              	.LVL24:
 319 0016 C3B1     		cbz	r3, .L30
 161:..\lvgl\lv_hal/lv_hal_disp.c **** 
 162:..\lvgl\lv_hal/lv_hal_disp.c ****         LV_LOG_TRACE("disp flush  started");
 320              		.loc 1 162 0
 321 0018 114C     		ldr	r4, .L32+4
 322 001a 124B     		ldr	r3, .L32+8
 323 001c A222     		movs	r2, #162
 324              	.LVL25:
 325 001e 2146     		mov	r1, r4
 326              	.LVL26:
 327 0020 0020     		movs	r0, #0
 328              	.LVL27:
 329 0022 FFF7FEFF 		bl	lv_log_add
 330              	.LVL28:
 163:..\lvgl\lv_hal/lv_hal_disp.c ****         active->driver.disp_flush(x1, y1, x2, y2, color_p);
 331              		.loc 1 163 0
 332 0026 0D4B     		ldr	r3, .L32
 333 0028 1B68     		ldr	r3, [r3]
 334 002a D3F80090 		ldr	r9, [r3]
 335 002e 0A9B     		ldr	r3, [sp, #40]
 336 0030 0093     		str	r3, [sp]
 337 0032 3B46     		mov	r3, r7
 338 0034 4246     		mov	r2, r8
 339 0036 3146     		mov	r1, r6
 340 0038 2846     		mov	r0, r5
 341 003a C847     		blx	r9
 342              	.LVL29:
 164:..\lvgl\lv_hal/lv_hal_disp.c ****         LV_LOG_TRACE("disp flush ready");
 343              		.loc 1 164 0
 344 003c 0A4B     		ldr	r3, .L32+12
 345 003e A422     		movs	r2, #164
 346 0040 2146     		mov	r1, r4
 347 0042 0020     		movs	r0, #0
ARM GAS  C:\Users\d3bug\AppData\Local\Temp\ccOo7w1g.s 			page 10


 348 0044 FFF7FEFF 		bl	lv_log_add
 349              	.LVL30:
 350 0048 05E0     		b	.L28
 351              	.LVL31:
 352              	.L30:
 165:..\lvgl\lv_hal/lv_hal_disp.c **** 
 166:..\lvgl\lv_hal/lv_hal_disp.c ****     } else {
 167:..\lvgl\lv_hal/lv_hal_disp.c ****         LV_LOG_WARN("disp flush function registered");
 353              		.loc 1 167 0
 354 004a 084B     		ldr	r3, .L32+16
 355 004c A722     		movs	r2, #167
 356              	.LVL32:
 357 004e 0449     		ldr	r1, .L32+4
 358              	.LVL33:
 359 0050 0220     		movs	r0, #2
 360              	.LVL34:
 361 0052 FFF7FEFF 		bl	lv_log_add
 362              	.LVL35:
 363              	.L28:
 168:..\lvgl\lv_hal/lv_hal_disp.c ****     }
 169:..\lvgl\lv_hal/lv_hal_disp.c **** }
 364              		.loc 1 169 0
 365 0056 03B0     		add	sp, sp, #12
 366              		.cfi_def_cfa_offset 28
 367              		@ sp needed
 368 0058 BDE8F083 		pop	{r4, r5, r6, r7, r8, r9, pc}
 369              	.LVL36:
 370              	.L33:
 371              		.align	2
 372              	.L32:
 373 005c 00000000 		.word	.LANCHOR0
 374 0060 10000000 		.word	.LC1
 375 0064 30000000 		.word	.LC2
 376 0068 44000000 		.word	.LC3
 377 006c 58000000 		.word	.LC4
 378              		.cfi_endproc
 379              	.LFE18:
 380              		.size	lv_disp_flush, .-lv_disp_flush
 381              		.section	.text.lv_disp_map,"ax",%progbits
 382              		.align	2
 383              		.global	lv_disp_map
 384              		.thumb
 385              		.thumb_func
 386              		.type	lv_disp_map, %function
 387              	lv_disp_map:
 388              	.LFB19:
 170:..\lvgl\lv_hal/lv_hal_disp.c **** 
 171:..\lvgl\lv_hal/lv_hal_disp.c **** /**
 172:..\lvgl\lv_hal/lv_hal_disp.c ****  * Put a color map to a rectangular area on the active display
 173:..\lvgl\lv_hal/lv_hal_disp.c ****  * @param x1 left coordinate of the rectangle
 174:..\lvgl\lv_hal/lv_hal_disp.c ****  * @param x2 right coordinate of the rectangle
 175:..\lvgl\lv_hal/lv_hal_disp.c ****  * @param y1 top coordinate of the rectangle
 176:..\lvgl\lv_hal/lv_hal_disp.c ****  * @param y2 bottom coordinate of the rectangle
 177:..\lvgl\lv_hal/lv_hal_disp.c ****  * @param color_map pointer to an array of colors
 178:..\lvgl\lv_hal/lv_hal_disp.c ****  */
 179:..\lvgl\lv_hal/lv_hal_disp.c **** void lv_disp_map(int32_t x1, int32_t y1, int32_t x2, int32_t y2, const lv_color_t * color_map)
 180:..\lvgl\lv_hal/lv_hal_disp.c **** {
ARM GAS  C:\Users\d3bug\AppData\Local\Temp\ccOo7w1g.s 			page 11


 389              		.loc 1 180 0
 390              		.cfi_startproc
 391              		@ args = 4, pretend = 0, frame = 0
 392              		@ frame_needed = 0, uses_anonymous_args = 0
 393              	.LVL37:
 394 0000 30B5     		push	{r4, r5, lr}
 395              		.cfi_def_cfa_offset 12
 396              		.cfi_offset 4, -12
 397              		.cfi_offset 5, -8
 398              		.cfi_offset 14, -4
 399 0002 83B0     		sub	sp, sp, #12
 400              		.cfi_def_cfa_offset 24
 181:..\lvgl\lv_hal/lv_hal_disp.c ****     if(active == NULL) return;
 401              		.loc 1 181 0
 402 0004 044C     		ldr	r4, .L37
 403 0006 2468     		ldr	r4, [r4]
 404 0008 24B1     		cbz	r4, .L34
 182:..\lvgl\lv_hal/lv_hal_disp.c ****     if(active->driver.disp_map != NULL)  active->driver.disp_map(x1, y1, x2, y2, color_map);
 405              		.loc 1 182 0
 406 000a A468     		ldr	r4, [r4, #8]
 407 000c 14B1     		cbz	r4, .L34
 408              		.loc 1 182 0 is_stmt 0 discriminator 1
 409 000e 069D     		ldr	r5, [sp, #24]
 410 0010 0095     		str	r5, [sp]
 411 0012 A047     		blx	r4
 412              	.LVL38:
 413              	.L34:
 183:..\lvgl\lv_hal/lv_hal_disp.c **** }
 414              		.loc 1 183 0 is_stmt 1
 415 0014 03B0     		add	sp, sp, #12
 416              		.cfi_def_cfa_offset 12
 417              		@ sp needed
 418 0016 30BD     		pop	{r4, r5, pc}
 419              	.LVL39:
 420              	.L38:
 421              		.align	2
 422              	.L37:
 423 0018 00000000 		.word	.LANCHOR0
 424              		.cfi_endproc
 425              	.LFE19:
 426              		.size	lv_disp_map, .-lv_disp_map
 427              		.section	.rodata.str1.4,"aMS",%progbits,1
 428              		.align	2
 429              	.LC0:
 430 0000 4F757420 		.ascii	"Out of memory!\000"
 430      6F66206D 
 430      656D6F72 
 430      792100
 431 000f 00       		.space	1
 432              	.LC1:
 433 0010 2E2E5C6C 		.ascii	"..\\lvgl\\lv_hal\\lv_hal_disp.c\000"
 433      76676C5C 
 433      6C765F68 
 433      616C5C6C 
 433      765F6861 
 434 002d 000000   		.space	3
 435              	.LC2:
ARM GAS  C:\Users\d3bug\AppData\Local\Temp\ccOo7w1g.s 			page 12


 436 0030 64697370 		.ascii	"disp flush  started\000"
 436      20666C75 
 436      73682020 
 436      73746172 
 436      74656400 
 437              	.LC3:
 438 0044 64697370 		.ascii	"disp flush ready\000"
 438      20666C75 
 438      73682072 
 438      65616479 
 438      00
 439 0055 000000   		.space	3
 440              	.LC4:
 441 0058 64697370 		.ascii	"disp flush function registered\000"
 441      20666C75 
 441      73682066 
 441      756E6374 
 441      696F6E20 
 442              		.bss
 443              		.align	2
 444              		.set	.LANCHOR0,. + 0
 445              		.type	active, %object
 446              		.size	active, 4
 447              	active:
 448 0000 00000000 		.space	4
 449              		.text
 450              	.Letext0:
 451              		.file 2 "c:\\program files (x86)\\cypress\\psoc creator\\4.2\\psoc creator\\import\\gnu\\arm\\5.4.
 452              		.file 3 "c:\\program files (x86)\\cypress\\psoc creator\\4.2\\psoc creator\\import\\gnu\\arm\\5.4.
 453              		.file 4 "..\\lvgl\\lv_hal\\../lv_hal/../lv_misc/lv_area.h"
 454              		.file 5 "..\\lvgl\\lv_hal\\../lv_hal/../lv_core/../lv_misc/lv_color.h"
 455              		.file 6 "..\\lvgl\\lv_hal\\../lv_hal/lv_hal_disp.h"
 456              		.file 7 "..\\lvgl\\lv_hal\\../lv_hal/../lv_core/../lv_misc/lv_mem.h"
 457              		.file 8 "..\\lvgl\\lv_hal\\../lv_hal/../lv_core/../lv_misc/lv_log.h"
 458              		.file 9 "..\\lvgl\\lv_hal\\../lv_hal/../lv_core/lv_obj.h"
 459              		.file 10 "..\\lvgl\\lv_hal\\../lv_misc/lv_gc.h"