ARM GAS  C:\Users\d3bug\AppData\Local\Temp\cct3SNM7.s 			page 1


   1              		.syntax unified
   2              		.cpu cortex-m3
   3              		.fpu softvfp
   4              		.eabi_attribute 20, 1
   5              		.eabi_attribute 21, 1
   6              		.eabi_attribute 23, 3
   7              		.eabi_attribute 24, 1
   8              		.eabi_attribute 25, 1
   9              		.eabi_attribute 26, 1
  10              		.eabi_attribute 30, 1
  11              		.eabi_attribute 34, 1
  12              		.eabi_attribute 18, 4
  13              		.thumb
  14              		.syntax unified
  15              		.file	"lv_label.c"
  16              		.text
  17              	.Ltext0:
  18              		.cfi_sections	.debug_frame
  19              		.section	.text.lv_label_revert_dots,"ax",%progbits
  20              		.align	2
  21              		.thumb
  22              		.thumb_func
  23              		.type	lv_label_revert_dots, %function
  24              	lv_label_revert_dots:
  25              	.LFB36:
  26              		.file 1 "..\\lvgl\\lv_objx\\lv_label.c"
   1:..\lvgl\lv_objx/lv_label.c **** /**
   2:..\lvgl\lv_objx/lv_label.c ****  * @file lv_rect.c
   3:..\lvgl\lv_objx/lv_label.c ****  *
   4:..\lvgl\lv_objx/lv_label.c ****  */
   5:..\lvgl\lv_objx/lv_label.c **** 
   6:..\lvgl\lv_objx/lv_label.c **** /*********************
   7:..\lvgl\lv_objx/lv_label.c ****  *      INCLUDES
   8:..\lvgl\lv_objx/lv_label.c ****  *********************/
   9:..\lvgl\lv_objx/lv_label.c **** #include "lv_label.h"
  10:..\lvgl\lv_objx/lv_label.c **** #if USE_LV_LABEL != 0
  11:..\lvgl\lv_objx/lv_label.c **** 
  12:..\lvgl\lv_objx/lv_label.c **** #include "../lv_core/lv_obj.h"
  13:..\lvgl\lv_objx/lv_label.c **** #include "../lv_core/lv_group.h"
  14:..\lvgl\lv_objx/lv_label.c **** #include "../lv_core/lv_lang.h"
  15:..\lvgl\lv_objx/lv_label.c **** #include "../lv_draw/lv_draw.h"
  16:..\lvgl\lv_objx/lv_label.c **** #include "../lv_misc/lv_color.h"
  17:..\lvgl\lv_objx/lv_label.c **** #include "../lv_misc/lv_math.h"
  18:..\lvgl\lv_objx/lv_label.c **** 
  19:..\lvgl\lv_objx/lv_label.c **** /*********************
  20:..\lvgl\lv_objx/lv_label.c ****  *      DEFINES
  21:..\lvgl\lv_objx/lv_label.c ****  *********************/
  22:..\lvgl\lv_objx/lv_label.c **** /*Test configurations*/
  23:..\lvgl\lv_objx/lv_label.c **** #ifndef LV_LABEL_SCROLL_SPEED
  24:..\lvgl\lv_objx/lv_label.c **** #define LV_LABEL_SCROLL_SPEED       (25) /*Hor, or ver. scroll speed (px/sec) in 'LV_LABEL_LONG_SCR
  25:..\lvgl\lv_objx/lv_label.c **** #endif
  26:..\lvgl\lv_objx/lv_label.c **** 
  27:..\lvgl\lv_objx/lv_label.c **** #define ANIM_WAIT_CHAR_COUNT 3
  28:..\lvgl\lv_objx/lv_label.c **** 
  29:..\lvgl\lv_objx/lv_label.c **** #define LV_LABEL_DOT_END_INV 0xFFFF
  30:..\lvgl\lv_objx/lv_label.c **** 
  31:..\lvgl\lv_objx/lv_label.c **** /**********************
ARM GAS  C:\Users\d3bug\AppData\Local\Temp\cct3SNM7.s 			page 2


  32:..\lvgl\lv_objx/lv_label.c ****  *      TYPEDEFS
  33:..\lvgl\lv_objx/lv_label.c ****  **********************/
  34:..\lvgl\lv_objx/lv_label.c **** 
  35:..\lvgl\lv_objx/lv_label.c **** /**********************
  36:..\lvgl\lv_objx/lv_label.c ****  *  STATIC PROTOTYPES
  37:..\lvgl\lv_objx/lv_label.c ****  **********************/
  38:..\lvgl\lv_objx/lv_label.c **** static lv_res_t lv_label_signal(lv_obj_t * label, lv_signal_t sign, void * param);
  39:..\lvgl\lv_objx/lv_label.c **** static bool lv_label_design(lv_obj_t * label, const lv_area_t * mask, lv_design_mode_t mode);
  40:..\lvgl\lv_objx/lv_label.c **** static void lv_label_refr_text(lv_obj_t * label);
  41:..\lvgl\lv_objx/lv_label.c **** static void lv_label_revert_dots(lv_obj_t * label);
  42:..\lvgl\lv_objx/lv_label.c **** 
  43:..\lvgl\lv_objx/lv_label.c **** #if USE_LV_ANIMATION
  44:..\lvgl\lv_objx/lv_label.c **** static void lv_label_set_offset_x(lv_obj_t * label, lv_coord_t x);
  45:..\lvgl\lv_objx/lv_label.c **** static void lv_label_set_offset_y(lv_obj_t * label, lv_coord_t y);
  46:..\lvgl\lv_objx/lv_label.c **** #endif
  47:..\lvgl\lv_objx/lv_label.c **** /**********************
  48:..\lvgl\lv_objx/lv_label.c ****  *  STATIC VARIABLES
  49:..\lvgl\lv_objx/lv_label.c ****  **********************/
  50:..\lvgl\lv_objx/lv_label.c **** static lv_signal_func_t ancestor_signal;
  51:..\lvgl\lv_objx/lv_label.c **** 
  52:..\lvgl\lv_objx/lv_label.c **** /**********************
  53:..\lvgl\lv_objx/lv_label.c ****  *      MACROS
  54:..\lvgl\lv_objx/lv_label.c ****  **********************/
  55:..\lvgl\lv_objx/lv_label.c **** 
  56:..\lvgl\lv_objx/lv_label.c **** /**********************
  57:..\lvgl\lv_objx/lv_label.c ****  *   GLOBAL FUNCTIONS
  58:..\lvgl\lv_objx/lv_label.c ****  **********************/
  59:..\lvgl\lv_objx/lv_label.c **** 
  60:..\lvgl\lv_objx/lv_label.c **** /**
  61:..\lvgl\lv_objx/lv_label.c ****  * Create a label objects
  62:..\lvgl\lv_objx/lv_label.c ****  * @param par pointer to an object, it will be the parent of the new label
  63:..\lvgl\lv_objx/lv_label.c ****  * @param copy pointer to a button object, if not NULL then the new object will be copied from it
  64:..\lvgl\lv_objx/lv_label.c ****  * @return pointer to the created button
  65:..\lvgl\lv_objx/lv_label.c ****  */
  66:..\lvgl\lv_objx/lv_label.c **** lv_obj_t * lv_label_create(lv_obj_t * par, const lv_obj_t * copy)
  67:..\lvgl\lv_objx/lv_label.c **** {
  68:..\lvgl\lv_objx/lv_label.c ****     LV_LOG_TRACE("label create started");
  69:..\lvgl\lv_objx/lv_label.c **** 
  70:..\lvgl\lv_objx/lv_label.c ****     /*Create a basic object*/
  71:..\lvgl\lv_objx/lv_label.c ****     lv_obj_t * new_label = lv_obj_create(par, copy);
  72:..\lvgl\lv_objx/lv_label.c ****     lv_mem_assert(new_label);
  73:..\lvgl\lv_objx/lv_label.c ****     if(new_label == NULL) return NULL;
  74:..\lvgl\lv_objx/lv_label.c **** 
  75:..\lvgl\lv_objx/lv_label.c ****     if(ancestor_signal == NULL) ancestor_signal = lv_obj_get_signal_func(new_label);
  76:..\lvgl\lv_objx/lv_label.c **** 
  77:..\lvgl\lv_objx/lv_label.c ****     /*Extend the basic object to a label object*/
  78:..\lvgl\lv_objx/lv_label.c ****     lv_obj_allocate_ext_attr(new_label, sizeof(lv_label_ext_t));
  79:..\lvgl\lv_objx/lv_label.c **** 
  80:..\lvgl\lv_objx/lv_label.c ****     lv_label_ext_t * ext = lv_obj_get_ext_attr(new_label);
  81:..\lvgl\lv_objx/lv_label.c ****     lv_mem_assert(ext);
  82:..\lvgl\lv_objx/lv_label.c ****     if(ext == NULL) return NULL;
  83:..\lvgl\lv_objx/lv_label.c **** 
  84:..\lvgl\lv_objx/lv_label.c ****     ext->text = NULL;
  85:..\lvgl\lv_objx/lv_label.c ****     ext->static_txt = 0;
  86:..\lvgl\lv_objx/lv_label.c ****     ext->recolor = 0;
  87:..\lvgl\lv_objx/lv_label.c ****     ext->body_draw = 0;
  88:..\lvgl\lv_objx/lv_label.c ****     ext->align = LV_LABEL_ALIGN_LEFT;
ARM GAS  C:\Users\d3bug\AppData\Local\Temp\cct3SNM7.s 			page 3


  89:..\lvgl\lv_objx/lv_label.c ****     ext->dot_end = LV_LABEL_DOT_END_INV;
  90:..\lvgl\lv_objx/lv_label.c ****     ext->long_mode = LV_LABEL_LONG_EXPAND;
  91:..\lvgl\lv_objx/lv_label.c ****     ext->anim_speed = LV_LABEL_SCROLL_SPEED;
  92:..\lvgl\lv_objx/lv_label.c ****     ext->offset.x = 0;
  93:..\lvgl\lv_objx/lv_label.c ****     ext->offset.y = 0;
  94:..\lvgl\lv_objx/lv_label.c **** #if USE_LV_MULTI_LANG
  95:..\lvgl\lv_objx/lv_label.c ****     ext->lang_txt_id = LV_LANG_TXT_ID_NONE;
  96:..\lvgl\lv_objx/lv_label.c **** #endif
  97:..\lvgl\lv_objx/lv_label.c ****     lv_obj_set_design_func(new_label, lv_label_design);
  98:..\lvgl\lv_objx/lv_label.c ****     lv_obj_set_signal_func(new_label, lv_label_signal);
  99:..\lvgl\lv_objx/lv_label.c **** 
 100:..\lvgl\lv_objx/lv_label.c ****     /*Init the new label*/
 101:..\lvgl\lv_objx/lv_label.c ****     if(copy == NULL) {
 102:..\lvgl\lv_objx/lv_label.c ****         lv_obj_set_click(new_label, false);
 103:..\lvgl\lv_objx/lv_label.c ****         lv_label_set_long_mode(new_label, LV_LABEL_LONG_EXPAND);
 104:..\lvgl\lv_objx/lv_label.c ****         lv_label_set_text(new_label, "Text");
 105:..\lvgl\lv_objx/lv_label.c ****         lv_label_set_style(new_label, NULL);        /*Inherit parent's style*/
 106:..\lvgl\lv_objx/lv_label.c ****     }
 107:..\lvgl\lv_objx/lv_label.c ****     /*Copy 'copy' if not NULL*/
 108:..\lvgl\lv_objx/lv_label.c ****     else {
 109:..\lvgl\lv_objx/lv_label.c ****         lv_label_ext_t * copy_ext = lv_obj_get_ext_attr(copy);
 110:..\lvgl\lv_objx/lv_label.c ****         lv_label_set_long_mode(new_label, lv_label_get_long_mode(copy));
 111:..\lvgl\lv_objx/lv_label.c ****         lv_label_set_recolor(new_label, lv_label_get_recolor(copy));
 112:..\lvgl\lv_objx/lv_label.c ****         lv_label_set_body_draw(new_label, lv_label_get_body_draw(copy));
 113:..\lvgl\lv_objx/lv_label.c ****         lv_label_set_align(new_label, lv_label_get_align(copy));
 114:..\lvgl\lv_objx/lv_label.c ****         if(copy_ext->static_txt == 0) lv_label_set_text(new_label, lv_label_get_text(copy));
 115:..\lvgl\lv_objx/lv_label.c ****         else lv_label_set_static_text(new_label, lv_label_get_text(copy));
 116:..\lvgl\lv_objx/lv_label.c **** 
 117:..\lvgl\lv_objx/lv_label.c ****         /*In DOT mode save the text byte-to-byte because a '\0' can be in the middle*/
 118:..\lvgl\lv_objx/lv_label.c ****         if(copy_ext->long_mode == LV_LABEL_LONG_DOT) {
 119:..\lvgl\lv_objx/lv_label.c ****             ext->text = lv_mem_realloc(ext->text, lv_mem_get_size(copy_ext->text));
 120:..\lvgl\lv_objx/lv_label.c ****             lv_mem_assert(ext->text);
 121:..\lvgl\lv_objx/lv_label.c ****             if(ext->text == NULL) return NULL;
 122:..\lvgl\lv_objx/lv_label.c ****             memcpy(ext->text, copy_ext->text, lv_mem_get_size(copy_ext->text));
 123:..\lvgl\lv_objx/lv_label.c ****         }
 124:..\lvgl\lv_objx/lv_label.c **** 
 125:..\lvgl\lv_objx/lv_label.c ****         memcpy(ext->dot_tmp, copy_ext->dot_tmp, sizeof(ext->dot_tmp));
 126:..\lvgl\lv_objx/lv_label.c ****         ext->dot_end = copy_ext->dot_end;
 127:..\lvgl\lv_objx/lv_label.c **** 
 128:..\lvgl\lv_objx/lv_label.c ****         /*Refresh the style with new signal function*/
 129:..\lvgl\lv_objx/lv_label.c ****         lv_obj_refresh_style(new_label);
 130:..\lvgl\lv_objx/lv_label.c ****     }
 131:..\lvgl\lv_objx/lv_label.c **** 
 132:..\lvgl\lv_objx/lv_label.c **** 
 133:..\lvgl\lv_objx/lv_label.c ****     LV_LOG_INFO("label created");
 134:..\lvgl\lv_objx/lv_label.c **** 
 135:..\lvgl\lv_objx/lv_label.c ****     return new_label;
 136:..\lvgl\lv_objx/lv_label.c **** }
 137:..\lvgl\lv_objx/lv_label.c **** 
 138:..\lvgl\lv_objx/lv_label.c **** /*=====================
 139:..\lvgl\lv_objx/lv_label.c ****  * Setter functions
 140:..\lvgl\lv_objx/lv_label.c ****  *====================*/
 141:..\lvgl\lv_objx/lv_label.c **** 
 142:..\lvgl\lv_objx/lv_label.c **** /**
 143:..\lvgl\lv_objx/lv_label.c ****  * Set a new text for a label. Memory will be allocated to store the text by the label.
 144:..\lvgl\lv_objx/lv_label.c ****  * @param label pointer to a label object
 145:..\lvgl\lv_objx/lv_label.c ****  * @param text '\0' terminated character string. NULL to refresh with the current text.
ARM GAS  C:\Users\d3bug\AppData\Local\Temp\cct3SNM7.s 			page 4


 146:..\lvgl\lv_objx/lv_label.c ****  */
 147:..\lvgl\lv_objx/lv_label.c **** void lv_label_set_text(lv_obj_t * label, const char * text)
 148:..\lvgl\lv_objx/lv_label.c **** {
 149:..\lvgl\lv_objx/lv_label.c ****     lv_obj_invalidate(label);
 150:..\lvgl\lv_objx/lv_label.c **** 
 151:..\lvgl\lv_objx/lv_label.c ****     lv_label_ext_t * ext = lv_obj_get_ext_attr(label);
 152:..\lvgl\lv_objx/lv_label.c **** 
 153:..\lvgl\lv_objx/lv_label.c ****     /*If text is NULL then refresh */
 154:..\lvgl\lv_objx/lv_label.c ****     if(text == NULL) {
 155:..\lvgl\lv_objx/lv_label.c ****         lv_label_refr_text(label);
 156:..\lvgl\lv_objx/lv_label.c ****         return;
 157:..\lvgl\lv_objx/lv_label.c ****     }
 158:..\lvgl\lv_objx/lv_label.c **** 
 159:..\lvgl\lv_objx/lv_label.c ****     if(ext->text == text) {
 160:..\lvgl\lv_objx/lv_label.c ****         /*If set its own text then reallocate it (maybe its size changed)*/
 161:..\lvgl\lv_objx/lv_label.c ****         ext->text = lv_mem_realloc(ext->text, strlen(ext->text) + 1);
 162:..\lvgl\lv_objx/lv_label.c ****         lv_mem_assert(ext->text);
 163:..\lvgl\lv_objx/lv_label.c ****         if(ext->text == NULL) return;
 164:..\lvgl\lv_objx/lv_label.c ****     } else {
 165:..\lvgl\lv_objx/lv_label.c ****         /*Allocate space for the new text*/
 166:..\lvgl\lv_objx/lv_label.c ****         uint32_t len = strlen(text) + 1;
 167:..\lvgl\lv_objx/lv_label.c ****         if(ext->text != NULL && ext->static_txt == 0) {
 168:..\lvgl\lv_objx/lv_label.c ****             lv_mem_free(ext->text);
 169:..\lvgl\lv_objx/lv_label.c ****             ext->text = NULL;
 170:..\lvgl\lv_objx/lv_label.c ****         }
 171:..\lvgl\lv_objx/lv_label.c **** 
 172:..\lvgl\lv_objx/lv_label.c ****         ext->text = lv_mem_alloc(len);
 173:..\lvgl\lv_objx/lv_label.c ****         lv_mem_assert(ext->text);
 174:..\lvgl\lv_objx/lv_label.c ****         if(ext->text == NULL) return;
 175:..\lvgl\lv_objx/lv_label.c **** 
 176:..\lvgl\lv_objx/lv_label.c ****         strcpy(ext->text, text);
 177:..\lvgl\lv_objx/lv_label.c ****         ext->static_txt = 0;    /*Now the text is dynamically allocated*/
 178:..\lvgl\lv_objx/lv_label.c ****     }
 179:..\lvgl\lv_objx/lv_label.c **** 
 180:..\lvgl\lv_objx/lv_label.c ****     lv_label_refr_text(label);
 181:..\lvgl\lv_objx/lv_label.c **** }
 182:..\lvgl\lv_objx/lv_label.c **** 
 183:..\lvgl\lv_objx/lv_label.c **** /**
 184:..\lvgl\lv_objx/lv_label.c ****  * Set a new text for a label from a character array. The array don't has to be '\0' terminated.
 185:..\lvgl\lv_objx/lv_label.c ****  * Memory will be allocated to store the array by the label.
 186:..\lvgl\lv_objx/lv_label.c ****  * @param label pointer to a label object
 187:..\lvgl\lv_objx/lv_label.c ****  * @param array array of characters or NULL to refresh the label
 188:..\lvgl\lv_objx/lv_label.c ****  * @param size the size of 'array' in bytes
 189:..\lvgl\lv_objx/lv_label.c ****  */
 190:..\lvgl\lv_objx/lv_label.c **** void lv_label_set_array_text(lv_obj_t * label, const char * array, uint16_t size)
 191:..\lvgl\lv_objx/lv_label.c **** {
 192:..\lvgl\lv_objx/lv_label.c ****     lv_obj_invalidate(label);
 193:..\lvgl\lv_objx/lv_label.c **** 
 194:..\lvgl\lv_objx/lv_label.c ****     lv_label_ext_t * ext = lv_obj_get_ext_attr(label);
 195:..\lvgl\lv_objx/lv_label.c **** 
 196:..\lvgl\lv_objx/lv_label.c ****     /*If trying to set its own text or the array is NULL then refresh */
 197:..\lvgl\lv_objx/lv_label.c ****     if(array == ext->text || array == NULL) {
 198:..\lvgl\lv_objx/lv_label.c ****         lv_label_refr_text(label);
 199:..\lvgl\lv_objx/lv_label.c ****         return;
 200:..\lvgl\lv_objx/lv_label.c ****     }
 201:..\lvgl\lv_objx/lv_label.c **** 
 202:..\lvgl\lv_objx/lv_label.c ****     /*Allocate space for the new text*/
ARM GAS  C:\Users\d3bug\AppData\Local\Temp\cct3SNM7.s 			page 5


 203:..\lvgl\lv_objx/lv_label.c ****     if(ext->text != NULL && ext->static_txt == 0) {
 204:..\lvgl\lv_objx/lv_label.c ****         lv_mem_free(ext->text);
 205:..\lvgl\lv_objx/lv_label.c ****         ext->text = NULL;
 206:..\lvgl\lv_objx/lv_label.c ****     }
 207:..\lvgl\lv_objx/lv_label.c ****     ext->text = lv_mem_alloc(size + 1);
 208:..\lvgl\lv_objx/lv_label.c ****     lv_mem_assert(ext->text);
 209:..\lvgl\lv_objx/lv_label.c ****     if(ext->text == NULL) return;
 210:..\lvgl\lv_objx/lv_label.c **** 
 211:..\lvgl\lv_objx/lv_label.c ****     memcpy(ext->text, array, size);
 212:..\lvgl\lv_objx/lv_label.c ****     ext->text[size] = '\0';
 213:..\lvgl\lv_objx/lv_label.c ****     ext->static_txt = 0;    /*Now the text is dynamically allocated*/
 214:..\lvgl\lv_objx/lv_label.c **** 
 215:..\lvgl\lv_objx/lv_label.c ****     lv_label_refr_text(label);
 216:..\lvgl\lv_objx/lv_label.c **** }
 217:..\lvgl\lv_objx/lv_label.c **** 
 218:..\lvgl\lv_objx/lv_label.c **** /**
 219:..\lvgl\lv_objx/lv_label.c ****  * Set a static text. It will not be saved by the label so the 'text' variable
 220:..\lvgl\lv_objx/lv_label.c ****  * has to be 'alive' while the label exist.
 221:..\lvgl\lv_objx/lv_label.c ****  * @param label pointer to a label object
 222:..\lvgl\lv_objx/lv_label.c ****  * @param text pointer to a text. NULL to refresh with the current text.
 223:..\lvgl\lv_objx/lv_label.c ****  */
 224:..\lvgl\lv_objx/lv_label.c **** void lv_label_set_static_text(lv_obj_t * label, const char * text)
 225:..\lvgl\lv_objx/lv_label.c **** {
 226:..\lvgl\lv_objx/lv_label.c ****     lv_label_ext_t * ext = lv_obj_get_ext_attr(label);
 227:..\lvgl\lv_objx/lv_label.c ****     if(ext->static_txt == 0 && ext->text != NULL) {
 228:..\lvgl\lv_objx/lv_label.c ****         lv_mem_free(ext->text);
 229:..\lvgl\lv_objx/lv_label.c ****         ext->text = NULL;
 230:..\lvgl\lv_objx/lv_label.c ****     }
 231:..\lvgl\lv_objx/lv_label.c **** 
 232:..\lvgl\lv_objx/lv_label.c ****     if(text != NULL) {
 233:..\lvgl\lv_objx/lv_label.c ****         ext->static_txt = 1;
 234:..\lvgl\lv_objx/lv_label.c ****         ext->text = (char *) text;
 235:..\lvgl\lv_objx/lv_label.c ****     }
 236:..\lvgl\lv_objx/lv_label.c **** 
 237:..\lvgl\lv_objx/lv_label.c ****     lv_label_refr_text(label);
 238:..\lvgl\lv_objx/lv_label.c **** }
 239:..\lvgl\lv_objx/lv_label.c **** 
 240:..\lvgl\lv_objx/lv_label.c **** #if USE_LV_MULTI_LANG
 241:..\lvgl\lv_objx/lv_label.c **** /**
 242:..\lvgl\lv_objx/lv_label.c ****  *Set a text ID which refers a the same text but in a different languages
 243:..\lvgl\lv_objx/lv_label.c ****  * @param label pointer to a label object
 244:..\lvgl\lv_objx/lv_label.c ****  * @param txt_id ID of the text
 245:..\lvgl\lv_objx/lv_label.c ****  */
 246:..\lvgl\lv_objx/lv_label.c **** void lv_label_set_text_id(lv_obj_t * label, uint32_t txt_id)
 247:..\lvgl\lv_objx/lv_label.c **** {
 248:..\lvgl\lv_objx/lv_label.c ****     lv_label_ext_t * ext = lv_obj_get_ext_attr(label);
 249:..\lvgl\lv_objx/lv_label.c ****     ext->lang_txt_id = txt_id;
 250:..\lvgl\lv_objx/lv_label.c **** 
 251:..\lvgl\lv_objx/lv_label.c ****     /*Apply the new language*/
 252:..\lvgl\lv_objx/lv_label.c ****     label->signal_func(label, LV_SIGNAL_LANG_CHG, NULL);
 253:..\lvgl\lv_objx/lv_label.c **** }
 254:..\lvgl\lv_objx/lv_label.c **** #endif
 255:..\lvgl\lv_objx/lv_label.c **** 
 256:..\lvgl\lv_objx/lv_label.c **** /**
 257:..\lvgl\lv_objx/lv_label.c ****  * Set the behavior of the label with longer text then the object size
 258:..\lvgl\lv_objx/lv_label.c ****  * @param label pointer to a label object
 259:..\lvgl\lv_objx/lv_label.c ****  * @param long_mode the new mode from 'lv_label_long_mode' enum.
ARM GAS  C:\Users\d3bug\AppData\Local\Temp\cct3SNM7.s 			page 6


 260:..\lvgl\lv_objx/lv_label.c ****  *                  In LV_LONG_BREAK/LONG/ROLL the size of the label should be set AFTER this funct
 261:..\lvgl\lv_objx/lv_label.c ****  */
 262:..\lvgl\lv_objx/lv_label.c **** void lv_label_set_long_mode(lv_obj_t * label, lv_label_long_mode_t long_mode)
 263:..\lvgl\lv_objx/lv_label.c **** {
 264:..\lvgl\lv_objx/lv_label.c ****     lv_label_ext_t * ext = lv_obj_get_ext_attr(label);
 265:..\lvgl\lv_objx/lv_label.c **** 
 266:..\lvgl\lv_objx/lv_label.c **** #if USE_LV_ANIMATION
 267:..\lvgl\lv_objx/lv_label.c ****     /*Delete the old animation (if exists)*/
 268:..\lvgl\lv_objx/lv_label.c ****     lv_anim_del(label, (lv_anim_fp_t) lv_obj_set_x);
 269:..\lvgl\lv_objx/lv_label.c ****     lv_anim_del(label, (lv_anim_fp_t) lv_obj_set_y);
 270:..\lvgl\lv_objx/lv_label.c ****     lv_anim_del(label, (lv_anim_fp_t) lv_label_set_offset_x);
 271:..\lvgl\lv_objx/lv_label.c ****     lv_anim_del(label, (lv_anim_fp_t) lv_label_set_offset_y);
 272:..\lvgl\lv_objx/lv_label.c **** #endif
 273:..\lvgl\lv_objx/lv_label.c ****     ext->offset.x = 0;
 274:..\lvgl\lv_objx/lv_label.c ****     ext->offset.y = 0;
 275:..\lvgl\lv_objx/lv_label.c **** 
 276:..\lvgl\lv_objx/lv_label.c ****     if(long_mode == LV_LABEL_LONG_ROLL || long_mode == LV_LABEL_LONG_CROP) ext->expand = 1;
 277:..\lvgl\lv_objx/lv_label.c ****     else ext->expand = 0;
 278:..\lvgl\lv_objx/lv_label.c **** 
 279:..\lvgl\lv_objx/lv_label.c ****     /*Restore the character under the dots*/
 280:..\lvgl\lv_objx/lv_label.c ****     if(ext->long_mode == LV_LABEL_LONG_DOT && ext->dot_end != LV_LABEL_DOT_END_INV) {
 281:..\lvgl\lv_objx/lv_label.c ****         lv_label_revert_dots(label);
 282:..\lvgl\lv_objx/lv_label.c ****     }
 283:..\lvgl\lv_objx/lv_label.c **** 
 284:..\lvgl\lv_objx/lv_label.c ****     ext->long_mode = long_mode;
 285:..\lvgl\lv_objx/lv_label.c ****     lv_label_refr_text(label);
 286:..\lvgl\lv_objx/lv_label.c **** }
 287:..\lvgl\lv_objx/lv_label.c **** 
 288:..\lvgl\lv_objx/lv_label.c **** /**
 289:..\lvgl\lv_objx/lv_label.c ****  * Set the align of the label (left or center)
 290:..\lvgl\lv_objx/lv_label.c ****  * @param label pointer to a label object
 291:..\lvgl\lv_objx/lv_label.c ****  * @param align 'LV_LABEL_ALIGN_LEFT' or 'LV_LABEL_ALIGN_LEFT'
 292:..\lvgl\lv_objx/lv_label.c ****  */
 293:..\lvgl\lv_objx/lv_label.c **** void lv_label_set_align(lv_obj_t * label, lv_label_align_t align)
 294:..\lvgl\lv_objx/lv_label.c **** {
 295:..\lvgl\lv_objx/lv_label.c ****     lv_label_ext_t * ext = lv_obj_get_ext_attr(label);
 296:..\lvgl\lv_objx/lv_label.c ****     if(ext->align == align) return;
 297:..\lvgl\lv_objx/lv_label.c **** 
 298:..\lvgl\lv_objx/lv_label.c ****     ext->align = align;
 299:..\lvgl\lv_objx/lv_label.c **** 
 300:..\lvgl\lv_objx/lv_label.c ****     lv_obj_invalidate(label);       /*Enough to invalidate because alignment is only drawing relate
 301:..\lvgl\lv_objx/lv_label.c **** }
 302:..\lvgl\lv_objx/lv_label.c **** 
 303:..\lvgl\lv_objx/lv_label.c **** /**
 304:..\lvgl\lv_objx/lv_label.c ****  * Enable the recoloring by in-line commands
 305:..\lvgl\lv_objx/lv_label.c ****  * @param label pointer to a label object
 306:..\lvgl\lv_objx/lv_label.c ****  * @param en true: enable recoloring, false: disable
 307:..\lvgl\lv_objx/lv_label.c ****  */
 308:..\lvgl\lv_objx/lv_label.c **** void lv_label_set_recolor(lv_obj_t * label, bool en)
 309:..\lvgl\lv_objx/lv_label.c **** {
 310:..\lvgl\lv_objx/lv_label.c ****     lv_label_ext_t * ext = lv_obj_get_ext_attr(label);
 311:..\lvgl\lv_objx/lv_label.c ****     if(ext->recolor == en) return;
 312:..\lvgl\lv_objx/lv_label.c **** 
 313:..\lvgl\lv_objx/lv_label.c ****     ext->recolor = en == false ? 0 : 1;
 314:..\lvgl\lv_objx/lv_label.c **** 
 315:..\lvgl\lv_objx/lv_label.c ****     lv_label_refr_text(label);  /*Refresh the text because the potential colo codes in text needs t
 316:..\lvgl\lv_objx/lv_label.c **** }
ARM GAS  C:\Users\d3bug\AppData\Local\Temp\cct3SNM7.s 			page 7


 317:..\lvgl\lv_objx/lv_label.c **** 
 318:..\lvgl\lv_objx/lv_label.c **** /**
 319:..\lvgl\lv_objx/lv_label.c ****  * Set the label to draw (or not draw) background specified in its style's body
 320:..\lvgl\lv_objx/lv_label.c ****  * @param label pointer to a label object
 321:..\lvgl\lv_objx/lv_label.c ****  * @param en true: draw body; false: don't draw body
 322:..\lvgl\lv_objx/lv_label.c ****  */
 323:..\lvgl\lv_objx/lv_label.c **** void lv_label_set_body_draw(lv_obj_t * label, bool en)
 324:..\lvgl\lv_objx/lv_label.c **** {
 325:..\lvgl\lv_objx/lv_label.c ****     lv_label_ext_t * ext = lv_obj_get_ext_attr(label);
 326:..\lvgl\lv_objx/lv_label.c ****     if(ext->body_draw == en) return;
 327:..\lvgl\lv_objx/lv_label.c **** 
 328:..\lvgl\lv_objx/lv_label.c ****     ext->body_draw = en == false ? 0 : 1;
 329:..\lvgl\lv_objx/lv_label.c **** 
 330:..\lvgl\lv_objx/lv_label.c ****     lv_obj_refresh_ext_size(label);
 331:..\lvgl\lv_objx/lv_label.c **** 
 332:..\lvgl\lv_objx/lv_label.c ****     lv_obj_invalidate(label);
 333:..\lvgl\lv_objx/lv_label.c **** }
 334:..\lvgl\lv_objx/lv_label.c **** 
 335:..\lvgl\lv_objx/lv_label.c **** /**
 336:..\lvgl\lv_objx/lv_label.c ****  * Set the label's animation speed in LV_LABEL_LONG_ROLL and SCROLL modes
 337:..\lvgl\lv_objx/lv_label.c ****  * @param label pointer to a label object
 338:..\lvgl\lv_objx/lv_label.c ****  * @param anim_speed speed of animation in px/sec unit
 339:..\lvgl\lv_objx/lv_label.c ****  */
 340:..\lvgl\lv_objx/lv_label.c **** void lv_label_set_anim_speed(lv_obj_t * label, uint16_t anim_speed)
 341:..\lvgl\lv_objx/lv_label.c **** {
 342:..\lvgl\lv_objx/lv_label.c ****     lv_label_ext_t * ext = lv_obj_get_ext_attr(label);
 343:..\lvgl\lv_objx/lv_label.c ****     if(ext->anim_speed == anim_speed) return;
 344:..\lvgl\lv_objx/lv_label.c **** 
 345:..\lvgl\lv_objx/lv_label.c ****     ext->anim_speed = anim_speed;
 346:..\lvgl\lv_objx/lv_label.c **** 
 347:..\lvgl\lv_objx/lv_label.c ****     if(ext->long_mode == LV_LABEL_LONG_ROLL || ext->long_mode == LV_LABEL_LONG_SCROLL) {
 348:..\lvgl\lv_objx/lv_label.c ****         lv_label_refr_text(label);
 349:..\lvgl\lv_objx/lv_label.c ****     }
 350:..\lvgl\lv_objx/lv_label.c **** }
 351:..\lvgl\lv_objx/lv_label.c **** 
 352:..\lvgl\lv_objx/lv_label.c **** /*=====================
 353:..\lvgl\lv_objx/lv_label.c ****  * Getter functions
 354:..\lvgl\lv_objx/lv_label.c ****  *====================*/
 355:..\lvgl\lv_objx/lv_label.c **** 
 356:..\lvgl\lv_objx/lv_label.c **** /**
 357:..\lvgl\lv_objx/lv_label.c ****  * Get the text of a label
 358:..\lvgl\lv_objx/lv_label.c ****  * @param label pointer to a label object
 359:..\lvgl\lv_objx/lv_label.c ****  * @return the text of the label
 360:..\lvgl\lv_objx/lv_label.c ****  */
 361:..\lvgl\lv_objx/lv_label.c **** char * lv_label_get_text(const lv_obj_t * label)
 362:..\lvgl\lv_objx/lv_label.c **** {
 363:..\lvgl\lv_objx/lv_label.c ****     lv_label_ext_t * ext = lv_obj_get_ext_attr(label);
 364:..\lvgl\lv_objx/lv_label.c **** 
 365:..\lvgl\lv_objx/lv_label.c ****     return ext->text;
 366:..\lvgl\lv_objx/lv_label.c **** }
 367:..\lvgl\lv_objx/lv_label.c **** 
 368:..\lvgl\lv_objx/lv_label.c **** #if USE_LV_MULTI_LANG
 369:..\lvgl\lv_objx/lv_label.c **** /**
 370:..\lvgl\lv_objx/lv_label.c ****  * Get the text ID of the label. (Used by the multi-language feature)
 371:..\lvgl\lv_objx/lv_label.c ****  * @param label pointer to a label object
 372:..\lvgl\lv_objx/lv_label.c ****  * @return ID of the text
 373:..\lvgl\lv_objx/lv_label.c ****  */
ARM GAS  C:\Users\d3bug\AppData\Local\Temp\cct3SNM7.s 			page 8


 374:..\lvgl\lv_objx/lv_label.c **** uint16_t lv_label_get_text_id(lv_obj_t * label)
 375:..\lvgl\lv_objx/lv_label.c **** {
 376:..\lvgl\lv_objx/lv_label.c ****     lv_label_ext_t * ext = lv_obj_get_ext_attr(label);
 377:..\lvgl\lv_objx/lv_label.c ****     return ext->lang_txt_id;
 378:..\lvgl\lv_objx/lv_label.c **** }
 379:..\lvgl\lv_objx/lv_label.c **** #endif
 380:..\lvgl\lv_objx/lv_label.c **** 
 381:..\lvgl\lv_objx/lv_label.c **** /**
 382:..\lvgl\lv_objx/lv_label.c ****  * Get the long mode of a label
 383:..\lvgl\lv_objx/lv_label.c ****  * @param label pointer to a label object
 384:..\lvgl\lv_objx/lv_label.c ****  * @return the long mode
 385:..\lvgl\lv_objx/lv_label.c ****  */
 386:..\lvgl\lv_objx/lv_label.c **** lv_label_long_mode_t lv_label_get_long_mode(const lv_obj_t * label)
 387:..\lvgl\lv_objx/lv_label.c **** {
 388:..\lvgl\lv_objx/lv_label.c ****     lv_label_ext_t * ext = lv_obj_get_ext_attr(label);
 389:..\lvgl\lv_objx/lv_label.c ****     return ext->long_mode;
 390:..\lvgl\lv_objx/lv_label.c **** }
 391:..\lvgl\lv_objx/lv_label.c **** 
 392:..\lvgl\lv_objx/lv_label.c **** /**
 393:..\lvgl\lv_objx/lv_label.c ****  * Get the align attribute
 394:..\lvgl\lv_objx/lv_label.c ****  * @param label pointer to a label object
 395:..\lvgl\lv_objx/lv_label.c ****  * @return LV_LABEL_ALIGN_LEFT or LV_LABEL_ALIGN_CENTER
 396:..\lvgl\lv_objx/lv_label.c ****  */
 397:..\lvgl\lv_objx/lv_label.c **** lv_label_align_t lv_label_get_align(const lv_obj_t * label)
 398:..\lvgl\lv_objx/lv_label.c **** {
 399:..\lvgl\lv_objx/lv_label.c ****     lv_label_ext_t * ext = lv_obj_get_ext_attr(label);
 400:..\lvgl\lv_objx/lv_label.c ****     return ext->align;
 401:..\lvgl\lv_objx/lv_label.c **** }
 402:..\lvgl\lv_objx/lv_label.c **** 
 403:..\lvgl\lv_objx/lv_label.c **** /**
 404:..\lvgl\lv_objx/lv_label.c ****  * Get the recoloring attribute
 405:..\lvgl\lv_objx/lv_label.c ****  * @param label pointer to a label object
 406:..\lvgl\lv_objx/lv_label.c ****  * @return true: recoloring is enabled, false: disable
 407:..\lvgl\lv_objx/lv_label.c ****  */
 408:..\lvgl\lv_objx/lv_label.c **** bool lv_label_get_recolor(const lv_obj_t * label)
 409:..\lvgl\lv_objx/lv_label.c **** {
 410:..\lvgl\lv_objx/lv_label.c ****     lv_label_ext_t * ext = lv_obj_get_ext_attr(label);
 411:..\lvgl\lv_objx/lv_label.c ****     return ext->recolor == 0 ? false : true;
 412:..\lvgl\lv_objx/lv_label.c **** }
 413:..\lvgl\lv_objx/lv_label.c **** 
 414:..\lvgl\lv_objx/lv_label.c **** /**
 415:..\lvgl\lv_objx/lv_label.c ****  * Get the body draw attribute
 416:..\lvgl\lv_objx/lv_label.c ****  * @param label pointer to a label object
 417:..\lvgl\lv_objx/lv_label.c ****  * @return true: draw body; false: don't draw body
 418:..\lvgl\lv_objx/lv_label.c ****  */
 419:..\lvgl\lv_objx/lv_label.c **** bool lv_label_get_body_draw(const lv_obj_t * label)
 420:..\lvgl\lv_objx/lv_label.c **** {
 421:..\lvgl\lv_objx/lv_label.c ****     lv_label_ext_t * ext = lv_obj_get_ext_attr(label);
 422:..\lvgl\lv_objx/lv_label.c ****     return ext->body_draw == 0 ? false : true;
 423:..\lvgl\lv_objx/lv_label.c **** }
 424:..\lvgl\lv_objx/lv_label.c **** 
 425:..\lvgl\lv_objx/lv_label.c **** /**
 426:..\lvgl\lv_objx/lv_label.c ****  * Get the label's animation speed in LV_LABEL_LONG_ROLL and SCROLL modes
 427:..\lvgl\lv_objx/lv_label.c ****  * @param label pointer to a label object
 428:..\lvgl\lv_objx/lv_label.c ****  * @return speed of animation in px/sec unit
 429:..\lvgl\lv_objx/lv_label.c ****  */
 430:..\lvgl\lv_objx/lv_label.c **** uint16_t lv_label_get_anim_speed(const lv_obj_t * label)
ARM GAS  C:\Users\d3bug\AppData\Local\Temp\cct3SNM7.s 			page 9


 431:..\lvgl\lv_objx/lv_label.c **** {
 432:..\lvgl\lv_objx/lv_label.c ****     lv_label_ext_t * ext = lv_obj_get_ext_attr(label);
 433:..\lvgl\lv_objx/lv_label.c ****     return ext->anim_speed;
 434:..\lvgl\lv_objx/lv_label.c **** }
 435:..\lvgl\lv_objx/lv_label.c **** 
 436:..\lvgl\lv_objx/lv_label.c **** /**
 437:..\lvgl\lv_objx/lv_label.c ****  * Get the relative x and y coordinates of a letter
 438:..\lvgl\lv_objx/lv_label.c ****  * @param label pointer to a label object
 439:..\lvgl\lv_objx/lv_label.c ****  * @param index index of the letter [0 ... text length]. Expressed in character index, not byte ind
 440:..\lvgl\lv_objx/lv_label.c ****  * @param pos store the result here (E.g. index = 0 gives 0;0 coordinates)
 441:..\lvgl\lv_objx/lv_label.c ****  */
 442:..\lvgl\lv_objx/lv_label.c **** void lv_label_get_letter_pos(const lv_obj_t * label, uint16_t index, lv_point_t * pos)
 443:..\lvgl\lv_objx/lv_label.c **** {
 444:..\lvgl\lv_objx/lv_label.c ****     const char * txt = lv_label_get_text(label);
 445:..\lvgl\lv_objx/lv_label.c ****     lv_label_ext_t * ext = lv_obj_get_ext_attr(label);
 446:..\lvgl\lv_objx/lv_label.c ****     uint32_t line_start = 0;
 447:..\lvgl\lv_objx/lv_label.c ****     uint32_t new_line_start = 0;
 448:..\lvgl\lv_objx/lv_label.c ****     lv_coord_t max_w = lv_obj_get_width(label);
 449:..\lvgl\lv_objx/lv_label.c ****     lv_style_t * style = lv_obj_get_style(label);
 450:..\lvgl\lv_objx/lv_label.c ****     const lv_font_t * font = style->text.font;
 451:..\lvgl\lv_objx/lv_label.c ****     uint8_t letter_height = lv_font_get_height(font);
 452:..\lvgl\lv_objx/lv_label.c ****     lv_coord_t y = 0;
 453:..\lvgl\lv_objx/lv_label.c ****     lv_txt_flag_t flag = LV_TXT_FLAG_NONE;
 454:..\lvgl\lv_objx/lv_label.c **** 
 455:..\lvgl\lv_objx/lv_label.c ****     if(ext->recolor != 0) flag |= LV_TXT_FLAG_RECOLOR;
 456:..\lvgl\lv_objx/lv_label.c ****     if(ext->expand != 0) flag |= LV_TXT_FLAG_EXPAND;
 457:..\lvgl\lv_objx/lv_label.c ****     if(ext->align == LV_LABEL_ALIGN_CENTER) flag |= LV_TXT_FLAG_CENTER;
 458:..\lvgl\lv_objx/lv_label.c **** 
 459:..\lvgl\lv_objx/lv_label.c ****     /*If the width will be expanded  the set the max length to very big */
 460:..\lvgl\lv_objx/lv_label.c ****     if(ext->long_mode == LV_LABEL_LONG_EXPAND || ext->long_mode == LV_LABEL_LONG_SCROLL) {
 461:..\lvgl\lv_objx/lv_label.c ****         max_w = LV_COORD_MAX;
 462:..\lvgl\lv_objx/lv_label.c ****     }
 463:..\lvgl\lv_objx/lv_label.c **** 
 464:..\lvgl\lv_objx/lv_label.c ****     index = lv_txt_encoded_get_byte_id(txt, index);
 465:..\lvgl\lv_objx/lv_label.c **** 
 466:..\lvgl\lv_objx/lv_label.c ****     /*Search the line of the index letter */;
 467:..\lvgl\lv_objx/lv_label.c ****     while(txt[new_line_start] != '\0') {
 468:..\lvgl\lv_objx/lv_label.c ****         new_line_start += lv_txt_get_next_line(&txt[line_start], font, style->text.letter_space, ma
 469:..\lvgl\lv_objx/lv_label.c ****         if(index < new_line_start || txt[new_line_start] == '\0') break; /*The line of 'index' lett
 470:..\lvgl\lv_objx/lv_label.c **** 
 471:..\lvgl\lv_objx/lv_label.c ****         y += letter_height + style->text.line_space;
 472:..\lvgl\lv_objx/lv_label.c ****         line_start = new_line_start;
 473:..\lvgl\lv_objx/lv_label.c ****     }
 474:..\lvgl\lv_objx/lv_label.c **** 
 475:..\lvgl\lv_objx/lv_label.c ****     /*If the last character is line break then go to the next line*/
 476:..\lvgl\lv_objx/lv_label.c ****     if(index > 0) {
 477:..\lvgl\lv_objx/lv_label.c ****         if((txt[index - 1] == '\n' || txt[index - 1] == '\r') && txt[index] == '\0') {
 478:..\lvgl\lv_objx/lv_label.c ****             y += letter_height + style->text.line_space;
 479:..\lvgl\lv_objx/lv_label.c ****             line_start = index;
 480:..\lvgl\lv_objx/lv_label.c ****         }
 481:..\lvgl\lv_objx/lv_label.c ****     }
 482:..\lvgl\lv_objx/lv_label.c **** 
 483:..\lvgl\lv_objx/lv_label.c ****     /*Calculate the x coordinate*/
 484:..\lvgl\lv_objx/lv_label.c ****     lv_coord_t x = lv_txt_get_width(&txt[line_start], index - line_start,
 485:..\lvgl\lv_objx/lv_label.c ****                             font, style->text.letter_space, flag);
 486:..\lvgl\lv_objx/lv_label.c **** 
 487:..\lvgl\lv_objx/lv_label.c ****     if(index != line_start) x += style->text.letter_space;
ARM GAS  C:\Users\d3bug\AppData\Local\Temp\cct3SNM7.s 			page 10


 488:..\lvgl\lv_objx/lv_label.c **** 
 489:..\lvgl\lv_objx/lv_label.c ****     if(ext->align == LV_LABEL_ALIGN_CENTER) {
 490:..\lvgl\lv_objx/lv_label.c ****         lv_coord_t line_w;
 491:..\lvgl\lv_objx/lv_label.c ****         line_w = lv_txt_get_width(&txt[line_start], new_line_start - line_start,
 492:..\lvgl\lv_objx/lv_label.c ****                                   font, style->text.letter_space, flag);
 493:..\lvgl\lv_objx/lv_label.c ****         x += lv_obj_get_width(label) / 2 - line_w / 2;
 494:..\lvgl\lv_objx/lv_label.c **** 
 495:..\lvgl\lv_objx/lv_label.c ****     } else if(ext->align == LV_LABEL_ALIGN_RIGHT) {
 496:..\lvgl\lv_objx/lv_label.c ****         lv_coord_t line_w;
 497:..\lvgl\lv_objx/lv_label.c ****         line_w = lv_txt_get_width(&txt[line_start], new_line_start - line_start,
 498:..\lvgl\lv_objx/lv_label.c ****                                   font, style->text.letter_space, flag);
 499:..\lvgl\lv_objx/lv_label.c **** 
 500:..\lvgl\lv_objx/lv_label.c ****         x += lv_obj_get_width(label) - line_w;
 501:..\lvgl\lv_objx/lv_label.c ****     }
 502:..\lvgl\lv_objx/lv_label.c ****     pos->x = x;
 503:..\lvgl\lv_objx/lv_label.c ****     pos->y = y;
 504:..\lvgl\lv_objx/lv_label.c **** }
 505:..\lvgl\lv_objx/lv_label.c **** 
 506:..\lvgl\lv_objx/lv_label.c **** /**
 507:..\lvgl\lv_objx/lv_label.c ****  * Get the index of letter on a relative point of a label
 508:..\lvgl\lv_objx/lv_label.c ****  * @param label pointer to label object
 509:..\lvgl\lv_objx/lv_label.c ****  * @param pos pointer to point with coordinates on a the label
 510:..\lvgl\lv_objx/lv_label.c ****  * @return the index of the letter on the 'pos_p' point (E.g. on 0;0 is the 0. letter)
 511:..\lvgl\lv_objx/lv_label.c ****  * Expressed in character index and not byte index (different in UTF-8)
 512:..\lvgl\lv_objx/lv_label.c ****  */
 513:..\lvgl\lv_objx/lv_label.c **** uint16_t lv_label_get_letter_on(const lv_obj_t * label, lv_point_t * pos)
 514:..\lvgl\lv_objx/lv_label.c **** {
 515:..\lvgl\lv_objx/lv_label.c ****     const char * txt = lv_label_get_text(label);
 516:..\lvgl\lv_objx/lv_label.c ****     lv_label_ext_t * ext = lv_obj_get_ext_attr(label);
 517:..\lvgl\lv_objx/lv_label.c ****     uint32_t line_start = 0;
 518:..\lvgl\lv_objx/lv_label.c ****     uint32_t new_line_start = 0;
 519:..\lvgl\lv_objx/lv_label.c ****     lv_coord_t max_w = lv_obj_get_width(label);
 520:..\lvgl\lv_objx/lv_label.c ****     lv_style_t * style = lv_obj_get_style(label);
 521:..\lvgl\lv_objx/lv_label.c ****     const lv_font_t * font = style->text.font;
 522:..\lvgl\lv_objx/lv_label.c ****     uint8_t letter_height = lv_font_get_height(font);
 523:..\lvgl\lv_objx/lv_label.c ****     lv_coord_t y = 0;
 524:..\lvgl\lv_objx/lv_label.c ****     lv_txt_flag_t flag = LV_TXT_FLAG_NONE;
 525:..\lvgl\lv_objx/lv_label.c **** 
 526:..\lvgl\lv_objx/lv_label.c ****     if(ext->recolor != 0) flag |= LV_TXT_FLAG_RECOLOR;
 527:..\lvgl\lv_objx/lv_label.c ****     if(ext->expand != 0) flag |= LV_TXT_FLAG_EXPAND;
 528:..\lvgl\lv_objx/lv_label.c ****     if(ext->align == LV_LABEL_ALIGN_CENTER) flag |= LV_TXT_FLAG_CENTER;
 529:..\lvgl\lv_objx/lv_label.c **** 
 530:..\lvgl\lv_objx/lv_label.c ****     /*If the width will be expanded set the max length to very big */
 531:..\lvgl\lv_objx/lv_label.c ****     if(ext->long_mode == LV_LABEL_LONG_EXPAND || ext->long_mode == LV_LABEL_LONG_SCROLL) {
 532:..\lvgl\lv_objx/lv_label.c ****         max_w = LV_COORD_MAX;
 533:..\lvgl\lv_objx/lv_label.c ****     }
 534:..\lvgl\lv_objx/lv_label.c **** 
 535:..\lvgl\lv_objx/lv_label.c ****     /*Search the line of the index letter */;
 536:..\lvgl\lv_objx/lv_label.c ****     while(txt[line_start] != '\0') {
 537:..\lvgl\lv_objx/lv_label.c ****         new_line_start += lv_txt_get_next_line(&txt[line_start], font, style->text.letter_space, ma
 538:..\lvgl\lv_objx/lv_label.c **** 
 539:..\lvgl\lv_objx/lv_label.c ****         if(pos->y <= y + letter_height) break; /*The line is found (stored in 'line_start')*/
 540:..\lvgl\lv_objx/lv_label.c ****         y += letter_height + style->text.line_space;
 541:..\lvgl\lv_objx/lv_label.c **** 
 542:..\lvgl\lv_objx/lv_label.c ****         line_start = new_line_start;
 543:..\lvgl\lv_objx/lv_label.c ****     }
 544:..\lvgl\lv_objx/lv_label.c **** 
ARM GAS  C:\Users\d3bug\AppData\Local\Temp\cct3SNM7.s 			page 11


 545:..\lvgl\lv_objx/lv_label.c ****     /*Calculate the x coordinate*/
 546:..\lvgl\lv_objx/lv_label.c ****     lv_coord_t x = 0;
 547:..\lvgl\lv_objx/lv_label.c ****     if(ext->align == LV_LABEL_ALIGN_CENTER) {
 548:..\lvgl\lv_objx/lv_label.c ****         lv_coord_t line_w;
 549:..\lvgl\lv_objx/lv_label.c ****         line_w = lv_txt_get_width(&txt[line_start], new_line_start - line_start,
 550:..\lvgl\lv_objx/lv_label.c ****                                   font, style->text.letter_space, flag);
 551:..\lvgl\lv_objx/lv_label.c ****         x += lv_obj_get_width(label) / 2 - line_w / 2;
 552:..\lvgl\lv_objx/lv_label.c ****     }
 553:..\lvgl\lv_objx/lv_label.c **** 
 554:..\lvgl\lv_objx/lv_label.c ****     lv_txt_cmd_state_t cmd_state = LV_TXT_CMD_STATE_WAIT;
 555:..\lvgl\lv_objx/lv_label.c ****     uint32_t i = line_start;
 556:..\lvgl\lv_objx/lv_label.c ****     uint32_t i_current = i;
 557:..\lvgl\lv_objx/lv_label.c ****     uint32_t letter;
 558:..\lvgl\lv_objx/lv_label.c ****     while(i < new_line_start - 1) {
 559:..\lvgl\lv_objx/lv_label.c ****         letter = lv_txt_encoded_next(txt, &i);    /*Be careful 'i' already points to the next chara
 560:..\lvgl\lv_objx/lv_label.c ****         /*Handle the recolor command*/
 561:..\lvgl\lv_objx/lv_label.c ****         if((flag & LV_TXT_FLAG_RECOLOR) != 0) {
 562:..\lvgl\lv_objx/lv_label.c ****             if(lv_txt_is_cmd(&cmd_state, txt[i]) != false) {
 563:..\lvgl\lv_objx/lv_label.c ****                 continue; /*Skip the letter is it is part of a command*/
 564:..\lvgl\lv_objx/lv_label.c ****             }
 565:..\lvgl\lv_objx/lv_label.c ****         }
 566:..\lvgl\lv_objx/lv_label.c **** 
 567:..\lvgl\lv_objx/lv_label.c ****         x += lv_font_get_width(font, letter);
 568:..\lvgl\lv_objx/lv_label.c ****         if(pos->x < x) {
 569:..\lvgl\lv_objx/lv_label.c ****             i = i_current;
 570:..\lvgl\lv_objx/lv_label.c ****             break;
 571:..\lvgl\lv_objx/lv_label.c ****         }
 572:..\lvgl\lv_objx/lv_label.c ****         x += style->text.letter_space;
 573:..\lvgl\lv_objx/lv_label.c ****         i_current = i;
 574:..\lvgl\lv_objx/lv_label.c ****     }
 575:..\lvgl\lv_objx/lv_label.c **** 
 576:..\lvgl\lv_objx/lv_label.c ****     return lv_encoded_get_char_id(txt, i);
 577:..\lvgl\lv_objx/lv_label.c **** }
 578:..\lvgl\lv_objx/lv_label.c **** 
 579:..\lvgl\lv_objx/lv_label.c **** 
 580:..\lvgl\lv_objx/lv_label.c **** /*=====================
 581:..\lvgl\lv_objx/lv_label.c ****  * Other functions
 582:..\lvgl\lv_objx/lv_label.c ****  *====================*/
 583:..\lvgl\lv_objx/lv_label.c **** 
 584:..\lvgl\lv_objx/lv_label.c **** /**
 585:..\lvgl\lv_objx/lv_label.c ****  * Insert a text to the label. The label text can not be static.
 586:..\lvgl\lv_objx/lv_label.c ****  * @param label pointer to a label object
 587:..\lvgl\lv_objx/lv_label.c ****  * @param pos character index to insert. Expressed in character index and not byte index (Different
 588:..\lvgl\lv_objx/lv_label.c ****  *            0: before first char.
 589:..\lvgl\lv_objx/lv_label.c ****  *            LV_LABEL_POS_LAST: after last char.
 590:..\lvgl\lv_objx/lv_label.c ****  * @param txt pointer to the text to insert
 591:..\lvgl\lv_objx/lv_label.c ****  */
 592:..\lvgl\lv_objx/lv_label.c **** void lv_label_ins_text(lv_obj_t * label, uint32_t pos,  const char * txt)
 593:..\lvgl\lv_objx/lv_label.c **** {
 594:..\lvgl\lv_objx/lv_label.c ****     lv_label_ext_t * ext = lv_obj_get_ext_attr(label);
 595:..\lvgl\lv_objx/lv_label.c **** 
 596:..\lvgl\lv_objx/lv_label.c ****     /*Can not append to static text*/
 597:..\lvgl\lv_objx/lv_label.c ****     if(ext->static_txt != 0) return;
 598:..\lvgl\lv_objx/lv_label.c **** 
 599:..\lvgl\lv_objx/lv_label.c ****     lv_obj_invalidate(label);
 600:..\lvgl\lv_objx/lv_label.c **** 
 601:..\lvgl\lv_objx/lv_label.c ****     /*Allocate space for the new text*/
ARM GAS  C:\Users\d3bug\AppData\Local\Temp\cct3SNM7.s 			page 12


 602:..\lvgl\lv_objx/lv_label.c ****     uint32_t old_len = strlen(ext->text);
 603:..\lvgl\lv_objx/lv_label.c ****     uint32_t ins_len = strlen(txt);
 604:..\lvgl\lv_objx/lv_label.c ****     uint32_t new_len = ins_len + old_len;
 605:..\lvgl\lv_objx/lv_label.c ****     ext->text = lv_mem_realloc(ext->text, new_len + 1);
 606:..\lvgl\lv_objx/lv_label.c ****     lv_mem_assert(ext->text);
 607:..\lvgl\lv_objx/lv_label.c ****     if(ext->text == NULL) return;
 608:..\lvgl\lv_objx/lv_label.c **** 
 609:..\lvgl\lv_objx/lv_label.c ****     if(pos == LV_LABEL_POS_LAST) {
 610:..\lvgl\lv_objx/lv_label.c **** #if LV_TXT_UTF8 == 0
 611:..\lvgl\lv_objx/lv_label.c ****         pos = old_len;
 612:..\lvgl\lv_objx/lv_label.c **** #else
 613:..\lvgl\lv_objx/lv_label.c ****         pos = lv_txt_get_encoded_length(ext->text);
 614:..\lvgl\lv_objx/lv_label.c **** #endif
 615:..\lvgl\lv_objx/lv_label.c ****     }
 616:..\lvgl\lv_objx/lv_label.c **** 
 617:..\lvgl\lv_objx/lv_label.c ****     lv_txt_ins(ext->text, pos, txt);
 618:..\lvgl\lv_objx/lv_label.c **** 
 619:..\lvgl\lv_objx/lv_label.c ****     lv_label_refr_text(label);
 620:..\lvgl\lv_objx/lv_label.c **** }
 621:..\lvgl\lv_objx/lv_label.c **** 
 622:..\lvgl\lv_objx/lv_label.c **** /**
 623:..\lvgl\lv_objx/lv_label.c ****  * Delete characters from a label. The label text can not be static.
 624:..\lvgl\lv_objx/lv_label.c ****  * @param label pointer to a label object
 625:..\lvgl\lv_objx/lv_label.c ****  * @param pos character index to insert. Expressed in character index and not byte index (Different
 626:..\lvgl\lv_objx/lv_label.c ****  *            0: before first char.
 627:..\lvgl\lv_objx/lv_label.c ****  * @param cnt number of characters to cut
 628:..\lvgl\lv_objx/lv_label.c ****  */
 629:..\lvgl\lv_objx/lv_label.c **** void lv_label_cut_text(lv_obj_t * label, uint32_t pos,  uint32_t cnt)
 630:..\lvgl\lv_objx/lv_label.c **** {
 631:..\lvgl\lv_objx/lv_label.c ****     lv_label_ext_t * ext = lv_obj_get_ext_attr(label);
 632:..\lvgl\lv_objx/lv_label.c **** 
 633:..\lvgl\lv_objx/lv_label.c ****     /*Can not append to static text*/
 634:..\lvgl\lv_objx/lv_label.c ****     if(ext->static_txt != 0) return;
 635:..\lvgl\lv_objx/lv_label.c **** 
 636:..\lvgl\lv_objx/lv_label.c ****     lv_obj_invalidate(label);
 637:..\lvgl\lv_objx/lv_label.c **** 
 638:..\lvgl\lv_objx/lv_label.c ****     char * label_txt = lv_label_get_text(label);
 639:..\lvgl\lv_objx/lv_label.c ****     /*Delete the characters*/
 640:..\lvgl\lv_objx/lv_label.c ****     lv_txt_cut(label_txt, pos, cnt);
 641:..\lvgl\lv_objx/lv_label.c **** 
 642:..\lvgl\lv_objx/lv_label.c ****     /*Refresh the label*/
 643:..\lvgl\lv_objx/lv_label.c ****     lv_label_refr_text(label);
 644:..\lvgl\lv_objx/lv_label.c **** }
 645:..\lvgl\lv_objx/lv_label.c **** 
 646:..\lvgl\lv_objx/lv_label.c **** /**********************
 647:..\lvgl\lv_objx/lv_label.c ****  *   STATIC FUNCTIONS
 648:..\lvgl\lv_objx/lv_label.c ****  **********************/
 649:..\lvgl\lv_objx/lv_label.c **** 
 650:..\lvgl\lv_objx/lv_label.c **** /**
 651:..\lvgl\lv_objx/lv_label.c ****  * Handle the drawing related tasks of the labels
 652:..\lvgl\lv_objx/lv_label.c ****  * @param label pointer to a label object
 653:..\lvgl\lv_objx/lv_label.c ****  * @param mask the object will be drawn only in this area
 654:..\lvgl\lv_objx/lv_label.c ****  * @param mode LV_DESIGN_COVER_CHK: only check if the object fully covers the 'mask_p' area
 655:..\lvgl\lv_objx/lv_label.c ****  *                                  (return 'true' if yes)
 656:..\lvgl\lv_objx/lv_label.c ****  *             LV_DESIGN_DRAW: draw the object (always return 'true')
 657:..\lvgl\lv_objx/lv_label.c ****  *             LV_DESIGN_DRAW_POST: drawing after every children are drawn
 658:..\lvgl\lv_objx/lv_label.c ****  * @param return true/false, depends on 'mode'
ARM GAS  C:\Users\d3bug\AppData\Local\Temp\cct3SNM7.s 			page 13


 659:..\lvgl\lv_objx/lv_label.c ****  */
 660:..\lvgl\lv_objx/lv_label.c **** static bool lv_label_design(lv_obj_t * label, const lv_area_t * mask, lv_design_mode_t mode)
 661:..\lvgl\lv_objx/lv_label.c **** {
 662:..\lvgl\lv_objx/lv_label.c ****     /* A label never covers an area */
 663:..\lvgl\lv_objx/lv_label.c ****     if(mode == LV_DESIGN_COVER_CHK) return false;
 664:..\lvgl\lv_objx/lv_label.c ****     else if(mode == LV_DESIGN_DRAW_MAIN) {
 665:..\lvgl\lv_objx/lv_label.c ****         lv_area_t coords;
 666:..\lvgl\lv_objx/lv_label.c ****         lv_style_t * style = lv_obj_get_style(label);
 667:..\lvgl\lv_objx/lv_label.c ****         lv_opa_t opa_scale = lv_obj_get_opa_scale(label);
 668:..\lvgl\lv_objx/lv_label.c ****         lv_obj_get_coords(label, &coords);
 669:..\lvgl\lv_objx/lv_label.c **** 
 670:..\lvgl\lv_objx/lv_label.c **** #if USE_LV_GROUP
 671:..\lvgl\lv_objx/lv_label.c ****         lv_group_t * g = lv_obj_get_group(label);
 672:..\lvgl\lv_objx/lv_label.c ****         if(lv_group_get_focused(g) == label) {
 673:..\lvgl\lv_objx/lv_label.c ****             lv_draw_rect(&coords, mask, style, opa_scale);
 674:..\lvgl\lv_objx/lv_label.c ****         }
 675:..\lvgl\lv_objx/lv_label.c **** #endif
 676:..\lvgl\lv_objx/lv_label.c **** 
 677:..\lvgl\lv_objx/lv_label.c ****         lv_label_ext_t * ext = lv_obj_get_ext_attr(label);
 678:..\lvgl\lv_objx/lv_label.c **** 
 679:..\lvgl\lv_objx/lv_label.c ****         if(ext->body_draw) {
 680:..\lvgl\lv_objx/lv_label.c ****             lv_area_t bg;
 681:..\lvgl\lv_objx/lv_label.c ****             lv_obj_get_coords(label, &bg);
 682:..\lvgl\lv_objx/lv_label.c ****             bg.x1 -= style->body.padding.hor;
 683:..\lvgl\lv_objx/lv_label.c ****             bg.x2 += style->body.padding.hor;
 684:..\lvgl\lv_objx/lv_label.c ****             bg.y1 -= style->body.padding.ver;
 685:..\lvgl\lv_objx/lv_label.c ****             bg.y2 += style->body.padding.ver;
 686:..\lvgl\lv_objx/lv_label.c **** 
 687:..\lvgl\lv_objx/lv_label.c ****             lv_draw_rect(&bg, mask, style, lv_obj_get_opa_scale(label));
 688:..\lvgl\lv_objx/lv_label.c ****         }
 689:..\lvgl\lv_objx/lv_label.c **** 
 690:..\lvgl\lv_objx/lv_label.c ****         /*TEST: draw a background for the label*/
 691:..\lvgl\lv_objx/lv_label.c ****         //lv_draw_rect(&label->coords, mask, &lv_style_plain_color, LV_OPA_COVER);
 692:..\lvgl\lv_objx/lv_label.c **** 
 693:..\lvgl\lv_objx/lv_label.c ****         lv_txt_flag_t flag = LV_TXT_FLAG_NONE;
 694:..\lvgl\lv_objx/lv_label.c ****         if(ext->recolor != 0) flag |= LV_TXT_FLAG_RECOLOR;
 695:..\lvgl\lv_objx/lv_label.c ****         if(ext->expand != 0) flag |= LV_TXT_FLAG_EXPAND;
 696:..\lvgl\lv_objx/lv_label.c ****         if(ext->align == LV_LABEL_ALIGN_CENTER) flag |= LV_TXT_FLAG_CENTER;
 697:..\lvgl\lv_objx/lv_label.c ****         if(ext->align == LV_LABEL_ALIGN_RIGHT) flag |= LV_TXT_FLAG_RIGHT;
 698:..\lvgl\lv_objx/lv_label.c **** 
 699:..\lvgl\lv_objx/lv_label.c ****         /* In ROLL mode the CENTER and RIGHT are pointless so remove them.
 700:..\lvgl\lv_objx/lv_label.c ****          * (In addition they will result mis-alignment is this case)*/
 701:..\lvgl\lv_objx/lv_label.c ****         if((ext->long_mode == LV_LABEL_LONG_ROLL) &&
 702:..\lvgl\lv_objx/lv_label.c ****                 (ext->align == LV_LABEL_ALIGN_CENTER || ext->align == LV_LABEL_ALIGN_RIGHT)) {
 703:..\lvgl\lv_objx/lv_label.c ****             lv_point_t size;
 704:..\lvgl\lv_objx/lv_label.c ****             lv_txt_get_size(&size, ext->text, style->text.font, style->text.letter_space, style->te
 705:..\lvgl\lv_objx/lv_label.c ****             if(size.x > lv_obj_get_width(label)) {
 706:..\lvgl\lv_objx/lv_label.c ****                 flag &= ~LV_TXT_FLAG_RIGHT;
 707:..\lvgl\lv_objx/lv_label.c ****                 flag &= ~LV_TXT_FLAG_CENTER;
 708:..\lvgl\lv_objx/lv_label.c ****             }
 709:..\lvgl\lv_objx/lv_label.c ****         }
 710:..\lvgl\lv_objx/lv_label.c **** 
 711:..\lvgl\lv_objx/lv_label.c ****         lv_draw_label(&coords, mask, style, opa_scale, ext->text, flag, &ext->offset);
 712:..\lvgl\lv_objx/lv_label.c ****     }
 713:..\lvgl\lv_objx/lv_label.c ****     return true;
 714:..\lvgl\lv_objx/lv_label.c **** }
 715:..\lvgl\lv_objx/lv_label.c **** 
ARM GAS  C:\Users\d3bug\AppData\Local\Temp\cct3SNM7.s 			page 14


 716:..\lvgl\lv_objx/lv_label.c **** 
 717:..\lvgl\lv_objx/lv_label.c **** 
 718:..\lvgl\lv_objx/lv_label.c **** /**
 719:..\lvgl\lv_objx/lv_label.c ****  * Signal function of the label
 720:..\lvgl\lv_objx/lv_label.c ****  * @param label pointer to a label object
 721:..\lvgl\lv_objx/lv_label.c ****  * @param sign a signal type from lv_signal_t enum
 722:..\lvgl\lv_objx/lv_label.c ****  * @param param pointer to a signal specific variable
 723:..\lvgl\lv_objx/lv_label.c ****  * @return LV_RES_OK: the object is not deleted in the function; LV_RES_INV: the object is deleted
 724:..\lvgl\lv_objx/lv_label.c ****  */
 725:..\lvgl\lv_objx/lv_label.c **** static lv_res_t lv_label_signal(lv_obj_t * label, lv_signal_t sign, void * param)
 726:..\lvgl\lv_objx/lv_label.c **** {
 727:..\lvgl\lv_objx/lv_label.c ****     lv_res_t res;
 728:..\lvgl\lv_objx/lv_label.c **** 
 729:..\lvgl\lv_objx/lv_label.c ****     /* Include the ancient signal function */
 730:..\lvgl\lv_objx/lv_label.c ****     res = ancestor_signal(label, sign, param);
 731:..\lvgl\lv_objx/lv_label.c ****     if(res != LV_RES_OK) return res;
 732:..\lvgl\lv_objx/lv_label.c **** 
 733:..\lvgl\lv_objx/lv_label.c ****     lv_label_ext_t * ext = lv_obj_get_ext_attr(label);
 734:..\lvgl\lv_objx/lv_label.c ****     if(sign ==  LV_SIGNAL_CLEANUP) {
 735:..\lvgl\lv_objx/lv_label.c ****         if(ext->static_txt == 0) {
 736:..\lvgl\lv_objx/lv_label.c ****             lv_mem_free(ext->text);
 737:..\lvgl\lv_objx/lv_label.c ****             ext->text = NULL;
 738:..\lvgl\lv_objx/lv_label.c ****         }
 739:..\lvgl\lv_objx/lv_label.c ****     } else if(sign == LV_SIGNAL_STYLE_CHG) {
 740:..\lvgl\lv_objx/lv_label.c ****         /*Revert dots for proper refresh*/
 741:..\lvgl\lv_objx/lv_label.c ****         lv_label_revert_dots(label);
 742:..\lvgl\lv_objx/lv_label.c **** 
 743:..\lvgl\lv_objx/lv_label.c ****         lv_label_refr_text(label);
 744:..\lvgl\lv_objx/lv_label.c ****     } else if(sign == LV_SIGNAL_CORD_CHG) {
 745:..\lvgl\lv_objx/lv_label.c ****         if(lv_area_get_width(&label->coords) != lv_area_get_width(param) ||
 746:..\lvgl\lv_objx/lv_label.c ****                 lv_area_get_height(&label->coords) != lv_area_get_height(param)) {
 747:..\lvgl\lv_objx/lv_label.c ****             lv_label_revert_dots(label);
 748:..\lvgl\lv_objx/lv_label.c ****             lv_label_refr_text(label);
 749:..\lvgl\lv_objx/lv_label.c ****         }
 750:..\lvgl\lv_objx/lv_label.c ****     } else if(sign == LV_SIGNAL_REFR_EXT_SIZE) {
 751:..\lvgl\lv_objx/lv_label.c ****         if(ext->body_draw) {
 752:..\lvgl\lv_objx/lv_label.c ****             lv_style_t * style = lv_label_get_style(label);
 753:..\lvgl\lv_objx/lv_label.c ****             label->ext_size = LV_MATH_MAX(label->ext_size, style->body.padding.hor);
 754:..\lvgl\lv_objx/lv_label.c ****             label->ext_size = LV_MATH_MAX(label->ext_size, style->body.padding.ver);
 755:..\lvgl\lv_objx/lv_label.c ****         }
 756:..\lvgl\lv_objx/lv_label.c ****     } else if(sign == LV_SIGNAL_LANG_CHG) {
 757:..\lvgl\lv_objx/lv_label.c **** #if USE_LV_MULTI_LANG
 758:..\lvgl\lv_objx/lv_label.c ****         if(ext->lang_txt_id != LV_LANG_TXT_ID_NONE) {
 759:..\lvgl\lv_objx/lv_label.c ****             const char * lang_txt = lv_lang_get_text(ext->lang_txt_id);
 760:..\lvgl\lv_objx/lv_label.c ****             if(lang_txt) {
 761:..\lvgl\lv_objx/lv_label.c ****                 lv_label_set_text(label, lang_txt);
 762:..\lvgl\lv_objx/lv_label.c ****             } else {
 763:..\lvgl\lv_objx/lv_label.c ****                 LV_LOG_WARN("lv_lang_get_text return NULL for a label's text");
 764:..\lvgl\lv_objx/lv_label.c ****             }
 765:..\lvgl\lv_objx/lv_label.c ****         }
 766:..\lvgl\lv_objx/lv_label.c **** #endif
 767:..\lvgl\lv_objx/lv_label.c ****     } else if(sign == LV_SIGNAL_GET_TYPE) {
 768:..\lvgl\lv_objx/lv_label.c ****         lv_obj_type_t * buf = param;
 769:..\lvgl\lv_objx/lv_label.c ****         uint8_t i;
 770:..\lvgl\lv_objx/lv_label.c ****         for(i = 0; i < LV_MAX_ANCESTOR_NUM - 1; i++) {  /*Find the last set data*/
 771:..\lvgl\lv_objx/lv_label.c ****             if(buf->type[i] == NULL) break;
 772:..\lvgl\lv_objx/lv_label.c ****         }
ARM GAS  C:\Users\d3bug\AppData\Local\Temp\cct3SNM7.s 			page 15


 773:..\lvgl\lv_objx/lv_label.c ****         buf->type[i] = "lv_label";
 774:..\lvgl\lv_objx/lv_label.c ****     }
 775:..\lvgl\lv_objx/lv_label.c **** 
 776:..\lvgl\lv_objx/lv_label.c ****     return res;
 777:..\lvgl\lv_objx/lv_label.c **** }
 778:..\lvgl\lv_objx/lv_label.c **** 
 779:..\lvgl\lv_objx/lv_label.c **** /**
 780:..\lvgl\lv_objx/lv_label.c ****  * Refresh the label with its text stored in its extended data
 781:..\lvgl\lv_objx/lv_label.c ****  * @param label pointer to a label object
 782:..\lvgl\lv_objx/lv_label.c ****  */
 783:..\lvgl\lv_objx/lv_label.c **** static void lv_label_refr_text(lv_obj_t * label)
 784:..\lvgl\lv_objx/lv_label.c **** {
 785:..\lvgl\lv_objx/lv_label.c ****     lv_label_ext_t * ext = lv_obj_get_ext_attr(label);
 786:..\lvgl\lv_objx/lv_label.c **** 
 787:..\lvgl\lv_objx/lv_label.c ****     if(ext->text == NULL) return;
 788:..\lvgl\lv_objx/lv_label.c **** 
 789:..\lvgl\lv_objx/lv_label.c ****     lv_coord_t max_w = lv_obj_get_width(label);
 790:..\lvgl\lv_objx/lv_label.c ****     lv_style_t * style = lv_obj_get_style(label);
 791:..\lvgl\lv_objx/lv_label.c ****     const lv_font_t * font = style->text.font;
 792:..\lvgl\lv_objx/lv_label.c **** 
 793:..\lvgl\lv_objx/lv_label.c ****     /*If the width will be expanded set the max length to very big */
 794:..\lvgl\lv_objx/lv_label.c ****     if(ext->long_mode == LV_LABEL_LONG_EXPAND ||
 795:..\lvgl\lv_objx/lv_label.c ****             ext->long_mode == LV_LABEL_LONG_SCROLL) {
 796:..\lvgl\lv_objx/lv_label.c ****         max_w = LV_COORD_MAX;
 797:..\lvgl\lv_objx/lv_label.c ****     }
 798:..\lvgl\lv_objx/lv_label.c **** 
 799:..\lvgl\lv_objx/lv_label.c ****     /*Calc. the height and longest line*/
 800:..\lvgl\lv_objx/lv_label.c ****     lv_point_t size;
 801:..\lvgl\lv_objx/lv_label.c ****     lv_txt_flag_t flag = LV_TXT_FLAG_NONE;
 802:..\lvgl\lv_objx/lv_label.c ****     if(ext->recolor != 0) flag |= LV_TXT_FLAG_RECOLOR;
 803:..\lvgl\lv_objx/lv_label.c ****     if(ext->expand != 0) flag |= LV_TXT_FLAG_EXPAND;
 804:..\lvgl\lv_objx/lv_label.c ****     lv_txt_get_size(&size, ext->text, font, style->text.letter_space, style->text.line_space, max_w
 805:..\lvgl\lv_objx/lv_label.c **** 
 806:..\lvgl\lv_objx/lv_label.c ****     /*Set the full size in expand mode*/
 807:..\lvgl\lv_objx/lv_label.c ****     if(ext->long_mode == LV_LABEL_LONG_EXPAND || ext->long_mode == LV_LABEL_LONG_SCROLL) {
 808:..\lvgl\lv_objx/lv_label.c ****         lv_obj_set_size(label, size.x, size.y);
 809:..\lvgl\lv_objx/lv_label.c **** 
 810:..\lvgl\lv_objx/lv_label.c ****         /*Start scrolling if the label is greater then its parent*/
 811:..\lvgl\lv_objx/lv_label.c ****         if(ext->long_mode == LV_LABEL_LONG_SCROLL) {
 812:..\lvgl\lv_objx/lv_label.c **** #if USE_LV_ANIMATION
 813:..\lvgl\lv_objx/lv_label.c ****             lv_obj_t * parent = lv_obj_get_parent(label);
 814:..\lvgl\lv_objx/lv_label.c **** 
 815:..\lvgl\lv_objx/lv_label.c ****             /*Delete the potential previous scroller animations*/
 816:..\lvgl\lv_objx/lv_label.c ****             lv_anim_del(label, (lv_anim_fp_t) lv_obj_set_x);
 817:..\lvgl\lv_objx/lv_label.c ****             lv_anim_del(label, (lv_anim_fp_t) lv_obj_set_y);
 818:..\lvgl\lv_objx/lv_label.c **** 
 819:..\lvgl\lv_objx/lv_label.c ****             lv_anim_t anim;
 820:..\lvgl\lv_objx/lv_label.c ****             anim.var = label;
 821:..\lvgl\lv_objx/lv_label.c ****             anim.repeat = 1;
 822:..\lvgl\lv_objx/lv_label.c ****             anim.playback = 1;
 823:..\lvgl\lv_objx/lv_label.c ****             anim.start = 0;
 824:..\lvgl\lv_objx/lv_label.c ****             anim.act_time = 0;
 825:..\lvgl\lv_objx/lv_label.c ****             anim.end_cb = NULL;
 826:..\lvgl\lv_objx/lv_label.c ****             anim.path = lv_anim_path_linear;
 827:..\lvgl\lv_objx/lv_label.c **** 
 828:..\lvgl\lv_objx/lv_label.c ****             anim.playback_pause = (((lv_font_get_width(style->text.font, ' ') +
 829:..\lvgl\lv_objx/lv_label.c ****                                      style->text.letter_space) * 1000) / ext->anim_speed) * ANIM_WA
ARM GAS  C:\Users\d3bug\AppData\Local\Temp\cct3SNM7.s 			page 16


 830:..\lvgl\lv_objx/lv_label.c ****             anim.repeat_pause = anim.playback_pause;
 831:..\lvgl\lv_objx/lv_label.c **** 
 832:..\lvgl\lv_objx/lv_label.c ****             if(lv_obj_get_width(label) > lv_obj_get_width(parent)) {
 833:..\lvgl\lv_objx/lv_label.c ****                 anim.end = lv_obj_get_width(parent) - lv_obj_get_width(label);
 834:..\lvgl\lv_objx/lv_label.c ****                 anim.fp = (lv_anim_fp_t) lv_obj_set_x;
 835:..\lvgl\lv_objx/lv_label.c ****                 anim.time = lv_anim_speed_to_time(ext->anim_speed, anim.start, anim.end);
 836:..\lvgl\lv_objx/lv_label.c ****                 lv_anim_create(&anim);
 837:..\lvgl\lv_objx/lv_label.c ****             } else if(lv_obj_get_height(label) > lv_obj_get_height(parent)) {
 838:..\lvgl\lv_objx/lv_label.c ****                 anim.end =  lv_obj_get_height(parent) - lv_obj_get_height(label) - lv_font_get_heig
 839:..\lvgl\lv_objx/lv_label.c ****                 anim.fp = (lv_anim_fp_t)lv_obj_set_y;
 840:..\lvgl\lv_objx/lv_label.c ****                 anim.time = lv_anim_speed_to_time(ext->anim_speed, anim.start, anim.end);
 841:..\lvgl\lv_objx/lv_label.c ****                 lv_anim_create(&anim);
 842:..\lvgl\lv_objx/lv_label.c ****             }
 843:..\lvgl\lv_objx/lv_label.c **** #endif
 844:..\lvgl\lv_objx/lv_label.c ****         }
 845:..\lvgl\lv_objx/lv_label.c ****     }
 846:..\lvgl\lv_objx/lv_label.c ****     /*In roll mode keep the size but start offset animations*/
 847:..\lvgl\lv_objx/lv_label.c ****     else if(ext->long_mode == LV_LABEL_LONG_ROLL) {
 848:..\lvgl\lv_objx/lv_label.c **** #if USE_LV_ANIMATION
 849:..\lvgl\lv_objx/lv_label.c ****         lv_anim_t anim;
 850:..\lvgl\lv_objx/lv_label.c ****         anim.var = label;
 851:..\lvgl\lv_objx/lv_label.c ****         anim.repeat = 1;
 852:..\lvgl\lv_objx/lv_label.c ****         anim.playback = 1;
 853:..\lvgl\lv_objx/lv_label.c ****         anim.start = 0;
 854:..\lvgl\lv_objx/lv_label.c ****         anim.act_time = 0;
 855:..\lvgl\lv_objx/lv_label.c ****         anim.end_cb = NULL;
 856:..\lvgl\lv_objx/lv_label.c ****         anim.path = lv_anim_path_linear;
 857:..\lvgl\lv_objx/lv_label.c ****         anim.playback_pause = (((lv_font_get_width(style->text.font, ' ') + style->text.letter_spac
 858:..\lvgl\lv_objx/lv_label.c ****         anim.repeat_pause =  anim.playback_pause;
 859:..\lvgl\lv_objx/lv_label.c **** 
 860:..\lvgl\lv_objx/lv_label.c ****         bool hor_anim = false;
 861:..\lvgl\lv_objx/lv_label.c ****         if(size.x > lv_obj_get_width(label)) {
 862:..\lvgl\lv_objx/lv_label.c ****             anim.end = lv_obj_get_width(label) - size.x;
 863:..\lvgl\lv_objx/lv_label.c ****             anim.fp = (lv_anim_fp_t) lv_label_set_offset_x;
 864:..\lvgl\lv_objx/lv_label.c ****             anim.time = lv_anim_speed_to_time(ext->anim_speed, anim.start, anim.end);
 865:..\lvgl\lv_objx/lv_label.c ****             lv_anim_create(&anim);
 866:..\lvgl\lv_objx/lv_label.c ****             hor_anim = true;
 867:..\lvgl\lv_objx/lv_label.c ****         } else {
 868:..\lvgl\lv_objx/lv_label.c ****             /*Delete the offset animation if not required*/
 869:..\lvgl\lv_objx/lv_label.c ****             lv_anim_del(label, (lv_anim_fp_t) lv_label_set_offset_x);
 870:..\lvgl\lv_objx/lv_label.c ****             ext->offset.x = 0;
 871:..\lvgl\lv_objx/lv_label.c ****         }
 872:..\lvgl\lv_objx/lv_label.c **** 
 873:..\lvgl\lv_objx/lv_label.c ****         if(size.y > lv_obj_get_height(label) && hor_anim == false) {
 874:..\lvgl\lv_objx/lv_label.c ****             anim.end =  lv_obj_get_height(label) - size.y - (lv_font_get_height(font));
 875:..\lvgl\lv_objx/lv_label.c ****             anim.fp = (lv_anim_fp_t)lv_label_set_offset_y;
 876:..\lvgl\lv_objx/lv_label.c ****             anim.time = lv_anim_speed_to_time(ext->anim_speed, anim.start, anim.end);
 877:..\lvgl\lv_objx/lv_label.c ****             lv_anim_create(&anim);
 878:..\lvgl\lv_objx/lv_label.c ****         } else {
 879:..\lvgl\lv_objx/lv_label.c ****             /*Delete the offset animation if not required*/
 880:..\lvgl\lv_objx/lv_label.c ****             lv_anim_del(label, (lv_anim_fp_t) lv_label_set_offset_y);
 881:..\lvgl\lv_objx/lv_label.c ****             ext->offset.y = 0;
 882:..\lvgl\lv_objx/lv_label.c ****         }
 883:..\lvgl\lv_objx/lv_label.c **** #endif
 884:..\lvgl\lv_objx/lv_label.c ****     } else if(ext->long_mode == LV_LABEL_LONG_DOT) {
 885:..\lvgl\lv_objx/lv_label.c ****         if(size.y <= lv_obj_get_height(label)) {                /*No dots are required, the text is
 886:..\lvgl\lv_objx/lv_label.c ****             ext->dot_end = LV_LABEL_DOT_END_INV;
ARM GAS  C:\Users\d3bug\AppData\Local\Temp\cct3SNM7.s 			page 17


 887:..\lvgl\lv_objx/lv_label.c ****         } else if(lv_txt_get_encoded_length(ext->text) <= LV_LABEL_DOT_NUM) {     /*Don't turn to d
 888:..\lvgl\lv_objx/lv_label.c ****             ext->dot_end = LV_LABEL_DOT_END_INV;
 889:..\lvgl\lv_objx/lv_label.c ****         } else {
 890:..\lvgl\lv_objx/lv_label.c ****             lv_point_t p;
 891:..\lvgl\lv_objx/lv_label.c ****             p.x = lv_obj_get_width(label) - (lv_font_get_width(style->text.font, '.') + style->text
 892:..\lvgl\lv_objx/lv_label.c ****             p.y = lv_obj_get_height(label);
 893:..\lvgl\lv_objx/lv_label.c ****             p.y -= p.y  % (lv_font_get_height(style->text.font) + style->text.line_space);   /*Roun
 894:..\lvgl\lv_objx/lv_label.c ****             p.y -= style->text.line_space;                                                      /*T
 895:..\lvgl\lv_objx/lv_label.c ****             uint32_t letter_id = lv_label_get_letter_on(label, &p);
 896:..\lvgl\lv_objx/lv_label.c **** 
 897:..\lvgl\lv_objx/lv_label.c **** 
 898:..\lvgl\lv_objx/lv_label.c **** #if LV_TXT_UTF8 == 0
 899:..\lvgl\lv_objx/lv_label.c ****             /*Save letters under the dots and replace them with dots*/
 900:..\lvgl\lv_objx/lv_label.c ****             uint8_t i;
 901:..\lvgl\lv_objx/lv_label.c ****             for(i = 0; i < LV_LABEL_DOT_NUM; i++)  {
 902:..\lvgl\lv_objx/lv_label.c ****                 ext->dot_tmp[i] = ext->text[letter_id + i];
 903:..\lvgl\lv_objx/lv_label.c ****                 ext->text[letter_id + i] = '.';
 904:..\lvgl\lv_objx/lv_label.c ****             }
 905:..\lvgl\lv_objx/lv_label.c **** 
 906:..\lvgl\lv_objx/lv_label.c ****             ext->dot_tmp[LV_LABEL_DOT_NUM] = ext->text[letter_id + LV_LABEL_DOT_NUM];
 907:..\lvgl\lv_objx/lv_label.c ****             ext->text[letter_id + LV_LABEL_DOT_NUM] = '\0';
 908:..\lvgl\lv_objx/lv_label.c **** 
 909:..\lvgl\lv_objx/lv_label.c ****             ext->dot_end = letter_id + LV_LABEL_DOT_NUM;
 910:..\lvgl\lv_objx/lv_label.c **** #else
 911:..\lvgl\lv_objx/lv_label.c ****             /*Save letters under the dots and replace them with dots*/
 912:..\lvgl\lv_objx/lv_label.c ****             uint32_t i;
 913:..\lvgl\lv_objx/lv_label.c ****             uint32_t byte_id = lv_txt_encoded_get_byte_id(ext->text, letter_id);
 914:..\lvgl\lv_objx/lv_label.c ****             uint32_t byte_id_ori = byte_id;
 915:..\lvgl\lv_objx/lv_label.c ****             uint8_t len = 0;
 916:..\lvgl\lv_objx/lv_label.c ****             for(i = 0; i <= LV_LABEL_DOT_NUM; i++)  {
 917:..\lvgl\lv_objx/lv_label.c ****                 len += lv_txt_encoded_size(&ext->text[byte_id]);
 918:..\lvgl\lv_objx/lv_label.c ****                 lv_txt_encoded_next(ext->text, &byte_id);
 919:..\lvgl\lv_objx/lv_label.c ****             }
 920:..\lvgl\lv_objx/lv_label.c **** 
 921:..\lvgl\lv_objx/lv_label.c ****             memcpy(ext->dot_tmp, &ext->text[byte_id_ori], len);
 922:..\lvgl\lv_objx/lv_label.c ****             ext->dot_tmp[len] = '\0';       /*Close with a zero*/
 923:..\lvgl\lv_objx/lv_label.c **** 
 924:..\lvgl\lv_objx/lv_label.c ****             for(i = 0; i < LV_LABEL_DOT_NUM; i++) {
 925:..\lvgl\lv_objx/lv_label.c ****                 ext->text[byte_id_ori + i] = '.';
 926:..\lvgl\lv_objx/lv_label.c ****             }
 927:..\lvgl\lv_objx/lv_label.c ****             ext->text[byte_id_ori + LV_LABEL_DOT_NUM] = '\0';
 928:..\lvgl\lv_objx/lv_label.c **** 
 929:..\lvgl\lv_objx/lv_label.c ****             ext->dot_end = letter_id + LV_LABEL_DOT_NUM;
 930:..\lvgl\lv_objx/lv_label.c **** #endif
 931:..\lvgl\lv_objx/lv_label.c **** 
 932:..\lvgl\lv_objx/lv_label.c ****         }
 933:..\lvgl\lv_objx/lv_label.c ****     }
 934:..\lvgl\lv_objx/lv_label.c ****     /*In break mode only the height can change*/
 935:..\lvgl\lv_objx/lv_label.c ****     else if(ext->long_mode == LV_LABEL_LONG_BREAK) {
 936:..\lvgl\lv_objx/lv_label.c ****         lv_obj_set_height(label, size.y);
 937:..\lvgl\lv_objx/lv_label.c ****     }
 938:..\lvgl\lv_objx/lv_label.c ****     /*Do not set the size in Clip mode*/
 939:..\lvgl\lv_objx/lv_label.c ****     else if(ext->long_mode == LV_LABEL_LONG_CROP) {
 940:..\lvgl\lv_objx/lv_label.c ****         /*Do nothing*/
 941:..\lvgl\lv_objx/lv_label.c ****     }
 942:..\lvgl\lv_objx/lv_label.c **** 
 943:..\lvgl\lv_objx/lv_label.c **** 
ARM GAS  C:\Users\d3bug\AppData\Local\Temp\cct3SNM7.s 			page 18


 944:..\lvgl\lv_objx/lv_label.c ****     lv_obj_invalidate(label);
 945:..\lvgl\lv_objx/lv_label.c **** }
 946:..\lvgl\lv_objx/lv_label.c **** 
 947:..\lvgl\lv_objx/lv_label.c **** static void lv_label_revert_dots(lv_obj_t * label)
 948:..\lvgl\lv_objx/lv_label.c **** {
  27              		.loc 1 948 0
  28              		.cfi_startproc
  29              		@ args = 0, pretend = 0, frame = 0
  30              		@ frame_needed = 0, uses_anonymous_args = 0
  31              	.LVL0:
  32 0000 38B5     		push	{r3, r4, r5, lr}
  33              		.cfi_def_cfa_offset 16
  34              		.cfi_offset 3, -16
  35              		.cfi_offset 4, -12
  36              		.cfi_offset 5, -8
  37              		.cfi_offset 14, -4
 949:..\lvgl\lv_objx/lv_label.c ****     lv_label_ext_t * ext = lv_obj_get_ext_attr(label);
  38              		.loc 1 949 0
  39 0002 FFF7FEFF 		bl	lv_obj_get_ext_attr
  40              	.LVL1:
 950:..\lvgl\lv_objx/lv_label.c ****     if(ext->long_mode != LV_LABEL_LONG_DOT) return;
  41              		.loc 1 950 0
  42 0006 0379     		ldrb	r3, [r0, #4]	@ zero_extendqisi2
  43 0008 032B     		cmp	r3, #3
  44 000a 18D1     		bne	.L1
  45 000c 0446     		mov	r4, r0
 951:..\lvgl\lv_objx/lv_label.c ****     if(ext->dot_end == LV_LABEL_DOT_END_INV) return;
  46              		.loc 1 951 0
  47 000e 418A     		ldrh	r1, [r0, #18]
  48 0010 4FF6FF73 		movw	r3, #65535
  49 0014 9942     		cmp	r1, r3
  50 0016 12D0     		beq	.L1
  51              	.LVL2:
 952:..\lvgl\lv_objx/lv_label.c **** #if LV_TXT_UTF8 == 0
 953:..\lvgl\lv_objx/lv_label.c ****     uint32_t i;
 954:..\lvgl\lv_objx/lv_label.c ****     for(i = 0; i <= LV_LABEL_DOT_NUM; i++) {
 955:..\lvgl\lv_objx/lv_label.c ****         ext->text[ext->dot_end - i] = ext->dot_tmp[LV_LABEL_DOT_NUM - i];
 956:..\lvgl\lv_objx/lv_label.c ****     }
 957:..\lvgl\lv_objx/lv_label.c **** #else
 958:..\lvgl\lv_objx/lv_label.c ****     uint32_t letter_i = ext->dot_end - LV_LABEL_DOT_NUM;
 959:..\lvgl\lv_objx/lv_label.c ****     uint32_t byte_i = lv_txt_encoded_get_byte_id(ext->text, letter_i);
  52              		.loc 1 959 0
  53 0018 094B     		ldr	r3, .L6
  54 001a 1B68     		ldr	r3, [r3]
  55 001c 0339     		subs	r1, r1, #3
  56              	.LVL3:
  57 001e 0068     		ldr	r0, [r0]
  58              	.LVL4:
  59 0020 9847     		blx	r3
  60              	.LVL5:
 960:..\lvgl\lv_objx/lv_label.c **** 
 961:..\lvgl\lv_objx/lv_label.c ****     /*Restore the characters*/
 962:..\lvgl\lv_objx/lv_label.c ****     uint8_t i = 0;
  61              		.loc 1 962 0
  62 0022 0023     		movs	r3, #0
 963:..\lvgl\lv_objx/lv_label.c ****     while(ext->dot_tmp[i] != '\0') {
  63              		.loc 1 963 0
ARM GAS  C:\Users\d3bug\AppData\Local\Temp\cct3SNM7.s 			page 19


  64 0024 04E0     		b	.L3
  65              	.LVL6:
  66              	.L4:
 964:..\lvgl\lv_objx/lv_label.c ****         ext->text[byte_i + i] = ext->dot_tmp[i];
  67              		.loc 1 964 0
  68 0026 2568     		ldr	r5, [r4]
  69 0028 1918     		adds	r1, r3, r0
  70 002a 6A54     		strb	r2, [r5, r1]
 965:..\lvgl\lv_objx/lv_label.c ****         i++;
  71              		.loc 1 965 0
  72 002c 0133     		adds	r3, r3, #1
  73              	.LVL7:
  74 002e DBB2     		uxtb	r3, r3
  75              	.LVL8:
  76              	.L3:
 963:..\lvgl\lv_objx/lv_label.c ****     while(ext->dot_tmp[i] != '\0') {
  77              		.loc 1 963 0
  78 0030 E218     		adds	r2, r4, r3
  79 0032 5279     		ldrb	r2, [r2, #5]	@ zero_extendqisi2
  80 0034 002A     		cmp	r2, #0
  81 0036 F6D1     		bne	.L4
 966:..\lvgl\lv_objx/lv_label.c ****     }
 967:..\lvgl\lv_objx/lv_label.c **** #endif
 968:..\lvgl\lv_objx/lv_label.c **** 
 969:..\lvgl\lv_objx/lv_label.c ****     ext->dot_end = LV_LABEL_DOT_END_INV;
  82              		.loc 1 969 0
  83 0038 4FF6FF73 		movw	r3, #65535
  84              	.LVL9:
  85 003c 6382     		strh	r3, [r4, #18]	@ movhi
  86              	.LVL10:
  87              	.L1:
  88 003e 38BD     		pop	{r3, r4, r5, pc}
  89              	.L7:
  90              		.align	2
  91              	.L6:
  92 0040 00000000 		.word	lv_txt_encoded_get_byte_id
  93              		.cfi_endproc
  94              	.LFE36:
  95              		.size	lv_label_revert_dots, .-lv_label_revert_dots
  96              		.section	.text.lv_label_design,"ax",%progbits
  97              		.align	2
  98              		.thumb
  99              		.thumb_func
 100              		.type	lv_label_design, %function
 101              	lv_label_design:
 102              	.LFB33:
 661:..\lvgl\lv_objx/lv_label.c ****     /* A label never covers an area */
 103              		.loc 1 661 0
 104              		.cfi_startproc
 105              		@ args = 0, pretend = 0, frame = 16
 106              		@ frame_needed = 0, uses_anonymous_args = 0
 107              	.LVL11:
 663:..\lvgl\lv_objx/lv_label.c ****     else if(mode == LV_DESIGN_DRAW_MAIN) {
 108              		.loc 1 663 0
 109 0000 022A     		cmp	r2, #2
 110 0002 00F08280 		beq	.L18
 664:..\lvgl\lv_objx/lv_label.c ****         lv_area_t coords;
ARM GAS  C:\Users\d3bug\AppData\Local\Temp\cct3SNM7.s 			page 20


 111              		.loc 1 664 0
 112 0006 002A     		cmp	r2, #0
 113 0008 40F08180 		bne	.L19
 661:..\lvgl\lv_objx/lv_label.c ****     /* A label never covers an area */
 114              		.loc 1 661 0
 115 000c 2DE9F047 		push	{r4, r5, r6, r7, r8, r9, r10, lr}
 116              		.cfi_def_cfa_offset 32
 117              		.cfi_offset 4, -32
 118              		.cfi_offset 5, -28
 119              		.cfi_offset 6, -24
 120              		.cfi_offset 7, -20
 121              		.cfi_offset 8, -16
 122              		.cfi_offset 9, -12
 123              		.cfi_offset 10, -8
 124              		.cfi_offset 14, -4
 125 0010 88B0     		sub	sp, sp, #32
 126              		.cfi_def_cfa_offset 64
 127 0012 0E46     		mov	r6, r1
 128 0014 0446     		mov	r4, r0
 129              	.LBB27:
 666:..\lvgl\lv_objx/lv_label.c ****         lv_opa_t opa_scale = lv_obj_get_opa_scale(label);
 130              		.loc 1 666 0
 131 0016 FFF7FEFF 		bl	lv_obj_get_style
 132              	.LVL12:
 133 001a 8046     		mov	r8, r0
 134              	.LVL13:
 667:..\lvgl\lv_objx/lv_label.c ****         lv_obj_get_coords(label, &coords);
 135              		.loc 1 667 0
 136 001c 2046     		mov	r0, r4
 137              	.LVL14:
 138 001e FFF7FEFF 		bl	lv_obj_get_opa_scale
 139              	.LVL15:
 140 0022 8146     		mov	r9, r0
 141              	.LVL16:
 668:..\lvgl\lv_objx/lv_label.c **** 
 142              		.loc 1 668 0
 143 0024 04A9     		add	r1, sp, #16
 144 0026 2046     		mov	r0, r4
 145 0028 FFF7FEFF 		bl	lv_obj_get_coords
 146              	.LVL17:
 677:..\lvgl\lv_objx/lv_label.c **** 
 147              		.loc 1 677 0
 148 002c 2046     		mov	r0, r4
 149 002e FFF7FEFF 		bl	lv_obj_get_ext_attr
 150              	.LVL18:
 151 0032 0546     		mov	r5, r0
 152              	.LVL19:
 679:..\lvgl\lv_objx/lv_label.c ****             lv_area_t bg;
 153              		.loc 1 679 0
 154 0034 837E     		ldrb	r3, [r0, #26]	@ zero_extendqisi2
 155 0036 13F0200F 		tst	r3, #32
 156 003a 24D0     		beq	.L10
 157              	.LBB28:
 681:..\lvgl\lv_objx/lv_label.c ****             bg.x1 -= style->body.padding.hor;
 158              		.loc 1 681 0
 159 003c 06A9     		add	r1, sp, #24
 160 003e 2046     		mov	r0, r4
ARM GAS  C:\Users\d3bug\AppData\Local\Temp\cct3SNM7.s 			page 21


 161              	.LVL20:
 162 0040 FFF7FEFF 		bl	lv_obj_get_coords
 163              	.LVL21:
 682:..\lvgl\lv_objx/lv_label.c ****             bg.x2 += style->body.padding.hor;
 164              		.loc 1 682 0
 165 0044 B8F81610 		ldrh	r1, [r8, #22]
 166 0048 BDF81820 		ldrh	r2, [sp, #24]
 167 004c 521A     		subs	r2, r2, r1
 168 004e ADF81820 		strh	r2, [sp, #24]	@ movhi
 683:..\lvgl\lv_objx/lv_label.c ****             bg.y1 -= style->body.padding.ver;
 169              		.loc 1 683 0
 170 0052 BDF81C30 		ldrh	r3, [sp, #28]
 171 0056 0B44     		add	r3, r3, r1
 172 0058 ADF81C30 		strh	r3, [sp, #28]	@ movhi
 684:..\lvgl\lv_objx/lv_label.c ****             bg.y2 += style->body.padding.ver;
 173              		.loc 1 684 0
 174 005c B8F81410 		ldrh	r1, [r8, #20]
 175 0060 BDF81A20 		ldrh	r2, [sp, #26]
 176 0064 521A     		subs	r2, r2, r1
 177 0066 ADF81A20 		strh	r2, [sp, #26]	@ movhi
 685:..\lvgl\lv_objx/lv_label.c **** 
 178              		.loc 1 685 0
 179 006a BDF81E30 		ldrh	r3, [sp, #30]
 180 006e 0B44     		add	r3, r3, r1
 181 0070 ADF81E30 		strh	r3, [sp, #30]	@ movhi
 687:..\lvgl\lv_objx/lv_label.c ****         }
 182              		.loc 1 687 0
 183 0074 2046     		mov	r0, r4
 184 0076 FFF7FEFF 		bl	lv_obj_get_opa_scale
 185              	.LVL22:
 186 007a 0346     		mov	r3, r0
 187 007c 4246     		mov	r2, r8
 188 007e 3146     		mov	r1, r6
 189 0080 06A8     		add	r0, sp, #24
 190 0082 FFF7FEFF 		bl	lv_draw_rect
 191              	.LVL23:
 192              	.L10:
 193              	.LBE28:
 694:..\lvgl\lv_objx/lv_label.c ****         if(ext->expand != 0) flag |= LV_TXT_FLAG_EXPAND;
 194              		.loc 1 694 0
 195 0086 AB7E     		ldrb	r3, [r5, #26]	@ zero_extendqisi2
 196 0088 13F0080F 		tst	r3, #8
 197 008c 01D1     		bne	.L20
 693:..\lvgl\lv_objx/lv_label.c ****         if(ext->recolor != 0) flag |= LV_TXT_FLAG_RECOLOR;
 198              		.loc 1 693 0
 199 008e 0027     		movs	r7, #0
 200 0090 00E0     		b	.L11
 201              	.L20:
 694:..\lvgl\lv_objx/lv_label.c ****         if(ext->expand != 0) flag |= LV_TXT_FLAG_EXPAND;
 202              		.loc 1 694 0
 203 0092 0127     		movs	r7, #1
 204              	.L11:
 205              	.LVL24:
 695:..\lvgl\lv_objx/lv_label.c ****         if(ext->align == LV_LABEL_ALIGN_CENTER) flag |= LV_TXT_FLAG_CENTER;
 206              		.loc 1 695 0
 207 0094 13F0100F 		tst	r3, #16
 208 0098 01D0     		beq	.L12
ARM GAS  C:\Users\d3bug\AppData\Local\Temp\cct3SNM7.s 			page 22


 695:..\lvgl\lv_objx/lv_label.c ****         if(ext->align == LV_LABEL_ALIGN_CENTER) flag |= LV_TXT_FLAG_CENTER;
 209              		.loc 1 695 0 is_stmt 0 discriminator 1
 210 009a 47F00207 		orr	r7, r7, #2
 211              	.LVL25:
 212              	.L12:
 696:..\lvgl\lv_objx/lv_label.c ****         if(ext->align == LV_LABEL_ALIGN_RIGHT) flag |= LV_TXT_FLAG_RIGHT;
 213              		.loc 1 696 0 is_stmt 1
 214 009e 03F00603 		and	r3, r3, #6
 215 00a2 022B     		cmp	r3, #2
 216 00a4 01D1     		bne	.L13
 696:..\lvgl\lv_objx/lv_label.c ****         if(ext->align == LV_LABEL_ALIGN_RIGHT) flag |= LV_TXT_FLAG_RIGHT;
 217              		.loc 1 696 0 is_stmt 0 discriminator 1
 218 00a6 47F00407 		orr	r7, r7, #4
 219              	.LVL26:
 220              	.L13:
 697:..\lvgl\lv_objx/lv_label.c **** 
 221              		.loc 1 697 0 is_stmt 1
 222 00aa 042B     		cmp	r3, #4
 223 00ac 01D1     		bne	.L14
 697:..\lvgl\lv_objx/lv_label.c **** 
 224              		.loc 1 697 0 is_stmt 0 discriminator 1
 225 00ae 47F00807 		orr	r7, r7, #8
 226              	.LVL27:
 227              	.L14:
 701:..\lvgl\lv_objx/lv_label.c ****                 (ext->align == LV_LABEL_ALIGN_CENTER || ext->align == LV_LABEL_ALIGN_RIGHT)) {
 228              		.loc 1 701 0 is_stmt 1
 229 00b2 2A79     		ldrb	r2, [r5, #4]	@ zero_extendqisi2
 230 00b4 042A     		cmp	r2, #4
 231 00b6 1BD1     		bne	.L15
 701:..\lvgl\lv_objx/lv_label.c ****                 (ext->align == LV_LABEL_ALIGN_CENTER || ext->align == LV_LABEL_ALIGN_RIGHT)) {
 232              		.loc 1 701 0 is_stmt 0 discriminator 1
 233 00b8 022B     		cmp	r3, #2
 234 00ba 01D0     		beq	.L16
 702:..\lvgl\lv_objx/lv_label.c ****             lv_point_t size;
 235              		.loc 1 702 0 is_stmt 1
 236 00bc 042B     		cmp	r3, #4
 237 00be 17D1     		bne	.L15
 238              	.L16:
 239              	.LBB29:
 704:..\lvgl\lv_objx/lv_label.c ****             if(size.x > lv_obj_get_width(label)) {
 240              		.loc 1 704 0
 241 00c0 2968     		ldr	r1, [r5]
 242 00c2 B8F92430 		ldrsh	r3, [r8, #36]
 243 00c6 D8F82020 		ldr	r2, [r8, #32]
 244 00ca 0297     		str	r7, [sp, #8]
 245 00cc 43F6FF70 		movw	r0, #16383
 246 00d0 0190     		str	r0, [sp, #4]
 247 00d2 B8F92600 		ldrsh	r0, [r8, #38]
 248 00d6 0090     		str	r0, [sp]
 249 00d8 06A8     		add	r0, sp, #24
 250 00da FFF7FEFF 		bl	lv_txt_get_size
 251              	.LVL28:
 705:..\lvgl\lv_objx/lv_label.c ****                 flag &= ~LV_TXT_FLAG_RIGHT;
 252              		.loc 1 705 0
 253 00de BDF918A0 		ldrsh	r10, [sp, #24]
 254 00e2 2046     		mov	r0, r4
 255 00e4 FFF7FEFF 		bl	lv_obj_get_width
ARM GAS  C:\Users\d3bug\AppData\Local\Temp\cct3SNM7.s 			page 23


 256              	.LVL29:
 257 00e8 8245     		cmp	r10, r0
 258 00ea 01DD     		ble	.L15
 259              	.LVL30:
 707:..\lvgl\lv_objx/lv_label.c ****             }
 260              		.loc 1 707 0
 261 00ec 07F0F307 		and	r7, r7, #243
 262              	.LVL31:
 263              	.L15:
 264              	.LBE29:
 711:..\lvgl\lv_objx/lv_label.c ****     }
 265              		.loc 1 711 0 discriminator 1
 266 00f0 55F8163B 		ldr	r3, [r5], #22
 267              	.LVL32:
 268 00f4 0295     		str	r5, [sp, #8]
 269 00f6 0197     		str	r7, [sp, #4]
 270 00f8 0093     		str	r3, [sp]
 271 00fa 4B46     		mov	r3, r9
 272 00fc 4246     		mov	r2, r8
 273 00fe 3146     		mov	r1, r6
 274 0100 04A8     		add	r0, sp, #16
 275 0102 FFF7FEFF 		bl	lv_draw_label
 276              	.LVL33:
 277              	.LBE27:
 713:..\lvgl\lv_objx/lv_label.c **** }
 278              		.loc 1 713 0 discriminator 1
 279 0106 0120     		movs	r0, #1
 280 0108 03E0     		b	.L9
 281              	.LVL34:
 282              	.L18:
 283              		.cfi_def_cfa_offset 0
 284              		.cfi_restore 4
 285              		.cfi_restore 5
 286              		.cfi_restore 6
 287              		.cfi_restore 7
 288              		.cfi_restore 8
 289              		.cfi_restore 9
 290              		.cfi_restore 10
 291              		.cfi_restore 14
 663:..\lvgl\lv_objx/lv_label.c ****     else if(mode == LV_DESIGN_DRAW_MAIN) {
 292              		.loc 1 663 0
 293 010a 0020     		movs	r0, #0
 294              	.LVL35:
 295 010c 7047     		bx	lr
 296              	.LVL36:
 297              	.L19:
 713:..\lvgl\lv_objx/lv_label.c **** }
 298              		.loc 1 713 0
 299 010e 0120     		movs	r0, #1
 300              	.LVL37:
 301 0110 7047     		bx	lr
 302              	.LVL38:
 303              	.L9:
 304              		.cfi_def_cfa_offset 64
 305              		.cfi_offset 4, -32
 306              		.cfi_offset 5, -28
 307              		.cfi_offset 6, -24
ARM GAS  C:\Users\d3bug\AppData\Local\Temp\cct3SNM7.s 			page 24


 308              		.cfi_offset 7, -20
 309              		.cfi_offset 8, -16
 310              		.cfi_offset 9, -12
 311              		.cfi_offset 10, -8
 312              		.cfi_offset 14, -4
 714:..\lvgl\lv_objx/lv_label.c **** 
 313              		.loc 1 714 0
 314 0112 08B0     		add	sp, sp, #32
 315              		.cfi_def_cfa_offset 32
 316              		@ sp needed
 317 0114 BDE8F087 		pop	{r4, r5, r6, r7, r8, r9, r10, pc}
 318              		.cfi_endproc
 319              	.LFE33:
 320              		.size	lv_label_design, .-lv_label_design
 321              		.section	.text.lv_label_set_align,"ax",%progbits
 322              		.align	2
 323              		.global	lv_label_set_align
 324              		.thumb
 325              		.thumb_func
 326              		.type	lv_label_set_align, %function
 327              	lv_label_set_align:
 328              	.LFB19:
 294:..\lvgl\lv_objx/lv_label.c ****     lv_label_ext_t * ext = lv_obj_get_ext_attr(label);
 329              		.loc 1 294 0
 330              		.cfi_startproc
 331              		@ args = 0, pretend = 0, frame = 0
 332              		@ frame_needed = 0, uses_anonymous_args = 0
 333              	.LVL39:
 334 0000 38B5     		push	{r3, r4, r5, lr}
 335              		.cfi_def_cfa_offset 16
 336              		.cfi_offset 3, -16
 337              		.cfi_offset 4, -12
 338              		.cfi_offset 5, -8
 339              		.cfi_offset 14, -4
 340 0002 0546     		mov	r5, r0
 341 0004 0C46     		mov	r4, r1
 295:..\lvgl\lv_objx/lv_label.c ****     if(ext->align == align) return;
 342              		.loc 1 295 0
 343 0006 FFF7FEFF 		bl	lv_obj_get_ext_attr
 344              	.LVL40:
 296:..\lvgl\lv_objx/lv_label.c **** 
 345              		.loc 1 296 0
 346 000a 837E     		ldrb	r3, [r0, #26]	@ zero_extendqisi2
 347 000c C3F34103 		ubfx	r3, r3, #1, #2
 348 0010 A342     		cmp	r3, r4
 349 0012 06D0     		beq	.L23
 298:..\lvgl\lv_objx/lv_label.c **** 
 350              		.loc 1 298 0
 351 0014 837E     		ldrb	r3, [r0, #26]	@ zero_extendqisi2
 352 0016 64F34203 		bfi	r3, r4, #1, #2
 353 001a 8376     		strb	r3, [r0, #26]
 300:..\lvgl\lv_objx/lv_label.c **** }
 354              		.loc 1 300 0
 355 001c 2846     		mov	r0, r5
 356              	.LVL41:
 357 001e FFF7FEFF 		bl	lv_obj_invalidate
 358              	.LVL42:
ARM GAS  C:\Users\d3bug\AppData\Local\Temp\cct3SNM7.s 			page 25


 359              	.L23:
 360 0022 38BD     		pop	{r3, r4, r5, pc}
 361              		.cfi_endproc
 362              	.LFE19:
 363              		.size	lv_label_set_align, .-lv_label_set_align
 364              		.section	.text.lv_label_set_body_draw,"ax",%progbits
 365              		.align	2
 366              		.global	lv_label_set_body_draw
 367              		.thumb
 368              		.thumb_func
 369              		.type	lv_label_set_body_draw, %function
 370              	lv_label_set_body_draw:
 371              	.LFB21:
 324:..\lvgl\lv_objx/lv_label.c ****     lv_label_ext_t * ext = lv_obj_get_ext_attr(label);
 372              		.loc 1 324 0
 373              		.cfi_startproc
 374              		@ args = 0, pretend = 0, frame = 0
 375              		@ frame_needed = 0, uses_anonymous_args = 0
 376              	.LVL43:
 377 0000 38B5     		push	{r3, r4, r5, lr}
 378              		.cfi_def_cfa_offset 16
 379              		.cfi_offset 3, -16
 380              		.cfi_offset 4, -12
 381              		.cfi_offset 5, -8
 382              		.cfi_offset 14, -4
 383 0002 0546     		mov	r5, r0
 384 0004 0C46     		mov	r4, r1
 325:..\lvgl\lv_objx/lv_label.c ****     if(ext->body_draw == en) return;
 385              		.loc 1 325 0
 386 0006 FFF7FEFF 		bl	lv_obj_get_ext_attr
 387              	.LVL44:
 326:..\lvgl\lv_objx/lv_label.c **** 
 388              		.loc 1 326 0
 389 000a 837E     		ldrb	r3, [r0, #26]	@ zero_extendqisi2
 390 000c C3F34013 		ubfx	r3, r3, #5, #1
 391 0010 A342     		cmp	r3, r4
 392 0012 0DD0     		beq	.L26
 328:..\lvgl\lv_objx/lv_label.c **** 
 393              		.loc 1 328 0
 394 0014 0CB9     		cbnz	r4, .L29
 395 0016 0022     		movs	r2, #0
 396 0018 00E0     		b	.L28
 397              	.L29:
 398 001a 0122     		movs	r2, #1
 399              	.L28:
 328:..\lvgl\lv_objx/lv_label.c **** 
 400              		.loc 1 328 0 is_stmt 0 discriminator 4
 401 001c 837E     		ldrb	r3, [r0, #26]	@ zero_extendqisi2
 402 001e 62F34513 		bfi	r3, r2, #5, #1
 403 0022 8376     		strb	r3, [r0, #26]
 330:..\lvgl\lv_objx/lv_label.c **** 
 404              		.loc 1 330 0 is_stmt 1 discriminator 4
 405 0024 2846     		mov	r0, r5
 406              	.LVL45:
 407 0026 FFF7FEFF 		bl	lv_obj_refresh_ext_size
 408              	.LVL46:
 332:..\lvgl\lv_objx/lv_label.c **** }
ARM GAS  C:\Users\d3bug\AppData\Local\Temp\cct3SNM7.s 			page 26


 409              		.loc 1 332 0 discriminator 4
 410 002a 2846     		mov	r0, r5
 411 002c FFF7FEFF 		bl	lv_obj_invalidate
 412              	.LVL47:
 413              	.L26:
 414 0030 38BD     		pop	{r3, r4, r5, pc}
 415              		.cfi_endproc
 416              	.LFE21:
 417              		.size	lv_label_set_body_draw, .-lv_label_set_body_draw
 418 0032 00BF     		.section	.text.lv_label_get_text,"ax",%progbits
 419              		.align	2
 420              		.global	lv_label_get_text
 421              		.thumb
 422              		.thumb_func
 423              		.type	lv_label_get_text, %function
 424              	lv_label_get_text:
 425              	.LFB23:
 362:..\lvgl\lv_objx/lv_label.c ****     lv_label_ext_t * ext = lv_obj_get_ext_attr(label);
 426              		.loc 1 362 0
 427              		.cfi_startproc
 428              		@ args = 0, pretend = 0, frame = 0
 429              		@ frame_needed = 0, uses_anonymous_args = 0
 430              	.LVL48:
 431 0000 08B5     		push	{r3, lr}
 432              		.cfi_def_cfa_offset 8
 433              		.cfi_offset 3, -8
 434              		.cfi_offset 14, -4
 363:..\lvgl\lv_objx/lv_label.c **** 
 435              		.loc 1 363 0
 436 0002 FFF7FEFF 		bl	lv_obj_get_ext_attr
 437              	.LVL49:
 366:..\lvgl\lv_objx/lv_label.c **** 
 438              		.loc 1 366 0
 439 0006 0068     		ldr	r0, [r0]
 440              	.LVL50:
 441 0008 08BD     		pop	{r3, pc}
 442              		.cfi_endproc
 443              	.LFE23:
 444              		.size	lv_label_get_text, .-lv_label_get_text
 445 000a 00BF     		.section	.text.lv_label_get_long_mode,"ax",%progbits
 446              		.align	2
 447              		.global	lv_label_get_long_mode
 448              		.thumb
 449              		.thumb_func
 450              		.type	lv_label_get_long_mode, %function
 451              	lv_label_get_long_mode:
 452              	.LFB24:
 387:..\lvgl\lv_objx/lv_label.c ****     lv_label_ext_t * ext = lv_obj_get_ext_attr(label);
 453              		.loc 1 387 0
 454              		.cfi_startproc
 455              		@ args = 0, pretend = 0, frame = 0
 456              		@ frame_needed = 0, uses_anonymous_args = 0
 457              	.LVL51:
 458 0000 08B5     		push	{r3, lr}
 459              		.cfi_def_cfa_offset 8
 460              		.cfi_offset 3, -8
 461              		.cfi_offset 14, -4
ARM GAS  C:\Users\d3bug\AppData\Local\Temp\cct3SNM7.s 			page 27


 388:..\lvgl\lv_objx/lv_label.c ****     return ext->long_mode;
 462              		.loc 1 388 0
 463 0002 FFF7FEFF 		bl	lv_obj_get_ext_attr
 464              	.LVL52:
 390:..\lvgl\lv_objx/lv_label.c **** 
 465              		.loc 1 390 0
 466 0006 0079     		ldrb	r0, [r0, #4]	@ zero_extendqisi2
 467              	.LVL53:
 468 0008 08BD     		pop	{r3, pc}
 469              		.cfi_endproc
 470              	.LFE24:
 471              		.size	lv_label_get_long_mode, .-lv_label_get_long_mode
 472 000a 00BF     		.section	.text.lv_label_get_align,"ax",%progbits
 473              		.align	2
 474              		.global	lv_label_get_align
 475              		.thumb
 476              		.thumb_func
 477              		.type	lv_label_get_align, %function
 478              	lv_label_get_align:
 479              	.LFB25:
 398:..\lvgl\lv_objx/lv_label.c ****     lv_label_ext_t * ext = lv_obj_get_ext_attr(label);
 480              		.loc 1 398 0
 481              		.cfi_startproc
 482              		@ args = 0, pretend = 0, frame = 0
 483              		@ frame_needed = 0, uses_anonymous_args = 0
 484              	.LVL54:
 485 0000 08B5     		push	{r3, lr}
 486              		.cfi_def_cfa_offset 8
 487              		.cfi_offset 3, -8
 488              		.cfi_offset 14, -4
 399:..\lvgl\lv_objx/lv_label.c ****     return ext->align;
 489              		.loc 1 399 0
 490 0002 FFF7FEFF 		bl	lv_obj_get_ext_attr
 491              	.LVL55:
 400:..\lvgl\lv_objx/lv_label.c **** }
 492              		.loc 1 400 0
 493 0006 807E     		ldrb	r0, [r0, #26]	@ zero_extendqisi2
 494              	.LVL56:
 401:..\lvgl\lv_objx/lv_label.c **** 
 495              		.loc 1 401 0
 496 0008 C0F34100 		ubfx	r0, r0, #1, #2
 497 000c 08BD     		pop	{r3, pc}
 498              		.cfi_endproc
 499              	.LFE25:
 500              		.size	lv_label_get_align, .-lv_label_get_align
 501 000e 00BF     		.section	.text.lv_label_get_recolor,"ax",%progbits
 502              		.align	2
 503              		.global	lv_label_get_recolor
 504              		.thumb
 505              		.thumb_func
 506              		.type	lv_label_get_recolor, %function
 507              	lv_label_get_recolor:
 508              	.LFB26:
 409:..\lvgl\lv_objx/lv_label.c ****     lv_label_ext_t * ext = lv_obj_get_ext_attr(label);
 509              		.loc 1 409 0
 510              		.cfi_startproc
 511              		@ args = 0, pretend = 0, frame = 0
ARM GAS  C:\Users\d3bug\AppData\Local\Temp\cct3SNM7.s 			page 28


 512              		@ frame_needed = 0, uses_anonymous_args = 0
 513              	.LVL57:
 514 0000 08B5     		push	{r3, lr}
 515              		.cfi_def_cfa_offset 8
 516              		.cfi_offset 3, -8
 517              		.cfi_offset 14, -4
 410:..\lvgl\lv_objx/lv_label.c ****     return ext->recolor == 0 ? false : true;
 518              		.loc 1 410 0
 519 0002 FFF7FEFF 		bl	lv_obj_get_ext_attr
 520              	.LVL58:
 411:..\lvgl\lv_objx/lv_label.c **** }
 521              		.loc 1 411 0
 522 0006 807E     		ldrb	r0, [r0, #26]	@ zero_extendqisi2
 523              	.LVL59:
 412:..\lvgl\lv_objx/lv_label.c **** 
 524              		.loc 1 412 0
 525 0008 C0F3C000 		ubfx	r0, r0, #3, #1
 526 000c 08BD     		pop	{r3, pc}
 527              		.cfi_endproc
 528              	.LFE26:
 529              		.size	lv_label_get_recolor, .-lv_label_get_recolor
 530 000e 00BF     		.section	.text.lv_label_get_body_draw,"ax",%progbits
 531              		.align	2
 532              		.global	lv_label_get_body_draw
 533              		.thumb
 534              		.thumb_func
 535              		.type	lv_label_get_body_draw, %function
 536              	lv_label_get_body_draw:
 537              	.LFB27:
 420:..\lvgl\lv_objx/lv_label.c ****     lv_label_ext_t * ext = lv_obj_get_ext_attr(label);
 538              		.loc 1 420 0
 539              		.cfi_startproc
 540              		@ args = 0, pretend = 0, frame = 0
 541              		@ frame_needed = 0, uses_anonymous_args = 0
 542              	.LVL60:
 543 0000 08B5     		push	{r3, lr}
 544              		.cfi_def_cfa_offset 8
 545              		.cfi_offset 3, -8
 546              		.cfi_offset 14, -4
 421:..\lvgl\lv_objx/lv_label.c ****     return ext->body_draw == 0 ? false : true;
 547              		.loc 1 421 0
 548 0002 FFF7FEFF 		bl	lv_obj_get_ext_attr
 549              	.LVL61:
 422:..\lvgl\lv_objx/lv_label.c **** }
 550              		.loc 1 422 0
 551 0006 807E     		ldrb	r0, [r0, #26]	@ zero_extendqisi2
 552              	.LVL62:
 423:..\lvgl\lv_objx/lv_label.c **** 
 553              		.loc 1 423 0
 554 0008 C0F34010 		ubfx	r0, r0, #5, #1
 555 000c 08BD     		pop	{r3, pc}
 556              		.cfi_endproc
 557              	.LFE27:
 558              		.size	lv_label_get_body_draw, .-lv_label_get_body_draw
 559 000e 00BF     		.section	.text.lv_label_get_anim_speed,"ax",%progbits
 560              		.align	2
 561              		.global	lv_label_get_anim_speed
ARM GAS  C:\Users\d3bug\AppData\Local\Temp\cct3SNM7.s 			page 29


 562              		.thumb
 563              		.thumb_func
 564              		.type	lv_label_get_anim_speed, %function
 565              	lv_label_get_anim_speed:
 566              	.LFB28:
 431:..\lvgl\lv_objx/lv_label.c ****     lv_label_ext_t * ext = lv_obj_get_ext_attr(label);
 567              		.loc 1 431 0
 568              		.cfi_startproc
 569              		@ args = 0, pretend = 0, frame = 0
 570              		@ frame_needed = 0, uses_anonymous_args = 0
 571              	.LVL63:
 572 0000 08B5     		push	{r3, lr}
 573              		.cfi_def_cfa_offset 8
 574              		.cfi_offset 3, -8
 575              		.cfi_offset 14, -4
 432:..\lvgl\lv_objx/lv_label.c ****     return ext->anim_speed;
 576              		.loc 1 432 0
 577 0002 FFF7FEFF 		bl	lv_obj_get_ext_attr
 578              	.LVL64:
 434:..\lvgl\lv_objx/lv_label.c **** 
 579              		.loc 1 434 0
 580 0006 808A     		ldrh	r0, [r0, #20]
 581              	.LVL65:
 582 0008 08BD     		pop	{r3, pc}
 583              		.cfi_endproc
 584              	.LFE28:
 585              		.size	lv_label_get_anim_speed, .-lv_label_get_anim_speed
 586 000a 00BF     		.section	.text.lv_label_get_letter_pos,"ax",%progbits
 587              		.align	2
 588              		.global	lv_label_get_letter_pos
 589              		.thumb
 590              		.thumb_func
 591              		.type	lv_label_get_letter_pos, %function
 592              	lv_label_get_letter_pos:
 593              	.LFB29:
 443:..\lvgl\lv_objx/lv_label.c ****     const char * txt = lv_label_get_text(label);
 594              		.loc 1 443 0
 595              		.cfi_startproc
 596              		@ args = 0, pretend = 0, frame = 24
 597              		@ frame_needed = 0, uses_anonymous_args = 0
 598              	.LVL66:
 599 0000 2DE9F04F 		push	{r4, r5, r6, r7, r8, r9, r10, fp, lr}
 600              		.cfi_def_cfa_offset 36
 601              		.cfi_offset 4, -36
 602              		.cfi_offset 5, -32
 603              		.cfi_offset 6, -28
 604              		.cfi_offset 7, -24
 605              		.cfi_offset 8, -20
 606              		.cfi_offset 9, -16
 607              		.cfi_offset 10, -12
 608              		.cfi_offset 11, -8
 609              		.cfi_offset 14, -4
 610 0004 89B0     		sub	sp, sp, #36
 611              		.cfi_def_cfa_offset 72
 612 0006 0546     		mov	r5, r0
 613 0008 0790     		str	r0, [sp, #28]
 614 000a 0C46     		mov	r4, r1
ARM GAS  C:\Users\d3bug\AppData\Local\Temp\cct3SNM7.s 			page 30


 615 000c 0692     		str	r2, [sp, #24]
 444:..\lvgl\lv_objx/lv_label.c ****     lv_label_ext_t * ext = lv_obj_get_ext_attr(label);
 616              		.loc 1 444 0
 617 000e FFF7FEFF 		bl	lv_label_get_text
 618              	.LVL67:
 619 0012 0746     		mov	r7, r0
 620              	.LVL68:
 445:..\lvgl\lv_objx/lv_label.c ****     uint32_t line_start = 0;
 621              		.loc 1 445 0
 622 0014 2846     		mov	r0, r5
 623              	.LVL69:
 624 0016 FFF7FEFF 		bl	lv_obj_get_ext_attr
 625              	.LVL70:
 626 001a 0646     		mov	r6, r0
 627 001c 0490     		str	r0, [sp, #16]
 628              	.LVL71:
 448:..\lvgl\lv_objx/lv_label.c ****     lv_style_t * style = lv_obj_get_style(label);
 629              		.loc 1 448 0
 630 001e 2846     		mov	r0, r5
 631              	.LVL72:
 632 0020 FFF7FEFF 		bl	lv_obj_get_width
 633              	.LVL73:
 634 0024 0590     		str	r0, [sp, #20]
 635              	.LVL74:
 449:..\lvgl\lv_objx/lv_label.c ****     const lv_font_t * font = style->text.font;
 636              		.loc 1 449 0
 637 0026 2846     		mov	r0, r5
 638 0028 FFF7FEFF 		bl	lv_obj_get_style
 639              	.LVL75:
 640 002c 8046     		mov	r8, r0
 641              	.LVL76:
 450:..\lvgl\lv_objx/lv_label.c ****     uint8_t letter_height = lv_font_get_height(font);
 642              		.loc 1 450 0
 643 002e 036A     		ldr	r3, [r0, #32]
 644 0030 0393     		str	r3, [sp, #12]
 645              	.LVL77:
 646              	.LBB30:
 647              	.LBB31:
 648              		.file 2 "..\\lvgl\\lv_objx\\../lv_core/../lv_misc/lv_font.h"
   1:..\lvgl\lv_objx\../lv_core/../lv_misc/lv_font.h **** /**
   2:..\lvgl\lv_objx\../lv_core/../lv_misc/lv_font.h ****  * @file lv_font.h
   3:..\lvgl\lv_objx\../lv_core/../lv_misc/lv_font.h ****  *
   4:..\lvgl\lv_objx\../lv_core/../lv_misc/lv_font.h ****  */
   5:..\lvgl\lv_objx\../lv_core/../lv_misc/lv_font.h **** 
   6:..\lvgl\lv_objx\../lv_core/../lv_misc/lv_font.h **** #ifndef LV_FONT_H
   7:..\lvgl\lv_objx\../lv_core/../lv_misc/lv_font.h **** #define LV_FONT_H
   8:..\lvgl\lv_objx\../lv_core/../lv_misc/lv_font.h **** 
   9:..\lvgl\lv_objx\../lv_core/../lv_misc/lv_font.h **** #ifdef __cplusplus
  10:..\lvgl\lv_objx\../lv_core/../lv_misc/lv_font.h **** extern "C" {
  11:..\lvgl\lv_objx\../lv_core/../lv_misc/lv_font.h **** #endif
  12:..\lvgl\lv_objx\../lv_core/../lv_misc/lv_font.h **** 
  13:..\lvgl\lv_objx\../lv_core/../lv_misc/lv_font.h **** 
  14:..\lvgl\lv_objx\../lv_core/../lv_misc/lv_font.h **** /*********************
  15:..\lvgl\lv_objx\../lv_core/../lv_misc/lv_font.h ****  *      INCLUDES
  16:..\lvgl\lv_objx\../lv_core/../lv_misc/lv_font.h ****  *********************/
  17:..\lvgl\lv_objx\../lv_core/../lv_misc/lv_font.h **** #ifdef LV_CONF_INCLUDE_SIMPLE
  18:..\lvgl\lv_objx\../lv_core/../lv_misc/lv_font.h **** #include "lv_conf.h"
ARM GAS  C:\Users\d3bug\AppData\Local\Temp\cct3SNM7.s 			page 31


  19:..\lvgl\lv_objx\../lv_core/../lv_misc/lv_font.h **** #else
  20:..\lvgl\lv_objx\../lv_core/../lv_misc/lv_font.h **** #include "../../lv_conf.h"
  21:..\lvgl\lv_objx\../lv_core/../lv_misc/lv_font.h **** #endif
  22:..\lvgl\lv_objx\../lv_core/../lv_misc/lv_font.h **** 
  23:..\lvgl\lv_objx\../lv_core/../lv_misc/lv_font.h **** #include <stdint.h>
  24:..\lvgl\lv_objx\../lv_core/../lv_misc/lv_font.h **** #include <stddef.h>
  25:..\lvgl\lv_objx\../lv_core/../lv_misc/lv_font.h **** #include <stdbool.h>
  26:..\lvgl\lv_objx\../lv_core/../lv_misc/lv_font.h **** 
  27:..\lvgl\lv_objx\../lv_core/../lv_misc/lv_font.h **** #include "lv_symbol_def.h"
  28:..\lvgl\lv_objx\../lv_core/../lv_misc/lv_font.h **** 
  29:..\lvgl\lv_objx\../lv_core/../lv_misc/lv_font.h **** /*********************
  30:..\lvgl\lv_objx\../lv_core/../lv_misc/lv_font.h ****  *      DEFINES
  31:..\lvgl\lv_objx\../lv_core/../lv_misc/lv_font.h ****  *********************/
  32:..\lvgl\lv_objx\../lv_core/../lv_misc/lv_font.h **** 
  33:..\lvgl\lv_objx\../lv_core/../lv_misc/lv_font.h **** /**********************
  34:..\lvgl\lv_objx\../lv_core/../lv_misc/lv_font.h ****  *      TYPEDEFS
  35:..\lvgl\lv_objx\../lv_core/../lv_misc/lv_font.h ****  **********************/
  36:..\lvgl\lv_objx\../lv_core/../lv_misc/lv_font.h **** 
  37:..\lvgl\lv_objx\../lv_core/../lv_misc/lv_font.h **** typedef struct
  38:..\lvgl\lv_objx\../lv_core/../lv_misc/lv_font.h **** {
  39:..\lvgl\lv_objx\../lv_core/../lv_misc/lv_font.h ****     uint32_t w_px         :8;
  40:..\lvgl\lv_objx\../lv_core/../lv_misc/lv_font.h ****     uint32_t glyph_index  :24;
  41:..\lvgl\lv_objx\../lv_core/../lv_misc/lv_font.h **** } lv_font_glyph_dsc_t;
  42:..\lvgl\lv_objx\../lv_core/../lv_misc/lv_font.h **** 
  43:..\lvgl\lv_objx\../lv_core/../lv_misc/lv_font.h **** typedef struct
  44:..\lvgl\lv_objx\../lv_core/../lv_misc/lv_font.h **** {
  45:..\lvgl\lv_objx\../lv_core/../lv_misc/lv_font.h ****     uint32_t unicode         :21;
  46:..\lvgl\lv_objx\../lv_core/../lv_misc/lv_font.h ****     uint32_t glyph_dsc_index :11;
  47:..\lvgl\lv_objx\../lv_core/../lv_misc/lv_font.h **** } lv_font_unicode_map_t;
  48:..\lvgl\lv_objx\../lv_core/../lv_misc/lv_font.h **** 
  49:..\lvgl\lv_objx\../lv_core/../lv_misc/lv_font.h **** typedef struct _lv_font_struct
  50:..\lvgl\lv_objx\../lv_core/../lv_misc/lv_font.h **** {
  51:..\lvgl\lv_objx\../lv_core/../lv_misc/lv_font.h ****     uint32_t unicode_first;
  52:..\lvgl\lv_objx\../lv_core/../lv_misc/lv_font.h ****     uint32_t unicode_last;
  53:..\lvgl\lv_objx\../lv_core/../lv_misc/lv_font.h ****     const uint8_t * glyph_bitmap;
  54:..\lvgl\lv_objx\../lv_core/../lv_misc/lv_font.h ****     const lv_font_glyph_dsc_t * glyph_dsc;
  55:..\lvgl\lv_objx\../lv_core/../lv_misc/lv_font.h ****     const uint32_t * unicode_list;
  56:..\lvgl\lv_objx\../lv_core/../lv_misc/lv_font.h ****     const uint8_t * (*get_bitmap)(const struct _lv_font_struct *,uint32_t);     /*Get a glyph's  bi
  57:..\lvgl\lv_objx\../lv_core/../lv_misc/lv_font.h ****     int16_t (*get_width)(const struct _lv_font_struct *,uint32_t);        /*Get a glyph's with with
  58:..\lvgl\lv_objx\../lv_core/../lv_misc/lv_font.h ****     struct _lv_font_struct * next_page;    /*Pointer to a font extension*/
  59:..\lvgl\lv_objx\../lv_core/../lv_misc/lv_font.h ****     uint32_t h_px       :8;
  60:..\lvgl\lv_objx\../lv_core/../lv_misc/lv_font.h ****     uint32_t bpp        :4;                /*Bit per pixel: 1, 2 or 4*/
  61:..\lvgl\lv_objx\../lv_core/../lv_misc/lv_font.h ****     uint32_t monospace  :8;                /*Fix width (0: normal width)*/
  62:..\lvgl\lv_objx\../lv_core/../lv_misc/lv_font.h ****     uint16_t glyph_cnt;                    /*Number of glyphs (letters) in the font*/
  63:..\lvgl\lv_objx\../lv_core/../lv_misc/lv_font.h **** } lv_font_t;
  64:..\lvgl\lv_objx\../lv_core/../lv_misc/lv_font.h **** 
  65:..\lvgl\lv_objx\../lv_core/../lv_misc/lv_font.h **** /**********************
  66:..\lvgl\lv_objx\../lv_core/../lv_misc/lv_font.h ****  * GLOBAL PROTOTYPES
  67:..\lvgl\lv_objx\../lv_core/../lv_misc/lv_font.h ****  **********************/
  68:..\lvgl\lv_objx\../lv_core/../lv_misc/lv_font.h **** 
  69:..\lvgl\lv_objx\../lv_core/../lv_misc/lv_font.h **** /**
  70:..\lvgl\lv_objx\../lv_core/../lv_misc/lv_font.h ****  * Initialize the fonts
  71:..\lvgl\lv_objx\../lv_core/../lv_misc/lv_font.h ****  */
  72:..\lvgl\lv_objx\../lv_core/../lv_misc/lv_font.h **** void lv_font_init(void);
  73:..\lvgl\lv_objx\../lv_core/../lv_misc/lv_font.h **** 
  74:..\lvgl\lv_objx\../lv_core/../lv_misc/lv_font.h **** /**
  75:..\lvgl\lv_objx\../lv_core/../lv_misc/lv_font.h ****  * Add a font to an other to extend the character set.
ARM GAS  C:\Users\d3bug\AppData\Local\Temp\cct3SNM7.s 			page 32


  76:..\lvgl\lv_objx\../lv_core/../lv_misc/lv_font.h ****  * @param child the font to add
  77:..\lvgl\lv_objx\../lv_core/../lv_misc/lv_font.h ****  * @param parent this font will be extended. Using it later will contain the characters from `child
  78:..\lvgl\lv_objx\../lv_core/../lv_misc/lv_font.h ****  */
  79:..\lvgl\lv_objx\../lv_core/../lv_misc/lv_font.h **** void lv_font_add(lv_font_t *child, lv_font_t *parent);
  80:..\lvgl\lv_objx\../lv_core/../lv_misc/lv_font.h **** 
  81:..\lvgl\lv_objx\../lv_core/../lv_misc/lv_font.h **** /**
  82:..\lvgl\lv_objx\../lv_core/../lv_misc/lv_font.h ****  * Remove a font from a character set.
  83:..\lvgl\lv_objx\../lv_core/../lv_misc/lv_font.h ****  * @param child the font to remove
  84:..\lvgl\lv_objx\../lv_core/../lv_misc/lv_font.h ****  * @param parent remove `child` from here
  85:..\lvgl\lv_objx\../lv_core/../lv_misc/lv_font.h ****  */
  86:..\lvgl\lv_objx\../lv_core/../lv_misc/lv_font.h **** void lv_font_remove(lv_font_t * child, lv_font_t * parent);
  87:..\lvgl\lv_objx\../lv_core/../lv_misc/lv_font.h **** 
  88:..\lvgl\lv_objx\../lv_core/../lv_misc/lv_font.h **** /**
  89:..\lvgl\lv_objx\../lv_core/../lv_misc/lv_font.h ****  * Tells if font which contains `letter` is monospace or not
  90:..\lvgl\lv_objx\../lv_core/../lv_misc/lv_font.h ****  * @param font_p point to font
  91:..\lvgl\lv_objx\../lv_core/../lv_misc/lv_font.h ****  * @param letter an UNICODE character code
  92:..\lvgl\lv_objx\../lv_core/../lv_misc/lv_font.h ****  * @return true: the letter is monospace; false not monospace
  93:..\lvgl\lv_objx\../lv_core/../lv_misc/lv_font.h ****  */
  94:..\lvgl\lv_objx\../lv_core/../lv_misc/lv_font.h **** bool lv_font_is_monospace(const lv_font_t * font_p, uint32_t letter);
  95:..\lvgl\lv_objx\../lv_core/../lv_misc/lv_font.h **** 
  96:..\lvgl\lv_objx\../lv_core/../lv_misc/lv_font.h **** /**
  97:..\lvgl\lv_objx\../lv_core/../lv_misc/lv_font.h ****  * Return with the bitmap of a font.
  98:..\lvgl\lv_objx\../lv_core/../lv_misc/lv_font.h ****  * @param font_p pointer to a font
  99:..\lvgl\lv_objx\../lv_core/../lv_misc/lv_font.h ****  * @param letter an UNICODE character code
 100:..\lvgl\lv_objx\../lv_core/../lv_misc/lv_font.h ****  * @return  pointer to the bitmap of the letter
 101:..\lvgl\lv_objx\../lv_core/../lv_misc/lv_font.h ****  */
 102:..\lvgl\lv_objx\../lv_core/../lv_misc/lv_font.h **** const uint8_t * lv_font_get_bitmap(const lv_font_t * font_p, uint32_t letter);
 103:..\lvgl\lv_objx\../lv_core/../lv_misc/lv_font.h **** 
 104:..\lvgl\lv_objx\../lv_core/../lv_misc/lv_font.h **** /**
 105:..\lvgl\lv_objx\../lv_core/../lv_misc/lv_font.h ****  * Get the width of a letter in a font. If `monospace` is set then return with it.
 106:..\lvgl\lv_objx\../lv_core/../lv_misc/lv_font.h ****  * @param font_p pointer to a font
 107:..\lvgl\lv_objx\../lv_core/../lv_misc/lv_font.h ****  * @param letter an UNICODE character code
 108:..\lvgl\lv_objx\../lv_core/../lv_misc/lv_font.h ****  * @return the width of a letter
 109:..\lvgl\lv_objx\../lv_core/../lv_misc/lv_font.h ****  */
 110:..\lvgl\lv_objx\../lv_core/../lv_misc/lv_font.h **** uint8_t lv_font_get_width(const lv_font_t * font_p, uint32_t letter);
 111:..\lvgl\lv_objx\../lv_core/../lv_misc/lv_font.h **** 
 112:..\lvgl\lv_objx\../lv_core/../lv_misc/lv_font.h **** 
 113:..\lvgl\lv_objx\../lv_core/../lv_misc/lv_font.h **** /**
 114:..\lvgl\lv_objx\../lv_core/../lv_misc/lv_font.h ****  * Get the width of the letter without overwriting it with the `monospace` attribute
 115:..\lvgl\lv_objx\../lv_core/../lv_misc/lv_font.h ****  * @param font_p pointer to a font
 116:..\lvgl\lv_objx\../lv_core/../lv_misc/lv_font.h ****  * @param letter an UNICODE character code
 117:..\lvgl\lv_objx\../lv_core/../lv_misc/lv_font.h ****  * @return the width of a letter
 118:..\lvgl\lv_objx\../lv_core/../lv_misc/lv_font.h ****  */
 119:..\lvgl\lv_objx\../lv_core/../lv_misc/lv_font.h **** uint8_t lv_font_get_real_width(const lv_font_t * font_p, uint32_t letter);
 120:..\lvgl\lv_objx\../lv_core/../lv_misc/lv_font.h **** 
 121:..\lvgl\lv_objx\../lv_core/../lv_misc/lv_font.h **** /**
 122:..\lvgl\lv_objx\../lv_core/../lv_misc/lv_font.h ****  * Get the height of a font
 123:..\lvgl\lv_objx\../lv_core/../lv_misc/lv_font.h ****  * @param font_p pointer to a font
 124:..\lvgl\lv_objx\../lv_core/../lv_misc/lv_font.h ****  * @return the height of a font
 125:..\lvgl\lv_objx\../lv_core/../lv_misc/lv_font.h ****  */
 126:..\lvgl\lv_objx\../lv_core/../lv_misc/lv_font.h **** static inline uint8_t lv_font_get_height(const lv_font_t * font_p)
 127:..\lvgl\lv_objx\../lv_core/../lv_misc/lv_font.h **** {
 128:..\lvgl\lv_objx\../lv_core/../lv_misc/lv_font.h ****     return font_p->h_px;
 649              		.loc 2 128 0
 650 0032 93F820A0 		ldrb	r10, [r3, #32]	@ zero_extendqisi2
 651              	.LVL78:
 652              	.LBE31:
ARM GAS  C:\Users\d3bug\AppData\Local\Temp\cct3SNM7.s 			page 33


 653              	.LBE30:
 455:..\lvgl\lv_objx/lv_label.c ****     if(ext->expand != 0) flag |= LV_TXT_FLAG_EXPAND;
 654              		.loc 1 455 0
 655 0036 B37E     		ldrb	r3, [r6, #26]	@ zero_extendqisi2
 656              	.LVL79:
 657 0038 13F0080F 		tst	r3, #8
 658 003c 02D1     		bne	.L56
 453:..\lvgl\lv_objx/lv_label.c **** 
 659              		.loc 1 453 0
 660 003e 4FF00009 		mov	r9, #0
 661 0042 01E0     		b	.L44
 662              	.L56:
 455:..\lvgl\lv_objx/lv_label.c ****     if(ext->expand != 0) flag |= LV_TXT_FLAG_EXPAND;
 663              		.loc 1 455 0
 664 0044 4FF00109 		mov	r9, #1
 665              	.L44:
 666              	.LVL80:
 456:..\lvgl\lv_objx/lv_label.c ****     if(ext->align == LV_LABEL_ALIGN_CENTER) flag |= LV_TXT_FLAG_CENTER;
 667              		.loc 1 456 0
 668 0048 13F0100F 		tst	r3, #16
 669 004c 01D0     		beq	.L45
 456:..\lvgl\lv_objx/lv_label.c ****     if(ext->align == LV_LABEL_ALIGN_CENTER) flag |= LV_TXT_FLAG_CENTER;
 670              		.loc 1 456 0 is_stmt 0 discriminator 1
 671 004e 49F00209 		orr	r9, r9, #2
 672              	.LVL81:
 673              	.L45:
 457:..\lvgl\lv_objx/lv_label.c **** 
 674              		.loc 1 457 0 is_stmt 1
 675 0052 03F00603 		and	r3, r3, #6
 676 0056 022B     		cmp	r3, #2
 677 0058 01D1     		bne	.L46
 457:..\lvgl\lv_objx/lv_label.c **** 
 678              		.loc 1 457 0 is_stmt 0 discriminator 1
 679 005a 49F00409 		orr	r9, r9, #4
 680              	.LVL82:
 681              	.L46:
 460:..\lvgl\lv_objx/lv_label.c ****         max_w = LV_COORD_MAX;
 682              		.loc 1 460 0 is_stmt 1
 683 005e 049B     		ldr	r3, [sp, #16]
 684 0060 1B79     		ldrb	r3, [r3, #4]	@ zero_extendqisi2
 685 0062 13B1     		cbz	r3, .L57
 460:..\lvgl\lv_objx/lv_label.c ****         max_w = LV_COORD_MAX;
 686              		.loc 1 460 0 is_stmt 0 discriminator 1
 687 0064 022B     		cmp	r3, #2
 688 0066 07D1     		bne	.L47
 689 0068 03E0     		b	.L58
 690              	.L57:
 461:..\lvgl\lv_objx/lv_label.c ****     }
 691              		.loc 1 461 0 is_stmt 1
 692 006a 43F6FF73 		movw	r3, #16383
 693 006e 0593     		str	r3, [sp, #20]
 694              	.LVL83:
 695 0070 02E0     		b	.L47
 696              	.LVL84:
 697              	.L58:
 698 0072 43F6FF73 		movw	r3, #16383
 699 0076 0593     		str	r3, [sp, #20]
ARM GAS  C:\Users\d3bug\AppData\Local\Temp\cct3SNM7.s 			page 34


 700              	.LVL85:
 701              	.L47:
 464:..\lvgl\lv_objx/lv_label.c **** 
 702              		.loc 1 464 0
 703 0078 4B4B     		ldr	r3, .L62
 704 007a 1B68     		ldr	r3, [r3]
 705 007c 2146     		mov	r1, r4
 706 007e 3846     		mov	r0, r7
 707              	.LVL86:
 708 0080 9847     		blx	r3
 709              	.LVL87:
 710 0082 0290     		str	r0, [sp, #8]
 711 0084 1FFA80FB 		uxth	fp, r0
 712              	.LVL88:
 452:..\lvgl\lv_objx/lv_label.c ****     lv_txt_flag_t flag = LV_TXT_FLAG_NONE;
 713              		.loc 1 452 0
 714 0088 0024     		movs	r4, #0
 446:..\lvgl\lv_objx/lv_label.c ****     uint32_t new_line_start = 0;
 715              		.loc 1 446 0
 716 008a 2546     		mov	r5, r4
 717              	.LVL89:
 718 008c 4E46     		mov	r6, r9
 719              	.LVL90:
 720 008e DDF81490 		ldr	r9, [sp, #20]
 721              	.LVL91:
 467:..\lvgl\lv_objx/lv_label.c ****         new_line_start += lv_txt_get_next_line(&txt[line_start], font, style->text.letter_space, ma
 722              		.loc 1 467 0
 723 0092 13E0     		b	.L48
 724              	.LVL92:
 725              	.L50:
 468:..\lvgl\lv_objx/lv_label.c ****         if(index < new_line_start || txt[new_line_start] == '\0') break; /*The line of 'index' lett
 726              		.loc 1 468 0
 727 0094 B8F92420 		ldrsh	r2, [r8, #36]
 728 0098 0096     		str	r6, [sp]
 729 009a 4B46     		mov	r3, r9
 730 009c 0399     		ldr	r1, [sp, #12]
 731 009e FFF7FEFF 		bl	lv_txt_get_next_line
 732              	.LVL93:
 733 00a2 2844     		add	r0, r0, r5
 734              	.LVL94:
 469:..\lvgl\lv_objx/lv_label.c **** 
 735              		.loc 1 469 0
 736 00a4 BDF80830 		ldrh	r3, [sp, #8]
 737 00a8 8342     		cmp	r3, r0
 738 00aa 0ED3     		bcc	.L59
 469:..\lvgl\lv_objx/lv_label.c **** 
 739              		.loc 1 469 0 is_stmt 0 discriminator 1
 740 00ac 3B5C     		ldrb	r3, [r7, r0]	@ zero_extendqisi2
 741 00ae 7BB1     		cbz	r3, .L60
 471:..\lvgl\lv_objx/lv_label.c ****         line_start = new_line_start;
 742              		.loc 1 471 0 is_stmt 1
 743 00b0 B8F92630 		ldrsh	r3, [r8, #38]
 744 00b4 5344     		add	r3, r3, r10
 745 00b6 1C44     		add	r4, r4, r3
 746              	.LVL95:
 747 00b8 24B2     		sxth	r4, r4
 748              	.LVL96:
ARM GAS  C:\Users\d3bug\AppData\Local\Temp\cct3SNM7.s 			page 35


 472:..\lvgl\lv_objx/lv_label.c ****     }
 749              		.loc 1 472 0
 750 00ba 0546     		mov	r5, r0
 751              	.LVL97:
 752              	.L48:
 467:..\lvgl\lv_objx/lv_label.c ****         new_line_start += lv_txt_get_next_line(&txt[line_start], font, style->text.letter_space, ma
 753              		.loc 1 467 0
 754 00bc 7819     		adds	r0, r7, r5
 755 00be 7B5D     		ldrb	r3, [r7, r5]	@ zero_extendqisi2
 756 00c0 002B     		cmp	r3, #0
 757 00c2 E7D1     		bne	.L50
 758 00c4 B146     		mov	r9, r6
 759 00c6 2E46     		mov	r6, r5
 760 00c8 04E0     		b	.L49
 761              	.LVL98:
 762              	.L59:
 763 00ca B146     		mov	r9, r6
 764 00cc 0646     		mov	r6, r0
 765 00ce 01E0     		b	.L49
 766              	.L60:
 767 00d0 B146     		mov	r9, r6
 768 00d2 0646     		mov	r6, r0
 769              	.LVL99:
 770              	.L49:
 476:..\lvgl\lv_objx/lv_label.c ****         if((txt[index - 1] == '\n' || txt[index - 1] == '\r') && txt[index] == '\0') {
 771              		.loc 1 476 0
 772 00d4 BBF1000F 		cmp	fp, #0
 773 00d8 0FD0     		beq	.L51
 774 00da BDF80830 		ldrh	r3, [sp, #8]
 477:..\lvgl\lv_objx/lv_label.c ****             y += letter_height + style->text.line_space;
 775              		.loc 1 477 0
 776 00de 5A1E     		subs	r2, r3, #1
 777 00e0 BA5C     		ldrb	r2, [r7, r2]	@ zero_extendqisi2
 778 00e2 0A2A     		cmp	r2, #10
 779 00e4 01D0     		beq	.L52
 477:..\lvgl\lv_objx/lv_label.c ****             y += letter_height + style->text.line_space;
 780              		.loc 1 477 0 is_stmt 0 discriminator 2
 781 00e6 0D2A     		cmp	r2, #13
 782 00e8 07D1     		bne	.L51
 783              	.L52:
 477:..\lvgl\lv_objx/lv_label.c ****             y += letter_height + style->text.line_space;
 784              		.loc 1 477 0 discriminator 3
 785 00ea FA5C     		ldrb	r2, [r7, r3]	@ zero_extendqisi2
 786 00ec 2AB9     		cbnz	r2, .L51
 478:..\lvgl\lv_objx/lv_label.c ****             line_start = index;
 787              		.loc 1 478 0 is_stmt 1
 788 00ee B8F92620 		ldrsh	r2, [r8, #38]
 789 00f2 9244     		add	r10, r10, r2
 790 00f4 5444     		add	r4, r4, r10
 791              	.LVL100:
 792 00f6 24B2     		sxth	r4, r4
 793              	.LVL101:
 479:..\lvgl\lv_objx/lv_label.c ****         }
 794              		.loc 1 479 0
 795 00f8 1D46     		mov	r5, r3
 796              	.LVL102:
 797              	.L51:
ARM GAS  C:\Users\d3bug\AppData\Local\Temp\cct3SNM7.s 			page 36


 484:..\lvgl\lv_objx/lv_label.c ****                             font, style->text.letter_space, flag);
 798              		.loc 1 484 0
 799 00fa 2F44     		add	r7, r7, r5
 800              	.LVL103:
 801 00fc 1FFA85FA 		uxth	r10, r5
 802 0100 CAEB0B01 		rsb	r1, r10, fp
 803 0104 B8F92430 		ldrsh	r3, [r8, #36]
 804 0108 CDF80090 		str	r9, [sp]
 805 010c 039A     		ldr	r2, [sp, #12]
 806 010e 89B2     		uxth	r1, r1
 807 0110 3846     		mov	r0, r7
 808 0112 FFF7FEFF 		bl	lv_txt_get_width
 809              	.LVL104:
 810 0116 8346     		mov	fp, r0
 811              	.LVL105:
 487:..\lvgl\lv_objx/lv_label.c **** 
 812              		.loc 1 487 0
 813 0118 BDF80830 		ldrh	r3, [sp, #8]
 814 011c 9D42     		cmp	r5, r3
 815 011e 04D0     		beq	.L53
 487:..\lvgl\lv_objx/lv_label.c **** 
 816              		.loc 1 487 0 is_stmt 0 discriminator 1
 817 0120 B8F92430 		ldrsh	r3, [r8, #36]
 818 0124 9B44     		add	fp, fp, r3
 819              	.LVL106:
 820 0126 0FFA8BFB 		sxth	fp, fp
 821              	.LVL107:
 822              	.L53:
 489:..\lvgl\lv_objx/lv_label.c ****         lv_coord_t line_w;
 823              		.loc 1 489 0 is_stmt 1
 824 012a 049B     		ldr	r3, [sp, #16]
 825 012c 9B7E     		ldrb	r3, [r3, #26]	@ zero_extendqisi2
 826 012e 03F00603 		and	r3, r3, #6
 827 0132 022B     		cmp	r3, #2
 828 0134 1BD1     		bne	.L54
 829              	.LBB32:
 491:..\lvgl\lv_objx/lv_label.c ****                                   font, style->text.letter_space, flag);
 830              		.loc 1 491 0
 831 0136 CAEB0601 		rsb	r1, r10, r6
 832 013a B8F92430 		ldrsh	r3, [r8, #36]
 833 013e CDF80090 		str	r9, [sp]
 834 0142 039A     		ldr	r2, [sp, #12]
 835 0144 89B2     		uxth	r1, r1
 836 0146 3846     		mov	r0, r7
 837 0148 FFF7FEFF 		bl	lv_txt_get_width
 838              	.LVL108:
 839 014c 0546     		mov	r5, r0
 840              	.LVL109:
 493:..\lvgl\lv_objx/lv_label.c **** 
 841              		.loc 1 493 0
 842 014e 0798     		ldr	r0, [sp, #28]
 843 0150 FFF7FEFF 		bl	lv_obj_get_width
 844              	.LVL110:
 845 0154 00EBD070 		add	r0, r0, r0, lsr #31
 846 0158 40F34F03 		sbfx	r3, r0, #1, #16
 847 015c 05EBD575 		add	r5, r5, r5, lsr #31
 848              	.LVL111:
ARM GAS  C:\Users\d3bug\AppData\Local\Temp\cct3SNM7.s 			page 37


 849 0160 45F34F02 		sbfx	r2, r5, #1, #16
 850 0164 9B1A     		subs	r3, r3, r2
 851 0166 9B44     		add	fp, fp, r3
 852              	.LVL112:
 853 0168 0FFA8BFB 		sxth	fp, fp
 854              	.LVL113:
 855              	.LBE32:
 856 016c 14E0     		b	.L55
 857              	.LVL114:
 858              	.L54:
 495:..\lvgl\lv_objx/lv_label.c ****         lv_coord_t line_w;
 859              		.loc 1 495 0
 860 016e 042B     		cmp	r3, #4
 861 0170 12D1     		bne	.L55
 862              	.LBB33:
 497:..\lvgl\lv_objx/lv_label.c ****                                   font, style->text.letter_space, flag);
 863              		.loc 1 497 0
 864 0172 CAEB0601 		rsb	r1, r10, r6
 865 0176 B8F92430 		ldrsh	r3, [r8, #36]
 866 017a CDF80090 		str	r9, [sp]
 867 017e 039A     		ldr	r2, [sp, #12]
 868 0180 89B2     		uxth	r1, r1
 869 0182 3846     		mov	r0, r7
 870 0184 FFF7FEFF 		bl	lv_txt_get_width
 871              	.LVL115:
 872 0188 0546     		mov	r5, r0
 873              	.LVL116:
 500:..\lvgl\lv_objx/lv_label.c ****     }
 874              		.loc 1 500 0
 875 018a 0798     		ldr	r0, [sp, #28]
 876 018c FFF7FEFF 		bl	lv_obj_get_width
 877              	.LVL117:
 878 0190 401B     		subs	r0, r0, r5
 879 0192 8344     		add	fp, fp, r0
 880              	.LVL118:
 881 0194 0FFA8BFB 		sxth	fp, fp
 882              	.LVL119:
 883              	.L55:
 884              	.LBE33:
 502:..\lvgl\lv_objx/lv_label.c ****     pos->y = y;
 885              		.loc 1 502 0
 886 0198 069A     		ldr	r2, [sp, #24]
 887 019a A2F800B0 		strh	fp, [r2]	@ movhi
 503:..\lvgl\lv_objx/lv_label.c **** }
 888              		.loc 1 503 0
 889 019e 5480     		strh	r4, [r2, #2]	@ movhi
 504:..\lvgl\lv_objx/lv_label.c **** 
 890              		.loc 1 504 0
 891 01a0 09B0     		add	sp, sp, #36
 892              		.cfi_def_cfa_offset 36
 893              		@ sp needed
 894 01a2 BDE8F08F 		pop	{r4, r5, r6, r7, r8, r9, r10, fp, pc}
 895              	.LVL120:
 896              	.L63:
 897 01a6 00BF     		.align	2
 898              	.L62:
 899 01a8 00000000 		.word	lv_txt_encoded_get_byte_id
ARM GAS  C:\Users\d3bug\AppData\Local\Temp\cct3SNM7.s 			page 38


 900              		.cfi_endproc
 901              	.LFE29:
 902              		.size	lv_label_get_letter_pos, .-lv_label_get_letter_pos
 903              		.section	.text.lv_label_get_letter_on,"ax",%progbits
 904              		.align	2
 905              		.global	lv_label_get_letter_on
 906              		.thumb
 907              		.thumb_func
 908              		.type	lv_label_get_letter_on, %function
 909              	lv_label_get_letter_on:
 910              	.LFB30:
 514:..\lvgl\lv_objx/lv_label.c ****     const char * txt = lv_label_get_text(label);
 911              		.loc 1 514 0
 912              		.cfi_startproc
 913              		@ args = 0, pretend = 0, frame = 24
 914              		@ frame_needed = 0, uses_anonymous_args = 0
 915              	.LVL121:
 916 0000 2DE9F04F 		push	{r4, r5, r6, r7, r8, r9, r10, fp, lr}
 917              		.cfi_def_cfa_offset 36
 918              		.cfi_offset 4, -36
 919              		.cfi_offset 5, -32
 920              		.cfi_offset 6, -28
 921              		.cfi_offset 7, -24
 922              		.cfi_offset 8, -20
 923              		.cfi_offset 9, -16
 924              		.cfi_offset 10, -12
 925              		.cfi_offset 11, -8
 926              		.cfi_offset 14, -4
 927 0004 89B0     		sub	sp, sp, #36
 928              		.cfi_def_cfa_offset 72
 929 0006 0446     		mov	r4, r0
 930 0008 0590     		str	r0, [sp, #20]
 931 000a 8B46     		mov	fp, r1
 515:..\lvgl\lv_objx/lv_label.c ****     lv_label_ext_t * ext = lv_obj_get_ext_attr(label);
 932              		.loc 1 515 0
 933 000c FFF7FEFF 		bl	lv_label_get_text
 934              	.LVL122:
 935 0010 0646     		mov	r6, r0
 936              	.LVL123:
 516:..\lvgl\lv_objx/lv_label.c ****     uint32_t line_start = 0;
 937              		.loc 1 516 0
 938 0012 2046     		mov	r0, r4
 939              	.LVL124:
 940 0014 FFF7FEFF 		bl	lv_obj_get_ext_attr
 941              	.LVL125:
 942 0018 0546     		mov	r5, r0
 943 001a 0490     		str	r0, [sp, #16]
 944              	.LVL126:
 519:..\lvgl\lv_objx/lv_label.c ****     lv_style_t * style = lv_obj_get_style(label);
 945              		.loc 1 519 0
 946 001c 2046     		mov	r0, r4
 947              	.LVL127:
 948 001e FFF7FEFF 		bl	lv_obj_get_width
 949              	.LVL128:
 950 0022 0390     		str	r0, [sp, #12]
 951              	.LVL129:
 520:..\lvgl\lv_objx/lv_label.c ****     const lv_font_t * font = style->text.font;
ARM GAS  C:\Users\d3bug\AppData\Local\Temp\cct3SNM7.s 			page 39


 952              		.loc 1 520 0
 953 0024 2046     		mov	r0, r4
 954 0026 FFF7FEFF 		bl	lv_obj_get_style
 955              	.LVL130:
 956 002a 8046     		mov	r8, r0
 957              	.LVL131:
 521:..\lvgl\lv_objx/lv_label.c ****     uint8_t letter_height = lv_font_get_height(font);
 958              		.loc 1 521 0
 959 002c 036A     		ldr	r3, [r0, #32]
 960 002e 0293     		str	r3, [sp, #8]
 961              	.LVL132:
 962              	.LBB34:
 963              	.LBB35:
 964              		.loc 2 128 0
 965 0030 93F820A0 		ldrb	r10, [r3, #32]	@ zero_extendqisi2
 966              	.LVL133:
 967              	.LBE35:
 968              	.LBE34:
 526:..\lvgl\lv_objx/lv_label.c ****     if(ext->expand != 0) flag |= LV_TXT_FLAG_EXPAND;
 969              		.loc 1 526 0
 970 0034 AB7E     		ldrb	r3, [r5, #26]	@ zero_extendqisi2
 971              	.LVL134:
 972 0036 13F0080F 		tst	r3, #8
 973 003a 02D1     		bne	.L79
 524:..\lvgl\lv_objx/lv_label.c **** 
 974              		.loc 1 524 0
 975 003c 4FF00009 		mov	r9, #0
 976 0040 01E0     		b	.L65
 977              	.L79:
 526:..\lvgl\lv_objx/lv_label.c ****     if(ext->expand != 0) flag |= LV_TXT_FLAG_EXPAND;
 978              		.loc 1 526 0
 979 0042 4FF00109 		mov	r9, #1
 980              	.L65:
 981              	.LVL135:
 527:..\lvgl\lv_objx/lv_label.c ****     if(ext->align == LV_LABEL_ALIGN_CENTER) flag |= LV_TXT_FLAG_CENTER;
 982              		.loc 1 527 0
 983 0046 13F0100F 		tst	r3, #16
 984 004a 01D0     		beq	.L66
 527:..\lvgl\lv_objx/lv_label.c ****     if(ext->align == LV_LABEL_ALIGN_CENTER) flag |= LV_TXT_FLAG_CENTER;
 985              		.loc 1 527 0 is_stmt 0 discriminator 1
 986 004c 49F00209 		orr	r9, r9, #2
 987              	.LVL136:
 988              	.L66:
 528:..\lvgl\lv_objx/lv_label.c **** 
 989              		.loc 1 528 0 is_stmt 1
 990 0050 03F00603 		and	r3, r3, #6
 991 0054 022B     		cmp	r3, #2
 992 0056 01D1     		bne	.L67
 528:..\lvgl\lv_objx/lv_label.c **** 
 993              		.loc 1 528 0 is_stmt 0 discriminator 1
 994 0058 49F00409 		orr	r9, r9, #4
 995              	.LVL137:
 996              	.L67:
 531:..\lvgl\lv_objx/lv_label.c ****         max_w = LV_COORD_MAX;
 997              		.loc 1 531 0 is_stmt 1
 998 005c 049B     		ldr	r3, [sp, #16]
 999 005e 1B79     		ldrb	r3, [r3, #4]	@ zero_extendqisi2
ARM GAS  C:\Users\d3bug\AppData\Local\Temp\cct3SNM7.s 			page 40


 1000 0060 13B1     		cbz	r3, .L80
 531:..\lvgl\lv_objx/lv_label.c ****         max_w = LV_COORD_MAX;
 1001              		.loc 1 531 0 is_stmt 0 discriminator 1
 1002 0062 022B     		cmp	r3, #2
 1003 0064 07D1     		bne	.L68
 1004 0066 03E0     		b	.L81
 1005              	.L80:
 532:..\lvgl\lv_objx/lv_label.c ****     }
 1006              		.loc 1 532 0 is_stmt 1
 1007 0068 43F6FF73 		movw	r3, #16383
 1008 006c 0393     		str	r3, [sp, #12]
 1009              	.LVL138:
 1010 006e 02E0     		b	.L68
 1011              	.LVL139:
 1012              	.L81:
 1013 0070 43F6FF73 		movw	r3, #16383
 1014 0074 0393     		str	r3, [sp, #12]
 1015              	.LVL140:
 1016              	.L68:
 1017 0076 0024     		movs	r4, #0
 1018              	.LVL141:
 1019 0078 2546     		mov	r5, r4
 1020              	.LVL142:
 1021 007a 15E0     		b	.L69
 1022              	.LVL143:
 1023              	.L71:
 537:..\lvgl\lv_objx/lv_label.c **** 
 1024              		.loc 1 537 0
 1025 007c B8F92420 		ldrsh	r2, [r8, #36]
 1026 0080 CDF80090 		str	r9, [sp]
 1027 0084 039B     		ldr	r3, [sp, #12]
 1028 0086 0299     		ldr	r1, [sp, #8]
 1029 0088 3846     		mov	r0, r7
 1030 008a FFF7FEFF 		bl	lv_txt_get_next_line
 1031              	.LVL144:
 1032 008e 2844     		add	r0, r0, r5
 1033              	.LVL145:
 539:..\lvgl\lv_objx/lv_label.c ****         y += letter_height + style->text.line_space;
 1034              		.loc 1 539 0
 1035 0090 BBF90220 		ldrsh	r2, [fp, #2]
 1036 0094 04EB0A03 		add	r3, r4, r10
 1037 0098 9A42     		cmp	r2, r3
 1038 009a 0CDD     		ble	.L83
 540:..\lvgl\lv_objx/lv_label.c **** 
 1039              		.loc 1 540 0
 1040 009c B8F92630 		ldrsh	r3, [r8, #38]
 1041 00a0 5344     		add	r3, r3, r10
 1042 00a2 1C44     		add	r4, r4, r3
 1043              	.LVL146:
 1044 00a4 24B2     		sxth	r4, r4
 1045              	.LVL147:
 542:..\lvgl\lv_objx/lv_label.c ****     }
 1046              		.loc 1 542 0
 1047 00a6 0546     		mov	r5, r0
 1048              	.LVL148:
 1049              	.L69:
 536:..\lvgl\lv_objx/lv_label.c ****         new_line_start += lv_txt_get_next_line(&txt[line_start], font, style->text.letter_space, ma
ARM GAS  C:\Users\d3bug\AppData\Local\Temp\cct3SNM7.s 			page 41


 1050              		.loc 1 536 0
 1051 00a8 7719     		adds	r7, r6, r5
 1052 00aa 735D     		ldrb	r3, [r6, r5]	@ zero_extendqisi2
 1053 00ac 002B     		cmp	r3, #0
 1054 00ae E5D1     		bne	.L71
 1055 00b0 3C46     		mov	r4, r7
 1056              	.LVL149:
 1057 00b2 2F46     		mov	r7, r5
 1058 00b4 01E0     		b	.L70
 1059              	.LVL150:
 1060              	.L83:
 1061 00b6 3C46     		mov	r4, r7
 1062              	.LVL151:
 1063 00b8 0746     		mov	r7, r0
 1064              	.LVL152:
 1065              	.L70:
 547:..\lvgl\lv_objx/lv_label.c ****         lv_coord_t line_w;
 1066              		.loc 1 547 0
 1067 00ba 049B     		ldr	r3, [sp, #16]
 1068 00bc 9B7E     		ldrb	r3, [r3, #26]	@ zero_extendqisi2
 1069 00be 03F00603 		and	r3, r3, #6
 1070 00c2 022B     		cmp	r3, #2
 1071 00c4 18D1     		bne	.L82
 1072              	.LBB36:
 549:..\lvgl\lv_objx/lv_label.c ****                                   font, style->text.letter_space, flag);
 1073              		.loc 1 549 0
 1074 00c6 791B     		subs	r1, r7, r5
 1075 00c8 B8F92430 		ldrsh	r3, [r8, #36]
 1076 00cc CDF80090 		str	r9, [sp]
 1077 00d0 029A     		ldr	r2, [sp, #8]
 1078 00d2 89B2     		uxth	r1, r1
 1079 00d4 2046     		mov	r0, r4
 1080 00d6 FFF7FEFF 		bl	lv_txt_get_width
 1081              	.LVL153:
 1082 00da 0446     		mov	r4, r0
 1083              	.LVL154:
 551:..\lvgl\lv_objx/lv_label.c ****     }
 1084              		.loc 1 551 0
 1085 00dc 0598     		ldr	r0, [sp, #20]
 1086 00de FFF7FEFF 		bl	lv_obj_get_width
 1087              	.LVL155:
 1088 00e2 00EBD070 		add	r0, r0, r0, lsr #31
 1089 00e6 40F34F02 		sbfx	r2, r0, #1, #16
 1090 00ea 04EBD474 		add	r4, r4, r4, lsr #31
 1091              	.LVL156:
 1092 00ee 44F34F03 		sbfx	r3, r4, #1, #16
 1093 00f2 D31A     		subs	r3, r2, r3
 1094 00f4 1CB2     		sxth	r4, r3
 1095              	.LVL157:
 1096 00f6 00E0     		b	.L72
 1097              	.LVL158:
 1098              	.L82:
 1099              	.LBE36:
 546:..\lvgl\lv_objx/lv_label.c ****     if(ext->align == LV_LABEL_ALIGN_CENTER) {
 1100              		.loc 1 546 0
 1101 00f8 0024     		movs	r4, #0
 1102              	.LVL159:
ARM GAS  C:\Users\d3bug\AppData\Local\Temp\cct3SNM7.s 			page 42


 1103              	.L72:
 554:..\lvgl\lv_objx/lv_label.c ****     uint32_t i = line_start;
 1104              		.loc 1 554 0
 1105 00fa 0023     		movs	r3, #0
 1106 00fc 8DF81F30 		strb	r3, [sp, #31]
 555:..\lvgl\lv_objx/lv_label.c ****     uint32_t i_current = i;
 1107              		.loc 1 555 0
 1108 0100 0695     		str	r5, [sp, #24]
 1109              	.LVL160:
 558:..\lvgl\lv_objx/lv_label.c ****         letter = lv_txt_encoded_next(txt, &i);    /*Be careful 'i' already points to the next chara
 1110              		.loc 1 558 0
 1111 0102 21E0     		b	.L73
 1112              	.LVL161:
 1113              	.L78:
 559:..\lvgl\lv_objx/lv_label.c ****         /*Handle the recolor command*/
 1114              		.loc 1 559 0
 1115 0104 174B     		ldr	r3, .L85
 1116 0106 1B68     		ldr	r3, [r3]
 1117 0108 06A9     		add	r1, sp, #24
 1118 010a 3046     		mov	r0, r6
 1119 010c 9847     		blx	r3
 1120              	.LVL162:
 1121 010e 8246     		mov	r10, r0
 1122              	.LVL163:
 561:..\lvgl\lv_objx/lv_label.c ****             if(lv_txt_is_cmd(&cmd_state, txt[i]) != false) {
 1123              		.loc 1 561 0
 1124 0110 19F0010F 		tst	r9, #1
 1125 0114 06D0     		beq	.L74
 562:..\lvgl\lv_objx/lv_label.c ****                 continue; /*Skip the letter is it is part of a command*/
 1126              		.loc 1 562 0
 1127 0116 069B     		ldr	r3, [sp, #24]
 1128 0118 F15C     		ldrb	r1, [r6, r3]	@ zero_extendqisi2
 1129 011a 0DF11F00 		add	r0, sp, #31
 1130              	.LVL164:
 1131 011e FFF7FEFF 		bl	lv_txt_is_cmd
 1132              	.LVL165:
 1133 0122 88B9     		cbnz	r0, .L73
 1134              	.L74:
 567:..\lvgl\lv_objx/lv_label.c ****         if(pos->x < x) {
 1135              		.loc 1 567 0
 1136 0124 5146     		mov	r1, r10
 1137 0126 0298     		ldr	r0, [sp, #8]
 1138 0128 FFF7FEFF 		bl	lv_font_get_width
 1139              	.LVL166:
 1140 012c 2044     		add	r0, r0, r4
 1141 012e 84B2     		uxth	r4, r0
 1142              	.LVL167:
 1143 0130 22B2     		sxth	r2, r4
 1144              	.LVL168:
 568:..\lvgl\lv_objx/lv_label.c ****             i = i_current;
 1145              		.loc 1 568 0
 1146 0132 BBF90030 		ldrsh	r3, [fp]
 1147 0136 9A42     		cmp	r2, r3
 1148 0138 01DD     		ble	.L76
 569:..\lvgl\lv_objx/lv_label.c ****             break;
 1149              		.loc 1 569 0
 1150 013a 0695     		str	r5, [sp, #24]
ARM GAS  C:\Users\d3bug\AppData\Local\Temp\cct3SNM7.s 			page 43


 570:..\lvgl\lv_objx/lv_label.c ****         }
 1151              		.loc 1 570 0
 1152 013c 08E0     		b	.L77
 1153              	.L76:
 572:..\lvgl\lv_objx/lv_label.c ****         i_current = i;
 1154              		.loc 1 572 0
 1155 013e B8F92400 		ldrsh	r0, [r8, #36]
 1156 0142 0444     		add	r4, r4, r0
 1157 0144 24B2     		sxth	r4, r4
 1158              	.LVL169:
 573:..\lvgl\lv_objx/lv_label.c ****     }
 1159              		.loc 1 573 0
 1160 0146 069D     		ldr	r5, [sp, #24]
 1161              	.LVL170:
 1162              	.L73:
 558:..\lvgl\lv_objx/lv_label.c ****         letter = lv_txt_encoded_next(txt, &i);    /*Be careful 'i' already points to the next chara
 1163              		.loc 1 558 0
 1164 0148 7B1E     		subs	r3, r7, #1
 1165 014a 069A     		ldr	r2, [sp, #24]
 1166 014c 9342     		cmp	r3, r2
 1167 014e D9D8     		bhi	.L78
 1168              	.LVL171:
 1169              	.L77:
 576:..\lvgl\lv_objx/lv_label.c **** }
 1170              		.loc 1 576 0
 1171 0150 054B     		ldr	r3, .L85+4
 1172 0152 1B68     		ldr	r3, [r3]
 1173 0154 0699     		ldr	r1, [sp, #24]
 1174 0156 3046     		mov	r0, r6
 1175 0158 9847     		blx	r3
 1176              	.LVL172:
 577:..\lvgl\lv_objx/lv_label.c **** 
 1177              		.loc 1 577 0
 1178 015a 80B2     		uxth	r0, r0
 1179 015c 09B0     		add	sp, sp, #36
 1180              		.cfi_def_cfa_offset 36
 1181              		@ sp needed
 1182 015e BDE8F08F 		pop	{r4, r5, r6, r7, r8, r9, r10, fp, pc}
 1183              	.LVL173:
 1184              	.L86:
 1185 0162 00BF     		.align	2
 1186              	.L85:
 1187 0164 00000000 		.word	lv_txt_encoded_next
 1188 0168 00000000 		.word	lv_encoded_get_char_id
 1189              		.cfi_endproc
 1190              	.LFE30:
 1191              		.size	lv_label_get_letter_on, .-lv_label_get_letter_on
 1192              		.section	.text.lv_label_refr_text,"ax",%progbits
 1193              		.align	2
 1194              		.thumb
 1195              		.thumb_func
 1196              		.type	lv_label_refr_text, %function
 1197              	lv_label_refr_text:
 1198              	.LFB35:
 784:..\lvgl\lv_objx/lv_label.c ****     lv_label_ext_t * ext = lv_obj_get_ext_attr(label);
 1199              		.loc 1 784 0
 1200              		.cfi_startproc
ARM GAS  C:\Users\d3bug\AppData\Local\Temp\cct3SNM7.s 			page 44


 1201              		@ args = 0, pretend = 0, frame = 16
 1202              		@ frame_needed = 0, uses_anonymous_args = 0
 1203              	.LVL174:
 1204 0000 2DE9F047 		push	{r4, r5, r6, r7, r8, r9, r10, lr}
 1205              		.cfi_def_cfa_offset 32
 1206              		.cfi_offset 4, -32
 1207              		.cfi_offset 5, -28
 1208              		.cfi_offset 6, -24
 1209              		.cfi_offset 7, -20
 1210              		.cfi_offset 8, -16
 1211              		.cfi_offset 9, -12
 1212              		.cfi_offset 10, -8
 1213              		.cfi_offset 14, -4
 1214 0004 88B0     		sub	sp, sp, #32
 1215              		.cfi_def_cfa_offset 64
 1216 0006 0546     		mov	r5, r0
 785:..\lvgl\lv_objx/lv_label.c **** 
 1217              		.loc 1 785 0
 1218 0008 FFF7FEFF 		bl	lv_obj_get_ext_attr
 1219              	.LVL175:
 787:..\lvgl\lv_objx/lv_label.c **** 
 1220              		.loc 1 787 0
 1221 000c 0368     		ldr	r3, [r0]
 1222 000e 002B     		cmp	r3, #0
 1223 0010 00F0BA80 		beq	.L87
 1224 0014 0446     		mov	r4, r0
 789:..\lvgl\lv_objx/lv_label.c ****     lv_style_t * style = lv_obj_get_style(label);
 1225              		.loc 1 789 0
 1226 0016 2846     		mov	r0, r5
 1227              	.LVL176:
 1228 0018 FFF7FEFF 		bl	lv_obj_get_width
 1229              	.LVL177:
 1230 001c 0746     		mov	r7, r0
 1231              	.LVL178:
 790:..\lvgl\lv_objx/lv_label.c ****     const lv_font_t * font = style->text.font;
 1232              		.loc 1 790 0
 1233 001e 2846     		mov	r0, r5
 1234 0020 FFF7FEFF 		bl	lv_obj_get_style
 1235              	.LVL179:
 1236 0024 0646     		mov	r6, r0
 1237              	.LVL180:
 791:..\lvgl\lv_objx/lv_label.c **** 
 1238              		.loc 1 791 0
 1239 0026 026A     		ldr	r2, [r0, #32]
 1240              	.LVL181:
 794:..\lvgl\lv_objx/lv_label.c ****             ext->long_mode == LV_LABEL_LONG_SCROLL) {
 1241              		.loc 1 794 0
 1242 0028 2379     		ldrb	r3, [r4, #4]	@ zero_extendqisi2
 1243 002a 13B1     		cbz	r3, .L103
 794:..\lvgl\lv_objx/lv_label.c ****             ext->long_mode == LV_LABEL_LONG_SCROLL) {
 1244              		.loc 1 794 0 is_stmt 0 discriminator 1
 1245 002c 022B     		cmp	r3, #2
 1246 002e 05D1     		bne	.L89
 1247 0030 02E0     		b	.L104
 1248              	.L103:
 796:..\lvgl\lv_objx/lv_label.c ****     }
 1249              		.loc 1 796 0 is_stmt 1
ARM GAS  C:\Users\d3bug\AppData\Local\Temp\cct3SNM7.s 			page 45


 1250 0032 43F6FF77 		movw	r7, #16383
 1251              	.LVL182:
 1252 0036 01E0     		b	.L89
 1253              	.LVL183:
 1254              	.L104:
 1255 0038 43F6FF77 		movw	r7, #16383
 1256              	.LVL184:
 1257              	.L89:
 802:..\lvgl\lv_objx/lv_label.c ****     if(ext->expand != 0) flag |= LV_TXT_FLAG_EXPAND;
 1258              		.loc 1 802 0
 1259 003c A37E     		ldrb	r3, [r4, #26]	@ zero_extendqisi2
 1260 003e 13F0080F 		tst	r3, #8
 1261 0042 01D1     		bne	.L105
 801:..\lvgl\lv_objx/lv_label.c ****     if(ext->recolor != 0) flag |= LV_TXT_FLAG_RECOLOR;
 1262              		.loc 1 801 0
 1263 0044 0020     		movs	r0, #0
 1264              	.LVL185:
 1265 0046 00E0     		b	.L90
 1266              	.LVL186:
 1267              	.L105:
 802:..\lvgl\lv_objx/lv_label.c ****     if(ext->expand != 0) flag |= LV_TXT_FLAG_EXPAND;
 1268              		.loc 1 802 0
 1269 0048 0120     		movs	r0, #1
 1270              	.LVL187:
 1271              	.L90:
 803:..\lvgl\lv_objx/lv_label.c ****     lv_txt_get_size(&size, ext->text, font, style->text.letter_space, style->text.line_space, max_w
 1272              		.loc 1 803 0
 1273 004a 13F0100F 		tst	r3, #16
 1274 004e 01D0     		beq	.L91
 803:..\lvgl\lv_objx/lv_label.c ****     lv_txt_get_size(&size, ext->text, font, style->text.letter_space, style->text.line_space, max_w
 1275              		.loc 1 803 0 is_stmt 0 discriminator 1
 1276 0050 40F00200 		orr	r0, r0, #2
 1277              	.LVL188:
 1278              	.L91:
 804:..\lvgl\lv_objx/lv_label.c **** 
 1279              		.loc 1 804 0 is_stmt 1
 1280 0054 2168     		ldr	r1, [r4]
 1281 0056 B6F92430 		ldrsh	r3, [r6, #36]
 1282 005a 0290     		str	r0, [sp, #8]
 1283 005c 0197     		str	r7, [sp, #4]
 1284 005e B6F92600 		ldrsh	r0, [r6, #38]
 1285              	.LVL189:
 1286 0062 0090     		str	r0, [sp]
 1287 0064 07A8     		add	r0, sp, #28
 1288 0066 FFF7FEFF 		bl	lv_txt_get_size
 1289              	.LVL190:
 807:..\lvgl\lv_objx/lv_label.c ****         lv_obj_set_size(label, size.x, size.y);
 1290              		.loc 1 807 0
 1291 006a 2379     		ldrb	r3, [r4, #4]	@ zero_extendqisi2
 1292 006c 0BB1     		cbz	r3, .L92
 807:..\lvgl\lv_objx/lv_label.c ****         lv_obj_set_size(label, size.x, size.y);
 1293              		.loc 1 807 0 is_stmt 0 discriminator 1
 1294 006e 022B     		cmp	r3, #2
 1295 0070 07D1     		bne	.L93
 1296              	.L92:
 808:..\lvgl\lv_objx/lv_label.c **** 
 1297              		.loc 1 808 0 is_stmt 1
ARM GAS  C:\Users\d3bug\AppData\Local\Temp\cct3SNM7.s 			page 46


 1298 0072 BDF91E20 		ldrsh	r2, [sp, #30]
 1299 0076 BDF91C10 		ldrsh	r1, [sp, #28]
 1300 007a 2846     		mov	r0, r5
 1301 007c FFF7FEFF 		bl	lv_obj_set_size
 1302              	.LVL191:
 811:..\lvgl\lv_objx/lv_label.c **** #if USE_LV_ANIMATION
 1303              		.loc 1 811 0
 1304 0080 7FE0     		b	.L94
 1305              	.L93:
 847:..\lvgl\lv_objx/lv_label.c **** #if USE_LV_ANIMATION
 1306              		.loc 1 847 0
 1307 0082 042B     		cmp	r3, #4
 1308 0084 7DD0     		beq	.L94
 884:..\lvgl\lv_objx/lv_label.c ****         if(size.y <= lv_obj_get_height(label)) {                /*No dots are required, the text is
 1309              		.loc 1 884 0
 1310 0086 032B     		cmp	r3, #3
 1311 0088 74D1     		bne	.L95
 885:..\lvgl\lv_objx/lv_label.c ****             ext->dot_end = LV_LABEL_DOT_END_INV;
 1312              		.loc 1 885 0
 1313 008a BDF91E70 		ldrsh	r7, [sp, #30]
 1314              	.LVL192:
 1315 008e 2846     		mov	r0, r5
 1316 0090 FFF7FEFF 		bl	lv_obj_get_height
 1317              	.LVL193:
 1318 0094 8742     		cmp	r7, r0
 1319 0096 03DC     		bgt	.L96
 886:..\lvgl\lv_objx/lv_label.c ****         } else if(lv_txt_get_encoded_length(ext->text) <= LV_LABEL_DOT_NUM) {     /*Don't turn to d
 1320              		.loc 1 886 0
 1321 0098 4FF6FF73 		movw	r3, #65535
 1322 009c 6382     		strh	r3, [r4, #18]	@ movhi
 1323 009e 70E0     		b	.L94
 1324              	.L96:
 887:..\lvgl\lv_objx/lv_label.c ****             ext->dot_end = LV_LABEL_DOT_END_INV;
 1325              		.loc 1 887 0
 1326 00a0 3B4B     		ldr	r3, .L107
 1327 00a2 1B68     		ldr	r3, [r3]
 1328 00a4 2068     		ldr	r0, [r4]
 1329 00a6 9847     		blx	r3
 1330              	.LVL194:
 1331 00a8 0328     		cmp	r0, #3
 1332 00aa 03D8     		bhi	.L97
 888:..\lvgl\lv_objx/lv_label.c ****         } else {
 1333              		.loc 1 888 0
 1334 00ac 4FF6FF73 		movw	r3, #65535
 1335 00b0 6382     		strh	r3, [r4, #18]	@ movhi
 1336 00b2 66E0     		b	.L94
 1337              	.L97:
 1338              	.LBB37:
 891:..\lvgl\lv_objx/lv_label.c ****             p.y = lv_obj_get_height(label);
 1339              		.loc 1 891 0
 1340 00b4 2846     		mov	r0, r5
 1341 00b6 FFF7FEFF 		bl	lv_obj_get_width
 1342              	.LVL195:
 1343 00ba 0746     		mov	r7, r0
 1344 00bc 2E21     		movs	r1, #46
 1345 00be 306A     		ldr	r0, [r6, #32]
 1346 00c0 FFF7FEFF 		bl	lv_font_get_width
ARM GAS  C:\Users\d3bug\AppData\Local\Temp\cct3SNM7.s 			page 47


 1347              	.LVL196:
 1348 00c4 B6F92430 		ldrsh	r3, [r6, #36]
 1349 00c8 1844     		add	r0, r0, r3
 1350 00ca A0EB8000 		sub	r0, r0, r0, lsl #2
 1351 00ce 3844     		add	r0, r0, r7
 1352 00d0 ADF81400 		strh	r0, [sp, #20]	@ movhi
 892:..\lvgl\lv_objx/lv_label.c ****             p.y -= p.y  % (lv_font_get_height(style->text.font) + style->text.line_space);   /*Roun
 1353              		.loc 1 892 0
 1354 00d4 2846     		mov	r0, r5
 1355 00d6 FFF7FEFF 		bl	lv_obj_get_height
 1356              	.LVL197:
 893:..\lvgl\lv_objx/lv_label.c ****             p.y -= style->text.line_space;                                                      /*T
 1357              		.loc 1 893 0
 1358 00da 336A     		ldr	r3, [r6, #32]
 1359              	.LVL198:
 1360              	.LBB38:
 1361              	.LBB39:
 1362              		.loc 2 128 0
 1363 00dc 93F82020 		ldrb	r2, [r3, #32]	@ zero_extendqisi2
 1364              	.LVL199:
 1365              	.LBE39:
 1366              	.LBE38:
 893:..\lvgl\lv_objx/lv_label.c ****             p.y -= style->text.line_space;                                                      /*T
 1367              		.loc 1 893 0
 1368 00e0 B6F92610 		ldrsh	r1, [r6, #38]
 1369 00e4 0A44     		add	r2, r2, r1
 1370 00e6 90FBF2F3 		sdiv	r3, r0, r2
 1371 00ea 02FB1303 		mls	r3, r2, r3, r0
 1372 00ee C31A     		subs	r3, r0, r3
 1373 00f0 9BB2     		uxth	r3, r3
 894:..\lvgl\lv_objx/lv_label.c ****             uint32_t letter_id = lv_label_get_letter_on(label, &p);
 1374              		.loc 1 894 0
 1375 00f2 5B1A     		subs	r3, r3, r1
 1376 00f4 ADF81630 		strh	r3, [sp, #22]	@ movhi
 895:..\lvgl\lv_objx/lv_label.c **** 
 1377              		.loc 1 895 0
 1378 00f8 05A9     		add	r1, sp, #20
 1379 00fa 2846     		mov	r0, r5
 1380 00fc FFF7FEFF 		bl	lv_label_get_letter_on
 1381              	.LVL200:
 1382 0100 8046     		mov	r8, r0
 1383              	.LVL201:
 913:..\lvgl\lv_objx/lv_label.c ****             uint32_t byte_id_ori = byte_id;
 1384              		.loc 1 913 0
 1385 0102 244B     		ldr	r3, .L107+4
 1386 0104 1B68     		ldr	r3, [r3]
 1387 0106 0146     		mov	r1, r0
 1388 0108 2068     		ldr	r0, [r4]
 1389              	.LVL202:
 1390 010a 9847     		blx	r3
 1391              	.LVL203:
 1392 010c 0746     		mov	r7, r0
 1393 010e 0690     		str	r0, [sp, #24]
 1394              	.LVL204:
 915:..\lvgl\lv_objx/lv_label.c ****             for(i = 0; i <= LV_LABEL_DOT_NUM; i++)  {
 1395              		.loc 1 915 0
 1396 0110 0026     		movs	r6, #0
ARM GAS  C:\Users\d3bug\AppData\Local\Temp\cct3SNM7.s 			page 48


 1397              	.LVL205:
 916:..\lvgl\lv_objx/lv_label.c ****                 len += lv_txt_encoded_size(&ext->text[byte_id]);
 1398              		.loc 1 916 0
 1399 0112 B246     		mov	r10, r6
 1400 0114 11E0     		b	.L98
 1401              	.LVL206:
 1402              	.L99:
 917:..\lvgl\lv_objx/lv_label.c ****                 lv_txt_encoded_next(ext->text, &byte_id);
 1403              		.loc 1 917 0 discriminator 3
 1404 0116 2068     		ldr	r0, [r4]
 1405 0118 0DF12009 		add	r9, sp, #32
 1406 011c 59F8082D 		ldr	r2, [r9, #-8]!
 1407 0120 1D4B     		ldr	r3, .L107+8
 1408 0122 1B68     		ldr	r3, [r3]
 1409 0124 1044     		add	r0, r0, r2
 1410 0126 9847     		blx	r3
 1411              	.LVL207:
 1412 0128 3044     		add	r0, r0, r6
 1413 012a C6B2     		uxtb	r6, r0
 1414              	.LVL208:
 918:..\lvgl\lv_objx/lv_label.c ****             }
 1415              		.loc 1 918 0 discriminator 3
 1416 012c 1B4B     		ldr	r3, .L107+12
 1417 012e 1B68     		ldr	r3, [r3]
 1418 0130 4946     		mov	r1, r9
 1419 0132 2068     		ldr	r0, [r4]
 1420 0134 9847     		blx	r3
 1421              	.LVL209:
 916:..\lvgl\lv_objx/lv_label.c ****                 len += lv_txt_encoded_size(&ext->text[byte_id]);
 1422              		.loc 1 916 0 discriminator 3
 1423 0136 0AF1010A 		add	r10, r10, #1
 1424              	.LVL210:
 1425              	.L98:
 916:..\lvgl\lv_objx/lv_label.c ****                 len += lv_txt_encoded_size(&ext->text[byte_id]);
 1426              		.loc 1 916 0 is_stmt 0 discriminator 1
 1427 013a BAF1030F 		cmp	r10, #3
 1428 013e EAD9     		bls	.L99
 921:..\lvgl\lv_objx/lv_label.c ****             ext->dot_tmp[len] = '\0';       /*Close with a zero*/
 1429              		.loc 1 921 0 is_stmt 1
 1430 0140 2168     		ldr	r1, [r4]
 1431 0142 3246     		mov	r2, r6
 1432 0144 3944     		add	r1, r1, r7
 1433 0146 601D     		adds	r0, r4, #5
 1434 0148 FFF7FEFF 		bl	memcpy
 1435              	.LVL211:
 922:..\lvgl\lv_objx/lv_label.c **** 
 1436              		.loc 1 922 0
 1437 014c 2644     		add	r6, r6, r4
 1438              	.LVL212:
 1439 014e 0023     		movs	r3, #0
 1440 0150 7371     		strb	r3, [r6, #5]
 1441              	.LVL213:
 924:..\lvgl\lv_objx/lv_label.c ****                 ext->text[byte_id_ori + i] = '.';
 1442              		.loc 1 924 0
 1443 0152 04E0     		b	.L100
 1444              	.LVL214:
 1445              	.L101:
ARM GAS  C:\Users\d3bug\AppData\Local\Temp\cct3SNM7.s 			page 49


 925:..\lvgl\lv_objx/lv_label.c ****             }
 1446              		.loc 1 925 0 discriminator 3
 1447 0154 2168     		ldr	r1, [r4]
 1448 0156 DA19     		adds	r2, r3, r7
 1449 0158 2E20     		movs	r0, #46
 1450 015a 8854     		strb	r0, [r1, r2]
 924:..\lvgl\lv_objx/lv_label.c ****                 ext->text[byte_id_ori + i] = '.';
 1451              		.loc 1 924 0 discriminator 3
 1452 015c 0133     		adds	r3, r3, #1
 1453              	.LVL215:
 1454              	.L100:
 924:..\lvgl\lv_objx/lv_label.c ****                 ext->text[byte_id_ori + i] = '.';
 1455              		.loc 1 924 0 is_stmt 0 discriminator 1
 1456 015e 022B     		cmp	r3, #2
 1457 0160 F8D9     		bls	.L101
 927:..\lvgl\lv_objx/lv_label.c **** 
 1458              		.loc 1 927 0 is_stmt 1
 1459 0162 2368     		ldr	r3, [r4]
 1460              	.LVL216:
 1461 0164 0337     		adds	r7, r7, #3
 1462              	.LVL217:
 1463 0166 0022     		movs	r2, #0
 1464 0168 DA55     		strb	r2, [r3, r7]
 929:..\lvgl\lv_objx/lv_label.c **** #endif
 1465              		.loc 1 929 0
 1466 016a 08F10308 		add	r8, r8, #3
 1467              	.LVL218:
 1468 016e A4F81280 		strh	r8, [r4, #18]	@ movhi
 1469 0172 06E0     		b	.L94
 1470              	.LVL219:
 1471              	.L95:
 1472              	.LBE37:
 935:..\lvgl\lv_objx/lv_label.c ****         lv_obj_set_height(label, size.y);
 1473              		.loc 1 935 0
 1474 0174 012B     		cmp	r3, #1
 1475 0176 04D1     		bne	.L94
 936:..\lvgl\lv_objx/lv_label.c ****     }
 1476              		.loc 1 936 0
 1477 0178 BDF91E10 		ldrsh	r1, [sp, #30]
 1478 017c 2846     		mov	r0, r5
 1479 017e FFF7FEFF 		bl	lv_obj_set_height
 1480              	.LVL220:
 1481              	.L94:
 944:..\lvgl\lv_objx/lv_label.c **** }
 1482              		.loc 1 944 0 discriminator 4
 1483 0182 2846     		mov	r0, r5
 1484 0184 FFF7FEFF 		bl	lv_obj_invalidate
 1485              	.LVL221:
 1486              	.L87:
 945:..\lvgl\lv_objx/lv_label.c **** 
 1487              		.loc 1 945 0
 1488 0188 08B0     		add	sp, sp, #32
 1489              		.cfi_def_cfa_offset 32
 1490              		@ sp needed
 1491 018a BDE8F087 		pop	{r4, r5, r6, r7, r8, r9, r10, pc}
 1492              	.LVL222:
 1493              	.L108:
ARM GAS  C:\Users\d3bug\AppData\Local\Temp\cct3SNM7.s 			page 50


 1494 018e 00BF     		.align	2
 1495              	.L107:
 1496 0190 00000000 		.word	lv_txt_get_encoded_length
 1497 0194 00000000 		.word	lv_txt_encoded_get_byte_id
 1498 0198 00000000 		.word	lv_txt_encoded_size
 1499 019c 00000000 		.word	lv_txt_encoded_next
 1500              		.cfi_endproc
 1501              	.LFE35:
 1502              		.size	lv_label_refr_text, .-lv_label_refr_text
 1503              		.section	.text.lv_label_signal,"ax",%progbits
 1504              		.align	2
 1505              		.thumb
 1506              		.thumb_func
 1507              		.type	lv_label_signal, %function
 1508              	lv_label_signal:
 1509              	.LFB34:
 726:..\lvgl\lv_objx/lv_label.c ****     lv_res_t res;
 1510              		.loc 1 726 0
 1511              		.cfi_startproc
 1512              		@ args = 0, pretend = 0, frame = 0
 1513              		@ frame_needed = 0, uses_anonymous_args = 0
 1514              	.LVL223:
 1515 0000 2DE9F041 		push	{r4, r5, r6, r7, r8, lr}
 1516              		.cfi_def_cfa_offset 24
 1517              		.cfi_offset 4, -24
 1518              		.cfi_offset 5, -20
 1519              		.cfi_offset 6, -16
 1520              		.cfi_offset 7, -12
 1521              		.cfi_offset 8, -8
 1522              		.cfi_offset 14, -4
 1523 0004 0646     		mov	r6, r0
 1524 0006 0D46     		mov	r5, r1
 1525 0008 1746     		mov	r7, r2
 730:..\lvgl\lv_objx/lv_label.c ****     if(res != LV_RES_OK) return res;
 1526              		.loc 1 730 0
 1527 000a 3A4B     		ldr	r3, .L121
 1528 000c 1B68     		ldr	r3, [r3]
 1529 000e 9847     		blx	r3
 1530              	.LVL224:
 1531 0010 0446     		mov	r4, r0
 1532              	.LVL225:
 731:..\lvgl\lv_objx/lv_label.c **** 
 1533              		.loc 1 731 0
 1534 0012 0128     		cmp	r0, #1
 1535 0014 6AD1     		bne	.L110
 733:..\lvgl\lv_objx/lv_label.c ****     if(sign ==  LV_SIGNAL_CLEANUP) {
 1536              		.loc 1 733 0
 1537 0016 3046     		mov	r0, r6
 1538              	.LVL226:
 1539 0018 FFF7FEFF 		bl	lv_obj_get_ext_attr
 1540              	.LVL227:
 1541 001c 8046     		mov	r8, r0
 1542              	.LVL228:
 734:..\lvgl\lv_objx/lv_label.c ****         if(ext->static_txt == 0) {
 1543              		.loc 1 734 0
 1544 001e 55B9     		cbnz	r5, .L111
 735:..\lvgl\lv_objx/lv_label.c ****             lv_mem_free(ext->text);
ARM GAS  C:\Users\d3bug\AppData\Local\Temp\cct3SNM7.s 			page 51


 1545              		.loc 1 735 0
 1546 0020 837E     		ldrb	r3, [r0, #26]	@ zero_extendqisi2
 1547 0022 13F0010F 		tst	r3, #1
 1548 0026 61D1     		bne	.L110
 736:..\lvgl\lv_objx/lv_label.c ****             ext->text = NULL;
 1549              		.loc 1 736 0
 1550 0028 0068     		ldr	r0, [r0]
 1551              	.LVL229:
 1552 002a FFF7FEFF 		bl	lv_mem_free
 1553              	.LVL230:
 737:..\lvgl\lv_objx/lv_label.c ****         }
 1554              		.loc 1 737 0
 1555 002e 0023     		movs	r3, #0
 1556 0030 C8F80030 		str	r3, [r8]
 1557 0034 5AE0     		b	.L110
 1558              	.LVL231:
 1559              	.L111:
 739:..\lvgl\lv_objx/lv_label.c ****         /*Revert dots for proper refresh*/
 1560              		.loc 1 739 0
 1561 0036 032D     		cmp	r5, #3
 1562 0038 06D1     		bne	.L112
 741:..\lvgl\lv_objx/lv_label.c **** 
 1563              		.loc 1 741 0
 1564 003a 3046     		mov	r0, r6
 1565              	.LVL232:
 1566 003c FFF7FEFF 		bl	lv_label_revert_dots
 1567              	.LVL233:
 743:..\lvgl\lv_objx/lv_label.c ****     } else if(sign == LV_SIGNAL_CORD_CHG) {
 1568              		.loc 1 743 0
 1569 0040 3046     		mov	r0, r6
 1570 0042 FFF7FEFF 		bl	lv_label_refr_text
 1571              	.LVL234:
 1572 0046 51E0     		b	.L110
 1573              	.LVL235:
 1574              	.L112:
 744:..\lvgl\lv_objx/lv_label.c ****         if(lv_area_get_width(&label->coords) != lv_area_get_width(param) ||
 1575              		.loc 1 744 0
 1576 0048 022D     		cmp	r5, #2
 1577 004a 26D1     		bne	.L113
 1578              	.LVL236:
 1579              	.LBB40:
 1580              	.LBB41:
 1581              		.file 3 "..\\lvgl\\lv_objx\\../lv_core/../lv_misc/lv_area.h"
   1:..\lvgl\lv_objx\../lv_core/../lv_misc/lv_area.h **** /**
   2:..\lvgl\lv_objx\../lv_core/../lv_misc/lv_area.h ****  * @file lv_area.h
   3:..\lvgl\lv_objx\../lv_core/../lv_misc/lv_area.h ****  *
   4:..\lvgl\lv_objx\../lv_core/../lv_misc/lv_area.h ****  */
   5:..\lvgl\lv_objx\../lv_core/../lv_misc/lv_area.h **** 
   6:..\lvgl\lv_objx\../lv_core/../lv_misc/lv_area.h **** #ifndef LV_AREA_H
   7:..\lvgl\lv_objx\../lv_core/../lv_misc/lv_area.h **** #define LV_AREA_H
   8:..\lvgl\lv_objx\../lv_core/../lv_misc/lv_area.h **** 
   9:..\lvgl\lv_objx\../lv_core/../lv_misc/lv_area.h **** #ifdef __cplusplus
  10:..\lvgl\lv_objx\../lv_core/../lv_misc/lv_area.h **** extern "C" {
  11:..\lvgl\lv_objx\../lv_core/../lv_misc/lv_area.h **** #endif
  12:..\lvgl\lv_objx\../lv_core/../lv_misc/lv_area.h **** 
  13:..\lvgl\lv_objx\../lv_core/../lv_misc/lv_area.h **** 
  14:..\lvgl\lv_objx\../lv_core/../lv_misc/lv_area.h **** /*********************
ARM GAS  C:\Users\d3bug\AppData\Local\Temp\cct3SNM7.s 			page 52


  15:..\lvgl\lv_objx\../lv_core/../lv_misc/lv_area.h ****  *      INCLUDES
  16:..\lvgl\lv_objx\../lv_core/../lv_misc/lv_area.h ****  *********************/
  17:..\lvgl\lv_objx\../lv_core/../lv_misc/lv_area.h **** #include <string.h>
  18:..\lvgl\lv_objx\../lv_core/../lv_misc/lv_area.h **** #include <stdbool.h>
  19:..\lvgl\lv_objx\../lv_core/../lv_misc/lv_area.h **** #include <stdint.h>
  20:..\lvgl\lv_objx\../lv_core/../lv_misc/lv_area.h **** 
  21:..\lvgl\lv_objx\../lv_core/../lv_misc/lv_area.h **** /*********************
  22:..\lvgl\lv_objx\../lv_core/../lv_misc/lv_area.h ****  *      DEFINES
  23:..\lvgl\lv_objx\../lv_core/../lv_misc/lv_area.h ****  *********************/
  24:..\lvgl\lv_objx\../lv_core/../lv_misc/lv_area.h **** #define LV_COORD_MAX     (16383)    /*To avoid overflow don't let the max [-32,32k] range */
  25:..\lvgl\lv_objx\../lv_core/../lv_misc/lv_area.h **** #define LV_COORD_MIN     (-16384)
  26:..\lvgl\lv_objx\../lv_core/../lv_misc/lv_area.h **** 
  27:..\lvgl\lv_objx\../lv_core/../lv_misc/lv_area.h **** /**********************
  28:..\lvgl\lv_objx\../lv_core/../lv_misc/lv_area.h ****  *      TYPEDEFS
  29:..\lvgl\lv_objx\../lv_core/../lv_misc/lv_area.h ****  **********************/
  30:..\lvgl\lv_objx\../lv_core/../lv_misc/lv_area.h **** typedef int16_t lv_coord_t;
  31:..\lvgl\lv_objx\../lv_core/../lv_misc/lv_area.h **** 
  32:..\lvgl\lv_objx\../lv_core/../lv_misc/lv_area.h **** typedef struct
  33:..\lvgl\lv_objx\../lv_core/../lv_misc/lv_area.h **** {
  34:..\lvgl\lv_objx\../lv_core/../lv_misc/lv_area.h ****     lv_coord_t x;
  35:..\lvgl\lv_objx\../lv_core/../lv_misc/lv_area.h ****     lv_coord_t y;
  36:..\lvgl\lv_objx\../lv_core/../lv_misc/lv_area.h **** } lv_point_t;
  37:..\lvgl\lv_objx\../lv_core/../lv_misc/lv_area.h **** 
  38:..\lvgl\lv_objx\../lv_core/../lv_misc/lv_area.h **** typedef struct
  39:..\lvgl\lv_objx\../lv_core/../lv_misc/lv_area.h **** {
  40:..\lvgl\lv_objx\../lv_core/../lv_misc/lv_area.h ****     lv_coord_t x1;
  41:..\lvgl\lv_objx\../lv_core/../lv_misc/lv_area.h ****     lv_coord_t y1;
  42:..\lvgl\lv_objx\../lv_core/../lv_misc/lv_area.h ****     lv_coord_t x2;
  43:..\lvgl\lv_objx\../lv_core/../lv_misc/lv_area.h ****     lv_coord_t y2;
  44:..\lvgl\lv_objx\../lv_core/../lv_misc/lv_area.h **** } lv_area_t;
  45:..\lvgl\lv_objx\../lv_core/../lv_misc/lv_area.h **** 
  46:..\lvgl\lv_objx\../lv_core/../lv_misc/lv_area.h **** /**********************
  47:..\lvgl\lv_objx\../lv_core/../lv_misc/lv_area.h ****  * GLOBAL PROTOTYPES
  48:..\lvgl\lv_objx\../lv_core/../lv_misc/lv_area.h ****  **********************/
  49:..\lvgl\lv_objx\../lv_core/../lv_misc/lv_area.h **** 
  50:..\lvgl\lv_objx\../lv_core/../lv_misc/lv_area.h **** /**
  51:..\lvgl\lv_objx\../lv_core/../lv_misc/lv_area.h ****  * Initialize an area
  52:..\lvgl\lv_objx\../lv_core/../lv_misc/lv_area.h ****  * @param area_p pointer to an area
  53:..\lvgl\lv_objx\../lv_core/../lv_misc/lv_area.h ****  * @param x1 left coordinate of the area
  54:..\lvgl\lv_objx\../lv_core/../lv_misc/lv_area.h ****  * @param y1 top coordinate of the area
  55:..\lvgl\lv_objx\../lv_core/../lv_misc/lv_area.h ****  * @param x2 right coordinate of the area
  56:..\lvgl\lv_objx\../lv_core/../lv_misc/lv_area.h ****  * @param y2 bottom coordinate of the area
  57:..\lvgl\lv_objx\../lv_core/../lv_misc/lv_area.h ****  */
  58:..\lvgl\lv_objx\../lv_core/../lv_misc/lv_area.h **** void lv_area_set(lv_area_t * area_p, lv_coord_t x1, lv_coord_t y1, lv_coord_t x2, lv_coord_t y2);
  59:..\lvgl\lv_objx\../lv_core/../lv_misc/lv_area.h **** 
  60:..\lvgl\lv_objx\../lv_core/../lv_misc/lv_area.h **** /**
  61:..\lvgl\lv_objx\../lv_core/../lv_misc/lv_area.h ****  * Copy an area
  62:..\lvgl\lv_objx\../lv_core/../lv_misc/lv_area.h ****  * @param dest pointer to the destination area
  63:..\lvgl\lv_objx\../lv_core/../lv_misc/lv_area.h ****  * @param src pointer to the source area
  64:..\lvgl\lv_objx\../lv_core/../lv_misc/lv_area.h ****  */
  65:..\lvgl\lv_objx\../lv_core/../lv_misc/lv_area.h **** inline static void lv_area_copy(lv_area_t * dest, const lv_area_t * src)
  66:..\lvgl\lv_objx\../lv_core/../lv_misc/lv_area.h **** {
  67:..\lvgl\lv_objx\../lv_core/../lv_misc/lv_area.h ****     memcpy(dest, src, sizeof(lv_area_t));
  68:..\lvgl\lv_objx\../lv_core/../lv_misc/lv_area.h **** }
  69:..\lvgl\lv_objx\../lv_core/../lv_misc/lv_area.h **** 
  70:..\lvgl\lv_objx\../lv_core/../lv_misc/lv_area.h **** /**
  71:..\lvgl\lv_objx\../lv_core/../lv_misc/lv_area.h ****  * Get the width of an area
ARM GAS  C:\Users\d3bug\AppData\Local\Temp\cct3SNM7.s 			page 53


  72:..\lvgl\lv_objx\../lv_core/../lv_misc/lv_area.h ****  * @param area_p pointer to an area
  73:..\lvgl\lv_objx\../lv_core/../lv_misc/lv_area.h ****  * @return the width of the area (if x1 == x2 -> width = 1)
  74:..\lvgl\lv_objx\../lv_core/../lv_misc/lv_area.h ****  */
  75:..\lvgl\lv_objx\../lv_core/../lv_misc/lv_area.h **** static inline lv_coord_t lv_area_get_width(const lv_area_t * area_p)
  76:..\lvgl\lv_objx\../lv_core/../lv_misc/lv_area.h **** {
  77:..\lvgl\lv_objx\../lv_core/../lv_misc/lv_area.h ****     return area_p->x2 - area_p->x1 + 1;
 1582              		.loc 3 77 0
 1583 004c B6F91430 		ldrsh	r3, [r6, #20]
 1584 0050 B6F91020 		ldrsh	r2, [r6, #16]
 1585 0054 9B1A     		subs	r3, r3, r2
 1586 0056 0133     		adds	r3, r3, #1
 1587 0058 1BB2     		sxth	r3, r3
 1588              	.LVL237:
 1589              	.LBE41:
 1590              	.LBE40:
 1591              	.LBB42:
 1592              	.LBB43:
 1593 005a B7F90420 		ldrsh	r2, [r7, #4]
 1594 005e B7F90010 		ldrsh	r1, [r7]
 1595 0062 521A     		subs	r2, r2, r1
 1596 0064 0132     		adds	r2, r2, #1
 1597 0066 12B2     		sxth	r2, r2
 1598              	.LVL238:
 1599              	.LBE43:
 1600              	.LBE42:
 745:..\lvgl\lv_objx/lv_label.c ****                 lv_area_get_height(&label->coords) != lv_area_get_height(param)) {
 1601              		.loc 1 745 0
 1602 0068 9A42     		cmp	r2, r3
 1603 006a 0FD1     		bne	.L114
 1604              	.LVL239:
 1605              	.LBB44:
 1606              	.LBB45:
  78:..\lvgl\lv_objx\../lv_core/../lv_misc/lv_area.h **** }
  79:..\lvgl\lv_objx\../lv_core/../lv_misc/lv_area.h **** 
  80:..\lvgl\lv_objx\../lv_core/../lv_misc/lv_area.h **** /**
  81:..\lvgl\lv_objx\../lv_core/../lv_misc/lv_area.h ****  * Get the height of an area
  82:..\lvgl\lv_objx\../lv_core/../lv_misc/lv_area.h ****  * @param area_p pointer to an area
  83:..\lvgl\lv_objx\../lv_core/../lv_misc/lv_area.h ****  * @return the height of the area (if y1 == y2 -> height = 1)
  84:..\lvgl\lv_objx\../lv_core/../lv_misc/lv_area.h ****  */
  85:..\lvgl\lv_objx\../lv_core/../lv_misc/lv_area.h **** static inline lv_coord_t lv_area_get_height(const lv_area_t * area_p)
  86:..\lvgl\lv_objx\../lv_core/../lv_misc/lv_area.h **** {
  87:..\lvgl\lv_objx\../lv_core/../lv_misc/lv_area.h ****     return area_p->y2 - area_p->y1 + 1;
 1607              		.loc 3 87 0 discriminator 1
 1608 006c B6F91630 		ldrsh	r3, [r6, #22]
 1609 0070 B6F91220 		ldrsh	r2, [r6, #18]
 1610 0074 9B1A     		subs	r3, r3, r2
 1611 0076 0133     		adds	r3, r3, #1
 1612 0078 1BB2     		sxth	r3, r3
 1613              	.LVL240:
 1614              	.LBE45:
 1615              	.LBE44:
 1616              	.LBB46:
 1617              	.LBB47:
 1618 007a B7F90620 		ldrsh	r2, [r7, #6]
 1619 007e B7F90210 		ldrsh	r1, [r7, #2]
 1620 0082 521A     		subs	r2, r2, r1
 1621 0084 0132     		adds	r2, r2, #1
ARM GAS  C:\Users\d3bug\AppData\Local\Temp\cct3SNM7.s 			page 54


 1622 0086 12B2     		sxth	r2, r2
 1623              	.LVL241:
 1624              	.LBE47:
 1625              	.LBE46:
 745:..\lvgl\lv_objx/lv_label.c ****                 lv_area_get_height(&label->coords) != lv_area_get_height(param)) {
 1626              		.loc 1 745 0 discriminator 1
 1627 0088 9A42     		cmp	r2, r3
 1628 008a 2FD0     		beq	.L110
 1629              	.L114:
 747:..\lvgl\lv_objx/lv_label.c ****             lv_label_refr_text(label);
 1630              		.loc 1 747 0
 1631 008c 3046     		mov	r0, r6
 1632              	.LVL242:
 1633 008e FFF7FEFF 		bl	lv_label_revert_dots
 1634              	.LVL243:
 748:..\lvgl\lv_objx/lv_label.c ****         }
 1635              		.loc 1 748 0
 1636 0092 3046     		mov	r0, r6
 1637 0094 FFF7FEFF 		bl	lv_label_refr_text
 1638              	.LVL244:
 1639 0098 28E0     		b	.L110
 1640              	.LVL245:
 1641              	.L113:
 750:..\lvgl\lv_objx/lv_label.c ****         if(ext->body_draw) {
 1642              		.loc 1 750 0
 1643 009a 042D     		cmp	r5, #4
 1644 009c 15D1     		bne	.L115
 751:..\lvgl\lv_objx/lv_label.c ****             lv_style_t * style = lv_label_get_style(label);
 1645              		.loc 1 751 0
 1646 009e 837E     		ldrb	r3, [r0, #26]	@ zero_extendqisi2
 1647 00a0 13F0200F 		tst	r3, #32
 1648 00a4 22D0     		beq	.L110
 1649              	.LVL246:
 1650              	.LBB48:
 1651              	.LBB49:
 1652              	.LBB50:
 1653              		.file 4 "..\\lvgl\\lv_objx\\lv_label.h"
   1:..\lvgl\lv_objx/lv_label.h **** /**
   2:..\lvgl\lv_objx/lv_label.h ****  * @file lv_rect.h
   3:..\lvgl\lv_objx/lv_label.h ****  *
   4:..\lvgl\lv_objx/lv_label.h ****  */
   5:..\lvgl\lv_objx/lv_label.h **** 
   6:..\lvgl\lv_objx/lv_label.h **** #ifndef LV_LABEL_H
   7:..\lvgl\lv_objx/lv_label.h **** #define LV_LABEL_H
   8:..\lvgl\lv_objx/lv_label.h **** 
   9:..\lvgl\lv_objx/lv_label.h **** #ifdef __cplusplus
  10:..\lvgl\lv_objx/lv_label.h **** extern "C" {
  11:..\lvgl\lv_objx/lv_label.h **** #endif
  12:..\lvgl\lv_objx/lv_label.h **** 
  13:..\lvgl\lv_objx/lv_label.h **** /*********************
  14:..\lvgl\lv_objx/lv_label.h ****  *      INCLUDES
  15:..\lvgl\lv_objx/lv_label.h ****  *********************/
  16:..\lvgl\lv_objx/lv_label.h **** #ifdef LV_CONF_INCLUDE_SIMPLE
  17:..\lvgl\lv_objx/lv_label.h **** #include "lv_conf.h"
  18:..\lvgl\lv_objx/lv_label.h **** #else
  19:..\lvgl\lv_objx/lv_label.h **** #include "../../lv_conf.h"
  20:..\lvgl\lv_objx/lv_label.h **** #endif
ARM GAS  C:\Users\d3bug\AppData\Local\Temp\cct3SNM7.s 			page 55


  21:..\lvgl\lv_objx/lv_label.h **** 
  22:..\lvgl\lv_objx/lv_label.h **** #if USE_LV_LABEL != 0
  23:..\lvgl\lv_objx/lv_label.h **** 
  24:..\lvgl\lv_objx/lv_label.h **** #include "../lv_core/lv_obj.h"
  25:..\lvgl\lv_objx/lv_label.h **** #include "../lv_misc/lv_font.h"
  26:..\lvgl\lv_objx/lv_label.h **** #include "../lv_misc/lv_txt.h"
  27:..\lvgl\lv_objx/lv_label.h **** #include "../lv_misc/lv_symbol_def.h"
  28:..\lvgl\lv_objx/lv_label.h **** 
  29:..\lvgl\lv_objx/lv_label.h **** /*********************
  30:..\lvgl\lv_objx/lv_label.h ****  *      DEFINES
  31:..\lvgl\lv_objx/lv_label.h ****  *********************/
  32:..\lvgl\lv_objx/lv_label.h **** #define LV_LABEL_DOT_NUM    3
  33:..\lvgl\lv_objx/lv_label.h **** #define LV_LABEL_POS_LAST   0xFFFF
  34:..\lvgl\lv_objx/lv_label.h **** 
  35:..\lvgl\lv_objx/lv_label.h **** /**********************
  36:..\lvgl\lv_objx/lv_label.h ****  *      TYPEDEFS
  37:..\lvgl\lv_objx/lv_label.h ****  **********************/
  38:..\lvgl\lv_objx/lv_label.h **** 
  39:..\lvgl\lv_objx/lv_label.h **** /*Long mode behaviors. Used in 'lv_label_ext_t' */
  40:..\lvgl\lv_objx/lv_label.h **** enum
  41:..\lvgl\lv_objx/lv_label.h **** {
  42:..\lvgl\lv_objx/lv_label.h ****     LV_LABEL_LONG_EXPAND,   /*Expand the object size to the text size*/
  43:..\lvgl\lv_objx/lv_label.h ****     LV_LABEL_LONG_BREAK,    /*Keep the object width, break the too long lines and expand the object
  44:..\lvgl\lv_objx/lv_label.h ****     LV_LABEL_LONG_SCROLL,   /*Expand the object size and scroll the text on the parent (move the la
  45:..\lvgl\lv_objx/lv_label.h ****     LV_LABEL_LONG_DOT,      /*Keep the size and write dots at the end if the text is too long*/
  46:..\lvgl\lv_objx/lv_label.h ****     LV_LABEL_LONG_ROLL,     /*Keep the size and roll the text infinitely*/
  47:..\lvgl\lv_objx/lv_label.h ****     LV_LABEL_LONG_CROP,     /*Keep the size and crop the text out of it*/
  48:..\lvgl\lv_objx/lv_label.h **** };
  49:..\lvgl\lv_objx/lv_label.h **** typedef uint8_t lv_label_long_mode_t;
  50:..\lvgl\lv_objx/lv_label.h **** 
  51:..\lvgl\lv_objx/lv_label.h **** /*Label align policy*/
  52:..\lvgl\lv_objx/lv_label.h **** enum {
  53:..\lvgl\lv_objx/lv_label.h ****     LV_LABEL_ALIGN_LEFT,
  54:..\lvgl\lv_objx/lv_label.h ****     LV_LABEL_ALIGN_CENTER,
  55:..\lvgl\lv_objx/lv_label.h ****     LV_LABEL_ALIGN_RIGHT,
  56:..\lvgl\lv_objx/lv_label.h **** };
  57:..\lvgl\lv_objx/lv_label.h **** typedef uint8_t lv_label_align_t;
  58:..\lvgl\lv_objx/lv_label.h **** 
  59:..\lvgl\lv_objx/lv_label.h **** /*Data of label*/
  60:..\lvgl\lv_objx/lv_label.h **** typedef struct
  61:..\lvgl\lv_objx/lv_label.h **** {
  62:..\lvgl\lv_objx/lv_label.h ****     /*Inherited from 'base_obj' so no inherited ext.*/  /*Ext. of ancestor*/
  63:..\lvgl\lv_objx/lv_label.h ****     /*New data for this type */
  64:..\lvgl\lv_objx/lv_label.h ****     char * text;                            /*Text of the label*/
  65:..\lvgl\lv_objx/lv_label.h ****     lv_label_long_mode_t long_mode;         /*Determinate what to do with the long texts*/
  66:..\lvgl\lv_objx/lv_label.h **** #if LV_TXT_UTF8 == 0
  67:..\lvgl\lv_objx/lv_label.h ****     char dot_tmp[LV_LABEL_DOT_NUM + 1];     /*Store the character which are replaced by dots (Handl
  68:..\lvgl\lv_objx/lv_label.h **** #else
  69:..\lvgl\lv_objx/lv_label.h ****     char dot_tmp[LV_LABEL_DOT_NUM * 4 + 1]; /*Store the character which are replaced by dots (Handl
  70:..\lvgl\lv_objx/lv_label.h **** #endif
  71:..\lvgl\lv_objx/lv_label.h **** 
  72:..\lvgl\lv_objx/lv_label.h **** #if USE_LV_MULTI_LANG
  73:..\lvgl\lv_objx/lv_label.h ****     uint16_t lang_txt_id;            /*The ID of the text to display*/
  74:..\lvgl\lv_objx/lv_label.h **** #endif
  75:..\lvgl\lv_objx/lv_label.h ****     uint16_t dot_end;               /*The text end position in dot mode (Handled by the library)*/
  76:..\lvgl\lv_objx/lv_label.h ****     uint16_t anim_speed;            /*Speed of scroll and roll animation in px/sec unit*/
  77:..\lvgl\lv_objx/lv_label.h ****     lv_point_t offset;              /*Text draw position offset*/
ARM GAS  C:\Users\d3bug\AppData\Local\Temp\cct3SNM7.s 			page 56


  78:..\lvgl\lv_objx/lv_label.h ****     uint8_t static_txt  :1;         /*Flag to indicate the text is static*/
  79:..\lvgl\lv_objx/lv_label.h ****     uint8_t align       :2;         /*Align type from 'lv_label_align_t'*/
  80:..\lvgl\lv_objx/lv_label.h ****     uint8_t recolor     :1;         /*Enable in-line letter re-coloring*/
  81:..\lvgl\lv_objx/lv_label.h ****     uint8_t expand      :1;         /*Ignore real width (used by the library with LV_LABEL_LONG_ROL
  82:..\lvgl\lv_objx/lv_label.h ****     uint8_t body_draw   :1;         /*Draw background body*/
  83:..\lvgl\lv_objx/lv_label.h **** } lv_label_ext_t;
  84:..\lvgl\lv_objx/lv_label.h **** 
  85:..\lvgl\lv_objx/lv_label.h **** /**********************
  86:..\lvgl\lv_objx/lv_label.h ****  * GLOBAL PROTOTYPES
  87:..\lvgl\lv_objx/lv_label.h ****  **********************/
  88:..\lvgl\lv_objx/lv_label.h **** 
  89:..\lvgl\lv_objx/lv_label.h **** 
  90:..\lvgl\lv_objx/lv_label.h **** /**
  91:..\lvgl\lv_objx/lv_label.h ****  * Create a label objects
  92:..\lvgl\lv_objx/lv_label.h ****  * @param par pointer to an object, it will be the parent of the new label
  93:..\lvgl\lv_objx/lv_label.h ****  * @param copy pointer to a button object, if not NULL then the new object will be copied from it
  94:..\lvgl\lv_objx/lv_label.h ****  * @return pointer to the created button
  95:..\lvgl\lv_objx/lv_label.h ****  */
  96:..\lvgl\lv_objx/lv_label.h **** lv_obj_t * lv_label_create(lv_obj_t * par, const lv_obj_t * copy);
  97:..\lvgl\lv_objx/lv_label.h **** 
  98:..\lvgl\lv_objx/lv_label.h **** /*=====================
  99:..\lvgl\lv_objx/lv_label.h ****  * Setter functions
 100:..\lvgl\lv_objx/lv_label.h ****  *====================*/
 101:..\lvgl\lv_objx/lv_label.h **** 
 102:..\lvgl\lv_objx/lv_label.h **** /**
 103:..\lvgl\lv_objx/lv_label.h ****  * Set a new text for a label. Memory will be allocated to store the text by the label.
 104:..\lvgl\lv_objx/lv_label.h ****  * @param label pointer to a label object
 105:..\lvgl\lv_objx/lv_label.h ****  * @param text '\0' terminated character string. NULL to refresh with the current text.
 106:..\lvgl\lv_objx/lv_label.h ****  */
 107:..\lvgl\lv_objx/lv_label.h **** void lv_label_set_text(lv_obj_t * label, const char * text);
 108:..\lvgl\lv_objx/lv_label.h **** 
 109:..\lvgl\lv_objx/lv_label.h **** /**
 110:..\lvgl\lv_objx/lv_label.h ****  * Set a new text for a label from a character array. The array don't has to be '\0' terminated.
 111:..\lvgl\lv_objx/lv_label.h ****  * Memory will be allocated to store the array by the label.
 112:..\lvgl\lv_objx/lv_label.h ****  * @param label pointer to a label object
 113:..\lvgl\lv_objx/lv_label.h ****  * @param array array of characters or NULL to refresh the label
 114:..\lvgl\lv_objx/lv_label.h ****  * @param size the size of 'array' in bytes
 115:..\lvgl\lv_objx/lv_label.h ****  */
 116:..\lvgl\lv_objx/lv_label.h **** void lv_label_set_array_text(lv_obj_t * label, const char * array, uint16_t size);
 117:..\lvgl\lv_objx/lv_label.h **** 
 118:..\lvgl\lv_objx/lv_label.h **** /**
 119:..\lvgl\lv_objx/lv_label.h ****  * Set a static text. It will not be saved by the label so the 'text' variable
 120:..\lvgl\lv_objx/lv_label.h ****  * has to be 'alive' while the label exist.
 121:..\lvgl\lv_objx/lv_label.h ****  * @param label pointer to a label object
 122:..\lvgl\lv_objx/lv_label.h ****  * @param text pointer to a text. NULL to refresh with the current text.
 123:..\lvgl\lv_objx/lv_label.h ****  */
 124:..\lvgl\lv_objx/lv_label.h **** void lv_label_set_static_text(lv_obj_t * label, const char * text);
 125:..\lvgl\lv_objx/lv_label.h **** 
 126:..\lvgl\lv_objx/lv_label.h **** /**
 127:..\lvgl\lv_objx/lv_label.h ****  *Set a text ID which means a the same text but on different languages
 128:..\lvgl\lv_objx/lv_label.h ****  * @param label pointer to a label object
 129:..\lvgl\lv_objx/lv_label.h ****  * @param txt_id ID of the text
 130:..\lvgl\lv_objx/lv_label.h ****  */
 131:..\lvgl\lv_objx/lv_label.h **** #if USE_LV_MULTI_LANG
 132:..\lvgl\lv_objx/lv_label.h **** void lv_label_set_text_id(lv_obj_t * label, uint32_t txt_id);
 133:..\lvgl\lv_objx/lv_label.h **** #endif
 134:..\lvgl\lv_objx/lv_label.h **** 
ARM GAS  C:\Users\d3bug\AppData\Local\Temp\cct3SNM7.s 			page 57


 135:..\lvgl\lv_objx/lv_label.h **** /**
 136:..\lvgl\lv_objx/lv_label.h ****  * Set the behavior of the label with longer text then the object size
 137:..\lvgl\lv_objx/lv_label.h ****  * @param label pointer to a label object
 138:..\lvgl\lv_objx/lv_label.h ****  * @param long_mode the new mode from 'lv_label_long_mode' enum.
 139:..\lvgl\lv_objx/lv_label.h ****  *                  In LV_LONG_BREAK/LONG/ROLL the size of the label should be set AFTER this funct
 140:..\lvgl\lv_objx/lv_label.h ****  */
 141:..\lvgl\lv_objx/lv_label.h **** void lv_label_set_long_mode(lv_obj_t * label, lv_label_long_mode_t long_mode);
 142:..\lvgl\lv_objx/lv_label.h **** 
 143:..\lvgl\lv_objx/lv_label.h **** /**
 144:..\lvgl\lv_objx/lv_label.h ****  * Set the align of the label (left or center)
 145:..\lvgl\lv_objx/lv_label.h ****  * @param label pointer to a label object
 146:..\lvgl\lv_objx/lv_label.h ****  * @param align 'LV_LABEL_ALIGN_LEFT' or 'LV_LABEL_ALIGN_LEFT'
 147:..\lvgl\lv_objx/lv_label.h ****  */
 148:..\lvgl\lv_objx/lv_label.h **** void lv_label_set_align(lv_obj_t *label, lv_label_align_t align);
 149:..\lvgl\lv_objx/lv_label.h **** 
 150:..\lvgl\lv_objx/lv_label.h **** /**
 151:..\lvgl\lv_objx/lv_label.h ****  * Enable the recoloring by in-line commands
 152:..\lvgl\lv_objx/lv_label.h ****  * @param label pointer to a label object
 153:..\lvgl\lv_objx/lv_label.h ****  * @param en true: enable recoloring, false: disable
 154:..\lvgl\lv_objx/lv_label.h ****  */
 155:..\lvgl\lv_objx/lv_label.h **** void lv_label_set_recolor(lv_obj_t * label, bool en);
 156:..\lvgl\lv_objx/lv_label.h **** 
 157:..\lvgl\lv_objx/lv_label.h **** /**
 158:..\lvgl\lv_objx/lv_label.h ****  * Set the label to draw (or not draw) background specified in its style's body
 159:..\lvgl\lv_objx/lv_label.h ****  * @param label pointer to a label object
 160:..\lvgl\lv_objx/lv_label.h ****  * @param en true: draw body; false: don't draw body
 161:..\lvgl\lv_objx/lv_label.h ****  */
 162:..\lvgl\lv_objx/lv_label.h **** void lv_label_set_body_draw(lv_obj_t *label, bool en);
 163:..\lvgl\lv_objx/lv_label.h **** 
 164:..\lvgl\lv_objx/lv_label.h **** /**
 165:..\lvgl\lv_objx/lv_label.h ****  * Set the label's animation speed in LV_LABEL_LONG_ROLL and SCROLL modes
 166:..\lvgl\lv_objx/lv_label.h ****  * @param label pointer to a label object
 167:..\lvgl\lv_objx/lv_label.h ****  * @param anim_speed speed of animation in px/sec unit
 168:..\lvgl\lv_objx/lv_label.h ****  */
 169:..\lvgl\lv_objx/lv_label.h **** void lv_label_set_anim_speed(lv_obj_t *label, uint16_t anim_speed);
 170:..\lvgl\lv_objx/lv_label.h **** 
 171:..\lvgl\lv_objx/lv_label.h **** /**
 172:..\lvgl\lv_objx/lv_label.h ****  * Set the style of an label
 173:..\lvgl\lv_objx/lv_label.h ****  * @param label pointer to an label object
 174:..\lvgl\lv_objx/lv_label.h ****  * @param style pointer to a style
 175:..\lvgl\lv_objx/lv_label.h ****  */
 176:..\lvgl\lv_objx/lv_label.h **** static inline void lv_label_set_style(lv_obj_t *label, lv_style_t *style)
 177:..\lvgl\lv_objx/lv_label.h **** {
 178:..\lvgl\lv_objx/lv_label.h ****     lv_obj_set_style(label, style);
 179:..\lvgl\lv_objx/lv_label.h **** }
 180:..\lvgl\lv_objx/lv_label.h **** /*=====================
 181:..\lvgl\lv_objx/lv_label.h ****  * Getter functions
 182:..\lvgl\lv_objx/lv_label.h ****  *====================*/
 183:..\lvgl\lv_objx/lv_label.h **** 
 184:..\lvgl\lv_objx/lv_label.h **** /**
 185:..\lvgl\lv_objx/lv_label.h ****  * Get the text of a label
 186:..\lvgl\lv_objx/lv_label.h ****  * @param label pointer to a label object
 187:..\lvgl\lv_objx/lv_label.h ****  * @return the text of the label
 188:..\lvgl\lv_objx/lv_label.h ****  */
 189:..\lvgl\lv_objx/lv_label.h **** char * lv_label_get_text(const lv_obj_t * label);
 190:..\lvgl\lv_objx/lv_label.h **** 
 191:..\lvgl\lv_objx/lv_label.h **** #if USE_LV_MULTI_LANG
ARM GAS  C:\Users\d3bug\AppData\Local\Temp\cct3SNM7.s 			page 58


 192:..\lvgl\lv_objx/lv_label.h **** /**
 193:..\lvgl\lv_objx/lv_label.h ****  * Get the text ID of the label. (Used by the multi-language feature)
 194:..\lvgl\lv_objx/lv_label.h ****  * @param label pointer to a label object
 195:..\lvgl\lv_objx/lv_label.h ****  * @return ID of the text
 196:..\lvgl\lv_objx/lv_label.h ****  */
 197:..\lvgl\lv_objx/lv_label.h **** uint16_t lv_label_get_text_id(lv_obj_t * label);
 198:..\lvgl\lv_objx/lv_label.h **** #endif
 199:..\lvgl\lv_objx/lv_label.h **** 
 200:..\lvgl\lv_objx/lv_label.h **** /**
 201:..\lvgl\lv_objx/lv_label.h ****  * Get the long mode of a label
 202:..\lvgl\lv_objx/lv_label.h ****  * @param label pointer to a label object
 203:..\lvgl\lv_objx/lv_label.h ****  * @return the long mode
 204:..\lvgl\lv_objx/lv_label.h ****  */
 205:..\lvgl\lv_objx/lv_label.h **** lv_label_long_mode_t lv_label_get_long_mode(const lv_obj_t * label);
 206:..\lvgl\lv_objx/lv_label.h **** 
 207:..\lvgl\lv_objx/lv_label.h **** /**
 208:..\lvgl\lv_objx/lv_label.h ****  * Get the align attribute
 209:..\lvgl\lv_objx/lv_label.h ****  * @param label pointer to a label object
 210:..\lvgl\lv_objx/lv_label.h ****  * @return LV_LABEL_ALIGN_LEFT or LV_LABEL_ALIGN_CENTER
 211:..\lvgl\lv_objx/lv_label.h ****  */
 212:..\lvgl\lv_objx/lv_label.h **** lv_label_align_t lv_label_get_align(const lv_obj_t * label);
 213:..\lvgl\lv_objx/lv_label.h **** 
 214:..\lvgl\lv_objx/lv_label.h **** /**
 215:..\lvgl\lv_objx/lv_label.h ****  * Get the recoloring attribute
 216:..\lvgl\lv_objx/lv_label.h ****  * @param label pointer to a label object
 217:..\lvgl\lv_objx/lv_label.h ****  * @return true: recoloring is enabled, false: disable
 218:..\lvgl\lv_objx/lv_label.h ****  */
 219:..\lvgl\lv_objx/lv_label.h **** bool lv_label_get_recolor(const lv_obj_t * label);
 220:..\lvgl\lv_objx/lv_label.h **** 
 221:..\lvgl\lv_objx/lv_label.h **** /**
 222:..\lvgl\lv_objx/lv_label.h ****  * Get the body draw attribute
 223:..\lvgl\lv_objx/lv_label.h ****  * @param label pointer to a label object
 224:..\lvgl\lv_objx/lv_label.h ****  * @return true: draw body; false: don't draw body
 225:..\lvgl\lv_objx/lv_label.h ****  */
 226:..\lvgl\lv_objx/lv_label.h **** bool lv_label_get_body_draw(const lv_obj_t *label);
 227:..\lvgl\lv_objx/lv_label.h **** 
 228:..\lvgl\lv_objx/lv_label.h **** /**
 229:..\lvgl\lv_objx/lv_label.h ****  * Get the label's animation speed in LV_LABEL_LONG_ROLL and SCROLL modes
 230:..\lvgl\lv_objx/lv_label.h ****  * @param label pointer to a label object
 231:..\lvgl\lv_objx/lv_label.h ****  * @return speed of animation in px/sec unit
 232:..\lvgl\lv_objx/lv_label.h ****  */
 233:..\lvgl\lv_objx/lv_label.h **** uint16_t lv_label_get_anim_speed(const lv_obj_t *label);
 234:..\lvgl\lv_objx/lv_label.h **** 
 235:..\lvgl\lv_objx/lv_label.h **** /**
 236:..\lvgl\lv_objx/lv_label.h ****  * Get the relative x and y coordinates of a letter
 237:..\lvgl\lv_objx/lv_label.h ****  * @param label pointer to a label object
 238:..\lvgl\lv_objx/lv_label.h ****  * @param index index of the letter [0 ... text length]. Expressed in character index, not byte ind
 239:..\lvgl\lv_objx/lv_label.h ****  * @param pos store the result here (E.g. index = 0 gives 0;0 coordinates)
 240:..\lvgl\lv_objx/lv_label.h ****  */
 241:..\lvgl\lv_objx/lv_label.h **** void lv_label_get_letter_pos(const lv_obj_t * label, uint16_t index, lv_point_t * pos);
 242:..\lvgl\lv_objx/lv_label.h **** 
 243:..\lvgl\lv_objx/lv_label.h **** /**
 244:..\lvgl\lv_objx/lv_label.h ****  * Get the index of letter on a relative point of a label
 245:..\lvgl\lv_objx/lv_label.h ****  * @param label pointer to label object
 246:..\lvgl\lv_objx/lv_label.h ****  * @param pos pointer to point with coordinates on a the label
 247:..\lvgl\lv_objx/lv_label.h ****  * @return the index of the letter on the 'pos_p' point (E.g. on 0;0 is the 0. letter)
 248:..\lvgl\lv_objx/lv_label.h ****  * Expressed in character index and not byte index (different in UTF-8)
ARM GAS  C:\Users\d3bug\AppData\Local\Temp\cct3SNM7.s 			page 59


 249:..\lvgl\lv_objx/lv_label.h ****  */
 250:..\lvgl\lv_objx/lv_label.h **** uint16_t lv_label_get_letter_on(const lv_obj_t * label, lv_point_t * pos);
 251:..\lvgl\lv_objx/lv_label.h **** 
 252:..\lvgl\lv_objx/lv_label.h **** /**
 253:..\lvgl\lv_objx/lv_label.h ****  * Get the style of an label object
 254:..\lvgl\lv_objx/lv_label.h ****  * @param label pointer to an label object
 255:..\lvgl\lv_objx/lv_label.h ****  * @return pointer to the label's style
 256:..\lvgl\lv_objx/lv_label.h ****  */
 257:..\lvgl\lv_objx/lv_label.h **** static inline lv_style_t* lv_label_get_style(const lv_obj_t *label)
 258:..\lvgl\lv_objx/lv_label.h **** {
 259:..\lvgl\lv_objx/lv_label.h ****     return lv_obj_get_style(label);
 1654              		.loc 4 259 0
 1655 00a6 3046     		mov	r0, r6
 1656              	.LVL247:
 1657 00a8 FFF7FEFF 		bl	lv_obj_get_style
 1658              	.LVL248:
 1659              	.LBE50:
 1660              	.LBE49:
 753:..\lvgl\lv_objx/lv_label.c ****             label->ext_size = LV_MATH_MAX(label->ext_size, style->body.padding.ver);
 1661              		.loc 1 753 0
 1662 00ac B0F91620 		ldrsh	r2, [r0, #22]
 1663 00b0 B6F93030 		ldrsh	r3, [r6, #48]
 1664 00b4 9342     		cmp	r3, r2
 1665 00b6 B8BF     		it	lt
 1666 00b8 1346     		movlt	r3, r2
 1667 00ba 3386     		strh	r3, [r6, #48]	@ movhi
 754:..\lvgl\lv_objx/lv_label.c ****         }
 1668              		.loc 1 754 0
 1669 00bc B0F91420 		ldrsh	r2, [r0, #20]
 1670 00c0 9342     		cmp	r3, r2
 1671 00c2 B8BF     		it	lt
 1672 00c4 1346     		movlt	r3, r2
 1673 00c6 3386     		strh	r3, [r6, #48]	@ movhi
 1674 00c8 10E0     		b	.L110
 1675              	.LVL249:
 1676              	.L115:
 1677              	.LBE48:
 756:..\lvgl\lv_objx/lv_label.c **** #if USE_LV_MULTI_LANG
 1678              		.loc 1 756 0
 1679 00ca 052D     		cmp	r5, #5
 1680 00cc 0ED0     		beq	.L110
 767:..\lvgl\lv_objx/lv_label.c ****         lv_obj_type_t * buf = param;
 1681              		.loc 1 767 0
 1682 00ce 062D     		cmp	r5, #6
 1683 00d0 0CD1     		bne	.L110
 1684 00d2 05E0     		b	.L119
 1685              	.LVL250:
 1686              	.L118:
 1687              	.LBB51:
 771:..\lvgl\lv_objx/lv_label.c ****         }
 1688              		.loc 1 771 0
 1689 00d4 57F82320 		ldr	r2, [r7, r3, lsl #2]
 1690 00d8 2AB1     		cbz	r2, .L117
 770:..\lvgl\lv_objx/lv_label.c ****             if(buf->type[i] == NULL) break;
 1691              		.loc 1 770 0 discriminator 2
 1692 00da 0133     		adds	r3, r3, #1
 1693              	.LVL251:
ARM GAS  C:\Users\d3bug\AppData\Local\Temp\cct3SNM7.s 			page 60


 1694 00dc DBB2     		uxtb	r3, r3
 1695              	.LVL252:
 1696 00de 00E0     		b	.L116
 1697              	.LVL253:
 1698              	.L119:
 1699              	.LBE51:
 1700 00e0 0023     		movs	r3, #0
 1701              	.L116:
 1702              	.LVL254:
 1703              	.LBB52:
 770:..\lvgl\lv_objx/lv_label.c ****             if(buf->type[i] == NULL) break;
 1704              		.loc 1 770 0 is_stmt 0 discriminator 1
 1705 00e2 062B     		cmp	r3, #6
 1706 00e4 F6D9     		bls	.L118
 1707              	.L117:
 773:..\lvgl\lv_objx/lv_label.c ****     }
 1708              		.loc 1 773 0 is_stmt 1
 1709 00e6 044A     		ldr	r2, .L121+4
 1710 00e8 47F82320 		str	r2, [r7, r3, lsl #2]
 1711              	.LVL255:
 1712              	.L110:
 1713              	.LBE52:
 777:..\lvgl\lv_objx/lv_label.c **** 
 1714              		.loc 1 777 0
 1715 00ec 2046     		mov	r0, r4
 1716 00ee BDE8F081 		pop	{r4, r5, r6, r7, r8, pc}
 1717              	.LVL256:
 1718              	.L122:
 1719 00f2 00BF     		.align	2
 1720              	.L121:
 1721 00f4 00000000 		.word	.LANCHOR0
 1722 00f8 00000000 		.word	.LC0
 1723              		.cfi_endproc
 1724              	.LFE34:
 1725              		.size	lv_label_signal, .-lv_label_signal
 1726              		.section	.text.lv_label_set_text,"ax",%progbits
 1727              		.align	2
 1728              		.global	lv_label_set_text
 1729              		.thumb
 1730              		.thumb_func
 1731              		.type	lv_label_set_text, %function
 1732              	lv_label_set_text:
 1733              	.LFB15:
 148:..\lvgl\lv_objx/lv_label.c ****     lv_obj_invalidate(label);
 1734              		.loc 1 148 0
 1735              		.cfi_startproc
 1736              		@ args = 0, pretend = 0, frame = 0
 1737              		@ frame_needed = 0, uses_anonymous_args = 0
 1738              	.LVL257:
 1739 0000 2DE9F041 		push	{r4, r5, r6, r7, r8, lr}
 1740              		.cfi_def_cfa_offset 24
 1741              		.cfi_offset 4, -24
 1742              		.cfi_offset 5, -20
 1743              		.cfi_offset 6, -16
 1744              		.cfi_offset 7, -12
 1745              		.cfi_offset 8, -8
 1746              		.cfi_offset 14, -4
ARM GAS  C:\Users\d3bug\AppData\Local\Temp\cct3SNM7.s 			page 61


 1747 0004 0746     		mov	r7, r0
 1748 0006 0E46     		mov	r6, r1
 149:..\lvgl\lv_objx/lv_label.c **** 
 1749              		.loc 1 149 0
 1750 0008 FFF7FEFF 		bl	lv_obj_invalidate
 1751              	.LVL258:
 151:..\lvgl\lv_objx/lv_label.c **** 
 1752              		.loc 1 151 0
 1753 000c 3846     		mov	r0, r7
 1754 000e FFF7FEFF 		bl	lv_obj_get_ext_attr
 1755              	.LVL259:
 154:..\lvgl\lv_objx/lv_label.c ****         lv_label_refr_text(label);
 1756              		.loc 1 154 0
 1757 0012 26B9     		cbnz	r6, .L124
 155:..\lvgl\lv_objx/lv_label.c ****         return;
 1758              		.loc 1 155 0
 1759 0014 3846     		mov	r0, r7
 1760              	.LVL260:
 1761 0016 FFF7FEFF 		bl	lv_label_refr_text
 1762              	.LVL261:
 156:..\lvgl\lv_objx/lv_label.c ****     }
 1763              		.loc 1 156 0
 1764 001a BDE8F081 		pop	{r4, r5, r6, r7, r8, pc}
 1765              	.LVL262:
 1766              	.L124:
 1767 001e 0446     		mov	r4, r0
 159:..\lvgl\lv_objx/lv_label.c ****         /*If set its own text then reallocate it (maybe its size changed)*/
 1768              		.loc 1 159 0
 1769 0020 0568     		ldr	r5, [r0]
 1770 0022 AE42     		cmp	r6, r5
 1771 0024 12D1     		bne	.L126
 161:..\lvgl\lv_objx/lv_label.c ****         lv_mem_assert(ext->text);
 1772              		.loc 1 161 0
 1773 0026 2846     		mov	r0, r5
 1774              	.LVL263:
 1775 0028 FFF7FEFF 		bl	strlen
 1776              	.LVL264:
 1777 002c 411C     		adds	r1, r0, #1
 1778 002e 2846     		mov	r0, r5
 1779 0030 FFF7FEFF 		bl	lv_mem_realloc
 1780              	.LVL265:
 1781 0034 2060     		str	r0, [r4]
 162:..\lvgl\lv_objx/lv_label.c ****         if(ext->text == NULL) return;
 1782              		.loc 1 162 0
 1783 0036 30B9     		cbnz	r0, .L127
 162:..\lvgl\lv_objx/lv_label.c ****         if(ext->text == NULL) return;
 1784              		.loc 1 162 0 is_stmt 0 discriminator 1
 1785 0038 184B     		ldr	r3, .L134
 1786 003a A222     		movs	r2, #162
 1787 003c 1849     		ldr	r1, .L134+4
 1788 003e 0320     		movs	r0, #3
 1789 0040 FFF7FEFF 		bl	lv_log_add
 1790              	.LVL266:
 1791              	.L128:
 1792 0044 FEE7     		b	.L128
 1793              	.L127:
 163:..\lvgl\lv_objx/lv_label.c ****     } else {
ARM GAS  C:\Users\d3bug\AppData\Local\Temp\cct3SNM7.s 			page 62


 1794              		.loc 1 163 0 is_stmt 1
 1795 0046 20BB     		cbnz	r0, .L129
 1796 0048 BDE8F081 		pop	{r4, r5, r6, r7, r8, pc}
 1797              	.LVL267:
 1798              	.L126:
 1799              	.LBB53:
 166:..\lvgl\lv_objx/lv_label.c ****         if(ext->text != NULL && ext->static_txt == 0) {
 1800              		.loc 1 166 0
 1801 004c 3046     		mov	r0, r6
 1802              	.LVL268:
 1803 004e FFF7FEFF 		bl	strlen
 1804              	.LVL269:
 1805 0052 00F10108 		add	r8, r0, #1
 1806              	.LVL270:
 167:..\lvgl\lv_objx/lv_label.c ****             lv_mem_free(ext->text);
 1807              		.loc 1 167 0
 1808 0056 45B1     		cbz	r5, .L130
 167:..\lvgl\lv_objx/lv_label.c ****             lv_mem_free(ext->text);
 1809              		.loc 1 167 0 is_stmt 0 discriminator 1
 1810 0058 A37E     		ldrb	r3, [r4, #26]	@ zero_extendqisi2
 1811 005a 13F0010F 		tst	r3, #1
 1812 005e 04D1     		bne	.L130
 168:..\lvgl\lv_objx/lv_label.c ****             ext->text = NULL;
 1813              		.loc 1 168 0 is_stmt 1
 1814 0060 2846     		mov	r0, r5
 1815 0062 FFF7FEFF 		bl	lv_mem_free
 1816              	.LVL271:
 169:..\lvgl\lv_objx/lv_label.c ****         }
 1817              		.loc 1 169 0
 1818 0066 0023     		movs	r3, #0
 1819 0068 2360     		str	r3, [r4]
 1820              	.L130:
 172:..\lvgl\lv_objx/lv_label.c ****         lv_mem_assert(ext->text);
 1821              		.loc 1 172 0
 1822 006a 4046     		mov	r0, r8
 1823 006c FFF7FEFF 		bl	lv_mem_alloc
 1824              	.LVL272:
 1825 0070 2060     		str	r0, [r4]
 173:..\lvgl\lv_objx/lv_label.c ****         if(ext->text == NULL) return;
 1826              		.loc 1 173 0
 1827 0072 30B9     		cbnz	r0, .L131
 173:..\lvgl\lv_objx/lv_label.c ****         if(ext->text == NULL) return;
 1828              		.loc 1 173 0 is_stmt 0 discriminator 1
 1829 0074 094B     		ldr	r3, .L134
 1830 0076 AD22     		movs	r2, #173
 1831 0078 0949     		ldr	r1, .L134+4
 1832 007a 0320     		movs	r0, #3
 1833 007c FFF7FEFF 		bl	lv_log_add
 1834              	.LVL273:
 1835              	.L132:
 1836 0080 FEE7     		b	.L132
 1837              	.L131:
 174:..\lvgl\lv_objx/lv_label.c **** 
 1838              		.loc 1 174 0 is_stmt 1
 1839 0082 48B1     		cbz	r0, .L123
 176:..\lvgl\lv_objx/lv_label.c ****         ext->static_txt = 0;    /*Now the text is dynamically allocated*/
 1840              		.loc 1 176 0
ARM GAS  C:\Users\d3bug\AppData\Local\Temp\cct3SNM7.s 			page 63


 1841 0084 3146     		mov	r1, r6
 1842 0086 FFF7FEFF 		bl	strcpy
 1843              	.LVL274:
 177:..\lvgl\lv_objx/lv_label.c ****     }
 1844              		.loc 1 177 0
 1845 008a A37E     		ldrb	r3, [r4, #26]	@ zero_extendqisi2
 1846 008c 6FF30003 		bfc	r3, #0, #1
 1847 0090 A376     		strb	r3, [r4, #26]
 1848              	.LVL275:
 1849              	.L129:
 1850              	.LBE53:
 180:..\lvgl\lv_objx/lv_label.c **** }
 1851              		.loc 1 180 0
 1852 0092 3846     		mov	r0, r7
 1853 0094 FFF7FEFF 		bl	lv_label_refr_text
 1854              	.LVL276:
 1855              	.L123:
 1856 0098 BDE8F081 		pop	{r4, r5, r6, r7, r8, pc}
 1857              	.LVL277:
 1858              	.L135:
 1859              		.align	2
 1860              	.L134:
 1861 009c 0C000000 		.word	.LC1
 1862 00a0 1C000000 		.word	.LC2
 1863              		.cfi_endproc
 1864              	.LFE15:
 1865              		.size	lv_label_set_text, .-lv_label_set_text
 1866              		.section	.text.lv_label_set_array_text,"ax",%progbits
 1867              		.align	2
 1868              		.global	lv_label_set_array_text
 1869              		.thumb
 1870              		.thumb_func
 1871              		.type	lv_label_set_array_text, %function
 1872              	lv_label_set_array_text:
 1873              	.LFB16:
 191:..\lvgl\lv_objx/lv_label.c ****     lv_obj_invalidate(label);
 1874              		.loc 1 191 0
 1875              		.cfi_startproc
 1876              		@ args = 0, pretend = 0, frame = 0
 1877              		@ frame_needed = 0, uses_anonymous_args = 0
 1878              	.LVL278:
 1879 0000 F8B5     		push	{r3, r4, r5, r6, r7, lr}
 1880              		.cfi_def_cfa_offset 24
 1881              		.cfi_offset 3, -24
 1882              		.cfi_offset 4, -20
 1883              		.cfi_offset 5, -16
 1884              		.cfi_offset 6, -12
 1885              		.cfi_offset 7, -8
 1886              		.cfi_offset 14, -4
 1887 0002 0546     		mov	r5, r0
 1888 0004 0F46     		mov	r7, r1
 1889 0006 1646     		mov	r6, r2
 192:..\lvgl\lv_objx/lv_label.c **** 
 1890              		.loc 1 192 0
 1891 0008 FFF7FEFF 		bl	lv_obj_invalidate
 1892              	.LVL279:
 194:..\lvgl\lv_objx/lv_label.c **** 
ARM GAS  C:\Users\d3bug\AppData\Local\Temp\cct3SNM7.s 			page 64


 1893              		.loc 1 194 0
 1894 000c 2846     		mov	r0, r5
 1895 000e FFF7FEFF 		bl	lv_obj_get_ext_attr
 1896              	.LVL280:
 1897 0012 0446     		mov	r4, r0
 1898              	.LVL281:
 197:..\lvgl\lv_objx/lv_label.c ****         lv_label_refr_text(label);
 1899              		.loc 1 197 0
 1900 0014 0068     		ldr	r0, [r0]
 1901              	.LVL282:
 1902 0016 B842     		cmp	r0, r7
 1903 0018 00D0     		beq	.L137
 197:..\lvgl\lv_objx/lv_label.c ****         lv_label_refr_text(label);
 1904              		.loc 1 197 0 is_stmt 0 discriminator 1
 1905 001a 1FB9     		cbnz	r7, .L138
 1906              	.L137:
 198:..\lvgl\lv_objx/lv_label.c ****         return;
 1907              		.loc 1 198 0 is_stmt 1
 1908 001c 2846     		mov	r0, r5
 1909 001e FFF7FEFF 		bl	lv_label_refr_text
 1910              	.LVL283:
 199:..\lvgl\lv_objx/lv_label.c ****     }
 1911              		.loc 1 199 0
 1912 0022 F8BD     		pop	{r3, r4, r5, r6, r7, pc}
 1913              	.LVL284:
 1914              	.L138:
 203:..\lvgl\lv_objx/lv_label.c ****         lv_mem_free(ext->text);
 1915              		.loc 1 203 0
 1916 0024 38B1     		cbz	r0, .L140
 203:..\lvgl\lv_objx/lv_label.c ****         lv_mem_free(ext->text);
 1917              		.loc 1 203 0 is_stmt 0 discriminator 1
 1918 0026 A37E     		ldrb	r3, [r4, #26]	@ zero_extendqisi2
 1919 0028 13F0010F 		tst	r3, #1
 1920 002c 03D1     		bne	.L140
 204:..\lvgl\lv_objx/lv_label.c ****         ext->text = NULL;
 1921              		.loc 1 204 0 is_stmt 1
 1922 002e FFF7FEFF 		bl	lv_mem_free
 1923              	.LVL285:
 205:..\lvgl\lv_objx/lv_label.c ****     }
 1924              		.loc 1 205 0
 1925 0032 0023     		movs	r3, #0
 1926 0034 2360     		str	r3, [r4]
 1927              	.L140:
 207:..\lvgl\lv_objx/lv_label.c ****     lv_mem_assert(ext->text);
 1928              		.loc 1 207 0
 1929 0036 701C     		adds	r0, r6, #1
 1930 0038 FFF7FEFF 		bl	lv_mem_alloc
 1931              	.LVL286:
 1932 003c 2060     		str	r0, [r4]
 208:..\lvgl\lv_objx/lv_label.c ****     if(ext->text == NULL) return;
 1933              		.loc 1 208 0
 1934 003e 30B9     		cbnz	r0, .L141
 208:..\lvgl\lv_objx/lv_label.c ****     if(ext->text == NULL) return;
 1935              		.loc 1 208 0 is_stmt 0 discriminator 1
 1936 0040 0B4B     		ldr	r3, .L144
 1937 0042 D022     		movs	r2, #208
 1938 0044 0B49     		ldr	r1, .L144+4
ARM GAS  C:\Users\d3bug\AppData\Local\Temp\cct3SNM7.s 			page 65


 1939 0046 0320     		movs	r0, #3
 1940 0048 FFF7FEFF 		bl	lv_log_add
 1941              	.LVL287:
 1942              	.L142:
 1943 004c FEE7     		b	.L142
 1944              	.L141:
 209:..\lvgl\lv_objx/lv_label.c **** 
 1945              		.loc 1 209 0 is_stmt 1
 1946 004e 68B1     		cbz	r0, .L136
 211:..\lvgl\lv_objx/lv_label.c ****     ext->text[size] = '\0';
 1947              		.loc 1 211 0
 1948 0050 3246     		mov	r2, r6
 1949 0052 3946     		mov	r1, r7
 1950 0054 FFF7FEFF 		bl	memcpy
 1951              	.LVL288:
 212:..\lvgl\lv_objx/lv_label.c ****     ext->static_txt = 0;    /*Now the text is dynamically allocated*/
 1952              		.loc 1 212 0
 1953 0058 2368     		ldr	r3, [r4]
 1954 005a 0022     		movs	r2, #0
 1955 005c 9A55     		strb	r2, [r3, r6]
 213:..\lvgl\lv_objx/lv_label.c **** 
 1956              		.loc 1 213 0
 1957 005e A37E     		ldrb	r3, [r4, #26]	@ zero_extendqisi2
 1958 0060 62F30003 		bfi	r3, r2, #0, #1
 1959 0064 A376     		strb	r3, [r4, #26]
 215:..\lvgl\lv_objx/lv_label.c **** }
 1960              		.loc 1 215 0
 1961 0066 2846     		mov	r0, r5
 1962 0068 FFF7FEFF 		bl	lv_label_refr_text
 1963              	.LVL289:
 1964              	.L136:
 1965 006c F8BD     		pop	{r3, r4, r5, r6, r7, pc}
 1966              	.LVL290:
 1967              	.L145:
 1968 006e 00BF     		.align	2
 1969              	.L144:
 1970 0070 0C000000 		.word	.LC1
 1971 0074 1C000000 		.word	.LC2
 1972              		.cfi_endproc
 1973              	.LFE16:
 1974              		.size	lv_label_set_array_text, .-lv_label_set_array_text
 1975              		.section	.text.lv_label_set_static_text,"ax",%progbits
 1976              		.align	2
 1977              		.global	lv_label_set_static_text
 1978              		.thumb
 1979              		.thumb_func
 1980              		.type	lv_label_set_static_text, %function
 1981              	lv_label_set_static_text:
 1982              	.LFB17:
 225:..\lvgl\lv_objx/lv_label.c ****     lv_label_ext_t * ext = lv_obj_get_ext_attr(label);
 1983              		.loc 1 225 0
 1984              		.cfi_startproc
 1985              		@ args = 0, pretend = 0, frame = 0
 1986              		@ frame_needed = 0, uses_anonymous_args = 0
 1987              	.LVL291:
 1988 0000 70B5     		push	{r4, r5, r6, lr}
 1989              		.cfi_def_cfa_offset 16
ARM GAS  C:\Users\d3bug\AppData\Local\Temp\cct3SNM7.s 			page 66


 1990              		.cfi_offset 4, -16
 1991              		.cfi_offset 5, -12
 1992              		.cfi_offset 6, -8
 1993              		.cfi_offset 14, -4
 1994 0002 0646     		mov	r6, r0
 1995 0004 0D46     		mov	r5, r1
 226:..\lvgl\lv_objx/lv_label.c ****     if(ext->static_txt == 0 && ext->text != NULL) {
 1996              		.loc 1 226 0
 1997 0006 FFF7FEFF 		bl	lv_obj_get_ext_attr
 1998              	.LVL292:
 1999 000a 0446     		mov	r4, r0
 2000              	.LVL293:
 227:..\lvgl\lv_objx/lv_label.c ****         lv_mem_free(ext->text);
 2001              		.loc 1 227 0
 2002 000c 837E     		ldrb	r3, [r0, #26]	@ zero_extendqisi2
 2003 000e 13F0010F 		tst	r3, #1
 2004 0012 05D1     		bne	.L147
 227:..\lvgl\lv_objx/lv_label.c ****         lv_mem_free(ext->text);
 2005              		.loc 1 227 0 is_stmt 0 discriminator 1
 2006 0014 0068     		ldr	r0, [r0]
 2007              	.LVL294:
 2008 0016 18B1     		cbz	r0, .L147
 228:..\lvgl\lv_objx/lv_label.c ****         ext->text = NULL;
 2009              		.loc 1 228 0 is_stmt 1
 2010 0018 FFF7FEFF 		bl	lv_mem_free
 2011              	.LVL295:
 229:..\lvgl\lv_objx/lv_label.c ****     }
 2012              		.loc 1 229 0
 2013 001c 0023     		movs	r3, #0
 2014 001e 2360     		str	r3, [r4]
 2015              	.L147:
 232:..\lvgl\lv_objx/lv_label.c ****         ext->static_txt = 1;
 2016              		.loc 1 232 0
 2017 0020 25B1     		cbz	r5, .L148
 233:..\lvgl\lv_objx/lv_label.c ****         ext->text = (char *) text;
 2018              		.loc 1 233 0
 2019 0022 A37E     		ldrb	r3, [r4, #26]	@ zero_extendqisi2
 2020 0024 43F00103 		orr	r3, r3, #1
 2021 0028 A376     		strb	r3, [r4, #26]
 234:..\lvgl\lv_objx/lv_label.c ****     }
 2022              		.loc 1 234 0
 2023 002a 2560     		str	r5, [r4]
 2024              	.L148:
 237:..\lvgl\lv_objx/lv_label.c **** }
 2025              		.loc 1 237 0
 2026 002c 3046     		mov	r0, r6
 2027 002e FFF7FEFF 		bl	lv_label_refr_text
 2028              	.LVL296:
 2029 0032 70BD     		pop	{r4, r5, r6, pc}
 2030              		.cfi_endproc
 2031              	.LFE17:
 2032              		.size	lv_label_set_static_text, .-lv_label_set_static_text
 2033              		.section	.text.lv_label_set_long_mode,"ax",%progbits
 2034              		.align	2
 2035              		.global	lv_label_set_long_mode
 2036              		.thumb
 2037              		.thumb_func
ARM GAS  C:\Users\d3bug\AppData\Local\Temp\cct3SNM7.s 			page 67


 2038              		.type	lv_label_set_long_mode, %function
 2039              	lv_label_set_long_mode:
 2040              	.LFB18:
 263:..\lvgl\lv_objx/lv_label.c ****     lv_label_ext_t * ext = lv_obj_get_ext_attr(label);
 2041              		.loc 1 263 0
 2042              		.cfi_startproc
 2043              		@ args = 0, pretend = 0, frame = 0
 2044              		@ frame_needed = 0, uses_anonymous_args = 0
 2045              	.LVL297:
 2046 0000 70B5     		push	{r4, r5, r6, lr}
 2047              		.cfi_def_cfa_offset 16
 2048              		.cfi_offset 4, -16
 2049              		.cfi_offset 5, -12
 2050              		.cfi_offset 6, -8
 2051              		.cfi_offset 14, -4
 2052 0002 0646     		mov	r6, r0
 2053 0004 0D46     		mov	r5, r1
 264:..\lvgl\lv_objx/lv_label.c **** 
 2054              		.loc 1 264 0
 2055 0006 FFF7FEFF 		bl	lv_obj_get_ext_attr
 2056              	.LVL298:
 2057 000a 0446     		mov	r4, r0
 2058              	.LVL299:
 273:..\lvgl\lv_objx/lv_label.c ****     ext->offset.y = 0;
 2059              		.loc 1 273 0
 2060 000c 0023     		movs	r3, #0
 2061 000e C382     		strh	r3, [r0, #22]	@ movhi
 274:..\lvgl\lv_objx/lv_label.c **** 
 2062              		.loc 1 274 0
 2063 0010 0383     		strh	r3, [r0, #24]	@ movhi
 276:..\lvgl\lv_objx/lv_label.c ****     else ext->expand = 0;
 2064              		.loc 1 276 0
 2065 0012 2B1F     		subs	r3, r5, #4
 2066 0014 DBB2     		uxtb	r3, r3
 2067 0016 012B     		cmp	r3, #1
 2068 0018 04D8     		bhi	.L151
 276:..\lvgl\lv_objx/lv_label.c ****     else ext->expand = 0;
 2069              		.loc 1 276 0 is_stmt 0 discriminator 1
 2070 001a 837E     		ldrb	r3, [r0, #26]	@ zero_extendqisi2
 2071 001c 43F01003 		orr	r3, r3, #16
 2072 0020 8376     		strb	r3, [r0, #26]
 2073 0022 03E0     		b	.L152
 2074              	.L151:
 277:..\lvgl\lv_objx/lv_label.c **** 
 2075              		.loc 1 277 0 is_stmt 1
 2076 0024 837E     		ldrb	r3, [r0, #26]	@ zero_extendqisi2
 2077 0026 6FF30413 		bfc	r3, #4, #1
 2078 002a 8376     		strb	r3, [r0, #26]
 2079              	.L152:
 280:..\lvgl\lv_objx/lv_label.c ****         lv_label_revert_dots(label);
 2080              		.loc 1 280 0
 2081 002c 2379     		ldrb	r3, [r4, #4]	@ zero_extendqisi2
 2082 002e 032B     		cmp	r3, #3
 2083 0030 07D1     		bne	.L153
 280:..\lvgl\lv_objx/lv_label.c ****         lv_label_revert_dots(label);
 2084              		.loc 1 280 0 is_stmt 0 discriminator 1
 2085 0032 628A     		ldrh	r2, [r4, #18]
ARM GAS  C:\Users\d3bug\AppData\Local\Temp\cct3SNM7.s 			page 68


 2086 0034 4FF6FF73 		movw	r3, #65535
 2087 0038 9A42     		cmp	r2, r3
 2088 003a 02D0     		beq	.L153
 281:..\lvgl\lv_objx/lv_label.c ****     }
 2089              		.loc 1 281 0 is_stmt 1
 2090 003c 3046     		mov	r0, r6
 2091              	.LVL300:
 2092 003e FFF7FEFF 		bl	lv_label_revert_dots
 2093              	.LVL301:
 2094              	.L153:
 284:..\lvgl\lv_objx/lv_label.c ****     lv_label_refr_text(label);
 2095              		.loc 1 284 0
 2096 0042 2571     		strb	r5, [r4, #4]
 285:..\lvgl\lv_objx/lv_label.c **** }
 2097              		.loc 1 285 0
 2098 0044 3046     		mov	r0, r6
 2099 0046 FFF7FEFF 		bl	lv_label_refr_text
 2100              	.LVL302:
 2101 004a 70BD     		pop	{r4, r5, r6, pc}
 2102              		.cfi_endproc
 2103              	.LFE18:
 2104              		.size	lv_label_set_long_mode, .-lv_label_set_long_mode
 2105              		.section	.text.lv_label_set_recolor,"ax",%progbits
 2106              		.align	2
 2107              		.global	lv_label_set_recolor
 2108              		.thumb
 2109              		.thumb_func
 2110              		.type	lv_label_set_recolor, %function
 2111              	lv_label_set_recolor:
 2112              	.LFB20:
 309:..\lvgl\lv_objx/lv_label.c ****     lv_label_ext_t * ext = lv_obj_get_ext_attr(label);
 2113              		.loc 1 309 0
 2114              		.cfi_startproc
 2115              		@ args = 0, pretend = 0, frame = 0
 2116              		@ frame_needed = 0, uses_anonymous_args = 0
 2117              	.LVL303:
 2118 0000 38B5     		push	{r3, r4, r5, lr}
 2119              		.cfi_def_cfa_offset 16
 2120              		.cfi_offset 3, -16
 2121              		.cfi_offset 4, -12
 2122              		.cfi_offset 5, -8
 2123              		.cfi_offset 14, -4
 2124 0002 0546     		mov	r5, r0
 2125 0004 0C46     		mov	r4, r1
 310:..\lvgl\lv_objx/lv_label.c ****     if(ext->recolor == en) return;
 2126              		.loc 1 310 0
 2127 0006 FFF7FEFF 		bl	lv_obj_get_ext_attr
 2128              	.LVL304:
 311:..\lvgl\lv_objx/lv_label.c **** 
 2129              		.loc 1 311 0
 2130 000a 837E     		ldrb	r3, [r0, #26]	@ zero_extendqisi2
 2131 000c C3F3C003 		ubfx	r3, r3, #3, #1
 2132 0010 A342     		cmp	r3, r4
 2133 0012 0AD0     		beq	.L155
 313:..\lvgl\lv_objx/lv_label.c **** 
 2134              		.loc 1 313 0
 2135 0014 0CB9     		cbnz	r4, .L158
ARM GAS  C:\Users\d3bug\AppData\Local\Temp\cct3SNM7.s 			page 69


 2136 0016 0022     		movs	r2, #0
 2137 0018 00E0     		b	.L157
 2138              	.L158:
 2139 001a 0122     		movs	r2, #1
 2140              	.L157:
 313:..\lvgl\lv_objx/lv_label.c **** 
 2141              		.loc 1 313 0 is_stmt 0 discriminator 4
 2142 001c 837E     		ldrb	r3, [r0, #26]	@ zero_extendqisi2
 2143 001e 62F3C303 		bfi	r3, r2, #3, #1
 2144 0022 8376     		strb	r3, [r0, #26]
 315:..\lvgl\lv_objx/lv_label.c **** }
 2145              		.loc 1 315 0 is_stmt 1 discriminator 4
 2146 0024 2846     		mov	r0, r5
 2147              	.LVL305:
 2148 0026 FFF7FEFF 		bl	lv_label_refr_text
 2149              	.LVL306:
 2150              	.L155:
 2151 002a 38BD     		pop	{r3, r4, r5, pc}
 2152              		.cfi_endproc
 2153              	.LFE20:
 2154              		.size	lv_label_set_recolor, .-lv_label_set_recolor
 2155              		.section	.text.lv_label_create,"ax",%progbits
 2156              		.align	2
 2157              		.global	lv_label_create
 2158              		.thumb
 2159              		.thumb_func
 2160              		.type	lv_label_create, %function
 2161              	lv_label_create:
 2162              	.LFB14:
  67:..\lvgl\lv_objx/lv_label.c ****     LV_LOG_TRACE("label create started");
 2163              		.loc 1 67 0
 2164              		.cfi_startproc
 2165              		@ args = 0, pretend = 0, frame = 0
 2166              		@ frame_needed = 0, uses_anonymous_args = 0
 2167              	.LVL307:
 2168 0000 2DE9F041 		push	{r4, r5, r6, r7, r8, lr}
 2169              		.cfi_def_cfa_offset 24
 2170              		.cfi_offset 4, -24
 2171              		.cfi_offset 5, -20
 2172              		.cfi_offset 6, -16
 2173              		.cfi_offset 7, -12
 2174              		.cfi_offset 8, -8
 2175              		.cfi_offset 14, -4
 2176 0004 0446     		mov	r4, r0
 2177 0006 0E46     		mov	r6, r1
  68:..\lvgl\lv_objx/lv_label.c **** 
 2178              		.loc 1 68 0
 2179 0008 684B     		ldr	r3, .L178
 2180 000a 4422     		movs	r2, #68
 2181 000c 6849     		ldr	r1, .L178+4
 2182              	.LVL308:
 2183 000e 0020     		movs	r0, #0
 2184              	.LVL309:
 2185 0010 FFF7FEFF 		bl	lv_log_add
 2186              	.LVL310:
  71:..\lvgl\lv_objx/lv_label.c ****     lv_mem_assert(new_label);
 2187              		.loc 1 71 0
ARM GAS  C:\Users\d3bug\AppData\Local\Temp\cct3SNM7.s 			page 70


 2188 0014 3146     		mov	r1, r6
 2189 0016 2046     		mov	r0, r4
 2190 0018 FFF7FEFF 		bl	lv_obj_create
 2191              	.LVL311:
  72:..\lvgl\lv_objx/lv_label.c ****     if(new_label == NULL) return NULL;
 2192              		.loc 1 72 0
 2193 001c 30B9     		cbnz	r0, .L161
  72:..\lvgl\lv_objx/lv_label.c ****     if(new_label == NULL) return NULL;
 2194              		.loc 1 72 0 is_stmt 0 discriminator 1
 2195 001e 654B     		ldr	r3, .L178+8
 2196 0020 4822     		movs	r2, #72
 2197 0022 6349     		ldr	r1, .L178+4
 2198 0024 0320     		movs	r0, #3
 2199              	.LVL312:
 2200 0026 FFF7FEFF 		bl	lv_log_add
 2201              	.LVL313:
 2202              	.L162:
 2203 002a FEE7     		b	.L162
 2204              	.LVL314:
 2205              	.L161:
 2206 002c 0446     		mov	r4, r0
 2207              	.LVL315:
  73:..\lvgl\lv_objx/lv_label.c **** 
 2208              		.loc 1 73 0 is_stmt 1
 2209 002e 0028     		cmp	r0, #0
 2210 0030 00F0B280 		beq	.L174
  75:..\lvgl\lv_objx/lv_label.c **** 
 2211              		.loc 1 75 0
 2212 0034 604B     		ldr	r3, .L178+12
 2213 0036 1B68     		ldr	r3, [r3]
 2214 0038 1BB9     		cbnz	r3, .L164
  75:..\lvgl\lv_objx/lv_label.c **** 
 2215              		.loc 1 75 0 is_stmt 0 discriminator 1
 2216 003a FFF7FEFF 		bl	lv_obj_get_signal_func
 2217              	.LVL316:
 2218 003e 5E4B     		ldr	r3, .L178+12
 2219 0040 1860     		str	r0, [r3]
 2220              	.L164:
  78:..\lvgl\lv_objx/lv_label.c **** 
 2221              		.loc 1 78 0 is_stmt 1
 2222 0042 1C21     		movs	r1, #28
 2223 0044 2046     		mov	r0, r4
 2224 0046 FFF7FEFF 		bl	lv_obj_allocate_ext_attr
 2225              	.LVL317:
  80:..\lvgl\lv_objx/lv_label.c ****     lv_mem_assert(ext);
 2226              		.loc 1 80 0
 2227 004a 2046     		mov	r0, r4
 2228 004c FFF7FEFF 		bl	lv_obj_get_ext_attr
 2229              	.LVL318:
  81:..\lvgl\lv_objx/lv_label.c ****     if(ext == NULL) return NULL;
 2230              		.loc 1 81 0
 2231 0050 0546     		mov	r5, r0
 2232 0052 30B9     		cbnz	r0, .L165
  81:..\lvgl\lv_objx/lv_label.c ****     if(ext == NULL) return NULL;
 2233              		.loc 1 81 0 is_stmt 0 discriminator 1
 2234 0054 574B     		ldr	r3, .L178+8
 2235 0056 5122     		movs	r2, #81
ARM GAS  C:\Users\d3bug\AppData\Local\Temp\cct3SNM7.s 			page 71


 2236 0058 5549     		ldr	r1, .L178+4
 2237 005a 0320     		movs	r0, #3
 2238              	.LVL319:
 2239 005c FFF7FEFF 		bl	lv_log_add
 2240              	.LVL320:
 2241              	.L166:
 2242 0060 FEE7     		b	.L166
 2243              	.LVL321:
 2244              	.L165:
  82:..\lvgl\lv_objx/lv_label.c **** 
 2245              		.loc 1 82 0 is_stmt 1
 2246 0062 0028     		cmp	r0, #0
 2247 0064 00F09B80 		beq	.L175
  84:..\lvgl\lv_objx/lv_label.c ****     ext->static_txt = 0;
 2248              		.loc 1 84 0
 2249 0068 0023     		movs	r3, #0
 2250 006a 0360     		str	r3, [r0]
  85:..\lvgl\lv_objx/lv_label.c ****     ext->recolor = 0;
 2251              		.loc 1 85 0
 2252 006c 827E     		ldrb	r2, [r0, #26]	@ zero_extendqisi2
  88:..\lvgl\lv_objx/lv_label.c ****     ext->dot_end = LV_LABEL_DOT_END_INV;
 2253              		.loc 1 88 0
 2254 006e 02F0D602 		and	r2, r2, #214
 2255 0072 63F34202 		bfi	r2, r3, #1, #2
 2256 0076 8276     		strb	r2, [r0, #26]
  89:..\lvgl\lv_objx/lv_label.c ****     ext->long_mode = LV_LABEL_LONG_EXPAND;
 2257              		.loc 1 89 0
 2258 0078 4FF6FF72 		movw	r2, #65535
 2259 007c 4282     		strh	r2, [r0, #18]	@ movhi
  90:..\lvgl\lv_objx/lv_label.c ****     ext->anim_speed = LV_LABEL_SCROLL_SPEED;
 2260              		.loc 1 90 0
 2261 007e 0371     		strb	r3, [r0, #4]
  91:..\lvgl\lv_objx/lv_label.c ****     ext->offset.x = 0;
 2262              		.loc 1 91 0
 2263 0080 1922     		movs	r2, #25
 2264 0082 8282     		strh	r2, [r0, #20]	@ movhi
  92:..\lvgl\lv_objx/lv_label.c ****     ext->offset.y = 0;
 2265              		.loc 1 92 0
 2266 0084 C382     		strh	r3, [r0, #22]	@ movhi
  93:..\lvgl\lv_objx/lv_label.c **** #if USE_LV_MULTI_LANG
 2267              		.loc 1 93 0
 2268 0086 0383     		strh	r3, [r0, #24]	@ movhi
  97:..\lvgl\lv_objx/lv_label.c ****     lv_obj_set_signal_func(new_label, lv_label_signal);
 2269              		.loc 1 97 0
 2270 0088 4C49     		ldr	r1, .L178+16
 2271 008a 2046     		mov	r0, r4
 2272              	.LVL322:
 2273 008c FFF7FEFF 		bl	lv_obj_set_design_func
 2274              	.LVL323:
  98:..\lvgl\lv_objx/lv_label.c **** 
 2275              		.loc 1 98 0
 2276 0090 4B49     		ldr	r1, .L178+20
 2277 0092 2046     		mov	r0, r4
 2278 0094 FFF7FEFF 		bl	lv_obj_set_signal_func
 2279              	.LVL324:
 101:..\lvgl\lv_objx/lv_label.c ****         lv_obj_set_click(new_label, false);
 2280              		.loc 1 101 0
ARM GAS  C:\Users\d3bug\AppData\Local\Temp\cct3SNM7.s 			page 72


 2281 0098 86B9     		cbnz	r6, .L167
 102:..\lvgl\lv_objx/lv_label.c ****         lv_label_set_long_mode(new_label, LV_LABEL_LONG_EXPAND);
 2282              		.loc 1 102 0
 2283 009a 0021     		movs	r1, #0
 2284 009c 2046     		mov	r0, r4
 2285 009e FFF7FEFF 		bl	lv_obj_set_click
 2286              	.LVL325:
 103:..\lvgl\lv_objx/lv_label.c ****         lv_label_set_text(new_label, "Text");
 2287              		.loc 1 103 0
 2288 00a2 0021     		movs	r1, #0
 2289 00a4 2046     		mov	r0, r4
 2290 00a6 FFF7FEFF 		bl	lv_label_set_long_mode
 2291              	.LVL326:
 104:..\lvgl\lv_objx/lv_label.c ****         lv_label_set_style(new_label, NULL);        /*Inherit parent's style*/
 2292              		.loc 1 104 0
 2293 00aa 4649     		ldr	r1, .L178+24
 2294 00ac 2046     		mov	r0, r4
 2295 00ae FFF7FEFF 		bl	lv_label_set_text
 2296              	.LVL327:
 2297              	.LBB54:
 2298              	.LBB55:
 178:..\lvgl\lv_objx/lv_label.h **** }
 2299              		.loc 4 178 0
 2300 00b2 0021     		movs	r1, #0
 2301 00b4 2046     		mov	r0, r4
 2302 00b6 FFF7FEFF 		bl	lv_obj_set_style
 2303              	.LVL328:
 2304 00ba 64E0     		b	.L168
 2305              	.LVL329:
 2306              	.L167:
 2307              	.LBE55:
 2308              	.LBE54:
 2309              	.LBB56:
 109:..\lvgl\lv_objx/lv_label.c ****         lv_label_set_long_mode(new_label, lv_label_get_long_mode(copy));
 2310              		.loc 1 109 0
 2311 00bc 3046     		mov	r0, r6
 2312 00be FFF7FEFF 		bl	lv_obj_get_ext_attr
 2313              	.LVL330:
 2314 00c2 0746     		mov	r7, r0
 2315              	.LVL331:
 110:..\lvgl\lv_objx/lv_label.c ****         lv_label_set_recolor(new_label, lv_label_get_recolor(copy));
 2316              		.loc 1 110 0
 2317 00c4 3046     		mov	r0, r6
 2318              	.LVL332:
 2319 00c6 FFF7FEFF 		bl	lv_label_get_long_mode
 2320              	.LVL333:
 2321 00ca 0146     		mov	r1, r0
 2322 00cc 2046     		mov	r0, r4
 2323 00ce FFF7FEFF 		bl	lv_label_set_long_mode
 2324              	.LVL334:
 111:..\lvgl\lv_objx/lv_label.c ****         lv_label_set_body_draw(new_label, lv_label_get_body_draw(copy));
 2325              		.loc 1 111 0
 2326 00d2 3046     		mov	r0, r6
 2327 00d4 FFF7FEFF 		bl	lv_label_get_recolor
 2328              	.LVL335:
 2329 00d8 0146     		mov	r1, r0
 2330 00da 2046     		mov	r0, r4
ARM GAS  C:\Users\d3bug\AppData\Local\Temp\cct3SNM7.s 			page 73


 2331 00dc FFF7FEFF 		bl	lv_label_set_recolor
 2332              	.LVL336:
 112:..\lvgl\lv_objx/lv_label.c ****         lv_label_set_align(new_label, lv_label_get_align(copy));
 2333              		.loc 1 112 0
 2334 00e0 3046     		mov	r0, r6
 2335 00e2 FFF7FEFF 		bl	lv_label_get_body_draw
 2336              	.LVL337:
 2337 00e6 0146     		mov	r1, r0
 2338 00e8 2046     		mov	r0, r4
 2339 00ea FFF7FEFF 		bl	lv_label_set_body_draw
 2340              	.LVL338:
 113:..\lvgl\lv_objx/lv_label.c ****         if(copy_ext->static_txt == 0) lv_label_set_text(new_label, lv_label_get_text(copy));
 2341              		.loc 1 113 0
 2342 00ee 3046     		mov	r0, r6
 2343 00f0 FFF7FEFF 		bl	lv_label_get_align
 2344              	.LVL339:
 2345 00f4 0146     		mov	r1, r0
 2346 00f6 2046     		mov	r0, r4
 2347 00f8 FFF7FEFF 		bl	lv_label_set_align
 2348              	.LVL340:
 114:..\lvgl\lv_objx/lv_label.c ****         else lv_label_set_static_text(new_label, lv_label_get_text(copy));
 2349              		.loc 1 114 0
 2350 00fc BB7E     		ldrb	r3, [r7, #26]	@ zero_extendqisi2
 2351 00fe 13F0010F 		tst	r3, #1
 2352 0102 07D1     		bne	.L169
 114:..\lvgl\lv_objx/lv_label.c ****         else lv_label_set_static_text(new_label, lv_label_get_text(copy));
 2353              		.loc 1 114 0 is_stmt 0 discriminator 1
 2354 0104 3046     		mov	r0, r6
 2355 0106 FFF7FEFF 		bl	lv_label_get_text
 2356              	.LVL341:
 2357 010a 0146     		mov	r1, r0
 2358 010c 2046     		mov	r0, r4
 2359 010e FFF7FEFF 		bl	lv_label_set_text
 2360              	.LVL342:
 2361 0112 06E0     		b	.L170
 2362              	.L169:
 115:..\lvgl\lv_objx/lv_label.c **** 
 2363              		.loc 1 115 0 is_stmt 1
 2364 0114 3046     		mov	r0, r6
 2365 0116 FFF7FEFF 		bl	lv_label_get_text
 2366              	.LVL343:
 2367 011a 0146     		mov	r1, r0
 2368 011c 2046     		mov	r0, r4
 2369 011e FFF7FEFF 		bl	lv_label_set_static_text
 2370              	.LVL344:
 2371              	.L170:
 118:..\lvgl\lv_objx/lv_label.c ****             ext->text = lv_mem_realloc(ext->text, lv_mem_get_size(copy_ext->text));
 2372              		.loc 1 118 0
 2373 0122 3B79     		ldrb	r3, [r7, #4]	@ zero_extendqisi2
 2374 0124 032B     		cmp	r3, #3
 2375 0126 1CD1     		bne	.L171
 119:..\lvgl\lv_objx/lv_label.c ****             lv_mem_assert(ext->text);
 2376              		.loc 1 119 0
 2377 0128 2E68     		ldr	r6, [r5]
 2378              	.LVL345:
 2379 012a 3868     		ldr	r0, [r7]
 2380 012c FFF7FEFF 		bl	lv_mem_get_size
ARM GAS  C:\Users\d3bug\AppData\Local\Temp\cct3SNM7.s 			page 74


 2381              	.LVL346:
 2382 0130 0146     		mov	r1, r0
 2383 0132 3046     		mov	r0, r6
 2384 0134 FFF7FEFF 		bl	lv_mem_realloc
 2385              	.LVL347:
 2386 0138 0646     		mov	r6, r0
 2387 013a 2860     		str	r0, [r5]
 120:..\lvgl\lv_objx/lv_label.c ****             if(ext->text == NULL) return NULL;
 2388              		.loc 1 120 0
 2389 013c 30B9     		cbnz	r0, .L172
 120:..\lvgl\lv_objx/lv_label.c ****             if(ext->text == NULL) return NULL;
 2390              		.loc 1 120 0 is_stmt 0 discriminator 1
 2391 013e 1D4B     		ldr	r3, .L178+8
 2392 0140 7822     		movs	r2, #120
 2393 0142 1B49     		ldr	r1, .L178+4
 2394 0144 0320     		movs	r0, #3
 2395 0146 FFF7FEFF 		bl	lv_log_add
 2396              	.LVL348:
 2397              	.L173:
 2398 014a FEE7     		b	.L173
 2399              	.L172:
 121:..\lvgl\lv_objx/lv_label.c ****             memcpy(ext->text, copy_ext->text, lv_mem_get_size(copy_ext->text));
 2400              		.loc 1 121 0 is_stmt 1
 2401 014c 50B3     		cbz	r0, .L176
 122:..\lvgl\lv_objx/lv_label.c ****         }
 2402              		.loc 1 122 0
 2403 014e D7F80080 		ldr	r8, [r7]
 2404 0152 4046     		mov	r0, r8
 2405 0154 FFF7FEFF 		bl	lv_mem_get_size
 2406              	.LVL349:
 2407 0158 0246     		mov	r2, r0
 2408 015a 4146     		mov	r1, r8
 2409 015c 3046     		mov	r0, r6
 2410 015e FFF7FEFF 		bl	memcpy
 2411              	.LVL350:
 2412              	.L171:
 125:..\lvgl\lv_objx/lv_label.c ****         ext->dot_end = copy_ext->dot_end;
 2413              		.loc 1 125 0
 2414 0162 3B46     		mov	r3, r7
 2415 0164 53F8056F 		ldr	r6, [r3, #5]!	@ unaligned
 2416 0168 5868     		ldr	r0, [r3, #4]	@ unaligned
 2417 016a 9968     		ldr	r1, [r3, #8]	@ unaligned
 2418 016c C5F80560 		str	r6, [r5, #5]	@ unaligned
 2419 0170 C5F80900 		str	r0, [r5, #9]	@ unaligned
 2420 0174 C5F80D10 		str	r1, [r5, #13]	@ unaligned
 2421 0178 1B7B     		ldrb	r3, [r3, #12]	@ zero_extendqisi2
 2422 017a 6B74     		strb	r3, [r5, #17]
 126:..\lvgl\lv_objx/lv_label.c **** 
 2423              		.loc 1 126 0
 2424 017c 7B8A     		ldrh	r3, [r7, #18]
 2425 017e 6B82     		strh	r3, [r5, #18]	@ movhi
 129:..\lvgl\lv_objx/lv_label.c ****     }
 2426              		.loc 1 129 0
 2427 0180 2046     		mov	r0, r4
 2428 0182 FFF7FEFF 		bl	lv_obj_refresh_style
 2429              	.LVL351:
 2430              	.L168:
ARM GAS  C:\Users\d3bug\AppData\Local\Temp\cct3SNM7.s 			page 75


 2431              	.LBE56:
 133:..\lvgl\lv_objx/lv_label.c **** 
 2432              		.loc 1 133 0
 2433 0186 104B     		ldr	r3, .L178+28
 2434 0188 8522     		movs	r2, #133
 2435 018a 0949     		ldr	r1, .L178+4
 2436 018c 0120     		movs	r0, #1
 2437 018e FFF7FEFF 		bl	lv_log_add
 2438              	.LVL352:
 135:..\lvgl\lv_objx/lv_label.c **** }
 2439              		.loc 1 135 0
 2440 0192 2046     		mov	r0, r4
 2441 0194 BDE8F081 		pop	{r4, r5, r6, r7, r8, pc}
 2442              	.LVL353:
 2443              	.L174:
  73:..\lvgl\lv_objx/lv_label.c **** 
 2444              		.loc 1 73 0
 2445 0198 0020     		movs	r0, #0
 2446              	.LVL354:
 2447 019a BDE8F081 		pop	{r4, r5, r6, r7, r8, pc}
 2448              	.LVL355:
 2449              	.L175:
  82:..\lvgl\lv_objx/lv_label.c **** 
 2450              		.loc 1 82 0
 2451 019e 0020     		movs	r0, #0
 2452              	.LVL356:
 2453 01a0 BDE8F081 		pop	{r4, r5, r6, r7, r8, pc}
 2454              	.LVL357:
 2455              	.L176:
 2456              	.LBB57:
 121:..\lvgl\lv_objx/lv_label.c ****             memcpy(ext->text, copy_ext->text, lv_mem_get_size(copy_ext->text));
 2457              		.loc 1 121 0
 2458 01a4 0020     		movs	r0, #0
 2459              	.LBE57:
 136:..\lvgl\lv_objx/lv_label.c **** 
 2460              		.loc 1 136 0
 2461 01a6 BDE8F081 		pop	{r4, r5, r6, r7, r8, pc}
 2462              	.LVL358:
 2463              	.L179:
 2464 01aa 00BF     		.align	2
 2465              	.L178:
 2466 01ac 38000000 		.word	.LC3
 2467 01b0 1C000000 		.word	.LC2
 2468 01b4 0C000000 		.word	.LC1
 2469 01b8 00000000 		.word	.LANCHOR0
 2470 01bc 00000000 		.word	lv_label_design
 2471 01c0 00000000 		.word	lv_label_signal
 2472 01c4 50000000 		.word	.LC4
 2473 01c8 58000000 		.word	.LC5
 2474              		.cfi_endproc
 2475              	.LFE14:
 2476              		.size	lv_label_create, .-lv_label_create
 2477              		.section	.text.lv_label_set_anim_speed,"ax",%progbits
 2478              		.align	2
 2479              		.global	lv_label_set_anim_speed
 2480              		.thumb
 2481              		.thumb_func
ARM GAS  C:\Users\d3bug\AppData\Local\Temp\cct3SNM7.s 			page 76


 2482              		.type	lv_label_set_anim_speed, %function
 2483              	lv_label_set_anim_speed:
 2484              	.LFB22:
 341:..\lvgl\lv_objx/lv_label.c ****     lv_label_ext_t * ext = lv_obj_get_ext_attr(label);
 2485              		.loc 1 341 0
 2486              		.cfi_startproc
 2487              		@ args = 0, pretend = 0, frame = 0
 2488              		@ frame_needed = 0, uses_anonymous_args = 0
 2489              	.LVL359:
 2490 0000 38B5     		push	{r3, r4, r5, lr}
 2491              		.cfi_def_cfa_offset 16
 2492              		.cfi_offset 3, -16
 2493              		.cfi_offset 4, -12
 2494              		.cfi_offset 5, -8
 2495              		.cfi_offset 14, -4
 2496 0002 0546     		mov	r5, r0
 2497 0004 0C46     		mov	r4, r1
 342:..\lvgl\lv_objx/lv_label.c ****     if(ext->anim_speed == anim_speed) return;
 2498              		.loc 1 342 0
 2499 0006 FFF7FEFF 		bl	lv_obj_get_ext_attr
 2500              	.LVL360:
 343:..\lvgl\lv_objx/lv_label.c **** 
 2501              		.loc 1 343 0
 2502 000a 838A     		ldrh	r3, [r0, #20]
 2503 000c A342     		cmp	r3, r4
 2504 000e 08D0     		beq	.L180
 345:..\lvgl\lv_objx/lv_label.c **** 
 2505              		.loc 1 345 0
 2506 0010 8482     		strh	r4, [r0, #20]	@ movhi
 347:..\lvgl\lv_objx/lv_label.c ****         lv_label_refr_text(label);
 2507              		.loc 1 347 0
 2508 0012 0379     		ldrb	r3, [r0, #4]	@ zero_extendqisi2
 2509 0014 042B     		cmp	r3, #4
 2510 0016 01D0     		beq	.L182
 347:..\lvgl\lv_objx/lv_label.c ****         lv_label_refr_text(label);
 2511              		.loc 1 347 0 is_stmt 0 discriminator 1
 2512 0018 022B     		cmp	r3, #2
 2513 001a 02D1     		bne	.L180
 2514              	.L182:
 348:..\lvgl\lv_objx/lv_label.c ****     }
 2515              		.loc 1 348 0 is_stmt 1
 2516 001c 2846     		mov	r0, r5
 2517              	.LVL361:
 2518 001e FFF7FEFF 		bl	lv_label_refr_text
 2519              	.LVL362:
 2520              	.L180:
 2521 0022 38BD     		pop	{r3, r4, r5, pc}
 2522              		.cfi_endproc
 2523              	.LFE22:
 2524              		.size	lv_label_set_anim_speed, .-lv_label_set_anim_speed
 2525              		.section	.text.lv_label_ins_text,"ax",%progbits
 2526              		.align	2
 2527              		.global	lv_label_ins_text
 2528              		.thumb
 2529              		.thumb_func
 2530              		.type	lv_label_ins_text, %function
 2531              	lv_label_ins_text:
ARM GAS  C:\Users\d3bug\AppData\Local\Temp\cct3SNM7.s 			page 77


 2532              	.LFB31:
 593:..\lvgl\lv_objx/lv_label.c ****     lv_label_ext_t * ext = lv_obj_get_ext_attr(label);
 2533              		.loc 1 593 0
 2534              		.cfi_startproc
 2535              		@ args = 0, pretend = 0, frame = 0
 2536              		@ frame_needed = 0, uses_anonymous_args = 0
 2537              	.LVL363:
 2538 0000 2DE9F843 		push	{r3, r4, r5, r6, r7, r8, r9, lr}
 2539              		.cfi_def_cfa_offset 32
 2540              		.cfi_offset 3, -32
 2541              		.cfi_offset 4, -28
 2542              		.cfi_offset 5, -24
 2543              		.cfi_offset 6, -20
 2544              		.cfi_offset 7, -16
 2545              		.cfi_offset 8, -12
 2546              		.cfi_offset 9, -8
 2547              		.cfi_offset 14, -4
 2548 0004 0646     		mov	r6, r0
 2549 0006 0D46     		mov	r5, r1
 2550 0008 1746     		mov	r7, r2
 594:..\lvgl\lv_objx/lv_label.c **** 
 2551              		.loc 1 594 0
 2552 000a FFF7FEFF 		bl	lv_obj_get_ext_attr
 2553              	.LVL364:
 597:..\lvgl\lv_objx/lv_label.c **** 
 2554              		.loc 1 597 0
 2555 000e 837E     		ldrb	r3, [r0, #26]	@ zero_extendqisi2
 2556 0010 13F0010F 		tst	r3, #1
 2557 0014 2DD1     		bne	.L184
 2558 0016 0446     		mov	r4, r0
 599:..\lvgl\lv_objx/lv_label.c **** 
 2559              		.loc 1 599 0
 2560 0018 3046     		mov	r0, r6
 2561              	.LVL365:
 2562 001a FFF7FEFF 		bl	lv_obj_invalidate
 2563              	.LVL366:
 602:..\lvgl\lv_objx/lv_label.c ****     uint32_t ins_len = strlen(txt);
 2564              		.loc 1 602 0
 2565 001e D4F80090 		ldr	r9, [r4]
 2566 0022 4846     		mov	r0, r9
 2567 0024 FFF7FEFF 		bl	strlen
 2568              	.LVL367:
 2569 0028 8046     		mov	r8, r0
 2570              	.LVL368:
 603:..\lvgl\lv_objx/lv_label.c ****     uint32_t new_len = ins_len + old_len;
 2571              		.loc 1 603 0
 2572 002a 3846     		mov	r0, r7
 2573              	.LVL369:
 2574 002c FFF7FEFF 		bl	strlen
 2575              	.LVL370:
 604:..\lvgl\lv_objx/lv_label.c ****     ext->text = lv_mem_realloc(ext->text, new_len + 1);
 2576              		.loc 1 604 0
 2577 0030 08EB0001 		add	r1, r8, r0
 2578              	.LVL371:
 605:..\lvgl\lv_objx/lv_label.c ****     lv_mem_assert(ext->text);
 2579              		.loc 1 605 0
 2580 0034 0131     		adds	r1, r1, #1
ARM GAS  C:\Users\d3bug\AppData\Local\Temp\cct3SNM7.s 			page 78


 2581              	.LVL372:
 2582 0036 4846     		mov	r0, r9
 2583              	.LVL373:
 2584 0038 FFF7FEFF 		bl	lv_mem_realloc
 2585              	.LVL374:
 2586 003c 2060     		str	r0, [r4]
 606:..\lvgl\lv_objx/lv_label.c ****     if(ext->text == NULL) return;
 2587              		.loc 1 606 0
 2588 003e 38B9     		cbnz	r0, .L186
 606:..\lvgl\lv_objx/lv_label.c ****     if(ext->text == NULL) return;
 2589              		.loc 1 606 0 is_stmt 0 discriminator 1
 2590 0040 0D4B     		ldr	r3, .L190
 2591 0042 40F25E22 		movw	r2, #606
 2592 0046 0D49     		ldr	r1, .L190+4
 2593 0048 0320     		movs	r0, #3
 2594 004a FFF7FEFF 		bl	lv_log_add
 2595              	.LVL375:
 2596              	.L187:
 2597 004e FEE7     		b	.L187
 2598              	.L186:
 607:..\lvgl\lv_objx/lv_label.c **** 
 2599              		.loc 1 607 0 is_stmt 1
 2600 0050 78B1     		cbz	r0, .L184
 609:..\lvgl\lv_objx/lv_label.c **** #if LV_TXT_UTF8 == 0
 2601              		.loc 1 609 0
 2602 0052 4FF6FF73 		movw	r3, #65535
 2603 0056 9D42     		cmp	r5, r3
 2604 0058 03D1     		bne	.L188
 613:..\lvgl\lv_objx/lv_label.c **** #endif
 2605              		.loc 1 613 0
 2606 005a 094B     		ldr	r3, .L190+8
 2607 005c 1B68     		ldr	r3, [r3]
 2608 005e 9847     		blx	r3
 2609              	.LVL376:
 2610 0060 0546     		mov	r5, r0
 2611              	.LVL377:
 2612              	.L188:
 617:..\lvgl\lv_objx/lv_label.c **** 
 2613              		.loc 1 617 0
 2614 0062 3A46     		mov	r2, r7
 2615 0064 2946     		mov	r1, r5
 2616 0066 2068     		ldr	r0, [r4]
 2617 0068 FFF7FEFF 		bl	lv_txt_ins
 2618              	.LVL378:
 619:..\lvgl\lv_objx/lv_label.c **** }
 2619              		.loc 1 619 0
 2620 006c 3046     		mov	r0, r6
 2621 006e FFF7FEFF 		bl	lv_label_refr_text
 2622              	.LVL379:
 2623              	.L184:
 2624 0072 BDE8F883 		pop	{r3, r4, r5, r6, r7, r8, r9, pc}
 2625              	.LVL380:
 2626              	.L191:
 2627 0076 00BF     		.align	2
 2628              	.L190:
 2629 0078 0C000000 		.word	.LC1
 2630 007c 1C000000 		.word	.LC2
ARM GAS  C:\Users\d3bug\AppData\Local\Temp\cct3SNM7.s 			page 79


 2631 0080 00000000 		.word	lv_txt_get_encoded_length
 2632              		.cfi_endproc
 2633              	.LFE31:
 2634              		.size	lv_label_ins_text, .-lv_label_ins_text
 2635              		.section	.text.lv_label_cut_text,"ax",%progbits
 2636              		.align	2
 2637              		.global	lv_label_cut_text
 2638              		.thumb
 2639              		.thumb_func
 2640              		.type	lv_label_cut_text, %function
 2641              	lv_label_cut_text:
 2642              	.LFB32:
 630:..\lvgl\lv_objx/lv_label.c ****     lv_label_ext_t * ext = lv_obj_get_ext_attr(label);
 2643              		.loc 1 630 0
 2644              		.cfi_startproc
 2645              		@ args = 0, pretend = 0, frame = 0
 2646              		@ frame_needed = 0, uses_anonymous_args = 0
 2647              	.LVL381:
 2648 0000 70B5     		push	{r4, r5, r6, lr}
 2649              		.cfi_def_cfa_offset 16
 2650              		.cfi_offset 4, -16
 2651              		.cfi_offset 5, -12
 2652              		.cfi_offset 6, -8
 2653              		.cfi_offset 14, -4
 2654 0002 0446     		mov	r4, r0
 2655 0004 0D46     		mov	r5, r1
 2656 0006 1646     		mov	r6, r2
 631:..\lvgl\lv_objx/lv_label.c **** 
 2657              		.loc 1 631 0
 2658 0008 FFF7FEFF 		bl	lv_obj_get_ext_attr
 2659              	.LVL382:
 634:..\lvgl\lv_objx/lv_label.c **** 
 2660              		.loc 1 634 0
 2661 000c 837E     		ldrb	r3, [r0, #26]	@ zero_extendqisi2
 2662 000e 13F0010F 		tst	r3, #1
 2663 0012 0CD1     		bne	.L192
 636:..\lvgl\lv_objx/lv_label.c **** 
 2664              		.loc 1 636 0
 2665 0014 2046     		mov	r0, r4
 2666              	.LVL383:
 2667 0016 FFF7FEFF 		bl	lv_obj_invalidate
 2668              	.LVL384:
 638:..\lvgl\lv_objx/lv_label.c ****     /*Delete the characters*/
 2669              		.loc 1 638 0
 2670 001a 2046     		mov	r0, r4
 2671 001c FFF7FEFF 		bl	lv_label_get_text
 2672              	.LVL385:
 640:..\lvgl\lv_objx/lv_label.c **** 
 2673              		.loc 1 640 0
 2674 0020 3246     		mov	r2, r6
 2675 0022 2946     		mov	r1, r5
 2676 0024 FFF7FEFF 		bl	lv_txt_cut
 2677              	.LVL386:
 643:..\lvgl\lv_objx/lv_label.c **** }
 2678              		.loc 1 643 0
 2679 0028 2046     		mov	r0, r4
 2680 002a FFF7FEFF 		bl	lv_label_refr_text
ARM GAS  C:\Users\d3bug\AppData\Local\Temp\cct3SNM7.s 			page 80


 2681              	.LVL387:
 2682              	.L192:
 2683 002e 70BD     		pop	{r4, r5, r6, pc}
 2684              		.cfi_endproc
 2685              	.LFE32:
 2686              		.size	lv_label_cut_text, .-lv_label_cut_text
 2687              		.section	.rodata.str1.4,"aMS",%progbits,1
 2688              		.align	2
 2689              	.LC0:
 2690 0000 6C765F6C 		.ascii	"lv_label\000"
 2690      6162656C 
 2690      00
 2691 0009 000000   		.space	3
 2692              	.LC1:
 2693 000c 4F757420 		.ascii	"Out of memory!\000"
 2693      6F66206D 
 2693      656D6F72 
 2693      792100
 2694 001b 00       		.space	1
 2695              	.LC2:
 2696 001c 2E2E5C6C 		.ascii	"..\\lvgl\\lv_objx\\lv_label.c\000"
 2696      76676C5C 
 2696      6C765F6F 
 2696      626A785C 
 2696      6C765F6C 
 2697 0037 00       		.space	1
 2698              	.LC3:
 2699 0038 6C616265 		.ascii	"label create started\000"
 2699      6C206372 
 2699      65617465 
 2699      20737461 
 2699      72746564 
 2700 004d 000000   		.space	3
 2701              	.LC4:
 2702 0050 54657874 		.ascii	"Text\000"
 2702      00
 2703 0055 000000   		.space	3
 2704              	.LC5:
 2705 0058 6C616265 		.ascii	"label created\000"
 2705      6C206372 
 2705      65617465 
 2705      6400
 2706              		.bss
 2707              		.align	2
 2708              		.set	.LANCHOR0,. + 0
 2709              		.type	ancestor_signal, %object
 2710              		.size	ancestor_signal, 4
 2711              	ancestor_signal:
 2712 0000 00000000 		.space	4
 2713              		.text
 2714              	.Letext0:
 2715              		.file 5 "c:\\program files (x86)\\cypress\\psoc creator\\4.2\\psoc creator\\import\\gnu\\arm\\5.4.
 2716              		.file 6 "c:\\program files (x86)\\cypress\\psoc creator\\4.2\\psoc creator\\import\\gnu\\arm\\5.4.
 2717              		.file 7 "..\\lvgl\\lv_objx\\../lv_core/../lv_misc/lv_color.h"
 2718              		.file 8 "..\\lvgl\\lv_objx\\../lv_core/lv_style.h"
 2719              		.file 9 "..\\lvgl\\lv_objx\\../lv_core/../lv_misc/lv_ll.h"
 2720              		.file 10 "..\\lvgl\\lv_objx\\../lv_core/lv_obj.h"
ARM GAS  C:\Users\d3bug\AppData\Local\Temp\cct3SNM7.s 			page 81


 2721              		.file 11 "..\\lvgl\\lv_objx\\../lv_misc/lv_txt.h"
 2722              		.file 12 "..\\lvgl\\lv_objx\\../lv_draw/lv_draw_rect.h"
 2723              		.file 13 "..\\lvgl\\lv_objx\\../lv_draw/lv_draw_label.h"
 2724              		.file 14 "..\\lvgl\\lv_objx\\../lv_core/../lv_misc/lv_mem.h"
 2725              		.file 15 "c:\\program files (x86)\\cypress\\psoc creator\\4.2\\psoc creator\\import\\gnu\\arm\\5.4
 2726              		.file 16 "..\\lvgl\\lv_objx\\../lv_core/../lv_misc/lv_log.h"