ARM GAS  C:\Users\d3bug\AppData\Local\Temp\ccY0isDd.s 			page 1


   1              		.syntax unified
   2              		.cpu cortex-m3
   3              		.fpu softvfp
   4              		.eabi_attribute 20, 1
   5              		.eabi_attribute 21, 1
   6              		.eabi_attribute 23, 3
   7              		.eabi_attribute 24, 1
   8              		.eabi_attribute 25, 1
   9              		.eabi_attribute 26, 1
  10              		.eabi_attribute 30, 1
  11              		.eabi_attribute 34, 1
  12              		.eabi_attribute 18, 4
  13              		.thumb
  14              		.syntax unified
  15              		.file	"lv_ll.c"
  16              		.text
  17              	.Ltext0:
  18              		.cfi_sections	.debug_frame
  19              		.section	.text.node_set_next,"ax",%progbits
  20              		.align	2
  21              		.thumb
  22              		.thumb_func
  23              		.type	node_set_next, %function
  24              	node_set_next:
  25              	.LFB14:
  26              		.file 1 "..\\lvgl\\lv_misc\\lv_ll.c"
   1:..\lvgl\lv_misc/lv_ll.c **** /**
   2:..\lvgl\lv_misc/lv_ll.c ****  * @file lv_ll.c
   3:..\lvgl\lv_misc/lv_ll.c ****  * Handle linked lists.
   4:..\lvgl\lv_misc/lv_ll.c ****  * The nodes are dynamically allocated by the 'lv_mem' module,
   5:..\lvgl\lv_misc/lv_ll.c ****  */
   6:..\lvgl\lv_misc/lv_ll.c **** 
   7:..\lvgl\lv_misc/lv_ll.c **** /*********************
   8:..\lvgl\lv_misc/lv_ll.c ****  *      INCLUDES
   9:..\lvgl\lv_misc/lv_ll.c ****  *********************/
  10:..\lvgl\lv_misc/lv_ll.c **** #include <stdint.h>
  11:..\lvgl\lv_misc/lv_ll.c **** #include <string.h>
  12:..\lvgl\lv_misc/lv_ll.c **** 
  13:..\lvgl\lv_misc/lv_ll.c **** #include "lv_ll.h"
  14:..\lvgl\lv_misc/lv_ll.c **** #include "lv_mem.h"
  15:..\lvgl\lv_misc/lv_ll.c **** 
  16:..\lvgl\lv_misc/lv_ll.c **** /*********************
  17:..\lvgl\lv_misc/lv_ll.c ****  *      DEFINES
  18:..\lvgl\lv_misc/lv_ll.c ****  *********************/
  19:..\lvgl\lv_misc/lv_ll.c **** #define LL_NODE_META_SIZE (sizeof(lv_ll_node_t*) + sizeof(lv_ll_node_t*))
  20:..\lvgl\lv_misc/lv_ll.c **** #define LL_PREV_P_OFFSET(ll_p) (ll_p->n_size)
  21:..\lvgl\lv_misc/lv_ll.c **** #define LL_NEXT_P_OFFSET(ll_p) (ll_p->n_size + sizeof(lv_ll_node_t*))
  22:..\lvgl\lv_misc/lv_ll.c **** 
  23:..\lvgl\lv_misc/lv_ll.c **** /**********************
  24:..\lvgl\lv_misc/lv_ll.c ****  *      TYPEDEFS
  25:..\lvgl\lv_misc/lv_ll.c ****  **********************/
  26:..\lvgl\lv_misc/lv_ll.c **** 
  27:..\lvgl\lv_misc/lv_ll.c **** /**********************
  28:..\lvgl\lv_misc/lv_ll.c ****  *  STATIC PROTOTYPES
  29:..\lvgl\lv_misc/lv_ll.c ****  **********************/
  30:..\lvgl\lv_misc/lv_ll.c **** static void node_set_prev(lv_ll_t * ll_p, lv_ll_node_t * act, lv_ll_node_t * prev);
  31:..\lvgl\lv_misc/lv_ll.c **** static void node_set_next(lv_ll_t * ll_p, lv_ll_node_t * act, lv_ll_node_t * next);
ARM GAS  C:\Users\d3bug\AppData\Local\Temp\ccY0isDd.s 			page 2


  32:..\lvgl\lv_misc/lv_ll.c **** 
  33:..\lvgl\lv_misc/lv_ll.c **** /**********************
  34:..\lvgl\lv_misc/lv_ll.c ****  *  STATIC VARIABLES
  35:..\lvgl\lv_misc/lv_ll.c ****  **********************/
  36:..\lvgl\lv_misc/lv_ll.c **** 
  37:..\lvgl\lv_misc/lv_ll.c **** /**********************
  38:..\lvgl\lv_misc/lv_ll.c ****  *      MACROS
  39:..\lvgl\lv_misc/lv_ll.c ****  **********************/
  40:..\lvgl\lv_misc/lv_ll.c **** 
  41:..\lvgl\lv_misc/lv_ll.c **** /**********************
  42:..\lvgl\lv_misc/lv_ll.c ****  *   GLOBAL FUNCTIONS
  43:..\lvgl\lv_misc/lv_ll.c ****  **********************/
  44:..\lvgl\lv_misc/lv_ll.c **** 
  45:..\lvgl\lv_misc/lv_ll.c **** /**
  46:..\lvgl\lv_misc/lv_ll.c ****  * Initialize linked list
  47:..\lvgl\lv_misc/lv_ll.c ****  * @param ll_dsc pointer to ll_dsc variable
  48:..\lvgl\lv_misc/lv_ll.c ****  * @param node_size the size of 1 node in bytes
  49:..\lvgl\lv_misc/lv_ll.c ****  */
  50:..\lvgl\lv_misc/lv_ll.c **** void lv_ll_init(lv_ll_t * ll_p, uint32_t node_size)
  51:..\lvgl\lv_misc/lv_ll.c **** {
  52:..\lvgl\lv_misc/lv_ll.c ****     ll_p->head = NULL;
  53:..\lvgl\lv_misc/lv_ll.c ****     ll_p->tail = NULL;
  54:..\lvgl\lv_misc/lv_ll.c **** #ifdef LV_MEM_ENV64
  55:..\lvgl\lv_misc/lv_ll.c ****     /*Round the size up to 8*/
  56:..\lvgl\lv_misc/lv_ll.c ****     if(node_size & 0x7) {
  57:..\lvgl\lv_misc/lv_ll.c ****         node_size = node_size & (~0x7);
  58:..\lvgl\lv_misc/lv_ll.c ****         node_size += 8;
  59:..\lvgl\lv_misc/lv_ll.c ****     }
  60:..\lvgl\lv_misc/lv_ll.c **** #else
  61:..\lvgl\lv_misc/lv_ll.c ****     /*Round the size up to 4*/
  62:..\lvgl\lv_misc/lv_ll.c ****     if(node_size & 0x3) {
  63:..\lvgl\lv_misc/lv_ll.c ****         node_size = node_size & (~0x3);
  64:..\lvgl\lv_misc/lv_ll.c ****         node_size += 4;
  65:..\lvgl\lv_misc/lv_ll.c ****     }
  66:..\lvgl\lv_misc/lv_ll.c **** #endif
  67:..\lvgl\lv_misc/lv_ll.c **** 
  68:..\lvgl\lv_misc/lv_ll.c ****     ll_p->n_size = node_size;
  69:..\lvgl\lv_misc/lv_ll.c **** }
  70:..\lvgl\lv_misc/lv_ll.c **** 
  71:..\lvgl\lv_misc/lv_ll.c **** /**
  72:..\lvgl\lv_misc/lv_ll.c ****  * Add a new head to a linked list
  73:..\lvgl\lv_misc/lv_ll.c ****  * @param ll_p pointer to linked list
  74:..\lvgl\lv_misc/lv_ll.c ****  * @return pointer to the new head
  75:..\lvgl\lv_misc/lv_ll.c ****  */
  76:..\lvgl\lv_misc/lv_ll.c **** void * lv_ll_ins_head(lv_ll_t * ll_p)
  77:..\lvgl\lv_misc/lv_ll.c **** {
  78:..\lvgl\lv_misc/lv_ll.c ****     lv_ll_node_t * n_new;
  79:..\lvgl\lv_misc/lv_ll.c **** 
  80:..\lvgl\lv_misc/lv_ll.c ****     n_new = lv_mem_alloc(ll_p->n_size + LL_NODE_META_SIZE);
  81:..\lvgl\lv_misc/lv_ll.c **** 
  82:..\lvgl\lv_misc/lv_ll.c ****     if(n_new != NULL) {
  83:..\lvgl\lv_misc/lv_ll.c ****         node_set_prev(ll_p, n_new, NULL);           /*No prev. before the new head*/
  84:..\lvgl\lv_misc/lv_ll.c ****         node_set_next(ll_p, n_new, ll_p->head);     /*After new comes the old head*/
  85:..\lvgl\lv_misc/lv_ll.c **** 
  86:..\lvgl\lv_misc/lv_ll.c ****         if(ll_p->head != NULL) { /*If there is old head then before it goes the new*/
  87:..\lvgl\lv_misc/lv_ll.c ****             node_set_prev(ll_p, ll_p->head, n_new);
  88:..\lvgl\lv_misc/lv_ll.c ****         }
ARM GAS  C:\Users\d3bug\AppData\Local\Temp\ccY0isDd.s 			page 3


  89:..\lvgl\lv_misc/lv_ll.c **** 
  90:..\lvgl\lv_misc/lv_ll.c ****         ll_p->head = n_new;         /*Set the new head in the dsc.*/
  91:..\lvgl\lv_misc/lv_ll.c ****         if(ll_p->tail == NULL) {/*If there is no tail (1. node) set the tail too*/
  92:..\lvgl\lv_misc/lv_ll.c ****             ll_p->tail = n_new;
  93:..\lvgl\lv_misc/lv_ll.c ****         }
  94:..\lvgl\lv_misc/lv_ll.c ****     }
  95:..\lvgl\lv_misc/lv_ll.c **** 
  96:..\lvgl\lv_misc/lv_ll.c ****     return n_new;
  97:..\lvgl\lv_misc/lv_ll.c **** }
  98:..\lvgl\lv_misc/lv_ll.c **** 
  99:..\lvgl\lv_misc/lv_ll.c **** /**
 100:..\lvgl\lv_misc/lv_ll.c ****  * Insert a new node in front of the n_act node
 101:..\lvgl\lv_misc/lv_ll.c ****  * @param ll_p pointer to linked list
 102:..\lvgl\lv_misc/lv_ll.c ****  * @param n_act pointer a node
 103:..\lvgl\lv_misc/lv_ll.c ****  * @return pointer to the new head
 104:..\lvgl\lv_misc/lv_ll.c ****  */
 105:..\lvgl\lv_misc/lv_ll.c **** void * lv_ll_ins_prev(lv_ll_t * ll_p, void * n_act)
 106:..\lvgl\lv_misc/lv_ll.c **** {
 107:..\lvgl\lv_misc/lv_ll.c ****     lv_ll_node_t * n_new;
 108:..\lvgl\lv_misc/lv_ll.c ****     lv_ll_node_t * n_prev;
 109:..\lvgl\lv_misc/lv_ll.c **** 
 110:..\lvgl\lv_misc/lv_ll.c ****     if(NULL == ll_p || NULL == n_act) return NULL;
 111:..\lvgl\lv_misc/lv_ll.c **** 
 112:..\lvgl\lv_misc/lv_ll.c ****     if(lv_ll_get_head(ll_p) == n_act) {
 113:..\lvgl\lv_misc/lv_ll.c ****         n_new = lv_ll_ins_head(ll_p);
 114:..\lvgl\lv_misc/lv_ll.c ****         if(n_new == NULL) return NULL;
 115:..\lvgl\lv_misc/lv_ll.c ****     } else {
 116:..\lvgl\lv_misc/lv_ll.c ****         n_new = lv_mem_alloc(ll_p->n_size + LL_NODE_META_SIZE);
 117:..\lvgl\lv_misc/lv_ll.c ****         if(n_new == NULL) return NULL;
 118:..\lvgl\lv_misc/lv_ll.c **** 
 119:..\lvgl\lv_misc/lv_ll.c ****         n_prev = lv_ll_get_prev(ll_p, n_act);
 120:..\lvgl\lv_misc/lv_ll.c ****         node_set_next(ll_p, n_prev, n_new);
 121:..\lvgl\lv_misc/lv_ll.c ****         node_set_prev(ll_p, n_new, n_prev);
 122:..\lvgl\lv_misc/lv_ll.c ****         node_set_prev(ll_p, n_act, n_new);
 123:..\lvgl\lv_misc/lv_ll.c ****         node_set_next(ll_p, n_new, n_act);
 124:..\lvgl\lv_misc/lv_ll.c ****     }
 125:..\lvgl\lv_misc/lv_ll.c **** 
 126:..\lvgl\lv_misc/lv_ll.c ****     return n_new;
 127:..\lvgl\lv_misc/lv_ll.c **** }
 128:..\lvgl\lv_misc/lv_ll.c **** 
 129:..\lvgl\lv_misc/lv_ll.c **** /**
 130:..\lvgl\lv_misc/lv_ll.c ****  * Add a new tail to a linked list
 131:..\lvgl\lv_misc/lv_ll.c ****  * @param ll_p pointer to linked list
 132:..\lvgl\lv_misc/lv_ll.c ****  * @return pointer to the new tail
 133:..\lvgl\lv_misc/lv_ll.c ****  */
 134:..\lvgl\lv_misc/lv_ll.c **** void * lv_ll_ins_tail(lv_ll_t * ll_p)
 135:..\lvgl\lv_misc/lv_ll.c **** {
 136:..\lvgl\lv_misc/lv_ll.c ****     lv_ll_node_t * n_new;
 137:..\lvgl\lv_misc/lv_ll.c **** 
 138:..\lvgl\lv_misc/lv_ll.c ****     n_new = lv_mem_alloc(ll_p->n_size + LL_NODE_META_SIZE);
 139:..\lvgl\lv_misc/lv_ll.c ****     if(n_new == NULL) return NULL;
 140:..\lvgl\lv_misc/lv_ll.c **** 
 141:..\lvgl\lv_misc/lv_ll.c ****     if(n_new != NULL) {
 142:..\lvgl\lv_misc/lv_ll.c ****         node_set_next(ll_p, n_new, NULL); /*No next after the new tail*/
 143:..\lvgl\lv_misc/lv_ll.c ****         node_set_prev(ll_p, n_new, ll_p->tail); /*The prev. before new is tho old tail*/
 144:..\lvgl\lv_misc/lv_ll.c ****         if(ll_p->tail != NULL) {    /*If there is old tail then the new comes after it*/
 145:..\lvgl\lv_misc/lv_ll.c ****             node_set_next(ll_p, ll_p->tail, n_new);
ARM GAS  C:\Users\d3bug\AppData\Local\Temp\ccY0isDd.s 			page 4


 146:..\lvgl\lv_misc/lv_ll.c ****         }
 147:..\lvgl\lv_misc/lv_ll.c **** 
 148:..\lvgl\lv_misc/lv_ll.c ****         ll_p->tail = n_new;      /*Set the new tail in the dsc.*/
 149:..\lvgl\lv_misc/lv_ll.c ****         if(ll_p->head == NULL) { /*If there is no head (1. node) set the head too*/
 150:..\lvgl\lv_misc/lv_ll.c ****             ll_p->head = n_new;
 151:..\lvgl\lv_misc/lv_ll.c ****         }
 152:..\lvgl\lv_misc/lv_ll.c ****     }
 153:..\lvgl\lv_misc/lv_ll.c **** 
 154:..\lvgl\lv_misc/lv_ll.c ****     return n_new;
 155:..\lvgl\lv_misc/lv_ll.c **** }
 156:..\lvgl\lv_misc/lv_ll.c **** 
 157:..\lvgl\lv_misc/lv_ll.c **** 
 158:..\lvgl\lv_misc/lv_ll.c **** /**
 159:..\lvgl\lv_misc/lv_ll.c ****  * Remove the node 'node_p' from 'll_p' linked list.
 160:..\lvgl\lv_misc/lv_ll.c ****  * It does not free the the memory of node.
 161:..\lvgl\lv_misc/lv_ll.c ****  * @param ll_p pointer to the linked list of 'node_p'
 162:..\lvgl\lv_misc/lv_ll.c ****  * @param node_p pointer to node in 'll_p' linked list
 163:..\lvgl\lv_misc/lv_ll.c ****  */
 164:..\lvgl\lv_misc/lv_ll.c **** void lv_ll_rem(lv_ll_t  * ll_p, void * node_p)
 165:..\lvgl\lv_misc/lv_ll.c **** {
 166:..\lvgl\lv_misc/lv_ll.c ****     if(lv_ll_get_head(ll_p) == node_p) {
 167:..\lvgl\lv_misc/lv_ll.c ****         /*The new head will be the node after 'n_act'*/
 168:..\lvgl\lv_misc/lv_ll.c ****         ll_p->head = lv_ll_get_next(ll_p, node_p);
 169:..\lvgl\lv_misc/lv_ll.c ****         if(ll_p->head == NULL) {
 170:..\lvgl\lv_misc/lv_ll.c ****             ll_p->tail = NULL;
 171:..\lvgl\lv_misc/lv_ll.c ****         } else {
 172:..\lvgl\lv_misc/lv_ll.c ****             node_set_prev(ll_p, ll_p->head, NULL);
 173:..\lvgl\lv_misc/lv_ll.c ****         }
 174:..\lvgl\lv_misc/lv_ll.c ****     } else if(lv_ll_get_tail(ll_p) == node_p) {
 175:..\lvgl\lv_misc/lv_ll.c ****         /*The new tail will be the  node before 'n_act'*/
 176:..\lvgl\lv_misc/lv_ll.c ****         ll_p->tail = lv_ll_get_prev(ll_p, node_p);
 177:..\lvgl\lv_misc/lv_ll.c ****         if(ll_p->tail == NULL) {
 178:..\lvgl\lv_misc/lv_ll.c ****             ll_p->head = NULL;
 179:..\lvgl\lv_misc/lv_ll.c ****         } else {
 180:..\lvgl\lv_misc/lv_ll.c ****             node_set_next(ll_p, ll_p->tail, NULL);
 181:..\lvgl\lv_misc/lv_ll.c ****         }
 182:..\lvgl\lv_misc/lv_ll.c ****     } else {
 183:..\lvgl\lv_misc/lv_ll.c ****         lv_ll_node_t * n_prev = lv_ll_get_prev(ll_p, node_p);
 184:..\lvgl\lv_misc/lv_ll.c ****         lv_ll_node_t * n_next = lv_ll_get_next(ll_p, node_p);
 185:..\lvgl\lv_misc/lv_ll.c **** 
 186:..\lvgl\lv_misc/lv_ll.c ****         node_set_next(ll_p, n_prev, n_next);
 187:..\lvgl\lv_misc/lv_ll.c ****         node_set_prev(ll_p, n_next, n_prev);
 188:..\lvgl\lv_misc/lv_ll.c ****     }
 189:..\lvgl\lv_misc/lv_ll.c **** }
 190:..\lvgl\lv_misc/lv_ll.c **** 
 191:..\lvgl\lv_misc/lv_ll.c **** /**
 192:..\lvgl\lv_misc/lv_ll.c ****  * Remove and free all elements from a linked list. The list remain valid but become empty.
 193:..\lvgl\lv_misc/lv_ll.c ****  * @param ll_p pointer to linked list
 194:..\lvgl\lv_misc/lv_ll.c ****  */
 195:..\lvgl\lv_misc/lv_ll.c **** void lv_ll_clear(lv_ll_t * ll_p)
 196:..\lvgl\lv_misc/lv_ll.c **** {
 197:..\lvgl\lv_misc/lv_ll.c ****     void * i;
 198:..\lvgl\lv_misc/lv_ll.c ****     void * i_next;
 199:..\lvgl\lv_misc/lv_ll.c **** 
 200:..\lvgl\lv_misc/lv_ll.c ****     i = lv_ll_get_head(ll_p);
 201:..\lvgl\lv_misc/lv_ll.c ****     i_next = NULL;
 202:..\lvgl\lv_misc/lv_ll.c **** 
ARM GAS  C:\Users\d3bug\AppData\Local\Temp\ccY0isDd.s 			page 5


 203:..\lvgl\lv_misc/lv_ll.c ****     while(i != NULL) {
 204:..\lvgl\lv_misc/lv_ll.c ****         i_next = lv_ll_get_next(ll_p, i);
 205:..\lvgl\lv_misc/lv_ll.c **** 
 206:..\lvgl\lv_misc/lv_ll.c ****         lv_ll_rem(ll_p, i);
 207:..\lvgl\lv_misc/lv_ll.c ****         lv_mem_free(i);
 208:..\lvgl\lv_misc/lv_ll.c **** 
 209:..\lvgl\lv_misc/lv_ll.c ****         i = i_next;
 210:..\lvgl\lv_misc/lv_ll.c ****     }
 211:..\lvgl\lv_misc/lv_ll.c **** }
 212:..\lvgl\lv_misc/lv_ll.c **** 
 213:..\lvgl\lv_misc/lv_ll.c **** /**
 214:..\lvgl\lv_misc/lv_ll.c ****  * Move a node to a new linked list
 215:..\lvgl\lv_misc/lv_ll.c ****  * @param ll_ori_p pointer to the original (old) linked list
 216:..\lvgl\lv_misc/lv_ll.c ****  * @param ll_new_p pointer to the new linked list
 217:..\lvgl\lv_misc/lv_ll.c ****  * @param node pointer to a node
 218:..\lvgl\lv_misc/lv_ll.c ****  */
 219:..\lvgl\lv_misc/lv_ll.c **** void lv_ll_chg_list(lv_ll_t * ll_ori_p, lv_ll_t * ll_new_p, void * node)
 220:..\lvgl\lv_misc/lv_ll.c **** {
 221:..\lvgl\lv_misc/lv_ll.c ****     lv_ll_rem(ll_ori_p, node);
 222:..\lvgl\lv_misc/lv_ll.c **** 
 223:..\lvgl\lv_misc/lv_ll.c ****     /*Set node as head*/
 224:..\lvgl\lv_misc/lv_ll.c ****     node_set_prev(ll_new_p, node, NULL);
 225:..\lvgl\lv_misc/lv_ll.c ****     node_set_next(ll_new_p, node, ll_new_p->head);
 226:..\lvgl\lv_misc/lv_ll.c **** 
 227:..\lvgl\lv_misc/lv_ll.c ****     if(ll_new_p->head != NULL) { /*If there is old head then before it goes the new*/
 228:..\lvgl\lv_misc/lv_ll.c ****         node_set_prev(ll_new_p, ll_new_p->head, node);
 229:..\lvgl\lv_misc/lv_ll.c ****     }
 230:..\lvgl\lv_misc/lv_ll.c **** 
 231:..\lvgl\lv_misc/lv_ll.c ****     ll_new_p->head = node;        /*Set the new head in the dsc.*/
 232:..\lvgl\lv_misc/lv_ll.c ****     if(ll_new_p->tail == NULL) {     /*If there is no tail (first node) set the tail too*/
 233:..\lvgl\lv_misc/lv_ll.c ****         ll_new_p->tail = node;
 234:..\lvgl\lv_misc/lv_ll.c ****     }
 235:..\lvgl\lv_misc/lv_ll.c **** }
 236:..\lvgl\lv_misc/lv_ll.c **** 
 237:..\lvgl\lv_misc/lv_ll.c **** /**
 238:..\lvgl\lv_misc/lv_ll.c ****  * Return with head node of the linked list
 239:..\lvgl\lv_misc/lv_ll.c ****  * @param ll_p pointer to linked list
 240:..\lvgl\lv_misc/lv_ll.c ****  * @return pointer to the head of 'll_p'
 241:..\lvgl\lv_misc/lv_ll.c ****  */
 242:..\lvgl\lv_misc/lv_ll.c **** void * lv_ll_get_head(const lv_ll_t * ll_p)
 243:..\lvgl\lv_misc/lv_ll.c **** {
 244:..\lvgl\lv_misc/lv_ll.c ****     void * head = NULL;
 245:..\lvgl\lv_misc/lv_ll.c **** 
 246:..\lvgl\lv_misc/lv_ll.c ****     if(ll_p != NULL)    {
 247:..\lvgl\lv_misc/lv_ll.c ****         head = ll_p->head;
 248:..\lvgl\lv_misc/lv_ll.c ****     }
 249:..\lvgl\lv_misc/lv_ll.c **** 
 250:..\lvgl\lv_misc/lv_ll.c ****     return head;
 251:..\lvgl\lv_misc/lv_ll.c **** }
 252:..\lvgl\lv_misc/lv_ll.c **** 
 253:..\lvgl\lv_misc/lv_ll.c **** /**
 254:..\lvgl\lv_misc/lv_ll.c ****  * Return with tail node of the linked list
 255:..\lvgl\lv_misc/lv_ll.c ****  * @param ll_p pointer to linked list
 256:..\lvgl\lv_misc/lv_ll.c ****  * @return pointer to the head of 'll_p'
 257:..\lvgl\lv_misc/lv_ll.c ****  */
 258:..\lvgl\lv_misc/lv_ll.c **** void * lv_ll_get_tail(const lv_ll_t * ll_p)
 259:..\lvgl\lv_misc/lv_ll.c **** {
ARM GAS  C:\Users\d3bug\AppData\Local\Temp\ccY0isDd.s 			page 6


 260:..\lvgl\lv_misc/lv_ll.c ****     void * tail = NULL;
 261:..\lvgl\lv_misc/lv_ll.c **** 
 262:..\lvgl\lv_misc/lv_ll.c ****     if(ll_p != NULL)    {
 263:..\lvgl\lv_misc/lv_ll.c ****         tail = ll_p->tail;
 264:..\lvgl\lv_misc/lv_ll.c ****     }
 265:..\lvgl\lv_misc/lv_ll.c **** 
 266:..\lvgl\lv_misc/lv_ll.c ****     return tail;
 267:..\lvgl\lv_misc/lv_ll.c **** }
 268:..\lvgl\lv_misc/lv_ll.c **** 
 269:..\lvgl\lv_misc/lv_ll.c **** /**
 270:..\lvgl\lv_misc/lv_ll.c ****  * Return with the pointer of the next node after 'n_act'
 271:..\lvgl\lv_misc/lv_ll.c ****  * @param ll_p pointer to linked list
 272:..\lvgl\lv_misc/lv_ll.c ****  * @param n_act pointer a node
 273:..\lvgl\lv_misc/lv_ll.c ****  * @return pointer to the next node
 274:..\lvgl\lv_misc/lv_ll.c ****  */
 275:..\lvgl\lv_misc/lv_ll.c **** void * lv_ll_get_next(const lv_ll_t * ll_p, const  void * n_act)
 276:..\lvgl\lv_misc/lv_ll.c **** {
 277:..\lvgl\lv_misc/lv_ll.c ****     void * next = NULL;
 278:..\lvgl\lv_misc/lv_ll.c **** 
 279:..\lvgl\lv_misc/lv_ll.c ****     if(ll_p != NULL)    {
 280:..\lvgl\lv_misc/lv_ll.c ****         const lv_ll_node_t * n_act_d = n_act;
 281:..\lvgl\lv_misc/lv_ll.c ****         memcpy(&next, n_act_d + LL_NEXT_P_OFFSET(ll_p), sizeof(void *));
 282:..\lvgl\lv_misc/lv_ll.c ****     }
 283:..\lvgl\lv_misc/lv_ll.c **** 
 284:..\lvgl\lv_misc/lv_ll.c ****     return next;
 285:..\lvgl\lv_misc/lv_ll.c **** }
 286:..\lvgl\lv_misc/lv_ll.c **** 
 287:..\lvgl\lv_misc/lv_ll.c **** /**
 288:..\lvgl\lv_misc/lv_ll.c ****  * Return with the pointer of the previous node after 'n_act'
 289:..\lvgl\lv_misc/lv_ll.c ****  * @param ll_p pointer to linked list
 290:..\lvgl\lv_misc/lv_ll.c ****  * @param n_act pointer a node
 291:..\lvgl\lv_misc/lv_ll.c ****  * @return pointer to the previous node
 292:..\lvgl\lv_misc/lv_ll.c ****  */
 293:..\lvgl\lv_misc/lv_ll.c **** void * lv_ll_get_prev(const lv_ll_t * ll_p, const  void * n_act)
 294:..\lvgl\lv_misc/lv_ll.c **** {
 295:..\lvgl\lv_misc/lv_ll.c ****     void * prev = NULL;
 296:..\lvgl\lv_misc/lv_ll.c **** 
 297:..\lvgl\lv_misc/lv_ll.c ****     if(ll_p != NULL) {
 298:..\lvgl\lv_misc/lv_ll.c ****         const lv_ll_node_t * n_act_d = n_act;
 299:..\lvgl\lv_misc/lv_ll.c ****         memcpy(&prev, n_act_d + LL_PREV_P_OFFSET(ll_p), sizeof(void *));
 300:..\lvgl\lv_misc/lv_ll.c ****     }
 301:..\lvgl\lv_misc/lv_ll.c **** 
 302:..\lvgl\lv_misc/lv_ll.c ****     return prev;
 303:..\lvgl\lv_misc/lv_ll.c **** }
 304:..\lvgl\lv_misc/lv_ll.c **** 
 305:..\lvgl\lv_misc/lv_ll.c **** void lv_ll_swap(lv_ll_t * ll_p, void * n1_p, void * n2_p)
 306:..\lvgl\lv_misc/lv_ll.c **** {
 307:..\lvgl\lv_misc/lv_ll.c ****     (void)(ll_p);
 308:..\lvgl\lv_misc/lv_ll.c ****     (void)(n1_p);
 309:..\lvgl\lv_misc/lv_ll.c ****     (void)(n2_p);
 310:..\lvgl\lv_misc/lv_ll.c ****     /*TODO*/
 311:..\lvgl\lv_misc/lv_ll.c **** }
 312:..\lvgl\lv_misc/lv_ll.c **** 
 313:..\lvgl\lv_misc/lv_ll.c **** /**
 314:..\lvgl\lv_misc/lv_ll.c ****  * Move a nodw before an other node in the same linked list
 315:..\lvgl\lv_misc/lv_ll.c ****  * @param ll_p pointer to a linked list
 316:..\lvgl\lv_misc/lv_ll.c ****  * @param n_act pointer to node to move
ARM GAS  C:\Users\d3bug\AppData\Local\Temp\ccY0isDd.s 			page 7


 317:..\lvgl\lv_misc/lv_ll.c ****  * @param n_after pointer to a node which should be after `n_act`
 318:..\lvgl\lv_misc/lv_ll.c ****  */
 319:..\lvgl\lv_misc/lv_ll.c **** void lv_ll_move_before(lv_ll_t * ll_p, void * n_act, void * n_after)
 320:..\lvgl\lv_misc/lv_ll.c **** {
 321:..\lvgl\lv_misc/lv_ll.c ****     if(n_act == n_after) return;    /*Can't move before itself*/
 322:..\lvgl\lv_misc/lv_ll.c **** 
 323:..\lvgl\lv_misc/lv_ll.c **** 
 324:..\lvgl\lv_misc/lv_ll.c ****     void * n_before;
 325:..\lvgl\lv_misc/lv_ll.c ****     if(n_after != NULL) n_before = lv_ll_get_prev(ll_p, n_after);
 326:..\lvgl\lv_misc/lv_ll.c ****     else n_before = lv_ll_get_tail(ll_p);        /*if `n_after` is NULL `n_act` should be the new t
 327:..\lvgl\lv_misc/lv_ll.c **** 
 328:..\lvgl\lv_misc/lv_ll.c ****     if(n_act == n_before) return;   /*Already before `n_after`*/
 329:..\lvgl\lv_misc/lv_ll.c **** 
 330:..\lvgl\lv_misc/lv_ll.c ****     /*It's much easier to remove from the list and add again*/
 331:..\lvgl\lv_misc/lv_ll.c ****     lv_ll_rem(ll_p, n_act);
 332:..\lvgl\lv_misc/lv_ll.c **** 
 333:..\lvgl\lv_misc/lv_ll.c ****     /*Add again by setting the prev. and next nodes*/
 334:..\lvgl\lv_misc/lv_ll.c ****     node_set_next(ll_p, n_before, n_act);
 335:..\lvgl\lv_misc/lv_ll.c ****     node_set_prev(ll_p, n_act, n_before);
 336:..\lvgl\lv_misc/lv_ll.c ****     node_set_prev(ll_p, n_after, n_act);
 337:..\lvgl\lv_misc/lv_ll.c ****     node_set_next(ll_p, n_act, n_after);
 338:..\lvgl\lv_misc/lv_ll.c **** 
 339:..\lvgl\lv_misc/lv_ll.c ****     /*If `n_act` was moved before NULL then it become the new tail*/
 340:..\lvgl\lv_misc/lv_ll.c ****     if(n_after == NULL) ll_p->tail = n_act;
 341:..\lvgl\lv_misc/lv_ll.c **** }
 342:..\lvgl\lv_misc/lv_ll.c **** 
 343:..\lvgl\lv_misc/lv_ll.c **** /**********************
 344:..\lvgl\lv_misc/lv_ll.c ****  *   STATIC FUNCTIONS
 345:..\lvgl\lv_misc/lv_ll.c ****  **********************/
 346:..\lvgl\lv_misc/lv_ll.c **** 
 347:..\lvgl\lv_misc/lv_ll.c **** /**
 348:..\lvgl\lv_misc/lv_ll.c ****  * Set the 'pervious node pointer' of a node
 349:..\lvgl\lv_misc/lv_ll.c ****  * @param ll_p pointer to linked list
 350:..\lvgl\lv_misc/lv_ll.c ****  * @param act pointer to a node which prev. node pointer should be set
 351:..\lvgl\lv_misc/lv_ll.c ****  * @param prev pointer to a node which should be the previous node before 'act'
 352:..\lvgl\lv_misc/lv_ll.c ****  */
 353:..\lvgl\lv_misc/lv_ll.c **** static void node_set_prev(lv_ll_t * ll_p, lv_ll_node_t * act, lv_ll_node_t * prev)
 354:..\lvgl\lv_misc/lv_ll.c **** {
 355:..\lvgl\lv_misc/lv_ll.c ****     if(act == NULL) return;     /*Can't set the prev node of `NULL`*/
 356:..\lvgl\lv_misc/lv_ll.c **** 
 357:..\lvgl\lv_misc/lv_ll.c ****     uint32_t node_p_size = sizeof(lv_ll_node_t *);
 358:..\lvgl\lv_misc/lv_ll.c ****     if(prev) memcpy(act + LL_PREV_P_OFFSET(ll_p), &prev, node_p_size);
 359:..\lvgl\lv_misc/lv_ll.c ****     else memset(act + LL_PREV_P_OFFSET(ll_p), 0, node_p_size);
 360:..\lvgl\lv_misc/lv_ll.c **** }
 361:..\lvgl\lv_misc/lv_ll.c **** 
 362:..\lvgl\lv_misc/lv_ll.c **** /**
 363:..\lvgl\lv_misc/lv_ll.c ****  * Set the 'next node pointer' of a node
 364:..\lvgl\lv_misc/lv_ll.c ****  * @param ll_p pointer to linked list
 365:..\lvgl\lv_misc/lv_ll.c ****  * @param act pointer to a node which next node pointer should be set
 366:..\lvgl\lv_misc/lv_ll.c ****  * @param next pointer to a node which should be the next node before 'act'
 367:..\lvgl\lv_misc/lv_ll.c ****  */
 368:..\lvgl\lv_misc/lv_ll.c **** static void node_set_next(lv_ll_t * ll_p, lv_ll_node_t * act, lv_ll_node_t * next)
 369:..\lvgl\lv_misc/lv_ll.c **** {
  27              		.loc 1 369 0
  28              		.cfi_startproc
  29              		@ args = 0, pretend = 0, frame = 8
  30              		@ frame_needed = 0, uses_anonymous_args = 0
ARM GAS  C:\Users\d3bug\AppData\Local\Temp\ccY0isDd.s 			page 8


  31              		@ link register save eliminated.
  32              	.LVL0:
  33 0000 82B0     		sub	sp, sp, #8
  34              		.cfi_def_cfa_offset 8
  35 0002 0192     		str	r2, [sp, #4]
 370:..\lvgl\lv_misc/lv_ll.c ****     if(act == NULL) return;     /*Can't set the next node of `NULL`*/
  36              		.loc 1 370 0
  37 0004 59B1     		cbz	r1, .L1
  38 0006 0A46     		mov	r2, r1
  39              	.LVL1:
 371:..\lvgl\lv_misc/lv_ll.c **** 
 372:..\lvgl\lv_misc/lv_ll.c ****     uint32_t node_p_size = sizeof(lv_ll_node_t *);
 373:..\lvgl\lv_misc/lv_ll.c ****     if(next) memcpy(act + LL_NEXT_P_OFFSET(ll_p), &next, node_p_size);
  40              		.loc 1 373 0
  41 0008 019B     		ldr	r3, [sp, #4]
  42 000a 23B1     		cbz	r3, .L3
  43              		.loc 1 373 0 is_stmt 0 discriminator 1
  44 000c 0368     		ldr	r3, [r0]
  45 000e 0433     		adds	r3, r3, #4
  46 0010 0198     		ldr	r0, [sp, #4]	@ unaligned
  47              	.LVL2:
  48 0012 C850     		str	r0, [r1, r3]	@ unaligned
  49              	.LVL3:
  50 0014 03E0     		b	.L1
  51              	.LVL4:
  52              	.L3:
 374:..\lvgl\lv_misc/lv_ll.c ****     else memset(act + LL_NEXT_P_OFFSET(ll_p), 0, node_p_size);
  53              		.loc 1 374 0 is_stmt 1
  54 0016 0368     		ldr	r3, [r0]
  55              	.LVL5:
  56 0018 0433     		adds	r3, r3, #4
  57 001a 0021     		movs	r1, #0
  58              	.LVL6:
  59 001c D150     		str	r1, [r2, r3]	@ unaligned
  60              	.LVL7:
  61              	.L1:
 375:..\lvgl\lv_misc/lv_ll.c **** }
  62              		.loc 1 375 0
  63 001e 02B0     		add	sp, sp, #8
  64              		.cfi_def_cfa_offset 0
  65              		@ sp needed
  66 0020 7047     		bx	lr
  67              		.cfi_endproc
  68              	.LFE14:
  69              		.size	node_set_next, .-node_set_next
  70 0022 00BF     		.section	.text.node_set_prev,"ax",%progbits
  71              		.align	2
  72              		.thumb
  73              		.thumb_func
  74              		.type	node_set_prev, %function
  75              	node_set_prev:
  76              	.LFB13:
 354:..\lvgl\lv_misc/lv_ll.c ****     if(act == NULL) return;     /*Can't set the prev node of `NULL`*/
  77              		.loc 1 354 0
  78              		.cfi_startproc
  79              		@ args = 0, pretend = 0, frame = 8
  80              		@ frame_needed = 0, uses_anonymous_args = 0
ARM GAS  C:\Users\d3bug\AppData\Local\Temp\ccY0isDd.s 			page 9


  81              		@ link register save eliminated.
  82              	.LVL8:
  83 0000 82B0     		sub	sp, sp, #8
  84              		.cfi_def_cfa_offset 8
  85 0002 0192     		str	r2, [sp, #4]
 355:..\lvgl\lv_misc/lv_ll.c **** 
  86              		.loc 1 355 0
  87 0004 41B1     		cbz	r1, .L5
  88 0006 0B46     		mov	r3, r1
  89              	.LVL9:
 358:..\lvgl\lv_misc/lv_ll.c ****     else memset(act + LL_PREV_P_OFFSET(ll_p), 0, node_p_size);
  90              		.loc 1 358 0
  91 0008 1AB1     		cbz	r2, .L7
 358:..\lvgl\lv_misc/lv_ll.c ****     else memset(act + LL_PREV_P_OFFSET(ll_p), 0, node_p_size);
  92              		.loc 1 358 0 is_stmt 0 discriminator 1
  93 000a 0268     		ldr	r2, [r0]
  94              	.LVL10:
  95 000c 0198     		ldr	r0, [sp, #4]	@ unaligned
  96              	.LVL11:
  97 000e 8850     		str	r0, [r1, r2]	@ unaligned
  98              	.LVL12:
  99 0010 02E0     		b	.L5
 100              	.LVL13:
 101              	.L7:
 359:..\lvgl\lv_misc/lv_ll.c **** }
 102              		.loc 1 359 0 is_stmt 1
 103 0012 0268     		ldr	r2, [r0]
 104              	.LVL14:
 105 0014 0021     		movs	r1, #0
 106              	.LVL15:
 107 0016 9950     		str	r1, [r3, r2]	@ unaligned
 108              	.LVL16:
 109              	.L5:
 360:..\lvgl\lv_misc/lv_ll.c **** 
 110              		.loc 1 360 0
 111 0018 02B0     		add	sp, sp, #8
 112              		.cfi_def_cfa_offset 0
 113              		@ sp needed
 114 001a 7047     		bx	lr
 115              		.cfi_endproc
 116              	.LFE13:
 117              		.size	node_set_prev, .-node_set_prev
 118              		.section	.text.lv_ll_init,"ax",%progbits
 119              		.align	2
 120              		.global	lv_ll_init
 121              		.thumb
 122              		.thumb_func
 123              		.type	lv_ll_init, %function
 124              	lv_ll_init:
 125              	.LFB0:
  51:..\lvgl\lv_misc/lv_ll.c ****     ll_p->head = NULL;
 126              		.loc 1 51 0
 127              		.cfi_startproc
 128              		@ args = 0, pretend = 0, frame = 0
 129              		@ frame_needed = 0, uses_anonymous_args = 0
 130              		@ link register save eliminated.
 131              	.LVL17:
ARM GAS  C:\Users\d3bug\AppData\Local\Temp\ccY0isDd.s 			page 10


  52:..\lvgl\lv_misc/lv_ll.c ****     ll_p->tail = NULL;
 132              		.loc 1 52 0
 133 0000 0023     		movs	r3, #0
 134 0002 4360     		str	r3, [r0, #4]
  53:..\lvgl\lv_misc/lv_ll.c **** #ifdef LV_MEM_ENV64
 135              		.loc 1 53 0
 136 0004 8360     		str	r3, [r0, #8]
  62:..\lvgl\lv_misc/lv_ll.c ****         node_size = node_size & (~0x3);
 137              		.loc 1 62 0
 138 0006 11F0030F 		tst	r1, #3
 139 000a 02D0     		beq	.L10
  63:..\lvgl\lv_misc/lv_ll.c ****         node_size += 4;
 140              		.loc 1 63 0
 141 000c 21F00301 		bic	r1, r1, #3
 142              	.LVL18:
  64:..\lvgl\lv_misc/lv_ll.c ****     }
 143              		.loc 1 64 0
 144 0010 0431     		adds	r1, r1, #4
 145              	.LVL19:
 146              	.L10:
  68:..\lvgl\lv_misc/lv_ll.c **** }
 147              		.loc 1 68 0
 148 0012 0160     		str	r1, [r0]
 149 0014 7047     		bx	lr
 150              		.cfi_endproc
 151              	.LFE0:
 152              		.size	lv_ll_init, .-lv_ll_init
 153 0016 00BF     		.section	.text.lv_ll_ins_head,"ax",%progbits
 154              		.align	2
 155              		.global	lv_ll_ins_head
 156              		.thumb
 157              		.thumb_func
 158              		.type	lv_ll_ins_head, %function
 159              	lv_ll_ins_head:
 160              	.LFB1:
  77:..\lvgl\lv_misc/lv_ll.c ****     lv_ll_node_t * n_new;
 161              		.loc 1 77 0
 162              		.cfi_startproc
 163              		@ args = 0, pretend = 0, frame = 0
 164              		@ frame_needed = 0, uses_anonymous_args = 0
 165              	.LVL20:
 166 0000 38B5     		push	{r3, r4, r5, lr}
 167              		.cfi_def_cfa_offset 16
 168              		.cfi_offset 3, -16
 169              		.cfi_offset 4, -12
 170              		.cfi_offset 5, -8
 171              		.cfi_offset 14, -4
 172 0002 0446     		mov	r4, r0
  80:..\lvgl\lv_misc/lv_ll.c **** 
 173              		.loc 1 80 0
 174 0004 0068     		ldr	r0, [r0]
 175              	.LVL21:
 176 0006 0830     		adds	r0, r0, #8
 177 0008 FFF7FEFF 		bl	lv_mem_alloc
 178              	.LVL22:
  82:..\lvgl\lv_misc/lv_ll.c ****         node_set_prev(ll_p, n_new, NULL);           /*No prev. before the new head*/
 179              		.loc 1 82 0
ARM GAS  C:\Users\d3bug\AppData\Local\Temp\ccY0isDd.s 			page 11


 180 000c 0546     		mov	r5, r0
 181 000e 98B1     		cbz	r0, .L12
  83:..\lvgl\lv_misc/lv_ll.c ****         node_set_next(ll_p, n_new, ll_p->head);     /*After new comes the old head*/
 182              		.loc 1 83 0
 183 0010 0022     		movs	r2, #0
 184 0012 0146     		mov	r1, r0
 185 0014 2046     		mov	r0, r4
 186              	.LVL23:
 187 0016 FFF7FEFF 		bl	node_set_prev
 188              	.LVL24:
  84:..\lvgl\lv_misc/lv_ll.c **** 
 189              		.loc 1 84 0
 190 001a 6268     		ldr	r2, [r4, #4]
 191 001c 2946     		mov	r1, r5
 192 001e 2046     		mov	r0, r4
 193 0020 FFF7FEFF 		bl	node_set_next
 194              	.LVL25:
  86:..\lvgl\lv_misc/lv_ll.c ****             node_set_prev(ll_p, ll_p->head, n_new);
 195              		.loc 1 86 0
 196 0024 6168     		ldr	r1, [r4, #4]
 197 0026 19B1     		cbz	r1, .L13
  87:..\lvgl\lv_misc/lv_ll.c ****         }
 198              		.loc 1 87 0
 199 0028 2A46     		mov	r2, r5
 200 002a 2046     		mov	r0, r4
 201 002c FFF7FEFF 		bl	node_set_prev
 202              	.LVL26:
 203              	.L13:
  90:..\lvgl\lv_misc/lv_ll.c ****         if(ll_p->tail == NULL) {/*If there is no tail (1. node) set the tail too*/
 204              		.loc 1 90 0
 205 0030 6560     		str	r5, [r4, #4]
  91:..\lvgl\lv_misc/lv_ll.c ****             ll_p->tail = n_new;
 206              		.loc 1 91 0
 207 0032 A368     		ldr	r3, [r4, #8]
 208 0034 03B9     		cbnz	r3, .L12
  92:..\lvgl\lv_misc/lv_ll.c ****         }
 209              		.loc 1 92 0
 210 0036 A560     		str	r5, [r4, #8]
 211              	.L12:
  97:..\lvgl\lv_misc/lv_ll.c **** 
 212              		.loc 1 97 0
 213 0038 2846     		mov	r0, r5
 214 003a 38BD     		pop	{r3, r4, r5, pc}
 215              		.cfi_endproc
 216              	.LFE1:
 217              		.size	lv_ll_ins_head, .-lv_ll_ins_head
 218              		.section	.text.lv_ll_ins_tail,"ax",%progbits
 219              		.align	2
 220              		.global	lv_ll_ins_tail
 221              		.thumb
 222              		.thumb_func
 223              		.type	lv_ll_ins_tail, %function
 224              	lv_ll_ins_tail:
 225              	.LFB3:
 135:..\lvgl\lv_misc/lv_ll.c ****     lv_ll_node_t * n_new;
 226              		.loc 1 135 0
 227              		.cfi_startproc
ARM GAS  C:\Users\d3bug\AppData\Local\Temp\ccY0isDd.s 			page 12


 228              		@ args = 0, pretend = 0, frame = 0
 229              		@ frame_needed = 0, uses_anonymous_args = 0
 230              	.LVL27:
 231 0000 38B5     		push	{r3, r4, r5, lr}
 232              		.cfi_def_cfa_offset 16
 233              		.cfi_offset 3, -16
 234              		.cfi_offset 4, -12
 235              		.cfi_offset 5, -8
 236              		.cfi_offset 14, -4
 237 0002 0546     		mov	r5, r0
 138:..\lvgl\lv_misc/lv_ll.c ****     if(n_new == NULL) return NULL;
 238              		.loc 1 138 0
 239 0004 0068     		ldr	r0, [r0]
 240              	.LVL28:
 241 0006 0830     		adds	r0, r0, #8
 242 0008 FFF7FEFF 		bl	lv_mem_alloc
 243              	.LVL29:
 139:..\lvgl\lv_misc/lv_ll.c **** 
 244              		.loc 1 139 0
 245 000c B8B1     		cbz	r0, .L18
 246 000e 0446     		mov	r4, r0
 141:..\lvgl\lv_misc/lv_ll.c ****         node_set_next(ll_p, n_new, NULL); /*No next after the new tail*/
 247              		.loc 1 141 0
 248 0010 B8B1     		cbz	r0, .L19
 142:..\lvgl\lv_misc/lv_ll.c ****         node_set_prev(ll_p, n_new, ll_p->tail); /*The prev. before new is tho old tail*/
 249              		.loc 1 142 0
 250 0012 0022     		movs	r2, #0
 251 0014 0146     		mov	r1, r0
 252 0016 2846     		mov	r0, r5
 253              	.LVL30:
 254 0018 FFF7FEFF 		bl	node_set_next
 255              	.LVL31:
 143:..\lvgl\lv_misc/lv_ll.c ****         if(ll_p->tail != NULL) {    /*If there is old tail then the new comes after it*/
 256              		.loc 1 143 0
 257 001c AA68     		ldr	r2, [r5, #8]
 258 001e 2146     		mov	r1, r4
 259 0020 2846     		mov	r0, r5
 260 0022 FFF7FEFF 		bl	node_set_prev
 261              	.LVL32:
 144:..\lvgl\lv_misc/lv_ll.c ****             node_set_next(ll_p, ll_p->tail, n_new);
 262              		.loc 1 144 0
 263 0026 A968     		ldr	r1, [r5, #8]
 264 0028 19B1     		cbz	r1, .L17
 145:..\lvgl\lv_misc/lv_ll.c ****         }
 265              		.loc 1 145 0
 266 002a 2246     		mov	r2, r4
 267 002c 2846     		mov	r0, r5
 268 002e FFF7FEFF 		bl	node_set_next
 269              	.LVL33:
 270              	.L17:
 148:..\lvgl\lv_misc/lv_ll.c ****         if(ll_p->head == NULL) { /*If there is no head (1. node) set the head too*/
 271              		.loc 1 148 0
 272 0032 AC60     		str	r4, [r5, #8]
 149:..\lvgl\lv_misc/lv_ll.c ****             ll_p->head = n_new;
 273              		.loc 1 149 0
 274 0034 6B68     		ldr	r3, [r5, #4]
 275 0036 2BB9     		cbnz	r3, .L20
ARM GAS  C:\Users\d3bug\AppData\Local\Temp\ccY0isDd.s 			page 13


 150:..\lvgl\lv_misc/lv_ll.c ****         }
 276              		.loc 1 150 0
 277 0038 6C60     		str	r4, [r5, #4]
 154:..\lvgl\lv_misc/lv_ll.c **** }
 278              		.loc 1 154 0
 279 003a 2046     		mov	r0, r4
 280 003c 38BD     		pop	{r3, r4, r5, pc}
 281              	.LVL34:
 282              	.L18:
 139:..\lvgl\lv_misc/lv_ll.c **** 
 283              		.loc 1 139 0
 284 003e 0020     		movs	r0, #0
 285              	.LVL35:
 286 0040 38BD     		pop	{r3, r4, r5, pc}
 287              	.LVL36:
 288              	.L19:
 289 0042 38BD     		pop	{r3, r4, r5, pc}
 290              	.LVL37:
 291              	.L20:
 154:..\lvgl\lv_misc/lv_ll.c **** }
 292              		.loc 1 154 0
 293 0044 2046     		mov	r0, r4
 155:..\lvgl\lv_misc/lv_ll.c **** 
 294              		.loc 1 155 0
 295 0046 38BD     		pop	{r3, r4, r5, pc}
 296              		.cfi_endproc
 297              	.LFE3:
 298              		.size	lv_ll_ins_tail, .-lv_ll_ins_tail
 299              		.section	.text.lv_ll_get_head,"ax",%progbits
 300              		.align	2
 301              		.global	lv_ll_get_head
 302              		.thumb
 303              		.thumb_func
 304              		.type	lv_ll_get_head, %function
 305              	lv_ll_get_head:
 306              	.LFB7:
 243:..\lvgl\lv_misc/lv_ll.c ****     void * head = NULL;
 307              		.loc 1 243 0
 308              		.cfi_startproc
 309              		@ args = 0, pretend = 0, frame = 0
 310              		@ frame_needed = 0, uses_anonymous_args = 0
 311              		@ link register save eliminated.
 312              	.LVL38:
 246:..\lvgl\lv_misc/lv_ll.c ****         head = ll_p->head;
 313              		.loc 1 246 0
 314 0000 08B1     		cbz	r0, .L24
 247:..\lvgl\lv_misc/lv_ll.c ****     }
 315              		.loc 1 247 0
 316 0002 4068     		ldr	r0, [r0, #4]
 317              	.LVL39:
 318 0004 7047     		bx	lr
 319              	.LVL40:
 320              	.L24:
 244:..\lvgl\lv_misc/lv_ll.c **** 
 321              		.loc 1 244 0
 322 0006 0020     		movs	r0, #0
 323              	.LVL41:
ARM GAS  C:\Users\d3bug\AppData\Local\Temp\ccY0isDd.s 			page 14


 251:..\lvgl\lv_misc/lv_ll.c **** 
 324              		.loc 1 251 0
 325 0008 7047     		bx	lr
 326              		.cfi_endproc
 327              	.LFE7:
 328              		.size	lv_ll_get_head, .-lv_ll_get_head
 329 000a 00BF     		.section	.text.lv_ll_get_tail,"ax",%progbits
 330              		.align	2
 331              		.global	lv_ll_get_tail
 332              		.thumb
 333              		.thumb_func
 334              		.type	lv_ll_get_tail, %function
 335              	lv_ll_get_tail:
 336              	.LFB8:
 259:..\lvgl\lv_misc/lv_ll.c ****     void * tail = NULL;
 337              		.loc 1 259 0
 338              		.cfi_startproc
 339              		@ args = 0, pretend = 0, frame = 0
 340              		@ frame_needed = 0, uses_anonymous_args = 0
 341              		@ link register save eliminated.
 342              	.LVL42:
 262:..\lvgl\lv_misc/lv_ll.c ****         tail = ll_p->tail;
 343              		.loc 1 262 0
 344 0000 08B1     		cbz	r0, .L27
 263:..\lvgl\lv_misc/lv_ll.c ****     }
 345              		.loc 1 263 0
 346 0002 8068     		ldr	r0, [r0, #8]
 347              	.LVL43:
 348 0004 7047     		bx	lr
 349              	.LVL44:
 350              	.L27:
 260:..\lvgl\lv_misc/lv_ll.c **** 
 351              		.loc 1 260 0
 352 0006 0020     		movs	r0, #0
 353              	.LVL45:
 267:..\lvgl\lv_misc/lv_ll.c **** 
 354              		.loc 1 267 0
 355 0008 7047     		bx	lr
 356              		.cfi_endproc
 357              	.LFE8:
 358              		.size	lv_ll_get_tail, .-lv_ll_get_tail
 359 000a 00BF     		.section	.text.lv_ll_get_next,"ax",%progbits
 360              		.align	2
 361              		.global	lv_ll_get_next
 362              		.thumb
 363              		.thumb_func
 364              		.type	lv_ll_get_next, %function
 365              	lv_ll_get_next:
 366              	.LFB9:
 276:..\lvgl\lv_misc/lv_ll.c ****     void * next = NULL;
 367              		.loc 1 276 0
 368              		.cfi_startproc
 369              		@ args = 0, pretend = 0, frame = 8
 370              		@ frame_needed = 0, uses_anonymous_args = 0
 371              		@ link register save eliminated.
 372              	.LVL46:
 373 0000 82B0     		sub	sp, sp, #8
ARM GAS  C:\Users\d3bug\AppData\Local\Temp\ccY0isDd.s 			page 15


 374              		.cfi_def_cfa_offset 8
 277:..\lvgl\lv_misc/lv_ll.c **** 
 375              		.loc 1 277 0
 376 0002 0023     		movs	r3, #0
 377 0004 0193     		str	r3, [sp, #4]
 279:..\lvgl\lv_misc/lv_ll.c ****         const lv_ll_node_t * n_act_d = n_act;
 378              		.loc 1 279 0
 379 0006 18B1     		cbz	r0, .L29
 380              	.LVL47:
 381              	.LBB2:
 281:..\lvgl\lv_misc/lv_ll.c ****     }
 382              		.loc 1 281 0
 383 0008 0368     		ldr	r3, [r0]
 384 000a 0433     		adds	r3, r3, #4
 385 000c C858     		ldr	r0, [r1, r3]	@ unaligned
 386              	.LVL48:
 387 000e 0190     		str	r0, [sp, #4]	@ unaligned
 388              	.LVL49:
 389              	.L29:
 390              	.LBE2:
 285:..\lvgl\lv_misc/lv_ll.c **** 
 391              		.loc 1 285 0
 392 0010 0198     		ldr	r0, [sp, #4]
 393 0012 02B0     		add	sp, sp, #8
 394              		.cfi_def_cfa_offset 0
 395              		@ sp needed
 396 0014 7047     		bx	lr
 397              		.cfi_endproc
 398              	.LFE9:
 399              		.size	lv_ll_get_next, .-lv_ll_get_next
 400 0016 00BF     		.section	.text.lv_ll_get_prev,"ax",%progbits
 401              		.align	2
 402              		.global	lv_ll_get_prev
 403              		.thumb
 404              		.thumb_func
 405              		.type	lv_ll_get_prev, %function
 406              	lv_ll_get_prev:
 407              	.LFB10:
 294:..\lvgl\lv_misc/lv_ll.c ****     void * prev = NULL;
 408              		.loc 1 294 0
 409              		.cfi_startproc
 410              		@ args = 0, pretend = 0, frame = 8
 411              		@ frame_needed = 0, uses_anonymous_args = 0
 412              		@ link register save eliminated.
 413              	.LVL50:
 414 0000 82B0     		sub	sp, sp, #8
 415              		.cfi_def_cfa_offset 8
 295:..\lvgl\lv_misc/lv_ll.c **** 
 416              		.loc 1 295 0
 417 0002 0023     		movs	r3, #0
 418 0004 0193     		str	r3, [sp, #4]
 297:..\lvgl\lv_misc/lv_ll.c ****         const lv_ll_node_t * n_act_d = n_act;
 419              		.loc 1 297 0
 420 0006 10B1     		cbz	r0, .L32
 421              	.LVL51:
 422              	.LBB3:
 299:..\lvgl\lv_misc/lv_ll.c ****     }
ARM GAS  C:\Users\d3bug\AppData\Local\Temp\ccY0isDd.s 			page 16


 423              		.loc 1 299 0
 424 0008 0368     		ldr	r3, [r0]
 425 000a C858     		ldr	r0, [r1, r3]	@ unaligned
 426              	.LVL52:
 427 000c 0190     		str	r0, [sp, #4]	@ unaligned
 428              	.LVL53:
 429              	.L32:
 430              	.LBE3:
 303:..\lvgl\lv_misc/lv_ll.c **** 
 431              		.loc 1 303 0
 432 000e 0198     		ldr	r0, [sp, #4]
 433 0010 02B0     		add	sp, sp, #8
 434              		.cfi_def_cfa_offset 0
 435              		@ sp needed
 436 0012 7047     		bx	lr
 437              		.cfi_endproc
 438              	.LFE10:
 439              		.size	lv_ll_get_prev, .-lv_ll_get_prev
 440              		.section	.text.lv_ll_ins_prev,"ax",%progbits
 441              		.align	2
 442              		.global	lv_ll_ins_prev
 443              		.thumb
 444              		.thumb_func
 445              		.type	lv_ll_ins_prev, %function
 446              	lv_ll_ins_prev:
 447              	.LFB2:
 106:..\lvgl\lv_misc/lv_ll.c ****     lv_ll_node_t * n_new;
 448              		.loc 1 106 0
 449              		.cfi_startproc
 450              		@ args = 0, pretend = 0, frame = 0
 451              		@ frame_needed = 0, uses_anonymous_args = 0
 452              	.LVL54:
 110:..\lvgl\lv_misc/lv_ll.c **** 
 453              		.loc 1 110 0
 454 0000 68B3     		cbz	r0, .L37
 106:..\lvgl\lv_misc/lv_ll.c ****     lv_ll_node_t * n_new;
 455              		.loc 1 106 0 discriminator 2
 456 0002 F8B5     		push	{r3, r4, r5, r6, r7, lr}
 457              		.cfi_def_cfa_offset 24
 458              		.cfi_offset 3, -24
 459              		.cfi_offset 4, -20
 460              		.cfi_offset 5, -16
 461              		.cfi_offset 6, -12
 462              		.cfi_offset 7, -8
 463              		.cfi_offset 14, -4
 464 0004 0446     		mov	r4, r0
 110:..\lvgl\lv_misc/lv_ll.c **** 
 465              		.loc 1 110 0 discriminator 2
 466 0006 61B3     		cbz	r1, .L38
 467 0008 0D46     		mov	r5, r1
 112:..\lvgl\lv_misc/lv_ll.c ****         n_new = lv_ll_ins_head(ll_p);
 468              		.loc 1 112 0
 469 000a FFF7FEFF 		bl	lv_ll_get_head
 470              	.LVL55:
 471 000e 8542     		cmp	r5, r0
 472 0010 04D1     		bne	.L36
 113:..\lvgl\lv_misc/lv_ll.c ****         if(n_new == NULL) return NULL;
ARM GAS  C:\Users\d3bug\AppData\Local\Temp\ccY0isDd.s 			page 17


 473              		.loc 1 113 0
 474 0012 2046     		mov	r0, r4
 475 0014 FFF7FEFF 		bl	lv_ll_ins_head
 476              	.LVL56:
 114:..\lvgl\lv_misc/lv_ll.c ****     } else {
 477              		.loc 1 114 0
 478 0018 28BB     		cbnz	r0, .L39
 479 001a F8BD     		pop	{r3, r4, r5, r6, r7, pc}
 480              	.LVL57:
 481              	.L36:
 116:..\lvgl\lv_misc/lv_ll.c ****         if(n_new == NULL) return NULL;
 482              		.loc 1 116 0
 483 001c 2068     		ldr	r0, [r4]
 484 001e 0830     		adds	r0, r0, #8
 485 0020 FFF7FEFF 		bl	lv_mem_alloc
 486              	.LVL58:
 117:..\lvgl\lv_misc/lv_ll.c **** 
 487              		.loc 1 117 0
 488 0024 0646     		mov	r6, r0
 489 0026 F8B1     		cbz	r0, .L40
 119:..\lvgl\lv_misc/lv_ll.c ****         node_set_next(ll_p, n_prev, n_new);
 490              		.loc 1 119 0
 491 0028 2946     		mov	r1, r5
 492 002a 2046     		mov	r0, r4
 493              	.LVL59:
 494 002c FFF7FEFF 		bl	lv_ll_get_prev
 495              	.LVL60:
 496 0030 0746     		mov	r7, r0
 497              	.LVL61:
 120:..\lvgl\lv_misc/lv_ll.c ****         node_set_prev(ll_p, n_new, n_prev);
 498              		.loc 1 120 0
 499 0032 3246     		mov	r2, r6
 500 0034 0146     		mov	r1, r0
 501 0036 2046     		mov	r0, r4
 502              	.LVL62:
 503 0038 FFF7FEFF 		bl	node_set_next
 504              	.LVL63:
 121:..\lvgl\lv_misc/lv_ll.c ****         node_set_prev(ll_p, n_act, n_new);
 505              		.loc 1 121 0
 506 003c 3A46     		mov	r2, r7
 507 003e 3146     		mov	r1, r6
 508 0040 2046     		mov	r0, r4
 509 0042 FFF7FEFF 		bl	node_set_prev
 510              	.LVL64:
 122:..\lvgl\lv_misc/lv_ll.c ****         node_set_next(ll_p, n_new, n_act);
 511              		.loc 1 122 0
 512 0046 3246     		mov	r2, r6
 513 0048 2946     		mov	r1, r5
 514 004a 2046     		mov	r0, r4
 515 004c FFF7FEFF 		bl	node_set_prev
 516              	.LVL65:
 123:..\lvgl\lv_misc/lv_ll.c ****     }
 517              		.loc 1 123 0
 518 0050 2A46     		mov	r2, r5
 519 0052 3146     		mov	r1, r6
 520 0054 2046     		mov	r0, r4
 521 0056 FFF7FEFF 		bl	node_set_next
ARM GAS  C:\Users\d3bug\AppData\Local\Temp\ccY0isDd.s 			page 18


 522              	.LVL66:
 116:..\lvgl\lv_misc/lv_ll.c ****         if(n_new == NULL) return NULL;
 523              		.loc 1 116 0
 524 005a 3046     		mov	r0, r6
 525 005c F8BD     		pop	{r3, r4, r5, r6, r7, pc}
 526              	.LVL67:
 527              	.L37:
 528              		.cfi_def_cfa_offset 0
 529              		.cfi_restore 3
 530              		.cfi_restore 4
 531              		.cfi_restore 5
 532              		.cfi_restore 6
 533              		.cfi_restore 7
 534              		.cfi_restore 14
 110:..\lvgl\lv_misc/lv_ll.c **** 
 535              		.loc 1 110 0
 536 005e 0020     		movs	r0, #0
 537              	.LVL68:
 127:..\lvgl\lv_misc/lv_ll.c **** 
 538              		.loc 1 127 0
 539 0060 7047     		bx	lr
 540              	.LVL69:
 541              	.L38:
 542              		.cfi_def_cfa_offset 24
 543              		.cfi_offset 3, -24
 544              		.cfi_offset 4, -20
 545              		.cfi_offset 5, -16
 546              		.cfi_offset 6, -12
 547              		.cfi_offset 7, -8
 548              		.cfi_offset 14, -4
 110:..\lvgl\lv_misc/lv_ll.c **** 
 549              		.loc 1 110 0
 550 0062 0020     		movs	r0, #0
 551              	.LVL70:
 552 0064 F8BD     		pop	{r3, r4, r5, r6, r7, pc}
 553              	.LVL71:
 554              	.L39:
 555 0066 F8BD     		pop	{r3, r4, r5, r6, r7, pc}
 556              	.LVL72:
 557              	.L40:
 117:..\lvgl\lv_misc/lv_ll.c **** 
 558              		.loc 1 117 0
 559 0068 0020     		movs	r0, #0
 560              	.LVL73:
 127:..\lvgl\lv_misc/lv_ll.c **** 
 561              		.loc 1 127 0
 562 006a F8BD     		pop	{r3, r4, r5, r6, r7, pc}
 563              		.cfi_endproc
 564              	.LFE2:
 565              		.size	lv_ll_ins_prev, .-lv_ll_ins_prev
 566              		.section	.text.lv_ll_rem,"ax",%progbits
 567              		.align	2
 568              		.global	lv_ll_rem
 569              		.thumb
 570              		.thumb_func
 571              		.type	lv_ll_rem, %function
 572              	lv_ll_rem:
ARM GAS  C:\Users\d3bug\AppData\Local\Temp\ccY0isDd.s 			page 19


 573              	.LFB4:
 165:..\lvgl\lv_misc/lv_ll.c ****     if(lv_ll_get_head(ll_p) == node_p) {
 574              		.loc 1 165 0
 575              		.cfi_startproc
 576              		@ args = 0, pretend = 0, frame = 0
 577              		@ frame_needed = 0, uses_anonymous_args = 0
 578              	.LVL74:
 579 0000 70B5     		push	{r4, r5, r6, lr}
 580              		.cfi_def_cfa_offset 16
 581              		.cfi_offset 4, -16
 582              		.cfi_offset 5, -12
 583              		.cfi_offset 6, -8
 584              		.cfi_offset 14, -4
 585 0002 0446     		mov	r4, r0
 586 0004 0D46     		mov	r5, r1
 166:..\lvgl\lv_misc/lv_ll.c ****         /*The new head will be the node after 'n_act'*/
 587              		.loc 1 166 0
 588 0006 FFF7FEFF 		bl	lv_ll_get_head
 589              	.LVL75:
 590 000a 8542     		cmp	r5, r0
 591 000c 0ED1     		bne	.L43
 168:..\lvgl\lv_misc/lv_ll.c ****         if(ll_p->head == NULL) {
 592              		.loc 1 168 0
 593 000e 2946     		mov	r1, r5
 594 0010 2046     		mov	r0, r4
 595 0012 FFF7FEFF 		bl	lv_ll_get_next
 596              	.LVL76:
 597 0016 6060     		str	r0, [r4, #4]
 169:..\lvgl\lv_misc/lv_ll.c ****             ll_p->tail = NULL;
 598              		.loc 1 169 0
 599 0018 10B9     		cbnz	r0, .L44
 170:..\lvgl\lv_misc/lv_ll.c ****         } else {
 600              		.loc 1 170 0
 601 001a 0023     		movs	r3, #0
 602 001c A360     		str	r3, [r4, #8]
 603 001e 70BD     		pop	{r4, r5, r6, pc}
 604              	.LVL77:
 605              	.L44:
 172:..\lvgl\lv_misc/lv_ll.c ****         }
 606              		.loc 1 172 0
 607 0020 0022     		movs	r2, #0
 608 0022 0146     		mov	r1, r0
 609 0024 2046     		mov	r0, r4
 610 0026 FFF7FEFF 		bl	node_set_prev
 611              	.LVL78:
 612 002a 70BD     		pop	{r4, r5, r6, pc}
 613              	.LVL79:
 614              	.L43:
 174:..\lvgl\lv_misc/lv_ll.c ****         /*The new tail will be the  node before 'n_act'*/
 615              		.loc 1 174 0
 616 002c 2046     		mov	r0, r4
 617 002e FFF7FEFF 		bl	lv_ll_get_tail
 618              	.LVL80:
 619 0032 8542     		cmp	r5, r0
 620 0034 0ED1     		bne	.L46
 176:..\lvgl\lv_misc/lv_ll.c ****         if(ll_p->tail == NULL) {
 621              		.loc 1 176 0
ARM GAS  C:\Users\d3bug\AppData\Local\Temp\ccY0isDd.s 			page 20


 622 0036 2946     		mov	r1, r5
 623 0038 2046     		mov	r0, r4
 624 003a FFF7FEFF 		bl	lv_ll_get_prev
 625              	.LVL81:
 626 003e A060     		str	r0, [r4, #8]
 177:..\lvgl\lv_misc/lv_ll.c ****             ll_p->head = NULL;
 627              		.loc 1 177 0
 628 0040 10B9     		cbnz	r0, .L47
 178:..\lvgl\lv_misc/lv_ll.c ****         } else {
 629              		.loc 1 178 0
 630 0042 0023     		movs	r3, #0
 631 0044 6360     		str	r3, [r4, #4]
 632 0046 70BD     		pop	{r4, r5, r6, pc}
 633              	.LVL82:
 634              	.L47:
 180:..\lvgl\lv_misc/lv_ll.c ****         }
 635              		.loc 1 180 0
 636 0048 0022     		movs	r2, #0
 637 004a 0146     		mov	r1, r0
 638 004c 2046     		mov	r0, r4
 639 004e FFF7FEFF 		bl	node_set_next
 640              	.LVL83:
 641 0052 70BD     		pop	{r4, r5, r6, pc}
 642              	.LVL84:
 643              	.L46:
 644              	.LBB4:
 183:..\lvgl\lv_misc/lv_ll.c ****         lv_ll_node_t * n_next = lv_ll_get_next(ll_p, node_p);
 645              		.loc 1 183 0
 646 0054 2946     		mov	r1, r5
 647 0056 2046     		mov	r0, r4
 648 0058 FFF7FEFF 		bl	lv_ll_get_prev
 649              	.LVL85:
 650 005c 0646     		mov	r6, r0
 651              	.LVL86:
 184:..\lvgl\lv_misc/lv_ll.c **** 
 652              		.loc 1 184 0
 653 005e 2946     		mov	r1, r5
 654 0060 2046     		mov	r0, r4
 655              	.LVL87:
 656 0062 FFF7FEFF 		bl	lv_ll_get_next
 657              	.LVL88:
 658 0066 0546     		mov	r5, r0
 659              	.LVL89:
 186:..\lvgl\lv_misc/lv_ll.c ****         node_set_prev(ll_p, n_next, n_prev);
 660              		.loc 1 186 0
 661 0068 0246     		mov	r2, r0
 662 006a 3146     		mov	r1, r6
 663 006c 2046     		mov	r0, r4
 664              	.LVL90:
 665 006e FFF7FEFF 		bl	node_set_next
 666              	.LVL91:
 187:..\lvgl\lv_misc/lv_ll.c ****     }
 667              		.loc 1 187 0
 668 0072 3246     		mov	r2, r6
 669 0074 2946     		mov	r1, r5
 670 0076 2046     		mov	r0, r4
 671 0078 FFF7FEFF 		bl	node_set_prev
ARM GAS  C:\Users\d3bug\AppData\Local\Temp\ccY0isDd.s 			page 21


 672              	.LVL92:
 673 007c 70BD     		pop	{r4, r5, r6, pc}
 674              	.LBE4:
 675              		.cfi_endproc
 676              	.LFE4:
 677              		.size	lv_ll_rem, .-lv_ll_rem
 678 007e 00BF     		.section	.text.lv_ll_clear,"ax",%progbits
 679              		.align	2
 680              		.global	lv_ll_clear
 681              		.thumb
 682              		.thumb_func
 683              		.type	lv_ll_clear, %function
 684              	lv_ll_clear:
 685              	.LFB5:
 196:..\lvgl\lv_misc/lv_ll.c ****     void * i;
 686              		.loc 1 196 0
 687              		.cfi_startproc
 688              		@ args = 0, pretend = 0, frame = 0
 689              		@ frame_needed = 0, uses_anonymous_args = 0
 690              	.LVL93:
 691 0000 70B5     		push	{r4, r5, r6, lr}
 692              		.cfi_def_cfa_offset 16
 693              		.cfi_offset 4, -16
 694              		.cfi_offset 5, -12
 695              		.cfi_offset 6, -8
 696              		.cfi_offset 14, -4
 697 0002 0546     		mov	r5, r0
 200:..\lvgl\lv_misc/lv_ll.c ****     i_next = NULL;
 698              		.loc 1 200 0
 699 0004 FFF7FEFF 		bl	lv_ll_get_head
 700              	.LVL94:
 701 0008 0446     		mov	r4, r0
 702              	.LVL95:
 203:..\lvgl\lv_misc/lv_ll.c ****         i_next = lv_ll_get_next(ll_p, i);
 703              		.loc 1 203 0
 704 000a 0CE0     		b	.L50
 705              	.LVL96:
 706              	.L51:
 204:..\lvgl\lv_misc/lv_ll.c **** 
 707              		.loc 1 204 0
 708 000c 2146     		mov	r1, r4
 709 000e 2846     		mov	r0, r5
 710 0010 FFF7FEFF 		bl	lv_ll_get_next
 711              	.LVL97:
 712 0014 0646     		mov	r6, r0
 713              	.LVL98:
 206:..\lvgl\lv_misc/lv_ll.c ****         lv_mem_free(i);
 714              		.loc 1 206 0
 715 0016 2146     		mov	r1, r4
 716 0018 2846     		mov	r0, r5
 717              	.LVL99:
 718 001a FFF7FEFF 		bl	lv_ll_rem
 719              	.LVL100:
 207:..\lvgl\lv_misc/lv_ll.c **** 
 720              		.loc 1 207 0
 721 001e 2046     		mov	r0, r4
 722 0020 FFF7FEFF 		bl	lv_mem_free
ARM GAS  C:\Users\d3bug\AppData\Local\Temp\ccY0isDd.s 			page 22


 723              	.LVL101:
 209:..\lvgl\lv_misc/lv_ll.c ****     }
 724              		.loc 1 209 0
 725 0024 3446     		mov	r4, r6
 726              	.LVL102:
 727              	.L50:
 203:..\lvgl\lv_misc/lv_ll.c ****         i_next = lv_ll_get_next(ll_p, i);
 728              		.loc 1 203 0
 729 0026 002C     		cmp	r4, #0
 730 0028 F0D1     		bne	.L51
 211:..\lvgl\lv_misc/lv_ll.c **** 
 731              		.loc 1 211 0
 732 002a 70BD     		pop	{r4, r5, r6, pc}
 733              		.cfi_endproc
 734              	.LFE5:
 735              		.size	lv_ll_clear, .-lv_ll_clear
 736              		.section	.text.lv_ll_chg_list,"ax",%progbits
 737              		.align	2
 738              		.global	lv_ll_chg_list
 739              		.thumb
 740              		.thumb_func
 741              		.type	lv_ll_chg_list, %function
 742              	lv_ll_chg_list:
 743              	.LFB6:
 220:..\lvgl\lv_misc/lv_ll.c ****     lv_ll_rem(ll_ori_p, node);
 744              		.loc 1 220 0
 745              		.cfi_startproc
 746              		@ args = 0, pretend = 0, frame = 0
 747              		@ frame_needed = 0, uses_anonymous_args = 0
 748              	.LVL103:
 749 0000 38B5     		push	{r3, r4, r5, lr}
 750              		.cfi_def_cfa_offset 16
 751              		.cfi_offset 3, -16
 752              		.cfi_offset 4, -12
 753              		.cfi_offset 5, -8
 754              		.cfi_offset 14, -4
 755 0002 0C46     		mov	r4, r1
 756 0004 1546     		mov	r5, r2
 221:..\lvgl\lv_misc/lv_ll.c **** 
 757              		.loc 1 221 0
 758 0006 1146     		mov	r1, r2
 759              	.LVL104:
 760 0008 FFF7FEFF 		bl	lv_ll_rem
 761              	.LVL105:
 224:..\lvgl\lv_misc/lv_ll.c ****     node_set_next(ll_new_p, node, ll_new_p->head);
 762              		.loc 1 224 0
 763 000c 0022     		movs	r2, #0
 764 000e 2946     		mov	r1, r5
 765 0010 2046     		mov	r0, r4
 766 0012 FFF7FEFF 		bl	node_set_prev
 767              	.LVL106:
 225:..\lvgl\lv_misc/lv_ll.c **** 
 768              		.loc 1 225 0
 769 0016 6268     		ldr	r2, [r4, #4]
 770 0018 2946     		mov	r1, r5
 771 001a 2046     		mov	r0, r4
 772 001c FFF7FEFF 		bl	node_set_next
ARM GAS  C:\Users\d3bug\AppData\Local\Temp\ccY0isDd.s 			page 23


 773              	.LVL107:
 227:..\lvgl\lv_misc/lv_ll.c ****         node_set_prev(ll_new_p, ll_new_p->head, node);
 774              		.loc 1 227 0
 775 0020 6168     		ldr	r1, [r4, #4]
 776 0022 19B1     		cbz	r1, .L54
 228:..\lvgl\lv_misc/lv_ll.c ****     }
 777              		.loc 1 228 0
 778 0024 2A46     		mov	r2, r5
 779 0026 2046     		mov	r0, r4
 780 0028 FFF7FEFF 		bl	node_set_prev
 781              	.LVL108:
 782              	.L54:
 231:..\lvgl\lv_misc/lv_ll.c ****     if(ll_new_p->tail == NULL) {     /*If there is no tail (first node) set the tail too*/
 783              		.loc 1 231 0
 784 002c 6560     		str	r5, [r4, #4]
 232:..\lvgl\lv_misc/lv_ll.c ****         ll_new_p->tail = node;
 785              		.loc 1 232 0
 786 002e A368     		ldr	r3, [r4, #8]
 787 0030 03B9     		cbnz	r3, .L53
 233:..\lvgl\lv_misc/lv_ll.c ****     }
 788              		.loc 1 233 0
 789 0032 A560     		str	r5, [r4, #8]
 790              	.L53:
 791 0034 38BD     		pop	{r3, r4, r5, pc}
 792              		.cfi_endproc
 793              	.LFE6:
 794              		.size	lv_ll_chg_list, .-lv_ll_chg_list
 795 0036 00BF     		.section	.text.lv_ll_swap,"ax",%progbits
 796              		.align	2
 797              		.global	lv_ll_swap
 798              		.thumb
 799              		.thumb_func
 800              		.type	lv_ll_swap, %function
 801              	lv_ll_swap:
 802              	.LFB11:
 306:..\lvgl\lv_misc/lv_ll.c ****     (void)(ll_p);
 803              		.loc 1 306 0
 804              		.cfi_startproc
 805              		@ args = 0, pretend = 0, frame = 0
 806              		@ frame_needed = 0, uses_anonymous_args = 0
 807              		@ link register save eliminated.
 808              	.LVL109:
 809 0000 7047     		bx	lr
 810              		.cfi_endproc
 811              	.LFE11:
 812              		.size	lv_ll_swap, .-lv_ll_swap
 813 0002 00BF     		.section	.text.lv_ll_move_before,"ax",%progbits
 814              		.align	2
 815              		.global	lv_ll_move_before
 816              		.thumb
 817              		.thumb_func
 818              		.type	lv_ll_move_before, %function
 819              	lv_ll_move_before:
 820              	.LFB12:
 320:..\lvgl\lv_misc/lv_ll.c ****     if(n_act == n_after) return;    /*Can't move before itself*/
 821              		.loc 1 320 0
 822              		.cfi_startproc
ARM GAS  C:\Users\d3bug\AppData\Local\Temp\ccY0isDd.s 			page 24


 823              		@ args = 0, pretend = 0, frame = 0
 824              		@ frame_needed = 0, uses_anonymous_args = 0
 825              	.LVL110:
 321:..\lvgl\lv_misc/lv_ll.c **** 
 826              		.loc 1 321 0
 827 0000 9142     		cmp	r1, r2
 828 0002 29D0     		beq	.L63
 320:..\lvgl\lv_misc/lv_ll.c ****     if(n_act == n_after) return;    /*Can't move before itself*/
 829              		.loc 1 320 0
 830 0004 F8B5     		push	{r3, r4, r5, r6, r7, lr}
 831              		.cfi_def_cfa_offset 24
 832              		.cfi_offset 3, -24
 833              		.cfi_offset 4, -20
 834              		.cfi_offset 5, -16
 835              		.cfi_offset 6, -12
 836              		.cfi_offset 7, -8
 837              		.cfi_offset 14, -4
 838 0006 1546     		mov	r5, r2
 839 0008 0C46     		mov	r4, r1
 840 000a 0646     		mov	r6, r0
 325:..\lvgl\lv_misc/lv_ll.c ****     else n_before = lv_ll_get_tail(ll_p);        /*if `n_after` is NULL `n_act` should be the new t
 841              		.loc 1 325 0
 842 000c 22B1     		cbz	r2, .L60
 325:..\lvgl\lv_misc/lv_ll.c ****     else n_before = lv_ll_get_tail(ll_p);        /*if `n_after` is NULL `n_act` should be the new t
 843              		.loc 1 325 0 is_stmt 0 discriminator 1
 844 000e 1146     		mov	r1, r2
 845              	.LVL111:
 846 0010 FFF7FEFF 		bl	lv_ll_get_prev
 847              	.LVL112:
 848 0014 0746     		mov	r7, r0
 849              	.LVL113:
 850 0016 02E0     		b	.L61
 851              	.LVL114:
 852              	.L60:
 326:..\lvgl\lv_misc/lv_ll.c **** 
 853              		.loc 1 326 0 is_stmt 1
 854 0018 FFF7FEFF 		bl	lv_ll_get_tail
 855              	.LVL115:
 856 001c 0746     		mov	r7, r0
 857              	.LVL116:
 858              	.L61:
 328:..\lvgl\lv_misc/lv_ll.c **** 
 859              		.loc 1 328 0
 860 001e A742     		cmp	r7, r4
 861 0020 19D0     		beq	.L58
 331:..\lvgl\lv_misc/lv_ll.c **** 
 862              		.loc 1 331 0
 863 0022 2146     		mov	r1, r4
 864 0024 3046     		mov	r0, r6
 865              	.LVL117:
 866 0026 FFF7FEFF 		bl	lv_ll_rem
 867              	.LVL118:
 334:..\lvgl\lv_misc/lv_ll.c ****     node_set_prev(ll_p, n_act, n_before);
 868              		.loc 1 334 0
 869 002a 2246     		mov	r2, r4
 870 002c 3946     		mov	r1, r7
 871 002e 3046     		mov	r0, r6
ARM GAS  C:\Users\d3bug\AppData\Local\Temp\ccY0isDd.s 			page 25


 872 0030 FFF7FEFF 		bl	node_set_next
 873              	.LVL119:
 335:..\lvgl\lv_misc/lv_ll.c ****     node_set_prev(ll_p, n_after, n_act);
 874              		.loc 1 335 0
 875 0034 3A46     		mov	r2, r7
 876 0036 2146     		mov	r1, r4
 877 0038 3046     		mov	r0, r6
 878 003a FFF7FEFF 		bl	node_set_prev
 879              	.LVL120:
 336:..\lvgl\lv_misc/lv_ll.c ****     node_set_next(ll_p, n_act, n_after);
 880              		.loc 1 336 0
 881 003e 2246     		mov	r2, r4
 882 0040 2946     		mov	r1, r5
 883 0042 3046     		mov	r0, r6
 884 0044 FFF7FEFF 		bl	node_set_prev
 885              	.LVL121:
 337:..\lvgl\lv_misc/lv_ll.c **** 
 886              		.loc 1 337 0
 887 0048 2A46     		mov	r2, r5
 888 004a 2146     		mov	r1, r4
 889 004c 3046     		mov	r0, r6
 890 004e FFF7FEFF 		bl	node_set_next
 891              	.LVL122:
 340:..\lvgl\lv_misc/lv_ll.c **** }
 892              		.loc 1 340 0
 893 0052 05B9     		cbnz	r5, .L58
 340:..\lvgl\lv_misc/lv_ll.c **** }
 894              		.loc 1 340 0 is_stmt 0 discriminator 1
 895 0054 B460     		str	r4, [r6, #8]
 896              	.L58:
 897 0056 F8BD     		pop	{r3, r4, r5, r6, r7, pc}
 898              	.LVL123:
 899              	.L63:
 900              		.cfi_def_cfa_offset 0
 901              		.cfi_restore 3
 902              		.cfi_restore 4
 903              		.cfi_restore 5
 904              		.cfi_restore 6
 905              		.cfi_restore 7
 906              		.cfi_restore 14
 907 0058 7047     		bx	lr
 908              		.cfi_endproc
 909              	.LFE12:
 910              		.size	lv_ll_move_before, .-lv_ll_move_before
 911 005a 00BF     		.text
 912              	.Letext0:
 913              		.file 2 "c:\\program files (x86)\\cypress\\psoc creator\\4.2\\psoc creator\\import\\gnu\\arm\\5.4.
 914              		.file 3 "c:\\program files (x86)\\cypress\\psoc creator\\4.2\\psoc creator\\import\\gnu\\arm\\5.4.
 915              		.file 4 "..\\lvgl\\lv_misc\\lv_ll.h"
 916              		.file 5 "..\\lvgl\\lv_misc\\lv_mem.h"