ARM GAS  C:\Users\d3bug\AppData\Local\Temp\cct3SNM7.s 			page 1


   1              		.syntax unified
   2              		.cpu cortex-m3
   3              		.fpu softvfp
   4              		.eabi_attribute 20, 1
   5              		.eabi_attribute 21, 1
   6              		.eabi_attribute 23, 3
   7              		.eabi_attribute 24, 1
   8              		.eabi_attribute 25, 1
   9              		.eabi_attribute 26, 1
  10              		.eabi_attribute 30, 1
  11              		.eabi_attribute 34, 1
  12              		.eabi_attribute 18, 4
  13              		.thumb
  14              		.syntax unified
  15              		.file	"lv_label.c"
  16              		.text
  17              	.Ltext0:
  18              		.cfi_sections	.debug_frame
  19              		.section	.text.lv_label_revert_dots,"ax",%progbits
  20              		.align	2
  21              		.thumb
  22              		.thumb_func
  23              		.type	lv_label_revert_dots, %function
  24              	lv_label_revert_dots:
  25              	.LFB36:
  26              		.file 1 "..\\lvgl\\lv_objx\\lv_label.c"
   1:..\lvgl\lv_objx/lv_label.c **** /**
   2:..\lvgl\lv_objx/lv_label.c ****  * @file lv_rect.c
   3:..\lvgl\lv_objx/lv_label.c ****  *
   4:..\lvgl\lv_objx/lv_label.c ****  */
   5:..\lvgl\lv_objx/lv_label.c **** 
   6:..\lvgl\lv_objx/lv_label.c **** /*********************
   7:..\lvgl\lv_objx/lv_label.c ****  *      INCLUDES
   8:..\lvgl\lv_objx/lv_label.c ****  *********************/
   9:..\lvgl\lv_objx/lv_label.c **** #include "lv_label.h"
  10:..\lvgl\lv_objx/lv_label.c **** #if USE_LV_LABEL != 0
  11:..\lvgl\lv_objx/lv_label.c **** 
  12:..\lvgl\lv_objx/lv_label.c **** #include "../lv_core/lv_obj.h"
  13:..\lvgl\lv_objx/lv_label.c **** #include "../lv_core/lv_group.h"
  14:..\lvgl\lv_objx/lv_label.c **** #include "../lv_core/lv_lang.h"
  15:..\lvgl\lv_objx/lv_label.c **** #include "../lv_draw/lv_draw.h"
  16:..\lvgl\lv_objx/lv_label.c **** #include "../lv_misc/lv_color.h"
  17:..\lvgl\lv_objx/lv_label.c **** #include "../lv_misc/lv_math.h"
  18:..\lvgl\lv_objx/lv_label.c **** 
  19:..\lvgl\lv_objx/lv_label.c **** /*********************
  20:..\lvgl\lv_objx/lv_label.c ****  *      DEFINES
  21:..\lvgl\lv_objx/lv_label.c ****  *********************/
  22:..\lvgl\lv_objx/lv_label.c **** /*Test configurations*/
  23:..\lvgl\lv_objx/lv_label.c **** #ifndef LV_LABEL_SCROLL_SPEED
  24:..\lvgl\lv_objx/lv_label.c **** #define LV_LABEL_SCROLL_SPEED       (25) /*Hor, or ver. scroll speed (px/sec) in 'LV_LABEL_LONG_SCR
  25:..\lvgl\lv_objx/lv_label.c **** #endif
  26:..\lvgl\lv_objx/lv_label.c **** 
  27:..\lvgl\lv_objx/lv_label.c **** #define ANIM_WAIT_CHAR_COUNT 3
  28:..\lvgl\lv_objx/lv_label.c **** 
  29:..\lvgl\lv_objx/lv_label.c **** #define LV_LABEL_DOT_END_INV 0xFFFF
  30:..\lvgl\lv_objx/lv_label.c **** 
  31:..\lvgl\lv_objx/lv_label.c **** /**********************
ARM GAS  C:\Users\d3bug\AppData\Local\Temp\cct3SNM7.s 			page 2


  32:..\lvgl\lv_objx/lv_label.c ****  *      TYPEDEFS
  33:..\lvgl\lv_objx/lv_label.c ****  **********************/
  34:..\lvgl\lv_objx/lv_label.c **** 
  35:..\lvgl\lv_objx/lv_label.c **** /**********************
  36:..\lvgl\lv_objx/lv_label.c ****  *  STATIC PROTOTYPES
  37:..\lvgl\lv_objx/lv_label.c ****  **********************/
  38:..\lvgl\lv_objx/lv_label.c **** static lv_res_t lv_label_signal(lv_obj_t * label, lv_signal_t sign, void * param);
  39:..\lvgl\lv_objx/lv_label.c **** static bool lv_label_design(lv_obj_t * label, const lv_area_t * mask, lv_design_mode_t mode);
  40:..\lvgl\lv_objx/lv_label.c **** static void lv_label_refr_text(lv_obj_t * label);
  41:..\lvgl\lv_objx/lv_label.c **** static void lv_label_revert_dots(lv_obj_t * label);
  42:..\lvgl\lv_objx/lv_label.c **** 
  43:..\lvgl\lv_objx/lv_label.c **** #if USE_LV_ANIMATION
  44:..\lvgl\lv_objx/lv_label.c **** static void lv_label_set_offset_x(lv_obj_t * label, lv_coord_t x);
  45:..\lvgl\lv_objx/lv_label.c **** static void lv_label_set_offset_y(lv_obj_t * label, lv_coord_t y);
  46:..\lvgl\lv_objx/lv_label.c **** #endif
  47:..\lvgl\lv_objx/lv_label.c **** /**********************
  48:..\lvgl\lv_objx/lv_label.c ****  *  STATIC VARIABLES
  49:..\lvgl\lv_objx/lv_label.c ****  **********************/
  50:..\lvgl\lv_objx/lv_label.c **** static lv_signal_func_t ancestor_signal;
  51:..\lvgl\lv_objx/lv_label.c **** 
  52:..\lvgl\lv_objx/lv_label.c **** /**********************
  53:..\lvgl\lv_objx/lv_label.c ****  *      MACROS
  54:..\lvgl\lv_objx/lv_label.c ****  **********************/
  55:..\lvgl\lv_objx/lv_label.c **** 
  56:..\lvgl\lv_objx/lv_label.c **** /**********************
  57:..\lvgl\lv_objx/lv_label.c ****  *   GLOBAL FUNCTIONS
  58:..\lvgl\lv_objx/lv_label.c ****  **********************/
  59:..\lvgl\lv_objx/lv_label.c **** 
  60:..\lvgl\lv_objx/lv_label.c **** /**
  61:..\lvgl\lv_objx/lv_label.c ****  * Create a label objects
  62:..\lvgl\lv_objx/lv_label.c ****  * @param par pointer to an object, it will be the parent of the new label
  63:..\lvgl\lv_objx/lv_label.c ****  * @param copy pointer to a button object, if not NULL then the new object will be copied from it
  64:..\lvgl\lv_objx/lv_label.c ****  * @return pointer to the created button
  65:..\lvgl\lv_objx/lv_label.c ****  */
  66:..\lvgl\lv_objx/lv_label.c **** lv_obj_t * lv_label_create(lv_obj_t * par, const lv_obj_t * copy)
  67:..\lvgl\lv_objx/lv_label.c **** {
  68:..\lvgl\lv_objx/lv_label.c ****     LV_LOG_TRACE("label create started");
  69:..\lvgl\lv_objx/lv_label.c **** 
  70:..\lvgl\lv_objx/lv_label.c ****     /*Create a basic object*/
  71:..\lvgl\lv_objx/lv_label.c ****     lv_obj_t * new_label = lv_obj_create(par, copy);
  72:..\lvgl\lv_objx/lv_label.c ****     lv_mem_assert(new_label);
  73:..\lvgl\lv_objx/lv_label.c ****     if(new_label == NULL) return NULL;
  74:..\lvgl\lv_objx/lv_label.c **** 
  75:..\lvgl\lv_objx/lv_label.c ****     if(ancestor_signal == NULL) ancestor_signal = lv_obj_get_signal_func(new_label);
  76:..\lvgl\lv_objx/lv_label.c **** 
  77:..\lvgl\lv_objx/lv_label.c ****     /*Extend the basic object to a label object*/
  78:..\lvgl\lv_objx/lv_label.c ****     lv_obj_allocate_ext_attr(new_label, sizeof(lv_label_ext_t));
  79:..\lvgl\lv_objx/lv_label.c **** 
  80:..\lvgl\lv_objx/lv_label.c ****     lv_label_ext_t * ext = lv_obj_get_ext_attr(new_label);
  81:..\lvgl\lv_objx/lv_label.c ****     lv_mem_assert(ext);
  82:..\lvgl\lv_objx/lv_label.c ****     if(ext == NULL) return NULL;
  83:..\lvgl\lv_objx/lv_label.c **** 
  84:..\lvgl\lv_objx/lv_label.c ****     ext->text = NULL;
  85:..\lvgl\lv_objx/lv_label.c ****     ext->static_txt = 0;
  86:..\lvgl\lv_objx/lv_label.c ****     ext->recolor = 0;
  87:..\lvgl\lv_objx/lv_label.c ****     ext->body_draw = 0;
  88:..\lvgl\lv_objx/lv_label.c ****     ext->align = LV_LABEL_ALIGN_LEFT;
ARM GAS  C:\Users\d3bug\AppData\Local\Temp\cct3SNM7.s 			page 3


  89:..\lvgl\lv_objx/lv_label.c ****     ext->dot_end = LV_LABEL_DOT_END_INV;
  90:..\lvgl\lv_objx/lv_label.c ****     ext->long_mode = LV_LABEL_LONG_EXPAND;
  91:..\lvgl\lv_objx/lv_label.c ****     ext->anim_speed = LV_LABEL_SCROLL_SPEED;
  92:..\lvgl\lv_objx/lv_label.c ****     ext->offset.x = 0;
  93:..\lvgl\lv_objx/lv_label.c ****     ext->offset.y = 0;
  94:..\lvgl\lv_objx/lv_label.c **** #if USE_LV_MULTI_LANG
  95:..\lvgl\lv_objx/lv_label.c ****     ext->lang_txt_id = LV_LANG_TXT_ID_NONE;
  96:..\lvgl\lv_objx/lv_label.c **** #endif
  97:..\lvgl\lv_objx/lv_label.c ****     lv_obj_set_design_func(new_label, lv_label_design);
  98:..\lvgl\lv_objx/lv_label.c ****     lv_obj_set_signal_func(new_label, lv_label_signal);
  99:..\lvgl\lv_objx/lv_label.c **** 
 100:..\lvgl\lv_objx/lv_label.c ****     /*Init the new label*/
 101:..\lvgl\lv_objx/lv_label.c ****     if(copy == NULL) {
 102:..\lvgl\lv_objx/lv_label.c ****         lv_obj_set_click(new_label, false);
 103:..\lvgl\lv_objx/lv_label.c ****         lv_label_set_long_mode(new_label, LV_LABEL_LONG_EXPAND);
 104:..\lvgl\lv_objx/lv_label.c ****         lv_label_set_text(new_label, "Text");
 105:..\lvgl\lv_objx/lv_label.c ****         lv_label_set_style(new_label, NULL);        /*Inherit parent's style*/
 106:..\lvgl\lv_objx/lv_label.c ****     }
 107:..\lvgl\lv_objx/lv_label.c ****     /*Copy 'copy' if not NULL*/
 108:..\lvgl\lv_objx/lv_label.c ****     else {
 109:..\lvgl\lv_objx/lv_label.c ****         lv_label_ext_t * copy_ext = lv_obj_get_ext_attr(copy);
 110:..\lvgl\lv_objx/lv_label.c ****         lv_label_set_long_mode(new_label, lv_label_get_long_mode(copy));
 111:..\lvgl\lv_objx/lv_label.c ****         lv_label_set_recolor(new_label, lv_label_get_recolor(copy));
 112:..\lvgl\lv_objx/lv_label.c ****         lv_label_set_body_draw(new_label, lv_label_get_body_draw(copy));
 113:..\lvgl\lv_objx/lv_label.c ****         lv_label_set_align(new_label, lv_label_get_align(copy));
 114:..\lvgl\lv_objx/lv_label.c ****         if(copy_ext->static_txt == 0) lv_label_set_text(new_label, lv_label_get_text(copy));
 115:..\lvgl\lv_objx/lv_label.c ****         else lv_label_set_static_text(new_label, lv_label_get_text(copy));
 116:..\lvgl\lv_objx/lv_label.c **** 
 117:..\lvgl\lv_objx/lv_label.c ****         /*In DOT mode save the text byte-to-byte because a '\0' can be in the middle*/
 118:..\lvgl\lv_objx/lv_label.c ****         if(copy_ext->long_mode == LV_LABEL_LONG_DOT) {
 119:..\lvgl\lv_objx/lv_label.c ****             ext->text = lv_mem_realloc(ext->text, lv_mem_get_size(copy_ext->text));
 120:..\lvgl\lv_objx/lv_label.c ****             lv_mem_assert(ext->text);
 121:..\lvgl\lv_objx/lv_label.c ****             if(ext->text == NULL) return NULL;
 122:..\lvgl\lv_objx/lv_label.c ****             memcpy(ext->text, copy_ext->text, lv_mem_get_size(copy_ext->text));
 123:..\lvgl\lv_objx/lv_label.c ****         }
 124:..\lvgl\lv_objx/lv_label.c **** 
 125:..\lvgl\lv_objx/lv_label.c ****         memcpy(ext->dot_tmp, copy_ext->dot_tmp, sizeof(ext->dot_tmp));
 126:..\lvgl\lv_objx/lv_label.c ****         ext->dot_end = copy_ext->dot_end;
 127:..\lvgl\lv_objx/lv_label.c **** 
 128:..\lvgl\lv_objx/lv_label.c ****         /*Refresh the style with new signal function*/
 129:..\lvgl\lv_objx/lv_label.c ****         lv_obj_refresh_style(new_label);
 130:..\lvgl\lv_objx/lv_label.c ****     }
 131:..\lvgl\lv_objx/lv_label.c **** 
 132:..\lvgl\lv_objx/lv_label.c **** 
 133:..\lvgl\lv_objx/lv_label.c ****     LV_LOG_INFO("label created");
 134:..\lvgl\lv_objx/lv_label.c **** 
 135:..\lvgl\lv_objx/lv_label.c ****     return new_label;
 136:..\lvgl\lv_objx/lv_label.c **** }
 137:..\lvgl\lv_objx/lv_label.c **** 
 138:..\lvgl\lv_objx/lv_label.c **** /*=====================
 139:..\lvgl\lv_objx/lv_label.c ****  * Setter functions
 140:..\lvgl\lv_objx/lv_label.c ****  *====================*/
 141:..\lvgl\lv_objx/lv_label.c **** 
 142:..\lvgl\lv_objx/lv_label.c **** /**
 143:..\lvgl\lv_objx/lv_label.c ****  * Set a new text for a label. Memory will be allocated to store the text by the label.
 144:..\lvgl\lv_objx/lv_label.c ****  * @param label pointer to a label object
 145:..\lvgl\lv_objx/lv_label.c ****  * @param text '\0' terminated character string. NULL to refresh with the current text.
ARM GAS  C:\Users\d3bug\AppData\Local\Temp\cct3SNM7.s 			page 4


 146:..\lvgl\lv_objx/lv_label.c ****  */
 147:..\lvgl\lv_objx/lv_label.c **** void lv_label_set_text(lv_obj_t * label, const char * text)
 148:..\lvgl\lv_objx/lv_label.c **** {
 149:..\lvgl\lv_objx/lv_label.c ****     lv_obj_invalidate(label);
 150:..\lvgl\lv_objx/lv_label.c **** 
 151:..\lvgl\lv_objx/lv_label.c ****     lv_label_ext_t * ext = lv_obj_get_ext_attr(label);
 152:..\lvgl\lv_objx/lv_label.c **** 
 153:..\lvgl\lv_objx/lv_label.c ****     /*If text is NULL then refresh */
 154:..\lvgl\lv_objx/lv_label.c ****     if(text == NULL) {
 155:..\lvgl\lv_objx/lv_label.c ****         lv_label_refr_text(label);
 156:..\lvgl\lv_objx/lv_label.c ****         return;
 157:..\lvgl\lv_objx/lv_label.c ****     }
 158:..\lvgl\lv_objx/lv_label.c **** 
 159:..\lvgl\lv_objx/lv_label.c ****     if(ext->text == text) {
 160:..\lvgl\lv_objx/lv_label.c ****         /*If set its own text then reallocate it (maybe its size changed)*/
 161:..\lvgl\lv_objx/lv_label.c ****         ext->text = lv_mem_realloc(ext->text, strlen(ext->text) + 1);
 162:..\lvgl\lv_objx/lv_label.c ****         lv_mem_assert(ext->text);
 163:..\lvgl\lv_objx/lv_label.c ****         if(ext->text == NULL) return;
 164:..\lvgl\lv_objx/lv_label.c ****     } else {
 165:..\lvgl\lv_objx/lv_label.c ****         /*Allocate space for the new text*/
 166:..\lvgl\lv_objx/lv_label.c ****         uint32_t len = strlen(text) + 1;
 167:..\lvgl\lv_objx/lv_label.c ****         if(ext->text != NULL && ext->static_txt == 0) {
 168:..\lvgl\lv_objx/lv_label.c ****             lv_mem_free(ext->text);
 169:..\lvgl\lv_objx/lv_label.c ****             ext->text = NULL;
 170:..\lvgl\lv_objx/lv_label.c ****         }
 171:..\lvgl\lv_objx/lv_label.c **** 
 172:..\lvgl\lv_objx/lv_label.c ****         ext->text = lv_mem_alloc(len);
 173:..\lvgl\lv_objx/lv_label.c ****         lv_mem_assert(ext->text);
 174:..\lvgl\lv_objx/lv_label.c ****         if(ext->text == NULL) return;
 175:..\lvgl\lv_objx/lv_label.c **** 
 176:..\lvgl\lv_objx/lv_label.c ****         strcpy(ext->text, text);
 177:..\lvgl\lv_objx/lv_label.c ****         ext->static_txt = 0;    /*Now the text is dynamically allocated*/
 178:..\lvgl\lv_objx/lv_label.c ****     }
 179:..\lvgl\lv_objx/lv_label.c **** 
 180:..\lvgl\lv_objx/lv_label.c ****     lv_label_refr_text(label);
 181:..\lvgl\lv_objx/lv_label.c **** }
 182:..\lvgl\lv_objx/lv_label.c **** 
 183:..\lvgl\lv_objx/lv_label.c **** /**
 184:..\lvgl\lv_objx/lv_label.c ****  * Set a new text for a label from a character array. The array don't has to be '\0' terminated.
 185:..\lvgl\lv_objx/lv_label.c ****  * Memory will be allocated to store the array by the label.
 186:..\lvgl\lv_objx/lv_label.c ****  * @param label pointer to a label object
 187:..\lvgl\lv_objx/lv_label.c ****  * @param array array of characters or NULL to refresh the label
 188:..\lvgl\lv_objx/lv_label.c ****  * @param size the size of 'array' in bytes
 189:..\lvgl\lv_objx/lv_label.c ****  */
 190:..\lvgl\lv_objx/lv_label.c **** void lv_label_set_array_text(lv_obj_t * label, const char * array, uint16_t size)
 191:..\lvgl\lv_objx/lv_label.c **** {
 192:..\lvgl\lv_objx/lv_label.c ****     lv_obj_invalidate(label);
 193:..\lvgl\lv_objx/lv_label.c **** 
 194:..\lvgl\lv_objx/lv_label.c ****     lv_label_ext_t * ext = lv_obj_get_ext_attr(label);
 195:..\lvgl\lv_objx/lv_label.c **** 
 196:..\lvgl\lv_objx/lv_label.c ****     /*If trying to set its own text or the array is NULL then refresh */
 197:..\lvgl\lv_objx/lv_label.c ****     if(array == ext->text || array == NULL) {
 198:..\lvgl\lv_objx/lv_label.c ****         lv_label_refr_text(label);
 199:..\lvgl\lv_objx/lv_label.c ****         return;
 200:..\lvgl\lv_objx/lv_label.c ****     }
 201:..\lvgl\lv_objx/lv_label.c **** 
 202:..\lvgl\lv_objx/lv_label.c ****     /*Allocate space for the new text*/
ARM GAS  C:\Users\d3bug\AppData\Local\Temp\cct3SNM7.s 			page 5


 203:..\lvgl\lv_objx/lv_label.c ****     if(ext->text != NULL && ext->static_txt == 0) {
 204:..\lvgl\lv_objx/lv_label.c ****         lv_mem_free(ext->text);
 205:..\lvgl\lv_objx/lv_label.c ****         ext->text = NULL;
 206:..\lvgl\lv_objx/lv_label.c ****     }
 207:..\lvgl\lv_objx/lv_label.c ****     ext->text = lv_mem_alloc(size + 1);
 208:..\lvgl\lv_objx/lv_label.c ****     lv_mem_assert(ext->text);
 209:..\lvgl\lv_objx/lv_label.c ****     if(ext->text == NULL) return;
 210:..\lvgl\lv_objx/lv_label.c **** 
 211:..\lvgl\lv_objx/lv_label.c ****     memcpy(ext->text, array, size);
 212:..\lvgl\lv_objx/lv_label.c ****     ext->text[size] = '\0';
 213:..\lvgl\lv_objx/lv_label.c ****     ext->static_txt = 0;    /*Now the text is dynamically allocated*/
 214:..\lvgl\lv_objx/lv_label.c **** 
 215:..\lvgl\lv_objx/lv_label.c ****     lv_label_refr_text(label);
 216:..\lvgl\lv_objx/lv_label.c **** }
 217:..\lvgl\lv_objx/lv_label.c **** 
 218:..\lvgl\lv_objx/lv_label.c **** /**
 219:..\lvgl\lv_objx/lv_label.c ****  * Set a static text. It will not be saved by the label so the 'text' variable
 220:..\lvgl\lv_objx/lv_label.c ****  * has to be 'alive' while the label exist.
 221:..\lvgl\lv_objx/lv_label.c ****  * @param label pointer to a label object
 222:..\lvgl\lv_objx/lv_label.c ****  * @param text pointer to a text. NULL to refresh with the current text.
 223:..\lvgl\lv_objx/lv_label.c ****  */
 224:..\lvgl\lv_objx/lv_label.c **** void lv_label_set_static_text(lv_obj_t * label, const char * text)
 225:..\lvgl\lv_objx/lv_label.c **** {
 226:..\lvgl\lv_objx/lv_label.c ****     lv_label_ext_t * ext = lv_obj_get_ext_attr(label);
 227:..\lvgl\lv_objx/lv_label.c ****     if(ext->static_txt == 0 && ext->text != NULL) {
 228:..\lvgl\lv_objx/lv_label.c ****         lv_mem_free(ext->text);
 229:..\lvgl\lv_objx/lv_label.c ****         ext->text = NULL;
 230:..\lvgl\lv_objx/lv_label.c ****     }
 231:..\lvgl\lv_objx/lv_label.c **** 
 232:..\lvgl\lv_objx/lv_label.c ****     if(text != NULL) {
 233:..\lvgl\lv_objx/lv_label.c ****         ext->static_txt = 1;
 234:..\lvgl\lv_objx/lv_label.c ****         ext->text = (char *) text;
 235:..\lvgl\lv_objx/lv_label.c ****     }
 236:..\lvgl\lv_objx/lv_label.c **** 
 237:..\lvgl\lv_objx/lv_label.c ****     lv_label_refr_text(label);
 238:..\lvgl\lv_objx/lv_label.c **** }
 239:..\lvgl\lv_objx/lv_label.c **** 
 240:..\lvgl\lv_objx/lv_label.c **** #if USE_LV_MULTI_LANG
 241:..\lvgl\lv_objx/lv_label.c **** /**
 242:..\lvgl\lv_objx/lv_label.c ****  *Set a text ID which refers a the same text but in a different languages
 243:..\lvgl\lv_objx/lv_label.c ****  * @param label pointer to a label object
 244:..\lvgl\lv_objx/lv_label.c ****  * @param txt_id ID of the text
 245:..\lvgl\lv_objx/lv_label.c ****  */
 246:..\lvgl\lv_objx/lv_label.c **** void lv_label_set_text_id(lv_obj_t * label, uint32_t txt_id)
 247:..\lvgl\lv_objx/lv_label.c **** {
 248:..\lvgl\lv_objx/lv_label.c ****     lv_label_ext_t * ext = lv_obj_get_ext_attr(label);
 249:..\lvgl\lv_objx/lv_label.c ****     ext->lang_txt_id = txt_id;
 250:..\lvgl\lv_objx/lv_label.c **** 
 251:..\lvgl\lv_objx/lv_label.c ****     /*Apply the new language*/
 252:..\lvgl\lv_objx/lv_label.c ****     label->signal_func(label, LV_SIGNAL_LANG_CHG, NULL);
 253:..\lvgl\lv_objx/lv_label.c **** }
 254:..\lvgl\lv_objx/lv_label.c **** #endif
 255:..\lvgl\lv_objx/lv_label.c **** 
 256:..\lvgl\lv_objx/lv_label.c **** /**
 257:..\lvgl\lv_objx/lv_label.c ****  * Set the behavior of the label with longer text then the object size
 258:..\lvgl\lv_objx/lv_label.c ****  * @param label pointer to a label object
 259:..\lvgl\lv_objx/lv_label.c ****  * @param long_mode the new mode from 'lv_label_long_mode' enum.
ARM GAS  C:\Users\d3bug\AppData\Local\Temp\cct3SNM7.s 			page 6


 260:..\lvgl\lv_objx/lv_label.c ****  *                  In LV_LONG_BREAK/LONG/ROLL the size of the label should be set AFTER this funct
 261:..\lvgl\lv_objx/lv_label.c ****  */
 262:..\lvgl\lv_objx/lv_label.c **** void lv_label_set_long_mode(lv_obj_t * label, lv_label_long_mode_t long_mode)
 263:..\lvgl\lv_objx/lv_label.c **** {
 264:..\lvgl\lv_objx/lv_label.c ****     lv_label_ext_t * ext = lv_obj_get_ext_attr(label);
 265:..\lvgl\lv_objx/lv_label.c **** 
 266:..\lvgl\lv_objx/lv_label.c **** #if USE_LV_ANIMATION
 267:..\lvgl\lv_objx/lv_label.c ****     /*Delete the old animation (if exists)*/
 268:..\lvgl\lv_objx/lv_label.c ****     lv_anim_del(label, (lv_anim_fp_t) lv_obj_set_x);
 269:..\lvgl\lv_objx/lv_label.c ****     lv_anim_del(label, (lv_anim_fp_t) lv_obj_set_y);
 270:..\lvgl\lv_objx/lv_label.c ****     lv_anim_del(label, (lv_anim_fp_t) lv_label_set_offset_x);
 271:..\lvgl\lv_objx/lv_label.c ****     lv_anim_del(label, (lv_anim_fp_t) lv_label_set_offset_y);
 272:..\lvgl\lv_objx/lv_label.c **** #endif
 273:..\lvgl\lv_objx/lv_label.c ****     ext->offset.x = 0;
 274:..\lvgl\lv_objx/lv_label.c ****     ext->offset.y = 0;
 275:..\lvgl\lv_objx/lv_label.c **** 
 276:..\lvgl\lv_objx/lv_label.c ****     if(long_mode == LV_LABEL_LONG_ROLL || long_mode == LV_LABEL_LONG_CROP) ext->expand = 1;
 277:..\lvgl\lv_objx/lv_label.c ****     else ext->expand = 0;
 278:..\lvgl\lv_objx/lv_label.c **** 
 279:..\lvgl\lv_objx/lv_label.c ****     /*Restore the character under the dots*/
 280:..\lvgl\lv_objx/lv_label.c ****     if(ext->long_mode == LV_LABEL_LONG_DOT && ext->dot_end != LV_LABEL_DOT_END_INV) {
 281:..\lvgl\lv_objx/lv_label.c ****         lv_label_revert_dots(label);
 282:..\lvgl\lv_objx/lv_label.c ****     }
 283:..\lvgl\lv_objx/lv_label.c **** 
 284:..\lvgl\lv_objx/lv_label.c ****     ext->long_mode = long_mode;
 285:..\lvgl\lv_objx/lv_label.c ****     lv_label_refr_text(label);
 286:..\lvgl\lv_objx/lv_label.c **** }
 287:..\lvgl\lv_objx/lv_label.c **** 
 288:..\lvgl\lv_objx/lv_label.c **** /**
 289:..\lvgl\lv_objx/lv_label.c ****  * Set the align of the label (left or center)
 290:..\lvgl\lv_objx/lv_label.c ****  * @param label pointer to a label object
 291:..\lvgl\lv_objx/lv_label.c ****  * @param align 'LV_LABEL_ALIGN_LEFT' or 'LV_LABEL_ALIGN_LEFT'
 292:..\lvgl\lv_objx/lv_label.c ****  */
 293:..\lvgl\lv_objx/lv_label.c **** void lv_label_set_align(lv_obj_t * label, lv_label_align_t align)
 294:..\lvgl\lv_objx/lv_label.c **** {
 295:..\lvgl\lv_objx/lv_label.c ****     lv_label_ext_t * ext = lv_obj_get_ext_attr(label);
 296:..\lvgl\lv_objx/lv_label.c ****     if(ext->align == align) return;
 297:..\lvgl\lv_objx/lv_label.c **** 
 298:..\lvgl\lv_objx/lv_label.c ****     ext->align = align;
 299:..\lvgl\lv_objx/lv_label.c **** 
 300:..\lvgl\lv_objx/lv_label.c ****     lv_obj_invalidate(label);       /*Enough to invalidate because alignment is only drawing relate
 301:..\lvgl\lv_objx/lv_label.c **** }
 302:..\lvgl\lv_objx/lv_label.c **** 
 303:..\lvgl\lv_objx/lv_label.c **** /**
 304:..\lvgl\lv_objx/lv_label.c ****  * Enable the recoloring by in-line commands
 305:..\lvgl\lv_objx/lv_label.c ****  * @param label pointer to a label object
 306:..\lvgl\lv_objx/lv_label.c ****  * @param en true: enable recoloring, false: disable
 307:..\lvgl\lv_objx/lv_label.c ****  */
 308:..\lvgl\lv_objx/lv_label.c **** void lv_label_set_recolor(lv_obj_t * label, bool en)
 309:..\lvgl\lv_objx/lv_label.c **** {
 310:..\lvgl\lv_objx/lv_label.c ****     lv_label_ext_t * ext = lv_obj_get_ext_attr(label);
 311:..\lvgl\lv_objx/lv_label.c ****     if(ext->recolor == en) return;
 312:..\lvgl\lv_objx/lv_label.c **** 
 313:..\lvgl\lv_objx/lv_label.c ****     ext->recolor = en == false ? 0 : 1;
 314:..\lvgl\lv_objx/lv_label.c **** 
 315:..\lvgl\lv_objx/lv_label.c ****     lv_label_refr_text(label);  /*Refresh the text because the potential colo codes in text needs t
 316:..\lvgl\lv_objx/lv_label.c **** }
ARM GAS  C:\Users\d3bug\AppData\Local\Temp\cct3SNM7.s 			page 7


 317:..\lvgl\lv_objx/lv_label.c **** 
 318:..\lvgl\lv_objx/lv_label.c **** /**
 319:..\lvgl\lv_objx/lv_label.c ****  * Set the label to draw (or not draw) background specified in its style's body
 320:..\lvgl\lv_objx/lv_label.c ****  * @param label pointer to a label object
 321:..\lvgl\lv_objx/lv_label.c ****  * @param en true: draw body; false: don't draw body
 322:..\lvgl\lv_objx/lv_label.c ****  */
 323:..\lvgl\lv_objx/lv_label.c **** void lv_label_set_body_draw(lv_obj_t * label, bool en)
 324:..\lvgl\lv_objx/lv_label.c **** {
 325:..\lvgl\lv_objx/lv_label.c ****     lv_label_ext_t * ext = lv_obj_get_ext_attr(label);
 326:..\lvgl\lv_objx/lv_label.c ****     if(ext->body_draw == en) return;
 327:..\lvgl\lv_objx/lv_label.c **** 
 328:..\lvgl\lv_objx/lv_label.c ****     ext->body_draw = en == false ? 0 : 1;
 329:..\lvgl\lv_objx/lv_label.c **** 
 330:..\lvgl\lv_objx/lv_label.c ****     lv_obj_refresh_ext_size(label);
 331:..\lvgl\lv_objx/lv_label.c **** 
 332:..\lvgl\lv_objx/lv_label.c ****     lv_obj_invalidate(label);
 333:..\lvgl\lv_objx/lv_label.c **** }
 334:..\lvgl\lv_objx/lv_label.c **** 
 335:..\lvgl\lv_objx/lv_label.c **** /**
 336:..\lvgl\lv_objx/lv_label.c ****  * Set the label's animation speed in LV_LABEL_LONG_ROLL and SCROLL modes
 337:..\lvgl\lv_objx/lv_label.c ****  * @param label pointer to a label object
 338:..\lvgl\lv_objx/lv_label.c ****  * @param anim_speed speed of animation in px/sec unit
 339:..\lvgl\lv_objx/lv_label.c ****  */
 340:..\lvgl\lv_objx/lv_label.c **** void lv_label_set_anim_speed(lv_obj_t * label, uint16_t anim_speed)
 341:..\lvgl\lv_objx/lv_label.c **** {
 342:..\lvgl\lv_objx/lv_label.c ****     lv_label_ext_t * ext = lv_obj_get_ext_attr(label);
 343:..\lvgl\lv_objx/lv_label.c ****     if(ext->anim_speed == anim_speed) return;
 344:..\lvgl\lv_objx/lv_label.c **** 
 345:..\lvgl\lv_objx/lv_label.c ****     ext->anim_speed = anim_speed;
 346:..\lvgl\lv_objx/lv_label.c **** 
 347:..\lvgl\lv_objx/lv_label.c ****     if(ext->long_mode == LV_LABEL_LONG_ROLL || ext->long_mode == LV_LABEL_LONG_SCROLL) {
 348:..\lvgl\lv_objx/lv_label.c ****         lv_label_refr_text(label);
 349:..\lvgl\lv_objx/lv_label.c ****     }
 350:..\lvgl\lv_objx/lv_label.c **** }
 351:..\lvgl\lv_objx/lv_label.c **** 
 352:..\lvgl\lv_objx/lv_label.c **** /*=====================
 353:..\lvgl\lv_objx/lv_label.c ****  * Getter functions
 354:..\lvgl\lv_objx/lv_label.c ****  *====================*/
 355:..\lvgl\lv_objx/lv_label.c **** 
 356:..\lvgl\lv_objx/lv_label.c **** /**
 357:..\lvgl\lv_objx/lv_label.c ****  * Get the text of a label
 358:..\lvgl\lv_objx/lv_label.c ****  * @param label pointer to a label object
 359:..\lvgl\lv_objx/lv_label.c ****  * @return the text of the label
 360:..\lvgl\lv_objx/lv_label.c ****  */
 361:..\lvgl\lv_objx/lv_label.c **** char * lv_label_get_text(const lv_obj_t * label)
 362:..\lvgl\lv_objx/lv_label.c **** {
 363:..\lvgl\lv_objx/lv_label.c ****     lv_label_ext_t * ext = lv_obj_get_ext_attr(label);
 364:..\lvgl\lv_objx/lv_label.c **** 
 365:..\lvgl\lv_objx/lv_label.c ****     return ext->text;
 366:..\lvgl\lv_objx/lv_label.c **** }
 367:..\lvgl\lv_objx/lv_label.c **** 
 368:..\lvgl\lv_objx/lv_label.c **** #if USE_LV_MULTI_LANG
 369:..\lvgl\lv_objx/lv_label.c **** /**
 370:..\lvgl\lv_objx/lv_label.c ****  * Get the text ID of the label. (Used by the multi-language feature)
 371:..\lvgl\lv_objx/lv_label.c ****  * @param label pointer to a label object
 372:..\lvgl\lv_objx/lv_label.c ****  * @return ID of the text
 373:..\lvgl\lv_objx/lv_label.c ****  */
ARM GAS  C:\Users\d3bug\AppData\Local\Temp\cct3SNM7.s 			page 8


 374:..\lvgl\lv_objx/lv_label.c **** uint16_t lv_label_get_text_id(lv_obj_t * label)
 375:..\lvgl\lv_objx/lv_label.c **** {
 376:..\lvgl\lv_objx/lv_label.c ****     lv_label_ext_t * ext = lv_obj_get_ext_attr(label);
 377:..\lvgl\lv_objx/lv_label.c ****     return ext->lang_txt_id;
 378:..\lvgl\lv_objx/lv_label.c **** }
 379:..\lvgl\lv_objx/lv_label.c **** #endif
 380:..\lvgl\lv_objx/lv_label.c **** 
 381:..\lvgl\lv_objx/lv_label.c **** /**
 382:..\lvgl\lv_objx/lv_label.c ****  * Get the long mode of a label
 383:..\lvgl\lv_objx/lv_label.c ****  * @param label pointer to a label object
 384:..\lvgl\lv_objx/lv_label.c ****  * @return the long mode
 385:..\lvgl\lv_objx/lv_label.c ****  */
 386:..\lvgl\lv_objx/lv_label.c **** lv_label_long_mode_t lv_label_get_long_mode(const lv_obj_t * label)
 387:..\lvgl\lv_objx/lv_label.c **** {
 388:..\lvgl\lv_objx/lv_label.c ****     lv_label_ext_t * ext = lv_obj_get_ext_attr(label);
 389:..\lvgl\lv_objx/lv_label.c ****     return ext->long_mode;
 390:..\lvgl\lv_objx/lv_label.c **** }
 391:..\lvgl\lv_objx/lv_label.c **** 
 392:..\lvgl\lv_objx/lv_label.c **** /**
 393:..\lvgl\lv_objx/lv_label.c ****  * Get the align attribute
 394:..\lvgl\lv_objx/lv_label.c ****  * @param label pointer to a label object
 395:..\lvgl\lv_objx/lv_label.c ****  * @return LV_LABEL_ALIGN_LEFT or LV_LABEL_ALIGN_CENTER
 396:..\lvgl\lv_objx/lv_label.c ****  */
 397:..\lvgl\lv_objx/lv_label.c **** lv_label_align_t lv_label_get_align(const lv_obj_t * label)
 398:..\lvgl\lv_objx/lv_label.c **** {
 399:..\lvgl\lv_objx/lv_label.c ****     lv_label_ext_t * ext = lv_obj_get_ext_attr(label);
 400:..\lvgl\lv_objx/lv_label.c ****     return ext->align;
 401:..\lvgl\lv_objx/lv_label.c **** }
 402:..\lvgl\lv_objx/lv_label.c **** 
 403:..\lvgl\lv_objx/lv_label.c **** /**
 404:..\lvgl\lv_objx/lv_label.c ****  * Get the recoloring attribute
 405:..\lvgl\lv_objx/lv_label.c ****  * @param label pointer to a label object
 406:..\lvgl\lv_objx/lv_label.c ****  * @return true: recoloring is enabled, false: disable
 407:..\lvgl\lv_objx/lv_label.c ****  */
 408:..\lvgl\lv_objx/lv_label.c **** bool lv_label_get_recolor(const lv_obj_t * label)
 409:..\lvgl\lv_objx/lv_label.c **** {
 410:..\lvgl\lv_objx/lv_label.c ****     lv_label_ext_t * ext = lv_obj_get_ext_attr(label);
 411:..\lvgl\lv_objx/lv_label.c ****     return ext->recolor == 0 ? false : true;
 412:..\lvgl\lv_objx/lv_label.c **** }
 413:..\lvgl\lv_objx/lv_label.c **** 
 414:..\lvgl\lv_objx/lv_label.c **** /**
 415:..\lvgl\lv_objx/lv_label.c ****  * Get the body draw attribute
 416:..\lvgl\lv_objx/lv_label.c ****  * @param label pointer to a label object
 417:..\lvgl\lv_objx/lv_label.c ****  * @return true: draw body; false: don't draw body
 418:..\lvgl\lv_objx/lv_label.c ****  */
 419:..\lvgl\lv_objx/lv_label.c **** bool lv_label_get_body_draw(const lv_obj_t * label)
 420:..\lvgl\lv_objx/lv_label.c **** {
 421:..\lvgl\lv_objx/lv_label.c ****     lv_label_ext_t * ext = lv_obj_get_ext_attr(label);
 422:..\lvgl\lv_objx/lv_label.c ****     return ext->body_draw == 0 ? false : true;
 423:..\lvgl\lv_objx/lv_label.c **** }
 424:..\lvgl\lv_objx/lv_label.c **** 
 425:..\lvgl\lv_objx/lv_label.c **** /**
 426:..\lvgl\lv_objx/lv_label.c ****  * Get the label's animation speed in LV_LABEL_LONG_ROLL and SCROLL modes
 427:..\lvgl\lv_objx/lv_label.c ****  * @param label pointer to a label object
 428:..\lvgl\lv_objx/lv_label.c ****  * @return speed of animation in px/sec unit
 429:..\lvgl\lv_objx/lv_label.c ****  */
 430:..\lvgl\lv_objx/lv_label.c **** uint16_t lv_label_get_anim_speed(const lv_obj_t * label)
ARM GAS  C:\Users\d3bug\AppData\Local\Temp\cct3SNM7.s 			page 9


 431:..\lvgl\lv_objx/lv_label.c **** {
 432:..\lvgl\lv_objx/lv_label.c ****     lv_label_ext_t * ext = lv_obj_get_ext_attr(label);
 433:..\lvgl\lv_objx/lv_label.c ****     return ext->anim_speed;
 434:..\lvgl\lv_objx/lv_label.c **** }
 435:..\lvgl\lv_objx/lv_label.c **** 
 436:..\lvgl\lv_objx/lv_label.c **** /**
 437:..\lvgl\lv_objx/lv_label.c ****  * Get the relative x and y coordinates of a letter
 438:..\lvgl\lv_objx/lv_label.c ****  * @param label pointer to a label object
 439:..\lvgl\lv_objx/lv_label.c ****  * @param index index of the letter [0 ... text length]. Expressed in character index, not byte ind
 440:..\lvgl\lv_objx/lv_label.c ****  * @param pos store the result here (E.g. index = 0 gives 0;0 coordinates)
 441:..\lvgl\lv_objx/lv_label.c ****  */
 442:..\lvgl\lv_objx/lv_label.c **** void lv_label_get_letter_pos(const lv_obj_t * label, uint16_t index, lv_point_t * pos)
 443:..\lvgl\lv_objx/lv_label.c **** {
 444:..\lvgl\lv_objx/lv_label.c ****     const char * txt = lv_label_get_text(label);
 445:..\lvgl\lv_objx/lv_label.c ****     lv_label_ext_t * ext = lv_obj_get_ext_attr(label);
 446:..\lvgl\lv_objx/lv_label.c ****     uint32_t line_start = 0;
 447:..\lvgl\lv_objx/lv_label.c ****     uint32_t new_line_start = 0;
 448:..\lvgl\lv_objx/lv_label.c ****     lv_coord_t max_w = lv_obj_get_width(label);
 449:..\lvgl\lv_objx/lv_label.c ****     lv_style_t * style = lv_obj_get_style(label);
 450:..\lvgl\lv_objx/lv_label.c ****     const lv_font_t * font = style->text.font;
 451:..\lvgl\lv_objx/lv_label.c ****     uint8_t letter_height = lv_font_get_height(font);
 452:..\lvgl\lv_objx/lv_label.c ****     lv_coord_t y = 0;
 453:..\lvgl\lv_objx/lv_label.c ****     lv_txt_flag_t flag = LV_TXT_FLAG_NONE;
 454:..\lvgl\lv_objx/lv_label.c **** 
 455:..\lvgl\lv_objx/lv_label.c ****     if(ext->recolor != 0) flag |= LV_TXT_FLAG_RECOLOR;
 456:..\lvgl\lv_objx/lv_label.c ****     if(ext->expand != 0) flag |= LV_TXT_FLAG_EXPAND;
 457:..\lvgl\lv_objx/lv_label.c ****     if(ext->align == LV_LABEL_ALIGN_CENTER) flag |= LV_TXT_FLAG_CENTER;
 458:..\lvgl\lv_objx/lv_label.c **** 
 459:..\lvgl\lv_objx/lv_label.c ****     /*If the width will be expanded  the set the max length to very big */
 460:..\lvgl\lv_objx/lv_label.c ****     if(ext->long_mode == LV_LABEL_LONG_EXPAND || ext->long_mode == LV_LABEL_LONG_SCROLL) {
 461:..\lvgl\lv_objx/lv_label.c ****         max_w = LV_COORD_MAX;
 462:..\lvgl\lv_objx/lv_label.c ****     }
 463:..\lvgl\lv_objx/lv_label.c **** 
 464:..\lvgl\lv_objx/lv_label.c ****     index = lv_txt_encoded_get_byte_id(txt, index);
 465:..\lvgl\lv_objx/lv_label.c **** 
 466:..\lvgl\lv_objx/lv_label.c ****     /*Search the line of the index letter */;
 467:..\lvgl\lv_objx/lv_label.c ****     while(txt[new_line_start] != '\0') {
 468:..\lvgl\lv_objx/lv_label.c ****         new_line_start += lv_txt_get_next_line(&txt[line_start], font, style->text.letter_space, ma
 469:..\lvgl\lv_objx/lv_label.c ****         if(index < new_line_start || txt[new_line_start] == '\0') break; /*The line of 'index' lett
 470:..\lvgl\lv_objx/lv_label.c **** 
 471:..\lvgl\lv_objx/lv_label.c ****         y += letter_height + style->text.line_space;
 472:..\lvgl\lv_objx/lv_label.c ****         line_start = new_line_start;
 473:..\lvgl\lv_objx/lv_label.c ****     }
 474:..\lvgl\lv_objx/lv_label.c **** 
 475:..\lvgl\lv_objx/lv_label.c ****     /*If the last character is line break then go to the next line*/
 476:..\lvgl\lv_objx/lv_label.c ****     if(index > 0) {
 477:..\lvgl\lv_objx/lv_label.c ****         if((txt[index - 1] == '\n' || txt[index - 1] == '\r') && txt[index] == '\0') {
 478:..\lvgl\lv_objx/lv_label.c ****             y += letter_height + style->text.line_space;
 479:..\lvgl\lv_objx/lv_label.c ****             line_start = index;
 480:..\lvgl\lv_objx/lv_label.c ****         }
 481:..\lvgl\lv_objx/lv_label.c ****     }
 482:..\lvgl\lv_objx/lv_label.c **** 
 483:..\lvgl\lv_objx/lv_label.c ****     /*Calculate the x coordinate*/
 484:..\lvgl\lv_objx/lv_label.c ****     lv_coord_t x = lv_txt_get_width(&txt[line_start], index - line_start,
 485:..\lvgl\lv_objx/lv_label.c ****                             font, style->text.letter_space, flag);
 486:..\lvgl\lv_objx/lv_label.c **** 
 487:..\lvgl\lv_objx/lv_label.c ****     if(index != line_start) x += style->text.letter_space;
ARM GAS  C:\Users\d3bug\AppData\Local\Temp\cct3SNM7.s 			page 10


 488:..\lvgl\lv_objx/lv_label.c **** 
 489:..\lvgl\lv_objx/lv_label.c ****     if(ext->align == LV_LABEL_ALIGN_CENTER) {
 490:..\lvgl\lv_objx/lv_label.c ****         lv_coord_t line_w;
 491:..\lvgl\lv_objx/lv_label.c ****         line_w = lv_txt_get_width(&txt[line_start], new_line_start - line_start,
 492:..\lvgl\lv_objx/lv_label.c ****                                   font, style->text.letter_space, flag);
 493:..\lvgl\lv_objx/lv_label.c ****         x += lv_obj_get_width(label) / 2 - line_w / 2;
 494:..\lvgl\lv_objx/lv_label.c **** 
 495:..\lvgl\lv_objx/lv_label.c ****     } else if(ext->align == LV_LABEL_ALIGN_RIGHT) {
 496:..\lvgl\lv_objx/lv_label.c ****         lv_coord_t line_w;
 497:..\lvgl\lv_objx/lv_label.c ****         line_w = lv_txt_get_width(&txt[line_start], new_line_start - line_start,
 498:..\lvgl\lv_objx/lv_label.c ****                                   font, style->text.letter_space, flag);
 499:..\lvgl\lv_objx/lv_label.c **** 
 500:..\lvgl\lv_objx/lv_label.c ****         x += lv_obj_get_width(label) - line_w;
 501:..\lvgl\lv_objx/lv_label.c ****     }
 502:..\lvgl\lv_objx/lv_label.c ****     pos->x = x;
 503:..\lvgl\lv_objx/lv_label.c ****     pos->y = y;
 504:..\lvgl\lv_objx/lv_label.c **** }
 505:..\lvgl\lv_objx/lv_label.c **** 
 506:..\lvgl\lv_objx/lv_label.c **** /**
 507:..\lvgl\lv_objx/lv_label.c ****  * Get the index of letter on a relative point of a label
 508:..\lvgl\lv_objx/lv_label.c ****  * @param label pointer to label object
 509:..\lvgl\lv_objx/lv_label.c ****  * @param pos pointer to point with coordinates on a the label
 510:..\lvgl\lv_objx/lv_label.c ****  * @return the index of the letter on the 'pos_p' point (E.g. on 0;0 is the 0. letter)
 511:..\lvgl\lv_objx/lv_label.c ****  * Expressed in character index and not byte index (different in UTF-8)
 512:..\lvgl\lv_objx/lv_label.c ****  */
 513:..\lvgl\lv_objx/lv_label.c **** uint16_t lv_label_get_letter_on(const lv_obj_t * label, lv_point_t * pos)
 514:..\lvgl\lv_objx/lv_label.c **** {
 515:..\lvgl\lv_objx/lv_label.c ****     const char * txt = lv_label_get_text(label);
 516:..\lvgl\lv_objx/lv_label.c ****     lv_label_ext_t * ext = lv_obj_get_ext_attr(label);
 517:..\lvgl\lv_objx/lv_label.c ****     uint32_t line_start = 0;
 518:..\lvgl\lv_objx/lv_label.c ****     uint32_t new_line_start = 0;
 519:..\lvgl\lv_objx/lv_label.c ****     lv_coord_t max_w = lv_obj_get_width(label);
 520:..\lvgl\lv_objx/lv_label.c ****     lv_style_t * style = lv_obj_get_style(label);
 521:..\lvgl\lv_objx/lv_label.c ****     const lv_font_t * font = style->text.font;
 522:..\lvgl\lv_objx/lv_label.c ****     uint8_t letter_height = lv_font_get_height(font);
 523:..\lvgl\lv_objx/lv_label.c ****     lv_coord_t y = 0;
 524:..\lvgl\lv_objx/lv_label.c ****     lv_txt_flag_t flag = LV_TXT_FLAG_NONE;
 525:..\lvgl\lv_objx/lv_label.c **** 
 526:..\lvgl\lv_objx/lv_label.c ****     if(ext->recolor != 0) flag |= LV_TXT_FLAG_RECOLOR;
 527:..\lvgl\lv_objx/lv_label.c ****     if(ext->expand != 0) flag |= LV_TXT_FLAG_EXPAND;
 528:..\lvgl\lv_objx/lv_label.c ****     if(ext->align == LV_LABEL_ALIGN_CENTER) flag |= LV_TXT_FLAG_CENTER;
 529:..\lvgl\lv_objx/lv_label.c **** 
 530:..\lvgl\lv_objx/lv_label.c ****     /*If the width will be expanded set the max length to very big */
 531:..\lvgl\lv_objx/lv_label.c ****     if(ext->long_mode == LV_LABEL_LONG_EXPAND || ext->long_mode == LV_LABEL_LONG_SCROLL) {
 532:..\lvgl\lv_objx/lv_label.c ****         max_w = LV_COORD_MAX;
 533:..\lvgl\lv_objx/lv_label.c ****     }
 534:..\lvgl\lv_objx/lv_label.c **** 
 535:..\lvgl\lv_objx/lv_label.c ****     /*Search the line of the index letter */;
 536:..\lvgl\lv_objx/lv_label.c ****     while(txt[line_start] != '\0') {
 537:..\lvgl\lv_objx/lv_label.c ****         new_line_start += lv_txt_get_next_line(&txt[line_start], font, style->text.letter_space, ma
 538:..\lvgl\lv_objx/lv_label.c **** 
 539:..\lvgl\lv_objx/lv_label.c ****         if(pos->y <= y + letter_height) break; /*The line is found (stored in 'line_start')*/
 540:..\lvgl\lv_objx/lv_label.c ****         y += letter_height + style->text.line_space;
 541:..\lvgl\lv_objx/lv_label.c **** 
 542:..\lvgl\lv_objx/lv_label.c ****         line_start = new_line_start;
 543:..\lvgl\lv_objx/lv_label.c ****     }
 544:..\lvgl\lv_objx/lv_label.c **** 
ARM GAS  C:\Users\d3bug\AppData\Local\Temp\cct3SNM7.s 			page 11


 545:..\lvgl\lv_objx/lv_label.c ****     /*Calculate the x coordinate*/
 546:..\lvgl\lv_objx/lv_label.c ****     lv_coord_t x = 0;
 547:..\lvgl\lv_objx/lv_label.c ****     if(ext->align == LV_LABEL_ALIGN_CENTER) {
 548:..\lvgl\lv_objx/lv_label.c ****         lv_coord_t line_w;
 549:..\lvgl\lv_objx/lv_label.c ****         line_w = lv_txt_get_width(&txt[line_start], new_line_start - line_start,
 550:..\lvgl\lv_objx/lv_label.c ****                                   font, style->text.letter_space, flag);
 551:..\lvgl\lv_objx/lv_label.c ****         x += lv_obj_get_width(label) / 2 - line_w / 2;
 552:..\lvgl\lv_objx/lv_label.c ****     }
 553:..\lvgl\lv_objx/lv_label.c **** 
 554:..\lvgl\lv_objx/lv_label.c ****     lv_txt_cmd_state_t cmd_state = LV_TXT_CMD_STATE_WAIT;
 555:..\lvgl\lv_objx/lv_label.c ****     uint32_t i = line_start;
 556:..\lvgl\lv_objx/lv_label.c ****     uint32_t i_current = i;
 557:..\lvgl\lv_objx/lv_label.c ****     uint32_t letter;
 558:..\lvgl\lv_objx/lv_label.c ****     while(i < new_line_start - 1) {
 559:..\lvgl\lv_objx/lv_label.c ****         letter = lv_txt_encoded_next(txt, &i);    /*Be careful 'i' already points to the next chara
 560:..\lvgl\lv_objx/lv_label.c ****         /*Handle the recolor command*/
 561:..\lvgl\lv_objx/lv_label.c ****         if((flag & LV_TXT_FLAG_RECOLOR) != 0) {
 562:..\lvgl\lv_objx/lv_label.c ****             if(lv_txt_is_cmd(&cmd_state, txt[i]) != false) {
 563:..\lvgl\lv_objx/lv_label.c ****                 continue; /*Skip the letter is it is part of a command*/
 564:..\lvgl\lv_objx/lv_label.c ****             }
 565:..\lvgl\lv_objx/lv_label.c ****         }
 566:..\lvgl\lv_objx/lv_label.c **** 
 567:..\lvgl\lv_objx/lv_label.c ****         x += lv_font_get_width(font, letter);
 568:..\lvgl\lv_objx/lv_label.c ****         if(pos->x < x) {
 569:..\lvgl\lv_objx/lv_label.c ****             i = i_current;
 570:..\lvgl\lv_objx/lv_label.c ****             break;
 571:..\lvgl\lv_objx/lv_label.c ****         }
 572:..\lvgl\lv_objx/lv_label.c ****         x += style->text.letter_space;
 573:..\lvgl\lv_objx/lv_label.c ****         i_current = i;
 574:..\lvgl\lv_objx/lv_label.c ****     }
 575:..\lvgl\lv_objx/lv_label.c **** 
 576:..\lvgl\lv_objx/lv_label.c ****     return lv_encoded_get_char_id(txt, i);
 577:..\lvgl\lv_objx/lv_label.c **** }
 578:..\lvgl\lv_objx/lv_label.c **** 
 579:..\lvgl\lv_objx/lv_label.c **** 
 580:..\lvgl\lv_objx/lv_label.c **** /*=====================
 581:..\lvgl\lv_objx/lv_label.c ****  * Other functions
 582:..\lvgl\lv_objx/lv_label.c ****  *====================*/
 583:..\lvgl\lv_objx/lv_label.c **** 
 584:..\lvgl\lv_objx/lv_label.c **** /**
 585:..\lvgl\lv_objx/lv_label.c ****  * Insert a text to the label. The label text can not be static.
 586:..\lvgl\lv_objx/lv_label.c ****  * @param label pointer to a label object
 587:..\lvgl\lv_objx/lv_label.c ****  * @param pos character index to insert. Expressed in character index and not byte index (Different
 588:..\lvgl\lv_objx/lv_label.c ****  *            0: before first char.
 589:..\lvgl\lv_objx/lv_label.c ****  *            LV_LABEL_POS_LAST: after last char.
 590:..\lvgl\lv_objx/lv_label.c ****  * @param txt pointer to the text to insert
 591:..\lvgl\lv_objx/lv_label.c ****  */
 592:..\lvgl\lv_objx/lv_label.c **** void lv_label_ins_text(lv_obj_t * label, uint32_t pos,  const char * txt)
 593:..\lvgl\lv_objx/lv_label.c **** {
 594:..\lvgl\lv_objx/lv_label.c ****     lv_label_ext_t * ext = lv_obj_get_ext_attr(label);
 595:..\lvgl\lv_objx/lv_label.c **** 
 596:..\lvgl\lv_objx/lv_label.c ****     /*Can not append to static text*/
 597:..\lvgl\lv_objx/lv_label.c ****     if(ext->static_txt != 0) return;
 598:..\lvgl\lv_objx/lv_label.c **** 
 599:..\lvgl\lv_objx/lv_label.c ****     lv_obj_invalidate(label);
 600:..\lvgl\lv_objx/lv_label.c **** 
 601:..\lvgl\lv_objx/lv_label.c ****     /*Allocate space for the new text*/
ARM GAS  C:\Users\d3bug\AppData\Local\Temp\cct3SNM7.s 			page 12


 602:..\lvgl\lv_objx/lv_label.c ****     uint32_t old_len = strlen(ext->text);
 603:..\lvgl\lv_objx/lv_label.c ****     uint32_t ins_len = strlen(txt);
 604:..\lvgl\lv_objx/lv_label.c ****     uint32_t new_len = ins_len + old_len;
 605:..\lvgl\lv_objx/lv_label.c ****     ext->text = lv_mem_realloc(ext->text, new_len + 1);
 606:..\lvgl\lv_objx/lv_label.c ****     lv_mem_assert(ext->text);
 607:..\lvgl\lv_objx/lv_label.c ****     if(ext->text == NULL) return;
 608:..\lvgl\lv_objx/lv_label.c **** 
 609:..\lvgl\lv_objx/lv_label.c ****     if(pos == LV_LABEL_POS_LAST) {
 610:..\lvgl\lv_objx/lv_label.c **** #if LV_TXT_UTF8 == 0
 611:..\lvgl\lv_objx/lv_label.c ****         pos = old_len;
 612:..\lvgl\lv_objx/lv_label.c **** #else
 613:..\lvgl\lv_objx/lv_label.c ****         pos = lv_txt_get_encoded_length(ext->text);
 614:..\lvgl\lv_objx/lv_label.c **** #endif
 615:..\lvgl\lv_objx/lv_label.c ****     }
 616:..\lvgl\lv_objx/lv_label.c **** 
 617:..\lvgl\lv_objx/lv_label.c ****     lv_txt_ins(ext->text, pos, txt);
 618:..\lvgl\lv_objx/lv_label.c **** 
 619:..\lvgl\lv_objx/lv_label.c ****     lv_label_refr_text(label);
 620:..\lvgl\lv_objx/lv_label.c **** }
 621:..\lvgl\lv_objx/lv_label.c **** 
 622:..\lvgl\lv_objx/lv_label.c **** /**
 623:..\lvgl\lv_objx/lv_label.c ****  * Delete characters from a label. The label text can not be static.
 624:..\lvgl\lv_objx/lv_label.c ****  * @param label pointer to a label object
 625:..\lvgl\lv_objx/lv_label.c ****  * @param pos character index to insert. Expressed in character index and not byte index (Different
 626:..\lvgl\lv_objx/lv_label.c ****  *            0: before first char.
 627:..\lvgl\lv_objx/lv_label.c ****  * @param cnt number of characters to cut
 628:..\lvgl\lv_objx/lv_label.c ****  */
 629:..\lvgl\lv_objx/lv_label.c **** void lv_label_cut_text(lv_obj_t * label, uint32_t pos,  uint32_t cnt)
 630:..\lvgl\lv_objx/lv_label.c **** {
 631:..\lvgl\lv_objx/lv_label.c ****     lv_label_ext_t * ext = lv_obj_get_ext_attr(label);
 632:..\lvgl\lv_objx/lv_label.c **** 
 633:..\lvgl\lv_objx/lv_label.c ****     /*Can not append to static text*/
 634:..\lvgl\lv_objx/lv_label.c ****     if(ext->static_txt != 0) return;
 635:..\lvgl\lv_objx/lv_label.c **** 
 636:..\lvgl\lv_objx/lv_label.c ****     lv_obj_invalidate(label);
 637:..\lvgl\lv_objx/lv_label.c **** 
 638:..\lvgl\lv_objx/lv_label.c ****     char * label_txt = lv_label_get_text(label);
 639:..\lvgl\lv_objx/lv_label.c ****     /*Delete the characters*/
 640:..\lvgl\lv_objx/lv_label.c ****     lv_txt_cut(label_txt, pos, cnt);
 641:..\lvgl\lv_objx/lv_label.c **** 
 642:..\lvgl\lv_objx/lv_label.c ****     /*Refresh the label*/
 643:..\lvgl\lv_objx/lv_label.c ****     lv_label_refr_text(label);
 644:..\lvgl\lv_objx/lv_label.c **** }
 645:..\lvgl\lv_objx/lv_label.c **** 
 646:..\lvgl\lv_objx/lv_label.c **** /**********************
 647:..\lvgl\lv_objx/lv_label.c ****  *   STATIC FUNCTIONS
 648:..\lvgl\lv_objx/lv_label.c ****  **********************/
 649:..\lvgl\lv_objx/lv_label.c **** 
 650:..\lvgl\lv_objx/lv_label.c **** /**
 651:..\lvgl\lv_objx/lv_label.c ****  * Handle the drawing related tasks of the labels
 652:..\lvgl\lv_objx/lv_label.c ****  * @param label pointer to a label object
 653:..\lvgl\lv_objx/lv_label.c ****  * @param mask the object will be drawn only in this area
 654:..\lvgl\lv_objx/lv_label.c ****  * @param mode LV_DESIGN_COVER_CHK: only check if the object fully covers the 'mask_p' area
 655:..\lvgl\lv_objx/lv_label.c ****  *                                  (return 'true' if yes)
 656:..\lvgl\lv_objx/lv_label.c ****  *             LV_DESIGN_DRAW: draw the object (always return 'true')
 657:..\lvgl\lv_objx/lv_label.c ****  *             LV_DESIGN_DRAW_POST: drawing after every children are drawn
 658:..\lvgl\lv_objx/lv_label.c ****  * @param return true/false, depends on 'mode'
ARM GAS  C:\Users\d3bug\AppData\Local\Temp\cct3SNM7.s 			page 13


 659:..\lvgl\lv_objx/lv_label.c ****  */
 660:..\lvgl\lv_objx/lv_label.c **** static bool lv_label_design(lv_obj_t * label, const lv_area_t * mask, lv_design_mode_t mode)
 661:..\lvgl\lv_objx/lv_label.c **** {
 662:..\lvgl\lv_objx/lv_label.c ****     /* A label never covers an area */
 663:..\lvgl\lv_objx/lv_label.c ****     if(mode == LV_DESIGN_COVER_CHK) return false;
 664:..\lvgl\lv_objx/lv_label.c ****     else if(mode == LV_DESIGN_DRAW_MAIN) {
 665:..\lvgl\lv_objx/lv_label.c ****         lv_area_t coords;
 666:..\lvgl\lv_objx/lv_label.c ****         lv_style_t * style = lv_obj_get_style(label);
 667:..\lvgl\lv_objx/lv_label.c ****         lv_opa_t opa_scale = lv_obj_get_opa_scale(label);
 668:..\lvgl\lv_objx/lv_label.c ****         lv_obj_get_coords(label, &coords);
 669:..\lvgl\lv_objx/lv_label.c **** 
 670:..\lvgl\lv_objx/lv_label.c **** #if USE_LV_GROUP
 671:..\lvgl\lv_objx/lv_label.c ****         lv_group_t * g = lv_obj_get_group(label);
 672:..\lvgl\lv_objx/lv_label.c ****         if(lv_group_get_focused(g) == label) {
 673:..\lvgl\lv_objx/lv_label.c ****             lv_draw_rect(&coords, mask, style, opa_scale);
 674:..\lvgl\lv_objx/lv_label.c ****         }
 675:..\lvgl\lv_objx/lv_label.c **** #endif
 676:..\lvgl\lv_objx/lv_label.c **** 
 677:..\lvgl\lv_objx/lv_label.c ****         lv_label_ext_t * ext = lv_obj_get_ext_attr(label);
 678:..\lvgl\lv_objx/lv_label.c **** 
 679:..\lvgl\lv_objx/lv_label.c ****         if(ext->body_draw) {
 680:..\lvgl\lv_objx/lv_label.c ****             lv_area_t bg;
 681:..\lvgl\lv_objx/lv_label.c ****             lv_obj_get_coords(label, &bg);
 682:..\lvgl\lv_objx/lv_label.c ****             bg.x1 -= style->body.padding.hor;
 683:..\lvgl\lv_objx/lv_label.c ****             bg.x2 += style->body.padding.hor;
 684:..\lvgl\lv_objx/lv_label.c ****             bg.y1 -= style->body.padding.ver;
 685:..\lvgl\lv_objx/lv_label.c ****             bg.y2 += style->body.padding.ver;
 686:..\lvgl\lv_objx/lv_label.c **** 
 687:..\lvgl\lv_objx/lv_label.c ****             lv_draw_rect(&bg, mask, style, lv_obj_get_opa_scale(label));
 688:..\lvgl\lv_objx/lv_label.c ****         }
 689:..\lvgl\lv_objx/lv_label.c **** 
 690:..\lvgl\lv_objx/lv_label.c ****         /*TEST: draw a background for the label*/
 691:..\lvgl\lv_objx/lv_label.c ****         //lv_draw_rect(&label->coords, mask, &lv_style_plain_color, LV_OPA_COVER);
 692:..\lvgl\lv_objx/lv_label.c **** 
 693:..\lvgl\lv_objx/lv_label.c ****         lv_txt_flag_t flag = LV_TXT_FLAG_NONE;
 694:..\lvgl\lv_objx/lv_label.c ****         if(ext->recolor != 0) flag |= LV_TXT_FLAG_RECOLOR;
 695:..\lvgl\lv_objx/lv_label.c ****         if(ext->expand != 0) flag |= LV_TXT_FLAG_EXPAND;
 696:..\lvgl\lv_objx/lv_label.c ****         if(ext->align == LV_LABEL_ALIGN_CENTER) flag |= LV_TXT_FLAG_CENTER;
 697:..\lvgl\lv_objx/lv_label.c ****         if(ext->align == LV_LABEL_ALIGN_RIGHT) flag |= LV_TXT_FLAG_RIGHT;
 698:..\lvgl\lv_objx/lv_label.c **** 
 699:..\lvgl\lv_objx/lv_label.c ****         /* In ROLL mode the CENTER and RIGHT are pointless so remove them.
 700:..\lvgl\lv_objx/lv_label.c ****          * (In addition they will result mis-alignment is this case)*/
 701:..\lvgl\lv_objx/lv_label.c ****         if((ext->long_mode == LV_LABEL_LONG_ROLL) &&
 702:..\lvgl\lv_objx/lv_label.c ****                 (ext->align == LV_LABEL_ALIGN_CENTER || ext->align == LV_LABEL_ALIGN_RIGHT)) {
 703:..\lvgl\lv_objx/lv_label.c ****             lv_point_t size;
 704:..\lvgl\lv_objx/lv_label.c ****             lv_txt_get_size(&size, ext->text, style->text.font, style->text.letter_space, style->te
 705:..\lvgl\lv_objx/lv_label.c ****             if(size.x > lv_obj_get_width(label)) {
 706:..\lvgl\lv_objx/lv_label.c ****                 flag &= ~LV_TXT_FLAG_RIGHT;
 707:..\lvgl\lv_objx/lv_label.c ****                 flag &= ~LV_TXT_FLAG_CENTER;
 708:..\lvgl\lv_objx/lv_label.c ****             }
 709:..\lvgl\lv_objx/lv_label.c ****         }
 710:..\lvgl\lv_objx/lv_label.c **** 
 711:..\lvgl\lv_objx/lv_label.c ****         lv_draw_label(&coords, mask, style, opa_scale, ext->text, flag, &ext->offset);
 712:..\lvgl\lv_objx/lv_label.c ****     }
 713:..\lvgl\lv_objx/lv_label.c ****     return true;
 714:..\lvgl\lv_objx/lv_label.c **** }
 715:..\lvgl\lv_objx/lv_label.c **** 
ARM GAS  C:\Users\d3bug\AppData\Local\Temp\cct3SNM7.s 			page 14


 716:..\lvgl\lv_objx/lv_label.c **** 
 717:..\lvgl\lv_objx/lv_label.c **** 
 718:..\lvgl\lv_objx/lv_label.c **** /**
 719:..\lvgl\lv_objx/lv_label.c ****  * Signal function of the label
 720:..\lvgl\lv_objx/lv_label.c ****  * @param label pointer to a label object
 721:..\lvgl\lv_objx/lv_label.c ****  * @param sign a signal type from lv_signal_t enum
 722:..\lvgl\lv_objx/lv_label.c ****  * @param param pointer to a signal specific variable
 723:..\lvgl\lv_objx/lv_label.c ****  * @return LV_RES_OK: the object is not deleted in the function; LV_RES_INV: the object is deleted
 724:..\lvgl\lv_objx/lv_label.c ****  */
 725:..\lvgl\lv_objx/lv_label.c **** static lv_res_t lv_label_signal(lv_obj_t * label, lv_signal_t sign, void * param)
 726:..\lvgl\lv_objx/lv_label.c **** {
 727:..\lvgl\lv_objx/lv_label.c ****     lv_res_t res;
 728:..\lvgl\lv_objx/lv_label.c **** 
 729:..\lvgl\lv_objx/lv_label.c ****     /* Include the ancient signal function */
 730:..\lvgl\lv_objx/lv_label.c ****     res = ancestor_signal(label, sign, param);
 731:..\lvgl\lv_objx/lv_label.c ****     if(res != LV_RES_OK) return res;
 732:..\lvgl\lv_objx/lv_label.c **** 
 733:..\lvgl\lv_objx/lv_label.c ****     lv_label_ext_t * ext = lv_obj_get_ext_attr(label);
 734:..\lvgl\lv_objx/lv_label.c ****     if(sign ==  LV_SIGNAL_CLEANUP) {
 735:..\lvgl\lv_objx/lv_label.c ****         if(ext->static_txt == 0) {
 736:..\lvgl\lv_objx/lv_label.c ****             lv_mem_free(ext->text);
 737:..\lvgl\lv_objx/lv_label.c ****             ext->text = NULL;
 738:..\lvgl\lv_objx/lv_label.c ****         }
 739:..\lvgl\lv_objx/lv_label.c ****     } else if(sign == LV_SIGNAL_STYLE_CHG) {
 740:..\lvgl\lv_objx/lv_label.c ****         /*Revert dots for proper refresh*/
 741:..\lvgl\lv_objx/lv_label.c ****         lv_label_revert_dots(label);
 742:..\lvgl\lv_objx/lv_label.c **** 
 743:..\lvgl\lv_objx/lv_label.c ****         lv_label_refr_text(label);
 744:..\lvgl\lv_objx/lv_label.c ****     } else if(sign == LV_SIGNAL_CORD_CHG) {
 745:..\lvgl\lv_objx/lv_label.c ****         if(lv_area_get_width(&label->coords) != lv_area_get_width(param) ||
 746:..\lvgl\lv_objx/lv_label.c ****                 lv_area_get_height(&label->coords) != lv_area_get_height(param)) {
 747:..\lvgl\lv_objx/lv_label.c ****             lv_label_revert_dots(label);
 748:..\lvgl\lv_objx/lv_label.c ****             lv_label_refr_text(label);
 749:..\lvgl\lv_objx/lv_label.c ****         }
 750:..\lvgl\lv_objx/lv_label.c ****     } else if(sign == LV_SIGNAL_REFR_EXT_SIZE) {
 751:..\lvgl\lv_objx/lv_label.c ****         if(ext->body_draw) {
 752:..\lvgl\lv_objx/lv_label.c ****             lv_style_t * style = lv_label_get_style(label);
 753:..\lvgl\lv_objx/lv_label.c ****             label->ext_size = LV_MATH_MAX(label->ext_size, style->body.padding.hor);
 754:..\lvgl\lv_objx/lv_label.c ****             label->ext_size = LV_MATH_MAX(label->ext_size, style->body.padding.ver);
 755:..\lvgl\lv_objx/lv_label.c ****         }
 756:..\lvgl\lv_objx/lv_label.c ****     } else if(sign == LV_SIGNAL_LANG_CHG) {
 757:..\lvgl\lv_objx/lv_label.c **** #if USE_LV_MULTI_LANG
 758:..\lvgl\lv_objx/lv_label.c ****         if(ext->lang_txt_id != LV_LANG_TXT_ID_NONE) {
 759:..\lvgl\lv_objx/lv_label.c ****             const char * lang_txt = lv_lang_get_text(ext->lang_txt_id);
 760:..\lvgl\lv_objx/lv_label.c ****             if(lang_txt) {
 761:..\lvgl\lv_objx/lv_label.c ****                 lv_label_set_text(label, lang_txt);
 762:..\lvgl\lv_objx/lv_label.c ****             } else {
 763:..\lvgl\lv_objx/lv_label.c ****                 LV_LOG_WARN("lv_lang_get_text return NULL for a label's text");
 764:..\lvgl\lv_objx/lv_label.c ****             }
 765:..\lvgl\lv_objx/lv_label.c ****         }
 766:..\lvgl\lv_objx/lv_label.c **** #endif
 767:..\lvgl\lv_objx/lv_label.c ****     } else if(sign == LV_SIGNAL_GET_TYPE) {
 768:..\lvgl\lv_objx/lv_label.c ****         lv_obj_type_t * buf = param;
 769:..\lvgl\lv_objx/lv_label.c ****         uint8_t i;
 770:..\lvgl\lv_objx/lv_label.c ****         for(i = 0; i < LV_MAX_ANCESTOR_NUM - 1; i++) {  /*Find the last set data*/
 771:..\lvgl\lv_objx/lv_label.c ****             if(buf->type[i] == NULL) break;
 772:..\lvgl\lv_objx/lv_label.c ****         }
ARM GAS  C:\Users\d3bug\AppData\Local\Temp\cct3SNM7.s 			page 15


 773:..\lvgl\lv_objx/lv_label.c ****         buf->type[i] = "lv_label";
 774:..\lvgl\lv_objx/lv_label.c ****     }
 775:..\lvgl\lv_objx/lv_label.c **** 
 776:..\lvgl\lv_objx/lv_label.c ****     return res;
 777:..\lvgl\lv_objx/lv_label.c **** }
 778:..\lvgl\lv_objx/lv_label.c **** 
 779:..\lvgl\lv_objx/lv_label.c **** /**
 780:..\lvgl\lv_objx/lv_label.c ****  * Refresh the label with its text stored in its extended data
 781:..\lvgl\lv_objx/lv_label.c ****  * @param label pointer to a label object
 782:..\lvgl\lv_objx/lv_label.c ****  */
 783:..\lvgl\lv_objx/lv_label.c **** static void lv_label_refr_text(lv_obj_t * label)
 784:..\lvgl\lv_objx/lv_label.c **** {
 785:..\lvgl\lv_objx/lv_label.c ****     lv_label_ext_t * ext = lv_obj_get_ext_attr(label);
 786:..\lvgl\lv_objx/lv_label.c **** 
 787:..\lvgl\lv_objx/lv_label.c ****     if(ext->text == NULL) return;
 788:..\lvgl\lv_objx/lv_label.c **** 
 789:..\lvgl\lv_objx/lv_label.c ****     lv_coord_t max_w = lv_obj_get_width(label);
 790:..\lvgl\lv_objx/lv_label.c ****     lv_style_t * style = lv_obj_get_style(label);
 791:..\lvgl\lv_objx/lv_label.c ****     const lv_font_t * font = style->text.font;
 792:..\lvgl\lv_objx/lv_label.c **** 
 793:..\lvgl\lv_objx/lv_label.c ****     /*If the width will be expanded set the max length to very big */
 794:..\lvgl\lv_objx/lv_label.c ****     if(ext->long_mode == LV_LABEL_LONG_EXPAND ||
 795:..\lvgl\lv_objx/lv_label.c ****             ext->long_mode == LV_LABEL_LONG_SCROLL) {
 796:..\lvgl\lv_objx/lv_label.c ****         max_w = LV_COORD_MAX;
 797:..\lvgl\lv_objx/lv_label.c ****     }
 798:..\lvgl\lv_objx/lv_label.c **** 
 799:..\lvgl\lv_objx/lv_label.c ****     /*Calc. the height and longest line*/
 800:..\lvgl\lv_objx/lv_label.c ****     lv_point_t size;
 801:..\lvgl\lv_objx/lv_label.c ****     lv_txt_flag_t flag = LV_TXT_FLAG_NONE;
 802:..\lvgl\lv_objx/lv_label.c ****     if(ext->recolor != 0) flag |= LV_TXT_FLAG_RECOLOR;
 803:..\lvgl\lv_objx/lv_label.c ****     if(ext->expand != 0) flag |= LV_TXT_FLAG_EXPAND;
 804:..\lvgl\lv_objx/lv_label.c ****     lv_txt_get_size(&size, ext->text, font, style->text.letter_space, style->text.line_space, max_w
 805:..\lvgl\lv_objx/lv_label.c **** 
 806:..\lvgl\lv_objx/lv_label.c ****     /*Set the full size in expand mode*/
 807:..\lvgl\lv_objx/lv_label.c ****     if(ext->long_mode == LV_LABEL_LONG_EXPAND || ext->long_mode == LV_LABEL_LONG_SCROLL) {
 808:..\lvgl\lv_objx/lv_label.c ****         lv_obj_set_size(label, size.x, size.y);
 809:..\lvgl\lv_objx/lv_label.c **** 
 810:..\lvgl\lv_objx/lv_label.c ****         /*Start scrolling if the label is greater then its parent*/
 811:..\lvgl\lv_objx/lv_label.c ****         if(ext->long_mode == LV_LABEL_LONG_SCROLL) {
 812:..\lvgl\lv_objx/lv_label.c **** #if USE_LV_ANIMATION
 813:..\lvgl\lv_objx/lv_label.c ****             lv_obj_t * parent = lv_obj_get_parent(label);
 814:..\lvgl\lv_objx/lv_label.c **** 
 815:..\lvgl\lv_objx/lv_label.c ****             /*Delete the potential previous scroller animations*/
 816:..\lvgl\lv_objx/lv_label.c ****             lv_anim_del(label, (lv_anim_fp_t) lv_obj_set_x);
 817:..\lvgl\lv_objx/lv_label.c ****             lv_anim_del(label, (lv_anim_fp_t) lv_obj_set_y);
 818:..\lvgl\lv_objx/lv_label.c **** 
 819:..\lvgl\lv_objx/lv_label.c ****             lv_anim_t anim;
 820:..\lvgl\lv_objx/lv_label.c ****             anim.var = label;
 821:..\lvgl\lv_objx/lv_label.c ****             anim.repeat = 1;
 822:..\lvgl\lv_objx/lv_label.c ****             anim.playback = 1;
 823:..\lvgl\lv_objx/lv_label.c ****             anim.start = 0;
 824:..\lvgl\lv_objx/lv_label.c ****             anim.act_time = 0;
 825:..\lvgl\lv_objx/lv_label.c ****             anim.end_cb = NULL;
 826:..\lvgl\lv_objx/lv_label.c ****             anim.path = lv_anim_path_linear;
 827:..\lvgl\lv_objx/lv_label.c **** 
 828:..\lvgl\lv_objx/lv_label.c ****             anim.playback_pause = (((lv_font_get_width(style->text.font, ' ') +
 829:..\lvgl\lv_objx/lv_label.c ****                                      style->text.letter_space) * 1000) / ext->anim_speed) * ANIM_WA
ARM GAS  C:\Users\d3bug\AppData\Local\Temp\cct3SNM7.s 			page 16


 830:..\lvgl\lv_objx/lv_label.c ****             anim.repeat_pause = anim.playback_pause;
 831:..\lvgl\lv_objx/lv_label.c **** 
 832:..\lvgl\lv_objx/lv_label.c ****             if(lv_obj_get_width(label) > lv_obj_get_width(parent)) {
 833:..\lvgl\lv_objx/lv_label.c ****                 anim.end = lv_obj_get_width(parent) - lv_obj_get_width(label);
 834:..\lvgl\lv_objx/lv_label.c ****                 anim.fp = (lv_anim_fp_t) lv_obj_set_x;
 835:..\lvgl\lv_objx/lv_label.c ****                 anim.time = lv_anim_speed_to_time(ext->anim_speed, anim.start, anim.end);
 836:..\lvgl\lv_objx/lv_label.c ****                 lv_anim_create(&anim);
 837:..\lvgl\lv_objx/lv_label.c ****             } else if(lv_obj_get_height(label) > lv_obj_get_height(parent)) {
 838:..\lvgl\lv_objx/lv_label.c ****                 anim.end =  lv_obj_get_height(parent) - lv_obj_get_height(label) - lv_font_get_heig
 839:..\lvgl\lv_objx/lv_label.c ****                 anim.fp = (lv_anim_fp_t)lv_obj_set_y;
 840:..\lvgl\lv_objx/lv_label.c ****                 anim.time = lv_anim_speed_to_time(ext->anim_speed, anim.start, anim.end);
 841:..\lvgl\lv_objx/lv_label.c ****                 lv_anim_create(&anim);
 842:..\lvgl\lv_objx/lv_label.c ****             }
 843:..\lvgl\lv_objx/lv_label.c **** #endif
 844:..\lvgl\lv_objx/lv_label.c ****         }
 845:..\lvgl\lv_objx/lv_label.c ****     }
 846:..\lvgl\lv_objx/lv_label.c ****     /*In roll mode keep the size but start offset animations*/
 847:..\lvgl\lv_objx/lv_label.c ****     else if(ext->long_mode == LV_LABEL_LONG_ROLL) {
 848:..\lvgl\lv_objx/lv_label.c **** #if USE_LV_ANIMATION
 849:..\lvgl\lv_objx/lv_label.c ****         lv_anim_t anim;
 850:..\lvgl\lv_objx/lv_label.c ****         anim.var = label;
 851:..\lvgl\lv_objx/lv_label.c ****         anim.repeat = 1;
 852:..\lvgl\lv_objx/lv_label.c ****         anim.playback = 1;
 853:..\lvgl\lv_objx/lv_label.c ****         anim.start = 0;
 854:..\lvgl\lv_objx/lv_label.c ****         anim.act_time = 0;
 855:..\lvgl\lv_objx/lv_label.c ****         anim.end_cb = NULL;
 856:..\lvgl\lv_objx/lv_label.c ****         anim.path = lv_anim_path_linear;
 857:..\lvgl\lv_objx/lv_label.c ****         anim.playback_pause = (((lv_font_get_width(style->text.font, ' ') + style->text.letter_spac
 858:..\lvgl\lv_objx/lv_label.c ****         anim.repeat_pause =  anim.playback_pause;
 859:..\lvgl\lv_objx/lv_label.c **** 
 860:..\lvgl\lv_objx/lv_label.c ****         bool hor_anim = false;
 861:..\lvgl\lv_objx/lv_label.c ****         if(size.x > lv_obj_get_width(label)) {
 862:..\lvgl\lv_objx/lv_label.c ****             anim.end = lv_obj_get_width(label) - size.x;
 863:..\lvgl\lv_objx/lv_label.c ****             anim.fp = (lv_anim_fp_t) lv_label_set_offset_x;
 864:..\lvgl\lv_objx/lv_label.c ****             anim.time = lv_anim_speed_to_time(ext->anim_speed, anim.start, anim.end);
 865:..\lvgl\lv_objx/lv_label.c ****             lv_anim_create(&anim);
 866:..\lvgl\lv_objx/lv_label.c ****             hor_anim = true;
 867:..\lvgl\lv_objx/lv_label.c ****         } else {
 868:..\lvgl\lv_objx/lv_label.c ****             /*Delete the offset animation if not required*/
 869:..\lvgl\lv_objx/lv_label.c ****             lv_anim_del(label, (lv_anim_fp_t) lv_label_set_offset_x);
 870:..\lvgl\lv_objx/lv_label.c ****             ext->offset.x = 0;
 871:..\lvgl\lv_objx/lv_label.c ****         }
 872:..\lvgl\lv_objx/lv_label.c **** 
 873:..\lvgl\lv_objx/lv_label.c ****         if(size.y > lv_obj_get_height(label) && hor_anim == false) {
 874:..\lvgl\lv_objx/lv_label.c ****             anim.end =  lv_obj_get_height(label) - size.y - (lv_font_get_height(font));
 875:..\lvgl\lv_objx/lv_label.c ****             anim.fp = (lv_anim_fp_t)lv_label_set_offset_y;
 876:..\lvgl\lv_objx/lv_label.c ****             anim.time = lv_anim_speed_to_time(ext->anim_speed, anim.start, anim.end);
 877:..\lvgl\lv_objx/lv_label.c ****             lv_anim_create(&anim);
 878:..\lvgl\lv_objx/lv_label.c ****         } else {
 879:..\lvgl\lv_objx/lv_label.c ****             /*Delete the offset animation if not required*/
 880:..\lvgl\lv_objx/lv_label.c ****             lv_anim_del(label, (lv_anim_fp_t) lv_label_set_offset_y);
 881:..\lvgl\lv_objx/lv_label.c ****             ext->offset.y = 0;
 882:..\lvgl\lv_objx/lv_label.c ****         }
 883:..\lvgl\lv_objx/lv_label.c **** #endif
 884:..\lvgl\lv_objx/lv_label.c ****     } else if(ext->long_mode == LV_LABEL_LONG_DOT) {
 885:..\lvgl\lv_objx/lv_label.c ****         if(size.y <= lv_obj_get_height(label)) {                /*No dots are required, the text is
 886:..\lvgl\lv_objx/lv_label.c ****             ext->dot_end = LV_LABEL_DOT_END_INV;
ARM GAS  C:\Users\d3bug\AppData\Local\Temp\cct3SNM7.s 			page 17


 887:..\lvgl\lv_objx/lv_label.c ****         } else if(lv_txt_get_encoded_length(ext->text) <= LV_LABEL_DOT_NUM) {     /*Don't turn to d
 888:..\lvgl\lv_objx/lv_label.c ****             ext->dot_end = LV_LABEL_DOT_END_INV;
 889:..\lvgl\lv_objx/lv_label.c ****         } else {
 890:..\lvgl\lv_objx/lv_label.c ****             lv_point_t p;
 891:..\lvgl\lv_objx/lv_label.c ****             p.x = lv_obj_get_width(label) - (lv_font_get_width(style->text.font, '.') + style->text
 892:..\lvgl\lv_objx/lv_label.c ****             p.y = lv_obj_get_height(label);
 893:..\lvgl\lv_objx/lv_label.c ****             p.y -= p.y  % (lv_font_get_height(style->text.font) + style->text.line_space);   /*Roun
 894:..\lvgl\lv_objx/lv_label.c ****             p.y -= style->text.line_space;                                                      /*T
 895:..\lvgl\lv_objx/lv_label.c ****             uint32_t letter_id = lv_label_get_letter_on(label, &p);
 896:..\lvgl\lv_objx/lv_label.c **** 
 897:..\lvgl\lv_objx/lv_label.c **** 
 898:..\lvgl\lv_objx/lv_label.c **** #if LV_TXT_UTF8 == 0
 899:..\lvgl\lv_objx/lv_label.c ****             /*Save letters under the dots and replace them with dots*/
 900:..\lvgl\lv_objx/lv_label.c ****             uint8_t i;
 901:..\lvgl\lv_objx/lv_label.c ****             for(i = 0; i < LV_LABEL_DOT_NUM; i++)  {
 902:..\lvgl\lv_objx/lv_label.c ****                 ext->dot_tmp[i] = ext->text[letter_id + i];
 903:..\lvgl\lv_objx/lv_label.c ****                 ext->text[letter_id + i] = '.';
 904:..\lvgl\lv_objx/lv_label.c ****             }
 905:..\lvgl\lv_objx/lv_label.c **** 
 906:..\lvgl\lv_objx/lv_label.c ****             ext->dot_tmp[LV_LABEL_DOT_NUM] = ext->text[letter_id + LV_LABEL_DOT_NUM];
 907:..\lvgl\lv_objx/lv_label.c ****             ext->text[letter_id + LV_LABEL_DOT_NUM] = '\0';
 908:..\lvgl\lv_objx/lv_label.c **** 
 909:..\lvgl\lv_objx/lv_label.c ****             ext->dot_end = letter_id + LV_LABEL_DOT_NUM;
 910:..\lvgl\lv_objx/lv_label.c **** #else
 911:..\lvgl\lv_objx/lv_label.c ****             /*Save letters under the dots and replace them with dots*/
 912:..\lvgl\lv_objx/lv_label.c ****             uint32_t i;
 913:..\lvgl\lv_objx/lv_label.c ****             uint32_t byte_id = lv_txt_encoded_get_byte_id(ext->text, letter_id);
 914:..\lvgl\lv_objx/lv_label.c ****             uint32_t byte_id_ori = byte_id;
 915:..\lvgl\lv_objx/lv_label.c ****             uint8_t len = 0;
 916:..\lvgl\lv_objx/lv_label.c ****             for(i = 0; i <= LV_LABEL_DOT_NUM; i++)  {
 917:..\lvgl\lv_objx/lv_label.c ****                 len += lv_txt_encoded_size(&ext->text[byte_id]);
 918:..\lvgl\lv_objx/lv_label.c ****                 lv_txt_encoded_next(ext->text, &byte_id);
 919:..\lvgl\lv_objx/lv_label.c ****             }
 920:..\lvgl\lv_objx/lv_label.c **** 
 921:..\lvgl\lv_objx/lv_label.c ****             memcpy(ext->dot_tmp, &ext->text[byte_id_ori], len);
 922:..\lvgl\lv_objx/lv_label.c ****             ext->dot_tmp[len] = '\0';       /*Close with a zero*/
 923:..\lvgl\lv_objx/lv_label.c **** 
 924:..\lvgl\lv_objx/lv_label.c ****             for(i = 0; i < LV_LABEL_DOT_NUM; i++) {
 925:..\lvgl\lv_objx/lv_label.c ****                 ext->text[byte_id_ori + i] = '.';
 926:..\lvgl\lv_objx/lv_label.c ****             }
 927:..\lvgl\lv_objx/lv_label.c ****             ext->text[byte_id_ori + LV_LABEL_DOT_NUM] = '\0';
 928:..\lvgl\lv_objx/lv_label.c **** 
 929:..\lvgl\lv_objx/lv_label.c ****             ext->dot_end = letter_id + LV_LABEL_DOT_NUM;
 930:..\lvgl\lv_objx/lv_label.c **** #endif
 931:..\lvgl\lv_objx/lv_label.c **** 
 932:..\lvgl\lv_objx/lv_label.c ****         }
 933:..\lvgl\lv_objx/lv_label.c ****     }
 934:..\lvgl\lv_objx/lv_label.c ****     /*In break mode only the height can change*/
 935:..\lvgl\lv_objx/lv_label.c ****     else if(ext->long_mode == LV_LABEL_LONG_BREAK) {
 936:..\lvgl\lv_objx/lv_label.c ****         lv_obj_set_height(label, size.y);
 937:..\lvgl\lv_objx/lv_label.c ****     }
 938:..\lvgl\lv_objx/lv_label.c ****     /*Do not set the size in Clip mode*/
 939:..\lvgl\lv_objx/lv_label.c ****     else if(ext->long_mode == LV_LABEL_LONG_CROP) {
 940:..\lvgl\lv_objx/lv_label.c ****         /*Do nothing*/
 941:..\lvgl\lv_objx/lv_label.c ****     }
 942:..\lvgl\lv_objx/lv_label.c **** 
 943:..\lvgl\lv_objx/lv_label.c **** 
ARM GAS  C:\Users\d3bug\AppData\Local\Temp\cct3SNM7.s 			page 18


 944:..\lvgl\lv_objx/lv_label.c ****     lv_obj_invalidate(label);
 945:..\lvgl\lv_objx/lv_label.c **** }
 946:..\lvgl\lv_objx/lv_label.c **** 
 947:..\lvgl\lv_objx/lv_label.c **** static void lv_label_revert_dots(lv_obj_t * label)
 948:..\lvgl\lv_objx/lv_label.c **** {
  27              		.loc 1 948 0
  28              		.cfi_startproc
  29              		@ args = 0, pretend = 0, frame = 0
  30              		@ frame_needed = 0, uses_anonymous_args = 0
  31              	.LVL0:
  32 0000 38B5     		push	{r3, r4, r5, lr}
  33              		.cfi_def_cfa_offset 16
  34              		.cfi_offset 3, -16
  35              		.cfi_offset 4, -12
  36              		.cfi_offset 5, -8
  37              		.cfi_offset 14, -4
 949:..\lvgl\lv_objx/lv_label.c ****     lv_label_ext_t * ext = lv_obj_get_ext_attr(label);
  38              		.loc 1 949 0
  39 0002 FFF7FEFF 		bl	lv_obj_get_ext_attr
  40              	.LVL1:
 950:..\lvgl\lv_objx/lv_label.c ****     if(ext->long_mode != LV_LABEL_LONG_DOT) return;
  41              		.loc 1 950 0
  42 0006 0379     		ldrb	r3, [r0, #4]	@ zero_extendqisi2
  43 0008 032B     		cmp	r3, #3
  44 000a 18D1     		bne	.L1
  45 000c 0446     		mov	r4, r0
 951:..\lvgl\lv_objx/lv_label.c ****     if(ext->dot_end == LV_LABEL_DOT_END_INV) return;
  46              		.loc 1 951 0
  47 000e 418A     		ldrh	r1, [r0, #18]
  48 0010 4FF6FF73 		movw	r3, #65535
  49 0014 9942     		cmp	r1, r3
  50 0016 12D0     		beq	.L1
  51              	.LVL2:
 952:..\lvgl\lv_objx/lv_label.c **** #if LV_TXT_UTF8 == 0
 953:..\lvgl\lv_objx/lv_label.c ****     uint32_t i;
 954:..\lvgl\lv_objx/lv_label.c ****     for(i = 0; i <= LV_LABEL_DOT_NUM; i++) {
 955:..\lvgl\lv_objx/lv_label.c ****         ext->text[ext->dot_end - i] = ext->dot_tmp[LV_LABEL_DOT_NUM - i];
 956:..\lvgl\lv_objx/lv_label.c ****     }
 957:..\lvgl\lv_objx/lv_label.c **** #else
 958:..\lvgl\lv_objx/lv_label.c ****     uint32_t letter_i = ext->dot_end - LV_LABEL_DOT_NUM;
 959:..\lvgl\lv_objx/lv_label.c ****     uint32_t byte_i = lv_txt_encoded_get_byte_id(ext->text, letter_i);
  52              		.loc 1 959 0
  53 0018 094B     		ldr	r3, .L6
  54 001a 1B68     		ldr	r3, [r3]
  55 001c 0339     		subs	r1, r1, #3
  56              	.LVL3:
  57 001e 0068     		ldr	r0, [r0]
  58              	.LVL4:
  59 0020 9847     		blx	r3
  60              	.LVL5:
 960:..\lvgl\lv_objx/lv_label.c **** 
 961:..\lvgl\lv_objx/lv_label.c ****     /*Restore the characters*/
 962:..\lvgl\lv_objx/lv_label.c ****     uint8_t i = 0;
  61              		.loc 1 962 0
  62 0022 0023     		movs	r3, #0
 963:..\lvgl\lv_objx/lv_label.c ****     while(ext->dot_tmp[i] != '\0') {
  63              		.loc 1 963 0
ARM GAS  C:\Users\d3bug\AppData\Local\Temp\cct3SNM7.s 			page 19


  64 0024 04E0     		b	.L3
  65              	.LVL6:
  66              	.L4:
 964:..\lvgl\lv_objx/lv_label.c ****         ext->text[byte_i + i] = ext->dot_tmp[i];
  67              		.loc 1 964 0
  68 0026 2568     		ldr	r5, [r4]
  69 0028 1918     		adds	r1, r3, r0
  70 002a 6A54     		strb	r2, [r5, r1]
 965:..\lvgl\lv_objx/lv_label.c ****         i++;
  71              		.loc 1 965 0
  72 002c 0133     		adds	r3, r3, #1
  73              	.LVL7:
  74 002e DBB2     		uxtb	r3, r3
  75              	.LVL8:
  76              	.L3:
 963:..\lvgl\lv_objx/lv_label.c ****     while(ext->dot_tmp[i] != '\0') {
  77              		.loc 1 963 0
  78 0030 E218     		adds	r2, r4, r3
  79 0032 5279     		ldrb	r2, [r2, #5]	@ zero_extendqisi2
  80 0034 002A     		cmp	r2, #0
  81 0036 F6D1     		bne	.L4
 966:..\lvgl\lv_objx/lv_label.c ****     }
 967:..\lvgl\lv_objx/lv_label.c **** #endif
 968:..\lvgl\lv_objx/lv_label.c **** 
 969:..\lvgl\lv_objx/lv_label.c ****     ext->dot_end = LV_LABEL_DOT_END_INV;
  82              		.loc 1 969 0
  83 0038 4FF6FF73 		movw	r3, #65535
  84              	.LVL9:
  85 003c 6382     		strh	r3, [r4, #18]	@ movhi
  86              	.LVL10:
  87              	.L1:
  88 003e 38BD     		pop	{r3, r4, r5, pc}
  89              	.L7:
  90              		.align	2
  91              	.L6:
  92 0040 00000000 		.word	lv_txt_encoded_get_byte_id
  93              		.cfi_endproc
  94              	.LFE36:
  95              		.size	lv_label_revert_dots, .-lv_label_revert_dots
  96              		.section	.text.lv_label_design,"ax",%progbits
  97              		.align	2
  98              		.thumb
  99              		.thumb_func
 100              		.type	lv_label_design, %function
 101              	lv_label_design:
 102              	.LFB33:
 661:..\lvgl\lv_objx/lv_label.c ****     /* A label never covers an area */
 103              		.loc 1 661 0
 104              		.cfi_startproc
 105              		@ args = 0, pretend = 0, frame = 16
 106              		@ frame_needed = 0, uses_anonymous_args = 0
 107              	.LVL11:
 663:..\lvgl\lv_objx/lv_label.c ****     else if(mode == LV_DESIGN_DRAW_MAIN) {
 108              		.loc 1 663 0
 109 0000 022A     		cmp	r2, #2
 110 0002 00F08280 		beq	.L18
 664:..\lvgl\lv_objx/lv_label.c ****         lv_area_t coords;
ARM GAS  C:\Users\d3bug\AppData\Local\Temp\cct3SNM7.s 			page 20


 111              		.loc 1 664 0
 112 0006 002A     		cmp	r2, #0
 113 0008 40F08180 		bne	.L19
 661:..\lvgl\lv_objx/lv_label.c ****     /* A label never covers an area */
 114              		.loc 1 661 0
 115 000c 2DE9F047 		push	{r4, r5, r6, r7, r8, r9, r10, lr}
 116              		.cfi_def_cfa_offset 32
 117              		.cfi_offset 4, -32
 118              		.cfi_offset 5, -28
 119              		.cfi_offset 6, -24
 120              		.cfi_offset 7, -20
 121              		.cfi_offset 8, -16
 122              		.cfi_offset 9, -12
 123              		.cfi_offset 10, -8
 124              		.cfi_offset 14, -4
 125 0010 88B0     		sub	sp, sp, #32
 126              		.cfi_def_cfa_offset 64
 127 0012 0E46     		mov	r6, r1
 128 0014 0446     		mov	r4, r0
 129              	.LBB27:
 666:..\lvgl\lv_objx/lv_label.c ****         lv_opa_t opa_scale = lv_obj_get_opa_scale(label);
 130              		.loc 1 666 0
 131 0016 FFF7FEFF 		bl	lv_obj_get_style
 132              	.LVL12:
 133 001a 8046     		mov	r8, r0
 134              	.LVL13:
 667:..\lvgl\lv_objx/lv_label.c ****         lv_obj_get_coords(label, &coords);
 135              		.loc 1 667 0
 136 001c 2046     		mov	r0, r4
 137              	.LVL14:
 138 001e FFF7FEFF 		bl	lv_obj_get_opa_scale
 139              	.LVL15:
 140 0022 8146     		mov	r9, r0
 141              	.LVL16:
 668:..\lvgl\lv_objx/lv_label.c **** 
 142              		.loc 1 668 0
 143 0024 04A9     		add	r1, sp, #16
 144 0026 2046     		mov	r0, r4
 145 0028 FFF7FEFF 		bl	lv_obj_get_coords
 146              	.LVL17:
 677:..\lvgl\lv_objx/lv_label.c **** 
 147              		.loc 1 677 0
 148 002c 2046     		mov	r0, r4
 149 002e FFF7FEFF 		bl	lv_obj_get_ext_attr
 150              	.LVL18:
 151 0032 0546     		mov	r5, r0
 152              	.LVL19:
 679:..\lvgl\lv_objx/lv_label.c ****             lv_area_t bg;
 153              		.loc 1 679 0
 154 0034 837E     		ldrb	r3, [r0, #26]	@ zero_extendqisi2
 155 0036 13F0200F 		tst	r3, #32
 156 003a 24D0     		beq	.L10
 157              	.LBB28:
 681:..\lvgl\lv_objx/lv_label.c ****             bg.x1 -= style->body.padding.hor;
 158              		.loc 1 681 0
 159 003c 06A9     		add	r1, sp, #24
 160 003e 2046     		mov	r0, r4
ARM GAS  C:\Users\d3bug\AppData\Local\Temp\cct3SNM7.s 			page 21


 161              	.LVL20:
 162 0040 FFF7FEFF 		bl	lv_obj_get_coords
 163              	.LVL21:
 682:..\lvgl\lv_objx/lv_label.c ****             bg.x2 += style->body.padding.hor;
 164              		.loc 1 682 0
 165 0044 B8F81610 		ldrh	r1, [r8, #22]
 166 0048 BDF81820 		ldrh	r2, [sp, #24]
 167 004c 521A     		subs	r2, r2, r1
 168 004e ADF81820 		strh	r2, [sp, #24]	@ movhi
 683:..\lvgl\lv_objx/lv_label.c ****             bg.y1 -= style->body.padding.ver;
 169              		.loc 1 683 0
 170 0052 BDF81C30 		ldrh	r3, [sp, #28]
 171 0056 0B44     		add	r3, r3, r1
 172 0058 ADF81C30 		strh	r3, [sp, #28]	@ movhi
 684:..\lvgl\lv_objx/lv_label.c ****             bg.y2 += style->body.padding.ver;
 173              		.loc 1 684 0
 174 005c B8F81410 		ldrh	r1, [r8, #20]
 175 0060 BDF81A20 		ldrh	r2, [sp, #26]
 176 0064 521A     		subs	r2, r2, r1
 177 0066 ADF81A20 		strh	r2, [sp, #26]	@ movhi
 685:..\lvgl\lv_objx/lv_label.c **** 
 178              		.loc 1 685 0
 179 006a BDF81E30 		ldrh	r3, [sp, #30]
 180 006e 0B44     		add	r3, r3, r1
 181 0070 ADF81E30 		strh	r3, [sp, #30]	@ movhi
 687:..\lvgl\lv_objx/lv_label.c ****         }
 182              		.loc 1 687 0
 183 0074 2046     		mov	r0, r4
 184 0076 FFF7FEFF 		bl	lv_obj_get_opa_scale
 185              	.LVL22:
 186 007a 0346     		mov	r3, r0
 187 007c 4246     		mov	r2, r8
 188 007e 3146     		mov	r1, r6
 189 0080 06A8     		add	r0, sp, #24
 190 0082 FFF7FEFF 		bl	lv_draw_rect
 191              	.LVL23:
 192              	.L10:
 193              	.LBE28:
 694:..\lvgl\lv_objx/lv_label.c ****         if(ext->expand != 0) flag |= LV_TXT_FLAG_EXPAND;
 194              		.loc 1 694 0
 195 0086 AB7E     		ldrb	r3, [r5, #26]	@ zero_extendqisi2
 196 0088 13F0080F 		tst	r3, #8
 197 008c 01D1     		bne	.L20
 693:..\lvgl\lv_objx/lv_label.c ****         if(ext->recolor != 0) flag |= LV_TXT_FLAG_RECOLOR;
 198              		.loc 1 693 0
 199 008e 0027     		movs	r7, #0
 200 0090 00E0     		b	.L11
 201              	.L20:
 694:..\lvgl\lv_objx/lv_label.c ****         if(ext->expand != 0) flag |= LV_TXT_FLAG_EXPAND;
 202              		.loc 1 694 0
 203 0092 0127     		movs	r7, #1
 204              	.L11:
 205              	.LVL24:
 695:..\lvgl\lv_objx/lv_label.c ****         if(ext->align == LV_LABEL_ALIGN_CENTER) flag |= LV_TXT_FLAG_CENTER;
 206              		.loc 1 695 0
 207 0094 13F0100F 		tst	r3, #16
 208 0098 01D0     		beq	.L12
ARM GAS  C:\Users\d3bug\AppData\Local\Temp\cct3SNM7.s 			page 22


 695:..\lvgl\lv_objx/lv_label.c ****         if(ext->align == LV_LABEL_ALIGN_CENTER) flag |= LV_TXT_FLAG_CENTER;
 209              		.loc 1 695 0 is_stmt 0 discriminator 1
 210 009a 47F00207 		orr	r7, r7, #2
 211              	.LVL25:
 212              	.L12:
 696:..\lvgl\lv_objx/lv_label.c ****         if(ext->align == LV_LABEL_ALIGN_RIGHT) flag |= LV_TXT_FLAG_RIGHT;
 213              		.loc 1 696 0 is_stmt 1
 214 009e 03F00603 		and	r3, r3, #6
 215 00a2 022B     		cmp	r3, #2
 216 00a4 01D1     		bne	.L13
 696:..\lvgl\lv_objx/lv_label.c ****         if(ext->align == LV_LABEL_ALIGN_RIGHT) flag |= LV_TXT_FLAG_RIGHT;
 217              		.loc 1 696 0 is_stmt 0 discriminator 1
 218 00a6 47F00407 		orr	r7, r7, #4
 219              	.LVL26:
 220              	.L13:
 697:..\lvgl\lv_objx/lv_label.c **** 
 221              		.loc 1 697 0 is_stmt 1
 222 00aa 042B     		cmp	r3, #4
 223 00ac 01D1     		bne	.L14
 697:..\lvgl\lv_objx/lv_label.c **** 
 224              		.loc 1 697 0 is_stmt 0 discriminator 1
 225 00ae 47F00807 		orr	r7, r7, #8
 226              	.LVL27:
 227              	.L14:
 701:..\lvgl\lv_objx/lv_label.c ****                 (ext->align == LV_LABEL_ALIGN_CENTER || ext->align == LV_LABEL_ALIGN_RIGHT)) {
 228              		.loc 1 701 0 is_stmt 1
 229 00b2 2A79     		ldrb	r2, [r5, #4]	@ zero_extendqisi2
 230 00b4 042A     		cmp	r2, #4
 231 00b6 1BD1     		bne	.L15
 701:..\lvgl\lv_objx/lv_label.c ****                 (ext->align == LV_LABEL_ALIGN_CENTER || ext->align == LV_LABEL_ALIGN_RIGHT)) {
 232              		.loc 1 701 0 is_stmt 0 discriminator 1
 233 00b8 022B     		cmp	r3, #2
 234 00ba 01D0     		beq	.L16
 702:..\lvgl\lv_objx/lv_label.c ****             lv_point_t size;
 235              		.loc 1 702 0 is_stmt 1
 236 00bc 042B     		cmp	r3, #4
 237 00be 17D1     		bne	.L15
 238              	.L16:
 239              	.LBB29:
 704:..\lvgl\lv_objx/lv_label.c ****             if(size.x > lv_obj_get_width(label)) {
 240              		.loc 1 704 0
 241 00c0 2968     		ldr	r1, [r5]
 242 00c2 B8F92430 		ldrsh	r3, [r8, #36]
 243 00c6 D8F82020 		ldr	r2, [r8, #32]
 244 00ca 0297     		str	r7, [sp, #8]
 245 00cc 43F6FF70 		movw	r0, #16383
 246 00d0 0190     		str	r0, [sp, #4]
 247 00d2 B8F92600 		ldrsh	r0, [r8, #38]
 248 00d6 0090     		str	r0, [sp]
 249 00d8 06A8     		add	r0, sp, #24
 250 00da FFF7FEFF 		bl	lv_txt_get_size
 251              	.LVL28:
 705:..\lvgl\lv_objx/lv_label.c ****                 flag &= ~LV_TXT_FLAG_RIGHT;
 252              		.loc 1 705 0
 253 00de BDF918A0 		ldrsh	r10, [sp, #24]
 254 00e2 2046     		mov	r0, r4
 255 00e4 FFF7FEFF 		bl	lv_obj_get_width
ARM GAS  C:\Users\d3bug\AppData\Local\Temp\cct3SNM7.s 			page 23


 256              	.LVL29:
 257 00e8 8245     		cmp	r10, r0
 258 00ea 01DD     		ble	.L15
 259              	.LVL30:
 707:..\lvgl\lv_objx/lv_label.c ****             }
 260              		.loc 1 707 0
 261 00ec 07F0F307 		and	r7, r7, #243
 262              	.LVL31:
 263              	.L15:
 264              	.LBE29:
 711:..\lvgl\lv_objx/lv_label.c ****     }
 265              		.loc 1 711 0 discriminator 1
 266 00f0 55F8163B 		ldr	r3, [r5], #22
 267              	.LVL32:
 268 00f4 0295     		str	r5, [sp, #8]
 269 00f6 0197     		str	r7, [sp, #4]
 270 00f8 0093     		str	r3, [sp]
 271 00fa 4B46     		mov	r3, r9
 272 00fc 4246     		mov	r2, r8
 273 00fe 3146     		mov	r1, r6
 274 0100 04A8     		add	r0, sp, #16
 275 0102 FFF7FEFF 		bl	lv_draw_label
 276              	.LVL33:
 277              	.LBE27:
 713:..\lvgl\lv_objx/lv_label.c **** }
 278              		.loc 1 713 0 discriminator 1
 279 0106 0120     		movs	r0, #1
 280 0108 03E0     		b	.L9
 281              	.LVL34:
 282              	.L18:
 283              		.cfi_def_cfa_offset 0
 284              		.cfi_restore 4
 285              		.cfi_restore 5
 286              		.cfi_restore 6
 287              		.cfi_restore 7
 288              		.cfi_restore 8
 289              		.cfi_restore 9
 290              		.cfi_restore 10
 291              		.cfi_restore 14
 663:..\lvgl\lv_objx/lv_label.c ****     else if(mode == LV_DESIGN_DRAW_MAIN) {
 292              		.loc 1 663 0
 293 010a 0020     		movs	r0, #0
 294              	.LVL35:
 295 010c 7047     		bx	lr
 296              	.LVL36:
 297              	.L19:
 713:..\lvgl\lv_objx/lv_label.c **** }
 298              		.loc 1 713 0
 299 010e 0120     		movs	r0, #1
 300              	.LVL37:
 301 0110 7047     		bx	lr
 302              	.LVL38:
 303              	.L9:
 304              		.cfi_def_cfa_offset 64
 305              		.cfi_offset 4, -32
 306              		.cfi_offset 5, -28
 307              		.cfi_offset 6, -24
ARM GAS  C:\Users\d3bug\AppData\Local\Temp\cct3SNM7.s 			page 24


 308              		.cfi_offset 7, -20
 309              		.cfi_offset 8, -16
 310              		.cfi_offset 9, -12
 311              		.cfi_offset 10, -8
 312              		.cfi_offset 14, -4
 714:..\lvgl\lv_objx/lv_label.c **** 
 313              		.loc 1 714 0
 314 0112 08B0     		add	sp, sp, #32
 315              		.cfi_def_cfa_offset 32
 316              		@ sp needed
 317 0114 BDE8F087 		pop	{r4, r5, r6, r7, r8, r9, r10, pc}
 318              		.cfi_endproc
 319              	.LFE33:
 320              		.size	lv_label_design, .-lv_label_design
 321              		.section	.text.lv_label_set_align,"ax",%progbits
 322              		.align	2
 323              		.global	lv_label_set_align
 324              		.thumb
 325              		.thumb_func
 326              		.type	lv_label_set_align, %function
 327              	lv_label_set_align:
 328              	.LFB19:
 294:..\lvgl\lv_objx/lv_label.c ****     lv_label_ext_t * ext = lv_obj_get_ext_attr(label);
 329              		.loc 1 294 0
 330              		.cfi_startproc
 331              		@ args = 0, pretend = 0, frame = 0
 332              		@ frame_needed = 0, uses_anonymous_args = 0
 333              	.LVL39:
 334 0000 38B5     		push	{r3, r4, r5, lr}
 335              		.cfi_def_cfa_offset 16
 336              		.cfi_offset 3, -16
 337              		.cfi_offset 4, -12
 338              		.cfi_offset 5, -8
 339              		.cfi_offset 14, -4
 340 0002 0546     		mov	r5, r0
 341 0004 0C46     		mov	r4, r1
 295:..\lvgl\lv_objx/lv_label.c ****     if(ext->align == align) return;
 342              		.loc 1 295 0
 343 0006 FFF7FEFF 		bl	lv_obj_get_ext_attr
 344              	.LVL40:
 296:..\lvgl\lv_objx/lv_label.c **** 
 345              		.loc 1 296 0
 346 000a 837E     		ldrb	r3, [r0, #26]	@ zero_extendqisi2
 347 000c C3F34103 		ubfx	r3, r3, #1, #2
 348 0010 A342     		cmp	r3, r4
 349 0012 06D0     		beq	.L23
 298:..\lvgl\lv_objx/lv_label.c **** 
 350              		.loc 1 298 0
 351 0014 837E     		ldrb	r3, [r0, #26]	@ zero_extendqisi2
 352 0016 64F34203 		bfi	r3, r4, #1, #2
 353 001a 8376     		strb	r3, [r0, #26]
 300:..\lvgl\lv_objx/lv_label.c **** }
 354              		.loc 1 300 0
 355 001c 2846     		mov	r0, r5
 356              	.LVL41:
 357 001e FFF7FEFF 		bl	lv_obj_invalidate
 358              	.LVL42:
ARM GAS  C:\Users\d3bug\AppData\Local\Temp\cct3SNM7.s 			page 25


 359              	.L23:
 360 0022 38BD     		pop	{r3, r4, r5, pc}
 361              		.cfi_endproc
 362              	.LFE19:
 363              		.size	lv_label_set_align, .-lv_label_set_align
 364              		.section	.text.lv_label_set_body_draw,"ax",%progbits
 365              		.align	2
 366              		.global	lv_label_set_body_draw
 367              		.thumb
 368              		.thumb_func
 369              		.type	lv_label_set_body_draw, %function
 370              	lv_label_set_body_draw:
 371              	.LFB21:
 324:..\lvgl\lv_objx/lv_label.c ****     lv_label_ext_t * ext = lv_obj_get_ext_attr(label);
 372              		.loc 1 324 0
 373              		.cfi_startproc
 374              		@ args = 0, pretend = 0, frame = 0
 375              		@ frame_needed = 0, uses_anonymous_args = 0
 376              	.LVL43:
 377 0000 38B5     		push	{r3, r4, r5, lr}
 378              		.cfi_def_cfa_offset 16
 379              		.cfi_offset 3, -16
 380              		.cfi_offset 4, -12
 381              		.cfi_offset 5, -8
 382              		.cfi_offset 14, -4
 383 0002 0546     		mov	r5, r0
 384 0004 0C46     		mov	r4, r1
 325:..\lvgl\lv_objx/lv_label.c ****     if(ext->body_draw == en) return;
 385              		.loc 1 325 0
 386 0006 FFF7FEFF 		bl	lv_obj_get_ext_attr
 387              	.LVL44:
 326:..\lvgl\lv_objx/lv_label.c **** 
 388              		.loc 1 326 0
 389 000a 837E     		ldrb	r3, [r0, #26]	@ zero_extendqisi2
 390 000c C3F34013 		ubfx	r3, r3, #5, #1
 391 0010 A342     		cmp	r3, r4
 392 0012 0DD0     		beq	.L26
 328:..\lvgl\lv_objx/lv_label.c **** 
 393              		.loc 1 328 0
 394 0014 0CB9     		cbnz	r4, .L29
 395 0016 0022     		movs	r2, #0
 396 0018 00E0     		b	.L28
 397              	.L29:
 398 001a 0122     		movs	r2, #1
 399              	.L28:
 328:..\lvgl\lv_objx/lv_label.c **** 
 400              		.loc 1 328 0 is_stmt 0 discriminator 4
 401 001c 837E     		ldrb	r3, [r0, #26]	@ zero_extendqisi2
 402 001e 62F34513 		bfi	r3, r2, #5, #1
 403 0022 8376     		strb	r3, [r0, #26]
 330:..\lvgl\lv_objx/lv_label.c **** 
 404              		.loc 1 330 0 is_stmt 1 discriminator 4
 405 0024 2846     		mov	r0, r5
 406              	.LVL45:
 407 0026 FFF7FEFF 		bl	lv_obj_refresh_ext_size
 408              	.LVL46:
 332:..\lvgl\lv_objx/lv_label.c **** }
ARM GAS  C:\Users\d3bug\AppData\Local\Temp\cct3SNM7.s 			page 26


 409              		.loc 1 332 0 discriminator 4
 410 002a 2846     		mov	r0, r5
 411 002c FFF7FEFF 		bl	lv_obj_invalidate
 412              	.LVL47:
 413              	.L26:
 414 0030 38BD     		pop	{r3, r4, r5, pc}
 415              		.cfi_endproc
 416              	.LFE21:
 417              		.size	lv_label_set_body_draw, .-lv_label_set_body_draw
 418 0032 00BF     		.section	.text.lv_label_get_text,"ax",%progbits
 419              		.align	2
 420              		.global	lv_label_get_text
 421              		.thumb
 422              		.thumb_func
 423              		.type	lv_label_get_text, %function
 424              	lv_label_get_text:
 425              	.LFB23:
 362:..\lvgl\lv_objx/lv_label.c ****     lv_label_ext_t * ext = lv_obj_get_ext_attr(label);
 426              		.loc 1 362 0
 427              		.cfi_startproc
 428              		@ args = 0, pretend = 0, frame = 0
 429              		@ frame_needed = 0, uses_anonymous_args = 0
 430              	.LVL48:
 431 0000 08B5     		push	{r3, lr}
 432              		.cfi_def_cfa_offset 8
 433              		.cfi_offset 3, -8
 434              		.cfi_offset 14, -4
 363:..\lvgl\lv_objx/lv_label.c **** 
 435              		.loc 1 363 0
 436 0002 FFF7FEFF 		bl	lv_obj_get_ext_attr
 437              	.LVL49:
 366:..\lvgl\lv_objx/lv_label.c **** 
 438              		.loc 1 366 0
 439 0006 0068     		ldr	r0, [r0]
 440              	.LVL50:
 441 0008 08BD     		pop	{r3, pc}
 442              		.cfi_endproc
 443              	.LFE23:
 444              		.size	lv_label_get_text, .-lv_label_get_text
 445 000a 00BF     		.section	.text.lv_label_get_long_mode,"ax",%progbits
 446              		.align	2
 447              		.global	lv_label_get_long_mode
 448              		.thumb
 449              		.thumb_func
 450              		.type	lv_label_get_long_mode, %function
 451              	lv_label_get_long_mode:
 452              	.LFB24:
 387:..\lvgl\lv_objx/lv_label.c ****     lv_label_ext_t * ext = lv_obj_get_ext_attr(label);
 453              		.loc 1 387 0
 454              		.cfi_startproc
 455              		@ args = 0, pretend = 0, frame = 0
 456              		@ frame_needed = 0, uses_anonymous_args = 0
 457              	.LVL51:
 458 0000 08B5     		push	{r3, lr}
 459              		.cfi_def_cfa_offset 8
 460              		.cfi_offset 3, -8
 461              		.cfi_offset 14, -4
ARM GAS  C:\Users\d3bug\AppData\Local\Temp\cct3SNM7.s 			page 27


 388:..\lvgl\lv_objx/lv_label.c ****     return ext->long_mode;
 462              		.loc 1 388 0
 463 0002 FFF7FEFF 		bl	lv_obj_get_ext_attr
 464              	.LVL52:
 390:..\lvgl\lv_objx/lv_label.c **** 
 465              		.loc 1 390 0
 466 0006 0079     		ldrb	r0, [r0, #4]	@ zero_extendqisi2
 467              	.LVL53:
 468 0008 08BD     		pop	{r3, pc}
 469              		.cfi_endproc
 470              	.LFE24:
 471              		.size	lv_label_get_long_mode, .-lv_label_get_long_mode
 472 000a 00BF     		.section	.text.lv_label_get_align,"ax",%progbits
 473              		.align	2
 474              		.global	lv_label_get_align
 475              		.thumb
 476              		.thumb_func
 477              		.type	lv_label_get_align, %function
 478              	lv_label_get_align:
 479              	.LFB25:
 398:..\lvgl\lv_objx/lv_label.c ****     lv_label_ext_t * ext = lv_obj_get_ext_attr(label);
 480              		.loc 1 398 0
 481              		.cfi_startproc
 482              		@ args = 0, pretend = 0, frame = 0
 483              		@ frame_needed = 0, uses_anonymous_args = 0
 484              	.LVL54:
 485 0000 08B5     		push	{r3, lr}
 486              		.cfi_def_cfa_offset 8
 487              		.cfi_offset 3, -8
 488              		.cfi_offset 14, -4
 399:..\lvgl\lv_objx/lv_label.c ****     return ext->align;
 489              		.loc 1 399 0
 490 0002 FFF7FEFF 		bl	lv_obj_get_ext_attr
 491              	.LVL55:
 400:..\lvgl\lv_objx/lv_label.c **** }
 492              		.loc 1 400 0
 493 0006 807E     		ldrb	r0, [r0, #26]	@ zero_extendqisi2
 494              	.LVL56:
 401:..\lvgl\lv_objx/lv_label.c **** 
 495              		.loc 1 401 0
 496 0008 C0F34100 		ubfx	r0, r0, #1, #2
 497 000c 08BD     		pop	{r3, pc}
 498              		.cfi_endproc
 499              	.LFE25:
 500              		.size	lv_label_get_align, .-lv_label_get_align
 501 000e 00BF     		.section	.text.lv_label_get_recolor,"ax",%progbits
 502              		.align	2
 503              		.global	lv_label_get_recolor
 504              		.thumb
 505              		.thumb_func
 506              		.type	lv_label_get_recolor, %function
 507              	lv_label_get_recolor:
 508              	.LFB26:
 409:..\lvgl\lv_objx/lv_label.c ****     lv_label_ext_t * ext = lv_obj_get_ext_attr(label);
 509              		.loc 1 409 0
 510              		.cfi_startproc
 511              		@ args = 0, pretend = 0, frame = 0
ARM GAS  C:\Users\d3bug\AppData\Local\Temp\cct3SNM7.s 			page 28


 512              		@ frame_needed = 0, uses_anonymous_args = 0
 513              	.LVL57:
 514 0000 08B5     		push	{r3, lr}
 515              		.cfi_def_cfa_offset 8
 516              		.cfi_offset 3, -8
 517              		.cfi_offset 14, -4
 410:..\lvgl\lv_objx/lv_label.c ****     return ext->recolor == 0 ? false : true;
 518              		.loc 1 410 0
 519 0002 FFF7FEFF 		bl	lv_obj_get_ext_attr
 520              	.LVL58:
 411:..\lvgl\lv_objx/lv_label.c **** }
 521              		.loc 1 411 0
 522 0006 807E     		ldrb	r0, [r0, #26]	@ zero_extendqisi2
 523              	.LVL59:
 412:..\lvgl\lv_objx/lv_label.c **** 
 524              		.loc 1 412 0
 525 0008 C0F3C000 		ubfx	r0, r0, #3, #1
 526 000c 08BD     		pop	{r3, pc}
 527              		.cfi_endproc
 528              	.LFE26:
 529              		.size	lv_label_get_recolor, .-lv_label_get_recolor
 530 000e 00BF     		.section	.text.lv_label_get_body_draw,"ax",%progbits
 531              		.align	2
 532              		.global	lv_label_get_body_draw
 533              		.thumb
 534              		.thumb_func
 535              		.type	lv_label_get_body_draw, %function
 536              	lv_label_get_body_draw:
 537              	.LFB27:
 420:..\lvgl\lv_objx/lv_label.c ****     lv_label_ext_t * ext = lv_obj_get_ext_attr(label);
 538              		.loc 1 420 0
 539              		.cfi_startproc
 540              		@ args = 0, pretend = 0, frame = 0
 541              		@ frame_needed = 0, uses_anonymous_args = 0
 542              	.LVL60:
 543 0000 08B5     		push	{r3, lr}
 544              		.cfi_def_cfa_offset 8
 545              		.cfi_offset 3, -8
 546              		.cfi_offset 14, -4
 421:..\lvgl\lv_objx/lv_label.c ****     return ext->body_draw == 0 ? false : true;
 547              		.loc 1 421 0
 548 0002 FFF7FEFF 		bl	lv_obj_get_ext_attr
 549              	.LVL61:
 422:..\lvgl\lv_objx/lv_label.c **** }
 550              		.loc 1 422 0
 551 0006 807E     		ldrb	r0, [r0, #26]	@ zero_extendqisi2
 552              	.LVL62:
 423:..\lvgl\lv_objx/lv_label.c **** 
 553              		.loc 1 423 0
 554 0008 C0F34010 		ubfx	r0, r0, #5, #1
 555 000c 08BD     		pop	{r3, pc}
 556              		.cfi_endproc
 557              	.LFE27:
 558              		.size	lv_label_get_body_draw, .-lv_label_get_body_draw
 559 000e 00BF     		.section	.text.lv_label_get_anim_speed,"ax",%progbits
 560              		.align	2
 561              		.global	lv_label_get_anim_speed
ARM GAS  C:\Users\d3bug\AppData\Local\Temp\cct3SNM7.s 			page 29


 562              		.thumb
 563              		.thumb_func
 564              		.type	lv_label_get_anim_speed, %function
 565              	lv_label_get_anim_speed:
 566              	.LFB28:
 431:..\lvgl\lv_objx/lv_label.c ****     lv_label_ext_t * ext = lv_obj_get_ext_attr(label);
 567              		.loc 1 431 0
 568              		.cfi_startproc
 569              		@ args = 0, pretend = 0, frame = 0
 570              		@ frame_needed = 0, uses_anonymous_args = 0
 571              	.LVL63:
 572 0000 08B5     		push	{r3, lr}
 573              		.cfi_def_cfa_offset 8
 574              		.cfi_offset 3, -8
 575              		.cfi_offset 14, -4
 432:..\lvgl\lv_objx/lv_label.c ****     return ext->anim_speed;
 576              		.loc 1 432 0
 577 0002 FFF7FEFF 		bl	lv_obj_get_ext_attr
 578              	.LVL64:
 434:..\lvgl\lv_objx/lv_label.c **** 
 579              		.loc 1 434 0
 580 0006 808A     		ldrh	r0, [r0, #20]
 581              	.LVL65:
 582 0008 08BD     		pop	{r3, pc}
 583              		.cfi_endproc
 584              	.LFE28:
 585              		.size	lv_label_get_anim_speed, .-lv_label_get_anim_speed
 586 000a 00BF     		.section	.text.lv_label_get_letter_pos,"ax",%progbits
 587              		.align	2
 588              		.global	lv_label_get_letter_pos
 589              		.thumb
 590              		.thumb_func
 591              		.type	lv_label_get_letter_pos, %function
 592              	lv_label_get_letter_pos:
 593              	.LFB29:
 443:..\lvgl\lv_objx/lv_label.c ****     const char * txt = lv_label_get_text(label);
 594              		.loc 1 443 0
 595              		.cfi_startproc
 596              		@ args = 0, pretend = 0, frame = 24
 597              		@ frame_needed = 0, uses_anonymous_args = 0
 598              	.LVL66:
 599 0000 2DE9F04F 		push	{r4, r5, r6, r7, r8, r9, r10, fp, lr}
 600              		.cfi_def_cfa_offset 36
 601              		.cfi_offset 4, -36
 602              		.cfi_offset 5, -32
 603              		.cfi_offset 6, -28
 604              		.cfi_offset 7, -24
 605              		.cfi_offset 8, -20
 606              		.cfi_offset 9, -16
 607              		.cfi_offset 10, -12
 608              		.cfi_offset 11, -8
 609              		.cfi_offset 14, -4
 610 0004 89B0     		sub	sp, sp, #36
 611              		.cfi_def_cfa_offset 72
 612 0006 0546     		mov	r5, r0
 613 0008 0790     		str	r0, [sp, #28]
 614 000a 0C46     		mov	r4, r1
ARM GAS  C:\Users\d3bug\AppData\Local\Temp\cct3SNM7.s 			page 30


 615 000c 0692     		str	r2, [sp, #24]
 444:..\lvgl\lv_objx/lv_label.c ****     lv_label_ext_t * ext = lv_obj_get_ext_attr(label);
 616              		.loc 1 444 0
 617 000e FFF7FEFF 		bl	lv_label_get_text
 618              	.LVL67:
 619 0012 0746     		mov	r7, r0
 620              	.LVL68:
 445:..\lvgl\lv_objx/lv_label.c ****     uint32_t line_start = 0;
 621              		.loc 1 445 0
 622 0014 2846     		mov	r0, r5
 623              	.LVL69:
 624 0016 FFF7FEFF 		bl	lv_obj_get_ext_attr
 625              	.LVL70:
 626 001a 0646     		mov	r6, r0
 627 001c 0490     		str	r0, [sp, #16]
 628              	.LVL71:
 448:..\lvgl\lv_objx/lv_label.c ****     lv_style_t * style = lv_obj_get_style(label);
 629              		.loc 1 448 0
 630 001e 2846     		mov	r0, r5
 631              	.LVL72:
 632 0020 FFF7FEFF 		bl	lv_obj_get_width
 633              	.LVL73:
 634 0024 0590     		str	r0, [sp, #20]
 635              	.LVL74:
 449:..\lvgl\lv_objx/lv_label.c ****     const lv_font_t * font = style->text.font;
 636              		.loc 1 449 0
 637 0026 2846     		mov	r0, r5
 638 0028 FFF7FEFF 		bl	lv_obj_get_style
 639              	.LVL75:
 640 002c 8046     		mov	r8, r0
 641              	.LVL76:
 450:..\lvgl\lv_objx/lv_label.c ****     uint8_t letter_height = lv_font_get_height(font);
 642              		.loc 1 450 0
 643 002e 036A     		ldr	r3, [r0, #32]
 644 0030 0393     		str	r3, [sp, #12]
 645              	.LVL77:
 646              	.LBB30:
 647              	.LBB31:
 648              		.file 2 "..\\lvgl\\lv_objx\\../lv_core/../lv_misc/lv_font.h"
   1:..\lvgl\lv_objx\../lv_core/../lv_misc/lv_font.h **** /**
   2:..\lvgl\lv_objx\../lv_core/../lv_misc/lv_font.h ****  * @file lv_font.h
   3:..\lvgl\lv_objx\../lv_core/../lv_misc/lv_font.h ****  *
   4:..\lvgl\lv_objx\../lv_core/../lv_misc/lv_font.h ****  */
   5:..\lvgl\lv_objx\../lv_core/../lv_misc/lv_font.h **** 
   6:..\lvgl\lv_objx\../lv_core/../lv_misc/lv_font.h **** #ifndef LV_FONT_H
   7:..\lvgl\lv_objx\../lv_core/../lv_misc/lv_font.h **** #define LV_FONT_H
   8:..\lvgl\lv_objx\../lv_core/../lv_misc/lv_font.h **** 
   9:..\lvgl\lv_objx\../lv_core/../lv_misc/lv_font.h **** #ifdef __cplusplus
  10:..\lvgl\lv_objx\../lv_core/../lv_misc/lv_font.h **** extern "C" {
  11:..\lvgl\lv_objx\../lv_core/../lv_misc/lv_font.h **** #endif
  12:..\lvgl\lv_objx\../lv_core/../lv_misc/lv_font.h **** 
  13:..\lvgl\lv_objx\../lv_core/../lv_misc/lv_font.h **** 
  14:..\lvgl\lv_objx\../lv_core/../lv_misc/lv_font.h **** /*********************
  15:..\lvgl\lv_objx\../lv_core/../lv_misc/lv_font.h ****  *      INCLUDES
  16:..\lvgl\lv_objx\../lv_core/../lv_misc/lv_font.h ****  *********************/
  17:..\lvgl\lv_objx\../lv_core/../lv_misc/lv_font.h **** #ifdef LV_CONF_INCLUDE_SIMPLE
  18:..\lvgl\lv_objx\../lv_core/../lv_misc/lv_font.h **** #include "lv_conf.h"
ARM GAS  C:\Users\d3bug\AppData\Local\Temp\cct3SNM7.s 			page 31


  19:..\lvgl\lv_objx\../lv_core/../lv_misc/lv_font.h **** #else
  20:..\lvgl\lv_objx\../lv_core/../lv_misc/lv_font.h **** #include "../../lv_conf.h"
  21:..\lvgl\lv_objx\../lv_core/../lv_misc/lv_font.h **** #endif
  22:..\lvgl\lv_objx\../lv_core/../lv_misc/lv_font.h **** 
  23:..\lvgl\lv_objx\../lv_core/../lv_misc/lv_font.h **** #include <stdint.h>
  24:..\lvgl\lv_objx\../lv_core/../lv_misc/lv_font.h **** #include <stddef.h>
  25:..\lvgl\lv_objx\../lv_core/../lv_misc/lv_font.h **** #include <stdbool.h>
  26:..\lvgl\lv_objx\../lv_core/../lv_misc/lv_font.h **** 
  27:..\lvgl\lv_objx\../lv_core/../lv_misc/lv_font.h **** #include "lv_symbol_def.h"
  28:..\lvgl\lv_objx\../lv_core/../lv_misc/lv_font.h **** 
  29:..\lvgl\lv_objx\../lv_core/../lv_misc/lv_font.h **** /*********************
  30:..\lvgl\lv_objx\../lv_core/../lv_misc/lv_font.h ****  *      DEFINES
  31:..\lvgl\lv_objx\../lv_core/../lv_misc/lv_font.h ****  *********************/
  32:..\lvgl\lv_objx\../lv_core/../lv_misc/lv_font.h **** 
  33:..\lvgl\lv_objx\../lv_core/../lv_misc/lv_font.h **** /**********************
  34:..\lvgl\lv_objx\../lv_core/../lv_misc/lv_font.h ****  *      TYPEDEFS
  35:..\lvgl\lv_objx\../lv_core/../lv_misc/lv_font.h ****  **********************/
  36:..\lvgl\lv_objx\../lv_core/../lv_misc/lv_font.h **** 
  37:..\lvgl\lv_objx\../lv_core/../lv_misc/lv_font.h **** typedef struct
  38:..\lvgl\lv_objx\../lv_core/../lv_misc/lv_font.h **** {
  39:..\lvgl\lv_objx\../lv_core/../lv_misc/lv_font.h ****     uint32_t w_px         :8;
  40:..\lvgl\lv_objx\../lv_core/../lv_misc/lv_font.h ****     uint32_t glyph_index  :24;
  41:..\lvgl\lv_objx\../lv_core/../lv_misc/lv_font.h **** } lv_font_glyph_dsc_t;
  42:..\lvgl\lv_objx\../lv_core/../lv_misc/lv_font.h **** 
  43:..\lvgl\lv_objx\../lv_core/../lv_misc/lv_font.h **** typedef struct
  44:..\lvgl\lv_objx\../lv_core/../lv_misc/lv_font.h **** {
  45:..\lvgl\lv_objx\../lv_core/../lv_misc/lv_font.h ****     uint32_t unicode         :21;
  46:..\lvgl\lv_objx\../lv_core/../lv_misc/lv_font.h ****     uint32_t glyph_dsc_index :11;
  47:..\lvgl\lv_objx\../lv_core/../lv_misc/lv_font.h **** } lv_font_unicode_map_t;
  48:..\lvgl\lv_objx\../lv_core/../lv_misc/lv_font.h **** 
  49:..\lvgl\lv_objx\../lv_core/../lv_misc/lv_font.h **** typedef struct _lv_font_struct
  50:..\lvgl\lv_objx\../lv_core/../lv_misc/lv_font.h **** {
  51:..\lvgl\lv_objx\../lv_core/../lv_misc/lv_font.h ****     uint32_t unicode_first;
  52:..\lvgl\lv_objx\../lv_core/../lv_misc/lv_font.h ****     uint32_t unicode_last;
  53:..\lvgl\lv_objx\../lv_core/../lv_misc/lv_font.h ****     const uint8_t * glyph_bitmap;
  54:..\lvgl\lv_objx\../lv_core/../lv_misc/lv_font.h ****     const lv_font_glyph_dsc_t * glyph_dsc;
  55:..\lvgl\lv_objx\../lv_core/../lv_misc/lv_font.h ****     const uint32_t * unicode_list;
  56:..\lvgl\lv_objx\../lv_core/../lv_misc/lv_font.h ****     const uint8_t * (*get_bitmap)(const struct _lv_font_struct *,uint32_t);     /*Get a glyph's  bi
  57:..\lvgl\lv_objx\../lv_core/../lv_misc/lv_font.h ****     int16_t (*get_width)(const struct _lv_font_struct *,uint32_t);        /*Get a glyph's with with
  58:..\lvgl\lv_objx\../lv_core/../lv_misc/lv_font.h ****     struct _lv_font_struct * next_page;    /*Pointer to a font extension*/
  59:..\lvgl\lv_objx\../lv_core/../lv_misc/lv_font.h ****     uint32_t h_px       :8;
  60:..\lvgl\lv_objx\../lv_core/../lv_misc/lv_font.h ****     uint32_t bpp        :4;                /*Bit per pixel: 1, 2 or 4*/
  61:..\lvgl\lv_objx\../lv_core/../lv_misc/lv_font.h ****     uint32_t monospace  :8;                /*Fix width (0: normal width)*/
  62:..\lvgl\lv_objx\../lv_core/../lv_misc/lv_font.h ****     uint16_t glyph_cnt;                    /*Number of glyphs (letters) in the font*/
  63:..\lvgl\lv_objx\../lv_core/../lv_misc/lv_font.h **** } lv_font_t;
  64:..\lvgl\lv_objx\../lv_core/../lv_misc/lv_font.h **** 
  65:..\lvgl\lv_objx\../lv_core/../lv_misc/lv_font.h **** /**********************
  66:..\lvgl\lv_objx\../lv_core/../lv_misc/lv_font.h ****  * GLOBAL PROTOTYPES
  67:..\lvgl\lv_objx\../lv_core/../lv_misc/lv_font.h ****  **********************/
  68:..\lvgl\lv_objx\../lv_core/../lv_misc/lv_font.h **** 
  69:..\lvgl\lv_objx\../lv_core/../lv_misc/lv_font.h **** /**
  70:..\lvgl\lv_objx\../lv_core/../lv_misc/lv_font.h ****  * Initialize the fonts
  71:..\lvgl\lv_objx\../lv_core/../lv_misc/lv_font.h ****  */
  72:..\lvgl\lv_objx\../lv_core/../lv_misc/lv_font.h **** void lv_font_init(void);
  73:..\lvgl\lv_objx\../lv_core/../lv_misc/lv_font.h **** 
  74:..\lvgl\lv_objx\../lv_core/../lv_misc/lv_font.h **** /**
  75:..\lvgl\lv_objx\../lv_core/../lv_misc/lv_font.h ****  * Add a font to an other to extend the character set.
ARM GAS  C:\Users\d3bug\AppData\Local\Temp\cct3SNM7.s 			page 32


  76:..\lvgl\lv_objx\../lv_core/../lv_misc/lv_font.h ****  * @param child the font to add
  77:..\lvgl\lv_objx\../lv_core/../lv_misc/lv_font.h ****  * @param parent this font will be extended. Using it later will contain the characters from `child
  78:..\lvgl\lv_objx\../lv_core/../lv_misc/lv_font.h ****  */
  79:..\lvgl\lv_objx\../lv_core/../lv_misc/lv_font.h **** void lv_font_add(lv_font_t *child, lv_font_t *parent);
  80:..\lvgl\lv_objx\../lv_core/../lv_misc/lv_font.h **** 
  81:..\lvgl\lv_objx\../lv_core/../lv_misc/lv_font.h **** /**
  82:..\lvgl\lv_objx\../lv_core/../lv_misc/lv_font.h ****  * Remove a font from a character set.
  83:..\lvgl\lv_objx\../lv_core/../lv_misc/lv_font.h ****  * @param child the font to remove
  84:..\lvgl\lv_objx\../lv_core/../lv_misc/lv_font.h ****  * @param parent remove `child` from here
  85:..\lvgl\lv_objx\../lv_core/../lv_misc/lv_font.h ****  */
  86:..\lvgl\lv_objx\../lv_core/../lv_misc/lv_font.h **** void lv_font_remove(lv_font_t * child, lv_font_t * parent);
  87:..\lvgl\lv_objx\../lv_core/../lv_misc/lv_font.h **** 
  88:..\lvgl\lv_objx\../lv_core/../lv_misc/lv_font.h **** /**
  89:..\lvgl\lv_objx\../lv_core/../lv_misc/lv_font.h ****  * Tells if font which contains `letter` is monospace or not
  90:..\lvgl\lv_objx\../lv_core/../lv_misc/lv_font.h ****  * @param font_p point to font
  91:..\lvgl\lv_objx\../lv_core/../lv_misc/lv_font.h ****  * @param letter an UNICODE character code
  92:..\lvgl\lv_objx\../lv_core/../lv_misc/lv_font.h ****  * @return true: the letter is monospace; false not monospace
  93:..\lvgl\lv_objx\../lv_core/../lv_misc/lv_font.h ****  */
  94:..\lvgl\lv_objx\../lv_core/../lv_misc/lv_font.h **** bool lv_font_is_monospace(const lv_font_t * font_p, uint32_t letter);
  95:..\lvgl\lv_objx\../lv_core/../lv_misc/lv_font.h **** 
  96:..\lvgl\lv_objx\../lv_core/../lv_misc/lv_font.h **** /**
  97:..\lvgl\lv_objx\../lv_core/../lv_misc/lv_font.h ****  * Return with the bitmap of a font.
  98:..\lvgl\lv_objx\../lv_core/../lv_misc/lv_font.h ****  * @param font_p pointer to a font
  99:..\lvgl\lv_objx\../lv_core/../lv_misc/lv_font.h ****  * @param letter an UNICODE character code
 100:..\lvgl\lv_objx\../lv_core/../lv_misc/lv_font.h ****  * @return  pointer to the bitmap of the letter
 101:..\lvgl\lv_objx\../lv_core/../lv_misc/lv_font.h ****  */
 102:..\lvgl\lv_objx\../lv_core/../lv_misc/lv_font.h **** const uint8_t * lv_font_get_bitmap(const lv_font_t * font_p, uint32_t letter);
 103:..\lvgl\lv_objx\../lv_core/../lv_misc/lv_font.h **** 
 104:..\lvgl\lv_objx\../lv_core/../lv_misc/lv_font.h **** /**
 105:..\lvgl\lv_objx\../lv_core/../lv_misc/lv_font.h ****  * Get the width of a letter in a font. If `monospace` is set then return with it.
 106:..\lvgl\lv_objx\../lv_core/../lv_misc/lv_font.h ****  * @param font_p pointer to a font
 107:..\lvgl\lv_objx\../lv_core/../lv_misc/lv_font.h ****  * @param letter an UNICODE character code
 108:..\lvgl\lv_objx\../lv_core/../lv_misc/lv_font.h ****  * @return the width of a letter
 109:..\lvgl\lv_objx\../lv_core/../lv_misc/lv_font.h ****  */
 110:..\lvgl\lv_objx\../lv_core/../lv_misc/lv_font.h **** uint8_t lv_font_get_width(const lv_font_t * font_p, uint32_t letter);
 111:..\lvgl\lv_objx\../lv_core/../lv_misc/lv_font.h **** 
 112:..\lvgl\lv_objx\../lv_core/../lv_misc/lv_font.h **** 
 113:..\lvgl\lv_objx\../lv_core/../lv_misc/lv_font.h **** /**
 114:..\lvgl\lv_objx\../lv_core/../lv_misc/lv_font.h ****  * Get the width of the letter without overwriting it with the `monospace` attribute
 115:..\lvgl\lv_objx\../lv_core/../lv_misc/lv_font.h ****  * @param font_p pointer to a font
 116:..\lvgl\lv_objx\../lv_core/../lv_misc/lv_font.h ****  * @param letter an UNICODE character code
 117:..\lvgl\lv_objx\../lv_core/../lv_misc/lv_font.h ****  * @return the width of a letter
 118:..\lvgl\lv_objx\../lv_core/../lv_misc/lv_font.h ****  */
 119:..\lvgl\lv_objx\../lv_core/../lv_misc/lv_font.h **** uint8_t lv_font_get_real_width(const lv_font_t * font_p, uint32_t letter);
 120:..\lvgl\lv_objx\../lv_core/../lv_misc/lv_font.h **** 
 121:..\lvgl\lv_objx\../lv_core/../lv_misc/lv_font.h **** /**
 122:..\lvgl\lv_objx\../lv_core/../lv_misc/lv_font.h ****  * Get the height of a font
 123:..\lvgl\lv_objx\../lv_core/../lv_misc/lv_font.h ****  * @param font_p pointer to a font
 124:..\lvgl\lv_objx\../lv_core/../lv_misc/lv_font.h ****  * @return the height of a font
 125:..\lvgl\lv_objx\../lv_core/../lv_misc/lv_font.h ****  */
 126:..\lvgl\lv_objx\../lv_core/../lv_misc/lv_font.h **** static inline uint8_t lv_font_get_height(const lv_font_t * font_p)
 127:..\lvgl\lv_objx\../lv_core/../lv_misc/lv_font.h **** {
 128:..\lvgl\lv_objx\../lv_core/../lv_misc/lv_font.h ****     return font_p->h_px;
 649              		.loc 2 128 0
 650 0032 93F820A0 		ldrb	r10, [r3, #32]	@ zero_extendqisi2
 651              	.LVL78:
 652              	.LBE31:
ARM GAS  C:\Users\d3bug\AppData\Local\Temp\cct3SNM7.s 			page 33


 653              	.LBE30:
 455:..\lvgl\lv_objx/lv_label.c ****     if(ext->expand != 0) flag |= LV_TXT_FLAG_EXPAND;
 654              		.loc 1 455 0
 655 0036 B37E     		ldrb	r3, [r6, #26]	@ zero_extendqisi2
 656              	.LVL79:
 657 0038 13F0080F 		tst	r3, #8
 658 003c 02D1     		bne	.L56
 453:..\lvgl\lv_objx/lv_label.c **** 
 659              		.loc 1 453 0
 660 003e 4FF00009 		mov	r9, #0
 661 0042 01E0     		b	.L44
 662              	.L56:
 455:..\lvgl\lv_objx/lv_label.c ****     if(ext->expand != 0) flag |= LV_TXT_FLAG_EXPAND;
 663              		.loc 1 455 0
 664 0044 4FF00109 		mov	r9, #1
 665              	.L44:
 666              	.LVL80:
 456:..\lvgl\lv_objx/lv_label.c ****     if(ext->align == LV_LABEL_ALIGN_CENTER) flag |= LV_TXT_FLAG_CENTER;
 667              		.loc 1 456 0
 668 0048 13F0100F 		tst	r3, #16
 669 004c 01D0     		beq	.L45
 456:..\lvgl\lv_objx/lv_label.c ****     if(ext->align == LV_LABEL_ALIGN_CENTER) flag |= LV_TXT_FLAG_CENTER;
 670              		.loc 1 456 0 is_stmt 0 discriminator 1
 671 004e 49F00209 		orr	r9, r9, #2
 672              	.LVL81:
 673              	.L45:
 457:..\lvgl\lv_objx/lv_label.c **** 
 674              		.loc 1 457 0 is_stmt 1
 675 0052 03F00603 		and	r3, r3, #6
 676 0056 022B     		cmp	r3, #2
 677 0058 01D1     		bne	.L46
 457:..\lvgl\lv_objx/lv_label.c **** 
 678              		.loc 1 457 0 is_stmt 0 discriminator 1
 679 005a 49F00409 		orr	r9, r9, #4
 680              	.LVL82:
 681              	.L46:
 460:..\lvgl\lv_objx/lv_label.c ****         max_w = LV_COORD_MAX;
 682              		.loc 1 460 0 is_stmt 1
 683 005e 049B     		ldr	r3, [sp, #16]
 684 0060 1B79     		ldrb	r3, [r3, #4]	@ zero_extendqisi2
 685 0062 13B1     		cbz	r3, .L57
 460:..\lvgl\lv_objx/lv_label.c ****         max_w = LV_COORD_MAX;
 686              		.loc 1 460 0 is_stmt 0 discriminator 1
 687 0064 022B     		cmp	r3, #2
 688 0066 07D1     		bne	.L47
 689 0068 03E0     		b	.L58
 690              	.L57:
 461:..\lvgl\lv_objx/lv_label.c ****     }
 691              		.loc 1 461 0 is_stmt 1
 692 006a 43F6FF73 		movw	r3, #16383
 693 006e 0593     		str	r3, [sp, #20]
 694              	.LVL83:
 695 0070 02E0     		b	.L47
 696              	.LVL84:
 697              	.L58:
 698 0072 43F6FF73 		movw	r3, #16383
 699 0076 0593     		str	r3, [sp, #20]
ARM GAS  C:\Users\d3bug\AppData\Local\Temp\cct3SNM7.s 			page 34


 700              	.LVL85:
 701              	.L47:
 464:..\lvgl\lv_objx/lv_label.c **** 
 702              		.loc 1 464 0
 703 0078 4B4B     		ldr	r3, .L62
 704 007a 1B68     		ldr	r3, [r3]
 705 007c 2146     		mov	r1, r4
 706 007e 3846     		mov	r0, r7
 707              	.LVL86:
 708 0080 9847     		blx	r3
 709              	.LVL87:
 710 0082 0290     		str	r0, [sp, #8]
 711 0084 1FFA80FB 		uxth	fp, r0
 712              	.LVL88:
 452:..\lvgl\lv_objx/lv_label.c ****     lv_txt_flag_t flag = LV_TXT_FLAG_NONE;
 713              		.loc 1 452 0
 714 0088 0024     		movs	r4, #0
 446:..\lvgl\lv_objx/lv_label.c ****     uint32_t new_line_start = 0;
 715              		.loc 1 446 0
 716 008a 2546     		mov	r5, r4
 717              	.LVL89:
 718 008c 4E46     		mov	r6, r9
 719              	.LVL90:
 720 008e DDF81490 		ldr	r9, [sp, #20]
 721              	.LVL91:
 467:..\lvgl\lv_objx/lv_label.c ****         new_line_start += lv_txt_get_next_line(&txt[line_start], font, style->text.letter_space, ma
 722              		.loc 1 467 0
 723 0092 13E0     		b	.L48
 724              	.LVL92:
 725              	.L50:
 468:..\lvgl\lv_objx/lv_label.c ****         if(index < new_line_start || txt[new_line_start] == '\0') break; /*The line of 'index' lett
 726              		.loc 1 468 0
 727 0094 B8F92420 		ldrsh	r2, [r8, #36]
 728 0098 0096     		str	r6, [sp]
 729 009a 4B46     		mov	r3, r9
 730 009c 0399     		ldr	r1, [sp, #12]
 731 009e FFF7FEFF 		bl	lv_txt_get_next_line
 732              	.LVL93:
 733 00a2 2844     		add	r0, r0, r5
 734              	.LVL94:
 469:..\lvgl\lv_objx/lv_label.c **** 
 735              		.loc 1 469 0
 736 00a4 BDF80830 		ldrh	r3, [sp, #8]
 737 00a8 8342     		cmp	r3, r0
 738 00aa 0ED3     		bcc	.L59
 469:..\lvgl\lv_objx/lv_label.c **** 
 739              		.loc 1 469 0 is_stmt 0 discriminator 1
 740 00ac 3B5C     		ldrb	r3, [r7, r0]	@ zero_extendqisi2
 741 00ae 7BB1     		cbz	r3, .L60
 471:..\lvgl\lv_objx/lv_label.c ****         line_start = new_line_start;
 742              		.loc 1 471 0 is_stmt 1
 743 00b0 B8F92630 		ldrsh	r3, [r8, #38]
 744 00b4 5344     		add	r3, r3, r10
 745 00b6 1C44     		add	r4, r4, r3
 746              	.LVL95:
 747 00b8 24B2     		sxth	r4, r4
 748              	.LVL96:
ARM GAS  C:\Users\d3bug\AppData\Local\Temp\cct3SNM7.s 			page 35


 472:..\lvgl\lv_objx/lv_label.c ****     }
 749              		.loc 1 472 0
 750 00ba 0546     		mov	r5, r0
 751              	.LVL97:
 752              	.L48:
 467:..\lvgl\lv_objx/lv_label.c ****         new_line_start += lv_txt_get_next_line(&txt[line_start], font, style->text.letter_space, ma
 753              		.loc 1 467 0
 754 00bc 7819     		adds	r0, r7, r5
 755 00be 7B5D     		ldrb	r3, [r7, r5]	@ zero_extendqisi2
 756 00c0 002B     		cmp	r3, #0
 757 00c2 E7D1     		bne	.L50
 758 00c4 B146     		mov	r9, r6
 759 00c6 2E46     		mov	r6, r5
 760 00c8 04E0     		b	.L49
 761              	.LVL98:
 762              	.L59:
 763 00ca B146     		mov	r9, r6
 764 00cc 0646     		mov	r6, r0
 765 00ce 01E0     		b	.L49
 766              	.L60:
 767 00d0 B146     		mov	r9, r6
 768 00d2 0646     		mov	r6, r0
 769              	.LVL99:
 770              	.L49:
 476:..\lvgl\lv_objx/lv_label.c ****         if((txt[index - 1] == '\n' || txt[index - 1] == '\r') && txt[index] == '\0') {
 771              		.loc 1 476 0
 772 00d4 BBF1000F 		cmp	fp, #0
 773 00d8 0FD0     		beq	.L51
 774 00da BDF80830 		ldrh	r3, [sp, #8]
 477:..\lvgl\lv_objx/lv_label.c ****             y += letter_height + style->text.line_space;
 775              		.loc 1 477 0
 776 00de 5A1E     		subs	r2, r3, #1
 777 00e0 BA5C     		ldrb	r2, [r7, r2]	@ zero_extendqisi2
 778 00e2 0A2A     		cmp	r2, #10
 779 00e4 01D0     		beq	.L52
 477:..\lvgl\lv_objx/lv_label.c ****             y += letter_height + style->text.line_space;
 780              		.loc 1 477 0 is_stmt 0 discriminator 2
 781 00e6 0D2A     		cmp	r2, #13
 782 00e8 07D1     		bne	.L51
 783              	.L52:
 477:..\lvgl\lv_objx/lv_label.c ****             y += letter_height + style->text.line_space;
 784              		.loc 1 477 0 discriminator 3
 785 00ea FA5C     		ldrb	r2, [r7, r3]	@ zero_extendqisi2
 786 00ec 2AB9     		cbnz	r2, .L51
 478:..\lvgl\lv_objx/lv_label.c ****             line_start = index;
 787              		.loc 1 478 0 is_stmt 1
 788 00ee B8F92620 		ldrsh	r2, [r8, #38]
 789 00f2 9244     		add	r10, r10, r2
 790 00f4 5444     		add	r4, r4, r10
 791              	.LVL100:
 792 00f6 24B2     		sxth	r4, r4
 793              	.LVL101:
 479:..\lvgl\lv_objx/lv_label.c ****         }
 794              		.loc 1 479 0
 795 00f8 1D46     		mov	r5, r3
 796              	.LVL102:
 797              	.L51:
ARM GAS  C:\Users\d3bug\AppData\Local\Temp\cct3SNM7.s 			page 36


 484:..\lvgl\lv_objx/lv_label.c ****                             font, style->text.letter_space, flag);
 798              		.loc 1 484 0
 799 00fa 2F44     		add	r7, r7, r5
 800              	.LVL103:
 801 00fc 1FFA85FA 		uxth	r10, r5
 802 0100 CAEB0B01 		rsb	r1, r10, fp
 803 0104 B8F92430 		ldrsh	r3, [r8, #36]
 804 0108 CDF80090 		str	r9, [sp]
 805 010c 039A     		ldr	r2, [sp, #12]
 806 010e 89B2     		uxth	r1, r1
 807 0110 3846     		mov	r0, r7
 808 0112 FFF7FEFF 		bl	lv_txt_get_width
 809              	.LVL104:
 810 0116 8346     		mov	fp, r0
 811              	.LVL105:
 487:..\lvgl\lv_objx/lv_label.c **** 
 812              		.loc 1 487 0
 813 0118 BDF80830 		ldrh	r3, [sp, #8]
 814 011c 9D42     		cmp	r5, r3
 815 011e 04D0     		beq	.L53
 487:..\lvgl\lv_objx/lv_label.c **** 
 816              		.loc 1 487 0 is_stmt 0 discriminator 1
 817 0120 B8F92430 		ldrsh	r3, [r8, #36]
 818 0124 9B44     		add	fp, fp, r3
 819              	.LVL106:
 820 0126 0FFA8BFB 		sxth	fp, fp
 821              	.LVL107:
 822              	.L53:
 489:..\lvgl\lv_objx/lv_label.c ****         lv_coord_t line_w;
 823              		.loc 1 489 0 is_stmt 1
 824 012a 049B     		ldr	r3, [sp, #16]
 825 012c 9B7E     		ldrb	r3, [r3, #26]	@ zero_extendqisi2
 826 012e 03F00603 		and	r3, r3, #6
 827 0132 022B     		cmp	r3, #2
 828 0134 1BD1     		bne	.L54
 829              	.LBB32:
 491:..\lvgl\lv_objx/lv_label.c ****                                   font, style->text.letter_space, flag);
 830              		.loc 1 491 0
 831 0136 CAEB0601 		rsb	r1, r10, r6
 832 013a B8F92430 		ldrsh	r3, [r8, #36]
 833 013e CDF80090 		str	r9, [sp]
 834 0142 039A     		ldr	r2, [sp, #12]
 835 0144 89B2     		uxth	r1, r1
 836 0146 3846     		mov	r0, r7
 837 0148 FFF7FEFF 		bl	lv_txt_get_width
 838              	.LVL108:
 839 014c 0546     		mov	r5, r0
 840              	.LVL109:
 493:..\lvgl\lv_objx/lv_label.c **** 
 841              		.loc 1 493 0
 842 014e 0798     		ldr	r0, [sp, #28]
 843 0150 FFF7FEFF 		bl	lv_obj_get_width
 844              	.LVL110:
 845 0154 00EBD070 		add	r0, r0, r0, lsr #31
 846 0158 40F34F03 		sbfx	r3, r0, #1, #16
 847 015c 05EBD575 		add	r5, r5, r5, lsr #31
 848              	.LVL111:
ARM GAS  C:\Users\d3bug\AppData\Local\Temp\cct3SNM7.s 			page 37


 849 0160 45F34F02 		sbfx	r2, r5, #1, #16
 850 0164 9B1A     		subs	r3, r3, r2
 851 0166 9B44     		add	fp, fp, r3
 852              	.LVL112:
 853 0168 0FFA8BFB 		sxth	fp, fp
 854              	.LVL113:
 855              	.LBE32:
 856 016c 14E0     		b	.L55
 857              	.LVL114:
 858              	.L54:
 495:..\lvgl\lv_objx/lv_label.c ****         lv_coord_t line_w;
 859              		.loc 1 495 0
 860 016e 042B     		cmp	r3, #4
 861 0170 12D1     		bne	.L55
 862              	.LBB33:
 497:..\lvgl\lv_objx/lv_label.c ****                                   font, style->text.letter_space, flag);
 863              		.loc 1 497 0
 864 0172 CAEB0601 		rsb	r1, r10, r6
 865 0176 B8F92430 		ldrsh	r3, [r8, #36]
 866 017a CDF80090 		str	r9, [sp]
 867 017e 039A     		ldr	r2, [sp, #12]
 868 0180 89B2     		uxth	r1, r1
 869 0182 3846     		mov	r0, r7
 870 0184 FFF7FEFF 		bl	lv_txt_get_width
 871              	.LVL115:
 872 0188 0546     		mov	r5, r0
 873              	.LVL116:
 500:..\lvgl\lv_objx/lv_label.c ****     }
 874              		.loc 1 500 0
 875 018a 0798     		ldr	r0, [sp, #28]
 876 018c FFF7FEFF 		bl	lv_obj_get_width
 877              	.LVL117:
 878 0190 401B     		subs	r0, r0, r5
 879 0192 8344     		add	fp, fp, r0
 880              	.LVL118:
 881 0194 0FFA8BFB 		sxth	fp, fp
 882              	.LVL119:
 883              	.L55:
 884              	.LBE33:
 502:..\lvgl\lv_objx/lv_label.c ****     pos->y = y;
 885              		.loc 1 502 0
 886 0198 069A     		ldr	r2, [sp, #24]
 887 019a A2F800B0 		strh	fp, [r2]	@ movhi
 503:..\lvgl\lv_objx/lv_label.c **** }
 888              		.loc 1 503 0
 889 019e 5480     		strh	r4, [r2, #2]	@ movhi
 504:..\lvgl\lv_objx/lv_label.c **** 
 890              		.loc 1 504 0
 891 01a0 09B0     		add	sp, sp, #36
 892              		.cfi_def_cfa_offset 36
 893              		@ sp needed
 894 01a2 BDE8F08F 		pop	{r4, r5, r6, r7, r8, r9, r10, fp, pc}
 895              	.LVL120:
 896              	.L63:
 897 01a6 00BF     		.align	2
 898              	.L62:
 899 01a8 00000000 		.word	lv_txt_encoded_get_byte_id
ARM GAS  C:\Users\d3bug\AppData\Local\Temp\cct3SNM7.s 			page 38


 900              		.cfi_endproc
 901              	.LFE29:
 902              		.size	lv_label_get_letter_pos, .-lv_label_get_letter_pos
 903              		.section	.text.lv_label_get_letter_on,"ax",%progbits
 904              		.align	2
 905              		.global	lv_label_get_letter_on
 906              		.thumb
 907              		.thumb_func
 908              		.type	lv_label_get_letter_on, %function
 909              	lv_label_get_letter_on:
 910              	.LFB30:
 514:..\lvgl\lv_objx/lv_label.c ****     const char * txt = lv_label_get_text(label);
 911              		.loc 1 514 0
 912              		.cfi_startproc
 913              		@ args = 0, pretend = 0, frame = 24
 914              		@ frame_needed = 0, uses_anonymous_args = 0
 915              	.LVL121:
 916 0000 2DE9F04F 		push	{r4, r5, r6, r7, r8, r9, r10, fp, lr}
 917              		.cfi_def_cfa_offset 36
 918              		.cfi_offset 4, -36
 919              		.cfi_offset 5, -32
 920              		.cfi_offset 6, -28
 921              		.cfi_offset 7, -24
 922              		.cfi_offset 8, -20
 923              		.cfi_offset 9, -16
 924              		.cfi_offset 10, -12
 925              		.cfi_offset 11, -8
 926              		.cfi_offset 14, -4
 927 0004 89B0     		sub	sp, sp, #36
 928              		.cfi_def_cfa_offset 72
 929 0006 0446     		mov	r4, r0
 930 0008 0590     		str	r0, [sp, #20]
 931 000a 8B46     		mov	fp, r1
 515:..\lvgl\lv_objx/lv_label.c ****     lv_label_ext_t * ext = lv_obj_get_ext_attr(label);
 932              		.loc 1 515 0
 933 000c FFF7FEFF 		bl	lv_label_get_text
 934              	.LVL122:
 935 0010 0646     		mov	r6, r0
 936              	.LVL123:
 516:..\lvgl\lv_objx/lv_label.c ****     uint32_t line_start = 0;
 937              		.loc 1 516 0
 938 0012 2046     		mov	r0, r4
 939              	.LVL124:
 940 0014 FFF7FEFF 		bl	lv_obj_get_ext_attr
 941              	.LVL125:
 942 0018 0546     		mov	r5, r0
 943 001a 0490     		str	r0, [sp, #16]
 944              	.LVL126:
 519:..\lvgl\lv_objx/lv_label.c ****     lv_style_t * style = lv_obj_get_style(label);
 945              		.loc 1 519 0
 946 001c 2046     		mov	r0, r4
 947              	.LVL127:
 948 001e FFF7FEFF 		bl	lv_obj_get_width
 949              	.LVL128:
 950 0022 0390     		str	r0, [sp, #12]
 951              	.LVL129:
 520:..\lvgl\lv_objx/lv_label.c ****     const lv_font_t * font = style->text.font;
ARM GAS  C:\Users\d3bug\AppData\Local\Temp\cct3SNM7.s 			page 39


 952              		.loc 1 520 0
 953 0024 2046     		mov	r0, r4
 954 0026 FFF7FEFF 		bl	lv_obj_get_style
 955              	.LVL130:
 956 002a 8046     		mov	r8, r0
 957              	.LVL131:
 521:..\lvgl\lv_objx/lv_label.c ****     uint8_t letter_height = lv_font_get_height(font);
 958              		.loc 1 521 0
 959 002c 036A     		ldr	r3, [r0, #32]
 960 002e 0293     		str	r3, [sp, #8]
 961              	.LVL132:
 962              	.LBB34:
 963              	.LBB35:
 964              		.loc 2 128 0
 965 0030 93F820A0 		ldrb	r10, [r3, #32]	@ zero_extendqisi2
 966              	.LVL133:
 967              	.LBE35:
 968              	.LBE34:
 526:..\lvgl\lv_objx/lv_label.c ****     if(ext->expand != 0) flag |= LV_TXT_FLAG_EXPAND;
 969              		.loc 1 526 0
 970 0034 AB7E     		ldrb	r3, [r5, #26]	@ zero_extendqisi2
 971              	.LVL134:
 972 0036 13F0080F 		tst	r3, #8
 973 003a 02D1     		bne	.L79
 524:..\lvgl\lv_objx/lv_label.c **** 
 974              		.loc 1 524 0
 975 003c 4FF00009 		mov	r9, #0
 976 0040 01E0     		b	.L65
 977              	.L79:
 526:..\lvgl\lv_objx/lv_label.c ****     if(ext->expand != 0) flag |= LV_TXT_FLAG_EXPAND;
 978              		.loc 1 526 0
 979 0042 4FF00109 		mov	r9, #1
 980              	.L65:
 981              	.LVL135:
 527:..\lvgl\lv_objx/lv_label.c ****     if(ext->align == LV_LABEL_ALIGN_CENTER) flag |= LV_TXT_FLAG_CENTER;
 982              		.loc 1 527 0
 983 0046 13F0100F 		tst	r3, #16
 984 004a 01D0     		beq	.L66
 527:..\lvgl\lv_objx/lv_label.c ****     if(ext->align == LV_LABEL_ALIGN_CENTER) flag |= LV_TXT_FLAG_CENTER;
 985              		.loc 1 527 0 is_stmt 0 discriminator 1
 986 004c 49F00209 		orr	r9, r9, #2
 987              	.LVL136:
 988              	.L66:
 528:..\lvgl\lv_objx/lv_label.c **** 
 989              		.loc 1 528 0 is_stmt 1
 990 0050 03F00603 		and	r3, r3, #6
 991 0054 022B     		cmp	r3, #2
 992 0056 01D1     		bne	.L67
 528:..\lvgl\lv_objx/lv_label.c **** 
 993              		.loc 1 528 0 is_stmt 0 discriminator 1
 994 0058 49F00409 		orr	r9, r9, #4
 995              	.LVL137:
 996              	.L67:
 531:..\lvgl\lv_objx/lv_label.c ****         max_w = LV_COORD_MAX;
 997              		.loc 1 531 0 is_stmt 1
 998 005c 049B     		ldr	r3, [sp, #16]
 999 005e 1B79     		ldrb	r3, [r3, #4]	@ zero_extendqisi2
ARM GAS  C:\Users\d3bug\AppData\Local\Temp\cct3SNM7.s 			page 40


 1000 0060 13B1     		cbz	r3, .L80
 531:..\lvgl\lv_objx/lv_label.c ****         max_w = LV_COORD_MAX;
 1001              		.loc 1 531 0 is_stmt 0 discriminator 1
 1002 0062 022B     		cmp	r3, #2
 1003 0064 07D1     		bne	.L68
 1004 0066 03E0     		b	.L81
 1005              	.L80:
 532:..\lvgl\lv_objx/lv_label.c ****     }
 1006              		.loc 1 532 0 is_stmt 1
 1007 0068 43F6FF73 		movw	r3, #16383
 1008 006c 0393     		str	r3, [sp, #12]
 1009              	.LVL138:
 1010 006e 02E0     		b	.L68
 1011              	.LVL139:
 1012              	.L81:
 1013 0070 43F6FF73 		movw	r3, #16383
 1014 0074 0393     		str	r3, [sp, #12]
 1015              	.LVL140:
 1016              	.L68:
 1017 0076 0024     		movs	r4, #0
 1018              	.LVL141:
 1019 0078 2546     		mov	r5, r4
 1020              	.LVL142:
 1021 007a 15E0     		b	.L69
 1022              	.LVL143:
 1023              	.L71:
 537:..\lvgl\lv_objx/lv_label.c **** 
 1024              		.loc 1 537 0
 1025 007c B8F92420 		ldrsh	r2, [r8, #36]
 1026 0080 CDF80090 		str	r9, [sp]
 1027 0084 039B     		ldr	r3, [sp, #12]
 1028 0086 0299     		ldr	r1, [sp, #8]
 1029 0088 3846     		mov	r0, r7
 1030 008a FFF7FEFF 		bl	lv_txt_get_next_line
 1031              	.LVL144:
 1032 008e 2844     		add	r0, r0, r5
 1033              	.LVL145:
 539:..\lvgl\lv_objx/lv_label.c ****         y += letter_height + style->text.line_space;
 1034              		.loc 1 539 0
 1035 0090 BBF90220 		ldrsh	r2, [fp, #2]
 1036 0094 04EB0A03 		add	r3, r4, r10
 1037 0098 9A42     		cmp	r2, r3
 1038 009a 0CDD     		ble	.L83
 540:..\lvgl\lv_objx/lv_label.c **** 
 1039              		.loc 1 540 0
 1040 009c B8F92630 		ldrsh	r3, [r8, #38]
 1041 00a0 5344     		add	r3, r3, r10
 1042 00a2 1C44     		add	r4, r4, r3
 1043              	.LVL146:
 1044 00a4 24B2     		sxth	r4, r4
 1045              	.LVL147:
 542:..\lvgl\lv_objx/lv_label.c ****     }
 1046              		.loc 1 542 0
 1047 00a6 0546     		mov	r5, r0
 1048              	.LVL148:
 1049              	.L69:
 536:..\lvgl\lv_objx/lv_label.c ****         new_line_start += lv_txt_get_next_line(&txt[line_start], font, style->text.letter_space, ma
ARM GAS  C:\Users\d3bug\AppData\Local\Temp\cct3SNM7.s 			page 41


 1050              		.loc 1 536 0
 1051 00a8 7719     		adds	r7, r6, r5
 1052 00aa 735D     		ldrb	r3, [r6, r5]	@ zero_extendqisi2
 1053 00ac 002B     		cmp	r3, #0
 1054 00ae E5D1     		bne	.L71
 1055 00b0 3C46     		mov	r4, r7
 1056              	.LVL149:
 1057 00b2 2F46     		mov	r7, r5
 1058 00b4 01E0     		b	.L70
 1059              	.LVL150:
 1060              	.L83:
 1061 00b6 3C46     		mov	r4, r7
 1062              	.LVL151:
 1063 00b8 0746     		mov	r7, r0
 1064              	.LVL152:
 1065              	.L70:
 547:..\lvgl\lv_objx/lv_label.c ****         lv_coord_t line_w;
 1066              		.loc 1 547 0
 1067 00ba 049B     		ldr	r3, [sp, #16]
 1068 00bc 9B7E     		ldrb	r3, [r3, #26]	@ zero_extendqisi2
 1069 00be 03F00603 		and	r3, r3, #6
 1070 00c2 022B     		cmp	r3, #2
 1071 00c4 18D1     		bne	.L82
 1072              	.LBB36:
 549:..\lvgl\lv_objx/lv_label.c ****                                   font, style->text.letter_space, flag);
 1073              		.loc 1 549 0
 1074 00c6 791B     		subs	r1, r7, r5
 1075 00c8 B8F92430 		ldrsh	r3, [r8, #36]
 1076 00cc CDF80090 		str	r9, [sp]
 1077 00d0 029A     		ldr	r2, [sp, #8]
 1078 00d2 89B2     		uxth	r1, r1
 1079 00d4 2046     		mov	r0, r4
 1080 00d6 FFF7FEFF 		bl	lv_txt_get_width
 1081              	.LVL153:
 1082 00da 0446     		mov	r4, r0
 1083              	.LVL154:
 551:..\lvgl\lv_objx/lv_label.c ****     }
 1084              		.loc 1 551 0
 1085 00dc 0598     		ldr	r0, [sp, #20]
 1086 00de FFF7FEFF 		bl	lv_obj_get_width
 1087              	.LVL155:
 1088 00e2 00EBD070 		add	r0, r0, r0, lsr #31
 1089 00e6 40F34F02 		sbfx	r2, r0, #1, #16
 1090 00ea 04EBD474 		add	r4, r4, r4, lsr #31
 1091              	.LVL156:
 1092 00ee 44F34F03 		sbfx	r3, r4, #1, #16
 1093 00f2 D31A     		subs	r3, r2, r3
 1094 00f4 1CB2     		sxth	r4, r3
 1095              	.LVL157:
 1096 00f6 00E0     		b	.L72
 1097              	.LVL158:
 1098              	.L82:
 1099              	.LBE36:
 546:..\lvgl\lv_objx/lv_label.c ****     if(ext->align == LV_LABEL_ALIGN_CENTER) {
 1100              		.loc 1 546 0
 1101 00f8 0024     		movs	r4, #0
 1102              	.LVL159:
ARM GAS  C:\Users\d3bug\AppData\Local\Temp\cct3SNM7.s 			page 42


 1103              	.L72:
 554:..\lvgl\lv_objx/lv_label.c ****     uint32_t i = line_start;
 1104              		.loc 1 554 0
 1105 00fa 0023     		movs	r3, #0
 1106 00fc 8DF81F30 		strb	r3, [sp, #31]
 555:..\lvgl\lv_objx/lv_label.c ****     uint32_t i_current = i;
 1107              		.loc 1 555 0
 1108 0100 0695     		str	r5, [sp, #24]
 1109              	.LVL160:
 558:..\lvgl\lv_objx/lv_label.c ****         letter = lv_txt_encoded_next(txt, &i);    /*Be careful 'i' already points to the next chara
 1110              		.loc 1 558 0
 1111 0102 21E0     		b	.L73
 1112              	.LVL161:
 1113              	.L78:
 559:..\lvgl\lv_objx/lv_label.c ****         /*Handle the recolor command*/
 1114              		.loc 1 559 0
 1115 0104 174B     		ldr	r3, .L85
 1116 0106 1B68     		ldr	r3, [r3]
 1117 0108 06A9     		add	r1, sp, #24
 1118 010a 3046     		mov	r0, r6
 1119 010c 9847     		blx	r3
 1120              	.LVL162:
 1121 010e 8246     		mov	r10, r0
 1122              	.LVL163:
 561:..\lvgl\lv_objx/lv_label.c ****             if(lv_txt_is_cmd(&cmd_state, txt[i]) != false) {
 1123              		.loc 1 561 0
 1124 0110 19F0010F 		tst	r9, #1
 1125 0114 06D0     		beq	.L74
 562:..\lvgl\lv_objx/lv_label.c ****                 continue; /*Skip the letter is it is part of a command*/
 1126              		.loc 1 562 0
 1127 0116 069B     		ldr	r3, [sp, #24]
 1128 0118 F15C     		ldrb	r1, [r6, r3]	@ zero_extendqisi2
 1129 011a 0DF11F00 		add	r0, sp, #31
 1130              	.LVL164:
 1131 011e FFF7FEFF 		bl	lv_txt_is_cmd
 1132              	.LVL165:
 1133 0122 88B9     		cbnz	r0, .L73
 1134              	.L74:
 567:..\lvgl\lv_objx/lv_label.c ****         if(pos->x < x) {
 1135              		.loc 1 567 0
 1136 0124 5146     		mov	r1, r10
 1137 0126 0298     		ldr	r0, [sp, #8]
 1138 0128 FFF7FEFF 		bl	lv_font_get_width
 1139              	.LVL166:
 1140 012c 2044     		add	r0, r0, r4
 1141 012e 84B2     		uxth	r4, r0
 1142              	.LVL167:
 1143 0130 22B2     		sxth	r2, r4
 1144              	.LVL168:
 568:..\lvgl\lv_objx/lv_label.c ****             i = i_current;
 1145              		.loc 1 568 0
 1146 0132 BBF90030 		ldrsh	r3, [fp]
 1147 0136 9A42     		cmp	r2, r3
 1148 0138 01DD     		ble	.L76
 569:..\lvgl\lv_objx/lv_label.c ****             break;
 1149              		.loc 1 569 0
 1150 013a 0695     		str	r5, [sp, #24]
ARM GAS  C:\Users\d3bug\AppData\Local\Temp\cct3SNM7.s 			page 43


 570:..\lvgl\lv_objx/lv_label.c ****         }
 1151              		.loc 1 570 0
 1152 013c 08E0     		b	.L77
 1153              	.L76:
 572:..\lvgl\lv_objx/lv_label.c ****         i_current = i;
 1154              		.loc 1 572 0
 1155 013e B8F92400 		ldrsh	r0, [r8, #36]
 1156 0142 0444     		add	r4, r4, r0
 1157 0144 24B2     		sxth	r4, r4
 1158              	.LVL169:
 573:..\lvgl\lv_objx/lv_label.c ****     }
 1159              		.loc 1 573 0
 1160 0146 069D     		ldr	r5, [sp, #24]
 1161              	.LVL170:
 1162              	.L73:
 558:..\lvgl\lv_objx/lv_label.c ****         letter = lv_txt_encoded_next(txt, &i);    /*Be careful 'i' already points to the next chara
 1163              		.loc 1 558 0
 1164 0148 7B1E     		subs	r3, r7, #1
 1165 014a 069A     		ldr	r2, [sp, #24]
 1166 014c 9342     		cmp	r3, r2
 1167 014e D9D8     		bhi	.L78
 1168              	.LVL171:
 1169              	.L77:
 576:..\lvgl\lv_objx/lv_label.c **** }
 1170              		.loc 1 576 0
 1171 0150 054B     		ldr	r3, .L85+4
 1172 0152 1B68     		ldr	r3, [r3]
 1173 0154 0699     		ldr	r1, [sp, #24]
 1174 0156 3046     		mov	r0, r6
 1175 0158 9847     		blx	r3
 1176              	.LVL172:
 577:..\lvgl\lv_objx/lv_label.c **** 
 1177              		.loc 1 577 0
 1178 015a 80B2     		uxth	r0, r0
 1179 015c 09B0     		add	sp, sp, #36
 1180              		.cfi_def_cfa_offset 36
 1181              		@ sp needed
 1182 015e BDE8F08F 		pop	{r4, r5, r6, r7, r8, r9, r10, fp, pc}
 1183              	.LVL173:
 1184              	.L86:
 1185 0162 00BF     		.align	2
 1186              	.L85:
 1187 0164 00000000 		.word	lv_txt_encoded_next
 1188 0168 00000000 		.word	lv_encoded_get_char_id
 1189              		.cfi_endproc
 1190              	.LFE30:
 1191              		.size	lv_label_get_letter_on, .-lv_label_get_letter_on
 1192              		.section	.text.lv_label_refr_text,"ax",%progbits
 1193              		.align	2
 1194              		.thumb
 1195              		.thumb_func
 1196              		.type	lv_label_refr_text, %function
 1197              	lv_label_refr_text:
 1198              	.LFB35:
 784:..\lvgl\lv_objx/lv_label.c ****     lv_label_ext_t * ext = lv_obj_get_ext_attr(label);
 1199              		.loc 1 784 0
 1200              		.cfi_startproc
ARM GAS  C:\Users\d3bug\AppData\Local\Temp\cct3SNM7.s 			page 44


 1201              		@ args = 0, pretend = 0, frame = 16
 1202              		@ frame_needed = 0, uses_anonymous_args = 0
 1203              	.LVL174:
 1204 0000 2DE9F047 		push	{r4, r5, r6, r7, r8, r9, r10, lr}
 1205              		.cfi_def_cfa_offset 32
 1206              		.cfi_offset 4, -32
 1207              		.cfi_offset 5, -28
 1208              		.cfi_offset 6, -24
 1209              		.cfi_offset 7, -20
 1210              		.cfi_offset 8, -16
 1211              		.cfi_offset 9, -12
 1212              		.cfi_offset 10, -8
 1213              		.cfi_offset 14, -4
 1214 0004 88B0     		sub	sp, sp, #32
 1215              		.cfi_def_cfa_offset 64
 1216 0006 0546     		mov	r5, r0
 785:..\lvgl\lv_objx/lv_label.c **** 
 1217              		.loc 1 785 0
 1218 0008 FFF7FEFF 		bl	lv_obj_get_ext_attr
 1219              	.LVL175:
 787:..\lvgl\lv_objx/lv_label.c **** 
 1220              		.loc 1 787 0
 1221 000c 0368     		ldr	r3, [r0]
 1222 000e 002B     		cmp	r3, #0
 1223 0010 00F0BA80 		beq	.L87
 1224 0014 0446     		mov	r4, r0
 789:..\lvgl\lv_objx/lv_label.c ****     lv_style_t * style = lv_obj_get_style(label);
 1225              		.loc 1 789 0
 1226 0016 2846     		mov	r0, r5
 1227              	.LVL176:
 1228 0018 FFF7FEFF 		bl	lv_obj_get_width
 1229              	.LVL177:
 1230 001c 0746     		mov	r7, r0
 1231              	.LVL178:
 790:..\lvgl\lv_objx/lv_label.c ****     const lv_font_t * font = style->text.font;
 1232              		.loc 1 790 0
 1233 001e 2846     		mov	r0, r5
 1234 0020 FFF7FEFF 		bl	lv_obj_get_style
 1235              	.LVL179:
 1236 0024 0646     		mov	r6, r0
 1237              	.LVL180:
 791:..\lvgl\lv_objx/lv_label.c **** 
 1238              		.loc 1 791 0
 1239 0026 026A     		ldr	r2, [r0, #32]
 1240              	.LVL181:
 794:..\lvgl\lv_objx/lv_label.c ****             ext->long_mode == LV_LABEL_LONG_SCROLL) {
 1241              		.loc 1 794 0
 1242 0028 2379     		ldrb	r3, [r4, #4]	@ zero_extendqisi2
 1243 002a 13B1     		cbz	r3, .L103
 794:..\lvgl\lv_objx/lv_label.c ****             ext->long_mode == LV_LABEL_LONG_SCROLL) {
 1244              		.loc 1 794 0 is_stmt 0 discriminator 1
 1245 002c 022B     		cmp	r3, #2
 1246 002e 05D1     		bne	.L89
 1247 0030 02E0     		b	.L104
 1248              	.L103:
 796:..\lvgl\lv_objx/lv_label.c ****     }
 1249              		.loc 1 796 0 is_stmt 1
ARM GAS  C:\Users\d3bug\AppData\Local\Temp\cct3SNM7.s 			page 45


 1250 0032 43F6FF77 		movw	r7, #16383
 1251              	.LVL182:
 1252 0036 01E0     		b	.L89
 1253              	.LVL183:
 1254              	.L104:
 1255 0038 43F6FF77 		movw	r7, #16383
 1256              	.LVL184:
 1257              	.L89:
 802:..\lvgl\lv_objx/lv_label.c ****     if(ext->expand != 0) flag |= LV_TXT_FLAG_EXPAND;
 1258              		.loc 1 802 0
 1259 003c A37E     		ldrb	r3, [r4, #26]	@ zero_extendqisi2
 1260 003e 13F0080F 		tst	r3, #8
 1261 0042 01D1     		bne	.L105
 801:..\lvgl\lv_objx/lv_label.c ****     if(ext->recolor != 0) flag |= LV_TXT_FLAG_RECOLOR;
 1262              		.loc 1 801 0
 1263 0044 0020     		movs	r0, #0
 1264              	.LVL185:
 1265 0046 00E0     		b	.L90
 1266              	.LVL186:
 1267              	.L105:
 802:..\lvgl\lv_objx/lv_label.c ****     if(ext->expand != 0) flag |= LV_TXT_FLAG_EXPAND;
 1268              		.loc 1 802 0
 1269 0048 0120     		movs	r0, #1
 1270              	.LVL187:
 1271              	.L90:
 803:..\lvgl\lv_objx/lv_label.c ****     lv_txt_get_size(&size, ext->text, font, style->text.letter_space, style->text.line_space, max_w
 1272              		.loc 1 803 0
 1273 004a 13F0100F 		tst	r3, #16
 1274 004e 01D0     		beq	.L91
 803:..\lvgl\lv_objx/lv_label.c ****     lv_txt_get_size(&size, ext->text, font, style->text.letter_space, style->text.line_space, max_w
 1275              		.loc 1 803 0 is_stmt 0 discriminator 1
 1276 0050 40F00200 		orr	r0, r0, #2
 1277              	.LVL188:
 1278              	.L91:
 804:..\lvgl\lv_objx/lv_label.c **** 
 1279              		.loc 1 804 0 is_stmt 1
 1280 0054 2168     		ldr	r1, [r4]
 1281 0056 B6F92430 		ldrsh	r3, [r6, #36]
 1282 005a 0290     		str	r0, [sp, #8]
 1283 005c 0197     		str	r7, [sp, #4]
 1284 005e B6F92600 		ldrsh	r0, [r6, #38]
 1285              	.LVL189:
 1286 0062 0090     		str	r0, [sp]
 1287 0064 07A8     		add	r0, sp, #28
 1288 0066 FFF7FEFF 		bl	lv_txt_get_size
 1289              	.LVL190:
 807:..\lvgl\lv_objx/lv_label.c ****         lv_obj_set_size(label, size.x, size.y);
 1290              		.loc 1 807 0
 1291 006a 2379     		ldrb	r3, [r4, #4]	@ zero_extendqisi2
 1292 006c 0BB1     		cbz	r3, .L92
 807:..\lvgl\lv_objx/lv_label.c ****         lv_obj_set_size(label, size.x, size.y);
 1293              		.loc 1 807 0 is_stmt 0 discriminator 1
 1294 006e 022B     		cmp	r3, #2
 1295 0070 07D1     		bne	.L93
 1296              	.L92:
 808:..\lvgl\lv_objx/lv_label.c **** 
 1297              		.loc 1 808 0 is_stmt 1
ARM GAS  C:\Users\d3bug\AppData\Local\Temp\cct3SNM7.s 			page 46


 1298 0072 BDF91E20 		ldrsh	r2, [sp, #30]
 1299 0076 BDF91C10 		ldrsh	r1, [sp, #28]
 1300 007a 2846     		mov	r0, r5
 1301 007c FFF7FEFF 		bl	lv_obj_set_size
 1302              	.LVL191:
 811:..\lvgl\lv_objx/lv_label.c **** #if USE_LV_ANIMATION
 1303              		.loc 1 811 0
 1304 0080 7FE0     		b	.L94
 1305              	.L93:
 847:..\lvgl\lv_objx/lv_label.c **** #if USE_LV_ANIMATION
 1306              		.loc 1 847 0
 1307 0082 042B     		cmp	r3, #4
 1308 0084 7DD0     		beq	.L94
 884:..\lvgl\lv_objx/lv_label.c ****         if(size.y <= lv_obj_get_height(label)) {                /*No dots are required, the text is
 1309              		.loc 1 884 0
 1310 0086 032B     		cmp	r3, #3
 1311 0088 74D1     		bne	.L95
 885:..\lvgl\lv_objx/lv_label.c ****             ext->dot_end = LV_LABEL_DOT_END_INV;
 1312              		.loc 1 885 0
 1313 008a BDF91E70 		ldrsh	r7, [sp, #30]
 1314              	.LVL192:
 1315 008e 2846     		mov	r0, r5
 1316 0090 FFF7FEFF 		bl	lv_obj_get_height
 1317              	.LVL193:
 1318 0094 8742     		cmp	r7, r0
 1319 0096 03DC     		bgt	.L96
 886:..\lvgl\lv_objx/lv_label.c ****         } else if(lv_txt_get_encoded_length(ext->text) <= LV_LABEL_DOT_NUM) {     /*Don't turn to d
 1320              		.loc 1 886 0
 1321 0098 4FF6FF73 		movw	r3, #65535
 1322 009c 6382     		strh	r3, [r4, #18]	@ movhi
 1323 009e 70E0     		b	.L94
 1324              	.L96:
 887:..\lvgl\lv_objx/lv_label.c ****             ext->dot_end = LV_LABEL_DOT_END_INV;
 1325              		.loc 1 887 0
 1326 00a0 3B4B     		ldr	r3, .L107
 1327 00a2 1B68     		ldr	r3, [r3]
 1328 00a4 2068     		ldr	r0, [r4]
 1329 00a6 9847     		blx	r3
 1330              	.LVL194:
 1331 00a8 0328     		cmp	r0, #3
 1332 00aa 03D8     		bhi	.L97
 888:..\lvgl\lv_objx/lv_label.c ****         } else {
 1333              		.loc 1 888 0
 1334 00ac 4FF6FF73 		movw	r3, #65535
 1335 00b0 6382     		strh	r3, [r4, #18]	@ movhi
 1336 00b2 66E0     		b	.L94
 1337              	.L97:
 1338              	.LBB37:
 891:..\lvgl\lv_objx/lv_label.c ****             p.y = lv_obj_get_height(label);
 1339              		.loc 1 891 0
 1340 00b4 2846     		mov	r0, r5
 1341 00b6 FFF7FEFF 		bl	lv_obj_get_width
 1342              	.LVL195:
 1343 00ba 0746     		mov	r7, r0
 1344 00bc 2E21     		movs	r1, #46
 1345 00be 306A     		ldr	r0, [r6, #32]
 1346 00c0 FFF7FEFF 		bl	lv_font_get_width
ARM GAS  C:\Users\d3bug\AppData\Local\Temp\cct3SNM7.s 			page 47


 1347              	.LVL196:
 1348 00c4 B6F92430 		ldrsh	r3, [r6, #36]
 1349 00c8 1844     		add	r0, r0, r3
 1350 00ca A0EB8000 		sub	r0, r0, r0, lsl #2
 1351 00ce 3844     		add	r0, r0, r7
 1352 00d0 ADF81400 		strh	r0, [sp, #20]	@ movhi
 892:..\lvgl\lv_objx/lv_label.c ****             p.y -= p.y  % (lv_font_get_height(style->text.font) + style->text.line_space);   /*Roun
 1353              		.loc 1 892 0
 1354 00d4 2846     		mov	r0, r5
 1355 00d6 FFF7FEFF 		bl	lv_obj_get_height
 1356              	.LVL197:
 893:..\lvgl\lv_objx/lv_label.c ****             p.y -= style->text.line_space;                                                      /*T
 1357              		.loc 1 893 0
 1358 00da 336A     		ldr	r3, [r6, #32]
 1359              	.LVL198:
 1360              	.LBB38:
 1361              	.LBB39:
 1362              		.loc 2 128 0
 1363 00dc 93F82020 		ldrb	r2, [r3, #32]	@ zero_extendqisi2
 1364              	.LVL199:
 1365              	.LBE39:
 1366              	.LBE38:
 893:..\lvgl\lv_objx/lv_label.c ****             p.y -= style->text.line_space;                                                      /*T
 1367              		.loc 1 893 0
 1368 00e0 B6F92610 		ldrsh	r1, [r6, #38]
 1369 00e4 0A44     		add	r2, r2, r1
 1370 00e6 90FBF2F3 		sdiv	r3, r0, r2
 1371 00ea 02FB1303 		mls	r3, r2, r3, r0
 1372 00ee C31A     		subs	r3, r0, r3
 1373 00f0 9BB2     		uxth	r3, r3
 894:..\lvgl\lv_objx/lv_label.c ****             uint32_t letter_id = lv_label_get_letter_on(label, &p);
 1374              		.loc 1 894 0
 1375 00f2 5B1A     		subs	r3, r3, r1
 1376 00f4 ADF81630 		strh	r3, [sp, #22]	@ movhi
 895:..\lvgl\lv_objx/lv_label.c **** 
 1377              		.loc 1 895 0
 1378 00f8 05A9     		add	r1, sp, #20
 1379 00fa 2846     		mov	r0, r5
 1380 00fc FFF7FEFF 		bl	lv_label_get_letter_on
 1381              	.LVL200:
 1382 0100 8046     		mov	r8, r0
 1383              	.LVL201:
 913:..\lvgl\lv_objx/lv_label.c ****             uint32_t byte_id_ori = byte_id;
 1384              		.loc 1 913 0
 1385 0102 244B     		ldr	r3, .L107+4
 1386 0104 1B68     		ldr	r3, [r3]
 1387 0106 0146     		mov	r1, r0
 1388 0108 2068     		ldr	r0, [r4]
 1389              	.LVL202:
 1390 010a 9847     		blx	r3
 1391              	.LVL203:
 1392 010c 0746     		mov	r7, r0
 1393 010e 0690     		str	r0, [sp, #24]
 1394              	.LVL204:
 915:..\lvgl\lv_objx/lv_label.c ****             for(i = 0; i <= LV_LABEL_DOT_NUM; i++)  {
 1395              		.loc 1 915 0
 1396 0110 0026     		movs	r6, #0
ARM GAS  C:\Users\d3bug\AppData\Local\Temp\cct3SNM7.s 			page 48


 1397              	.LVL205:
 916:..\lvgl\lv_objx/lv_label.c ****                 len += lv_txt_encoded_size(&ext->text[byte_id]);
 1398              		.loc 1 916 0
 1399 0112 B246     		mov	r10, r6
 1400 0114 11E0     		b	.L98
 1401              	.LVL206:
 1402              	.L99:
 917:..\lvgl\lv_objx/lv_label.c ****                 lv_txt_encoded_next(ext->text, &byte_id);
 1403              		.loc 1 917 0 discriminator 3
 1404 0116 2068     		ldr	r0, [r4]
 1405 0118 0DF12009 		add	r9, sp, #32
 1406 011c 59F8082D 		ldr	r2, [r9, #-8]!
 1407 0120 1D4B     		ldr	r3, .L107+8
 1408 0122 1B68     		ldr	r3, [r3]
 1409 0124 1044     		add	r0, r0, r2
 1410 0126 9847     		blx	r3
 1411              	.LVL207:
 1412 0128 3044     		add	r0, r0, r6
 1413 012a C6B2     		uxtb	r6, r0
 1414              	.LVL208:
 918:..\lvgl\lv_objx/lv_label.c ****             }
 1415              		.loc 1 918 0 discriminator 3
 1416 012c 1B4B     		ldr	r3, .L107+12
 1417 012e 1B68     		ldr	r3, [r3]
 1418 0130 4946     		mov	r1, r9
 1419 0132 2068     		ldr	r0, [r4]
 1420 0134 9847     		blx	r3
 1421              	.LVL209:
 916:..\lvgl\lv_objx/lv_label.c ****                 len += lv_txt_encoded_size(&ext->text[byte_id]);
 1422              		.loc 1 916 0 discriminator 3
 1423 0136 0AF1010A 		add	r10, r10, #1
 1424              	.LVL210:
 1425              	.L98:
 916:..\lvgl\lv_objx/lv_label.c ****                 len += lv_txt_encoded_size(&ext->text[byte_id]);
 1426              		.loc 1 916 0 is_stmt 0 discriminator 1
 1427 013a BAF1030F 		cmp	r10, #3
 1428 013e EAD9     		bls	.L99
 921:..\lvgl\lv_objx/lv_label.c ****             ext->dot_tmp[len] = '\0';       /*Close with a zero*/
 1429              		.loc 1 921 0 is_stmt 1
 1430 0140 2168     		ldr	r1, [r4]
 1431 0142 3246     		mov	r2, r6
 1432 0144 3944     		add	r1, r1, r7
 1433 0146 601D     		adds	r0, r4, #5
 1434 0148 FFF7FEFF 		bl	memcpy
 1435              	.LVL211:
 922:..\lvgl\lv_objx/lv_label.c **** 
 1436              		.loc 1 922 0
 1437 014c 2644     		add	r6, r6, r4
 1438              	.LVL212:
 1439 014e 0023     		movs	r3, #0
 1440 0150 7371     		strb	r3, [r6, #5]
 1441              	.LVL213:
 924:..\lvgl\lv_objx/lv_label.c ****                 ext->text[byte_id_ori + i] = '.';
 1442              		.loc 1 924 0
 1443 0152 04E0     		b	.L100
 1444              	.LVL214:
 1445              	.L101:
ARM GAS  C:\Users\d3bug\AppData\Local\Temp\cct3SNM7.s 			page 49


 925:..\lvgl\lv_objx/lv_label.c ****             }
 1446              		.loc 1 925 0 discriminator 3
 1447 0154 2168     		ldr	r1, [r4]
 1448 0156 DA19     		adds	r2, r3, r7
 1449 0158 2E20     		movs	r0, #46
 1450 015a 8854     		strb	r0, [r1, r2]
 924:..\lvgl\lv_objx/lv_label.c ****                 ext->text[byte_id_ori + i] = '.';
 1451              		.loc 1 924 0 discriminator 3
 1452 015c 0133     		adds	r3, r3, #1
 1453              	.LVL215:
 1454              	.L100:
 924:..\lvgl\lv_objx/lv_label.c ****                 ext->text[byte_id_ori + i] = '.';
 1455              		.loc 1 924 0 is_stmt 0 discriminator 1
 1456 015e 022B     		cmp	r3, #2
 1457 0160 F8D9     		bls	.L101
 927:..\lvgl\lv_objx/lv_label.c **** 
 1458              		.loc 1 927 0 is_stmt 1
 1459 0162 2368     		ldr	r3, [r4]
 1460              	.LVL216:
 1461 0164 0337     		adds	r7, r7, #3
 1462              	.LVL217:
 1463 0166 0022     		movs	r2, #0
 1464 0168 DA55     		strb	r2, [r3, r7]
 929:..\lvgl\lv_objx/lv_label.c **** #endif
 1465              		.loc 1 929 0
 1466 016a 08F10308 		add	r8, r8, #3
 1467              	.LVL218:
 1468 016e A4F81280 		strh	r8, [r4, #18]	@ movhi
 1469 0172 06E0     		b	.L94
 1470              	.LVL219:
 1471              	.L95:
 1472              	.LBE37:
 935:..\lvgl\lv_objx/lv_label.c ****         lv_obj_set_height(label, size.y);
 1473              		.loc 1 935 0
 1474 0174 012B     		cmp	r3, #1
 1475 0176 04D1     		bne	.L94
 936:..\lvgl\lv_objx/lv_label.c ****     }
 1476              		.loc 1 936 0
 1477 0178 BDF91E10 		ldrsh	r1, [sp, #30]
 1478 017c 2846     		mov	r0, r5
 1479 017e FFF7FEFF 		bl	lv_obj_set_height
 1480              	.LVL220:
 1481              	.L94:
 944:..\lvgl\lv_objx/lv_label.c **** }
 1482              		.loc 1 944 0 discriminator 4
 1483 0182 2846     		mov	r0, r5
 1484 0184 FFF7FEFF 		bl	lv_obj_invalidate
 1485              	.LVL221:
 1486              	.L87:
 945:..\lvgl\lv_objx/lv_label.c **** 
 1487              		.loc 1 945 0
 1488 0188 08B0     		add	sp, sp, #32
 1489              		.cfi_def_cfa_offset 32
 1490              		@ sp needed
 1491 018a BDE8F087 		pop	{r4, r5, r6, r7, r8, r9, r10, pc}
 1492              	.LVL222:
 1493              	.L108:
ARM GAS  C:\Users\d3bug\AppData\Local\Temp\cct3SNM7.s 			page 50


 1494 018e 00BF     		.align	2
 1495              	.L107:
 1496 0190 00000000 		.word	lv_txt_get_encoded_length
 1497 0194 00000000 		.word	lv_txt_encoded_get_byte_id
 1498 0198 00000000 		.word	lv_txt_encoded_size
 1499 019c 00000000 		.word	lv_txt_encoded_next
 1500              		.cfi_endproc
 1501              	.LFE35:
 1502              		.size	lv_label_refr_text, .-lv_label_refr_text
 1503              		.section	.text.lv_label_signal,"ax",%progbits
 1504              		.align	2
 1505              		.thumb
 1506              		.thumb_func
 1507              		.type	lv_label_signal, %function
 1508              	lv_label_signal:
 1509              	.LFB34:
 726:..\lvgl\lv_objx/lv_label.c ****     lv_res_t res;
 1510              		.loc 1 726 0
 1511              		.cfi_startproc
 1512              		@ args = 0, pretend = 0, frame = 0
 1513              		@ frame_needed = 0, uses_anonymous_args = 0
 1514              	.LVL223:
 1515 0000 2DE9F041 		push	{r4, r5, r6, r7, r8, lr}
 1516              		.cfi_def_cfa_offset 24
 1517              		.cfi_offset 4, -24
 1518              		.cfi_offset 5, -20
 1519              		.cfi_offset 6, -16
 1520              		.cfi_offset 7, -12
 1521              		.cfi_offset 8, -8
 1522              		.cfi_offset 14, -4
 1523 0004 0646     		mov	r6, r0
 1524 0006 0D46     		mov	r5, r1
 1525 0008 1746     		mov	r7, r2
 730:..\lvgl\lv_objx/lv_label.c ****     if(res != LV_RES_OK) return res;
 1526              		.loc 1 730 0
 1527 000a 3A4B     		ldr	r3, .L121
 1528 000c 1B68     		ldr	r3, [r3]
 1529 000e 9847     		blx	r3
 1530              	.LVL224:
 1531 0010 0446     		mov	r4, r0
 1532              	.LVL225:
 731:..\lvgl\lv_objx/lv_label.c **** 
 1533              		.loc 1 731 0
 1534 0012 0128     		cmp	r0, #1
 1535 0014 6AD1     		bne	.L110
 733:..\lvgl\lv_objx/lv_label.c ****     if(sign ==  LV_SIGNAL_CLEANUP) {
 1536              		.loc 1 733 0
 1537 0016 3046     		mov	r0, r6
 1538              	.LVL226:
 1539 0018 FFF7FEFF 		bl	lv_obj_get_ext_attr
 1540              	.LVL227:
 1541 001c 8046     		mov	r8, r0
 1542              	.LVL228:
 734:..\lvgl\lv_objx/lv_label.c ****         if(ext->static_txt == 0) {
 1543              		.loc 1 734 0
 1544 001e 55B9     		cbnz	r5, .L111
 735:..\lvgl\lv_objx/lv_label.c ****             lv_mem_free(ext->text);
ARM GAS  C:\Users\d3bug\AppData\Local\Temp\cct3SNM7.s 			page 51


 1545              		.loc 1 735 0
 1546 0020 837E     		ldrb	r3, [r0, #26]	@ zero_extendqisi2
 1547 0022 13F0010F 		tst	r3, #1
 1548 0026 61D1     		bne	.L110
 736:..\lvgl\lv_objx/lv_label.c ****             ext->text = NULL;
 1549              		.loc 1 736 0
 1550 0028 0068     		ldr	r0, [r0]
 1551              	.LVL229:
 1552 002a FFF7FEFF 		bl	lv_mem_free
 1553              	.LVL230:
 737:..\lvgl\lv_objx/lv_label.c ****         }
 1554              		.loc 1 737 0
 1555 002e 0023     		movs	r3, #0
 1556 0030 C8F80030 		str	r3, [r8]
 1557 0034 5AE0     		b	.L110
 1558              	.LVL231:
 1559              	.L111:
 739:..\lvgl\lv_objx/lv_label.c ****         /*Revert dots for proper refresh*/
 1560              		.loc 1 739 0
 1561 0036 032D     		cmp	r5, #3
 1562 0038 06D1     		bne	.L112
 741:..\lvgl\lv_objx/lv_label.c **** 
 1563              		.loc 1 741 0
 1564 003a 3046     		mov	r0, r6
 1565              	.LVL232:
 1566 003c FFF7FEFF 		bl	lv_label_revert_dots
 1567              	.LVL233:
 743:..\lvgl\lv_objx/lv_label.c ****     } else if(sign == LV_SIGNAL_CORD_CHG) {
 1568              		.loc 1 743 0
 1569 0040 3046     		mov	r0, r6
 1570 0042 FFF7FEFF 		bl	lv_label_refr_text
 1571              	.LVL234:
 1572 0046 51E0     		b	.L110
 1573              	.LVL235:
 1574              	.L112:
 744:..\lvgl\lv_objx/lv_label.c ****         if(lv_area_get_width(&label->coords) != lv_area_get_width(param) ||
 1575              		.loc 1 744 0
 1576 0048 022D     		cmp	r5, #2
 1577 004a 26D1     		bne	.L113
 1578              	.LVL236:
 1579              	.LBB40:
 1580              	.LBB41:
 1581              		.file 3 "..\\lvgl\\lv_objx\\../lv_core/../lv_misc/lv_area.h"
   1:..\lvgl\lv_objx\../lv_core/../lv_misc/lv_area.h **** /**
   2:..\lvgl\lv_objx\../lv_core/../lv_misc/lv_area.h ****  * @file lv_area.h
   3:..\lvgl\lv_objx\../lv_core/../lv_misc/lv_area.h ****  *
   4:..\lvgl\lv_objx\../lv_core/../lv_misc/lv_area.h ****  */
   5:..\lvgl\lv_objx\../lv_core/../lv_misc/lv_area.h **** 
   6:..\lvgl\lv_objx\../lv_core/../lv_misc/lv_area.h **** #ifndef LV_AREA_H
   7:..\lvgl\lv_objx\../lv_core/../lv_misc/lv_area.h **** #define LV_AREA_H
   8:..\lvgl\lv_objx\../lv_core/../lv_misc/lv_area.h **** 
   9:..\lvgl\lv_objx\../lv_core/../lv_misc/lv_area.h **** #ifdef __cplusplus
  10:..\lvgl\lv_objx\../lv_core/../lv_misc/lv_area.h **** extern "C" {
  11:..\lvgl\lv_objx\../lv_core/../lv_misc/lv_area.h **** #endif
  12:..\lvgl\lv_objx\../lv_core/../lv_misc/lv_area.h **** 
  13:..\lvgl\lv_objx\../lv_core/../lv_misc/lv_area.h **** 
  14:..\lvgl\lv_objx\../lv_core/../lv_misc/lv_area.h **** /*********************
ARM GAS  C:\Users\d3bug\AppData\Local\Temp\cct3SNM7.s 			page 52


  15:..\lvgl\lv_objx\../lv_core/../lv_misc/lv_area.h ****  *      INCLUDES
  16:..\lvgl\lv_objx\../lv_core/../lv_misc/lv_area.h ****  *********************/
  17:..\lvgl\lv_objx\../lv_core/../lv_misc/lv_area.h **** #include <string.h>
  18:..\lvgl\lv_objx\../lv_core/../lv_misc/lv_area.h **** #include <stdbool.h>
  19:..\lvgl\lv_objx\../lv_core/../lv_misc/lv_area.h **** #include <stdint.h>
  20:..\lvgl\lv_objx\../lv_core/../lv_misc/lv_area.h **** 
  21:..\lvgl\lv_objx\../lv_core/../lv_misc/lv_area.h **** /*********************
  22:..\lvgl\lv_objx\../lv_core/../lv_misc/lv_area.h ****  *      DEFINES
  23:..\lvgl\lv_objx\../lv_core/../lv_misc/lv_area.h ****  *********************/
  24:..\lvgl\lv_objx\../lv_core/../lv_misc/lv_area.h **** #define LV_COORD_MAX     (16383)    /*To avoid overflow don't let the max [-32,32k] range */
  25:..\lvgl\lv_objx\../lv_core/../lv_misc/lv_area.h **** #define LV_COORD_MIN     (-16384)
  26:..\lvgl\lv_objx\../lv_core/../lv_misc/lv_area.h **** 
  27:..\lvgl\lv_objx\../lv_core/../lv_misc/lv_area.h **** /**********************
  28:..\lvgl\lv_objx\../lv_core/../lv_misc/lv_area.h ****  *      TYPEDEFS
  29:..\lvgl\lv_objx\../lv_core/../lv_misc/lv_area.h ****  **********************/
  30:..\lvgl\lv_objx\../lv_core/../lv_misc/lv_area.h **** typedef int16_t lv_coord_t;
  31:..\lvgl\lv_objx\../lv_core/../lv_misc/lv_area.h **** 
  32:..\lvgl\lv_objx\../lv_core/../lv_misc/lv_area.h **** typedef struct
  33:..\lvgl\lv_objx\../lv_core/../lv_misc/lv_area.h **** {
  34:..\lvgl\lv_objx\../lv_core/../lv_misc/lv_area.h ****     lv_coord_t x;
  35:..\lvgl\lv_objx\../lv_core/../lv_misc/lv_area.h ****     lv_coord_t y;
  36:..\lvgl\lv_objx\../lv_core/../lv_misc/lv_area.h **** } lv_point_t;
  37:..\lvgl\lv_objx\../lv_core/../lv_misc/lv_area.h **** 
  38:..\lvgl\lv_objx\../lv_core/../lv_misc/lv_area.h **** typedef struct
  39:..\lvgl\lv_objx\../lv_core/../lv_misc/lv_area.h **** {
  40:..\lvgl\lv_objx\../lv_core/../lv_misc/lv_area.h ****     lv_coord_t x1;
  41:..\lvgl\lv_objx\../lv_core/../lv_misc/lv_area.h ****     lv_coord_t y1;
  42:..\lvgl\lv_objx\../lv_core/../lv_misc/lv_area.h ****     lv_coord_t x2;
  43:..\lvgl\lv_objx\../lv_core/../lv_misc/lv_area.h ****     lv_coord_t y2;
  44:..\lvgl\lv_objx\../lv_core/../lv_misc/lv_area.h **** } lv_area_t;
  45:..\lvgl\lv_objx\../lv_core/../lv_misc/lv_area.h **** 
  46:..\lvgl\lv_objx\../lv_core/../lv_misc/lv_area.h **** /**********************
  47:..\lvgl\lv_objx\../lv_core/../lv_misc/lv_area.h ****  * GLOBAL PROTOTYPES
  48:..\lvgl\lv_objx\../lv_core/../lv_misc/lv_area.h ****  **********************/
  49:..\lvgl\lv_objx\../lv_core/../lv_misc/lv_area.h **** 
  50:..\lvgl\lv_objx\../lv_core/../lv_misc/lv_area.h **** /**
  51:..\lvgl\lv_objx\../lv_core/../lv_misc/lv_area.h ****  * Initialize an area
  52:..\lvgl\lv_objx\../lv_core/../lv_misc/lv_area.h ****  * @param area_p pointer to an area
  53:..\lvgl\lv_objx\../lv_core/../lv_misc/lv_area.h ****  * @param x1 left coordinate of the area
  54:..\lvgl\lv_objx\../lv_core/../lv_misc/lv_area.h ****  * @param y1 top coordinate of the area
  55:..\lvgl\lv_objx\../lv_core/../lv_misc/lv_area.h ****  * @param x2 right coordinate of the area
  56:..\lvgl\lv_objx\../lv_core/../lv_misc/lv_area.h ****  * @param y2 bottom coordinate of the area
  57:..\lvgl\lv_objx\../lv_core/../lv_misc/lv_area.h ****  */
  58:..\lvgl\lv_objx\../lv_core/../lv_misc/lv_area.h **** void lv_area_set(lv_area_t * area_p, lv_coord_t x1, lv_coord_t y1, lv_coord_t x2, lv_coord_t y2);
  59:..\lvgl\lv_objx\../lv_core/../lv_misc/lv_area.h **** 
  60:..\lvgl\lv_objx\../lv_core/../lv_misc/lv_area.h **** /**
  61:..\lvgl\lv_objx\../lv_core/../lv_misc/lv_area.h ****  * Copy an area
  62:..\lvgl\lv_objx\../lv_core/../lv_misc/lv_area.h ****  * @param dest pointer to the destination area
  63:..\lvgl\lv_objx\../lv_core/../lv_misc/lv_area.h ****  * @param src pointer to the source area
  64:..\lvgl\lv_objx\../lv_core/../lv_misc/lv_area.h ****  */
  65:..\lvgl\lv_objx\../lv_core/../lv_misc/lv_area.h **** inline static void lv_area_copy(lv_area_t * dest, const lv_area_t * src)
  66:..\lvgl\lv_objx\../lv_core/../lv_misc/lv_area.h **** {
  67:..\lvgl\lv_objx\../lv_core/../lv_misc/lv_area.h ****     memcpy(dest, src, sizeof(lv_area_t));
  68:..\lvgl\lv_objx\../lv_core/../lv_misc/lv_area.h **** }
  69:..\lvgl\lv_objx\../lv_core/../lv_misc/lv_area.h **** 
  70:..\lvgl\lv_objx\../lv_core/../lv_misc/lv_area.h **** /**
  71:..\lvgl\lv_objx\../lv_core/../lv_misc/lv_area.h ****  * Get the width of an area
ARM GAS  C:\Users\d3bug\AppData\Local\Temp\cct3SNM7.s 			page 53


  72:..\lvgl\lv_objx\../lv_core/../lv_misc/lv_area.h ****  * @param area_p pointer to an area
  73:..\lvgl\lv_objx\../lv_core/../lv_misc/lv_area.h ****  * @return the width of the area (if x1 == x2 -> width = 1)
  74:..\lvgl\lv_objx\../lv_core/../lv_misc/lv_area.h ****  */
  75:..\lvgl\lv_objx\../lv_core/../lv_misc/lv_area.h **** static inline lv_coord_t lv_area_get_width(const lv_area_t * area_p)
  76:..\lvgl\lv_objx\../lv_core/../lv_misc/lv_area.h **** {
  77:..\lvgl\lv_objx\../lv_core/../lv_misc/lv_area.h ****     return area_p->x2 - area_p->x1 + 1;
 1582              		.loc 3 77 0
 1583 004c B6F91430 		ldrsh	r3, [r6, #20]
 1584 0050 B6F91020 		ldrsh	r2, [r6, #16]
 1585 0054 9B1A     		subs	r3, r3, r2
 1586 0056 0133     		adds	r3, r3, #1
 1587 0058 1BB2     		sxth	r3, r3
 1588              	.LVL237:
 1589              	.LBE41:
 1590              	.LBE40:
 1591              	.LBB42:
 1592              	.LBB43:
 1593 005a B7F90420 		ldrsh	r2, [r7, #4]
 1594 005e B7F90010 		ldrsh	r1, [r7]
 1595 0062 521A     		subs	r2, r2, r1
 1596 0064 0132     		adds	r2, r2, #1
 1597 0066 12B2     		sxth	r2, r2
 1598              	.LVL238:
 1599              	.LBE43:
 1600              	.LBE42:
 745:..\lvgl\lv_objx/lv_label.c ****                 lv_area_get_height(&label->coords) != lv_area_get_height(param)) {
 1601              		.loc 1 745 0
 1602 0068 9A42     		cmp	r2, r3
 1603 006a 0FD1     		bne	.L114
 1604              	.LVL239:
 1605              	.LBB44:
 1606              	.LBB45:
  78:..\lvgl\lv_objx\../lv_core/../lv_misc/lv_area.h **** }
  79:..\lvgl\lv_objx\../lv_core/../lv_misc/lv_area.h **** 
  80:..\lvgl\lv_objx\../lv_core/../lv_misc/lv_area.h **** /**
  81:..\lvgl\lv_objx\../lv_core/../lv_misc/lv_area.h ****  * Get the height of an area
  82:..\lvgl\lv_objx\../lv_core/../lv_misc/lv_area.h ****  * @param area_p pointer to an area
  83:..\lvgl\lv_objx\../lv_core/../lv_misc/lv_area.h ****  * @return the height of the area (if y1 == y2 -> height = 1)
  84:..\lvgl\lv_objx\../lv_core/../lv_misc/lv_area.h ****  */
  85:..\lvgl\lv_objx\../lv_core/../lv_misc/lv_area.h **** static inline lv_coord_t lv_area_get_height(const lv_area_t * area_p)
  86:..\lvgl\lv_objx\../lv_core/../lv_misc/lv_area.h **** {
  87:..\lvgl\lv_objx\../lv_core/../lv_misc/lv_area.h ****     return area_p->y2 - area_p->y1 + 1;
 1607              		.loc 3 87 0 discriminator 1
 1608 006c B6F91630 		ldrsh	r3, [r6, #22]
 1609 0070 B6F91220 		ldrsh	r2, [r6, #18]
 1610 0074 9B1A     		subs	r3, r3, r2
 1611 0076 0133     		adds	r3, r3, #1
 1612 0078 1BB2     		sxth	r3, r3
 1613              	.LVL240:
 1614              	.LBE45:
 1615              	.LBE44:
 1616              	.LBB46:
 1617              	.LBB47:
 1618 007a B7F90620 		ldrsh	r2, [r7, #6]
 1619 007e B7F90210 		ldrsh	r1, [r7, #2]
 1620 0082 521A     		subs	r2, r2, r1
 1621 0084 0132     		adds	r2, r2, #1
ARM GAS  C:\Users\d3bug\AppData\Local\Temp\cct3SNM7.s 			page 54


 1622 0086 12B2     		sxth	r2, r2
 1623              	.LVL241:
 1624              	.LBE47:
 1625              	.LBE46:
 745:..\lvgl\lv_objx/lv_label.c ****                 lv_area_get_height(&label->coords) != lv_area_get_height(param)) {
 1626              		.loc 1 745 0 discriminator 1
 1627 0088 9A42     		cmp	r2, r3
 1628 008a 2FD0     		beq	.L110
 1629              	.L114:
 747:..\lvgl\lv_objx/lv_label.c ****             lv_label_refr_text(label);
 1630              		.loc 1 747 0
 1631 008c 3046     		mov	r0, r6
 1632              	.LVL242:
 1633 008e FFF7FEFF 		bl	lv_label_revert_dots
 1634              	.LVL243:
 748:..\lvgl\lv_objx/lv_label.c ****         }
 1635              		.loc 1 748 0
 1636 0092 3046     		mov	r0, r6
 1637 0094 FFF7FEFF 		bl	lv_label_refr_text
 1638              	.LVL244:
 1639 0098 28E0     		b	.L110
 1640              	.LVL245:
 1641              	.L113:
 750:..\lvgl\lv_objx/lv_label.c ****         if(ext->body_draw) {
 1642              		.loc 1 750 0
 1643 009a 042D     		cmp	r5, #4
 1644 009c 15D1     		bne	.L115
 751:..\lvgl\lv_objx/lv_label.c ****             lv_style_t * style = lv_label_get_style(label);
 1645              		.loc 1 751 0
 1646 009e 837E     		ldrb	r3, [r0, #26]	@ zero_extendqisi2
 1647 00a0 13F0200F 		tst	r3, #32
 1648 00a4 22D0     		beq	.L110
 1649              	.LVL246:
 1650              	.LBB48:
 1651              	.LBB49:
 1652              	.LBB50:
 1653              		.file 4 "..\\lvgl\\lv_objx\\lv_label.h"
   1:..\lvgl\lv_objx/lv_label.h **** /**
   2:..\lvgl\lv_objx/lv_label.h ****  * @file lv_rect.h
   3:..\lvgl\lv_objx/lv_label.h ****  *
   4:..\lvgl\lv_objx/lv_label.h ****  */
   5:..\lvgl\lv_objx/lv_label.h **** 
   6:..\lvgl\lv_objx/lv_label.h **** #ifndef LV_LABEL_H
   7:..\lvgl\lv_objx/lv_label.h **** #define LV_LABEL_H
   8:..\lvgl\lv_objx/lv_label.h **** 
   9:..\lvgl\lv_objx/lv_label.h **** #ifdef __cplusplus
  10:..\lvgl\lv_objx/lv_label.h **** extern "C" {
  11:..\lvgl\lv_objx/lv_label.h **** #endif
  12:..\lvgl\lv_objx/lv_label.h **** 
  13:..\lvgl\lv_objx/lv_label.h **** /*********************
  14:..\lvgl\lv_objx/lv_label.h ****  *      INCLUDES
  15:..\lvgl\lv_objx/lv_label.h ****  *********************/
  16:..\lvgl\lv_objx/lv_label.h **** #ifdef LV_CONF_INCLUDE_SIMPLE
  17:..\lvgl\lv_objx/lv_label.h **** #include "lv_conf.h"
  18:..\lvgl\lv_objx/lv_label.h **** #else
  19:..\lvgl\lv_objx/lv_label.h **** #include "../../lv_conf.h"
  20:..\lvgl\lv_objx/lv_label.h **** #endif
ARM GAS  C:\Users\d3bug\AppData\Local\Temp\cct3SNM7.s 			page 55


  21:..\lvgl\lv_objx/lv_label.h **** 
  22:..\lvgl\lv_objx/lv_label.h **** #if USE_LV_LABEL != 0
  23:..\lvgl\lv_objx/lv_label.h **** 
  24:..\lvgl\lv_objx/lv_label.h **** #include "../lv_core/lv_obj.h"
  25:..\lvgl\lv_objx/lv_label.h **** #include "../lv_misc/lv_font.h"
  26:..\lvgl\lv_objx/lv_label.h **** #include "../lv_misc/lv_txt.h"
  27:..\lvgl\lv_objx/lv_label.h **** #include "../lv_misc/lv_symbol_def.h"
  28:..\lvgl\lv_objx/lv_label.h **** 
  29:..\lvgl\lv_objx/lv_label.h **** /*********************
  30:..\lvgl\lv_objx/lv_label.h ****  *      DEFINES
  31:..\lvgl\lv_objx/lv_label.h ****  *********************/
  32:..\lvgl\lv_objx/lv_label.h **** #define LV_LABEL_DOT_NUM    3
  33:..\lvgl\lv_objx/lv_label.h **** #define LV_LABEL_POS_LAST   0xFFFF
  34:..\lvgl\lv_objx/lv_label.h **** 
  35:..\lvgl\lv_objx/lv_label.h **** /**********************
  36:..\lvgl\lv_objx/lv_label.h ****  *      TYPEDEFS
  37:..\lvgl\lv_objx/lv_label.h ****  **********************/
  38:..\lvgl\lv_objx/lv_label.h **** 
  39:..\lvgl\lv_objx/lv_label.h **** /*Long mode behaviors. Used in 'lv_label_ext_t' */
  40:..\lvgl\lv_objx/lv_label.h **** enum
  41:..\lvgl\lv_objx/lv_label.h **** {
  42:..\lvgl\lv_objx/lv_label.h ****     LV_LABEL_LONG_EXPAND,   /*Expand the object size to the text size*/
  43:..\lvgl\lv_objx/lv_label.h ****     LV_LABEL_LONG_BREAK,    /*Keep the object width, break the too long lines and expand the object
  44:..\lvgl\lv_objx/lv_label.h ****     LV_LABEL_LONG_SCROLL,   /*Expand the object size and scroll the text on the parent (move the la
  45:..\lvgl\lv_objx/lv_label.h ****     LV_LABEL_LONG_DOT,      /*Keep the size and write dots at the end if the text is too long*/
  46:..\lvgl\lv_objx/lv_label.h ****     LV_LABEL_LONG_ROLL,     /*Keep the size and roll the text infinitely*/
  47:..\lvgl\lv_objx/lv_label.h ****     LV_LABEL_LONG_CROP,     /*Keep the size and crop the text out of it*/
  48:..\lvgl\lv_objx/lv_label.h **** };
  49:..\lvgl\lv_objx/lv_label.h **** typedef uint8_t lv_label_long_mode_t;
  50:..\lvgl\lv_objx/lv_label.h **** 
  51:..\lvgl\lv_objx/lv_label.h **** /*Label align policy*/
  52:..\lvgl\lv_objx/lv_label.h **** enum {
  53:..\lvgl\lv_objx/lv_label.h ****     LV_LABEL_ALIGN_LEFT,
  54:..\lvgl\lv_objx/lv_label.h ****     LV_LABEL_ALIGN_CENTER,
  55:..\lvgl\lv_objx/lv_label.h ****     LV_LABEL_ALIGN_RIGHT,
  56:..\lvgl\lv_objx/lv_label.h **** };
  57:..\lvgl\lv_objx/lv_label.h **** typedef uint8_t lv_label_align_t;
  58:..\lvgl\lv_objx/lv_label.h **** 
  59:..\lvgl\lv_objx/lv_label.h **** /*Data of label*/
  60:..\lvgl\lv_objx/lv_label.h **** typedef struct
  61:..\lvgl\lv_objx/lv_label.h **** {
  62:..\lvgl\lv_objx/lv_label.h ****     /*Inherited from 'base_obj' so no inherited ext.*/  /*Ext. of ancestor*/
  63:..\lvgl\lv_objx/lv_label.h ****     /*New data for this type */
  64:..\lvgl\lv_objx/lv_label.h ****     char * text;                            /*Text of the label*/
  65:..\lvgl\lv_objx/lv_label.h ****     lv_label_long_mode_t long_mode;         /*Determinate what to do with the long texts*/
  66:..\lvgl\lv_objx/lv_label.h **** #if LV_TXT_UTF8 == 0
  67:..\lvgl\lv_objx/lv_label.h ****     char dot_tmp[LV_LABEL_DOT_NUM + 1];     /*Store the character which are replaced by dots (Handl
  68:..\lvgl\lv_objx/lv_label.h **** #else
  69:..\lvgl\lv_objx/lv_label.h ****     char dot_tmp[LV_LABEL_DOT_NUM * 4 + 1]; /*Store the character which are replaced by dots (Handl
  70:..\lvgl\lv_objx/lv_label.h **** #endif
  71:..\lvgl\lv_objx/lv_label.h **** 
  72:..\lvgl\lv_objx/lv_label.h **** #if USE_LV_MULTI_LANG
  73:..\lvgl\lv_objx/lv_label.h ****     uint16_t lang_txt_id;            /*The ID of the text to display*/
  74:..\lvgl\lv_objx/lv_label.h **** #endif
  75:..\lvgl\lv_objx/lv_label.h ****     uint16_t dot_end;               /*The text end position in dot mode (Handled by the library)*/
  76:..\lvgl\lv_objx/lv_label.h ****     uint16_t anim_speed;            /*Speed of scroll and roll animation in px/sec unit*/
  77:..\lvgl\lv_objx/lv_label.h ****     lv_point_t offset;              /*Text draw position offset*/
ARM GAS  C:\Users\d3bug\AppData\Local\Temp\cct3SNM7.s 			page 56


  78:..\lvgl\lv_objx/lv_label.h ****     uint8_t static_txt  :1;         /*Flag to indicate the text is static*/
  79:..\lvgl\lv_objx/lv_label.h ****     uint8_t align       :2;         /*Align type from 'lv_label_align_t'*/
  80:..\lvgl\lv_objx/lv_label.h ****     uint8_t recolor     :1;         /*Enable in-line letter re-coloring*/
  81:..\lvgl\lv_objx/lv_label.h ****     uint8_t expand      :1;         /*Ignore real width (used by the library with LV_LABEL_LONG_ROL
  82:..\lvgl\lv_objx/lv_label.h ****     uint8_t body_draw   :1;         /*Draw background body*/
  83:..\lvgl\lv_objx/lv_label.h **** } lv_label_ext_t;
  84:..\lvgl\lv_objx/lv_label.h **** 
  85:..\lvgl\lv_objx/lv_label.h **** /**********************
  86:..\lvgl\lv_objx/lv_label.h ****  * GLOBAL PROTOTYPES
  87:..\lvgl\lv_objx/lv_label.h ****  **********************/
  88:..\lvgl\lv_objx/lv_label.h **** 
  89:..\lvgl\lv_objx/lv_label.h **** 
  90:..\lvgl\lv_objx/lv_label.h **** /**
  91:..\lvgl\lv_objx/lv_label.h ****  * Create a label objects
  92:..\lvgl\lv_objx/lv_label.h ****  * @param par pointer to an object, it will be the parent of the new label
  93:..\lvgl\lv_objx/lv_label.h ****  * @param copy pointer to a button object, if not NULL then the new object will be copied from it
  94:..\lvgl\lv_objx/lv_label.h ****  * @return pointer to the created button
  95:..\lvgl\lv_objx/lv_label.h ****  */
  96:..\lvgl\lv_objx/lv_label.h **** lv_obj_t * lv_label_create(lv_obj_t * par, const lv_obj_t * copy);
  97:..\lvgl\lv_objx/lv_label.h **** 
  98:..\lvgl\lv_objx/lv_label.h **** /*=====================
  99:..\lvgl\lv_objx/lv_label.h ****  * Setter functions
 100:..\lvgl\lv_objx/lv_label.h ****  *====================*/
 101:..\lvgl\lv_objx/lv_label.h **** 
 102:..\lvgl\lv_objx/lv_label.h **** /**
 103:..\lvgl\lv_objx/lv_label.h ****  * Set a new text for a label. Memory will be allocated to store the text by the label.
 104:..\lvgl\lv_objx/lv_label.h ****  * @param label pointer to a label object
 105:..\lvgl\lv_objx/lv_label.h ****  * @param text '\0' terminated character string. NULL to refresh with the current text.
 106:..\lvgl\lv_objx/lv_label.h ****  */
 107:..\lvgl\lv_objx/lv_label.h **** void lv_label_set_text(lv_obj_t * label, const char * text);
 108:..\lvgl\lv_objx/lv_label.h **** 
 109:..\lvgl\lv_objx/lv_label.h **** /**
 110:..\lvgl\lv_objx/lv_label.h ****  * Set a new text for a label from a character array. The array don't has to be '\0' terminated.
 111:..\lvgl\lv_objx/lv_label.h ****  * Memory will be allocated to store the array by the label.
 112:..\lvgl\lv_objx/lv_label.h ****  * @param label pointer to a label object
 113:..\lvgl\lv_objx/lv_label.h ****  * @param array array of characters or NULL to refresh the label
 114:..\lvgl\lv_objx/lv_label.h ****  * @param size the size of 'array' in bytes
 115:..\lvgl\lv_objx/lv_label.h ****  */
 116:..\lvgl\lv_objx/lv_label.h **** void lv_label_set_array_text(lv_obj_t * label, const char * array, uint16_t size);
 117:..\lvgl\lv_objx/lv_label.h **** 
 118:..\lvgl\lv_objx/lv_label.h **** /**
 119:..\lvgl\lv_objx/lv_label.h ****  * Set a static text. It will not be saved by the label so the 'text' variable
 120:..\lvgl\lv_objx/lv_label.h ****  * has to be 'alive' while the label exist.
 121:..\lvgl\lv_objx/lv_label.h ****  * @param label pointer to a label object
 122:..\lvgl\lv_objx/lv_label.h ****  * @param text pointer to a text. NULL to refresh with the current text.
 123:..\lvgl\lv_objx/lv_label.h ****  */
 124:..\lvgl\lv_objx/lv_label.h **** void lv_label_set_static_text(lv_obj_t * label, const char * text);
 125:..\lvgl\lv_objx/lv_label.h **** 
 126:..\lvgl\lv_objx/lv_label.h **** /**
 127:..\lvgl\lv_objx/lv_label.h ****  *Set a text ID which means a the same text but on different languages
 128:..\lvgl\lv_objx/lv_label.h ****  * @param label pointer to a label object
 129:..\lvgl\lv_objx/lv_label.h ****  * @param txt_id ID of the text
 130:..\lvgl\lv_objx/lv_label.h ****  */
 131:..\lvgl\lv_objx/lv_label.h **** #if USE_LV_MULTI_LANG
 132:..\lvgl\lv_objx/lv_label.h **** void lv_label_set_text_id(lv_obj_t * label, uint32_t txt_id);
 133:..\lvgl\lv_objx/lv_label.h **** #endif
 134:..\lvgl\lv_objx/lv_label.h **** 
ARM GAS  C:\Users\d3bug\AppData\Local\Temp\cct3SNM7.s 			page 57


 135:..\lvgl\lv_objx/lv_label.h **** /**
 136:..\lvgl\lv_objx/lv_label.h ****  * Set the behavior of the label with longer text then the object size
 137:..\lvgl\lv_objx/lv_label.h ****  * @param label pointer to a label object
 138:..\lvgl\lv_objx/lv_label.h ****  * @param long_mode the new mode from 'lv_label_long_mode' enum.
 139:..\lvgl\lv_objx/lv_label.h ****  *                  In LV_LONG_BREAK/LONG/ROLL the size of the label should be set AFTER this funct
 140:..\lvgl\lv_objx/lv_label.h ****  */
 141:..\lvgl\lv_objx/lv_label.h **** void lv_label_set_long_mode(lv_obj_t * label, lv_label_long_mode_t long_mode);
 142:..\lvgl\lv_objx/lv_label.h **** 
 143:..\lvgl\lv_objx/lv_label.h **** /**
 144:..\lvgl\lv_objx/lv_label.h ****  * Set the align of the label (left or center)
 145:..\lvgl\lv_objx/lv_label.h ****  * @param label pointer to a label object
 146:..\lvgl\lv_objx/lv_label.h ****  * @param align 'LV_LABEL_ALIGN_LEFT' or 'LV_LABEL_ALIGN_LEFT'
 147:..\lvgl\lv_objx/lv_label.h ****  */
 148:..\lvgl\lv_objx/lv_label.h **** void lv_label_set_align(lv_obj_t *label, lv_label_align_t align);
 149:..\lvgl\lv_objx/lv_label.h **** 
 150:..\lvgl\lv_objx/lv_label.h **** /**
 151:..\lvgl\lv_objx/lv_label.h ****  * Enable the recoloring by in-line commands
 152:..\lvgl\lv_objx/lv_label.h ****  * @param label pointer to a label object
 153:..\lvgl\lv_objx/lv_label.h ****  * @param en true: enable recoloring, false: disable
 154:..\lvgl\lv_objx/lv_label.h ****  */
 155:..\lvgl\lv_objx/lv_label.h **** void lv_label_set_recolor(lv_obj_t * label, bool en);
 156:..\lvgl\lv_objx/lv_label.h **** 
 157:..\lvgl\lv_objx/lv_label.h **** /**
 158:..\lvgl\lv_objx/lv_label.h ****  * Set the label to draw (or not draw) background specified in its style's body
 159:..\lvgl\lv_objx/lv_label.h ****  * @param label pointer to a label object
 160:..\lvgl\lv_objx/lv_label.h ****  * @param en true: draw body; false: don't draw body
 161:..\lvgl\lv_objx/lv_label.h ****  */
 162:..\lvgl\lv_objx/lv_label.h **** void lv_label_set_body_draw(lv_obj_t *label, bool en);
 163:..\lvgl\lv_objx/lv_label.h **** 
 164:..\lvgl\lv_objx/lv_label.h **** /**
 165:..\lvgl\lv_objx/lv_label.h ****  * Set the label's animation speed in LV_LABEL_LONG_ROLL and SCROLL modes
 166:..\lvgl\lv_objx/lv_label.h ****  * @param label pointer to a label object
 167:..\lvgl\lv_objx/lv_label.h ****  * @param anim_speed speed of animation in px/sec unit
 168:..\lvgl\lv_objx/lv_label.h ****  */
 169:..\lvgl\lv_objx/lv_label.h **** void lv_label_set_anim_speed(lv_obj_t *label, uint16_t anim_speed);
 170:..\lvgl\lv_objx/lv_label.h **** 
 171:..\lvgl\lv_objx/lv_label.h **** /**
 172:..\lvgl\lv_objx/lv_label.h ****  * Set the style of an label
 173:..\lvgl\lv_objx/lv_label.h ****  * @param label pointer to an label object
 174:..\lvgl\lv_objx/lv_label.h ****  * @param style pointer to a style
 175:..\lvgl\lv_objx/lv_label.h ****  */
 176:..\lvgl\lv_objx/lv_label.h **** static inline void lv_label_set_style(lv_obj_t *label, lv_style_t *style)
 177:..\lvgl\lv_objx/lv_label.h **** {
 178:..\lvgl\lv_objx/lv_label.h ****     lv_obj_set_style(label, style);
 179:..\lvgl\lv_objx/lv_label.h **** }
 180:..\lvgl\lv_objx/lv_label.h **** /*=====================
 181:..\lvgl\lv_objx/lv_label.h ****  * Getter functions
 182:..\lvgl\lv_objx/lv_label.h ****  *====================*/
 183:..\lvgl\lv_objx/lv_label.h **** 
 184:..\lvgl\lv_objx/lv_label.h **** /**
 185:..\lvgl\lv_objx/lv_label.h ****  * Get the text of a label
 186:..\lvgl\lv_objx/lv_label.h ****  * @param label pointer to a label object
 187:..\lvgl\lv_objx/lv_label.h ****  * @return the text of the label
 188:..\lvgl\lv_objx/lv_label.h ****  */
 189:..\lvgl\lv_objx/lv_label.h **** char * lv_label_get_text(const lv_obj_t * label);
 190:..\lvgl\lv_objx/lv_label.h **** 
 191:..\lvgl\lv_objx/lv_label.h **** #if USE_LV_MULTI_LANG
ARM GAS  C:\Users\d3bug\AppData\Local\Temp\cct3SNM7.s 			page 58


 192:..\lvgl\lv_objx/lv_label.h **** /**
 193:..\lvgl\lv_objx/lv_label.h ****  * Get the text ID of the label. (Used by the multi-language feature)
 194:..\lvgl\lv_objx/lv_label.h ****  * @param label pointer to a label object
 195:..\lvgl\lv_objx/lv_label.h ****  * @return ID of the text
 196:..\lvgl\lv_objx/lv_label.h ****  */
 197:..\lvgl\lv_objx/lv_label.h **** uint16_t lv_label_get_text_id(lv_obj_t * label);
 198:..\lvgl\lv_objx/lv_label.h **** #endif
 199:..\lvgl\lv_objx/lv_label.h **** 
 200:..\lvgl\lv_objx/lv_label.h **** /**
 201:..\lvgl\lv_objx/lv_label.h ****  * Get the long mode of a label
 202:..\lvgl\lv_objx/lv_label.h ****  * @param label pointer to a label object
 203:..\lvgl\lv_objx/lv_label.h ****  * @return the long mode
 204:..\lvgl\lv_objx/lv_label.h ****  */
 205:..\lvgl\lv_objx/lv_label.h **** lv_label_long_mode_t lv_label_get_long_mode(const lv_obj_t * label);
 206:..\lvgl\lv_objx/lv_label.h **** 
 207:..\lvgl\lv_objx/lv_label.h **** /**
 208:..\lvgl\lv_objx/lv_label.h ****  * Get the align attribute
 209:..\lvgl\lv_objx/lv_label.h ****  * @param label pointer to a label object
 210:..\lvgl\lv_objx/lv_label.h ****  * @return LV_LABEL_ALIGN_LEFT or LV_LABEL_ALIGN_CENTER
 211:..\lvgl\lv_objx/lv_label.h ****  */
 212:..\lvgl\lv_objx/lv_label.h **** lv_label_align_t lv_label_get_align(const lv_obj_t * label);
 213:..\lvgl\lv_objx/lv_label.h **** 
 214:..\lvgl\lv_objx/lv_label.h **** /**
 215:..\lvgl\lv_objx/lv_label.h ****  * Get the recoloring attribute
 216:..\lvgl\lv_objx/lv_label.h ****  * @param label pointer to a label object
 217:..\lvgl\lv_objx/lv_label.h ****  * @return true: recoloring is enabled, false: disable
 218:..\lvgl\lv_objx/lv_label.h ****  */
 219:..\lvgl\lv_objx/lv_label.h **** bool lv_label_get_recolor(const lv_obj_t * label);
 220:..\lvgl\lv_objx/lv_label.h **** 
 221:..\lvgl\lv_objx/lv_label.h **** /**
 222:..\lvgl\lv_objx/lv_label.h ****  * Get the body draw attribute
 223:..\lvgl\lv_objx/lv_label.h ****  * @param label pointer to a label object
 224:..\lvgl\lv_objx/lv_label.h ****  * @return true: draw body; false: don't draw body
 225:..\lvgl\lv_objx/lv_label.h ****  */
 226:..\lvgl\lv_objx/lv_label.h **** bool lv_label_get_body_draw(const lv_obj_t *label);
 227:..\lvgl\lv_objx/lv_label.h **** 
 228:..\lvgl\lv_objx/lv_label.h **** /**
 229:..\lvgl\lv_objx/lv_label.h ****  * Get the label's animation speed in LV_LABEL_LONG_ROLL and SCROLL modes
 230:..\lvgl\lv_objx/lv_label.h ****  * @param label pointer to a label object
 231:..\lvgl\lv_objx/lv_label.h ****  * @return speed of animation in px/sec unit
 232:..\lvgl\lv_objx/lv_label.h ****  */
 233:..\lvgl\lv_objx/lv_label.h **** uint16_t lv_label_get_anim_speed(const lv_obj_t *label);
 234:..\lvgl\lv_objx/lv_label.h **** 
 235:..\lvgl\lv_objx/lv_label.h **** /**
 236:..\lvgl\lv_objx/lv_label.h ****  * Get the relative x and y coordinates of a letter
 237:..\lvgl\lv_objx/lv_label.h ****  * @param label pointer to a label object
 238:..\lvgl\lv_objx/lv_label.h ****  * @param index index of the letter [0 ... text length]. Expressed in character index, not byte ind
 239:..\lvgl\lv_objx/lv_label.h ****  * @param pos store the result here (E.g. index = 0 gives 0;0 coordinates)
 240:..\lvgl\lv_objx/lv_label.h ****  */
 241:..\lvgl\lv_objx/lv_label.h **** void lv_label_get_letter_pos(const lv_obj_t * label, uint16_t index, lv_point_t * pos);
 242:..\lvgl\lv_objx/lv_label.h **** 
 243:..\lvgl\lv_objx/lv_label.h **** /**
 244:..\lvgl\lv_objx/lv_label.h ****  * Get the index of letter on a relative point of a label
 245:..\lvgl\lv_objx/lv_label.h ****  * @param label pointer to label object
 246:..\lvgl\lv_objx/lv_label.h ****  * @param pos pointer to point with coordinates on a the label
 247:..\lvgl\lv_objx/lv_label.h ****  * @return the index of the letter on the 'pos_p' point (E.g. on 0;0 is the 0. letter)
 248:..\lvgl\lv_objx/lv_label.h ****  * Expressed in character index and not byte index (different in UTF-8)
ARM GAS  C:\Users\d3bug\AppData\Local\Temp\cct3SNM7.s 			page 59


 249:..\lvgl\lv_objx/lv_label.h ****  */
 250:..\lvgl\lv_objx/lv_label.h **** uint16_t lv_label_get_letter_on(const lv_obj_t * label, lv_point_t * pos);
 251:..\lvgl\lv_objx/lv_label.h **** 
 252:..\lvgl\lv_objx/lv_label.h **** /**
 253:..\lvgl\lv_objx/lv_label.h ****  * Get the style of an label object
 254:..\lvgl\lv_objx/lv_label.h ****  * @param label pointer to an label object
 255:..\lvgl\lv_objx/lv_label.h ****  * @return pointer to the label's style
 256:..\lvgl\lv_objx/lv_label.h ****  */
 257:..\lvgl\lv_objx/lv_label.h **** static inline lv_style_t* lv_label_get_style(const lv_obj_t *label)
 258:..\lvgl\lv_objx/lv_label.h **** {
 259:..\lvgl\lv_objx/lv_label.h ****     return lv_obj_get_style(label);
 1654              		.loc 4 259 0
 1655 00a6 3046     		mov	r0, r6
 1656              	.LVL247:
 1657 00a8 FFF7FEFF 		bl	lv_obj_get_style
 1658              	.LVL248:
 1659              	.LBE50:
 1660              	.LBE49:
 753:..\lvgl\lv_objx/lv_label.c ****             label->ext_size = LV_MATH_MAX(label->ext_size, style->body.padding.ver);
 1661              		.loc 1 753 0
 1662 00ac B0F91620 		ldrsh	r2, [r0, #22]
 1663 00b0 B6F93030 		ldrsh	r3, [r6, #48]
 1664 00b4 9342     		cmp	r3, r2
 1665 00b6 B8BF     		it	lt
 1666 00b8 1346     		movlt	r3, r2
 1667 00ba 3386     		strh	r3, [r6, #48]	@ movhi
 754:..\lvgl\lv_objx/lv_label.c ****         }
 1668              		.loc 1 754 0
 1669 00bc B0F91420 		ldrsh	r2, [r0, #20]
 1670 00c0 9342     		cmp	r3, r2
 1671 00c2 B8BF     		it	lt
 1672 00c4 1346     		movlt	r3, r2
 1673 00c6 3386     		strh	r3, [r6, #48]	@ movhi
 1674 00c8 10E0     		b	.L110
 1675              	.LVL249:
 1676              	.L115:
 1677              	.LBE48:
 756:..\lvgl\lv_objx/lv_label.c **** #if USE_LV_MULTI_LANG
 1678              		.loc 1 756 0
 1679 00ca 052D     		cmp	r5, #5
 1680 00cc 0ED0     		beq	.L110
 767:..\lvgl\lv_objx/lv_label.c ****         lv_obj_type_t * buf = param;
 1681              		.loc 1 767 0
 1682 00ce 062D     		cmp	r5, #6
 1683 00d0 0CD1     		bne	.L110
 1684 00d2 05E0     		b	.L119
 1685              	.LVL250:
 1686              	.L118:
 1687              	.LBB51:
 771:..\lvgl\lv_objx/lv_label.c ****         }
 1688              		.loc 1 771 0
 1689 00d4 57F82320 		ldr	r2, [r7, r3, lsl #2]
 1690 00d8 2AB1     		cbz	r2, .L117
 770:..\lvgl\lv_objx/lv_label.c ****             if(buf->type[i] == NULL) break;
 1691              		.loc 1 770 0 discriminator 2
 1692 00da 0133     		adds	r3, r3, #1
 1693              	.LVL251:
ARM GAS  C:\Users\d3bug\AppData\Local\Temp\cct3SNM7.s 			page 60


 1694 00dc DBB2     		uxtb	r3, r3
 1695              	.LVL252:
 1696 00de 00E0     		b	.L116
 1697              	.LVL253:
 1698              	.L119:
 1699              	.LBE51:
 1700 00e0 0023     		movs	r3, #0
 1701              	.L116:
 1702              	.LVL254:
 1703              	.LBB52:
 770:..\lvgl\lv_objx/lv_label.c ****             if(buf->type[i] == NULL) break;
 1704              		.loc 1 770 0 is_stmt 0 discriminator 1
 1705 00e2 062B     		cmp	r3, #6
 1706 00e4 F6D9     		bls	.L118
 1707              	.L117:
 773:..\lvgl\lv_objx/lv_label.c ****     }
 1708              		.loc 1 773 0 is_stmt 1
 1709 00e6 044A     		ldr	r2, .L121+4
 1710 00e8 47F82320 		str	r2, [r7, r3, lsl #2]
 1711              	.LVL255:
 1712              	.L110:
 1713              	.LBE52:
 777:..\lvgl\lv_objx/lv_label.c **** 
 1714              		.loc 1 777 0
 1715 00ec 2046     		mov	r0, r4
 1716 00ee BDE8F081 		pop	{r4, r5, r6, r7, r8, pc}
 1717              	.LVL256:
 1718              	.L122:
 1719 00f2 00BF     		.align	2
 1720              	.L121:
 1721 00f4 00000000 		.word	.LANCHOR0
 1722 00f8 00000000 		.word	.LC0
 1723              		.cfi_endproc
 1724              	.LFE34:
 1725              		.size	lv_label_signal, .-lv_label_signal
 1726              		.section	.text.lv_label_set_text,"ax",%progbits
 1727              		.align	2
 1728              		.global	lv_label_set_text
 1729              		.thumb
 1730              		.thumb_func
 1731              		.type	lv_label_set_text, %function
 1732              	lv_label_set_text:
 1733              	.LFB15:
 148:..\lvgl\lv_objx/lv_label.c ****     lv_obj_invalidate(label);
 1734              		.loc 1 148 0
 1735              		.cfi_startproc
 1736              		@ args = 0, pretend = 0, frame = 0
 1737              		@ frame_needed = 0, uses_anonymous_args = 0
 1738              	.LVL257:
 1739 0000 2DE9F041 		push	{r4, r5, r6, r7, r8, lr}
 1740              		.cfi_def_cfa_offset 24
 1741              		.cfi_offset 4, -24
 1742              		.cfi_offset 5, -20
 1743              		.cfi_offset 6, -16
 1744              		.cfi_offset 7, -12
 1745              		.cfi_offset 8, -8
 1746              		.cfi_offset 14, -4
ARM GAS  C:\Users\d3bug\AppData\Local\Temp\cct3SNM7.s 			page 61


 1747 0004 0746     		mov	r7, r0
 1748 0006 0E46     		mov	r6, r1
 149:..\lvgl\lv_objx/lv_label.c **** 
 1749              		.loc 1 149 0
 1750 0008 FFF7FEFF 		bl	lv_obj_invalidate
 1751              	.LVL258:
 151:..\lvgl\lv_objx/lv_label.c **** 
 1752              		.loc 1 151 0
 1753 000c 3846     		mov	r0, r7
 1754 000e FFF7FEFF 		bl	lv_obj_get_ext_attr
 1755              	.LVL259:
 154:..\lvgl\lv_objx/lv_label.c ****         lv_label_refr_text(label);
 1756              		.loc 1 154 0
 1757 0012 26B9     		cbnz	r6, .L124
 155:..\lvgl\lv_objx/lv_label.c ****         return;
 1758              		.loc 1 155 0
 1759 0014 3846     		mov	r0, r7
 1760              	.LVL260:
 1761 0016 FFF7FEFF 		bl	lv_label_refr_text
 1762              	.LVL261:
 156:..\lvgl\lv_objx/lv_label.c ****     }
 1763              		.loc 1 156 0
 1764 001a BDE8F081 		pop	{r4, r5, r6, r7, r8, pc}
 1765              	.LVL262:
 1766              	.L124:
 1767 001e 0446     		mov	r4, r0
 159:..\lvgl\lv_objx/lv_label.c ****         /*If set its own text then reallocate it (maybe its size changed)*/
 1768              		.loc 1 159 0
 1769 0020 0568     		ldr	r5, [r0]
 1770 0022 AE42     		cmp	r6, r5
 1771 0024 12D1     		bne	.L126
 161:..\lvgl\lv_objx/lv_label.c ****         lv_mem_assert(ext->text);
 1772              		.loc 1 161 0
 1773 0026 2846     		mov	r0, r5
 1774              	.LVL263:
 1775 0028 FFF7FEFF 		bl	strlen
 1776              	.LVL264:
 1777 002c 411C     		adds	r1, r0, #1
 1778 002e 2846     		mov	r0, r5
 1779 0030 FFF7FEFF 		bl	lv_mem_realloc
 1780              	.LVL265:
 1781 0034 2060     		str	r0, [r4]
 162:..\lvgl\lv_objx/lv_label.c ****         if(ext->text == NULL) return;
 1782              		.loc 1 162 0
 1783 0036 30B9     		cbnz	r0, .L127
 162:..\lvgl\lv_objx/lv_label.c ****         if(ext->text == NULL) return;
 1784              		.loc 1 162 0 is_stmt 0 discriminator 1
 1785 0038 184B     		ldr	r3, .L134
 1786 003a A222     		movs	r2, #162
 1787 003c 1849     		ldr	r1, .L134+4
 1788 003e 0320     		movs	r0, #3
 1789 0040 FFF7FEFF 		bl	lv_log_add
 1790              	.LVL266:
 1791              	.L128:
 1792 0044 FEE7     		b	.L128
 1793              	.L127:
 163:..\lvgl\lv_objx/lv_label.c ****     } else {
ARM GAS  C:\Users\d3bug\AppData\Local\Temp\cct3SNM7.s 			page 62


 1794              		.loc 1 163 0 is_stmt 1
 1795 0046 20BB     		cbnz	r0, .L129
 1796 0048 BDE8F081 		pop	{r4, r5, r6, r7, r8, pc}
 1797              	.LVL267:
 1798              	.L126:
 1799              	.LBB53:
 166:..\lvgl\lv_objx/lv_label.c ****         if(ext->text != NULL && ext->static_txt == 0) {
 1800              		.loc 1 166 0
 1801 004c 3046     		mov	r0, r6
 1802              	.LVL268:
 1803 004e FFF7FEFF 		bl	strlen
 1804              	.LVL269:
 1805 0052 00F10108 		add	r8, r0, #1
 1806              	.LVL270:
 167:..\lvgl\lv_objx/lv_label.c ****             lv_mem_free(ext->text);
 1807              		.loc 1 167 0
 1808 0056 45B1     		cbz	r5, .L130
 167:..\lvgl\lv_objx/lv_label.c ****             lv_mem_free(ext->text);
 1809              		.loc 1 167 0 is_stmt 0 discriminator 1
 1810 0058 A37E     		ldrb	r3, [r4, #26]	@ zero_extendqisi2
 1811 005a 13F0010F 		tst	r3, #1
 1812 005e 04D1     		bne	.L130
 168:..\lvgl\lv_objx/lv_label.c ****             ext->text = NULL;
 1813              		.loc 1 168 0 is_stmt 1
 1814 0060 2846     		mov	r0, r5
 1815 0062 FFF7FEFF 		bl	lv_mem_free
 1816              	.LVL271:
 169:..\lvgl\lv_objx/lv_label.c ****         }
 1817              		.loc 1 169 0
 1818 0066 0023     		movs	r3, #0
 1819 0068 2360     		str	r3, [r4]
 1820              	.L130:
 172:..\lvgl\lv_objx/lv_label.c ****         lv_mem_assert(ext->text);
 1821              		.loc 1 172 0
 1822 006a 4046     		mov	r0, r8
 1823 006c FFF7FEFF 		bl	lv_mem_alloc
 1824              	.LVL272:
 1825 0070 2060     		str	r0, [r4]
 173:..\lvgl\lv_objx/lv_label.c ****         if(ext->text == NULL) return;
 1826              		.loc 1 173 0
 1827 0072 30B9     		cbnz	r0, .L131
 173:..\lvgl\lv_objx/lv_label.c ****         if(ext->text == NULL) return;
 1828              		.loc 1 173 0 is_stmt 0 discriminator 1
 1829 0074 094B     		ldr	r3, .L134
 1830 0076 AD22     		movs	r2, #173
 1831 0078 0949     		ldr	r1, .L134+4
 1832 007a 0320     		movs	r0, #3
 1833 007c FFF7FEFF 		bl	lv_log_add
 1834              	.LVL273:
 1835              	.L132:
 1836 0080 FEE7     		b	.L132
 1837              	.L131:
 174:..\lvgl\lv_objx/lv_label.c **** 
 1838              		.loc 1 174 0 is_stmt 1
 1839 0082 48B1     		cbz	r0, .L123
 176:..\lvgl\lv_objx/lv_label.c ****         ext->static_txt = 0;    /*Now the text is dynamically allocated*/
 1840              		.loc 1 176 0
ARM GAS  C:\Users\d3bug\AppData\Local\Temp\cct3SNM7.s 			page 63


 1841 0084 3146     		mov	r1, r6
 1842 0086 FFF7FEFF 		bl	strcpy
 1843              	.LVL274:
 177:..\lvgl\lv_objx/lv_label.c ****     }
 1844              		.loc 1 177 0
 1845 008a A37E     		ldrb	r3, [r4, #26]	@ zero_extendqisi2
 1846 008c 6FF30003 		bfc	r3, #0, #1
 1847 0090 A376     		strb	r3, [r4, #26]
 1848              	.LVL275:
 1849              	.L129:
 1850              	.LBE53:
 180:..\lvgl\lv_objx/lv_label.c **** }
 1851              		.loc 1 180 0
 1852 0092 3846     		mov	r0, r7
 1853 0094 FFF7FEFF 		bl	lv_label_refr_text
 1854              	.LVL276:
 1855              	.L123:
 1856 0098 BDE8F081 		pop	{r4, r5, r6, r7, r8, pc}
 1857              	.LVL277:
 1858              	.L135:
 1859              		.align	2
 1860              	.L134:
 1861 009c 0C000000 		.word	.LC1
 1862 00a0 1C000000 		.word	.LC2
 1863              		.cfi_endproc
 1864              	.LFE15:
 1865              		.size	lv_label_set_text, .-lv_label_set_text
 1866              		.section	.text.lv_label_set_array_text,"ax",%progbits
 1867              		.align	2
 1868              		.global	lv_label_set_array_text
 1869              		.thumb
 1870              		.thumb_func
 1871              		.type	lv_label_set_array_text, %function
 1872              	lv_label_set_array_text:
 1873              	.LFB16:
 191:..\lvgl\lv_objx/lv_label.c ****     lv_obj_invalidate(label);
 1874              		.loc 1 191 0
 1875              		.cfi_startproc
 1876              		@ args = 0, pretend = 0, frame = 0
 1877              		@ frame_needed = 0, uses_anonymous_args = 0
 1878              	.LVL278:
 1879 0000 F8B5     		push	{r3, r4, r5, r6, r7, lr}
 1880              		.cfi_def_cfa_offset 24
 1881              		.cfi_offset 3, -24
 1882              		.cfi_offset 4, -20
 1883              		.cfi_offset 5, -16
 1884              		.cfi_offset 6, -12
 1885              		.cfi_offset 7, -8
 1886              		.cfi_offset 14, -4
 1887 0002 0546     		mov	r5, r0
 1888 0004 0F46     		mov	r7, r1
 1889 0006 1646     		mov	r6, r2
 192:..\lvgl\lv_objx/lv_label.c **** 
 1890              		.loc 1 192 0
 1891 0008 FFF7FEFF 		bl	lv_obj_invalidate
 1892              	.LVL279:
 194:..\lvgl\lv_objx/lv_label.c **** 
ARM GAS  C:\Users\d3bug\AppData\Local\Temp\cct3SNM7.s 			page 64


 1893              		.loc 1 194 0
 1894 000c 2846     		mov	r0, r5
 1895 000e FFF7FEFF 		bl	lv_obj_get_ext_attr
 1896              	.LVL280:
 1897 0012 0446     		mov	r4, r0
 1898              	.LVL281:
 197:..\lvgl\lv_objx/lv_label.c ****         lv_label_refr_text(label);
 1899              		.loc 1 197 0
 1900 0014 0068     		ldr	r0, [r0]
 1901              	.LVL282:
 1902 0016 B842     		cmp	r0, r7
 1903 0018 00D0     		beq	.L137
 197:..\lvgl\lv_objx/lv_label.c ****         lv_label_refr_text(label);
 1904              		.loc 1 197 0 is_stmt 0 discriminator 1
 1905 001a 1FB9     		cbnz	r7, .L138
 1906              	.L137:
 198:..\lvgl\lv_objx/lv_label.c ****         return;
 1907              		.loc 1 198 0 is_stmt 1
 1908 001c 2846     		mov	r0, r5
 1909 001e FFF7FEFF 		bl	lv_label_refr_text
 1910              	.LVL283:
 199:..\lvgl\lv_objx/lv_label.c ****     }
 1911              		.loc 1 199 0
 1912 0022 F8BD     		pop	{r3, r4, r5, r6, r7, pc}
 1913              	.LVL284:
 1914              	.L138:
 203:..\lvgl\lv_objx/lv_label.c ****         lv_mem_free(ext->text);
 1915              		.loc 1 203 0
 1916 0024 38B1     		cbz	r0, .L140
 203:..\lvgl\lv_objx/lv_label.c ****         lv_mem_free(ext->text);
 1917              		.loc 1 203 0 is_stmt 0 discriminator 1
 1918 0026 A37E     		ldrb	r3, [r4, #26]	@ zero_extendqisi2
 1919 0028 13F0010F 		tst	r3, #1
 1920 002c 03D1     		bne	.L140
 204:..\lvgl\lv_objx/lv_label.c ****         ext->text = NULL;
 1921              		.loc 1 204 0 is_stmt 1
 1922 002e FFF7FEFF 		bl	lv_mem_free
 1923              	.LVL285:
 205:..\lvgl\lv_objx/lv_label.c ****     }
 1924              		.loc 1 205 0
 1925 0032 0023     		movs	r3, #0
 1926 0034 2360     		str	r3, [r4]
 1927              	.L140:
 207:..\lvgl\lv_objx/lv_label.c ****     lv_mem_assert(ext->text);
 1928              		.loc 1 207 0
 1929 0036 701C     		adds	r0, r6, #1
 1930 0038 FFF7FEFF 		bl	lv_mem_alloc
 1931              	.LVL286:
 1932 003c 2060     		str	r0, [r4]
 208:..\lvgl\lv_objx/lv_label.c ****     if(ext->text == NULL) return;
 1933              		.loc 1 208 0
 1934 003e 30B9     		cbnz	r0, .L141
 208:..\lvgl\lv_objx/lv_label.c ****     if(ext->text == NULL) return;
 1935              		.loc 1 208 0 is_stmt 0 discriminator 1
 1936 0040 0B4B     		ldr	r3, .L144
 1937 0042 D022     		movs	r2, #208
 1938 0044 0B49     		ldr	r1, .L144+4
ARM GAS  C:\Users\d3bug\AppData\Local\Temp\cct3SNM7.s 			page 65


 1939 0046 0320     		movs	r0, #3
 1940 0048 FFF7FEFF 		bl	lv_log_add
 1941              	.LVL287:
 1942              	.L142:
 1943 004c FEE7     		b	.L142
 1944              	.L141:
 209:..\lvgl\lv_objx/lv_label.c **** 
 1945              		.loc 1 209 0 is_stmt 1
 1946 004e 68B1     		cbz	r0, .L136
 211:..\lvgl\lv_objx/lv_label.c ****     ext->text[size] = '\0';
 1947              		.loc 1 211 0
 1948 0050 3246     		mov	r2, r6
 1949 0052 3946     		mov	r1, r7
 1950 0054 FFF7FEFF 		bl	memcpy
 1951              	.LVL288:
 212:..\lvgl\lv_objx/lv_label.c ****     ext->static_txt = 0;    /*Now the text is dynamically allocated*/
 1952              		.loc 1 212 0
 1953 0058 2368     		ldr	r3, [r4]
 1954 005a 0022     		movs	r2, #0
 1955 005c 9A55     		strb	r2, [r3, r6]
 213:..\lvgl\lv_objx/lv_label.c **** 
 1956              		.loc 1 213 0
 1957 005e A37E     		ldrb	r3, [r4, #26]	@ zero_extendqisi2
 1958 0060 62F30003 		bfi	r3, r2, #0, #1
 1959 0064 A376     		strb	r3, [r4, #26]
 215:..\lvgl\lv_objx/lv_label.c **** }
 1960              		.loc 1 215 0
 1961 0066 2846     		mov	r0, r5
 1962 0068 FFF7FEFF 		bl	lv_label_refr_text
 1963              	.LVL289:
 1964              	.L136:
 1965 006c F8BD     		pop	{r3, r4, r5, r6, r7, pc}
 1966              	.LVL290:
 1967              	.L145:
 1968 006e 00BF     		.align	2
 1969              	.L144:
 1970 0070 0C000000 		.word	.LC1
 1971 0074 1C000000 		.word	.LC2
 1972              		.cfi_endproc
 1973              	.LFE16:
 1974              		.size	lv_label_set_array_text, .-lv_label_set_array_text
 1975              		.section	.text.lv_label_set_static_text,"ax",%progbits
 1976              		.align	2
 1977              		.global	lv_label_set_static_text
 1978              		.thumb
 1979              		.thumb_func
 1980              		.type	lv_label_set_static_text, %function
 1981              	lv_label_set_static_text:
 1982              	.LFB17:
 225:..\lvgl\lv_objx/lv_label.c ****     lv_label_ext_t * ext = lv_obj_get_ext_attr(label);
 1983              		.loc 1 225 0
 1984              		.cfi_startproc
 1985              		@ args = 0, pretend = 0, frame = 0
 1986              		@ frame_needed = 0, uses_anonymous_args = 0
 1987              	.LVL291:
 1988 0000 70B5     		push	{r4, r5, r6, lr}
 1989              		.cfi_def_cfa_offset 16
ARM GAS  C:\Users\d3bug\AppData\Local\Temp\cct3SNM7.s 			page 66


 1990              		.cfi_offset 4, -16
 1991              		.cfi_offset 5, -12
 1992              		.cfi_offset 6, -8
 1993              		.cfi_offset 14, -4
 1994 0002 0646     		mov	r6, r0
 1995 0004 0D46     		mov	r5, r1
 226:..\lvgl\lv_objx/lv_label.c ****     if(ext->static_txt == 0 && ext->text != NULL) {
 1996              		.loc 1 226 0
 1997 0006 FFF7FEFF 		bl	lv_obj_get_ext_attr
 1998              	.LVL292:
 1999 000a 0446     		mov	r4, r0
 2000              	.LVL293:
 227:..\lvgl\lv_objx/lv_label.c ****         lv_mem_free(ext->text);
 2001              		.loc 1 227 0
 2002 000c 837E     		ldrb	r3, [r0, #26]	@ zero_extendqisi2
 2003 000e 13F0010F 		tst	r3, #1
 2004 0012 05D1     		bne	.L147
 227:..\lvgl\lv_objx/lv_label.c ****         lv_mem_free(ext->text);
 2005              		.loc 1 227 0 is_stmt 0 discriminator 1
 2006 0014 0068     		ldr	r0, [r0]
 2007              	.LVL294:
 2008 0016 18B1     		cbz	r0, .L147
 228:..\lvgl\lv_objx/lv_label.c ****         ext->text = NULL;
 2009              		.loc 1 228 0 is_stmt 1
 2010 0018 FFF7FEFF 		bl	lv_mem_free
 2011              	.LVL295:
 229:..\lvgl\lv_objx/lv_label.c ****     }
 2012              		.loc 1 229 0
 2013 001c 0023     		movs	r3, #0
 2014 001e 2360     		str	r3, [r4]
 2015              	.L147:
 232:..\lvgl\lv_objx/lv_label.c ****         ext->static_txt = 1;
 2016              		.loc 1 232 0
 2017 0020 25B1     		cbz	r5, .L148
 233:..\lvgl\lv_objx/lv_label.c ****         ext->text = (char *) text;
 2018              		.loc 1 233 0
 2019 0022 A37E     		ldrb	r3, [r4, #26]	@ zero_extendqisi2
 2020 0024 43F00103 		orr	r3, r3, #1
 2021 0028 A376     		strb	r3, [r4, #26]
 234:..\lvgl\lv_objx/lv_label.c ****     }
 2022              		.loc 1 234 0
 2023 002a 2560     		str	r5, [r4]
 2024              	.L148:
 237:..\lvgl\lv_objx/lv_label.c **** }
 2025              		.loc 1 237 0
 2026 002c 3046     		mov	r0, r6
 2027 002e FFF7FEFF 		bl	lv_label_refr_text
 2028              	.LVL296:
 2029 0032 70BD     		pop	{r4, r5, r6, pc}
 2030              		.cfi_endproc
 2031              	.LFE17:
 2032              		.size	lv_label_set_static_text, .-lv_label_set_static_text
 2033              		.section	.text.lv_label_set_long_mode,"ax",%progbits
 2034              		.align	2
 2035              		.global	lv_label_set_long_mode
 2036              		.thumb
 2037              		.thumb_func
ARM GAS  C:\Users\d3bug\AppData\Local\Temp\cct3SNM7.s 			page 67


 2038              		.type	lv_label_set_long_mode, %function
 2039              	lv_label_set_long_mode:
 2040              	.LFB18:
 263:..\lvgl\lv_objx/lv_label.c ****     lv_label_ext_t * ext = lv_obj_get_ext_attr(label);
 2041              		.loc 1 263 0
 2042              		.cfi_startproc
 2043              		@ args = 0, pretend = 0, frame = 0
 2044              		@ frame_needed = 0, uses_anonymous_args = 0
 2045              	.LVL297:
 2046 0000 70B5     		push	{r4, r5, r6, lr}
 2047              		.cfi_def_cfa_offset 16
 2048              		.cfi_offset 4, -16
 2049              		.cfi_offset 5, -12
 2050              		.cfi_offset 6, -8
 2051              		.cfi_offset 14, -4
 2052 0002 0646     		mov	r6, r0
 2053 0004 0D46     		mov	r5, r1
 264:..\lvgl\lv_objx/lv_label.c **** 
 2054              		.loc 1 264 0
 2055 0006 FFF7FEFF 		bl	lv_obj_get_ext_attr
 2056              	.LVL298:
 2057 000a 0446     		mov	r4, r0
 2058              	.LVL299:
 273:..\lvgl\lv_objx/lv_label.c ****     ext->offset.y = 0;
 2059              		.loc 1 273 0
 2060 000c 0023     		movs	r3, #0
 2061 000e C382     		strh	r3, [r0, #22]	@ movhi
 274:..\lvgl\lv_objx/lv_label.c **** 
 2062              		.loc 1 274 0
 2063 0010 0383     		strh	r3, [r0, #24]	@ movhi
 276:..\lvgl\lv_objx/lv_label.c ****     else ext->expand = 0;
 2064              		.loc 1 276 0
 2065 0012 2B1F     		subs	r3, r5, #4
 2066 0014 DBB2     		uxtb	r3, r3
 2067 0016 012B     		cmp	r3, #1
 2068 0018 04D8     		bhi	.L151
 276:..\lvgl\lv_objx/lv_label.c ****     else ext->expand = 0;
 2069              		.loc 1 276 0 is_stmt 0 discriminator 1
 2070 001a 837E     		ldrb	r3, [r0, #26]	@ zero_extendqisi2
 2071 001c 43F01003 		orr	r3, r3, #16
 2072 0020 8376     		strb	r3, [r0, #26]
 2073 0022 03E0     		b	.L152
 2074              	.L151:
 277:..\lvgl\lv_objx/lv_label.c **** 
 2075              		.loc 1 277 0 is_stmt 1
 2076 0024 837E     		ldrb	r3, [r0, #26]	@ zero_extendqisi2
 2077 0026 6FF30413 		bfc	r3, #4, #1
 2078 002a 8376     		strb	r3, [r0, #26]
 2079              	.L152:
 280:..\lvgl\lv_objx/lv_label.c ****         lv_label_revert_dots(label);
 2080              		.loc 1 280 0
 2081 002c 2379     		ldrb	r3, [r4, #4]	@ zero_extendqisi2
 2082 002e 032B     		cmp	r3, #3
 2083 0030 07D1     		bne	.L153
 280:..\lvgl\lv_objx/lv_label.c ****         lv_label_revert_dots(label);
 2084              		.loc 1 280 0 is_stmt 0 discriminator 1
 2085 0032 628A     		ldrh	r2, [r4, #18]
ARM GAS  C:\Users\d3bug\AppData\Local\Temp\cct3SNM7.s 			page 68


 2086 0034 4FF6FF73 		movw	r3, #65535
 2087 0038 9A42     		cmp	r2, r3
 2088 003a 02D0     		beq	.L153
 281:..\lvgl\lv_objx/lv_label.c ****     }
 2089              		.loc 1 281 0 is_stmt 1
 2090 003c 3046     		mov	r0, r6
 2091              	.LVL300:
 2092 003e FFF7FEFF 		bl	lv_label_revert_dots
 2093              	.LVL301:
 2094              	.L153:
 284:..\lvgl\lv_objx/lv_label.c ****     lv_label_refr_text(label);
 2095              		.loc 1 284 0
 2096 0042 2571     		strb	r5, [r4, #4]
 285:..\lvgl\lv_objx/lv_label.c **** }
 2097              		.loc 1 285 0
 2098 0044 3046     		mov	r0, r6
 2099 0046 FFF7FEFF 		bl	lv_label_refr_text
 2100              	.LVL302:
 2101 004a 70BD     		pop	{r4, r5, r6, pc}
 2102              		.cfi_endproc
 2103              	.LFE18:
 2104              		.size	lv_label_set_long_mode, .-lv_label_set_long_mode
 2105              		.section	.text.lv_label_set_recolor,"ax",%progbits
 2106              		.align	2
 2107              		.global	lv_label_set_recolor
 2108              		.thumb
 2109              		.thumb_func
 2110              		.type	lv_label_set_recolor, %function
 2111              	lv_label_set_recolor:
 2112              	.LFB20:
 309:..\lvgl\lv_objx/lv_label.c ****     lv_label_ext_t * ext = lv_obj_get_ext_attr(label);
 2113              		.loc 1 309 0
 2114              		.cfi_startproc
 2115              		@ args = 0, pretend = 0, frame = 0
 2116              		@ frame_needed = 0, uses_anonymous_args = 0
 2117              	.LVL303:
 2118 0000 38B5     		push	{r3, r4, r5, lr}
 2119              		.cfi_def_cfa_offset 16
 2120              		.cfi_offset 3, -16
 2121              		.cfi_offset 4, -12
 2122              		.cfi_offset 5, -8
 2123              		.cfi_offset 14, -4
 2124 0002 0546     		mov	r5, r0
 2125 0004 0C46     		mov	r4, r1
 310:..\lvgl\lv_objx/lv_label.c ****     if(ext->recolor == en) return;
 2126              		.loc 1 310 0
 2127 0006 FFF7FEFF 		bl	lv_obj_get_ext_attr
 2128              	.LVL304:
 311:..\lvgl\lv_objx/lv_label.c **** 
 2129              		.loc 1 311 0
 2130 000a 837E     		ldrb	r3, [r0, #26]	@ zero_extendqisi2
 2131 000c C3F3C003 		ubfx	r3, r3, #3, #1
 2132 0010 A342     		cmp	r3, r4
 2133 0012 0AD0     		beq	.L155
 313:..\lvgl\lv_objx/lv_label.c **** 
 2134              		.loc 1 313 0
 2135 0014 0CB9     		cbnz	r4, .L158
ARM GAS  C:\Users\d3bug\AppData\Local\Temp\cct3SNM7.s 			page 69


 2136 0016 0022     		movs	r2, #0
 2137 0018 00E0     		b	.L157
 2138              	.L158:
 2139 001a 0122     		movs	r2, #1
 2140              	.L157:
 313:..\lvgl\lv_objx/lv_label.c **** 
 2141              		.loc 1 313 0 is_stmt 0 discriminator 4
 2142 001c 837E     		ldrb	r3, [r0, #26]	@ zero_extendqisi2
 2143 001e 62F3C303 		bfi	r3, r2, #3, #1
 2144 0022 8376     		strb	r3, [r0, #26]
 315:..\lvgl\lv_objx/lv_label.c **** }
 2145              		.loc 1 315 0 is_stmt 1 discriminator 4
 2146 0024 2846     		mov	r0, r5
 2147              	.LVL305:
 2148 0026 FFF7FEFF 		bl	lv_label_refr_text
 2149              	.LVL306:
 2150              	.L155:
 2151 002a 38BD     		pop	{r3, r4, r5, pc}
 2152              		.cfi_endproc
 2153              	.LFE20:
 2154              		.size	lv_label_set_recolor, .-lv_label_set_recolor
 2155              		.section	.text.lv_label_create,"ax",%progbits
 2156              		.align	2
 2157              		.global	lv_label_create
 2158              		.thumb
 2159              		.thumb_func
 2160              		.type	lv_label_create, %function
 2161              	lv_label_create:
 2162              	.LFB14:
  67:..\lvgl\lv_objx/lv_label.c ****     LV_LOG_TRACE("label create started");
 2163              		.loc 1 67 0
 2164              		.cfi_startproc
 2165              		@ args = 0, pretend = 0, frame = 0
 2166              		@ frame_needed = 0, uses_anonymous_args = 0
 2167              	.LVL307:
 2168 0000 2DE9F041 		push	{r4, r5, r6, r7, r8, lr}
 2169              		.cfi_def_cfa_offset 24
 2170              		.cfi_offset 4, -24
 2171              		.cfi_offset 5, -20
 2172              		.cfi_offset 6, -16
 2173              		.cfi_offset 7, -12
 2174              		.cfi_offset 8, -8
 2175              		.cfi_offset 14, -4
 2176 0004 0446     		mov	r4, r0
 2177 0006 0E46     		mov	r6, r1
  68:..\lvgl\lv_objx/lv_label.c **** 
 2178              		.loc 1 68 0
 2179 0008 684B     		ldr	r3, .L178
 2180 000a 4422     		movs	r2, #68
 2181 000c 6849     		ldr	r1, .L178+4
 2182              	.LVL308:
 2183 000e 0020     		movs	r0, #0
 2184              	.LVL309:
 2185 0010 FFF7FEFF 		bl	lv_log_add
 2186              	.LVL310:
  71:..\lvgl\lv_objx/lv_label.c ****     lv_mem_assert(new_label);
 2187              		.loc 1 71 0
ARM GAS  C:\Users\d3bug\AppData\Local\Temp\cct3SNM7.s 			page 70


 2188 0014 3146     		mov	r1, r6
 2189 0016 2046     		mov	r0, r4
 2190 0018 FFF7FEFF 		bl	lv_obj_create
 2191              	.LVL311:
  72:..\lvgl\lv_objx/lv_label.c ****     if(new_label == NULL) return NULL;
 2192              		.loc 1 72 0
 2193 001c 30B9     		cbnz	r0, .L161
  72:..\lvgl\lv_objx/lv_label.c ****     if(new_label == NULL) return NULL;
 2194              		.loc 1 72 0 is_stmt 0 discriminator 1
 2195 001e 654B     		ldr	r3, .L178+8
 2196 0020 4822     		movs	r2, #72
 2197 0022 6349     		ldr	r1, .L178+4
 2198 0024 0320     		movs	r0, #3
 2199              	.LVL312:
 2200 0026 FFF7FEFF 		bl	lv_log_add
 2201              	.LVL313:
 2202              	.L162:
 2203 002a FEE7     		b	.L162
 2204              	.LVL314:
 2205              	.L161:
 2206 002c 0446     		mov	r4, r0
 2207              	.LVL315:
  73:..\lvgl\lv_objx/lv_label.c **** 
 2208              		.loc 1 73 0 is_stmt 1
 2209 002e 0028     		cmp	r0, #0
 2210 0030 00F0B280 		beq	.L174
  75:..\lvgl\lv_objx/lv_label.c **** 
 2211              		.loc 1 75 0
 2212 0034 604B     		ldr	r3, .L178+12
 2213 0036 1B68     		ldr	r3, [r3]
 2214 0038 1BB9     		cbnz	r3, .L164
  75:..\lvgl\lv_objx/lv_label.c **** 
 2215              		.loc 1 75 0 is_stmt 0 discriminator 1
 2216 003a FFF7FEFF 		bl	lv_obj_get_signal_func
 2217              	.LVL316:
 2218 003e 5E4B     		ldr	r3, .L178+12
 2219 0040 1860     		str	r0, [r3]
 2220              	.L164:
  78:..\lvgl\lv_objx/lv_label.c **** 
 2221              		.loc 1 78 0 is_stmt 1
 2222 0042 1C21     		movs	r1, #28
 2223 0044 2046     		mov	r0, r4
 2224 0046 FFF7FEFF 		bl	lv_obj_allocate_ext_attr
 2225              	.LVL317:
  80:..\lvgl\lv_objx/lv_label.c ****     lv_mem_assert(ext);
 2226              		.loc 1 80 0
 2227 004a 2046     		mov	r0, r4
 2228 004c FFF7FEFF 		bl	lv_obj_get_ext_attr
 2229              	.LVL318:
  81:..\lvgl\lv_objx/lv_label.c ****     if(ext == NULL) return NULL;
 2230              		.loc 1 81 0
 2231 0050 0546     		mov	r5, r0
 2232 0052 30B9     		cbnz	r0, .L165
  81:..\lvgl\lv_objx/lv_label.c ****     if(ext == NULL) return NULL;
 2233              		.loc 1 81 0 is_stmt 0 discriminator 1
 2234 0054 574B     		ldr	r3, .L178+8
 2235 0056 5122     		movs	r2, #81
ARM GAS  C:\Users\d3bug\AppData\Local\Temp\cct3SNM7.s 			page 71


 2236 0058 5549     		ldr	r1, .L178+4
 2237 005a 0320     		movs	r0, #3
 2238              	.LVL319:
 2239 005c FFF7FEFF 		bl	lv_log_add
 2240              	.LVL320:
 2241              	.L166:
 2242 0060 FEE7     		b	.L166
 2243              	.LVL321:
 2244              	.L165:
  82:..\lvgl\lv_objx/lv_label.c **** 
 2245              		.loc 1 82 0 is_stmt 1
 2246 0062 0028     		cmp	r0, #0
 2247 0064 00F09B80 		beq	.L175
  84:..\lvgl\lv_objx/lv_label.c ****     ext->static_txt = 0;
 2248              		.loc 1 84 0
 2249 0068 0023     		movs	r3, #0
 2250 006a 0360     		str	r3, [r0]
  85:..\lvgl\lv_objx/lv_label.c ****     ext->recolor = 0;
 2251              		.loc 1 85 0
 2252 006c 827E     		ldrb	r2, [r0, #26]	@ zero_extendqisi2
  88:..\lvgl\lv_objx/lv_label.c ****     ext->dot_end = LV_LABEL_DOT_END_INV;
 2253              		.loc 1 88 0
 2254 006e 02F0D602 		and	r2, r2, #214
 2255 0072 63F34202 		bfi	r2, r3, #1, #2
 2256 0076 8276     		strb	r2, [r0, #26]
  89:..\lvgl\lv_objx/lv_label.c ****     ext->long_mode = LV_LABEL_LONG_EXPAND;
 2257              		.loc 1 89 0
 2258 0078 4FF6FF72 		movw	r2, #65535
 2259 007c 4282     		strh	r2, [r0, #18]	@ movhi
  90:..\lvgl\lv_objx/lv_label.c ****     ext->anim_speed = LV_LABEL_SCROLL_SPEED;
 2260              		.loc 1 90 0
 2261 007e 0371     		strb	r3, [r0, #4]
  91:..\lvgl\lv_objx/lv_label.c ****     ext->offset.x = 0;
 2262              		.loc 1 91 0
 2263 0080 1922     		movs	r2, #25
 2264 0082 8282     		strh	r2, [r0, #20]	@ movhi
  92:..\lvgl\lv_objx/lv_label.c ****     ext->offset.y = 0;
 2265              		.loc 1 92 0
 2266 0084 C382     		strh	r3, [r0, #22]	@ movhi
  93:..\lvgl\lv_objx/lv_label.c **** #if USE_LV_MULTI_LANG
 2267              		.loc 1 93 0
 2268 0086 0383     		strh	r3, [r0, #24]	@ movhi
  97:..\lvgl\lv_objx/lv_label.c ****     lv_obj_set_signal_func(new_label, lv_label_signal);
 2269              		.loc 1 97 0
 2270 0088 4C49     		ldr	r1, .L178+16
 2271 008a 2046     		mov	r0, r4
 2272              	.LVL322:
 2273 008c FFF7FEFF 		bl	lv_obj_set_design_func
 2274              	.LVL323:
  98:..\lvgl\lv_objx/lv_label.c **** 
 2275              		.loc 1 98 0
 2276 0090 4B49     		ldr	r1, .L178+20
 2277 0092 2046     		mov	r0, r4
 2278 0094 FFF7FEFF 		bl	lv_obj_set_signal_func
 2279              	.LVL324:
 101:..\lvgl\lv_objx/lv_label.c ****         lv_obj_set_click(new_label, false);
 2280              		.loc 1 101 0
ARM GAS  C:\Users\d3bug\AppData\Local\Temp\cct3SNM7.s 			page 72


 2281 0098 86B9     		cbnz	r6, .L167
 102:..\lvgl\lv_objx/lv_label.c ****         lv_label_set_long_mode(new_label, LV_LABEL_LONG_EXPAND);
 2282              		.loc 1 102 0
 2283 009a 0021     		movs	r1, #0
 2284 009c 2046     		mov	r0, r4
 2285 009e FFF7FEFF 		bl	lv_obj_set_click
 2286              	.LVL325:
 103:..\lvgl\lv_objx/lv_label.c ****         lv_label_set_text(new_label, "Text");
 2287              		.loc 1 103 0
 2288 00a2 0021     		movs	r1, #0
 2289 00a4 2046     		mov	r0, r4
 2290 00a6 FFF7FEFF 		bl	lv_label_set_long_mode
 2291              	.LVL326:
 104:..\lvgl\lv_objx/lv_label.c ****         lv_label_set_style(new_label, NULL);        /*Inherit parent's style*/
 2292              		.loc 1 104 0
 2293 00aa 4649     		ldr	r1, .L178+24
 2294 00ac 2046     		mov	r0, r4
 2295 00ae FFF7FEFF 		bl	lv_label_set_text
 2296              	.LVL327:
 2297              	.LBB54:
 2298              	.LBB55:
 178:..\lvgl\lv_objx/lv_label.h **** }
 2299              		.loc 4 178 0
 2300 00b2 0021     		movs	r1, #0
 2301 00b4 2046     		mov	r0, r4
 2302 00b6 FFF7FEFF 		bl	lv_obj_set_style
 2303              	.LVL328:
 2304 00ba 64E0     		b	.L168
 2305              	.LVL329:
 2306              	.L167:
 2307              	.LBE55:
 2308              	.LBE54:
 2309              	.LBB56:
 109:..\lvgl\lv_objx/lv_label.c ****         lv_label_set_long_mode(new_label, lv_label_get_long_mode(copy));
 2310              		.loc 1 109 0
 2311 00bc 3046     		mov	r0, r6
 2312 00be FFF7FEFF 		bl	lv_obj_get_ext_attr
 2313              	.LVL330:
 2314 00c2 0746     		mov	r7, r0
 2315              	.LVL331:
 110:..\lvgl\lv_objx/lv_label.c ****         lv_label_set_recolor(new_label, lv_label_get_recolor(copy));
 2316              		.loc 1 110 0
 2317 00c4 3046     		mov	r0, r6
 2318              	.LVL332:
 2319 00c6 FFF7FEFF 		bl	lv_label_get_long_mode
 2320              	.LVL333:
 2321 00ca 0146     		mov	r1, r0
 2322 00cc 2046     		mov	r0, r4
 2323 00ce FFF7FEFF 		bl	lv_label_set_long_mode
 2324              	.LVL334:
 111:..\lvgl\lv_objx/lv_label.c ****         lv_label_set_body_draw(new_label, lv_label_get_body_draw(copy));
 2325              		.loc 1 111 0
 2326 00d2 3046     		mov	r0, r6
 2327 00d4 FFF7FEFF 		bl	lv_label_get_recolor
 2328              	.LVL335:
 2329 00d8 0146     		mov	r1, r0
 2330 00da 2046     		mov	r0, r4
ARM GAS  C:\Users\d3bug\AppData\Local\Temp\cct3SNM7.s 			page 73


 2331 00dc FFF7FEFF 		bl	lv_label_set_recolor
 2332              	.LVL336:
 112:..\lvgl\lv_objx/lv_label.c ****         lv_label_set_align(new_label, lv_label_get_align(copy));
 2333              		.loc 1 112 0
 2334 00e0 3046     		mov	r0, r6
 2335 00e2 FFF7FEFF 		bl	lv_label_get_body_draw
 2336              	.LVL337:
 2337 00e6 0146     		mov	r1, r0
 2338 00e8 2046     		mov	r0, r4
 2339 00ea FFF7FEFF 		bl	lv_label_set_body_draw
 2340              	.LVL338:
 113:..\lvgl\lv_objx/lv_label.c ****         if(copy_ext->static_txt == 0) lv_label_set_text(new_label, lv_label_get_text(copy));
 2341              		.loc 1 113 0
 2342 00ee 3046     		mov	r0, r6
 2343 00f0 FFF7FEFF 		bl	lv_label_get_align
 2344              	.LVL339:
 2345 00f4 0146     		mov	r1, r0
 2346 00f6 2046     		mov	r0, r4
 2347 00f8 FFF7FEFF 		bl	lv_label_set_align
 2348              	.LVL340:
 114:..\lvgl\lv_objx/lv_label.c ****         else lv_label_set_static_text(new_label, lv_label_get_text(copy));
 2349              		.loc 1 114 0
 2350 00fc BB7E     		ldrb	r3, [r7, #26]	@ zero_extendqisi2
 2351 00fe 13F0010F 		tst	r3, #1
 2352 0102 07D1     		bne	.L169
 114:..\lvgl\lv_objx/lv_label.c ****         else lv_label_set_static_text(new_label, lv_label_get_text(copy));
 2353              		.loc 1 114 0 is_stmt 0 discriminator 1
 2354 0104 3046     		mov	r0, r6
 2355 0106 FFF7FEFF 		bl	lv_label_get_text
 2356              	.LVL341:
 2357 010a 0146     		mov	r1, r0
 2358 010c 2046     		mov	r0, r4
 2359 010e FFF7FEFF 		bl	lv_label_set_text
 2360              	.LVL342:
 2361 0112 06E0     		b	.L170
 2362              	.L169:
 115:..\lvgl\lv_objx/lv_label.c **** 
 2363              		.loc 1 115 0 is_stmt 1
 2364 0114 3046     		mov	r0, r6
 2365 0116 FFF7FEFF 		bl	lv_label_get_text
 2366              	.LVL343:
 2367 011a 0146     		mov	r1, r0
 2368 011c 2046     		mov	r0, r4
 2369 011e FFF7FEFF 		bl	lv_label_set_static_text
 2370              	.LVL344:
 2371              	.L170:
 118:..\lvgl\lv_objx/lv_label.c ****             ext->text = lv_mem_realloc(ext->text, lv_mem_get_size(copy_ext->text));
 2372              		.loc 1 118 0
 2373 0122 3B79     		ldrb	r3, [r7, #4]	@ zero_extendqisi2
 2374 0124 032B     		cmp	r3, #3
 2375 0126 1CD1     		bne	.L171
 119:..\lvgl\lv_objx/lv_label.c ****             lv_mem_assert(ext->text);
 2376              		.loc 1 119 0
 2377 0128 2E68     		ldr	r6, [r5]
 2378              	.LVL345:
 2379 012a 3868     		ldr	r0, [r7]
 2380 012c FFF7FEFF 		bl	lv_mem_get_size
ARM GAS  C:\Users\d3bug\AppData\Local\Temp\cct3SNM7.s 			page 74


 2381              	.LVL346:
 2382 0130 0146     		mov	r1, r0
 2383 0132 3046     		mov	r0, r6
 2384 0134 FFF7FEFF 		bl	lv_mem_realloc
 2385              	.LVL347:
 2386 0138 0646     		mov	r6, r0
 2387 013a 2860     		str	r0, [r5]
 120:..\lvgl\lv_objx/lv_label.c ****             if(ext->text == NULL) return NULL;
 2388              		.loc 1 120 0
 2389 013c 30B9     		cbnz	r0, .L172
 120:..\lvgl\lv_objx/lv_label.c ****             if(ext->text == NULL) return NULL;
 2390              		.loc 1 120 0 is_stmt 0 discriminator 1
 2391 013e 1D4B     		ldr	r3, .L178+8
 2392 0140 7822     		movs	r2, #120
 2393 0142 1B49     		ldr	r1, .L178+4
 2394 0144 0320     		movs	r0, #3
 2395 0146 FFF7FEFF 		bl	lv_log_add
 2396              	.LVL348:
 2397              	.L173:
 2398 014a FEE7     		b	.L173
 2399              	.L172:
 121:..\lvgl\lv_objx/lv_label.c ****             memcpy(ext->text, copy_ext->text, lv_mem_get_size(copy_ext->text));
 2400              		.loc 1 121 0 is_stmt 1
 2401 014c 50B3     		cbz	r0, .L176
 122:..\lvgl\lv_objx/lv_label.c ****         }
 2402              		.loc 1 122 0
 2403 014e D7F80080 		ldr	r8, [r7]
 2404 0152 4046     		mov	r0, r8
 2405 0154 FFF7FEFF 		bl	lv_mem_get_size
 2406              	.LVL349:
 2407 0158 0246     		mov	r2, r0
 2408 015a 4146     		mov	r1, r8
 2409 015c 3046     		mov	r0, r6
 2410 015e FFF7FEFF 		bl	memcpy
 2411              	.LVL350:
 2412              	.L171:
 125:..\lvgl\lv_objx/lv_label.c ****         ext->dot_end = copy_ext->dot_end;
 2413              		.loc 1 125 0
 2414 0162 3B46     		mov	r3, r7
 2415 0164 53F8056F 		ldr	r6, [r3, #5]!	@ unaligned
 2416 0168 5868     		ldr	r0, [r3, #4]	@ unaligned
 2417 016a 9968     		ldr	r1, [r3, #8]	@ unaligned
 2418 016c C5F80560 		str	r6, [r5, #5]	@ unaligned
 2419 0170 C5F80900 		str	r0, [r5, #9]	@ unaligned
 2420 0174 C5F80D10 		str	r1, [r5, #13]	@ unaligned
 2421 0178 1B7B     		ldrb	r3, [r3, #12]	@ zero_extendqisi2
 2422 017a 6B74     		strb	r3, [r5, #17]
 126:..\lvgl\lv_objx/lv_label.c **** 
 2423              		.loc 1 126 0
 2424 017c 7B8A     		ldrh	r3, [r7, #18]
 2425 017e 6B82     		strh	r3, [r5, #18]	@ movhi
 129:..\lvgl\lv_objx/lv_label.c ****     }
 2426              		.loc 1 129 0
 2427 0180 2046     		mov	r0, r4
 2428 0182 FFF7FEFF 		bl	lv_obj_refresh_style
 2429              	.LVL351:
 2430              	.L168:
ARM GAS  C:\Users\d3bug\AppData\Local\Temp\cct3SNM7.s 			page 75


 2431              	.LBE56:
 133:..\lvgl\lv_objx/lv_label.c **** 
 2432              		.loc 1 133 0
 2433 0186 104B     		ldr	r3, .L178+28
 2434 0188 8522     		movs	r2, #133
 2435 018a 0949     		ldr	r1, .L178+4
 2436 018c 0120     		movs	r0, #1
 2437 018e FFF7FEFF 		bl	lv_log_add
 2438              	.LVL352:
 135:..\lvgl\lv_objx/lv_label.c **** }
 2439              		.loc 1 135 0
 2440 0192 2046     		mov	r0, r4
 2441 0194 BDE8F081 		pop	{r4, r5, r6, r7, r8, pc}
 2442              	.LVL353:
 2443              	.L174:
  73:..\lvgl\lv_objx/lv_label.c **** 
 2444              		.loc 1 73 0
 2445 0198 0020     		movs	r0, #0
 2446              	.LVL354:
 2447 019a BDE8F081 		pop	{r4, r5, r6, r7, r8, pc}
 2448              	.LVL355:
 2449              	.L175:
  82:..\lvgl\lv_objx/lv_label.c **** 
 2450              		.loc 1 82 0
 2451 019e 0020     		movs	r0, #0
 2452              	.LVL356:
 2453 01a0 BDE8F081 		pop	{r4, r5, r6, r7, r8, pc}
 2454              	.LVL357:
 2455              	.L176:
 2456              	.LBB57:
 121:..\lvgl\lv_objx/lv_label.c ****             memcpy(ext->text, copy_ext->text, lv_mem_get_size(copy_ext->text));
 2457              		.loc 1 121 0
 2458 01a4 0020     		movs	r0, #0
 2459              	.LBE57:
 136:..\lvgl\lv_objx/lv_label.c **** 
 2460              		.loc 1 136 0
 2461 01a6 BDE8F081 		pop	{r4, r5, r6, r7, r8, pc}
 2462              	.LVL358:
 2463              	.L179:
 2464 01aa 00BF     		.align	2
 2465              	.L178:
 2466 01ac 38000000 		.word	.LC3
 2467 01b0 1C000000 		.word	.LC2
 2468 01b4 0C000000 		.word	.LC1
 2469 01b8 00000000 		.word	.LANCHOR0
 2470 01bc 00000000 		.word	lv_label_design
 2471 01c0 00000000 		.word	lv_label_signal
 2472 01c4 50000000 		.word	.LC4
 2473 01c8 58000000 		.word	.LC5
 2474              		.cfi_endproc
 2475              	.LFE14:
 2476              		.size	lv_label_create, .-lv_label_create
 2477              		.section	.text.lv_label_set_anim_speed,"ax",%progbits
 2478              		.align	2
 2479              		.global	lv_label_set_anim_speed
 2480              		.thumb
 2481              		.thumb_func
ARM GAS  C:\Users\d3bug\AppData\Local\Temp\cct3SNM7.s 			page 76


 2482              		.type	lv_label_set_anim_speed, %function
 2483              	lv_label_set_anim_speed:
 2484              	.LFB22:
 341:..\lvgl\lv_objx/lv_label.c ****     lv_label_ext_t * ext = lv_obj_get_ext_attr(label);
 2485              		.loc 1 341 0
 2486              		.cfi_startproc
 2487              		@ args = 0, pretend = 0, frame = 0
 2488              		@ frame_needed = 0, uses_anonymous_args = 0
 2489              	.LVL359:
 2490 0000 38B5     		push	{r3, r4, r5, lr}
 2491              		.cfi_def_cfa_offset 16
 2492              		.cfi_offset 3, -16
 2493              		.cfi_offset 4, -12
 2494              		.cfi_offset 5, -8
 2495              		.cfi_offset 14, -4
 2496 0002 0546     		mov	r5, r0
 2497 0004 0C46     		mov	r4, r1
 342:..\lvgl\lv_objx/lv_label.c ****     if(ext->anim_speed == anim_speed) return;
 2498              		.loc 1 342 0
 2499 0006 FFF7FEFF 		bl	lv_obj_get_ext_attr
 2500              	.LVL360:
 343:..\lvgl\lv_objx/lv_label.c **** 
 2501              		.loc 1 343 0
 2502 000a 838A     		ldrh	r3, [r0, #20]
 2503 000c A342     		cmp	r3, r4
 2504 000e 08D0     		beq	.L180
 345:..\lvgl\lv_objx/lv_label.c **** 
 2505              		.loc 1 345 0
 2506 0010 8482     		strh	r4, [r0, #20]	@ movhi
 347:..\lvgl\lv_objx/lv_label.c ****         lv_label_refr_text(label);
 2507              		.loc 1 347 0
 2508 0012 0379     		ldrb	r3, [r0, #4]	@ zero_extendqisi2
 2509 0014 042B     		cmp	r3, #4
 2510 0016 01D0     		beq	.L182
 347:..\lvgl\lv_objx/lv_label.c ****         lv_label_refr_text(label);
 2511              		.loc 1 347 0 is_stmt 0 discriminator 1
 2512 0018 022B     		cmp	r3, #2
 2513 001a 02D1     		bne	.L180
 2514              	.L182:
 348:..\lvgl\lv_objx/lv_label.c ****     }
 2515              		.loc 1 348 0 is_stmt 1
 2516 001c 2846     		mov	r0, r5
 2517              	.LVL361:
 2518 001e FFF7FEFF 		bl	lv_label_refr_text
 2519              	.LVL362:
 2520              	.L180:
 2521 0022 38BD     		pop	{r3, r4, r5, pc}
 2522              		.cfi_endproc
 2523              	.LFE22:
 2524              		.size	lv_label_set_anim_speed, .-lv_label_set_anim_speed
 2525              		.section	.text.lv_label_ins_text,"ax",%progbits
 2526              		.align	2
 2527              		.global	lv_label_ins_text
 2528              		.thumb
 2529              		.thumb_func
 2530              		.type	lv_label_ins_text, %function
 2531              	lv_label_ins_text:
ARM GAS  C:\Users\d3bug\AppData\Local\Temp\cct3SNM7.s 			page 77


 2532              	.LFB31:
 593:..\lvgl\lv_objx/lv_label.c ****     lv_label_ext_t * ext = lv_obj_get_ext_attr(label);
 2533              		.loc 1 593 0
 2534              		.cfi_startproc
 2535              		@ args = 0, pretend = 0, frame = 0
 2536              		@ frame_needed = 0, uses_anonymous_args = 0
 2537              	.LVL363:
 2538 0000 2DE9F843 		push	{r3, r4, r5, r6, r7, r8, r9, lr}
 2539              		.cfi_def_cfa_offset 32
 2540              		.cfi_offset 3, -32
 2541              		.cfi_offset 4, -28
 2542              		.cfi_offset 5, -24
 2543              		.cfi_offset 6, -20
 2544              		.cfi_offset 7, -16
 2545              		.cfi_offset 8, -12
 2546              		.cfi_offset 9, -8
 2547              		.cfi_offset 14, -4
 2548 0004 0646     		mov	r6, r0
 2549 0006 0D46     		mov	r5, r1
 2550 0008 1746     		mov	r7, r2
 594:..\lvgl\lv_objx/lv_label.c **** 
 2551              		.loc 1 594 0
 2552 000a FFF7FEFF 		bl	lv_obj_get_ext_attr
 2553              	.LVL364:
 597:..\lvgl\lv_objx/lv_label.c **** 
 2554              		.loc 1 597 0
 2555 000e 837E     		ldrb	r3, [r0, #26]	@ zero_extendqisi2
 2556 0010 13F0010F 		tst	r3, #1
 2557 0014 2DD1     		bne	.L184
 2558 0016 0446     		mov	r4, r0
 599:..\lvgl\lv_objx/lv_label.c **** 
 2559              		.loc 1 599 0
 2560 0018 3046     		mov	r0, r6
 2561              	.LVL365:
 2562 001a FFF7FEFF 		bl	lv_obj_invalidate
 2563              	.LVL366:
 602:..\lvgl\lv_objx/lv_label.c ****     uint32_t ins_len = strlen(txt);
 2564              		.loc 1 602 0
 2565 001e D4F80090 		ldr	r9, [r4]
 2566 0022 4846     		mov	r0, r9
 2567 0024 FFF7FEFF 		bl	strlen
 2568              	.LVL367:
 2569 0028 8046     		mov	r8, r0
 2570              	.LVL368:
 603:..\lvgl\lv_objx/lv_label.c ****     uint32_t new_len = ins_len + old_len;
 2571              		.loc 1 603 0
 2572 002a 3846     		mov	r0, r7
 2573              	.LVL369:
 2574 002c FFF7FEFF 		bl	strlen
 2575              	.LVL370:
 604:..\lvgl\lv_objx/lv_label.c ****     ext->text = lv_mem_realloc(ext->text, new_len + 1);
 2576              		.loc 1 604 0
 2577 0030 08EB0001 		add	r1, r8, r0
 2578              	.LVL371:
 605:..\lvgl\lv_objx/lv_label.c ****     lv_mem_assert(ext->text);
 2579              		.loc 1 605 0
 2580 0034 0131     		adds	r1, r1, #1
ARM GAS  C:\Users\d3bug\AppData\Local\Temp\cct3SNM7.s 			page 78


 2581              	.LVL372:
 2582 0036 4846     		mov	r0, r9
 2583              	.LVL373:
 2584 0038 FFF7FEFF 		bl	lv_mem_realloc
 2585              	.LVL374:
 2586 003c 2060     		str	r0, [r4]
 606:..\lvgl\lv_objx/lv_label.c ****     if(ext->text == NULL) return;
 2587              		.loc 1 606 0
 2588 003e 38B9     		cbnz	r0, .L186
 606:..\lvgl\lv_objx/lv_label.c ****     if(ext->text == NULL) return;
 2589              		.loc 1 606 0 is_stmt 0 discriminator 1
 2590 0040 0D4B     		ldr	r3, .L190
 2591 0042 40F25E22 		movw	r2, #606
 2592 0046 0D49     		ldr	r1, .L190+4
 2593 0048 0320     		movs	r0, #3
 2594 004a FFF7FEFF 		bl	lv_log_add
 2595              	.LVL375:
 2596              	.L187:
 2597 004e FEE7     		b	.L187
 2598              	.L186:
 607:..\lvgl\lv_objx/lv_label.c **** 
 2599              		.loc 1 607 0 is_stmt 1
 2600 0050 78B1     		cbz	r0, .L184
 609:..\lvgl\lv_objx/lv_label.c **** #if LV_TXT_UTF8 == 0
 2601              		.loc 1 609 0
 2602 0052 4FF6FF73 		movw	r3, #65535
 2603 0056 9D42     		cmp	r5, r3
 2604 0058 03D1     		bne	.L188
 613:..\lvgl\lv_objx/lv_label.c **** #endif
 2605              		.loc 1 613 0
 2606 005a 094B     		ldr	r3, .L190+8
 2607 005c 1B68     		ldr	r3, [r3]
 2608 005e 9847     		blx	r3
 2609              	.LVL376:
 2610 0060 0546     		mov	r5, r0
 2611              	.LVL377:
 2612              	.L188:
 617:..\lvgl\lv_objx/lv_label.c **** 
 2613              		.loc 1 617 0
 2614 0062 3A46     		mov	r2, r7
 2615 0064 2946     		mov	r1, r5
 2616 0066 2068     		ldr	r0, [r4]
 2617 0068 FFF7FEFF 		bl	lv_txt_ins
 2618              	.LVL378:
 619:..\lvgl\lv_objx/lv_label.c **** }
 2619              		.loc 1 619 0
 2620 006c 3046     		mov	r0, r6
 2621 006e FFF7FEFF 		bl	lv_label_refr_text
 2622              	.LVL379:
 2623              	.L184:
 2624 0072 BDE8F883 		pop	{r3, r4, r5, r6, r7, r8, r9, pc}
 2625              	.LVL380:
 2626              	.L191:
 2627 0076 00BF     		.align	2
 2628              	.L190:
 2629 0078 0C000000 		.word	.LC1
 2630 007c 1C000000 		.word	.LC2
ARM GAS  C:\Users\d3bug\AppData\Local\Temp\cct3SNM7.s 			page 79


 2631 0080 00000000 		.word	lv_txt_get_encoded_length
 2632              		.cfi_endproc
 2633              	.LFE31:
 2634              		.size	lv_label_ins_text, .-lv_label_ins_text
 2635              		.section	.text.lv_label_cut_text,"ax",%progbits
 2636              		.align	2
 2637              		.global	lv_label_cut_text
 2638              		.thumb
 2639              		.thumb_func
 2640              		.type	lv_label_cut_text, %function
 2641              	lv_label_cut_text:
 2642              	.LFB32:
 630:..\lvgl\lv_objx/lv_label.c ****     lv_label_ext_t * ext = lv_obj_get_ext_attr(label);
 2643              		.loc 1 630 0
 2644              		.cfi_startproc
 2645              		@ args = 0, pretend = 0, frame = 0
 2646              		@ frame_needed = 0, uses_anonymous_args = 0
 2647              	.LVL381:
 2648 0000 70B5     		push	{r4, r5, r6, lr}
 2649              		.cfi_def_cfa_offset 16
 2650              		.cfi_offset 4, -16
 2651              		.cfi_offset 5, -12
 2652              		.cfi_offset 6, -8
 2653              		.cfi_offset 14, -4
 2654 0002 0446     		mov	r4, r0
 2655 0004 0D46     		mov	r5, r1
 2656 0006 1646     		mov	r6, r2
 631:..\lvgl\lv_objx/lv_label.c **** 
 2657              		.loc 1 631 0
 2658 0008 FFF7FEFF 		bl	lv_obj_get_ext_attr
 2659              	.LVL382:
 634:..\lvgl\lv_objx/lv_label.c **** 
 2660              		.loc 1 634 0
 2661 000c 837E     		ldrb	r3, [r0, #26]	@ zero_extendqisi2
 2662 000e 13F0010F 		tst	r3, #1
 2663 0012 0CD1     		bne	.L192
 636:..\lvgl\lv_objx/lv_label.c **** 
 2664              		.loc 1 636 0
 2665 0014 2046     		mov	r0, r4
 2666              	.LVL383:
 2667 0016 FFF7FEFF 		bl	lv_obj_invalidate
 2668              	.LVL384:
 638:..\lvgl\lv_objx/lv_label.c ****     /*Delete the characters*/
 2669              		.loc 1 638 0
 2670 001a 2046     		mov	r0, r4
 2671 001c FFF7FEFF 		bl	lv_label_get_text
 2672              	.LVL385:
 640:..\lvgl\lv_objx/lv_label.c **** 
 2673              		.loc 1 640 0
 2674 0020 3246     		mov	r2, r6
 2675 0022 2946     		mov	r1, r5
 2676 0024 FFF7FEFF 		bl	lv_txt_cut
 2677              	.LVL386:
 643:..\lvgl\lv_objx/lv_label.c **** }
 2678              		.loc 1 643 0
 2679 0028 2046     		mov	r0, r4
 2680 002a FFF7FEFF 		bl	lv_label_refr_text
ARM GAS  C:\Users\d3bug\AppData\Local\Temp\cct3SNM7.s 			page 80


 2681              	.LVL387:
 2682              	.L192:
 2683 002e 70BD     		pop	{r4, r5, r6, pc}
 2684              		.cfi_endproc
 2685              	.LFE32:
 2686              		.size	lv_label_cut_text, .-lv_label_cut_text
 2687              		.section	.rodata.str1.4,"aMS",%progbits,1
 2688              		.align	2
 2689              	.LC0:
 2690 0000 6C765F6C 		.ascii	"lv_label\000"
 2690      6162656C 
 2690      00
 2691 0009 000000   		.space	3
 2692              	.LC1:
 2693 000c 4F757420 		.ascii	"Out of memory!\000"
 2693      6F66206D 
 2693      656D6F72 
 2693      792100
 2694 001b 00       		.space	1
 2695              	.LC2:
 2696 001c 2E2E5C6C 		.ascii	"..\\lvgl\\lv_objx\\lv_label.c\000"
 2696      76676C5C 
 2696      6C765F6F 
 2696      626A785C 
 2696      6C765F6C 
 2697 0037 00       		.space	1
 2698              	.LC3:
 2699 0038 6C616265 		.ascii	"label create started\000"
 2699      6C206372 
 2699      65617465 
 2699      20737461 
 2699      72746564 
 2700 004d 000000   		.space	3
 2701              	.LC4:
 2702 0050 54657874 		.ascii	"Text\000"
 2702      00
 2703 0055 000000   		.space	3
 2704              	.LC5:
 2705 0058 6C616265 		.ascii	"label created\000"
 2705      6C206372 
 2705      65617465 
 2705      6400
 2706              		.bss
 2707              		.align	2
 2708              		.set	.LANCHOR0,. + 0
 2709              		.type	ancestor_signal, %object
 2710              		.size	ancestor_signal, 4
 2711              	ancestor_signal:
 2712 0000 00000000 		.space	4
 2713              		.text
 2714              	.Letext0:
 2715              		.file 5 "c:\\program files (x86)\\cypress\\psoc creator\\4.2\\psoc creator\\import\\gnu\\arm\\5.4.
 2716              		.file 6 "c:\\program files (x86)\\cypress\\psoc creator\\4.2\\psoc creator\\import\\gnu\\arm\\5.4.
 2717              		.file 7 "..\\lvgl\\lv_objx\\../lv_core/../lv_misc/lv_color.h"
 2718              		.file 8 "..\\lvgl\\lv_objx\\../lv_core/lv_style.h"
 2719              		.file 9 "..\\lvgl\\lv_objx\\../lv_core/../lv_misc/lv_ll.h"
 2720              		.file 10 "..\\lvgl\\lv_objx\\../lv_core/lv_obj.h"
ARM GAS  C:\Users\d3bug\AppData\Local\Temp\cct3SNM7.s 			page 81


 2721              		.file 11 "..\\lvgl\\lv_objx\\../lv_misc/lv_txt.h"
 2722              		.file 12 "..\\lvgl\\lv_objx\\../lv_draw/lv_draw_rect.h"
 2723              		.file 13 "..\\lvgl\\lv_objx\\../lv_draw/lv_draw_label.h"
 2724              		.file 14 "..\\lvgl\\lv_objx\\../lv_core/../lv_misc/lv_mem.h"
 2725              		.file 15 "c:\\program files (x86)\\cypress\\psoc creator\\4.2\\psoc creator\\import\\gnu\\arm\\5.4
 2726              		.file 16 "..\\lvgl\\lv_objx\\../lv_core/../lv_misc/lv_log.h"
 2727              		.section	.debug_info,"",%progbits
 2728              	.Ldebug_info0:
 2729 0000 E8240000 		.4byte	0x24e8
 2730 0004 0400     		.2byte	0x4
 2731 0006 00000000 		.4byte	.Ldebug_abbrev0
 2732 000a 04       		.byte	0x4
 2733 000b 01       		.uleb128 0x1
 2734 000c 3F040000 		.4byte	.LASF266
 2735 0010 0C       		.byte	0xc
 2736 0011 66090000 		.4byte	.LASF267
 2737 0015 56060000 		.4byte	.LASF268
 2738 0019 30000000 		.4byte	.Ldebug_ranges0+0x30
 2739 001d 00000000 		.4byte	0
 2740 0021 00000000 		.4byte	.Ldebug_line0
 2741 0025 02       		.uleb128 0x2
 2742 0026 04       		.byte	0x4
 2743 0027 05       		.byte	0x5
 2744 0028 696E7400 		.ascii	"int\000"
 2745 002c 03       		.uleb128 0x3
 2746 002d 04       		.byte	0x4
 2747 002e 07       		.byte	0x7
 2748 002f 0A010000 		.4byte	.LASF0
 2749 0033 03       		.uleb128 0x3
 2750 0034 08       		.byte	0x8
 2751 0035 05       		.byte	0x5
 2752 0036 A4070000 		.4byte	.LASF1
 2753 003a 03       		.uleb128 0x3
 2754 003b 08       		.byte	0x8
 2755 003c 04       		.byte	0x4
 2756 003d 41090000 		.4byte	.LASF2
 2757 0041 03       		.uleb128 0x3
 2758 0042 01       		.byte	0x1
 2759 0043 06       		.byte	0x6
 2760 0044 830D0000 		.4byte	.LASF3
 2761 0048 04       		.uleb128 0x4
 2762 0049 790B0000 		.4byte	.LASF5
 2763 004d 05       		.byte	0x5
 2764 004e 1D       		.byte	0x1d
 2765 004f 53000000 		.4byte	0x53
 2766 0053 03       		.uleb128 0x3
 2767 0054 01       		.byte	0x1
 2768 0055 08       		.byte	0x8
 2769 0056 480C0000 		.4byte	.LASF4
 2770 005a 04       		.uleb128 0x4
 2771 005b 3D080000 		.4byte	.LASF6
 2772 005f 05       		.byte	0x5
 2773 0060 29       		.byte	0x29
 2774 0061 65000000 		.4byte	0x65
 2775 0065 03       		.uleb128 0x3
 2776 0066 02       		.byte	0x2
 2777 0067 05       		.byte	0x5
ARM GAS  C:\Users\d3bug\AppData\Local\Temp\cct3SNM7.s 			page 82


 2778 0068 570A0000 		.4byte	.LASF7
 2779 006c 04       		.uleb128 0x4
 2780 006d E2030000 		.4byte	.LASF8
 2781 0071 05       		.byte	0x5
 2782 0072 2B       		.byte	0x2b
 2783 0073 77000000 		.4byte	0x77
 2784 0077 03       		.uleb128 0x3
 2785 0078 02       		.byte	0x2
 2786 0079 07       		.byte	0x7
 2787 007a B70D0000 		.4byte	.LASF9
 2788 007e 03       		.uleb128 0x3
 2789 007f 04       		.byte	0x4
 2790 0080 05       		.byte	0x5
 2791 0081 A30A0000 		.4byte	.LASF10
 2792 0085 04       		.uleb128 0x4
 2793 0086 6A0C0000 		.4byte	.LASF11
 2794 008a 05       		.byte	0x5
 2795 008b 41       		.byte	0x41
 2796 008c 90000000 		.4byte	0x90
 2797 0090 03       		.uleb128 0x3
 2798 0091 04       		.byte	0x4
 2799 0092 07       		.byte	0x7
 2800 0093 A20B0000 		.4byte	.LASF12
 2801 0097 03       		.uleb128 0x3
 2802 0098 08       		.byte	0x8
 2803 0099 07       		.byte	0x7
 2804 009a 57030000 		.4byte	.LASF13
 2805 009e 04       		.uleb128 0x4
 2806 009f 01070000 		.4byte	.LASF14
 2807 00a3 06       		.byte	0x6
 2808 00a4 18       		.byte	0x18
 2809 00a5 48000000 		.4byte	0x48
 2810 00a9 04       		.uleb128 0x4
 2811 00aa 45030000 		.4byte	.LASF15
 2812 00ae 06       		.byte	0x6
 2813 00af 20       		.byte	0x20
 2814 00b0 5A000000 		.4byte	0x5a
 2815 00b4 04       		.uleb128 0x4
 2816 00b5 5D090000 		.4byte	.LASF16
 2817 00b9 06       		.byte	0x6
 2818 00ba 24       		.byte	0x24
 2819 00bb 6C000000 		.4byte	0x6c
 2820 00bf 04       		.uleb128 0x4
 2821 00c0 CF020000 		.4byte	.LASF17
 2822 00c4 06       		.byte	0x6
 2823 00c5 30       		.byte	0x30
 2824 00c6 85000000 		.4byte	0x85
 2825 00ca 05       		.uleb128 0x5
 2826 00cb 01       		.byte	0x1
 2827 00cc 07       		.byte	0x7
 2828 00cd 5F       		.byte	0x5f
 2829 00ce 0B010000 		.4byte	0x10b
 2830 00d2 06       		.uleb128 0x6
 2831 00d3 1C0B0000 		.4byte	.LASF18
 2832 00d7 07       		.byte	0x7
 2833 00d8 61       		.byte	0x61
 2834 00d9 9E000000 		.4byte	0x9e
ARM GAS  C:\Users\d3bug\AppData\Local\Temp\cct3SNM7.s 			page 83


 2835 00dd 01       		.byte	0x1
 2836 00de 01       		.byte	0x1
 2837 00df 07       		.byte	0x7
 2838 00e0 06       		.uleb128 0x6
 2839 00e1 3B090000 		.4byte	.LASF19
 2840 00e5 07       		.byte	0x7
 2841 00e6 62       		.byte	0x62
 2842 00e7 9E000000 		.4byte	0x9e
 2843 00eb 01       		.byte	0x1
 2844 00ec 01       		.byte	0x1
 2845 00ed 07       		.byte	0x7
 2846 00ee 07       		.uleb128 0x7
 2847 00ef 72656400 		.ascii	"red\000"
 2848 00f3 07       		.byte	0x7
 2849 00f4 63       		.byte	0x63
 2850 00f5 9E000000 		.4byte	0x9e
 2851 00f9 01       		.byte	0x1
 2852 00fa 01       		.byte	0x1
 2853 00fb 07       		.byte	0x7
 2854 00fc 06       		.uleb128 0x6
 2855 00fd 49000000 		.4byte	.LASF20
 2856 0101 07       		.byte	0x7
 2857 0102 64       		.byte	0x64
 2858 0103 9E000000 		.4byte	0x9e
 2859 0107 01       		.byte	0x1
 2860 0108 01       		.byte	0x1
 2861 0109 07       		.byte	0x7
 2862 010a 00       		.byte	0
 2863 010b 04       		.uleb128 0x4
 2864 010c E2060000 		.4byte	.LASF21
 2865 0110 07       		.byte	0x7
 2866 0111 65       		.byte	0x65
 2867 0112 CA000000 		.4byte	0xca
 2868 0116 04       		.uleb128 0x4
 2869 0117 0E090000 		.4byte	.LASF22
 2870 011b 07       		.byte	0x7
 2871 011c 92       		.byte	0x92
 2872 011d 0B010000 		.4byte	0x10b
 2873 0121 04       		.uleb128 0x4
 2874 0122 9A0A0000 		.4byte	.LASF23
 2875 0126 07       		.byte	0x7
 2876 0127 A0       		.byte	0xa0
 2877 0128 9E000000 		.4byte	0x9e
 2878 012c 03       		.uleb128 0x3
 2879 012d 04       		.byte	0x4
 2880 012e 07       		.byte	0x7
 2881 012f 990B0000 		.4byte	.LASF24
 2882 0133 08       		.uleb128 0x8
 2883 0134 04       		.byte	0x4
 2884 0135 09       		.uleb128 0x9
 2885 0136 04       		.byte	0x4
 2886 0137 3B010000 		.4byte	0x13b
 2887 013b 03       		.uleb128 0x3
 2888 013c 01       		.byte	0x1
 2889 013d 08       		.byte	0x8
 2890 013e 40060000 		.4byte	.LASF25
 2891 0142 09       		.uleb128 0x9
ARM GAS  C:\Users\d3bug\AppData\Local\Temp\cct3SNM7.s 			page 84


 2892 0143 04       		.byte	0x4
 2893 0144 48010000 		.4byte	0x148
 2894 0148 0A       		.uleb128 0xa
 2895 0149 3B010000 		.4byte	0x13b
 2896 014d 04       		.uleb128 0x4
 2897 014e 470B0000 		.4byte	.LASF26
 2898 0152 03       		.byte	0x3
 2899 0153 1E       		.byte	0x1e
 2900 0154 A9000000 		.4byte	0xa9
 2901 0158 0B       		.uleb128 0xb
 2902 0159 04       		.byte	0x4
 2903 015a 03       		.byte	0x3
 2904 015b 20       		.byte	0x20
 2905 015c 75010000 		.4byte	0x175
 2906 0160 0C       		.uleb128 0xc
 2907 0161 7800     		.ascii	"x\000"
 2908 0163 03       		.byte	0x3
 2909 0164 22       		.byte	0x22
 2910 0165 4D010000 		.4byte	0x14d
 2911 0169 00       		.byte	0
 2912 016a 0C       		.uleb128 0xc
 2913 016b 7900     		.ascii	"y\000"
 2914 016d 03       		.byte	0x3
 2915 016e 23       		.byte	0x23
 2916 016f 4D010000 		.4byte	0x14d
 2917 0173 02       		.byte	0x2
 2918 0174 00       		.byte	0
 2919 0175 04       		.uleb128 0x4
 2920 0176 49010000 		.4byte	.LASF27
 2921 017a 03       		.byte	0x3
 2922 017b 24       		.byte	0x24
 2923 017c 58010000 		.4byte	0x158
 2924 0180 0B       		.uleb128 0xb
 2925 0181 08       		.byte	0x8
 2926 0182 03       		.byte	0x3
 2927 0183 26       		.byte	0x26
 2928 0184 B5010000 		.4byte	0x1b5
 2929 0188 0C       		.uleb128 0xc
 2930 0189 783100   		.ascii	"x1\000"
 2931 018c 03       		.byte	0x3
 2932 018d 28       		.byte	0x28
 2933 018e 4D010000 		.4byte	0x14d
 2934 0192 00       		.byte	0
 2935 0193 0C       		.uleb128 0xc
 2936 0194 793100   		.ascii	"y1\000"
 2937 0197 03       		.byte	0x3
 2938 0198 29       		.byte	0x29
 2939 0199 4D010000 		.4byte	0x14d
 2940 019d 02       		.byte	0x2
 2941 019e 0C       		.uleb128 0xc
 2942 019f 783200   		.ascii	"x2\000"
 2943 01a2 03       		.byte	0x3
 2944 01a3 2A       		.byte	0x2a
 2945 01a4 4D010000 		.4byte	0x14d
 2946 01a8 04       		.byte	0x4
 2947 01a9 0C       		.uleb128 0xc
 2948 01aa 793200   		.ascii	"y2\000"
ARM GAS  C:\Users\d3bug\AppData\Local\Temp\cct3SNM7.s 			page 85


 2949 01ad 03       		.byte	0x3
 2950 01ae 2B       		.byte	0x2b
 2951 01af 4D010000 		.4byte	0x14d
 2952 01b3 06       		.byte	0x6
 2953 01b4 00       		.byte	0
 2954 01b5 04       		.uleb128 0x4
 2955 01b6 6D0D0000 		.4byte	.LASF28
 2956 01ba 03       		.byte	0x3
 2957 01bb 2C       		.byte	0x2c
 2958 01bc 80010000 		.4byte	0x180
 2959 01c0 0B       		.uleb128 0xb
 2960 01c1 04       		.byte	0x4
 2961 01c2 02       		.byte	0x2
 2962 01c3 25       		.byte	0x25
 2963 01c4 E7010000 		.4byte	0x1e7
 2964 01c8 0D       		.uleb128 0xd
 2965 01c9 D3030000 		.4byte	.LASF29
 2966 01cd 02       		.byte	0x2
 2967 01ce 27       		.byte	0x27
 2968 01cf BF000000 		.4byte	0xbf
 2969 01d3 04       		.byte	0x4
 2970 01d4 08       		.byte	0x8
 2971 01d5 18       		.byte	0x18
 2972 01d6 00       		.byte	0
 2973 01d7 0D       		.uleb128 0xd
 2974 01d8 DA0B0000 		.4byte	.LASF30
 2975 01dc 02       		.byte	0x2
 2976 01dd 28       		.byte	0x28
 2977 01de BF000000 		.4byte	0xbf
 2978 01e2 04       		.byte	0x4
 2979 01e3 18       		.byte	0x18
 2980 01e4 00       		.byte	0
 2981 01e5 00       		.byte	0
 2982 01e6 00       		.byte	0
 2983 01e7 04       		.uleb128 0x4
 2984 01e8 CE060000 		.4byte	.LASF31
 2985 01ec 02       		.byte	0x2
 2986 01ed 29       		.byte	0x29
 2987 01ee C0010000 		.4byte	0x1c0
 2988 01f2 0E       		.uleb128 0xe
 2989 01f3 69050000 		.4byte	.LASF80
 2990 01f7 28       		.byte	0x28
 2991 01f8 02       		.byte	0x2
 2992 01f9 31       		.byte	0x31
 2993 01fa 98020000 		.4byte	0x298
 2994 01fe 0F       		.uleb128 0xf
 2995 01ff 830E0000 		.4byte	.LASF32
 2996 0203 02       		.byte	0x2
 2997 0204 33       		.byte	0x33
 2998 0205 BF000000 		.4byte	0xbf
 2999 0209 00       		.byte	0
 3000 020a 0F       		.uleb128 0xf
 3001 020b A20E0000 		.4byte	.LASF33
 3002 020f 02       		.byte	0x2
 3003 0210 34       		.byte	0x34
 3004 0211 BF000000 		.4byte	0xbf
 3005 0215 04       		.byte	0x4
ARM GAS  C:\Users\d3bug\AppData\Local\Temp\cct3SNM7.s 			page 86


 3006 0216 0F       		.uleb128 0xf
 3007 0217 8E080000 		.4byte	.LASF34
 3008 021b 02       		.byte	0x2
 3009 021c 35       		.byte	0x35
 3010 021d 98020000 		.4byte	0x298
 3011 0221 08       		.byte	0x8
 3012 0222 0F       		.uleb128 0xf
 3013 0223 560E0000 		.4byte	.LASF35
 3014 0227 02       		.byte	0x2
 3015 0228 36       		.byte	0x36
 3016 0229 A3020000 		.4byte	0x2a3
 3017 022d 0C       		.byte	0xc
 3018 022e 0F       		.uleb128 0xf
 3019 022f E3010000 		.4byte	.LASF36
 3020 0233 02       		.byte	0x2
 3021 0234 37       		.byte	0x37
 3022 0235 AE020000 		.4byte	0x2ae
 3023 0239 10       		.byte	0x10
 3024 023a 0F       		.uleb128 0xf
 3025 023b 39010000 		.4byte	.LASF37
 3026 023f 02       		.byte	0x2
 3027 0240 38       		.byte	0x38
 3028 0241 D8020000 		.4byte	0x2d8
 3029 0245 14       		.byte	0x14
 3030 0246 0F       		.uleb128 0xf
 3031 0247 1C0D0000 		.4byte	.LASF38
 3032 024b 02       		.byte	0x2
 3033 024c 39       		.byte	0x39
 3034 024d F2020000 		.4byte	0x2f2
 3035 0251 18       		.byte	0x18
 3036 0252 0F       		.uleb128 0xf
 3037 0253 12040000 		.4byte	.LASF39
 3038 0257 02       		.byte	0x2
 3039 0258 3A       		.byte	0x3a
 3040 0259 F8020000 		.4byte	0x2f8
 3041 025d 1C       		.byte	0x1c
 3042 025e 0D       		.uleb128 0xd
 3043 025f 120B0000 		.4byte	.LASF40
 3044 0263 02       		.byte	0x2
 3045 0264 3B       		.byte	0x3b
 3046 0265 BF000000 		.4byte	0xbf
 3047 0269 04       		.byte	0x4
 3048 026a 08       		.byte	0x8
 3049 026b 18       		.byte	0x18
 3050 026c 20       		.byte	0x20
 3051 026d 10       		.uleb128 0x10
 3052 026e 62707000 		.ascii	"bpp\000"
 3053 0272 02       		.byte	0x2
 3054 0273 3C       		.byte	0x3c
 3055 0274 BF000000 		.4byte	0xbf
 3056 0278 04       		.byte	0x4
 3057 0279 04       		.byte	0x4
 3058 027a 14       		.byte	0x14
 3059 027b 20       		.byte	0x20
 3060 027c 0D       		.uleb128 0xd
 3061 027d BA0B0000 		.4byte	.LASF41
 3062 0281 02       		.byte	0x2
ARM GAS  C:\Users\d3bug\AppData\Local\Temp\cct3SNM7.s 			page 87


 3063 0282 3D       		.byte	0x3d
 3064 0283 BF000000 		.4byte	0xbf
 3065 0287 04       		.byte	0x4
 3066 0288 08       		.byte	0x8
 3067 0289 0C       		.byte	0xc
 3068 028a 20       		.byte	0x20
 3069 028b 0F       		.uleb128 0xf
 3070 028c 4D030000 		.4byte	.LASF42
 3071 0290 02       		.byte	0x2
 3072 0291 3E       		.byte	0x3e
 3073 0292 B4000000 		.4byte	0xb4
 3074 0296 24       		.byte	0x24
 3075 0297 00       		.byte	0
 3076 0298 09       		.uleb128 0x9
 3077 0299 04       		.byte	0x4
 3078 029a 9E020000 		.4byte	0x29e
 3079 029e 0A       		.uleb128 0xa
 3080 029f 9E000000 		.4byte	0x9e
 3081 02a3 09       		.uleb128 0x9
 3082 02a4 04       		.byte	0x4
 3083 02a5 A9020000 		.4byte	0x2a9
 3084 02a9 0A       		.uleb128 0xa
 3085 02aa E7010000 		.4byte	0x1e7
 3086 02ae 09       		.uleb128 0x9
 3087 02af 04       		.byte	0x4
 3088 02b0 B4020000 		.4byte	0x2b4
 3089 02b4 0A       		.uleb128 0xa
 3090 02b5 BF000000 		.4byte	0xbf
 3091 02b9 11       		.uleb128 0x11
 3092 02ba 98020000 		.4byte	0x298
 3093 02be CD020000 		.4byte	0x2cd
 3094 02c2 12       		.uleb128 0x12
 3095 02c3 CD020000 		.4byte	0x2cd
 3096 02c7 12       		.uleb128 0x12
 3097 02c8 BF000000 		.4byte	0xbf
 3098 02cc 00       		.byte	0
 3099 02cd 09       		.uleb128 0x9
 3100 02ce 04       		.byte	0x4
 3101 02cf D3020000 		.4byte	0x2d3
 3102 02d3 0A       		.uleb128 0xa
 3103 02d4 F2010000 		.4byte	0x1f2
 3104 02d8 09       		.uleb128 0x9
 3105 02d9 04       		.byte	0x4
 3106 02da B9020000 		.4byte	0x2b9
 3107 02de 11       		.uleb128 0x11
 3108 02df A9000000 		.4byte	0xa9
 3109 02e3 F2020000 		.4byte	0x2f2
 3110 02e7 12       		.uleb128 0x12
 3111 02e8 CD020000 		.4byte	0x2cd
 3112 02ec 12       		.uleb128 0x12
 3113 02ed BF000000 		.4byte	0xbf
 3114 02f1 00       		.byte	0
 3115 02f2 09       		.uleb128 0x9
 3116 02f3 04       		.byte	0x4
 3117 02f4 DE020000 		.4byte	0x2de
 3118 02f8 09       		.uleb128 0x9
 3119 02f9 04       		.byte	0x4
ARM GAS  C:\Users\d3bug\AppData\Local\Temp\cct3SNM7.s 			page 88


 3120 02fa F2010000 		.4byte	0x1f2
 3121 02fe 04       		.uleb128 0x4
 3122 02ff FF090000 		.4byte	.LASF43
 3123 0303 02       		.byte	0x2
 3124 0304 3F       		.byte	0x3f
 3125 0305 F2010000 		.4byte	0x1f2
 3126 0309 04       		.uleb128 0x4
 3127 030a 910E0000 		.4byte	.LASF44
 3128 030e 08       		.byte	0x8
 3129 030f 2A       		.byte	0x2a
 3130 0310 9E000000 		.4byte	0x9e
 3131 0314 04       		.uleb128 0x4
 3132 0315 7F070000 		.4byte	.LASF45
 3133 0319 08       		.byte	0x8
 3134 031a 32       		.byte	0x32
 3135 031b 9E000000 		.4byte	0x9e
 3136 031f 0B       		.uleb128 0xb
 3137 0320 06       		.byte	0x6
 3138 0321 08       		.byte	0x8
 3139 0322 3E       		.byte	0x3e
 3140 0323 58030000 		.4byte	0x358
 3141 0327 0F       		.uleb128 0xf
 3142 0328 39040000 		.4byte	.LASF46
 3143 032c 08       		.byte	0x8
 3144 032d 3F       		.byte	0x3f
 3145 032e 16010000 		.4byte	0x116
 3146 0332 00       		.byte	0
 3147 0333 0F       		.uleb128 0xf
 3148 0334 1E050000 		.4byte	.LASF47
 3149 0338 08       		.byte	0x8
 3150 0339 40       		.byte	0x40
 3151 033a 4D010000 		.4byte	0x14d
 3152 033e 02       		.byte	0x2
 3153 033f 0F       		.uleb128 0xf
 3154 0340 AC030000 		.4byte	.LASF48
 3155 0344 08       		.byte	0x8
 3156 0345 41       		.byte	0x41
 3157 0346 09030000 		.4byte	0x309
 3158 034a 04       		.byte	0x4
 3159 034b 0C       		.uleb128 0xc
 3160 034c 6F706100 		.ascii	"opa\000"
 3161 0350 08       		.byte	0x8
 3162 0351 42       		.byte	0x42
 3163 0352 21010000 		.4byte	0x121
 3164 0356 05       		.byte	0x5
 3165 0357 00       		.byte	0
 3166 0358 0B       		.uleb128 0xb
 3167 0359 06       		.byte	0x6
 3168 035a 08       		.byte	0x8
 3169 035b 45       		.byte	0x45
 3170 035c 85030000 		.4byte	0x385
 3171 0360 0F       		.uleb128 0xf
 3172 0361 39040000 		.4byte	.LASF46
 3173 0365 08       		.byte	0x8
 3174 0366 46       		.byte	0x46
 3175 0367 16010000 		.4byte	0x116
 3176 036b 00       		.byte	0
ARM GAS  C:\Users\d3bug\AppData\Local\Temp\cct3SNM7.s 			page 89


 3177 036c 0F       		.uleb128 0xf
 3178 036d 1E050000 		.4byte	.LASF47
 3179 0371 08       		.byte	0x8
 3180 0372 47       		.byte	0x47
 3181 0373 4D010000 		.4byte	0x14d
 3182 0377 02       		.byte	0x2
 3183 0378 0F       		.uleb128 0xf
 3184 0379 3A0C0000 		.4byte	.LASF49
 3185 037d 08       		.byte	0x8
 3186 037e 48       		.byte	0x48
 3187 037f 14030000 		.4byte	0x314
 3188 0383 04       		.byte	0x4
 3189 0384 00       		.byte	0
 3190 0385 0B       		.uleb128 0xb
 3191 0386 06       		.byte	0x6
 3192 0387 08       		.byte	0x8
 3193 0388 4B       		.byte	0x4b
 3194 0389 B2030000 		.4byte	0x3b2
 3195 038d 0C       		.uleb128 0xc
 3196 038e 76657200 		.ascii	"ver\000"
 3197 0392 08       		.byte	0x8
 3198 0393 4C       		.byte	0x4c
 3199 0394 4D010000 		.4byte	0x14d
 3200 0398 00       		.byte	0
 3201 0399 0C       		.uleb128 0xc
 3202 039a 686F7200 		.ascii	"hor\000"
 3203 039e 08       		.byte	0x8
 3204 039f 4D       		.byte	0x4d
 3205 03a0 4D010000 		.4byte	0x14d
 3206 03a4 02       		.byte	0x2
 3207 03a5 0F       		.uleb128 0xf
 3208 03a6 87020000 		.4byte	.LASF50
 3209 03aa 08       		.byte	0x8
 3210 03ab 4E       		.byte	0x4e
 3211 03ac 4D010000 		.4byte	0x14d
 3212 03b0 04       		.byte	0x4
 3213 03b1 00       		.byte	0
 3214 03b2 0B       		.uleb128 0xb
 3215 03b3 1A       		.byte	0x1a
 3216 03b4 08       		.byte	0x8
 3217 03b5 38       		.byte	0x38
 3218 03b6 1E040000 		.4byte	0x41e
 3219 03ba 0F       		.uleb128 0xf
 3220 03bb 380A0000 		.4byte	.LASF51
 3221 03bf 08       		.byte	0x8
 3222 03c0 39       		.byte	0x39
 3223 03c1 16010000 		.4byte	0x116
 3224 03c5 00       		.byte	0
 3225 03c6 0F       		.uleb128 0xf
 3226 03c7 B0090000 		.4byte	.LASF52
 3227 03cb 08       		.byte	0x8
 3228 03cc 3A       		.byte	0x3a
 3229 03cd 16010000 		.4byte	0x116
 3230 03d1 01       		.byte	0x1
 3231 03d2 0F       		.uleb128 0xf
 3232 03d3 100C0000 		.4byte	.LASF53
 3233 03d7 08       		.byte	0x8
ARM GAS  C:\Users\d3bug\AppData\Local\Temp\cct3SNM7.s 			page 90


 3234 03d8 3B       		.byte	0x3b
 3235 03d9 4D010000 		.4byte	0x14d
 3236 03dd 02       		.byte	0x2
 3237 03de 0C       		.uleb128 0xc
 3238 03df 6F706100 		.ascii	"opa\000"
 3239 03e3 08       		.byte	0x8
 3240 03e4 3C       		.byte	0x3c
 3241 03e5 21010000 		.4byte	0x121
 3242 03e9 04       		.byte	0x4
 3243 03ea 0F       		.uleb128 0xf
 3244 03eb F6030000 		.4byte	.LASF54
 3245 03ef 08       		.byte	0x8
 3246 03f0 43       		.byte	0x43
 3247 03f1 1F030000 		.4byte	0x31f
 3248 03f5 06       		.byte	0x6
 3249 03f6 0F       		.uleb128 0xf
 3250 03f7 660D0000 		.4byte	.LASF55
 3251 03fb 08       		.byte	0x8
 3252 03fc 49       		.byte	0x49
 3253 03fd 58030000 		.4byte	0x358
 3254 0401 0C       		.byte	0xc
 3255 0402 0F       		.uleb128 0xf
 3256 0403 F8070000 		.4byte	.LASF56
 3257 0407 08       		.byte	0x8
 3258 0408 4F       		.byte	0x4f
 3259 0409 85030000 		.4byte	0x385
 3260 040d 12       		.byte	0x12
 3261 040e 0D       		.uleb128 0xd
 3262 040f B40B0000 		.4byte	.LASF57
 3263 0413 08       		.byte	0x8
 3264 0414 51       		.byte	0x51
 3265 0415 9E000000 		.4byte	0x9e
 3266 0419 01       		.byte	0x1
 3267 041a 01       		.byte	0x1
 3268 041b 07       		.byte	0x7
 3269 041c 18       		.byte	0x18
 3270 041d 00       		.byte	0
 3271 041e 0B       		.uleb128 0xb
 3272 041f 10       		.byte	0x10
 3273 0420 08       		.byte	0x8
 3274 0421 55       		.byte	0x55
 3275 0422 63040000 		.4byte	0x463
 3276 0426 0F       		.uleb128 0xf
 3277 0427 39040000 		.4byte	.LASF46
 3278 042b 08       		.byte	0x8
 3279 042c 56       		.byte	0x56
 3280 042d 16010000 		.4byte	0x116
 3281 0431 00       		.byte	0
 3282 0432 0F       		.uleb128 0xf
 3283 0433 830B0000 		.4byte	.LASF58
 3284 0437 08       		.byte	0x8
 3285 0438 57       		.byte	0x57
 3286 0439 63040000 		.4byte	0x463
 3287 043d 04       		.byte	0x4
 3288 043e 0F       		.uleb128 0xf
 3289 043f 090A0000 		.4byte	.LASF59
 3290 0443 08       		.byte	0x8
ARM GAS  C:\Users\d3bug\AppData\Local\Temp\cct3SNM7.s 			page 91


 3291 0444 58       		.byte	0x58
 3292 0445 4D010000 		.4byte	0x14d
 3293 0449 08       		.byte	0x8
 3294 044a 0F       		.uleb128 0xf
 3295 044b 9F050000 		.4byte	.LASF60
 3296 044f 08       		.byte	0x8
 3297 0450 59       		.byte	0x59
 3298 0451 4D010000 		.4byte	0x14d
 3299 0455 0A       		.byte	0xa
 3300 0456 0C       		.uleb128 0xc
 3301 0457 6F706100 		.ascii	"opa\000"
 3302 045b 08       		.byte	0x8
 3303 045c 5A       		.byte	0x5a
 3304 045d 21010000 		.4byte	0x121
 3305 0461 0C       		.byte	0xc
 3306 0462 00       		.byte	0
 3307 0463 09       		.uleb128 0x9
 3308 0464 04       		.byte	0x4
 3309 0465 69040000 		.4byte	0x469
 3310 0469 0A       		.uleb128 0xa
 3311 046a FE020000 		.4byte	0x2fe
 3312 046e 0B       		.uleb128 0xb
 3313 046f 03       		.byte	0x3
 3314 0470 08       		.byte	0x8
 3315 0471 5D       		.byte	0x5d
 3316 0472 9B040000 		.4byte	0x49b
 3317 0476 0F       		.uleb128 0xf
 3318 0477 39040000 		.4byte	.LASF46
 3319 047b 08       		.byte	0x8
 3320 047c 5E       		.byte	0x5e
 3321 047d 16010000 		.4byte	0x116
 3322 0481 00       		.byte	0
 3323 0482 0F       		.uleb128 0xf
 3324 0483 5F0B0000 		.4byte	.LASF61
 3325 0487 08       		.byte	0x8
 3326 0488 5F       		.byte	0x5f
 3327 0489 21010000 		.4byte	0x121
 3328 048d 01       		.byte	0x1
 3329 048e 0C       		.uleb128 0xc
 3330 048f 6F706100 		.ascii	"opa\000"
 3331 0493 08       		.byte	0x8
 3332 0494 60       		.byte	0x60
 3333 0495 21010000 		.4byte	0x121
 3334 0499 02       		.byte	0x2
 3335 049a 00       		.byte	0
 3336 049b 0B       		.uleb128 0xb
 3337 049c 06       		.byte	0x6
 3338 049d 08       		.byte	0x8
 3339 049e 63       		.byte	0x63
 3340 049f D7040000 		.4byte	0x4d7
 3341 04a3 0F       		.uleb128 0xf
 3342 04a4 39040000 		.4byte	.LASF46
 3343 04a8 08       		.byte	0x8
 3344 04a9 64       		.byte	0x64
 3345 04aa 16010000 		.4byte	0x116
 3346 04ae 00       		.byte	0
 3347 04af 0F       		.uleb128 0xf
ARM GAS  C:\Users\d3bug\AppData\Local\Temp\cct3SNM7.s 			page 92


 3348 04b0 1E050000 		.4byte	.LASF47
 3349 04b4 08       		.byte	0x8
 3350 04b5 65       		.byte	0x65
 3351 04b6 4D010000 		.4byte	0x14d
 3352 04ba 02       		.byte	0x2
 3353 04bb 0C       		.uleb128 0xc
 3354 04bc 6F706100 		.ascii	"opa\000"
 3355 04c0 08       		.byte	0x8
 3356 04c1 66       		.byte	0x66
 3357 04c2 21010000 		.4byte	0x121
 3358 04c6 04       		.byte	0x4
 3359 04c7 0D       		.uleb128 0xd
 3360 04c8 FA040000 		.4byte	.LASF62
 3361 04cc 08       		.byte	0x8
 3362 04cd 67       		.byte	0x67
 3363 04ce 9E000000 		.4byte	0x9e
 3364 04d2 01       		.byte	0x1
 3365 04d3 01       		.byte	0x1
 3366 04d4 07       		.byte	0x7
 3367 04d5 05       		.byte	0x5
 3368 04d6 00       		.byte	0
 3369 04d7 0B       		.uleb128 0xb
 3370 04d8 38       		.byte	0x38
 3371 04d9 08       		.byte	0x8
 3372 04da 34       		.byte	0x34
 3373 04db 1F050000 		.4byte	0x51f
 3374 04df 0D       		.uleb128 0xd
 3375 04e0 B2070000 		.4byte	.LASF63
 3376 04e4 08       		.byte	0x8
 3377 04e5 36       		.byte	0x36
 3378 04e6 9E000000 		.4byte	0x9e
 3379 04ea 01       		.byte	0x1
 3380 04eb 01       		.byte	0x1
 3381 04ec 07       		.byte	0x7
 3382 04ed 00       		.byte	0
 3383 04ee 0F       		.uleb128 0xf
 3384 04ef 210C0000 		.4byte	.LASF64
 3385 04f3 08       		.byte	0x8
 3386 04f4 52       		.byte	0x52
 3387 04f5 B2030000 		.4byte	0x3b2
 3388 04f9 02       		.byte	0x2
 3389 04fa 0F       		.uleb128 0xf
 3390 04fb B8060000 		.4byte	.LASF65
 3391 04ff 08       		.byte	0x8
 3392 0500 5B       		.byte	0x5b
 3393 0501 1E040000 		.4byte	0x41e
 3394 0505 1C       		.byte	0x1c
 3395 0506 0F       		.uleb128 0xf
 3396 0507 BD080000 		.4byte	.LASF66
 3397 050b 08       		.byte	0x8
 3398 050c 61       		.byte	0x61
 3399 050d 6E040000 		.4byte	0x46e
 3400 0511 2C       		.byte	0x2c
 3401 0512 0F       		.uleb128 0xf
 3402 0513 750C0000 		.4byte	.LASF67
 3403 0517 08       		.byte	0x8
 3404 0518 68       		.byte	0x68
ARM GAS  C:\Users\d3bug\AppData\Local\Temp\cct3SNM7.s 			page 93


 3405 0519 9B040000 		.4byte	0x49b
 3406 051d 30       		.byte	0x30
 3407 051e 00       		.byte	0
 3408 051f 04       		.uleb128 0x4
 3409 0520 2E010000 		.4byte	.LASF68
 3410 0524 08       		.byte	0x8
 3411 0525 69       		.byte	0x69
 3412 0526 D7040000 		.4byte	0x4d7
 3413 052a 04       		.uleb128 0x4
 3414 052b 2B050000 		.4byte	.LASF69
 3415 052f 09       		.byte	0x9
 3416 0530 1E       		.byte	0x1e
 3417 0531 9E000000 		.4byte	0x9e
 3418 0535 0B       		.uleb128 0xb
 3419 0536 0C       		.byte	0xc
 3420 0537 09       		.byte	0x9
 3421 0538 21       		.byte	0x21
 3422 0539 62050000 		.4byte	0x562
 3423 053d 0F       		.uleb128 0xf
 3424 053e C7010000 		.4byte	.LASF70
 3425 0542 09       		.byte	0x9
 3426 0543 23       		.byte	0x23
 3427 0544 BF000000 		.4byte	0xbf
 3428 0548 00       		.byte	0
 3429 0549 0F       		.uleb128 0xf
 3430 054a 44010000 		.4byte	.LASF71
 3431 054e 09       		.byte	0x9
 3432 054f 24       		.byte	0x24
 3433 0550 62050000 		.4byte	0x562
 3434 0554 04       		.byte	0x4
 3435 0555 0F       		.uleb128 0xf
 3436 0556 910C0000 		.4byte	.LASF72
 3437 055a 09       		.byte	0x9
 3438 055b 25       		.byte	0x25
 3439 055c 62050000 		.4byte	0x562
 3440 0560 08       		.byte	0x8
 3441 0561 00       		.byte	0
 3442 0562 09       		.uleb128 0x9
 3443 0563 04       		.byte	0x4
 3444 0564 2A050000 		.4byte	0x52a
 3445 0568 04       		.uleb128 0x4
 3446 0569 CF070000 		.4byte	.LASF73
 3447 056d 09       		.byte	0x9
 3448 056e 26       		.byte	0x26
 3449 056f 35050000 		.4byte	0x535
 3450 0573 13       		.uleb128 0x13
 3451 0574 01       		.byte	0x1
 3452 0575 53000000 		.4byte	0x53
 3453 0579 0A       		.byte	0xa
 3454 057a 46       		.byte	0x46
 3455 057b 92050000 		.4byte	0x592
 3456 057f 14       		.uleb128 0x14
 3457 0580 210B0000 		.4byte	.LASF74
 3458 0584 00       		.byte	0
 3459 0585 14       		.uleb128 0x14
 3460 0586 430A0000 		.4byte	.LASF75
 3461 058a 01       		.byte	0x1
ARM GAS  C:\Users\d3bug\AppData\Local\Temp\cct3SNM7.s 			page 94


 3462 058b 14       		.uleb128 0x14
 3463 058c 560C0000 		.4byte	.LASF76
 3464 0590 02       		.byte	0x2
 3465 0591 00       		.byte	0
 3466 0592 04       		.uleb128 0x4
 3467 0593 E00C0000 		.4byte	.LASF77
 3468 0597 0A       		.byte	0xa
 3469 0598 4B       		.byte	0x4b
 3470 0599 9E000000 		.4byte	0x9e
 3471 059d 04       		.uleb128 0x4
 3472 059e D7070000 		.4byte	.LASF78
 3473 05a2 0A       		.byte	0xa
 3474 05a3 4D       		.byte	0x4d
 3475 05a4 A8050000 		.4byte	0x5a8
 3476 05a8 09       		.uleb128 0x9
 3477 05a9 04       		.byte	0x4
 3478 05aa AE050000 		.4byte	0x5ae
 3479 05ae 11       		.uleb128 0x11
 3480 05af C7050000 		.4byte	0x5c7
 3481 05b3 C7050000 		.4byte	0x5c7
 3482 05b7 12       		.uleb128 0x12
 3483 05b8 CE050000 		.4byte	0x5ce
 3484 05bc 12       		.uleb128 0x12
 3485 05bd E6060000 		.4byte	0x6e6
 3486 05c1 12       		.uleb128 0x12
 3487 05c2 92050000 		.4byte	0x592
 3488 05c6 00       		.byte	0
 3489 05c7 03       		.uleb128 0x3
 3490 05c8 01       		.byte	0x1
 3491 05c9 02       		.byte	0x2
 3492 05ca 3F050000 		.4byte	.LASF79
 3493 05ce 09       		.uleb128 0x9
 3494 05cf 04       		.byte	0x4
 3495 05d0 D4050000 		.4byte	0x5d4
 3496 05d4 0E       		.uleb128 0xe
 3497 05d5 28000000 		.4byte	.LASF81
 3498 05d9 44       		.byte	0x44
 3499 05da 0A       		.byte	0xa
 3500 05db 9D       		.byte	0x9d
 3501 05dc E6060000 		.4byte	0x6e6
 3502 05e0 0C       		.uleb128 0xc
 3503 05e1 70617200 		.ascii	"par\000"
 3504 05e5 0A       		.byte	0xa
 3505 05e6 9F       		.byte	0x9f
 3506 05e7 CE050000 		.4byte	0x5ce
 3507 05eb 00       		.byte	0
 3508 05ec 0F       		.uleb128 0xf
 3509 05ed BE0C0000 		.4byte	.LASF82
 3510 05f1 0A       		.byte	0xa
 3511 05f2 A0       		.byte	0xa0
 3512 05f3 68050000 		.4byte	0x568
 3513 05f7 04       		.byte	0x4
 3514 05f8 0F       		.uleb128 0xf
 3515 05f9 6C0A0000 		.4byte	.LASF83
 3516 05fd 0A       		.byte	0xa
 3517 05fe A2       		.byte	0xa2
 3518 05ff B5010000 		.4byte	0x1b5
ARM GAS  C:\Users\d3bug\AppData\Local\Temp\cct3SNM7.s 			page 95


 3519 0603 10       		.byte	0x10
 3520 0604 0F       		.uleb128 0xf
 3521 0605 E0020000 		.4byte	.LASF84
 3522 0609 0A       		.byte	0xa
 3523 060a A4       		.byte	0xa4
 3524 060b AB070000 		.4byte	0x7ab
 3525 060f 18       		.byte	0x18
 3526 0610 0F       		.uleb128 0xf
 3527 0611 E3000000 		.4byte	.LASF85
 3528 0615 0A       		.byte	0xa
 3529 0616 A5       		.byte	0xa5
 3530 0617 9D050000 		.4byte	0x59d
 3531 061b 1C       		.byte	0x1c
 3532 061c 0F       		.uleb128 0xf
 3533 061d CE010000 		.4byte	.LASF86
 3534 0621 0A       		.byte	0xa
 3535 0622 A7       		.byte	0xa7
 3536 0623 33010000 		.4byte	0x133
 3537 0627 20       		.byte	0x20
 3538 0628 0F       		.uleb128 0xf
 3539 0629 16050000 		.4byte	.LASF87
 3540 062d 0A       		.byte	0xa
 3541 062e A8       		.byte	0xa8
 3542 062f 4D080000 		.4byte	0x84d
 3543 0633 24       		.byte	0x24
 3544 0634 0F       		.uleb128 0xf
 3545 0635 3A000000 		.4byte	.LASF88
 3546 0639 0A       		.byte	0xa
 3547 063a AB       		.byte	0xab
 3548 063b 33010000 		.4byte	0x133
 3549 063f 28       		.byte	0x28
 3550 0640 0D       		.uleb128 0xd
 3551 0641 22000000 		.4byte	.LASF89
 3552 0645 0A       		.byte	0xa
 3553 0646 B2       		.byte	0xb2
 3554 0647 9E000000 		.4byte	0x9e
 3555 064b 01       		.byte	0x1
 3556 064c 01       		.byte	0x1
 3557 064d 07       		.byte	0x7
 3558 064e 2C       		.byte	0x2c
 3559 064f 0D       		.uleb128 0xd
 3560 0650 510E0000 		.4byte	.LASF90
 3561 0654 0A       		.byte	0xa
 3562 0655 B3       		.byte	0xb3
 3563 0656 9E000000 		.4byte	0x9e
 3564 065a 01       		.byte	0x1
 3565 065b 01       		.byte	0x1
 3566 065c 06       		.byte	0x6
 3567 065d 2C       		.byte	0x2c
 3568 065e 0D       		.uleb128 0xd
 3569 065f FF000000 		.4byte	.LASF91
 3570 0663 0A       		.byte	0xa
 3571 0664 B4       		.byte	0xb4
 3572 0665 9E000000 		.4byte	0x9e
 3573 0669 01       		.byte	0x1
 3574 066a 01       		.byte	0x1
 3575 066b 05       		.byte	0x5
ARM GAS  C:\Users\d3bug\AppData\Local\Temp\cct3SNM7.s 			page 96


 3576 066c 2C       		.byte	0x2c
 3577 066d 0D       		.uleb128 0xd
 3578 066e C70C0000 		.4byte	.LASF92
 3579 0672 0A       		.byte	0xa
 3580 0673 B5       		.byte	0xb5
 3581 0674 9E000000 		.4byte	0x9e
 3582 0678 01       		.byte	0x1
 3583 0679 01       		.byte	0x1
 3584 067a 04       		.byte	0x4
 3585 067b 2C       		.byte	0x2c
 3586 067c 0D       		.uleb128 0xd
 3587 067d A20D0000 		.4byte	.LASF93
 3588 0681 0A       		.byte	0xa
 3589 0682 B6       		.byte	0xb6
 3590 0683 9E000000 		.4byte	0x9e
 3591 0687 01       		.byte	0x1
 3592 0688 01       		.byte	0x1
 3593 0689 03       		.byte	0x3
 3594 068a 2C       		.byte	0x2c
 3595 068b 10       		.uleb128 0x10
 3596 068c 746F7000 		.ascii	"top\000"
 3597 0690 0A       		.byte	0xa
 3598 0691 B7       		.byte	0xb7
 3599 0692 9E000000 		.4byte	0x9e
 3600 0696 01       		.byte	0x1
 3601 0697 01       		.byte	0x1
 3602 0698 02       		.byte	0x2
 3603 0699 2C       		.byte	0x2c
 3604 069a 0D       		.uleb128 0xd
 3605 069b 520B0000 		.4byte	.LASF94
 3606 069f 0A       		.byte	0xa
 3607 06a0 B8       		.byte	0xb8
 3608 06a1 9E000000 		.4byte	0x9e
 3609 06a5 01       		.byte	0x1
 3610 06a6 01       		.byte	0x1
 3611 06a7 01       		.byte	0x1
 3612 06a8 2C       		.byte	0x2c
 3613 06a9 0F       		.uleb128 0xf
 3614 06aa C3080000 		.4byte	.LASF95
 3615 06ae 0A       		.byte	0xa
 3616 06af B9       		.byte	0xb9
 3617 06b0 9E000000 		.4byte	0x9e
 3618 06b4 2D       		.byte	0x2d
 3619 06b5 0F       		.uleb128 0xf
 3620 06b6 170C0000 		.4byte	.LASF96
 3621 06ba 0A       		.byte	0xa
 3622 06bb BA       		.byte	0xba
 3623 06bc 21010000 		.4byte	0x121
 3624 06c0 2E       		.byte	0x2e
 3625 06c1 0F       		.uleb128 0xf
 3626 06c2 CD040000 		.4byte	.LASF97
 3627 06c6 0A       		.byte	0xa
 3628 06c7 BC       		.byte	0xbc
 3629 06c8 4D010000 		.4byte	0x14d
 3630 06cc 30       		.byte	0x30
 3631 06cd 0F       		.uleb128 0xf
 3632 06ce 7F020000 		.4byte	.LASF98
ARM GAS  C:\Users\d3bug\AppData\Local\Temp\cct3SNM7.s 			page 97


 3633 06d2 0A       		.byte	0xa
 3634 06d3 BE       		.byte	0xbe
 3635 06d4 42080000 		.4byte	0x842
 3636 06d8 34       		.byte	0x34
 3637 06d9 0F       		.uleb128 0xf
 3638 06da ED030000 		.4byte	.LASF99
 3639 06de 0A       		.byte	0xa
 3640 06df C2       		.byte	0xc2
 3641 06e0 BF000000 		.4byte	0xbf
 3642 06e4 40       		.byte	0x40
 3643 06e5 00       		.byte	0
 3644 06e6 09       		.uleb128 0x9
 3645 06e7 04       		.byte	0x4
 3646 06e8 EC060000 		.4byte	0x6ec
 3647 06ec 0A       		.uleb128 0xa
 3648 06ed B5010000 		.4byte	0x1b5
 3649 06f1 13       		.uleb128 0x13
 3650 06f2 01       		.byte	0x1
 3651 06f3 53000000 		.4byte	0x53
 3652 06f7 0A       		.byte	0xa
 3653 06f8 50       		.byte	0x50
 3654 06f9 0A070000 		.4byte	0x70a
 3655 06fd 14       		.uleb128 0x14
 3656 06fe C40E0000 		.4byte	.LASF100
 3657 0702 00       		.byte	0
 3658 0703 14       		.uleb128 0x14
 3659 0704 1C080000 		.4byte	.LASF101
 3660 0708 01       		.byte	0x1
 3661 0709 00       		.byte	0
 3662 070a 04       		.uleb128 0x4
 3663 070b AF060000 		.4byte	.LASF102
 3664 070f 0A       		.byte	0xa
 3665 0710 54       		.byte	0x54
 3666 0711 9E000000 		.4byte	0x9e
 3667 0715 13       		.uleb128 0x13
 3668 0716 01       		.byte	0x1
 3669 0717 53000000 		.4byte	0x53
 3670 071b 0A       		.byte	0xa
 3671 071c 57       		.byte	0x57
 3672 071d A0070000 		.4byte	0x7a0
 3673 0721 14       		.uleb128 0x14
 3674 0722 350B0000 		.4byte	.LASF103
 3675 0726 00       		.byte	0
 3676 0727 14       		.uleb128 0x14
 3677 0728 21070000 		.4byte	.LASF104
 3678 072c 01       		.byte	0x1
 3679 072d 14       		.uleb128 0x14
 3680 072e FB0D0000 		.4byte	.LASF105
 3681 0732 02       		.byte	0x2
 3682 0733 14       		.uleb128 0x14
 3683 0734 4E000000 		.4byte	.LASF106
 3684 0738 03       		.byte	0x3
 3685 0739 14       		.uleb128 0x14
 3686 073a 9C000000 		.4byte	.LASF107
 3687 073e 04       		.byte	0x4
 3688 073f 14       		.uleb128 0x14
 3689 0740 8F0D0000 		.4byte	.LASF108
ARM GAS  C:\Users\d3bug\AppData\Local\Temp\cct3SNM7.s 			page 98


 3690 0744 05       		.byte	0x5
 3691 0745 14       		.uleb128 0x14
 3692 0746 EE060000 		.4byte	.LASF109
 3693 074a 06       		.byte	0x6
 3694 074b 14       		.uleb128 0x14
 3695 074c 160A0000 		.4byte	.LASF110
 3696 0750 07       		.byte	0x7
 3697 0751 14       		.uleb128 0x14
 3698 0752 D50E0000 		.4byte	.LASF111
 3699 0756 08       		.byte	0x8
 3700 0757 14       		.uleb128 0x14
 3701 0758 70000000 		.4byte	.LASF112
 3702 075c 09       		.byte	0x9
 3703 075d 14       		.uleb128 0x14
 3704 075e F0010000 		.4byte	.LASF113
 3705 0762 0A       		.byte	0xa
 3706 0763 14       		.uleb128 0x14
 3707 0764 730A0000 		.4byte	.LASF114
 3708 0768 0B       		.byte	0xb
 3709 0769 14       		.uleb128 0x14
 3710 076a E5040000 		.4byte	.LASF115
 3711 076e 0C       		.byte	0xc
 3712 076f 14       		.uleb128 0x14
 3713 0770 4D0D0000 		.4byte	.LASF116
 3714 0774 0D       		.byte	0xd
 3715 0775 14       		.uleb128 0x14
 3716 0776 ED0A0000 		.4byte	.LASF117
 3717 077a 0E       		.byte	0xe
 3718 077b 14       		.uleb128 0x14
 3719 077c E60B0000 		.4byte	.LASF118
 3720 0780 0F       		.byte	0xf
 3721 0781 14       		.uleb128 0x14
 3722 0782 E8070000 		.4byte	.LASF119
 3723 0786 10       		.byte	0x10
 3724 0787 14       		.uleb128 0x14
 3725 0788 19060000 		.4byte	.LASF120
 3726 078c 11       		.byte	0x11
 3727 078d 14       		.uleb128 0x14
 3728 078e 9C060000 		.4byte	.LASF121
 3729 0792 12       		.byte	0x12
 3730 0793 14       		.uleb128 0x14
 3731 0794 18020000 		.4byte	.LASF122
 3732 0798 13       		.byte	0x13
 3733 0799 14       		.uleb128 0x14
 3734 079a E2080000 		.4byte	.LASF123
 3735 079e 14       		.byte	0x14
 3736 079f 00       		.byte	0
 3737 07a0 04       		.uleb128 0x4
 3738 07a1 260C0000 		.4byte	.LASF124
 3739 07a5 0A       		.byte	0xa
 3740 07a6 73       		.byte	0x73
 3741 07a7 9E000000 		.4byte	0x9e
 3742 07ab 04       		.uleb128 0x4
 3743 07ac 9E010000 		.4byte	.LASF125
 3744 07b0 0A       		.byte	0xa
 3745 07b1 75       		.byte	0x75
 3746 07b2 B6070000 		.4byte	0x7b6
ARM GAS  C:\Users\d3bug\AppData\Local\Temp\cct3SNM7.s 			page 99


 3747 07b6 09       		.uleb128 0x9
 3748 07b7 04       		.byte	0x4
 3749 07b8 BC070000 		.4byte	0x7bc
 3750 07bc 11       		.uleb128 0x11
 3751 07bd 0A070000 		.4byte	0x70a
 3752 07c1 D5070000 		.4byte	0x7d5
 3753 07c5 12       		.uleb128 0x12
 3754 07c6 CE050000 		.4byte	0x5ce
 3755 07ca 12       		.uleb128 0x12
 3756 07cb A0070000 		.4byte	0x7a0
 3757 07cf 12       		.uleb128 0x12
 3758 07d0 33010000 		.4byte	0x133
 3759 07d4 00       		.byte	0
 3760 07d5 04       		.uleb128 0x4
 3761 07d6 00080000 		.4byte	.LASF126
 3762 07da 0A       		.byte	0xa
 3763 07db 8F       		.byte	0x8f
 3764 07dc 9E000000 		.4byte	0x9e
 3765 07e0 0B       		.uleb128 0xb
 3766 07e1 0C       		.byte	0xc
 3767 07e2 0A       		.byte	0xa
 3768 07e3 92       		.byte	0x92
 3769 07e4 37080000 		.4byte	0x837
 3770 07e8 0F       		.uleb128 0xf
 3771 07e9 21030000 		.4byte	.LASF127
 3772 07ed 0A       		.byte	0xa
 3773 07ee 93       		.byte	0x93
 3774 07ef 37080000 		.4byte	0x837
 3775 07f3 00       		.byte	0
 3776 07f4 0F       		.uleb128 0xf
 3777 07f5 38080000 		.4byte	.LASF128
 3778 07f9 0A       		.byte	0xa
 3779 07fa 94       		.byte	0x94
 3780 07fb 4D010000 		.4byte	0x14d
 3781 07ff 04       		.byte	0x4
 3782 0800 0F       		.uleb128 0xf
 3783 0801 7A010000 		.4byte	.LASF129
 3784 0805 0A       		.byte	0xa
 3785 0806 95       		.byte	0x95
 3786 0807 4D010000 		.4byte	0x14d
 3787 080b 06       		.byte	0x6
 3788 080c 0F       		.uleb128 0xf
 3789 080d 88080000 		.4byte	.LASF130
 3790 0811 0A       		.byte	0xa
 3791 0812 96       		.byte	0x96
 3792 0813 D5070000 		.4byte	0x7d5
 3793 0817 08       		.byte	0x8
 3794 0818 0D       		.uleb128 0xd
 3795 0819 D30C0000 		.4byte	.LASF131
 3796 081d 0A       		.byte	0xa
 3797 081e 97       		.byte	0x97
 3798 081f 9E000000 		.4byte	0x9e
 3799 0823 01       		.byte	0x1
 3800 0824 01       		.byte	0x1
 3801 0825 07       		.byte	0x7
 3802 0826 09       		.byte	0x9
 3803 0827 0D       		.uleb128 0xd
ARM GAS  C:\Users\d3bug\AppData\Local\Temp\cct3SNM7.s 			page 100


 3804 0828 6C080000 		.4byte	.LASF132
 3805 082c 0A       		.byte	0xa
 3806 082d 98       		.byte	0x98
 3807 082e 9E000000 		.4byte	0x9e
 3808 0832 01       		.byte	0x1
 3809 0833 01       		.byte	0x1
 3810 0834 06       		.byte	0x6
 3811 0835 09       		.byte	0x9
 3812 0836 00       		.byte	0
 3813 0837 09       		.uleb128 0x9
 3814 0838 04       		.byte	0x4
 3815 0839 3D080000 		.4byte	0x83d
 3816 083d 0A       		.uleb128 0xa
 3817 083e D4050000 		.4byte	0x5d4
 3818 0842 04       		.uleb128 0x4
 3819 0843 DD0D0000 		.4byte	.LASF133
 3820 0847 0A       		.byte	0xa
 3821 0848 99       		.byte	0x99
 3822 0849 E0070000 		.4byte	0x7e0
 3823 084d 09       		.uleb128 0x9
 3824 084e 04       		.byte	0x4
 3825 084f 1F050000 		.4byte	0x51f
 3826 0853 04       		.uleb128 0x4
 3827 0854 4D020000 		.4byte	.LASF134
 3828 0858 0A       		.byte	0xa
 3829 0859 C4       		.byte	0xc4
 3830 085a D4050000 		.4byte	0x5d4
 3831 085e 0B       		.uleb128 0xb
 3832 085f 20       		.byte	0x20
 3833 0860 0A       		.byte	0xa
 3834 0861 D7       		.byte	0xd7
 3835 0862 73080000 		.4byte	0x873
 3836 0866 0F       		.uleb128 0xf
 3837 0867 3A0C0000 		.4byte	.LASF49
 3838 086b 0A       		.byte	0xa
 3839 086c D8       		.byte	0xd8
 3840 086d 73080000 		.4byte	0x873
 3841 0871 00       		.byte	0
 3842 0872 00       		.byte	0
 3843 0873 15       		.uleb128 0x15
 3844 0874 42010000 		.4byte	0x142
 3845 0878 83080000 		.4byte	0x883
 3846 087c 16       		.uleb128 0x16
 3847 087d 2C010000 		.4byte	0x12c
 3848 0881 07       		.byte	0x7
 3849 0882 00       		.byte	0
 3850 0883 04       		.uleb128 0x4
 3851 0884 14000000 		.4byte	.LASF135
 3852 0888 0A       		.byte	0xa
 3853 0889 D9       		.byte	0xd9
 3854 088a 5E080000 		.4byte	0x85e
 3855 088e 13       		.uleb128 0x13
 3856 088f 01       		.byte	0x1
 3857 0890 53000000 		.4byte	0x53
 3858 0894 0B       		.byte	0xb
 3859 0895 24       		.byte	0x24
 3860 0896 B9080000 		.4byte	0x8b9
ARM GAS  C:\Users\d3bug\AppData\Local\Temp\cct3SNM7.s 			page 101


 3861 089a 14       		.uleb128 0x14
 3862 089b 0E0E0000 		.4byte	.LASF136
 3863 089f 00       		.byte	0
 3864 08a0 14       		.uleb128 0x14
 3865 08a1 6B020000 		.4byte	.LASF137
 3866 08a5 01       		.byte	0x1
 3867 08a6 14       		.uleb128 0x14
 3868 08a7 1F0E0000 		.4byte	.LASF138
 3869 08ab 02       		.byte	0x2
 3870 08ac 14       		.uleb128 0x14
 3871 08ad 97020000 		.4byte	.LASF139
 3872 08b1 04       		.byte	0x4
 3873 08b2 14       		.uleb128 0x14
 3874 08b3 1C040000 		.4byte	.LASF140
 3875 08b7 08       		.byte	0x8
 3876 08b8 00       		.byte	0
 3877 08b9 04       		.uleb128 0x4
 3878 08ba A90D0000 		.4byte	.LASF141
 3879 08be 0B       		.byte	0xb
 3880 08bf 2B       		.byte	0x2b
 3881 08c0 9E000000 		.4byte	0x9e
 3882 08c4 13       		.uleb128 0x13
 3883 08c5 01       		.byte	0x1
 3884 08c6 53000000 		.4byte	0x53
 3885 08ca 0B       		.byte	0xb
 3886 08cb 2E       		.byte	0x2e
 3887 08cc E3080000 		.4byte	0x8e3
 3888 08d0 14       		.uleb128 0x14
 3889 08d1 C40B0000 		.4byte	.LASF142
 3890 08d5 00       		.byte	0
 3891 08d6 14       		.uleb128 0x14
 3892 08d7 A1080000 		.4byte	.LASF143
 3893 08db 01       		.byte	0x1
 3894 08dc 14       		.uleb128 0x14
 3895 08dd 45050000 		.4byte	.LASF144
 3896 08e1 02       		.byte	0x2
 3897 08e2 00       		.byte	0
 3898 08e3 04       		.uleb128 0x4
 3899 08e4 AA050000 		.4byte	.LASF145
 3900 08e8 0B       		.byte	0xb
 3901 08e9 33       		.byte	0x33
 3902 08ea 9E000000 		.4byte	0x9e
 3903 08ee 13       		.uleb128 0x13
 3904 08ef 01       		.byte	0x1
 3905 08f0 53000000 		.4byte	0x53
 3906 08f4 04       		.byte	0x4
 3907 08f5 29       		.byte	0x29
 3908 08f6 1F090000 		.4byte	0x91f
 3909 08fa 14       		.uleb128 0x14
 3910 08fb 0C030000 		.4byte	.LASF146
 3911 08ff 00       		.byte	0
 3912 0900 14       		.uleb128 0x14
 3913 0901 90070000 		.4byte	.LASF147
 3914 0905 01       		.byte	0x1
 3915 0906 14       		.uleb128 0x14
 3916 0907 04060000 		.4byte	.LASF148
 3917 090b 02       		.byte	0x2
ARM GAS  C:\Users\d3bug\AppData\Local\Temp\cct3SNM7.s 			page 102


 3918 090c 14       		.uleb128 0x14
 3919 090d 83000000 		.4byte	.LASF149
 3920 0911 03       		.byte	0x3
 3921 0912 14       		.uleb128 0x14
 3922 0913 05020000 		.4byte	.LASF150
 3923 0917 04       		.byte	0x4
 3924 0918 14       		.uleb128 0x14
 3925 0919 090D0000 		.4byte	.LASF151
 3926 091d 05       		.byte	0x5
 3927 091e 00       		.byte	0
 3928 091f 04       		.uleb128 0x4
 3929 0920 AF0E0000 		.4byte	.LASF152
 3930 0924 04       		.byte	0x4
 3931 0925 31       		.byte	0x31
 3932 0926 9E000000 		.4byte	0x9e
 3933 092a 13       		.uleb128 0x13
 3934 092b 01       		.byte	0x1
 3935 092c 53000000 		.4byte	0x53
 3936 0930 04       		.byte	0x4
 3937 0931 34       		.byte	0x34
 3938 0932 49090000 		.4byte	0x949
 3939 0936 14       		.uleb128 0x14
 3940 0937 860A0000 		.4byte	.LASF153
 3941 093b 00       		.byte	0
 3942 093c 14       		.uleb128 0x14
 3943 093d D6050000 		.4byte	.LASF154
 3944 0941 01       		.byte	0x1
 3945 0942 14       		.uleb128 0x14
 3946 0943 38020000 		.4byte	.LASF155
 3947 0947 02       		.byte	0x2
 3948 0948 00       		.byte	0
 3949 0949 04       		.uleb128 0x4
 3950 094a 880B0000 		.4byte	.LASF156
 3951 094e 04       		.byte	0x4
 3952 094f 39       		.byte	0x39
 3953 0950 9E000000 		.4byte	0x9e
 3954 0954 0B       		.uleb128 0xb
 3955 0955 1C       		.byte	0x1c
 3956 0956 04       		.byte	0x4
 3957 0957 3C       		.byte	0x3c
 3958 0958 F0090000 		.4byte	0x9f0
 3959 095c 0F       		.uleb128 0xf
 3960 095d B8060000 		.4byte	.LASF65
 3961 0961 04       		.byte	0x4
 3962 0962 40       		.byte	0x40
 3963 0963 35010000 		.4byte	0x135
 3964 0967 00       		.byte	0
 3965 0968 0F       		.uleb128 0xf
 3966 0969 75070000 		.4byte	.LASF157
 3967 096d 04       		.byte	0x4
 3968 096e 41       		.byte	0x41
 3969 096f 1F090000 		.4byte	0x91f
 3970 0973 04       		.byte	0x4
 3971 0974 0F       		.uleb128 0xf
 3972 0975 5E010000 		.4byte	.LASF158
 3973 0979 04       		.byte	0x4
 3974 097a 45       		.byte	0x45
ARM GAS  C:\Users\d3bug\AppData\Local\Temp\cct3SNM7.s 			page 103


 3975 097b F0090000 		.4byte	0x9f0
 3976 097f 05       		.byte	0x5
 3977 0980 0F       		.uleb128 0xf
 3978 0981 D8020000 		.4byte	.LASF159
 3979 0985 04       		.byte	0x4
 3980 0986 4B       		.byte	0x4b
 3981 0987 B4000000 		.4byte	0xb4
 3982 098b 12       		.byte	0x12
 3983 098c 0F       		.uleb128 0xf
 3984 098d 78080000 		.4byte	.LASF160
 3985 0991 04       		.byte	0x4
 3986 0992 4C       		.byte	0x4c
 3987 0993 B4000000 		.4byte	0xb4
 3988 0997 14       		.byte	0x14
 3989 0998 0F       		.uleb128 0xf
 3990 0999 24050000 		.4byte	.LASF161
 3991 099d 04       		.byte	0x4
 3992 099e 4D       		.byte	0x4d
 3993 099f 75010000 		.4byte	0x175
 3994 09a3 16       		.byte	0x16
 3995 09a4 0D       		.uleb128 0xd
 3996 09a5 47080000 		.4byte	.LASF162
 3997 09a9 04       		.byte	0x4
 3998 09aa 4E       		.byte	0x4e
 3999 09ab 9E000000 		.4byte	0x9e
 4000 09af 01       		.byte	0x1
 4001 09b0 01       		.byte	0x1
 4002 09b1 07       		.byte	0x7
 4003 09b2 1A       		.byte	0x1a
 4004 09b3 0D       		.uleb128 0xd
 4005 09b4 88080000 		.4byte	.LASF130
 4006 09b8 04       		.byte	0x4
 4007 09b9 4F       		.byte	0x4f
 4008 09ba 9E000000 		.4byte	0x9e
 4009 09be 01       		.byte	0x1
 4010 09bf 02       		.byte	0x2
 4011 09c0 05       		.byte	0x5
 4012 09c1 1A       		.byte	0x1a
 4013 09c2 0D       		.uleb128 0xd
 4014 09c3 320E0000 		.4byte	.LASF163
 4015 09c7 04       		.byte	0x4
 4016 09c8 50       		.byte	0x50
 4017 09c9 9E000000 		.4byte	0x9e
 4018 09cd 01       		.byte	0x1
 4019 09ce 01       		.byte	0x1
 4020 09cf 04       		.byte	0x4
 4021 09d0 1A       		.byte	0x1a
 4022 09d1 0D       		.uleb128 0xd
 4023 09d2 B6080000 		.4byte	.LASF164
 4024 09d6 04       		.byte	0x4
 4025 09d7 51       		.byte	0x51
 4026 09d8 9E000000 		.4byte	0x9e
 4027 09dc 01       		.byte	0x1
 4028 09dd 01       		.byte	0x1
 4029 09de 03       		.byte	0x3
 4030 09df 1A       		.byte	0x1a
 4031 09e0 0D       		.uleb128 0xd
ARM GAS  C:\Users\d3bug\AppData\Local\Temp\cct3SNM7.s 			page 104


 4032 09e1 F10D0000 		.4byte	.LASF165
 4033 09e5 04       		.byte	0x4
 4034 09e6 52       		.byte	0x52
 4035 09e7 9E000000 		.4byte	0x9e
 4036 09eb 01       		.byte	0x1
 4037 09ec 01       		.byte	0x1
 4038 09ed 02       		.byte	0x2
 4039 09ee 1A       		.byte	0x1a
 4040 09ef 00       		.byte	0
 4041 09f0 15       		.uleb128 0x15
 4042 09f1 3B010000 		.4byte	0x13b
 4043 09f5 000A0000 		.4byte	0xa00
 4044 09f9 16       		.uleb128 0x16
 4045 09fa 2C010000 		.4byte	0x12c
 4046 09fe 0C       		.byte	0xc
 4047 09ff 00       		.byte	0
 4048 0a00 04       		.uleb128 0x4
 4049 0a01 D6040000 		.4byte	.LASF166
 4050 0a05 04       		.byte	0x4
 4051 0a06 53       		.byte	0x53
 4052 0a07 54090000 		.4byte	0x954
 4053 0a0b 17       		.uleb128 0x17
 4054 0a0c D0000000 		.4byte	.LASF167
 4055 0a10 02       		.byte	0x2
 4056 0a11 7E       		.byte	0x7e
 4057 0a12 9E000000 		.4byte	0x9e
 4058 0a16 03       		.byte	0x3
 4059 0a17 270A0000 		.4byte	0xa27
 4060 0a1b 18       		.uleb128 0x18
 4061 0a1c BD050000 		.4byte	.LASF169
 4062 0a20 02       		.byte	0x2
 4063 0a21 7E       		.byte	0x7e
 4064 0a22 63040000 		.4byte	0x463
 4065 0a26 00       		.byte	0
 4066 0a27 17       		.uleb128 0x17
 4067 0a28 26080000 		.4byte	.LASF168
 4068 0a2c 03       		.byte	0x3
 4069 0a2d 4B       		.byte	0x4b
 4070 0a2e 4D010000 		.4byte	0x14d
 4071 0a32 03       		.byte	0x3
 4072 0a33 430A0000 		.4byte	0xa43
 4073 0a37 18       		.uleb128 0x18
 4074 0a38 34090000 		.4byte	.LASF170
 4075 0a3c 03       		.byte	0x3
 4076 0a3d 4B       		.byte	0x4b
 4077 0a3e E6060000 		.4byte	0x6e6
 4078 0a42 00       		.byte	0
 4079 0a43 17       		.uleb128 0x17
 4080 0a44 AA020000 		.4byte	.LASF171
 4081 0a48 03       		.byte	0x3
 4082 0a49 55       		.byte	0x55
 4083 0a4a 4D010000 		.4byte	0x14d
 4084 0a4e 03       		.byte	0x3
 4085 0a4f 5F0A0000 		.4byte	0xa5f
 4086 0a53 18       		.uleb128 0x18
 4087 0a54 34090000 		.4byte	.LASF170
 4088 0a58 03       		.byte	0x3
ARM GAS  C:\Users\d3bug\AppData\Local\Temp\cct3SNM7.s 			page 105


 4089 0a59 55       		.byte	0x55
 4090 0a5a E6060000 		.4byte	0x6e6
 4091 0a5e 00       		.byte	0
 4092 0a5f 19       		.uleb128 0x19
 4093 0a60 CA0D0000 		.4byte	.LASF172
 4094 0a64 04       		.byte	0x4
 4095 0a65 0101     		.2byte	0x101
 4096 0a67 4D080000 		.4byte	0x84d
 4097 0a6b 03       		.byte	0x3
 4098 0a6c 7D0A0000 		.4byte	0xa7d
 4099 0a70 1A       		.uleb128 0x1a
 4100 0a71 F10C0000 		.4byte	.LASF173
 4101 0a75 04       		.byte	0x4
 4102 0a76 0101     		.2byte	0x101
 4103 0a78 7D0A0000 		.4byte	0xa7d
 4104 0a7c 00       		.byte	0
 4105 0a7d 09       		.uleb128 0x9
 4106 0a7e 04       		.byte	0x4
 4107 0a7f 830A0000 		.4byte	0xa83
 4108 0a83 0A       		.uleb128 0xa
 4109 0a84 53080000 		.4byte	0x853
 4110 0a88 1B       		.uleb128 0x1b
 4111 0a89 8C050000 		.4byte	.LASF269
 4112 0a8d 04       		.byte	0x4
 4113 0a8e B0       		.byte	0xb0
 4114 0a8f 03       		.byte	0x3
 4115 0a90 AB0A0000 		.4byte	0xaab
 4116 0a94 18       		.uleb128 0x18
 4117 0a95 F10C0000 		.4byte	.LASF173
 4118 0a99 04       		.byte	0x4
 4119 0a9a B0       		.byte	0xb0
 4120 0a9b AB0A0000 		.4byte	0xaab
 4121 0a9f 18       		.uleb128 0x18
 4122 0aa0 43000000 		.4byte	.LASF174
 4123 0aa4 04       		.byte	0x4
 4124 0aa5 B0       		.byte	0xb0
 4125 0aa6 4D080000 		.4byte	0x84d
 4126 0aaa 00       		.byte	0
 4127 0aab 09       		.uleb128 0x9
 4128 0aac 04       		.byte	0x4
 4129 0aad 53080000 		.4byte	0x853
 4130 0ab1 1C       		.uleb128 0x1c
 4131 0ab2 D2090000 		.4byte	.LASF200
 4132 0ab6 01       		.byte	0x1
 4133 0ab7 B303     		.2byte	0x3b3
 4134 0ab9 00000000 		.4byte	.LFB36
 4135 0abd 44000000 		.4byte	.LFE36-.LFB36
 4136 0ac1 01       		.uleb128 0x1
 4137 0ac2 9C       		.byte	0x9c
 4138 0ac3 270B0000 		.4byte	0xb27
 4139 0ac7 1D       		.uleb128 0x1d
 4140 0ac8 F10C0000 		.4byte	.LASF173
 4141 0acc 01       		.byte	0x1
 4142 0acd B303     		.2byte	0x3b3
 4143 0acf AB0A0000 		.4byte	0xaab
 4144 0ad3 00000000 		.4byte	.LLST0
 4145 0ad7 1E       		.uleb128 0x1e
ARM GAS  C:\Users\d3bug\AppData\Local\Temp\cct3SNM7.s 			page 106


 4146 0ad8 65787400 		.ascii	"ext\000"
 4147 0adc 01       		.byte	0x1
 4148 0add B503     		.2byte	0x3b5
 4149 0adf 270B0000 		.4byte	0xb27
 4150 0ae3 21000000 		.4byte	.LLST1
 4151 0ae7 1F       		.uleb128 0x1f
 4152 0ae8 25090000 		.4byte	.LASF175
 4153 0aec 01       		.byte	0x1
 4154 0aed BE03     		.2byte	0x3be
 4155 0aef BF000000 		.4byte	0xbf
 4156 0af3 3F000000 		.4byte	.LLST2
 4157 0af7 1F       		.uleb128 0x1f
 4158 0af8 4A0E0000 		.4byte	.LASF176
 4159 0afc 01       		.byte	0x1
 4160 0afd BF03     		.2byte	0x3bf
 4161 0aff BF000000 		.4byte	0xbf
 4162 0b03 5F000000 		.4byte	.LLST3
 4163 0b07 1E       		.uleb128 0x1e
 4164 0b08 6900     		.ascii	"i\000"
 4165 0b0a 01       		.byte	0x1
 4166 0b0b C203     		.2byte	0x3c2
 4167 0b0d 9E000000 		.4byte	0x9e
 4168 0b11 72000000 		.4byte	.LLST4
 4169 0b15 20       		.uleb128 0x20
 4170 0b16 06000000 		.4byte	.LVL1
 4171 0b1a 5B230000 		.4byte	0x235b
 4172 0b1e 21       		.uleb128 0x21
 4173 0b1f 01       		.uleb128 0x1
 4174 0b20 50       		.byte	0x50
 4175 0b21 03       		.uleb128 0x3
 4176 0b22 F3       		.byte	0xf3
 4177 0b23 01       		.uleb128 0x1
 4178 0b24 50       		.byte	0x50
 4179 0b25 00       		.byte	0
 4180 0b26 00       		.byte	0
 4181 0b27 09       		.uleb128 0x9
 4182 0b28 04       		.byte	0x4
 4183 0b29 000A0000 		.4byte	0xa00
 4184 0b2d 22       		.uleb128 0x22
 4185 0b2e 56020000 		.4byte	.LASF205
 4186 0b32 01       		.byte	0x1
 4187 0b33 9402     		.2byte	0x294
 4188 0b35 C7050000 		.4byte	0x5c7
 4189 0b39 00000000 		.4byte	.LFB33
 4190 0b3d 18010000 		.4byte	.LFE33-.LFB33
 4191 0b41 01       		.uleb128 0x1
 4192 0b42 9C       		.byte	0x9c
 4193 0b43 0D0D0000 		.4byte	0xd0d
 4194 0b47 1D       		.uleb128 0x1d
 4195 0b48 F10C0000 		.4byte	.LASF173
 4196 0b4c 01       		.byte	0x1
 4197 0b4d 9402     		.2byte	0x294
 4198 0b4f AB0A0000 		.4byte	0xaab
 4199 0b53 9C000000 		.4byte	.LLST5
 4200 0b57 1D       		.uleb128 0x1d
 4201 0b58 CB080000 		.4byte	.LASF177
 4202 0b5c 01       		.byte	0x1
ARM GAS  C:\Users\d3bug\AppData\Local\Temp\cct3SNM7.s 			page 107


 4203 0b5d 9402     		.2byte	0x294
 4204 0b5f E6060000 		.4byte	0x6e6
 4205 0b63 F7000000 		.4byte	.LLST6
 4206 0b67 1D       		.uleb128 0x1d
 4207 0b68 D7010000 		.4byte	.LASF178
 4208 0b6c 01       		.byte	0x1
 4209 0b6d 9402     		.2byte	0x294
 4210 0b6f 92050000 		.4byte	0x592
 4211 0b73 2B010000 		.4byte	.LLST7
 4212 0b77 23       		.uleb128 0x23
 4213 0b78 16000000 		.4byte	.LBB27
 4214 0b7c F0000000 		.4byte	.LBE27-.LBB27
 4215 0b80 24       		.uleb128 0x24
 4216 0b81 6C0A0000 		.4byte	.LASF83
 4217 0b85 01       		.byte	0x1
 4218 0b86 9902     		.2byte	0x299
 4219 0b88 B5010000 		.4byte	0x1b5
 4220 0b8c 02       		.uleb128 0x2
 4221 0b8d 91       		.byte	0x91
 4222 0b8e 50       		.sleb128 -48
 4223 0b8f 1F       		.uleb128 0x1f
 4224 0b90 43000000 		.4byte	.LASF174
 4225 0b94 01       		.byte	0x1
 4226 0b95 9A02     		.2byte	0x29a
 4227 0b97 4D080000 		.4byte	0x84d
 4228 0b9b 65010000 		.4byte	.LLST8
 4229 0b9f 1F       		.uleb128 0x1f
 4230 0ba0 170C0000 		.4byte	.LASF96
 4231 0ba4 01       		.byte	0x1
 4232 0ba5 9B02     		.2byte	0x29b
 4233 0ba7 21010000 		.4byte	0x121
 4234 0bab 8E010000 		.4byte	.LLST9
 4235 0baf 1E       		.uleb128 0x1e
 4236 0bb0 65787400 		.ascii	"ext\000"
 4237 0bb4 01       		.byte	0x1
 4238 0bb5 A502     		.2byte	0x2a5
 4239 0bb7 270B0000 		.4byte	0xb27
 4240 0bbb AC010000 		.4byte	.LLST10
 4241 0bbf 1F       		.uleb128 0x1f
 4242 0bc0 170B0000 		.4byte	.LASF179
 4243 0bc4 01       		.byte	0x1
 4244 0bc5 B502     		.2byte	0x2b5
 4245 0bc7 B9080000 		.4byte	0x8b9
 4246 0bcb E4010000 		.4byte	.LLST11
 4247 0bcf 25       		.uleb128 0x25
 4248 0bd0 3C000000 		.4byte	.LBB28
 4249 0bd4 4A000000 		.4byte	.LBE28-.LBB28
 4250 0bd8 350C0000 		.4byte	0xc35
 4251 0bdc 26       		.uleb128 0x26
 4252 0bdd 626700   		.ascii	"bg\000"
 4253 0be0 01       		.byte	0x1
 4254 0be1 A802     		.2byte	0x2a8
 4255 0be3 B5010000 		.4byte	0x1b5
 4256 0be7 02       		.uleb128 0x2
 4257 0be8 91       		.byte	0x91
 4258 0be9 58       		.sleb128 -40
 4259 0bea 27       		.uleb128 0x27
ARM GAS  C:\Users\d3bug\AppData\Local\Temp\cct3SNM7.s 			page 108


 4260 0beb 44000000 		.4byte	.LVL21
 4261 0bef 67230000 		.4byte	0x2367
 4262 0bf3 040C0000 		.4byte	0xc04
 4263 0bf7 21       		.uleb128 0x21
 4264 0bf8 01       		.uleb128 0x1
 4265 0bf9 50       		.byte	0x50
 4266 0bfa 02       		.uleb128 0x2
 4267 0bfb 74       		.byte	0x74
 4268 0bfc 00       		.sleb128 0
 4269 0bfd 21       		.uleb128 0x21
 4270 0bfe 01       		.uleb128 0x1
 4271 0bff 51       		.byte	0x51
 4272 0c00 02       		.uleb128 0x2
 4273 0c01 91       		.byte	0x91
 4274 0c02 58       		.sleb128 -40
 4275 0c03 00       		.byte	0
 4276 0c04 27       		.uleb128 0x27
 4277 0c05 7A000000 		.4byte	.LVL22
 4278 0c09 73230000 		.4byte	0x2373
 4279 0c0d 180C0000 		.4byte	0xc18
 4280 0c11 21       		.uleb128 0x21
 4281 0c12 01       		.uleb128 0x1
 4282 0c13 50       		.byte	0x50
 4283 0c14 02       		.uleb128 0x2
 4284 0c15 74       		.byte	0x74
 4285 0c16 00       		.sleb128 0
 4286 0c17 00       		.byte	0
 4287 0c18 20       		.uleb128 0x20
 4288 0c19 86000000 		.4byte	.LVL23
 4289 0c1d 7F230000 		.4byte	0x237f
 4290 0c21 21       		.uleb128 0x21
 4291 0c22 01       		.uleb128 0x1
 4292 0c23 50       		.byte	0x50
 4293 0c24 02       		.uleb128 0x2
 4294 0c25 91       		.byte	0x91
 4295 0c26 58       		.sleb128 -40
 4296 0c27 21       		.uleb128 0x21
 4297 0c28 01       		.uleb128 0x1
 4298 0c29 51       		.byte	0x51
 4299 0c2a 02       		.uleb128 0x2
 4300 0c2b 76       		.byte	0x76
 4301 0c2c 00       		.sleb128 0
 4302 0c2d 21       		.uleb128 0x21
 4303 0c2e 01       		.uleb128 0x1
 4304 0c2f 52       		.byte	0x52
 4305 0c30 02       		.uleb128 0x2
 4306 0c31 78       		.byte	0x78
 4307 0c32 00       		.sleb128 0
 4308 0c33 00       		.byte	0
 4309 0c34 00       		.byte	0
 4310 0c35 25       		.uleb128 0x25
 4311 0c36 C0000000 		.4byte	.LBB29
 4312 0c3a 30000000 		.4byte	.LBE29-.LBB29
 4313 0c3e 850C0000 		.4byte	0xc85
 4314 0c42 24       		.uleb128 0x24
 4315 0c43 83080000 		.4byte	.LASF180
 4316 0c47 01       		.byte	0x1
ARM GAS  C:\Users\d3bug\AppData\Local\Temp\cct3SNM7.s 			page 109


 4317 0c48 BF02     		.2byte	0x2bf
 4318 0c4a 75010000 		.4byte	0x175
 4319 0c4e 02       		.uleb128 0x2
 4320 0c4f 91       		.byte	0x91
 4321 0c50 58       		.sleb128 -40
 4322 0c51 27       		.uleb128 0x27
 4323 0c52 DE000000 		.4byte	.LVL28
 4324 0c56 8A230000 		.4byte	0x238a
 4325 0c5a 740C0000 		.4byte	0xc74
 4326 0c5e 21       		.uleb128 0x21
 4327 0c5f 01       		.uleb128 0x1
 4328 0c60 50       		.byte	0x50
 4329 0c61 02       		.uleb128 0x2
 4330 0c62 91       		.byte	0x91
 4331 0c63 58       		.sleb128 -40
 4332 0c64 21       		.uleb128 0x21
 4333 0c65 02       		.uleb128 0x2
 4334 0c66 7D       		.byte	0x7d
 4335 0c67 04       		.sleb128 4
 4336 0c68 03       		.uleb128 0x3
 4337 0c69 0A       		.byte	0xa
 4338 0c6a FF3F     		.2byte	0x3fff
 4339 0c6c 21       		.uleb128 0x21
 4340 0c6d 02       		.uleb128 0x2
 4341 0c6e 7D       		.byte	0x7d
 4342 0c6f 08       		.sleb128 8
 4343 0c70 02       		.uleb128 0x2
 4344 0c71 77       		.byte	0x77
 4345 0c72 00       		.sleb128 0
 4346 0c73 00       		.byte	0
 4347 0c74 20       		.uleb128 0x20
 4348 0c75 E8000000 		.4byte	.LVL29
 4349 0c79 95230000 		.4byte	0x2395
 4350 0c7d 21       		.uleb128 0x21
 4351 0c7e 01       		.uleb128 0x1
 4352 0c7f 50       		.byte	0x50
 4353 0c80 02       		.uleb128 0x2
 4354 0c81 74       		.byte	0x74
 4355 0c82 00       		.sleb128 0
 4356 0c83 00       		.byte	0
 4357 0c84 00       		.byte	0
 4358 0c85 27       		.uleb128 0x27
 4359 0c86 1A000000 		.4byte	.LVL12
 4360 0c8a A1230000 		.4byte	0x23a1
 4361 0c8e 990C0000 		.4byte	0xc99
 4362 0c92 21       		.uleb128 0x21
 4363 0c93 01       		.uleb128 0x1
 4364 0c94 50       		.byte	0x50
 4365 0c95 02       		.uleb128 0x2
 4366 0c96 74       		.byte	0x74
 4367 0c97 00       		.sleb128 0
 4368 0c98 00       		.byte	0
 4369 0c99 27       		.uleb128 0x27
 4370 0c9a 22000000 		.4byte	.LVL15
 4371 0c9e 73230000 		.4byte	0x2373
 4372 0ca2 AD0C0000 		.4byte	0xcad
 4373 0ca6 21       		.uleb128 0x21
ARM GAS  C:\Users\d3bug\AppData\Local\Temp\cct3SNM7.s 			page 110


 4374 0ca7 01       		.uleb128 0x1
 4375 0ca8 50       		.byte	0x50
 4376 0ca9 02       		.uleb128 0x2
 4377 0caa 74       		.byte	0x74
 4378 0cab 00       		.sleb128 0
 4379 0cac 00       		.byte	0
 4380 0cad 27       		.uleb128 0x27
 4381 0cae 2C000000 		.4byte	.LVL17
 4382 0cb2 67230000 		.4byte	0x2367
 4383 0cb6 C70C0000 		.4byte	0xcc7
 4384 0cba 21       		.uleb128 0x21
 4385 0cbb 01       		.uleb128 0x1
 4386 0cbc 50       		.byte	0x50
 4387 0cbd 02       		.uleb128 0x2
 4388 0cbe 74       		.byte	0x74
 4389 0cbf 00       		.sleb128 0
 4390 0cc0 21       		.uleb128 0x21
 4391 0cc1 01       		.uleb128 0x1
 4392 0cc2 51       		.byte	0x51
 4393 0cc3 02       		.uleb128 0x2
 4394 0cc4 91       		.byte	0x91
 4395 0cc5 50       		.sleb128 -48
 4396 0cc6 00       		.byte	0
 4397 0cc7 27       		.uleb128 0x27
 4398 0cc8 32000000 		.4byte	.LVL18
 4399 0ccc 5B230000 		.4byte	0x235b
 4400 0cd0 DB0C0000 		.4byte	0xcdb
 4401 0cd4 21       		.uleb128 0x21
 4402 0cd5 01       		.uleb128 0x1
 4403 0cd6 50       		.byte	0x50
 4404 0cd7 02       		.uleb128 0x2
 4405 0cd8 74       		.byte	0x74
 4406 0cd9 00       		.sleb128 0
 4407 0cda 00       		.byte	0
 4408 0cdb 20       		.uleb128 0x20
 4409 0cdc 06010000 		.4byte	.LVL33
 4410 0ce0 AD230000 		.4byte	0x23ad
 4411 0ce4 21       		.uleb128 0x21
 4412 0ce5 01       		.uleb128 0x1
 4413 0ce6 50       		.byte	0x50
 4414 0ce7 02       		.uleb128 0x2
 4415 0ce8 91       		.byte	0x91
 4416 0ce9 50       		.sleb128 -48
 4417 0cea 21       		.uleb128 0x21
 4418 0ceb 01       		.uleb128 0x1
 4419 0cec 51       		.byte	0x51
 4420 0ced 02       		.uleb128 0x2
 4421 0cee 76       		.byte	0x76
 4422 0cef 00       		.sleb128 0
 4423 0cf0 21       		.uleb128 0x21
 4424 0cf1 01       		.uleb128 0x1
 4425 0cf2 52       		.byte	0x52
 4426 0cf3 02       		.uleb128 0x2
 4427 0cf4 78       		.byte	0x78
 4428 0cf5 00       		.sleb128 0
 4429 0cf6 21       		.uleb128 0x21
 4430 0cf7 01       		.uleb128 0x1
ARM GAS  C:\Users\d3bug\AppData\Local\Temp\cct3SNM7.s 			page 111


 4431 0cf8 53       		.byte	0x53
 4432 0cf9 02       		.uleb128 0x2
 4433 0cfa 79       		.byte	0x79
 4434 0cfb 00       		.sleb128 0
 4435 0cfc 21       		.uleb128 0x21
 4436 0cfd 02       		.uleb128 0x2
 4437 0cfe 7D       		.byte	0x7d
 4438 0cff 04       		.sleb128 4
 4439 0d00 02       		.uleb128 0x2
 4440 0d01 77       		.byte	0x77
 4441 0d02 00       		.sleb128 0
 4442 0d03 21       		.uleb128 0x21
 4443 0d04 02       		.uleb128 0x2
 4444 0d05 7D       		.byte	0x7d
 4445 0d06 08       		.sleb128 8
 4446 0d07 02       		.uleb128 0x2
 4447 0d08 75       		.byte	0x75
 4448 0d09 00       		.sleb128 0
 4449 0d0a 00       		.byte	0
 4450 0d0b 00       		.byte	0
 4451 0d0c 00       		.byte	0
 4452 0d0d 28       		.uleb128 0x28
 4453 0d0e 79050000 		.4byte	.LASF181
 4454 0d12 01       		.byte	0x1
 4455 0d13 2501     		.2byte	0x125
 4456 0d15 00000000 		.4byte	.LFB19
 4457 0d19 24000000 		.4byte	.LFE19-.LFB19
 4458 0d1d 01       		.uleb128 0x1
 4459 0d1e 9C       		.byte	0x9c
 4460 0d1f 780D0000 		.4byte	0xd78
 4461 0d23 1D       		.uleb128 0x1d
 4462 0d24 F10C0000 		.4byte	.LASF173
 4463 0d28 01       		.byte	0x1
 4464 0d29 2501     		.2byte	0x125
 4465 0d2b AB0A0000 		.4byte	0xaab
 4466 0d2f 29020000 		.4byte	.LLST12
 4467 0d33 1D       		.uleb128 0x1d
 4468 0d34 88080000 		.4byte	.LASF130
 4469 0d38 01       		.byte	0x1
 4470 0d39 2501     		.2byte	0x125
 4471 0d3b 49090000 		.4byte	0x949
 4472 0d3f 47020000 		.4byte	.LLST13
 4473 0d43 1E       		.uleb128 0x1e
 4474 0d44 65787400 		.ascii	"ext\000"
 4475 0d48 01       		.byte	0x1
 4476 0d49 2701     		.2byte	0x127
 4477 0d4b 270B0000 		.4byte	0xb27
 4478 0d4f 68020000 		.4byte	.LLST14
 4479 0d53 27       		.uleb128 0x27
 4480 0d54 0A000000 		.4byte	.LVL40
 4481 0d58 5B230000 		.4byte	0x235b
 4482 0d5c 670D0000 		.4byte	0xd67
 4483 0d60 21       		.uleb128 0x21
 4484 0d61 01       		.uleb128 0x1
 4485 0d62 50       		.byte	0x50
 4486 0d63 02       		.uleb128 0x2
 4487 0d64 75       		.byte	0x75
ARM GAS  C:\Users\d3bug\AppData\Local\Temp\cct3SNM7.s 			page 112


 4488 0d65 00       		.sleb128 0
 4489 0d66 00       		.byte	0
 4490 0d67 20       		.uleb128 0x20
 4491 0d68 22000000 		.4byte	.LVL42
 4492 0d6c B8230000 		.4byte	0x23b8
 4493 0d70 21       		.uleb128 0x21
 4494 0d71 01       		.uleb128 0x1
 4495 0d72 50       		.byte	0x50
 4496 0d73 02       		.uleb128 0x2
 4497 0d74 75       		.byte	0x75
 4498 0d75 00       		.sleb128 0
 4499 0d76 00       		.byte	0
 4500 0d77 00       		.byte	0
 4501 0d78 28       		.uleb128 0x28
 4502 0d79 360D0000 		.4byte	.LASF182
 4503 0d7d 01       		.byte	0x1
 4504 0d7e 4301     		.2byte	0x143
 4505 0d80 00000000 		.4byte	.LFB21
 4506 0d84 32000000 		.4byte	.LFE21-.LFB21
 4507 0d88 01       		.uleb128 0x1
 4508 0d89 9C       		.byte	0x9c
 4509 0d8a F60D0000 		.4byte	0xdf6
 4510 0d8e 1D       		.uleb128 0x1d
 4511 0d8f F10C0000 		.4byte	.LASF173
 4512 0d93 01       		.byte	0x1
 4513 0d94 4301     		.2byte	0x143
 4514 0d96 AB0A0000 		.4byte	0xaab
 4515 0d9a 7B020000 		.4byte	.LLST15
 4516 0d9e 29       		.uleb128 0x29
 4517 0d9f 656E00   		.ascii	"en\000"
 4518 0da2 01       		.byte	0x1
 4519 0da3 4301     		.2byte	0x143
 4520 0da5 C7050000 		.4byte	0x5c7
 4521 0da9 99020000 		.4byte	.LLST16
 4522 0dad 1E       		.uleb128 0x1e
 4523 0dae 65787400 		.ascii	"ext\000"
 4524 0db2 01       		.byte	0x1
 4525 0db3 4501     		.2byte	0x145
 4526 0db5 270B0000 		.4byte	0xb27
 4527 0db9 BA020000 		.4byte	.LLST17
 4528 0dbd 27       		.uleb128 0x27
 4529 0dbe 0A000000 		.4byte	.LVL44
 4530 0dc2 5B230000 		.4byte	0x235b
 4531 0dc6 D10D0000 		.4byte	0xdd1
 4532 0dca 21       		.uleb128 0x21
 4533 0dcb 01       		.uleb128 0x1
 4534 0dcc 50       		.byte	0x50
 4535 0dcd 02       		.uleb128 0x2
 4536 0dce 75       		.byte	0x75
 4537 0dcf 00       		.sleb128 0
 4538 0dd0 00       		.byte	0
 4539 0dd1 27       		.uleb128 0x27
 4540 0dd2 2A000000 		.4byte	.LVL46
 4541 0dd6 C4230000 		.4byte	0x23c4
 4542 0dda E50D0000 		.4byte	0xde5
 4543 0dde 21       		.uleb128 0x21
 4544 0ddf 01       		.uleb128 0x1
ARM GAS  C:\Users\d3bug\AppData\Local\Temp\cct3SNM7.s 			page 113


 4545 0de0 50       		.byte	0x50
 4546 0de1 02       		.uleb128 0x2
 4547 0de2 75       		.byte	0x75
 4548 0de3 00       		.sleb128 0
 4549 0de4 00       		.byte	0
 4550 0de5 20       		.uleb128 0x20
 4551 0de6 30000000 		.4byte	.LVL47
 4552 0dea B8230000 		.4byte	0x23b8
 4553 0dee 21       		.uleb128 0x21
 4554 0def 01       		.uleb128 0x1
 4555 0df0 50       		.byte	0x50
 4556 0df1 02       		.uleb128 0x2
 4557 0df2 75       		.byte	0x75
 4558 0df3 00       		.sleb128 0
 4559 0df4 00       		.byte	0
 4560 0df5 00       		.byte	0
 4561 0df6 2A       		.uleb128 0x2a
 4562 0df7 600E0000 		.4byte	.LASF183
 4563 0dfb 01       		.byte	0x1
 4564 0dfc 6901     		.2byte	0x169
 4565 0dfe 35010000 		.4byte	0x135
 4566 0e02 00000000 		.4byte	.LFB23
 4567 0e06 0A000000 		.4byte	.LFE23-.LFB23
 4568 0e0a 01       		.uleb128 0x1
 4569 0e0b 9C       		.byte	0x9c
 4570 0e0c 420E0000 		.4byte	0xe42
 4571 0e10 1D       		.uleb128 0x1d
 4572 0e11 F10C0000 		.4byte	.LASF173
 4573 0e15 01       		.byte	0x1
 4574 0e16 6901     		.2byte	0x169
 4575 0e18 7D0A0000 		.4byte	0xa7d
 4576 0e1c CD020000 		.4byte	.LLST18
 4577 0e20 1E       		.uleb128 0x1e
 4578 0e21 65787400 		.ascii	"ext\000"
 4579 0e25 01       		.byte	0x1
 4580 0e26 6B01     		.2byte	0x16b
 4581 0e28 270B0000 		.4byte	0xb27
 4582 0e2c EE020000 		.4byte	.LLST19
 4583 0e30 20       		.uleb128 0x20
 4584 0e31 06000000 		.4byte	.LVL49
 4585 0e35 5B230000 		.4byte	0x235b
 4586 0e39 21       		.uleb128 0x21
 4587 0e3a 01       		.uleb128 0x1
 4588 0e3b 50       		.byte	0x50
 4589 0e3c 03       		.uleb128 0x3
 4590 0e3d F3       		.byte	0xf3
 4591 0e3e 01       		.uleb128 0x1
 4592 0e3f 50       		.byte	0x50
 4593 0e40 00       		.byte	0
 4594 0e41 00       		.byte	0
 4595 0e42 2A       		.uleb128 0x2a
 4596 0e43 F90B0000 		.4byte	.LASF184
 4597 0e47 01       		.byte	0x1
 4598 0e48 8201     		.2byte	0x182
 4599 0e4a 1F090000 		.4byte	0x91f
 4600 0e4e 00000000 		.4byte	.LFB24
 4601 0e52 0A000000 		.4byte	.LFE24-.LFB24
ARM GAS  C:\Users\d3bug\AppData\Local\Temp\cct3SNM7.s 			page 114


 4602 0e56 01       		.uleb128 0x1
 4603 0e57 9C       		.byte	0x9c
 4604 0e58 8E0E0000 		.4byte	0xe8e
 4605 0e5c 1D       		.uleb128 0x1d
 4606 0e5d F10C0000 		.4byte	.LASF173
 4607 0e61 01       		.byte	0x1
 4608 0e62 8201     		.2byte	0x182
 4609 0e64 7D0A0000 		.4byte	0xa7d
 4610 0e68 01030000 		.4byte	.LLST20
 4611 0e6c 1E       		.uleb128 0x1e
 4612 0e6d 65787400 		.ascii	"ext\000"
 4613 0e71 01       		.byte	0x1
 4614 0e72 8401     		.2byte	0x184
 4615 0e74 270B0000 		.4byte	0xb27
 4616 0e78 22030000 		.4byte	.LLST21
 4617 0e7c 20       		.uleb128 0x20
 4618 0e7d 06000000 		.4byte	.LVL52
 4619 0e81 5B230000 		.4byte	0x235b
 4620 0e85 21       		.uleb128 0x21
 4621 0e86 01       		.uleb128 0x1
 4622 0e87 50       		.byte	0x50
 4623 0e88 03       		.uleb128 0x3
 4624 0e89 F3       		.byte	0xf3
 4625 0e8a 01       		.uleb128 0x1
 4626 0e8b 50       		.byte	0x50
 4627 0e8c 00       		.byte	0
 4628 0e8d 00       		.byte	0
 4629 0e8e 2A       		.uleb128 0x2a
 4630 0e8f F20E0000 		.4byte	.LASF185
 4631 0e93 01       		.byte	0x1
 4632 0e94 8D01     		.2byte	0x18d
 4633 0e96 49090000 		.4byte	0x949
 4634 0e9a 00000000 		.4byte	.LFB25
 4635 0e9e 0E000000 		.4byte	.LFE25-.LFB25
 4636 0ea2 01       		.uleb128 0x1
 4637 0ea3 9C       		.byte	0x9c
 4638 0ea4 DA0E0000 		.4byte	0xeda
 4639 0ea8 1D       		.uleb128 0x1d
 4640 0ea9 F10C0000 		.4byte	.LASF173
 4641 0ead 01       		.byte	0x1
 4642 0eae 8D01     		.2byte	0x18d
 4643 0eb0 7D0A0000 		.4byte	0xa7d
 4644 0eb4 35030000 		.4byte	.LLST22
 4645 0eb8 1E       		.uleb128 0x1e
 4646 0eb9 65787400 		.ascii	"ext\000"
 4647 0ebd 01       		.byte	0x1
 4648 0ebe 8F01     		.2byte	0x18f
 4649 0ec0 270B0000 		.4byte	0xb27
 4650 0ec4 56030000 		.4byte	.LLST23
 4651 0ec8 20       		.uleb128 0x20
 4652 0ec9 06000000 		.4byte	.LVL55
 4653 0ecd 5B230000 		.4byte	0x235b
 4654 0ed1 21       		.uleb128 0x21
 4655 0ed2 01       		.uleb128 0x1
 4656 0ed3 50       		.byte	0x50
 4657 0ed4 03       		.uleb128 0x3
 4658 0ed5 F3       		.byte	0xf3
ARM GAS  C:\Users\d3bug\AppData\Local\Temp\cct3SNM7.s 			page 115


 4659 0ed6 01       		.uleb128 0x1
 4660 0ed7 50       		.byte	0x50
 4661 0ed8 00       		.byte	0
 4662 0ed9 00       		.byte	0
 4663 0eda 2A       		.uleb128 0x2a
 4664 0edb 2B060000 		.4byte	.LASF186
 4665 0edf 01       		.byte	0x1
 4666 0ee0 9801     		.2byte	0x198
 4667 0ee2 C7050000 		.4byte	0x5c7
 4668 0ee6 00000000 		.4byte	.LFB26
 4669 0eea 0E000000 		.4byte	.LFE26-.LFB26
 4670 0eee 01       		.uleb128 0x1
 4671 0eef 9C       		.byte	0x9c
 4672 0ef0 260F0000 		.4byte	0xf26
 4673 0ef4 1D       		.uleb128 0x1d
 4674 0ef5 F10C0000 		.4byte	.LASF173
 4675 0ef9 01       		.byte	0x1
 4676 0efa 9801     		.2byte	0x198
 4677 0efc 7D0A0000 		.4byte	0xa7d
 4678 0f00 69030000 		.4byte	.LLST24
 4679 0f04 1E       		.uleb128 0x1e
 4680 0f05 65787400 		.ascii	"ext\000"
 4681 0f09 01       		.byte	0x1
 4682 0f0a 9A01     		.2byte	0x19a
 4683 0f0c 270B0000 		.4byte	0xb27
 4684 0f10 8A030000 		.4byte	.LLST25
 4685 0f14 20       		.uleb128 0x20
 4686 0f15 06000000 		.4byte	.LVL58
 4687 0f19 5B230000 		.4byte	0x235b
 4688 0f1d 21       		.uleb128 0x21
 4689 0f1e 01       		.uleb128 0x1
 4690 0f1f 50       		.byte	0x50
 4691 0f20 03       		.uleb128 0x3
 4692 0f21 F3       		.byte	0xf3
 4693 0f22 01       		.uleb128 0x1
 4694 0f23 50       		.byte	0x50
 4695 0f24 00       		.byte	0
 4696 0f25 00       		.byte	0
 4697 0f26 2A       		.uleb128 0x2a
 4698 0f27 17010000 		.4byte	.LASF187
 4699 0f2b 01       		.byte	0x1
 4700 0f2c A301     		.2byte	0x1a3
 4701 0f2e C7050000 		.4byte	0x5c7
 4702 0f32 00000000 		.4byte	.LFB27
 4703 0f36 0E000000 		.4byte	.LFE27-.LFB27
 4704 0f3a 01       		.uleb128 0x1
 4705 0f3b 9C       		.byte	0x9c
 4706 0f3c 720F0000 		.4byte	0xf72
 4707 0f40 1D       		.uleb128 0x1d
 4708 0f41 F10C0000 		.4byte	.LASF173
 4709 0f45 01       		.byte	0x1
 4710 0f46 A301     		.2byte	0x1a3
 4711 0f48 7D0A0000 		.4byte	0xa7d
 4712 0f4c 9D030000 		.4byte	.LLST26
 4713 0f50 1E       		.uleb128 0x1e
 4714 0f51 65787400 		.ascii	"ext\000"
 4715 0f55 01       		.byte	0x1
ARM GAS  C:\Users\d3bug\AppData\Local\Temp\cct3SNM7.s 			page 116


 4716 0f56 A501     		.2byte	0x1a5
 4717 0f58 270B0000 		.4byte	0xb27
 4718 0f5c BE030000 		.4byte	.LLST27
 4719 0f60 20       		.uleb128 0x20
 4720 0f61 06000000 		.4byte	.LVL61
 4721 0f65 5B230000 		.4byte	0x235b
 4722 0f69 21       		.uleb128 0x21
 4723 0f6a 01       		.uleb128 0x1
 4724 0f6b 50       		.byte	0x50
 4725 0f6c 03       		.uleb128 0x3
 4726 0f6d F3       		.byte	0xf3
 4727 0f6e 01       		.uleb128 0x1
 4728 0f6f 50       		.byte	0x50
 4729 0f70 00       		.byte	0
 4730 0f71 00       		.byte	0
 4731 0f72 2A       		.uleb128 0x2a
 4732 0f73 81090000 		.4byte	.LASF188
 4733 0f77 01       		.byte	0x1
 4734 0f78 AE01     		.2byte	0x1ae
 4735 0f7a B4000000 		.4byte	0xb4
 4736 0f7e 00000000 		.4byte	.LFB28
 4737 0f82 0A000000 		.4byte	.LFE28-.LFB28
 4738 0f86 01       		.uleb128 0x1
 4739 0f87 9C       		.byte	0x9c
 4740 0f88 BE0F0000 		.4byte	0xfbe
 4741 0f8c 1D       		.uleb128 0x1d
 4742 0f8d F10C0000 		.4byte	.LASF173
 4743 0f91 01       		.byte	0x1
 4744 0f92 AE01     		.2byte	0x1ae
 4745 0f94 7D0A0000 		.4byte	0xa7d
 4746 0f98 D1030000 		.4byte	.LLST28
 4747 0f9c 1E       		.uleb128 0x1e
 4748 0f9d 65787400 		.ascii	"ext\000"
 4749 0fa1 01       		.byte	0x1
 4750 0fa2 B001     		.2byte	0x1b0
 4751 0fa4 270B0000 		.4byte	0xb27
 4752 0fa8 F2030000 		.4byte	.LLST29
 4753 0fac 20       		.uleb128 0x20
 4754 0fad 06000000 		.4byte	.LVL64
 4755 0fb1 5B230000 		.4byte	0x235b
 4756 0fb5 21       		.uleb128 0x21
 4757 0fb6 01       		.uleb128 0x1
 4758 0fb7 50       		.byte	0x50
 4759 0fb8 03       		.uleb128 0x3
 4760 0fb9 F3       		.byte	0xf3
 4761 0fba 01       		.uleb128 0x1
 4762 0fbb 50       		.byte	0x50
 4763 0fbc 00       		.byte	0
 4764 0fbd 00       		.byte	0
 4765 0fbe 28       		.uleb128 0x28
 4766 0fbf AF010000 		.4byte	.LASF189
 4767 0fc3 01       		.byte	0x1
 4768 0fc4 BA01     		.2byte	0x1ba
 4769 0fc6 00000000 		.4byte	.LFB29
 4770 0fca AC010000 		.4byte	.LFE29-.LFB29
 4771 0fce 01       		.uleb128 0x1
 4772 0fcf 9C       		.byte	0x9c
ARM GAS  C:\Users\d3bug\AppData\Local\Temp\cct3SNM7.s 			page 117


 4773 0fd0 2E120000 		.4byte	0x122e
 4774 0fd4 1D       		.uleb128 0x1d
 4775 0fd5 F10C0000 		.4byte	.LASF173
 4776 0fd9 01       		.byte	0x1
 4777 0fda BA01     		.2byte	0x1ba
 4778 0fdc 7D0A0000 		.4byte	0xa7d
 4779 0fe0 05040000 		.4byte	.LLST30
 4780 0fe4 1D       		.uleb128 0x1d
 4781 0fe5 26030000 		.4byte	.LASF190
 4782 0fe9 01       		.byte	0x1
 4783 0fea BA01     		.2byte	0x1ba
 4784 0fec B4000000 		.4byte	0xb4
 4785 0ff0 3B040000 		.4byte	.LLST31
 4786 0ff4 29       		.uleb128 0x29
 4787 0ff5 706F7300 		.ascii	"pos\000"
 4788 0ff9 01       		.byte	0x1
 4789 0ffa BA01     		.2byte	0x1ba
 4790 0ffc 2E120000 		.4byte	0x122e
 4791 1000 7F040000 		.4byte	.LLST32
 4792 1004 1E       		.uleb128 0x1e
 4793 1005 74787400 		.ascii	"txt\000"
 4794 1009 01       		.byte	0x1
 4795 100a BC01     		.2byte	0x1bc
 4796 100c 42010000 		.4byte	0x142
 4797 1010 AA040000 		.4byte	.LLST33
 4798 1014 1E       		.uleb128 0x1e
 4799 1015 65787400 		.ascii	"ext\000"
 4800 1019 01       		.byte	0x1
 4801 101a BD01     		.2byte	0x1bd
 4802 101c 270B0000 		.4byte	0xb27
 4803 1020 C8040000 		.4byte	.LLST34
 4804 1024 1F       		.uleb128 0x1f
 4805 1025 610A0000 		.4byte	.LASF191
 4806 1029 01       		.byte	0x1
 4807 102a BE01     		.2byte	0x1be
 4808 102c BF000000 		.4byte	0xbf
 4809 1030 FE040000 		.4byte	.LLST35
 4810 1034 1F       		.uleb128 0x1f
 4811 1035 050F0000 		.4byte	.LASF192
 4812 1039 01       		.byte	0x1
 4813 103a BF01     		.2byte	0x1bf
 4814 103c BF000000 		.4byte	0xbf
 4815 1040 54050000 		.4byte	.LLST36
 4816 1044 1F       		.uleb128 0x1f
 4817 1045 CF0E0000 		.4byte	.LASF193
 4818 1049 01       		.byte	0x1
 4819 104a C001     		.2byte	0x1c0
 4820 104c 4D010000 		.4byte	0x14d
 4821 1050 9F050000 		.4byte	.LLST37
 4822 1054 1F       		.uleb128 0x1f
 4823 1055 43000000 		.4byte	.LASF174
 4824 1059 01       		.byte	0x1
 4825 105a C101     		.2byte	0x1c1
 4826 105c 4D080000 		.4byte	0x84d
 4827 1060 CB050000 		.4byte	.LLST38
 4828 1064 1F       		.uleb128 0x1f
 4829 1065 830B0000 		.4byte	.LASF58
ARM GAS  C:\Users\d3bug\AppData\Local\Temp\cct3SNM7.s 			page 118


 4830 1069 01       		.byte	0x1
 4831 106a C201     		.2byte	0x1c2
 4832 106c 63040000 		.4byte	0x463
 4833 1070 E9050000 		.4byte	.LLST39
 4834 1074 2B       		.uleb128 0x2b
 4835 1075 62000000 		.4byte	.LASF196
 4836 1079 01       		.byte	0x1
 4837 107a C301     		.2byte	0x1c3
 4838 107c 9E000000 		.4byte	0x9e
 4839 1080 1E       		.uleb128 0x1e
 4840 1081 7900     		.ascii	"y\000"
 4841 1083 01       		.byte	0x1
 4842 1084 C401     		.2byte	0x1c4
 4843 1086 4D010000 		.4byte	0x14d
 4844 108a 2C060000 		.4byte	.LLST40
 4845 108e 1F       		.uleb128 0x1f
 4846 108f 170B0000 		.4byte	.LASF179
 4847 1093 01       		.byte	0x1
 4848 1094 C501     		.2byte	0x1c5
 4849 1096 B9080000 		.4byte	0x8b9
 4850 109a 6D060000 		.4byte	.LLST41
 4851 109e 1E       		.uleb128 0x1e
 4852 109f 7800     		.ascii	"x\000"
 4853 10a1 01       		.byte	0x1
 4854 10a2 E401     		.2byte	0x1e4
 4855 10a4 4D010000 		.4byte	0x14d
 4856 10a8 8C060000 		.4byte	.LLST42
 4857 10ac 2C       		.uleb128 0x2c
 4858 10ad 0B0A0000 		.4byte	0xa0b
 4859 10b1 32000000 		.4byte	.LBB30
 4860 10b5 04000000 		.4byte	.LBE30-.LBB30
 4861 10b9 01       		.byte	0x1
 4862 10ba C301     		.2byte	0x1c3
 4863 10bc CA100000 		.4byte	0x10ca
 4864 10c0 2D       		.uleb128 0x2d
 4865 10c1 1B0A0000 		.4byte	0xa1b
 4866 10c5 CC060000 		.4byte	.LLST43
 4867 10c9 00       		.byte	0
 4868 10ca 25       		.uleb128 0x25
 4869 10cb 36010000 		.4byte	.LBB32
 4870 10cf 36000000 		.4byte	.LBE32-.LBB32
 4871 10d3 24110000 		.4byte	0x1124
 4872 10d7 1F       		.uleb128 0x1f
 4873 10d8 DC010000 		.4byte	.LASF194
 4874 10dc 01       		.byte	0x1
 4875 10dd EA01     		.2byte	0x1ea
 4876 10df 4D010000 		.4byte	0x14d
 4877 10e3 DF060000 		.4byte	.LLST44
 4878 10e7 27       		.uleb128 0x27
 4879 10e8 4C010000 		.4byte	.LVL108
 4880 10ec D0230000 		.4byte	0x23d0
 4881 10f0 12110000 		.4byte	0x1112
 4882 10f4 21       		.uleb128 0x21
 4883 10f5 01       		.uleb128 0x1
 4884 10f6 50       		.byte	0x50
 4885 10f7 02       		.uleb128 0x2
 4886 10f8 77       		.byte	0x77
ARM GAS  C:\Users\d3bug\AppData\Local\Temp\cct3SNM7.s 			page 119


 4887 10f9 00       		.sleb128 0
 4888 10fa 21       		.uleb128 0x21
 4889 10fb 01       		.uleb128 0x1
 4890 10fc 51       		.byte	0x51
 4891 10fd 05       		.uleb128 0x5
 4892 10fe 76       		.byte	0x76
 4893 10ff 00       		.sleb128 0
 4894 1100 7A       		.byte	0x7a
 4895 1101 00       		.sleb128 0
 4896 1102 1C       		.byte	0x1c
 4897 1103 21       		.uleb128 0x21
 4898 1104 01       		.uleb128 0x1
 4899 1105 52       		.byte	0x52
 4900 1106 03       		.uleb128 0x3
 4901 1107 91       		.byte	0x91
 4902 1108 44       		.sleb128 -60
 4903 1109 06       		.byte	0x6
 4904 110a 21       		.uleb128 0x21
 4905 110b 02       		.uleb128 0x2
 4906 110c 7D       		.byte	0x7d
 4907 110d 00       		.sleb128 0
 4908 110e 02       		.uleb128 0x2
 4909 110f 79       		.byte	0x79
 4910 1110 00       		.sleb128 0
 4911 1111 00       		.byte	0
 4912 1112 20       		.uleb128 0x20
 4913 1113 54010000 		.4byte	.LVL110
 4914 1117 95230000 		.4byte	0x2395
 4915 111b 21       		.uleb128 0x21
 4916 111c 01       		.uleb128 0x1
 4917 111d 50       		.byte	0x50
 4918 111e 03       		.uleb128 0x3
 4919 111f 91       		.byte	0x91
 4920 1120 54       		.sleb128 -44
 4921 1121 06       		.byte	0x6
 4922 1122 00       		.byte	0
 4923 1123 00       		.byte	0
 4924 1124 25       		.uleb128 0x25
 4925 1125 72010000 		.4byte	.LBB33
 4926 1129 26000000 		.4byte	.LBE33-.LBB33
 4927 112d 7E110000 		.4byte	0x117e
 4928 1131 1F       		.uleb128 0x1f
 4929 1132 DC010000 		.4byte	.LASF194
 4930 1136 01       		.byte	0x1
 4931 1137 F001     		.2byte	0x1f0
 4932 1139 4D010000 		.4byte	0x14d
 4933 113d F2060000 		.4byte	.LLST45
 4934 1141 27       		.uleb128 0x27
 4935 1142 88010000 		.4byte	.LVL115
 4936 1146 D0230000 		.4byte	0x23d0
 4937 114a 6C110000 		.4byte	0x116c
 4938 114e 21       		.uleb128 0x21
 4939 114f 01       		.uleb128 0x1
 4940 1150 50       		.byte	0x50
 4941 1151 02       		.uleb128 0x2
 4942 1152 77       		.byte	0x77
 4943 1153 00       		.sleb128 0
ARM GAS  C:\Users\d3bug\AppData\Local\Temp\cct3SNM7.s 			page 120


 4944 1154 21       		.uleb128 0x21
 4945 1155 01       		.uleb128 0x1
 4946 1156 51       		.byte	0x51
 4947 1157 05       		.uleb128 0x5
 4948 1158 76       		.byte	0x76
 4949 1159 00       		.sleb128 0
 4950 115a 7A       		.byte	0x7a
 4951 115b 00       		.sleb128 0
 4952 115c 1C       		.byte	0x1c
 4953 115d 21       		.uleb128 0x21
 4954 115e 01       		.uleb128 0x1
 4955 115f 52       		.byte	0x52
 4956 1160 03       		.uleb128 0x3
 4957 1161 91       		.byte	0x91
 4958 1162 44       		.sleb128 -60
 4959 1163 06       		.byte	0x6
 4960 1164 21       		.uleb128 0x21
 4961 1165 02       		.uleb128 0x2
 4962 1166 7D       		.byte	0x7d
 4963 1167 00       		.sleb128 0
 4964 1168 02       		.uleb128 0x2
 4965 1169 79       		.byte	0x79
 4966 116a 00       		.sleb128 0
 4967 116b 00       		.byte	0
 4968 116c 20       		.uleb128 0x20
 4969 116d 90010000 		.4byte	.LVL117
 4970 1171 95230000 		.4byte	0x2395
 4971 1175 21       		.uleb128 0x21
 4972 1176 01       		.uleb128 0x1
 4973 1177 50       		.byte	0x50
 4974 1178 03       		.uleb128 0x3
 4975 1179 91       		.byte	0x91
 4976 117a 54       		.sleb128 -44
 4977 117b 06       		.byte	0x6
 4978 117c 00       		.byte	0
 4979 117d 00       		.byte	0
 4980 117e 27       		.uleb128 0x27
 4981 117f 12000000 		.4byte	.LVL67
 4982 1183 F60D0000 		.4byte	0xdf6
 4983 1187 92110000 		.4byte	0x1192
 4984 118b 21       		.uleb128 0x21
 4985 118c 01       		.uleb128 0x1
 4986 118d 50       		.byte	0x50
 4987 118e 02       		.uleb128 0x2
 4988 118f 75       		.byte	0x75
 4989 1190 00       		.sleb128 0
 4990 1191 00       		.byte	0
 4991 1192 27       		.uleb128 0x27
 4992 1193 1A000000 		.4byte	.LVL70
 4993 1197 5B230000 		.4byte	0x235b
 4994 119b A6110000 		.4byte	0x11a6
 4995 119f 21       		.uleb128 0x21
 4996 11a0 01       		.uleb128 0x1
 4997 11a1 50       		.byte	0x50
 4998 11a2 02       		.uleb128 0x2
 4999 11a3 75       		.byte	0x75
 5000 11a4 00       		.sleb128 0
ARM GAS  C:\Users\d3bug\AppData\Local\Temp\cct3SNM7.s 			page 121


 5001 11a5 00       		.byte	0
 5002 11a6 27       		.uleb128 0x27
 5003 11a7 24000000 		.4byte	.LVL73
 5004 11ab 95230000 		.4byte	0x2395
 5005 11af BA110000 		.4byte	0x11ba
 5006 11b3 21       		.uleb128 0x21
 5007 11b4 01       		.uleb128 0x1
 5008 11b5 50       		.byte	0x50
 5009 11b6 02       		.uleb128 0x2
 5010 11b7 75       		.byte	0x75
 5011 11b8 00       		.sleb128 0
 5012 11b9 00       		.byte	0
 5013 11ba 27       		.uleb128 0x27
 5014 11bb 2C000000 		.4byte	.LVL75
 5015 11bf A1230000 		.4byte	0x23a1
 5016 11c3 CE110000 		.4byte	0x11ce
 5017 11c7 21       		.uleb128 0x21
 5018 11c8 01       		.uleb128 0x1
 5019 11c9 50       		.byte	0x50
 5020 11ca 02       		.uleb128 0x2
 5021 11cb 75       		.byte	0x75
 5022 11cc 00       		.sleb128 0
 5023 11cd 00       		.byte	0
 5024 11ce 2E       		.uleb128 0x2e
 5025 11cf 82000000 		.4byte	.LVL87
 5026 11d3 E4110000 		.4byte	0x11e4
 5027 11d7 21       		.uleb128 0x21
 5028 11d8 01       		.uleb128 0x1
 5029 11d9 50       		.byte	0x50
 5030 11da 02       		.uleb128 0x2
 5031 11db 77       		.byte	0x77
 5032 11dc 00       		.sleb128 0
 5033 11dd 21       		.uleb128 0x21
 5034 11de 01       		.uleb128 0x1
 5035 11df 51       		.byte	0x51
 5036 11e0 02       		.uleb128 0x2
 5037 11e1 74       		.byte	0x74
 5038 11e2 00       		.sleb128 0
 5039 11e3 00       		.byte	0
 5040 11e4 27       		.uleb128 0x27
 5041 11e5 A2000000 		.4byte	.LVL93
 5042 11e9 DB230000 		.4byte	0x23db
 5043 11ed 06120000 		.4byte	0x1206
 5044 11f1 21       		.uleb128 0x21
 5045 11f2 01       		.uleb128 0x1
 5046 11f3 51       		.byte	0x51
 5047 11f4 03       		.uleb128 0x3
 5048 11f5 91       		.byte	0x91
 5049 11f6 44       		.sleb128 -60
 5050 11f7 06       		.byte	0x6
 5051 11f8 21       		.uleb128 0x21
 5052 11f9 01       		.uleb128 0x1
 5053 11fa 53       		.byte	0x53
 5054 11fb 02       		.uleb128 0x2
 5055 11fc 79       		.byte	0x79
 5056 11fd 00       		.sleb128 0
 5057 11fe 21       		.uleb128 0x21
ARM GAS  C:\Users\d3bug\AppData\Local\Temp\cct3SNM7.s 			page 122


 5058 11ff 02       		.uleb128 0x2
 5059 1200 7D       		.byte	0x7d
 5060 1201 00       		.sleb128 0
 5061 1202 02       		.uleb128 0x2
 5062 1203 76       		.byte	0x76
 5063 1204 00       		.sleb128 0
 5064 1205 00       		.byte	0
 5065 1206 20       		.uleb128 0x20
 5066 1207 16010000 		.4byte	.LVL104
 5067 120b D0230000 		.4byte	0x23d0
 5068 120f 21       		.uleb128 0x21
 5069 1210 01       		.uleb128 0x1
 5070 1211 50       		.byte	0x50
 5071 1212 02       		.uleb128 0x2
 5072 1213 77       		.byte	0x77
 5073 1214 00       		.sleb128 0
 5074 1215 21       		.uleb128 0x21
 5075 1216 01       		.uleb128 0x1
 5076 1217 51       		.byte	0x51
 5077 1218 05       		.uleb128 0x5
 5078 1219 7B       		.byte	0x7b
 5079 121a 00       		.sleb128 0
 5080 121b 7A       		.byte	0x7a
 5081 121c 00       		.sleb128 0
 5082 121d 1C       		.byte	0x1c
 5083 121e 21       		.uleb128 0x21
 5084 121f 01       		.uleb128 0x1
 5085 1220 52       		.byte	0x52
 5086 1221 03       		.uleb128 0x3
 5087 1222 91       		.byte	0x91
 5088 1223 44       		.sleb128 -60
 5089 1224 06       		.byte	0x6
 5090 1225 21       		.uleb128 0x21
 5091 1226 02       		.uleb128 0x2
 5092 1227 7D       		.byte	0x7d
 5093 1228 00       		.sleb128 0
 5094 1229 02       		.uleb128 0x2
 5095 122a 79       		.byte	0x79
 5096 122b 00       		.sleb128 0
 5097 122c 00       		.byte	0
 5098 122d 00       		.byte	0
 5099 122e 09       		.uleb128 0x9
 5100 122f 04       		.byte	0x4
 5101 1230 75010000 		.4byte	0x175
 5102 1234 2A       		.uleb128 0x2a
 5103 1235 B8070000 		.4byte	.LASF195
 5104 1239 01       		.byte	0x1
 5105 123a 0102     		.2byte	0x201
 5106 123c B4000000 		.4byte	0xb4
 5107 1240 00000000 		.4byte	.LFB30
 5108 1244 6C010000 		.4byte	.LFE30-.LFB30
 5109 1248 01       		.uleb128 0x1
 5110 1249 9C       		.byte	0x9c
 5111 124a 96140000 		.4byte	0x1496
 5112 124e 1D       		.uleb128 0x1d
 5113 124f F10C0000 		.4byte	.LASF173
 5114 1253 01       		.byte	0x1
ARM GAS  C:\Users\d3bug\AppData\Local\Temp\cct3SNM7.s 			page 123


 5115 1254 0102     		.2byte	0x201
 5116 1256 7D0A0000 		.4byte	0xa7d
 5117 125a 05070000 		.4byte	.LLST46
 5118 125e 29       		.uleb128 0x29
 5119 125f 706F7300 		.ascii	"pos\000"
 5120 1263 01       		.byte	0x1
 5121 1264 0102     		.2byte	0x201
 5122 1266 2E120000 		.4byte	0x122e
 5123 126a 3B070000 		.4byte	.LLST47
 5124 126e 1E       		.uleb128 0x1e
 5125 126f 74787400 		.ascii	"txt\000"
 5126 1273 01       		.byte	0x1
 5127 1274 0302     		.2byte	0x203
 5128 1276 42010000 		.4byte	0x142
 5129 127a 67070000 		.4byte	.LLST48
 5130 127e 1E       		.uleb128 0x1e
 5131 127f 65787400 		.ascii	"ext\000"
 5132 1283 01       		.byte	0x1
 5133 1284 0402     		.2byte	0x204
 5134 1286 270B0000 		.4byte	0xb27
 5135 128a 85070000 		.4byte	.LLST49
 5136 128e 1F       		.uleb128 0x1f
 5137 128f 610A0000 		.4byte	.LASF191
 5138 1293 01       		.byte	0x1
 5139 1294 0502     		.2byte	0x205
 5140 1296 BF000000 		.4byte	0xbf
 5141 129a BB070000 		.4byte	.LLST50
 5142 129e 1F       		.uleb128 0x1f
 5143 129f 050F0000 		.4byte	.LASF192
 5144 12a3 01       		.byte	0x1
 5145 12a4 0602     		.2byte	0x206
 5146 12a6 BF000000 		.4byte	0xbf
 5147 12aa F0070000 		.4byte	.LLST51
 5148 12ae 1F       		.uleb128 0x1f
 5149 12af CF0E0000 		.4byte	.LASF193
 5150 12b3 01       		.byte	0x1
 5151 12b4 0702     		.2byte	0x207
 5152 12b6 4D010000 		.4byte	0x14d
 5153 12ba 3B080000 		.4byte	.LLST52
 5154 12be 1F       		.uleb128 0x1f
 5155 12bf 43000000 		.4byte	.LASF174
 5156 12c3 01       		.byte	0x1
 5157 12c4 0802     		.2byte	0x208
 5158 12c6 4D080000 		.4byte	0x84d
 5159 12ca 73080000 		.4byte	.LLST53
 5160 12ce 1F       		.uleb128 0x1f
 5161 12cf 830B0000 		.4byte	.LASF58
 5162 12d3 01       		.byte	0x1
 5163 12d4 0902     		.2byte	0x209
 5164 12d6 63040000 		.4byte	0x463
 5165 12da 91080000 		.4byte	.LLST54
 5166 12de 2B       		.uleb128 0x2b
 5167 12df 62000000 		.4byte	.LASF196
 5168 12e3 01       		.byte	0x1
 5169 12e4 0A02     		.2byte	0x20a
 5170 12e6 9E000000 		.4byte	0x9e
 5171 12ea 1E       		.uleb128 0x1e
ARM GAS  C:\Users\d3bug\AppData\Local\Temp\cct3SNM7.s 			page 124


 5172 12eb 7900     		.ascii	"y\000"
 5173 12ed 01       		.byte	0x1
 5174 12ee 0B02     		.2byte	0x20b
 5175 12f0 4D010000 		.4byte	0x14d
 5176 12f4 C8080000 		.4byte	.LLST55
 5177 12f8 1F       		.uleb128 0x1f
 5178 12f9 170B0000 		.4byte	.LASF179
 5179 12fd 01       		.byte	0x1
 5180 12fe 0C02     		.2byte	0x20c
 5181 1300 B9080000 		.4byte	0x8b9
 5182 1304 FD080000 		.4byte	.LLST56
 5183 1308 1E       		.uleb128 0x1e
 5184 1309 7800     		.ascii	"x\000"
 5185 130b 01       		.byte	0x1
 5186 130c 2202     		.2byte	0x222
 5187 130e 4D010000 		.4byte	0x14d
 5188 1312 1C090000 		.4byte	.LLST57
 5189 1316 24       		.uleb128 0x24
 5190 1317 D8030000 		.4byte	.LASF197
 5191 131b 01       		.byte	0x1
 5192 131c 2A02     		.2byte	0x22a
 5193 131e E3080000 		.4byte	0x8e3
 5194 1322 02       		.uleb128 0x2
 5195 1323 91       		.byte	0x91
 5196 1324 57       		.sleb128 -41
 5197 1325 26       		.uleb128 0x26
 5198 1326 6900     		.ascii	"i\000"
 5199 1328 01       		.byte	0x1
 5200 1329 2B02     		.2byte	0x22b
 5201 132b BF000000 		.4byte	0xbf
 5202 132f 02       		.uleb128 0x2
 5203 1330 91       		.byte	0x91
 5204 1331 50       		.sleb128 -48
 5205 1332 1F       		.uleb128 0x1f
 5206 1333 54010000 		.4byte	.LASF198
 5207 1337 01       		.byte	0x1
 5208 1338 2C02     		.2byte	0x22c
 5209 133a BF000000 		.4byte	0xbf
 5210 133e 68090000 		.4byte	.LLST58
 5211 1342 1F       		.uleb128 0x1f
 5212 1343 38050000 		.4byte	.LASF199
 5213 1347 01       		.byte	0x1
 5214 1348 2D02     		.2byte	0x22d
 5215 134a BF000000 		.4byte	0xbf
 5216 134e 87090000 		.4byte	.LLST59
 5217 1352 2C       		.uleb128 0x2c
 5218 1353 0B0A0000 		.4byte	0xa0b
 5219 1357 30000000 		.4byte	.LBB34
 5220 135b 04000000 		.4byte	.LBE34-.LBB34
 5221 135f 01       		.byte	0x1
 5222 1360 0A02     		.2byte	0x20a
 5223 1362 70130000 		.4byte	0x1370
 5224 1366 2D       		.uleb128 0x2d
 5225 1367 1B0A0000 		.4byte	0xa1b
 5226 136b A5090000 		.4byte	.LLST60
 5227 136f 00       		.byte	0
 5228 1370 25       		.uleb128 0x25
ARM GAS  C:\Users\d3bug\AppData\Local\Temp\cct3SNM7.s 			page 125


 5229 1371 C6000000 		.4byte	.LBB36
 5230 1375 32000000 		.4byte	.LBE36-.LBB36
 5231 1379 CA130000 		.4byte	0x13ca
 5232 137d 1F       		.uleb128 0x1f
 5233 137e DC010000 		.4byte	.LASF194
 5234 1382 01       		.byte	0x1
 5235 1383 2402     		.2byte	0x224
 5236 1385 4D010000 		.4byte	0x14d
 5237 1389 B8090000 		.4byte	.LLST61
 5238 138d 27       		.uleb128 0x27
 5239 138e DA000000 		.4byte	.LVL153
 5240 1392 D0230000 		.4byte	0x23d0
 5241 1396 B8130000 		.4byte	0x13b8
 5242 139a 21       		.uleb128 0x21
 5243 139b 01       		.uleb128 0x1
 5244 139c 50       		.byte	0x50
 5245 139d 02       		.uleb128 0x2
 5246 139e 74       		.byte	0x74
 5247 139f 00       		.sleb128 0
 5248 13a0 21       		.uleb128 0x21
 5249 13a1 01       		.uleb128 0x1
 5250 13a2 51       		.byte	0x51
 5251 13a3 05       		.uleb128 0x5
 5252 13a4 77       		.byte	0x77
 5253 13a5 00       		.sleb128 0
 5254 13a6 75       		.byte	0x75
 5255 13a7 00       		.sleb128 0
 5256 13a8 1C       		.byte	0x1c
 5257 13a9 21       		.uleb128 0x21
 5258 13aa 01       		.uleb128 0x1
 5259 13ab 52       		.byte	0x52
 5260 13ac 03       		.uleb128 0x3
 5261 13ad 91       		.byte	0x91
 5262 13ae 40       		.sleb128 -64
 5263 13af 06       		.byte	0x6
 5264 13b0 21       		.uleb128 0x21
 5265 13b1 02       		.uleb128 0x2
 5266 13b2 7D       		.byte	0x7d
 5267 13b3 00       		.sleb128 0
 5268 13b4 02       		.uleb128 0x2
 5269 13b5 79       		.byte	0x79
 5270 13b6 00       		.sleb128 0
 5271 13b7 00       		.byte	0
 5272 13b8 20       		.uleb128 0x20
 5273 13b9 E2000000 		.4byte	.LVL155
 5274 13bd 95230000 		.4byte	0x2395
 5275 13c1 21       		.uleb128 0x21
 5276 13c2 01       		.uleb128 0x1
 5277 13c3 50       		.byte	0x50
 5278 13c4 03       		.uleb128 0x3
 5279 13c5 91       		.byte	0x91
 5280 13c6 4C       		.sleb128 -52
 5281 13c7 06       		.byte	0x6
 5282 13c8 00       		.byte	0
 5283 13c9 00       		.byte	0
 5284 13ca 27       		.uleb128 0x27
 5285 13cb 10000000 		.4byte	.LVL122
ARM GAS  C:\Users\d3bug\AppData\Local\Temp\cct3SNM7.s 			page 126


 5286 13cf F60D0000 		.4byte	0xdf6
 5287 13d3 DE130000 		.4byte	0x13de
 5288 13d7 21       		.uleb128 0x21
 5289 13d8 01       		.uleb128 0x1
 5290 13d9 50       		.byte	0x50
 5291 13da 02       		.uleb128 0x2
 5292 13db 74       		.byte	0x74
 5293 13dc 00       		.sleb128 0
 5294 13dd 00       		.byte	0
 5295 13de 27       		.uleb128 0x27
 5296 13df 18000000 		.4byte	.LVL125
 5297 13e3 5B230000 		.4byte	0x235b
 5298 13e7 F2130000 		.4byte	0x13f2
 5299 13eb 21       		.uleb128 0x21
 5300 13ec 01       		.uleb128 0x1
 5301 13ed 50       		.byte	0x50
 5302 13ee 02       		.uleb128 0x2
 5303 13ef 74       		.byte	0x74
 5304 13f0 00       		.sleb128 0
 5305 13f1 00       		.byte	0
 5306 13f2 27       		.uleb128 0x27
 5307 13f3 22000000 		.4byte	.LVL128
 5308 13f7 95230000 		.4byte	0x2395
 5309 13fb 06140000 		.4byte	0x1406
 5310 13ff 21       		.uleb128 0x21
 5311 1400 01       		.uleb128 0x1
 5312 1401 50       		.byte	0x50
 5313 1402 02       		.uleb128 0x2
 5314 1403 74       		.byte	0x74
 5315 1404 00       		.sleb128 0
 5316 1405 00       		.byte	0
 5317 1406 27       		.uleb128 0x27
 5318 1407 2A000000 		.4byte	.LVL130
 5319 140b A1230000 		.4byte	0x23a1
 5320 140f 1A140000 		.4byte	0x141a
 5321 1413 21       		.uleb128 0x21
 5322 1414 01       		.uleb128 0x1
 5323 1415 50       		.byte	0x50
 5324 1416 02       		.uleb128 0x2
 5325 1417 74       		.byte	0x74
 5326 1418 00       		.sleb128 0
 5327 1419 00       		.byte	0
 5328 141a 27       		.uleb128 0x27
 5329 141b 8E000000 		.4byte	.LVL144
 5330 141f DB230000 		.4byte	0x23db
 5331 1423 44140000 		.4byte	0x1444
 5332 1427 21       		.uleb128 0x21
 5333 1428 01       		.uleb128 0x1
 5334 1429 50       		.byte	0x50
 5335 142a 02       		.uleb128 0x2
 5336 142b 77       		.byte	0x77
 5337 142c 00       		.sleb128 0
 5338 142d 21       		.uleb128 0x21
 5339 142e 01       		.uleb128 0x1
 5340 142f 51       		.byte	0x51
 5341 1430 03       		.uleb128 0x3
 5342 1431 91       		.byte	0x91
ARM GAS  C:\Users\d3bug\AppData\Local\Temp\cct3SNM7.s 			page 127


 5343 1432 40       		.sleb128 -64
 5344 1433 06       		.byte	0x6
 5345 1434 21       		.uleb128 0x21
 5346 1435 01       		.uleb128 0x1
 5347 1436 53       		.byte	0x53
 5348 1437 04       		.uleb128 0x4
 5349 1438 91       		.byte	0x91
 5350 1439 44       		.sleb128 -60
 5351 143a 94       		.byte	0x94
 5352 143b 02       		.byte	0x2
 5353 143c 21       		.uleb128 0x21
 5354 143d 02       		.uleb128 0x2
 5355 143e 7D       		.byte	0x7d
 5356 143f 00       		.sleb128 0
 5357 1440 02       		.uleb128 0x2
 5358 1441 79       		.byte	0x79
 5359 1442 00       		.sleb128 0
 5360 1443 00       		.byte	0
 5361 1444 2E       		.uleb128 0x2e
 5362 1445 0E010000 		.4byte	.LVL162
 5363 1449 5A140000 		.4byte	0x145a
 5364 144d 21       		.uleb128 0x21
 5365 144e 01       		.uleb128 0x1
 5366 144f 50       		.byte	0x50
 5367 1450 02       		.uleb128 0x2
 5368 1451 76       		.byte	0x76
 5369 1452 00       		.sleb128 0
 5370 1453 21       		.uleb128 0x21
 5371 1454 01       		.uleb128 0x1
 5372 1455 51       		.byte	0x51
 5373 1456 02       		.uleb128 0x2
 5374 1457 91       		.byte	0x91
 5375 1458 50       		.sleb128 -48
 5376 1459 00       		.byte	0
 5377 145a 27       		.uleb128 0x27
 5378 145b 22010000 		.4byte	.LVL165
 5379 145f E6230000 		.4byte	0x23e6
 5380 1463 6E140000 		.4byte	0x146e
 5381 1467 21       		.uleb128 0x21
 5382 1468 01       		.uleb128 0x1
 5383 1469 50       		.byte	0x50
 5384 146a 02       		.uleb128 0x2
 5385 146b 91       		.byte	0x91
 5386 146c 57       		.sleb128 -41
 5387 146d 00       		.byte	0
 5388 146e 27       		.uleb128 0x27
 5389 146f 2C010000 		.4byte	.LVL166
 5390 1473 F1230000 		.4byte	0x23f1
 5391 1477 89140000 		.4byte	0x1489
 5392 147b 21       		.uleb128 0x21
 5393 147c 01       		.uleb128 0x1
 5394 147d 50       		.byte	0x50
 5395 147e 03       		.uleb128 0x3
 5396 147f 91       		.byte	0x91
 5397 1480 40       		.sleb128 -64
 5398 1481 06       		.byte	0x6
 5399 1482 21       		.uleb128 0x21
ARM GAS  C:\Users\d3bug\AppData\Local\Temp\cct3SNM7.s 			page 128


 5400 1483 01       		.uleb128 0x1
 5401 1484 51       		.byte	0x51
 5402 1485 02       		.uleb128 0x2
 5403 1486 7A       		.byte	0x7a
 5404 1487 00       		.sleb128 0
 5405 1488 00       		.byte	0
 5406 1489 2F       		.uleb128 0x2f
 5407 148a 5A010000 		.4byte	.LVL172
 5408 148e 21       		.uleb128 0x21
 5409 148f 01       		.uleb128 0x1
 5410 1490 50       		.byte	0x50
 5411 1491 02       		.uleb128 0x2
 5412 1492 76       		.byte	0x76
 5413 1493 00       		.sleb128 0
 5414 1494 00       		.byte	0
 5415 1495 00       		.byte	0
 5416 1496 1C       		.uleb128 0x1c
 5417 1497 99030000 		.4byte	.LASF201
 5418 149b 01       		.byte	0x1
 5419 149c 0F03     		.2byte	0x30f
 5420 149e 00000000 		.4byte	.LFB35
 5421 14a2 A0010000 		.4byte	.LFE35-.LFB35
 5422 14a6 01       		.uleb128 0x1
 5423 14a7 9C       		.byte	0x9c
 5424 14a8 D1160000 		.4byte	0x16d1
 5425 14ac 1D       		.uleb128 0x1d
 5426 14ad F10C0000 		.4byte	.LASF173
 5427 14b1 01       		.byte	0x1
 5428 14b2 0F03     		.2byte	0x30f
 5429 14b4 AB0A0000 		.4byte	0xaab
 5430 14b8 CB090000 		.4byte	.LLST62
 5431 14bc 1E       		.uleb128 0x1e
 5432 14bd 65787400 		.ascii	"ext\000"
 5433 14c1 01       		.byte	0x1
 5434 14c2 1103     		.2byte	0x311
 5435 14c4 270B0000 		.4byte	0xb27
 5436 14c8 F7090000 		.4byte	.LLST63
 5437 14cc 1F       		.uleb128 0x1f
 5438 14cd CF0E0000 		.4byte	.LASF193
 5439 14d1 01       		.byte	0x1
 5440 14d2 1503     		.2byte	0x315
 5441 14d4 4D010000 		.4byte	0x14d
 5442 14d8 150A0000 		.4byte	.LLST64
 5443 14dc 1F       		.uleb128 0x1f
 5444 14dd 43000000 		.4byte	.LASF174
 5445 14e1 01       		.byte	0x1
 5446 14e2 1603     		.2byte	0x316
 5447 14e4 4D080000 		.4byte	0x84d
 5448 14e8 3E0A0000 		.4byte	.LLST65
 5449 14ec 1F       		.uleb128 0x1f
 5450 14ed 830B0000 		.4byte	.LASF58
 5451 14f1 01       		.byte	0x1
 5452 14f2 1703     		.2byte	0x317
 5453 14f4 63040000 		.4byte	0x463
 5454 14f8 7D0A0000 		.4byte	.LLST66
 5455 14fc 24       		.uleb128 0x24
 5456 14fd 83080000 		.4byte	.LASF180
ARM GAS  C:\Users\d3bug\AppData\Local\Temp\cct3SNM7.s 			page 129


 5457 1501 01       		.byte	0x1
 5458 1502 2003     		.2byte	0x320
 5459 1504 75010000 		.4byte	0x175
 5460 1508 02       		.uleb128 0x2
 5461 1509 91       		.byte	0x91
 5462 150a 5C       		.sleb128 -36
 5463 150b 1F       		.uleb128 0x1f
 5464 150c 170B0000 		.4byte	.LASF179
 5465 1510 01       		.byte	0x1
 5466 1511 2103     		.2byte	0x321
 5467 1513 B9080000 		.4byte	0x8b9
 5468 1517 900A0000 		.4byte	.LLST67
 5469 151b 25       		.uleb128 0x25
 5470 151c B4000000 		.4byte	.LBB37
 5471 1520 C0000000 		.4byte	.LBE37-.LBB37
 5472 1524 2D160000 		.4byte	0x162d
 5473 1528 26       		.uleb128 0x26
 5474 1529 7000     		.ascii	"p\000"
 5475 152b 01       		.byte	0x1
 5476 152c 7A03     		.2byte	0x37a
 5477 152e 75010000 		.4byte	0x175
 5478 1532 02       		.uleb128 0x2
 5479 1533 91       		.byte	0x91
 5480 1534 54       		.sleb128 -44
 5481 1535 1F       		.uleb128 0x1f
 5482 1536 B40C0000 		.4byte	.LASF202
 5483 153a 01       		.byte	0x1
 5484 153b 7F03     		.2byte	0x37f
 5485 153d BF000000 		.4byte	0xbf
 5486 1541 AF0A0000 		.4byte	.LLST68
 5487 1545 1E       		.uleb128 0x1e
 5488 1546 6900     		.ascii	"i\000"
 5489 1548 01       		.byte	0x1
 5490 1549 9003     		.2byte	0x390
 5491 154b BF000000 		.4byte	0xbf
 5492 154f E50A0000 		.4byte	.LLST69
 5493 1553 24       		.uleb128 0x24
 5494 1554 2E0D0000 		.4byte	.LASF203
 5495 1558 01       		.byte	0x1
 5496 1559 9103     		.2byte	0x391
 5497 155b BF000000 		.4byte	0xbf
 5498 155f 02       		.uleb128 0x2
 5499 1560 91       		.byte	0x91
 5500 1561 58       		.sleb128 -40
 5501 1562 1F       		.uleb128 0x1f
 5502 1563 19090000 		.4byte	.LASF204
 5503 1567 01       		.byte	0x1
 5504 1568 9203     		.2byte	0x392
 5505 156a BF000000 		.4byte	0xbf
 5506 156e 1B0B0000 		.4byte	.LLST70
 5507 1572 1E       		.uleb128 0x1e
 5508 1573 6C656E00 		.ascii	"len\000"
 5509 1577 01       		.byte	0x1
 5510 1578 9303     		.2byte	0x393
 5511 157a 9E000000 		.4byte	0x9e
 5512 157e 460B0000 		.4byte	.LLST71
 5513 1582 2C       		.uleb128 0x2c
ARM GAS  C:\Users\d3bug\AppData\Local\Temp\cct3SNM7.s 			page 130


 5514 1583 0B0A0000 		.4byte	0xa0b
 5515 1587 DC000000 		.4byte	.LBB38
 5516 158b 04000000 		.4byte	.LBE38-.LBB38
 5517 158f 01       		.byte	0x1
 5518 1590 7D03     		.2byte	0x37d
 5519 1592 A0150000 		.4byte	0x15a0
 5520 1596 2D       		.uleb128 0x2d
 5521 1597 1B0A0000 		.4byte	0xa1b
 5522 159b 650B0000 		.4byte	.LLST72
 5523 159f 00       		.byte	0
 5524 15a0 27       		.uleb128 0x27
 5525 15a1 BA000000 		.4byte	.LVL195
 5526 15a5 95230000 		.4byte	0x2395
 5527 15a9 B4150000 		.4byte	0x15b4
 5528 15ad 21       		.uleb128 0x21
 5529 15ae 01       		.uleb128 0x1
 5530 15af 50       		.byte	0x50
 5531 15b0 02       		.uleb128 0x2
 5532 15b1 75       		.byte	0x75
 5533 15b2 00       		.sleb128 0
 5534 15b3 00       		.byte	0
 5535 15b4 27       		.uleb128 0x27
 5536 15b5 C4000000 		.4byte	.LVL196
 5537 15b9 F1230000 		.4byte	0x23f1
 5538 15bd C8150000 		.4byte	0x15c8
 5539 15c1 21       		.uleb128 0x21
 5540 15c2 01       		.uleb128 0x1
 5541 15c3 51       		.byte	0x51
 5542 15c4 02       		.uleb128 0x2
 5543 15c5 08       		.byte	0x8
 5544 15c6 2E       		.byte	0x2e
 5545 15c7 00       		.byte	0
 5546 15c8 27       		.uleb128 0x27
 5547 15c9 DA000000 		.4byte	.LVL197
 5548 15cd FC230000 		.4byte	0x23fc
 5549 15d1 DC150000 		.4byte	0x15dc
 5550 15d5 21       		.uleb128 0x21
 5551 15d6 01       		.uleb128 0x1
 5552 15d7 50       		.byte	0x50
 5553 15d8 02       		.uleb128 0x2
 5554 15d9 75       		.byte	0x75
 5555 15da 00       		.sleb128 0
 5556 15db 00       		.byte	0
 5557 15dc 27       		.uleb128 0x27
 5558 15dd 00010000 		.4byte	.LVL200
 5559 15e1 34120000 		.4byte	0x1234
 5560 15e5 F6150000 		.4byte	0x15f6
 5561 15e9 21       		.uleb128 0x21
 5562 15ea 01       		.uleb128 0x1
 5563 15eb 50       		.byte	0x50
 5564 15ec 02       		.uleb128 0x2
 5565 15ed 75       		.byte	0x75
 5566 15ee 00       		.sleb128 0
 5567 15ef 21       		.uleb128 0x21
 5568 15f0 01       		.uleb128 0x1
 5569 15f1 51       		.byte	0x51
 5570 15f2 02       		.uleb128 0x2
ARM GAS  C:\Users\d3bug\AppData\Local\Temp\cct3SNM7.s 			page 131


 5571 15f3 91       		.byte	0x91
 5572 15f4 54       		.sleb128 -44
 5573 15f5 00       		.byte	0
 5574 15f6 2E       		.uleb128 0x2e
 5575 15f7 0C010000 		.4byte	.LVL203
 5576 15fb 06160000 		.4byte	0x1606
 5577 15ff 21       		.uleb128 0x21
 5578 1600 01       		.uleb128 0x1
 5579 1601 51       		.byte	0x51
 5580 1602 02       		.uleb128 0x2
 5581 1603 78       		.byte	0x78
 5582 1604 00       		.sleb128 0
 5583 1605 00       		.byte	0
 5584 1606 2E       		.uleb128 0x2e
 5585 1607 36010000 		.4byte	.LVL209
 5586 160b 16160000 		.4byte	0x1616
 5587 160f 21       		.uleb128 0x21
 5588 1610 01       		.uleb128 0x1
 5589 1611 51       		.byte	0x51
 5590 1612 02       		.uleb128 0x2
 5591 1613 79       		.byte	0x79
 5592 1614 00       		.sleb128 0
 5593 1615 00       		.byte	0
 5594 1616 20       		.uleb128 0x20
 5595 1617 4C010000 		.4byte	.LVL211
 5596 161b 08240000 		.4byte	0x2408
 5597 161f 21       		.uleb128 0x21
 5598 1620 01       		.uleb128 0x1
 5599 1621 50       		.byte	0x50
 5600 1622 02       		.uleb128 0x2
 5601 1623 74       		.byte	0x74
 5602 1624 05       		.sleb128 5
 5603 1625 21       		.uleb128 0x21
 5604 1626 01       		.uleb128 0x1
 5605 1627 52       		.byte	0x52
 5606 1628 02       		.uleb128 0x2
 5607 1629 76       		.byte	0x76
 5608 162a 00       		.sleb128 0
 5609 162b 00       		.byte	0
 5610 162c 00       		.byte	0
 5611 162d 27       		.uleb128 0x27
 5612 162e 0C000000 		.4byte	.LVL175
 5613 1632 5B230000 		.4byte	0x235b
 5614 1636 41160000 		.4byte	0x1641
 5615 163a 21       		.uleb128 0x21
 5616 163b 01       		.uleb128 0x1
 5617 163c 50       		.byte	0x50
 5618 163d 02       		.uleb128 0x2
 5619 163e 75       		.byte	0x75
 5620 163f 00       		.sleb128 0
 5621 1640 00       		.byte	0
 5622 1641 27       		.uleb128 0x27
 5623 1642 1C000000 		.4byte	.LVL177
 5624 1646 95230000 		.4byte	0x2395
 5625 164a 55160000 		.4byte	0x1655
 5626 164e 21       		.uleb128 0x21
 5627 164f 01       		.uleb128 0x1
ARM GAS  C:\Users\d3bug\AppData\Local\Temp\cct3SNM7.s 			page 132


 5628 1650 50       		.byte	0x50
 5629 1651 02       		.uleb128 0x2
 5630 1652 75       		.byte	0x75
 5631 1653 00       		.sleb128 0
 5632 1654 00       		.byte	0
 5633 1655 27       		.uleb128 0x27
 5634 1656 24000000 		.4byte	.LVL179
 5635 165a A1230000 		.4byte	0x23a1
 5636 165e 69160000 		.4byte	0x1669
 5637 1662 21       		.uleb128 0x21
 5638 1663 01       		.uleb128 0x1
 5639 1664 50       		.byte	0x50
 5640 1665 02       		.uleb128 0x2
 5641 1666 75       		.byte	0x75
 5642 1667 00       		.sleb128 0
 5643 1668 00       		.byte	0
 5644 1669 27       		.uleb128 0x27
 5645 166a 6A000000 		.4byte	.LVL190
 5646 166e 8A230000 		.4byte	0x238a
 5647 1672 84160000 		.4byte	0x1684
 5648 1676 21       		.uleb128 0x21
 5649 1677 01       		.uleb128 0x1
 5650 1678 50       		.byte	0x50
 5651 1679 02       		.uleb128 0x2
 5652 167a 91       		.byte	0x91
 5653 167b 5C       		.sleb128 -36
 5654 167c 21       		.uleb128 0x21
 5655 167d 02       		.uleb128 0x2
 5656 167e 7D       		.byte	0x7d
 5657 167f 04       		.sleb128 4
 5658 1680 02       		.uleb128 0x2
 5659 1681 77       		.byte	0x77
 5660 1682 00       		.sleb128 0
 5661 1683 00       		.byte	0
 5662 1684 27       		.uleb128 0x27
 5663 1685 80000000 		.4byte	.LVL191
 5664 1689 11240000 		.4byte	0x2411
 5665 168d 98160000 		.4byte	0x1698
 5666 1691 21       		.uleb128 0x21
 5667 1692 01       		.uleb128 0x1
 5668 1693 50       		.byte	0x50
 5669 1694 02       		.uleb128 0x2
 5670 1695 75       		.byte	0x75
 5671 1696 00       		.sleb128 0
 5672 1697 00       		.byte	0
 5673 1698 27       		.uleb128 0x27
 5674 1699 94000000 		.4byte	.LVL193
 5675 169d FC230000 		.4byte	0x23fc
 5676 16a1 AC160000 		.4byte	0x16ac
 5677 16a5 21       		.uleb128 0x21
 5678 16a6 01       		.uleb128 0x1
 5679 16a7 50       		.byte	0x50
 5680 16a8 02       		.uleb128 0x2
 5681 16a9 75       		.byte	0x75
 5682 16aa 00       		.sleb128 0
 5683 16ab 00       		.byte	0
 5684 16ac 27       		.uleb128 0x27
ARM GAS  C:\Users\d3bug\AppData\Local\Temp\cct3SNM7.s 			page 133


 5685 16ad 82010000 		.4byte	.LVL220
 5686 16b1 1D240000 		.4byte	0x241d
 5687 16b5 C0160000 		.4byte	0x16c0
 5688 16b9 21       		.uleb128 0x21
 5689 16ba 01       		.uleb128 0x1
 5690 16bb 50       		.byte	0x50
 5691 16bc 02       		.uleb128 0x2
 5692 16bd 75       		.byte	0x75
 5693 16be 00       		.sleb128 0
 5694 16bf 00       		.byte	0
 5695 16c0 20       		.uleb128 0x20
 5696 16c1 88010000 		.4byte	.LVL221
 5697 16c5 B8230000 		.4byte	0x23b8
 5698 16c9 21       		.uleb128 0x21
 5699 16ca 01       		.uleb128 0x1
 5700 16cb 50       		.byte	0x50
 5701 16cc 02       		.uleb128 0x2
 5702 16cd 75       		.byte	0x75
 5703 16ce 00       		.sleb128 0
 5704 16cf 00       		.byte	0
 5705 16d0 00       		.byte	0
 5706 16d1 22       		.uleb128 0x22
 5707 16d2 4D090000 		.4byte	.LASF206
 5708 16d6 01       		.byte	0x1
 5709 16d7 D502     		.2byte	0x2d5
 5710 16d9 0A070000 		.4byte	0x70a
 5711 16dd 00000000 		.4byte	.LFB34
 5712 16e1 FC000000 		.4byte	.LFE34-.LFB34
 5713 16e5 01       		.uleb128 0x1
 5714 16e6 9C       		.byte	0x9c
 5715 16e7 A1180000 		.4byte	0x18a1
 5716 16eb 1D       		.uleb128 0x1d
 5717 16ec F10C0000 		.4byte	.LASF173
 5718 16f0 01       		.byte	0x1
 5719 16f1 D502     		.2byte	0x2d5
 5720 16f3 AB0A0000 		.4byte	0xaab
 5721 16f7 780B0000 		.4byte	.LLST73
 5722 16fb 1D       		.uleb128 0x1d
 5723 16fc 11050000 		.4byte	.LASF207
 5724 1700 01       		.byte	0x1
 5725 1701 D502     		.2byte	0x2d5
 5726 1703 A0070000 		.4byte	0x7a0
 5727 1707 A40B0000 		.4byte	.LLST74
 5728 170b 1D       		.uleb128 0x1d
 5729 170c 9B080000 		.4byte	.LASF208
 5730 1710 01       		.byte	0x1
 5731 1711 D502     		.2byte	0x2d5
 5732 1713 33010000 		.4byte	0x133
 5733 1717 C50B0000 		.4byte	.LLST75
 5734 171b 1E       		.uleb128 0x1e
 5735 171c 72657300 		.ascii	"res\000"
 5736 1720 01       		.byte	0x1
 5737 1721 D702     		.2byte	0x2d7
 5738 1723 0A070000 		.4byte	0x70a
 5739 1727 F10B0000 		.4byte	.LLST76
 5740 172b 1E       		.uleb128 0x1e
 5741 172c 65787400 		.ascii	"ext\000"
ARM GAS  C:\Users\d3bug\AppData\Local\Temp\cct3SNM7.s 			page 134


 5742 1730 01       		.byte	0x1
 5743 1731 DD02     		.2byte	0x2dd
 5744 1733 270B0000 		.4byte	0xb27
 5745 1737 040C0000 		.4byte	.LLST77
 5746 173b 2C       		.uleb128 0x2c
 5747 173c 270A0000 		.4byte	0xa27
 5748 1740 4C000000 		.4byte	.LBB40
 5749 1744 0E000000 		.4byte	.LBE40-.LBB40
 5750 1748 01       		.byte	0x1
 5751 1749 E902     		.2byte	0x2e9
 5752 174b 59170000 		.4byte	0x1759
 5753 174f 2D       		.uleb128 0x2d
 5754 1750 370A0000 		.4byte	0xa37
 5755 1754 6F0C0000 		.4byte	.LLST78
 5756 1758 00       		.byte	0
 5757 1759 2C       		.uleb128 0x2c
 5758 175a 270A0000 		.4byte	0xa27
 5759 175e 5A000000 		.4byte	.LBB42
 5760 1762 0E000000 		.4byte	.LBE42-.LBB42
 5761 1766 01       		.byte	0x1
 5762 1767 E902     		.2byte	0x2e9
 5763 1769 77170000 		.4byte	0x1777
 5764 176d 2D       		.uleb128 0x2d
 5765 176e 370A0000 		.4byte	0xa37
 5766 1772 840C0000 		.4byte	.LLST79
 5767 1776 00       		.byte	0
 5768 1777 2C       		.uleb128 0x2c
 5769 1778 430A0000 		.4byte	0xa43
 5770 177c 6C000000 		.4byte	.LBB44
 5771 1780 0E000000 		.4byte	.LBE44-.LBB44
 5772 1784 01       		.byte	0x1
 5773 1785 EA02     		.2byte	0x2ea
 5774 1787 95170000 		.4byte	0x1795
 5775 178b 2D       		.uleb128 0x2d
 5776 178c 530A0000 		.4byte	0xa53
 5777 1790 970C0000 		.4byte	.LLST80
 5778 1794 00       		.byte	0
 5779 1795 2C       		.uleb128 0x2c
 5780 1796 430A0000 		.4byte	0xa43
 5781 179a 7A000000 		.4byte	.LBB46
 5782 179e 0E000000 		.4byte	.LBE46-.LBB46
 5783 17a2 01       		.byte	0x1
 5784 17a3 EA02     		.2byte	0x2ea
 5785 17a5 B3170000 		.4byte	0x17b3
 5786 17a9 2D       		.uleb128 0x2d
 5787 17aa 530A0000 		.4byte	0xa53
 5788 17ae AC0C0000 		.4byte	.LLST81
 5789 17b2 00       		.byte	0
 5790 17b3 25       		.uleb128 0x25
 5791 17b4 A6000000 		.4byte	.LBB48
 5792 17b8 24000000 		.4byte	.LBE48-.LBB48
 5793 17bc F7170000 		.4byte	0x17f7
 5794 17c0 2B       		.uleb128 0x2b
 5795 17c1 43000000 		.4byte	.LASF174
 5796 17c5 01       		.byte	0x1
 5797 17c6 F002     		.2byte	0x2f0
 5798 17c8 4D080000 		.4byte	0x84d
ARM GAS  C:\Users\d3bug\AppData\Local\Temp\cct3SNM7.s 			page 135


 5799 17cc 30       		.uleb128 0x30
 5800 17cd 5F0A0000 		.4byte	0xa5f
 5801 17d1 A6000000 		.4byte	.LBB49
 5802 17d5 06000000 		.4byte	.LBE49-.LBB49
 5803 17d9 01       		.byte	0x1
 5804 17da F002     		.2byte	0x2f0
 5805 17dc 2D       		.uleb128 0x2d
 5806 17dd 700A0000 		.4byte	0xa70
 5807 17e1 BF0C0000 		.4byte	.LLST82
 5808 17e5 20       		.uleb128 0x20
 5809 17e6 AC000000 		.4byte	.LVL248
 5810 17ea A1230000 		.4byte	0x23a1
 5811 17ee 21       		.uleb128 0x21
 5812 17ef 01       		.uleb128 0x1
 5813 17f0 50       		.byte	0x50
 5814 17f1 02       		.uleb128 0x2
 5815 17f2 76       		.byte	0x76
 5816 17f3 00       		.sleb128 0
 5817 17f4 00       		.byte	0
 5818 17f5 00       		.byte	0
 5819 17f6 00       		.byte	0
 5820 17f7 31       		.uleb128 0x31
 5821 17f8 00000000 		.4byte	.Ldebug_ranges0+0
 5822 17fc 1B180000 		.4byte	0x181b
 5823 1800 32       		.uleb128 0x32
 5824 1801 62756600 		.ascii	"buf\000"
 5825 1805 01       		.byte	0x1
 5826 1806 0003     		.2byte	0x300
 5827 1808 A1180000 		.4byte	0x18a1
 5828 180c 1E       		.uleb128 0x1e
 5829 180d 6900     		.ascii	"i\000"
 5830 180f 01       		.byte	0x1
 5831 1810 0103     		.2byte	0x301
 5832 1812 9E000000 		.4byte	0x9e
 5833 1816 D20C0000 		.4byte	.LLST83
 5834 181a 00       		.byte	0
 5835 181b 2E       		.uleb128 0x2e
 5836 181c 10000000 		.4byte	.LVL224
 5837 1820 37180000 		.4byte	0x1837
 5838 1824 21       		.uleb128 0x21
 5839 1825 01       		.uleb128 0x1
 5840 1826 50       		.byte	0x50
 5841 1827 02       		.uleb128 0x2
 5842 1828 76       		.byte	0x76
 5843 1829 00       		.sleb128 0
 5844 182a 21       		.uleb128 0x21
 5845 182b 01       		.uleb128 0x1
 5846 182c 51       		.byte	0x51
 5847 182d 02       		.uleb128 0x2
 5848 182e 75       		.byte	0x75
 5849 182f 00       		.sleb128 0
 5850 1830 21       		.uleb128 0x21
 5851 1831 01       		.uleb128 0x1
 5852 1832 52       		.byte	0x52
 5853 1833 02       		.uleb128 0x2
 5854 1834 77       		.byte	0x77
 5855 1835 00       		.sleb128 0
ARM GAS  C:\Users\d3bug\AppData\Local\Temp\cct3SNM7.s 			page 136


 5856 1836 00       		.byte	0
 5857 1837 27       		.uleb128 0x27
 5858 1838 1C000000 		.4byte	.LVL227
 5859 183c 5B230000 		.4byte	0x235b
 5860 1840 4B180000 		.4byte	0x184b
 5861 1844 21       		.uleb128 0x21
 5862 1845 01       		.uleb128 0x1
 5863 1846 50       		.byte	0x50
 5864 1847 02       		.uleb128 0x2
 5865 1848 76       		.byte	0x76
 5866 1849 00       		.sleb128 0
 5867 184a 00       		.byte	0
 5868 184b 33       		.uleb128 0x33
 5869 184c 2E000000 		.4byte	.LVL230
 5870 1850 29240000 		.4byte	0x2429
 5871 1854 27       		.uleb128 0x27
 5872 1855 40000000 		.4byte	.LVL233
 5873 1859 B10A0000 		.4byte	0xab1
 5874 185d 68180000 		.4byte	0x1868
 5875 1861 21       		.uleb128 0x21
 5876 1862 01       		.uleb128 0x1
 5877 1863 50       		.byte	0x50
 5878 1864 02       		.uleb128 0x2
 5879 1865 76       		.byte	0x76
 5880 1866 00       		.sleb128 0
 5881 1867 00       		.byte	0
 5882 1868 27       		.uleb128 0x27
 5883 1869 46000000 		.4byte	.LVL234
 5884 186d 96140000 		.4byte	0x1496
 5885 1871 7C180000 		.4byte	0x187c
 5886 1875 21       		.uleb128 0x21
 5887 1876 01       		.uleb128 0x1
 5888 1877 50       		.byte	0x50
 5889 1878 02       		.uleb128 0x2
 5890 1879 76       		.byte	0x76
 5891 187a 00       		.sleb128 0
 5892 187b 00       		.byte	0
 5893 187c 27       		.uleb128 0x27
 5894 187d 92000000 		.4byte	.LVL243
 5895 1881 B10A0000 		.4byte	0xab1
 5896 1885 90180000 		.4byte	0x1890
 5897 1889 21       		.uleb128 0x21
 5898 188a 01       		.uleb128 0x1
 5899 188b 50       		.byte	0x50
 5900 188c 02       		.uleb128 0x2
 5901 188d 76       		.byte	0x76
 5902 188e 00       		.sleb128 0
 5903 188f 00       		.byte	0
 5904 1890 20       		.uleb128 0x20
 5905 1891 98000000 		.4byte	.LVL244
 5906 1895 96140000 		.4byte	0x1496
 5907 1899 21       		.uleb128 0x21
 5908 189a 01       		.uleb128 0x1
 5909 189b 50       		.byte	0x50
 5910 189c 02       		.uleb128 0x2
 5911 189d 76       		.byte	0x76
 5912 189e 00       		.sleb128 0
ARM GAS  C:\Users\d3bug\AppData\Local\Temp\cct3SNM7.s 			page 137


 5913 189f 00       		.byte	0
 5914 18a0 00       		.byte	0
 5915 18a1 09       		.uleb128 0x9
 5916 18a2 04       		.byte	0x4
 5917 18a3 83080000 		.4byte	0x883
 5918 18a7 34       		.uleb128 0x34
 5919 18a8 6E030000 		.4byte	.LASF209
 5920 18ac 01       		.byte	0x1
 5921 18ad 93       		.byte	0x93
 5922 18ae 00000000 		.4byte	.LFB15
 5923 18b2 A4000000 		.4byte	.LFE15-.LFB15
 5924 18b6 01       		.uleb128 0x1
 5925 18b7 9C       		.byte	0x9c
 5926 18b8 1D1A0000 		.4byte	0x1a1d
 5927 18bc 35       		.uleb128 0x35
 5928 18bd F10C0000 		.4byte	.LASF173
 5929 18c1 01       		.byte	0x1
 5930 18c2 93       		.byte	0x93
 5931 18c3 AB0A0000 		.4byte	0xaab
 5932 18c7 FB0C0000 		.4byte	.LLST84
 5933 18cb 35       		.uleb128 0x35
 5934 18cc B8060000 		.4byte	.LASF65
 5935 18d0 01       		.byte	0x1
 5936 18d1 93       		.byte	0x93
 5937 18d2 42010000 		.4byte	0x142
 5938 18d6 270D0000 		.4byte	.LLST85
 5939 18da 36       		.uleb128 0x36
 5940 18db 65787400 		.ascii	"ext\000"
 5941 18df 01       		.byte	0x1
 5942 18e0 97       		.byte	0x97
 5943 18e1 270B0000 		.4byte	0xb27
 5944 18e5 530D0000 		.4byte	.LLST86
 5945 18e9 25       		.uleb128 0x25
 5946 18ea 4C000000 		.4byte	.LBB53
 5947 18ee 46000000 		.4byte	.LBE53-.LBB53
 5948 18f2 7D190000 		.4byte	0x197d
 5949 18f6 36       		.uleb128 0x36
 5950 18f7 6C656E00 		.ascii	"len\000"
 5951 18fb 01       		.byte	0x1
 5952 18fc A6       		.byte	0xa6
 5953 18fd BF000000 		.4byte	0xbf
 5954 1901 920D0000 		.4byte	.LLST87
 5955 1905 27       		.uleb128 0x27
 5956 1906 52000000 		.4byte	.LVL269
 5957 190a 34240000 		.4byte	0x2434
 5958 190e 19190000 		.4byte	0x1919
 5959 1912 21       		.uleb128 0x21
 5960 1913 01       		.uleb128 0x1
 5961 1914 50       		.byte	0x50
 5962 1915 02       		.uleb128 0x2
 5963 1916 76       		.byte	0x76
 5964 1917 00       		.sleb128 0
 5965 1918 00       		.byte	0
 5966 1919 27       		.uleb128 0x27
 5967 191a 66000000 		.4byte	.LVL271
 5968 191e 29240000 		.4byte	0x2429
 5969 1922 2D190000 		.4byte	0x192d
ARM GAS  C:\Users\d3bug\AppData\Local\Temp\cct3SNM7.s 			page 138


 5970 1926 21       		.uleb128 0x21
 5971 1927 01       		.uleb128 0x1
 5972 1928 50       		.byte	0x50
 5973 1929 02       		.uleb128 0x2
 5974 192a 75       		.byte	0x75
 5975 192b 00       		.sleb128 0
 5976 192c 00       		.byte	0
 5977 192d 27       		.uleb128 0x27
 5978 192e 70000000 		.4byte	.LVL272
 5979 1932 3F240000 		.4byte	0x243f
 5980 1936 41190000 		.4byte	0x1941
 5981 193a 21       		.uleb128 0x21
 5982 193b 01       		.uleb128 0x1
 5983 193c 50       		.byte	0x50
 5984 193d 02       		.uleb128 0x2
 5985 193e 78       		.byte	0x78
 5986 193f 00       		.sleb128 0
 5987 1940 00       		.byte	0
 5988 1941 27       		.uleb128 0x27
 5989 1942 80000000 		.4byte	.LVL273
 5990 1946 4A240000 		.4byte	0x244a
 5991 194a 6C190000 		.4byte	0x196c
 5992 194e 21       		.uleb128 0x21
 5993 194f 01       		.uleb128 0x1
 5994 1950 50       		.byte	0x50
 5995 1951 01       		.uleb128 0x1
 5996 1952 33       		.byte	0x33
 5997 1953 21       		.uleb128 0x21
 5998 1954 01       		.uleb128 0x1
 5999 1955 51       		.byte	0x51
 6000 1956 05       		.uleb128 0x5
 6001 1957 03       		.byte	0x3
 6002 1958 1C000000 		.4byte	.LC2
 6003 195c 21       		.uleb128 0x21
 6004 195d 01       		.uleb128 0x1
 6005 195e 52       		.byte	0x52
 6006 195f 02       		.uleb128 0x2
 6007 1960 08       		.byte	0x8
 6008 1961 AD       		.byte	0xad
 6009 1962 21       		.uleb128 0x21
 6010 1963 01       		.uleb128 0x1
 6011 1964 53       		.byte	0x53
 6012 1965 05       		.uleb128 0x5
 6013 1966 03       		.byte	0x3
 6014 1967 0C000000 		.4byte	.LC1
 6015 196b 00       		.byte	0
 6016 196c 20       		.uleb128 0x20
 6017 196d 8A000000 		.4byte	.LVL274
 6018 1971 55240000 		.4byte	0x2455
 6019 1975 21       		.uleb128 0x21
 6020 1976 01       		.uleb128 0x1
 6021 1977 51       		.byte	0x51
 6022 1978 02       		.uleb128 0x2
 6023 1979 76       		.byte	0x76
 6024 197a 00       		.sleb128 0
 6025 197b 00       		.byte	0
 6026 197c 00       		.byte	0
ARM GAS  C:\Users\d3bug\AppData\Local\Temp\cct3SNM7.s 			page 139


 6027 197d 27       		.uleb128 0x27
 6028 197e 0C000000 		.4byte	.LVL258
 6029 1982 B8230000 		.4byte	0x23b8
 6030 1986 91190000 		.4byte	0x1991
 6031 198a 21       		.uleb128 0x21
 6032 198b 01       		.uleb128 0x1
 6033 198c 50       		.byte	0x50
 6034 198d 02       		.uleb128 0x2
 6035 198e 77       		.byte	0x77
 6036 198f 00       		.sleb128 0
 6037 1990 00       		.byte	0
 6038 1991 27       		.uleb128 0x27
 6039 1992 12000000 		.4byte	.LVL259
 6040 1996 5B230000 		.4byte	0x235b
 6041 199a A5190000 		.4byte	0x19a5
 6042 199e 21       		.uleb128 0x21
 6043 199f 01       		.uleb128 0x1
 6044 19a0 50       		.byte	0x50
 6045 19a1 02       		.uleb128 0x2
 6046 19a2 77       		.byte	0x77
 6047 19a3 00       		.sleb128 0
 6048 19a4 00       		.byte	0
 6049 19a5 27       		.uleb128 0x27
 6050 19a6 1A000000 		.4byte	.LVL261
 6051 19aa 96140000 		.4byte	0x1496
 6052 19ae B9190000 		.4byte	0x19b9
 6053 19b2 21       		.uleb128 0x21
 6054 19b3 01       		.uleb128 0x1
 6055 19b4 50       		.byte	0x50
 6056 19b5 02       		.uleb128 0x2
 6057 19b6 77       		.byte	0x77
 6058 19b7 00       		.sleb128 0
 6059 19b8 00       		.byte	0
 6060 19b9 27       		.uleb128 0x27
 6061 19ba 2C000000 		.4byte	.LVL264
 6062 19be 34240000 		.4byte	0x2434
 6063 19c2 CD190000 		.4byte	0x19cd
 6064 19c6 21       		.uleb128 0x21
 6065 19c7 01       		.uleb128 0x1
 6066 19c8 50       		.byte	0x50
 6067 19c9 02       		.uleb128 0x2
 6068 19ca 75       		.byte	0x75
 6069 19cb 00       		.sleb128 0
 6070 19cc 00       		.byte	0
 6071 19cd 27       		.uleb128 0x27
 6072 19ce 34000000 		.4byte	.LVL265
 6073 19d2 60240000 		.4byte	0x2460
 6074 19d6 E1190000 		.4byte	0x19e1
 6075 19da 21       		.uleb128 0x21
 6076 19db 01       		.uleb128 0x1
 6077 19dc 50       		.byte	0x50
 6078 19dd 02       		.uleb128 0x2
 6079 19de 75       		.byte	0x75
 6080 19df 00       		.sleb128 0
 6081 19e0 00       		.byte	0
 6082 19e1 27       		.uleb128 0x27
 6083 19e2 44000000 		.4byte	.LVL266
ARM GAS  C:\Users\d3bug\AppData\Local\Temp\cct3SNM7.s 			page 140


 6084 19e6 4A240000 		.4byte	0x244a
 6085 19ea 0C1A0000 		.4byte	0x1a0c
 6086 19ee 21       		.uleb128 0x21
 6087 19ef 01       		.uleb128 0x1
 6088 19f0 50       		.byte	0x50
 6089 19f1 01       		.uleb128 0x1
 6090 19f2 33       		.byte	0x33
 6091 19f3 21       		.uleb128 0x21
 6092 19f4 01       		.uleb128 0x1
 6093 19f5 51       		.byte	0x51
 6094 19f6 05       		.uleb128 0x5
 6095 19f7 03       		.byte	0x3
 6096 19f8 1C000000 		.4byte	.LC2
 6097 19fc 21       		.uleb128 0x21
 6098 19fd 01       		.uleb128 0x1
 6099 19fe 52       		.byte	0x52
 6100 19ff 02       		.uleb128 0x2
 6101 1a00 08       		.byte	0x8
 6102 1a01 A2       		.byte	0xa2
 6103 1a02 21       		.uleb128 0x21
 6104 1a03 01       		.uleb128 0x1
 6105 1a04 53       		.byte	0x53
 6106 1a05 05       		.uleb128 0x5
 6107 1a06 03       		.byte	0x3
 6108 1a07 0C000000 		.4byte	.LC1
 6109 1a0b 00       		.byte	0
 6110 1a0c 20       		.uleb128 0x20
 6111 1a0d 98000000 		.4byte	.LVL276
 6112 1a11 96140000 		.4byte	0x1496
 6113 1a15 21       		.uleb128 0x21
 6114 1a16 01       		.uleb128 0x1
 6115 1a17 50       		.byte	0x50
 6116 1a18 02       		.uleb128 0x2
 6117 1a19 77       		.byte	0x77
 6118 1a1a 00       		.sleb128 0
 6119 1a1b 00       		.byte	0
 6120 1a1c 00       		.byte	0
 6121 1a1d 34       		.uleb128 0x34
 6122 1a1e 09070000 		.4byte	.LASF210
 6123 1a22 01       		.byte	0x1
 6124 1a23 BE       		.byte	0xbe
 6125 1a24 00000000 		.4byte	.LFB16
 6126 1a28 78000000 		.4byte	.LFE16-.LFB16
 6127 1a2c 01       		.uleb128 0x1
 6128 1a2d 9C       		.byte	0x9c
 6129 1a2e 1D1B0000 		.4byte	0x1b1d
 6130 1a32 35       		.uleb128 0x35
 6131 1a33 F10C0000 		.4byte	.LASF173
 6132 1a37 01       		.byte	0x1
 6133 1a38 BE       		.byte	0xbe
 6134 1a39 AB0A0000 		.4byte	0xaab
 6135 1a3d A50D0000 		.4byte	.LLST88
 6136 1a41 35       		.uleb128 0x35
 6137 1a42 2E090000 		.4byte	.LASF211
 6138 1a46 01       		.byte	0x1
 6139 1a47 BE       		.byte	0xbe
 6140 1a48 42010000 		.4byte	0x142
ARM GAS  C:\Users\d3bug\AppData\Local\Temp\cct3SNM7.s 			page 141


 6141 1a4c D10D0000 		.4byte	.LLST89
 6142 1a50 35       		.uleb128 0x35
 6143 1a51 83080000 		.4byte	.LASF180
 6144 1a55 01       		.byte	0x1
 6145 1a56 BE       		.byte	0xbe
 6146 1a57 B4000000 		.4byte	0xb4
 6147 1a5b FD0D0000 		.4byte	.LLST90
 6148 1a5f 36       		.uleb128 0x36
 6149 1a60 65787400 		.ascii	"ext\000"
 6150 1a64 01       		.byte	0x1
 6151 1a65 C2       		.byte	0xc2
 6152 1a66 270B0000 		.4byte	0xb27
 6153 1a6a 1E0E0000 		.4byte	.LLST91
 6154 1a6e 27       		.uleb128 0x27
 6155 1a6f 0C000000 		.4byte	.LVL279
 6156 1a73 B8230000 		.4byte	0x23b8
 6157 1a77 821A0000 		.4byte	0x1a82
 6158 1a7b 21       		.uleb128 0x21
 6159 1a7c 01       		.uleb128 0x1
 6160 1a7d 50       		.byte	0x50
 6161 1a7e 02       		.uleb128 0x2
 6162 1a7f 75       		.byte	0x75
 6163 1a80 00       		.sleb128 0
 6164 1a81 00       		.byte	0
 6165 1a82 27       		.uleb128 0x27
 6166 1a83 12000000 		.4byte	.LVL280
 6167 1a87 5B230000 		.4byte	0x235b
 6168 1a8b 961A0000 		.4byte	0x1a96
 6169 1a8f 21       		.uleb128 0x21
 6170 1a90 01       		.uleb128 0x1
 6171 1a91 50       		.byte	0x50
 6172 1a92 02       		.uleb128 0x2
 6173 1a93 75       		.byte	0x75
 6174 1a94 00       		.sleb128 0
 6175 1a95 00       		.byte	0
 6176 1a96 27       		.uleb128 0x27
 6177 1a97 22000000 		.4byte	.LVL283
 6178 1a9b 96140000 		.4byte	0x1496
 6179 1a9f AA1A0000 		.4byte	0x1aaa
 6180 1aa3 21       		.uleb128 0x21
 6181 1aa4 01       		.uleb128 0x1
 6182 1aa5 50       		.byte	0x50
 6183 1aa6 02       		.uleb128 0x2
 6184 1aa7 75       		.byte	0x75
 6185 1aa8 00       		.sleb128 0
 6186 1aa9 00       		.byte	0
 6187 1aaa 33       		.uleb128 0x33
 6188 1aab 32000000 		.4byte	.LVL285
 6189 1aaf 29240000 		.4byte	0x2429
 6190 1ab3 27       		.uleb128 0x27
 6191 1ab4 3C000000 		.4byte	.LVL286
 6192 1ab8 3F240000 		.4byte	0x243f
 6193 1abc C71A0000 		.4byte	0x1ac7
 6194 1ac0 21       		.uleb128 0x21
 6195 1ac1 01       		.uleb128 0x1
 6196 1ac2 50       		.byte	0x50
 6197 1ac3 02       		.uleb128 0x2
ARM GAS  C:\Users\d3bug\AppData\Local\Temp\cct3SNM7.s 			page 142


 6198 1ac4 76       		.byte	0x76
 6199 1ac5 01       		.sleb128 1
 6200 1ac6 00       		.byte	0
 6201 1ac7 27       		.uleb128 0x27
 6202 1ac8 4C000000 		.4byte	.LVL287
 6203 1acc 4A240000 		.4byte	0x244a
 6204 1ad0 F21A0000 		.4byte	0x1af2
 6205 1ad4 21       		.uleb128 0x21
 6206 1ad5 01       		.uleb128 0x1
 6207 1ad6 50       		.byte	0x50
 6208 1ad7 01       		.uleb128 0x1
 6209 1ad8 33       		.byte	0x33
 6210 1ad9 21       		.uleb128 0x21
 6211 1ada 01       		.uleb128 0x1
 6212 1adb 51       		.byte	0x51
 6213 1adc 05       		.uleb128 0x5
 6214 1add 03       		.byte	0x3
 6215 1ade 1C000000 		.4byte	.LC2
 6216 1ae2 21       		.uleb128 0x21
 6217 1ae3 01       		.uleb128 0x1
 6218 1ae4 52       		.byte	0x52
 6219 1ae5 02       		.uleb128 0x2
 6220 1ae6 08       		.byte	0x8
 6221 1ae7 D0       		.byte	0xd0
 6222 1ae8 21       		.uleb128 0x21
 6223 1ae9 01       		.uleb128 0x1
 6224 1aea 53       		.byte	0x53
 6225 1aeb 05       		.uleb128 0x5
 6226 1aec 03       		.byte	0x3
 6227 1aed 0C000000 		.4byte	.LC1
 6228 1af1 00       		.byte	0
 6229 1af2 27       		.uleb128 0x27
 6230 1af3 58000000 		.4byte	.LVL288
 6231 1af7 08240000 		.4byte	0x2408
 6232 1afb 0C1B0000 		.4byte	0x1b0c
 6233 1aff 21       		.uleb128 0x21
 6234 1b00 01       		.uleb128 0x1
 6235 1b01 51       		.byte	0x51
 6236 1b02 02       		.uleb128 0x2
 6237 1b03 77       		.byte	0x77
 6238 1b04 00       		.sleb128 0
 6239 1b05 21       		.uleb128 0x21
 6240 1b06 01       		.uleb128 0x1
 6241 1b07 52       		.byte	0x52
 6242 1b08 02       		.uleb128 0x2
 6243 1b09 76       		.byte	0x76
 6244 1b0a 00       		.sleb128 0
 6245 1b0b 00       		.byte	0
 6246 1b0c 20       		.uleb128 0x20
 6247 1b0d 6C000000 		.4byte	.LVL289
 6248 1b11 96140000 		.4byte	0x1496
 6249 1b15 21       		.uleb128 0x21
 6250 1b16 01       		.uleb128 0x1
 6251 1b17 50       		.byte	0x50
 6252 1b18 02       		.uleb128 0x2
 6253 1b19 75       		.byte	0x75
 6254 1b1a 00       		.sleb128 0
ARM GAS  C:\Users\d3bug\AppData\Local\Temp\cct3SNM7.s 			page 143


 6255 1b1b 00       		.byte	0
 6256 1b1c 00       		.byte	0
 6257 1b1d 34       		.uleb128 0x34
 6258 1b1e 2C030000 		.4byte	.LASF212
 6259 1b22 01       		.byte	0x1
 6260 1b23 E0       		.byte	0xe0
 6261 1b24 00000000 		.4byte	.LFB17
 6262 1b28 34000000 		.4byte	.LFE17-.LFB17
 6263 1b2c 01       		.uleb128 0x1
 6264 1b2d 9C       		.byte	0x9c
 6265 1b2e 8D1B0000 		.4byte	0x1b8d
 6266 1b32 35       		.uleb128 0x35
 6267 1b33 F10C0000 		.4byte	.LASF173
 6268 1b37 01       		.byte	0x1
 6269 1b38 E0       		.byte	0xe0
 6270 1b39 AB0A0000 		.4byte	0xaab
 6271 1b3d 3C0E0000 		.4byte	.LLST92
 6272 1b41 35       		.uleb128 0x35
 6273 1b42 B8060000 		.4byte	.LASF65
 6274 1b46 01       		.byte	0x1
 6275 1b47 E0       		.byte	0xe0
 6276 1b48 42010000 		.4byte	0x142
 6277 1b4c 5A0E0000 		.4byte	.LLST93
 6278 1b50 36       		.uleb128 0x36
 6279 1b51 65787400 		.ascii	"ext\000"
 6280 1b55 01       		.byte	0x1
 6281 1b56 E2       		.byte	0xe2
 6282 1b57 270B0000 		.4byte	0xb27
 6283 1b5b 780E0000 		.4byte	.LLST94
 6284 1b5f 27       		.uleb128 0x27
 6285 1b60 0A000000 		.4byte	.LVL292
 6286 1b64 5B230000 		.4byte	0x235b
 6287 1b68 731B0000 		.4byte	0x1b73
 6288 1b6c 21       		.uleb128 0x21
 6289 1b6d 01       		.uleb128 0x1
 6290 1b6e 50       		.byte	0x50
 6291 1b6f 02       		.uleb128 0x2
 6292 1b70 76       		.byte	0x76
 6293 1b71 00       		.sleb128 0
 6294 1b72 00       		.byte	0
 6295 1b73 33       		.uleb128 0x33
 6296 1b74 1C000000 		.4byte	.LVL295
 6297 1b78 29240000 		.4byte	0x2429
 6298 1b7c 20       		.uleb128 0x20
 6299 1b7d 32000000 		.4byte	.LVL296
 6300 1b81 96140000 		.4byte	0x1496
 6301 1b85 21       		.uleb128 0x21
 6302 1b86 01       		.uleb128 0x1
 6303 1b87 50       		.byte	0x50
 6304 1b88 02       		.uleb128 0x2
 6305 1b89 76       		.byte	0x76
 6306 1b8a 00       		.sleb128 0
 6307 1b8b 00       		.byte	0
 6308 1b8c 00       		.byte	0
 6309 1b8d 28       		.uleb128 0x28
 6310 1b8e 99090000 		.4byte	.LASF213
 6311 1b92 01       		.byte	0x1
ARM GAS  C:\Users\d3bug\AppData\Local\Temp\cct3SNM7.s 			page 144


 6312 1b93 0601     		.2byte	0x106
 6313 1b95 00000000 		.4byte	.LFB18
 6314 1b99 4C000000 		.4byte	.LFE18-.LFB18
 6315 1b9d 01       		.uleb128 0x1
 6316 1b9e 9C       		.byte	0x9c
 6317 1b9f 0C1C0000 		.4byte	0x1c0c
 6318 1ba3 1D       		.uleb128 0x1d
 6319 1ba4 F10C0000 		.4byte	.LASF173
 6320 1ba8 01       		.byte	0x1
 6321 1ba9 0601     		.2byte	0x106
 6322 1bab AB0A0000 		.4byte	0xaab
 6323 1baf 960E0000 		.4byte	.LLST95
 6324 1bb3 1D       		.uleb128 0x1d
 6325 1bb4 75070000 		.4byte	.LASF157
 6326 1bb8 01       		.byte	0x1
 6327 1bb9 0601     		.2byte	0x106
 6328 1bbb 1F090000 		.4byte	0x91f
 6329 1bbf B40E0000 		.4byte	.LLST96
 6330 1bc3 1E       		.uleb128 0x1e
 6331 1bc4 65787400 		.ascii	"ext\000"
 6332 1bc8 01       		.byte	0x1
 6333 1bc9 0801     		.2byte	0x108
 6334 1bcb 270B0000 		.4byte	0xb27
 6335 1bcf D50E0000 		.4byte	.LLST97
 6336 1bd3 27       		.uleb128 0x27
 6337 1bd4 0A000000 		.4byte	.LVL298
 6338 1bd8 5B230000 		.4byte	0x235b
 6339 1bdc E71B0000 		.4byte	0x1be7
 6340 1be0 21       		.uleb128 0x21
 6341 1be1 01       		.uleb128 0x1
 6342 1be2 50       		.byte	0x50
 6343 1be3 02       		.uleb128 0x2
 6344 1be4 76       		.byte	0x76
 6345 1be5 00       		.sleb128 0
 6346 1be6 00       		.byte	0
 6347 1be7 27       		.uleb128 0x27
 6348 1be8 42000000 		.4byte	.LVL301
 6349 1bec B10A0000 		.4byte	0xab1
 6350 1bf0 FB1B0000 		.4byte	0x1bfb
 6351 1bf4 21       		.uleb128 0x21
 6352 1bf5 01       		.uleb128 0x1
 6353 1bf6 50       		.byte	0x50
 6354 1bf7 02       		.uleb128 0x2
 6355 1bf8 76       		.byte	0x76
 6356 1bf9 00       		.sleb128 0
 6357 1bfa 00       		.byte	0
 6358 1bfb 20       		.uleb128 0x20
 6359 1bfc 4A000000 		.4byte	.LVL302
 6360 1c00 96140000 		.4byte	0x1496
 6361 1c04 21       		.uleb128 0x21
 6362 1c05 01       		.uleb128 0x1
 6363 1c06 50       		.byte	0x50
 6364 1c07 02       		.uleb128 0x2
 6365 1c08 76       		.byte	0x76
 6366 1c09 00       		.sleb128 0
 6367 1c0a 00       		.byte	0
 6368 1c0b 00       		.byte	0
ARM GAS  C:\Users\d3bug\AppData\Local\Temp\cct3SNM7.s 			page 145


 6369 1c0c 28       		.uleb128 0x28
 6370 1c0d FD030000 		.4byte	.LASF214
 6371 1c11 01       		.byte	0x1
 6372 1c12 3401     		.2byte	0x134
 6373 1c14 00000000 		.4byte	.LFB20
 6374 1c18 2C000000 		.4byte	.LFE20-.LFB20
 6375 1c1c 01       		.uleb128 0x1
 6376 1c1d 9C       		.byte	0x9c
 6377 1c1e 761C0000 		.4byte	0x1c76
 6378 1c22 1D       		.uleb128 0x1d
 6379 1c23 F10C0000 		.4byte	.LASF173
 6380 1c27 01       		.byte	0x1
 6381 1c28 3401     		.2byte	0x134
 6382 1c2a AB0A0000 		.4byte	0xaab
 6383 1c2e F30E0000 		.4byte	.LLST98
 6384 1c32 29       		.uleb128 0x29
 6385 1c33 656E00   		.ascii	"en\000"
 6386 1c36 01       		.byte	0x1
 6387 1c37 3401     		.2byte	0x134
 6388 1c39 C7050000 		.4byte	0x5c7
 6389 1c3d 110F0000 		.4byte	.LLST99
 6390 1c41 1E       		.uleb128 0x1e
 6391 1c42 65787400 		.ascii	"ext\000"
 6392 1c46 01       		.byte	0x1
 6393 1c47 3601     		.2byte	0x136
 6394 1c49 270B0000 		.4byte	0xb27
 6395 1c4d 320F0000 		.4byte	.LLST100
 6396 1c51 27       		.uleb128 0x27
 6397 1c52 0A000000 		.4byte	.LVL304
 6398 1c56 5B230000 		.4byte	0x235b
 6399 1c5a 651C0000 		.4byte	0x1c65
 6400 1c5e 21       		.uleb128 0x21
 6401 1c5f 01       		.uleb128 0x1
 6402 1c60 50       		.byte	0x50
 6403 1c61 02       		.uleb128 0x2
 6404 1c62 75       		.byte	0x75
 6405 1c63 00       		.sleb128 0
 6406 1c64 00       		.byte	0
 6407 1c65 20       		.uleb128 0x20
 6408 1c66 2A000000 		.4byte	.LVL306
 6409 1c6a 96140000 		.4byte	0x1496
 6410 1c6e 21       		.uleb128 0x21
 6411 1c6f 01       		.uleb128 0x1
 6412 1c70 50       		.byte	0x50
 6413 1c71 02       		.uleb128 0x2
 6414 1c72 75       		.byte	0x75
 6415 1c73 00       		.sleb128 0
 6416 1c74 00       		.byte	0
 6417 1c75 00       		.byte	0
 6418 1c76 37       		.uleb128 0x37
 6419 1c77 020B0000 		.4byte	.LASF215
 6420 1c7b 01       		.byte	0x1
 6421 1c7c 42       		.byte	0x42
 6422 1c7d AB0A0000 		.4byte	0xaab
 6423 1c81 00000000 		.4byte	.LFB14
 6424 1c85 CC010000 		.4byte	.LFE14-.LFB14
 6425 1c89 01       		.uleb128 0x1
ARM GAS  C:\Users\d3bug\AppData\Local\Temp\cct3SNM7.s 			page 146


 6426 1c8a 9C       		.byte	0x9c
 6427 1c8b 36200000 		.4byte	0x2036
 6428 1c8f 38       		.uleb128 0x38
 6429 1c90 70617200 		.ascii	"par\000"
 6430 1c94 01       		.byte	0x1
 6431 1c95 42       		.byte	0x42
 6432 1c96 AB0A0000 		.4byte	0xaab
 6433 1c9a 450F0000 		.4byte	.LLST101
 6434 1c9e 35       		.uleb128 0x35
 6435 1c9f 66020000 		.4byte	.LASF216
 6436 1ca3 01       		.byte	0x1
 6437 1ca4 42       		.byte	0x42
 6438 1ca5 7D0A0000 		.4byte	0xa7d
 6439 1ca9 710F0000 		.4byte	.LLST102
 6440 1cad 39       		.uleb128 0x39
 6441 1cae C6000000 		.4byte	.LASF217
 6442 1cb2 01       		.byte	0x1
 6443 1cb3 47       		.byte	0x47
 6444 1cb4 AB0A0000 		.4byte	0xaab
 6445 1cb8 B60F0000 		.4byte	.LLST103
 6446 1cbc 36       		.uleb128 0x36
 6447 1cbd 65787400 		.ascii	"ext\000"
 6448 1cc1 01       		.byte	0x1
 6449 1cc2 50       		.byte	0x50
 6450 1cc3 270B0000 		.4byte	0xb27
 6451 1cc7 F50F0000 		.4byte	.LLST104
 6452 1ccb 3A       		.uleb128 0x3a
 6453 1ccc 880A0000 		.4byte	0xa88
 6454 1cd0 B2000000 		.4byte	.LBB54
 6455 1cd4 0A000000 		.4byte	.LBE54-.LBB54
 6456 1cd8 01       		.byte	0x1
 6457 1cd9 69       		.byte	0x69
 6458 1cda 061D0000 		.4byte	0x1d06
 6459 1cde 2D       		.uleb128 0x2d
 6460 1cdf 9F0A0000 		.4byte	0xa9f
 6461 1ce3 3F100000 		.4byte	.LLST105
 6462 1ce7 2D       		.uleb128 0x2d
 6463 1ce8 940A0000 		.4byte	0xa94
 6464 1cec 53100000 		.4byte	.LLST106
 6465 1cf0 20       		.uleb128 0x20
 6466 1cf1 BA000000 		.4byte	.LVL328
 6467 1cf5 6B240000 		.4byte	0x246b
 6468 1cf9 21       		.uleb128 0x21
 6469 1cfa 01       		.uleb128 0x1
 6470 1cfb 50       		.byte	0x50
 6471 1cfc 02       		.uleb128 0x2
 6472 1cfd 74       		.byte	0x74
 6473 1cfe 00       		.sleb128 0
 6474 1cff 21       		.uleb128 0x21
 6475 1d00 01       		.uleb128 0x1
 6476 1d01 51       		.byte	0x51
 6477 1d02 01       		.uleb128 0x1
 6478 1d03 30       		.byte	0x30
 6479 1d04 00       		.byte	0
 6480 1d05 00       		.byte	0
 6481 1d06 31       		.uleb128 0x31
 6482 1d07 18000000 		.4byte	.Ldebug_ranges0+0x18
ARM GAS  C:\Users\d3bug\AppData\Local\Temp\cct3SNM7.s 			page 147


 6483 1d0b A91E0000 		.4byte	0x1ea9
 6484 1d0f 39       		.uleb128 0x39
 6485 1d10 3F0C0000 		.4byte	.LASF218
 6486 1d14 01       		.byte	0x1
 6487 1d15 6D       		.byte	0x6d
 6488 1d16 270B0000 		.4byte	0xb27
 6489 1d1a 66100000 		.4byte	.LLST107
 6490 1d1e 27       		.uleb128 0x27
 6491 1d1f C2000000 		.4byte	.LVL330
 6492 1d23 5B230000 		.4byte	0x235b
 6493 1d27 321D0000 		.4byte	0x1d32
 6494 1d2b 21       		.uleb128 0x21
 6495 1d2c 01       		.uleb128 0x1
 6496 1d2d 50       		.byte	0x50
 6497 1d2e 02       		.uleb128 0x2
 6498 1d2f 76       		.byte	0x76
 6499 1d30 00       		.sleb128 0
 6500 1d31 00       		.byte	0
 6501 1d32 27       		.uleb128 0x27
 6502 1d33 CA000000 		.4byte	.LVL333
 6503 1d37 420E0000 		.4byte	0xe42
 6504 1d3b 461D0000 		.4byte	0x1d46
 6505 1d3f 21       		.uleb128 0x21
 6506 1d40 01       		.uleb128 0x1
 6507 1d41 50       		.byte	0x50
 6508 1d42 02       		.uleb128 0x2
 6509 1d43 76       		.byte	0x76
 6510 1d44 00       		.sleb128 0
 6511 1d45 00       		.byte	0
 6512 1d46 27       		.uleb128 0x27
 6513 1d47 D2000000 		.4byte	.LVL334
 6514 1d4b 8D1B0000 		.4byte	0x1b8d
 6515 1d4f 5A1D0000 		.4byte	0x1d5a
 6516 1d53 21       		.uleb128 0x21
 6517 1d54 01       		.uleb128 0x1
 6518 1d55 50       		.byte	0x50
 6519 1d56 02       		.uleb128 0x2
 6520 1d57 74       		.byte	0x74
 6521 1d58 00       		.sleb128 0
 6522 1d59 00       		.byte	0
 6523 1d5a 27       		.uleb128 0x27
 6524 1d5b D8000000 		.4byte	.LVL335
 6525 1d5f DA0E0000 		.4byte	0xeda
 6526 1d63 6E1D0000 		.4byte	0x1d6e
 6527 1d67 21       		.uleb128 0x21
 6528 1d68 01       		.uleb128 0x1
 6529 1d69 50       		.byte	0x50
 6530 1d6a 02       		.uleb128 0x2
 6531 1d6b 76       		.byte	0x76
 6532 1d6c 00       		.sleb128 0
 6533 1d6d 00       		.byte	0
 6534 1d6e 27       		.uleb128 0x27
 6535 1d6f E0000000 		.4byte	.LVL336
 6536 1d73 0C1C0000 		.4byte	0x1c0c
 6537 1d77 821D0000 		.4byte	0x1d82
 6538 1d7b 21       		.uleb128 0x21
 6539 1d7c 01       		.uleb128 0x1
ARM GAS  C:\Users\d3bug\AppData\Local\Temp\cct3SNM7.s 			page 148


 6540 1d7d 50       		.byte	0x50
 6541 1d7e 02       		.uleb128 0x2
 6542 1d7f 74       		.byte	0x74
 6543 1d80 00       		.sleb128 0
 6544 1d81 00       		.byte	0
 6545 1d82 27       		.uleb128 0x27
 6546 1d83 E6000000 		.4byte	.LVL337
 6547 1d87 260F0000 		.4byte	0xf26
 6548 1d8b 961D0000 		.4byte	0x1d96
 6549 1d8f 21       		.uleb128 0x21
 6550 1d90 01       		.uleb128 0x1
 6551 1d91 50       		.byte	0x50
 6552 1d92 02       		.uleb128 0x2
 6553 1d93 76       		.byte	0x76
 6554 1d94 00       		.sleb128 0
 6555 1d95 00       		.byte	0
 6556 1d96 27       		.uleb128 0x27
 6557 1d97 EE000000 		.4byte	.LVL338
 6558 1d9b 780D0000 		.4byte	0xd78
 6559 1d9f AA1D0000 		.4byte	0x1daa
 6560 1da3 21       		.uleb128 0x21
 6561 1da4 01       		.uleb128 0x1
 6562 1da5 50       		.byte	0x50
 6563 1da6 02       		.uleb128 0x2
 6564 1da7 74       		.byte	0x74
 6565 1da8 00       		.sleb128 0
 6566 1da9 00       		.byte	0
 6567 1daa 27       		.uleb128 0x27
 6568 1dab F4000000 		.4byte	.LVL339
 6569 1daf 8E0E0000 		.4byte	0xe8e
 6570 1db3 BE1D0000 		.4byte	0x1dbe
 6571 1db7 21       		.uleb128 0x21
 6572 1db8 01       		.uleb128 0x1
 6573 1db9 50       		.byte	0x50
 6574 1dba 02       		.uleb128 0x2
 6575 1dbb 76       		.byte	0x76
 6576 1dbc 00       		.sleb128 0
 6577 1dbd 00       		.byte	0
 6578 1dbe 27       		.uleb128 0x27
 6579 1dbf FC000000 		.4byte	.LVL340
 6580 1dc3 0D0D0000 		.4byte	0xd0d
 6581 1dc7 D21D0000 		.4byte	0x1dd2
 6582 1dcb 21       		.uleb128 0x21
 6583 1dcc 01       		.uleb128 0x1
 6584 1dcd 50       		.byte	0x50
 6585 1dce 02       		.uleb128 0x2
 6586 1dcf 74       		.byte	0x74
 6587 1dd0 00       		.sleb128 0
 6588 1dd1 00       		.byte	0
 6589 1dd2 27       		.uleb128 0x27
 6590 1dd3 0A010000 		.4byte	.LVL341
 6591 1dd7 F60D0000 		.4byte	0xdf6
 6592 1ddb E61D0000 		.4byte	0x1de6
 6593 1ddf 21       		.uleb128 0x21
 6594 1de0 01       		.uleb128 0x1
 6595 1de1 50       		.byte	0x50
 6596 1de2 02       		.uleb128 0x2
ARM GAS  C:\Users\d3bug\AppData\Local\Temp\cct3SNM7.s 			page 149


 6597 1de3 76       		.byte	0x76
 6598 1de4 00       		.sleb128 0
 6599 1de5 00       		.byte	0
 6600 1de6 27       		.uleb128 0x27
 6601 1de7 12010000 		.4byte	.LVL342
 6602 1deb A7180000 		.4byte	0x18a7
 6603 1def FA1D0000 		.4byte	0x1dfa
 6604 1df3 21       		.uleb128 0x21
 6605 1df4 01       		.uleb128 0x1
 6606 1df5 50       		.byte	0x50
 6607 1df6 02       		.uleb128 0x2
 6608 1df7 74       		.byte	0x74
 6609 1df8 00       		.sleb128 0
 6610 1df9 00       		.byte	0
 6611 1dfa 27       		.uleb128 0x27
 6612 1dfb 1A010000 		.4byte	.LVL343
 6613 1dff F60D0000 		.4byte	0xdf6
 6614 1e03 0E1E0000 		.4byte	0x1e0e
 6615 1e07 21       		.uleb128 0x21
 6616 1e08 01       		.uleb128 0x1
 6617 1e09 50       		.byte	0x50
 6618 1e0a 02       		.uleb128 0x2
 6619 1e0b 76       		.byte	0x76
 6620 1e0c 00       		.sleb128 0
 6621 1e0d 00       		.byte	0
 6622 1e0e 27       		.uleb128 0x27
 6623 1e0f 22010000 		.4byte	.LVL344
 6624 1e13 1D1B0000 		.4byte	0x1b1d
 6625 1e17 221E0000 		.4byte	0x1e22
 6626 1e1b 21       		.uleb128 0x21
 6627 1e1c 01       		.uleb128 0x1
 6628 1e1d 50       		.byte	0x50
 6629 1e1e 02       		.uleb128 0x2
 6630 1e1f 74       		.byte	0x74
 6631 1e20 00       		.sleb128 0
 6632 1e21 00       		.byte	0
 6633 1e22 33       		.uleb128 0x33
 6634 1e23 30010000 		.4byte	.LVL346
 6635 1e27 77240000 		.4byte	0x2477
 6636 1e2b 27       		.uleb128 0x27
 6637 1e2c 38010000 		.4byte	.LVL347
 6638 1e30 60240000 		.4byte	0x2460
 6639 1e34 3F1E0000 		.4byte	0x1e3f
 6640 1e38 21       		.uleb128 0x21
 6641 1e39 01       		.uleb128 0x1
 6642 1e3a 50       		.byte	0x50
 6643 1e3b 02       		.uleb128 0x2
 6644 1e3c 76       		.byte	0x76
 6645 1e3d 00       		.sleb128 0
 6646 1e3e 00       		.byte	0
 6647 1e3f 27       		.uleb128 0x27
 6648 1e40 4A010000 		.4byte	.LVL348
 6649 1e44 4A240000 		.4byte	0x244a
 6650 1e48 6A1E0000 		.4byte	0x1e6a
 6651 1e4c 21       		.uleb128 0x21
 6652 1e4d 01       		.uleb128 0x1
 6653 1e4e 50       		.byte	0x50
ARM GAS  C:\Users\d3bug\AppData\Local\Temp\cct3SNM7.s 			page 150


 6654 1e4f 01       		.uleb128 0x1
 6655 1e50 33       		.byte	0x33
 6656 1e51 21       		.uleb128 0x21
 6657 1e52 01       		.uleb128 0x1
 6658 1e53 51       		.byte	0x51
 6659 1e54 05       		.uleb128 0x5
 6660 1e55 03       		.byte	0x3
 6661 1e56 1C000000 		.4byte	.LC2
 6662 1e5a 21       		.uleb128 0x21
 6663 1e5b 01       		.uleb128 0x1
 6664 1e5c 52       		.byte	0x52
 6665 1e5d 02       		.uleb128 0x2
 6666 1e5e 08       		.byte	0x8
 6667 1e5f 78       		.byte	0x78
 6668 1e60 21       		.uleb128 0x21
 6669 1e61 01       		.uleb128 0x1
 6670 1e62 53       		.byte	0x53
 6671 1e63 05       		.uleb128 0x5
 6672 1e64 03       		.byte	0x3
 6673 1e65 0C000000 		.4byte	.LC1
 6674 1e69 00       		.byte	0
 6675 1e6a 27       		.uleb128 0x27
 6676 1e6b 58010000 		.4byte	.LVL349
 6677 1e6f 77240000 		.4byte	0x2477
 6678 1e73 7E1E0000 		.4byte	0x1e7e
 6679 1e77 21       		.uleb128 0x21
 6680 1e78 01       		.uleb128 0x1
 6681 1e79 50       		.byte	0x50
 6682 1e7a 02       		.uleb128 0x2
 6683 1e7b 78       		.byte	0x78
 6684 1e7c 00       		.sleb128 0
 6685 1e7d 00       		.byte	0
 6686 1e7e 27       		.uleb128 0x27
 6687 1e7f 62010000 		.4byte	.LVL350
 6688 1e83 08240000 		.4byte	0x2408
 6689 1e87 981E0000 		.4byte	0x1e98
 6690 1e8b 21       		.uleb128 0x21
 6691 1e8c 01       		.uleb128 0x1
 6692 1e8d 50       		.byte	0x50
 6693 1e8e 02       		.uleb128 0x2
 6694 1e8f 76       		.byte	0x76
 6695 1e90 00       		.sleb128 0
 6696 1e91 21       		.uleb128 0x21
 6697 1e92 01       		.uleb128 0x1
 6698 1e93 51       		.byte	0x51
 6699 1e94 02       		.uleb128 0x2
 6700 1e95 78       		.byte	0x78
 6701 1e96 00       		.sleb128 0
 6702 1e97 00       		.byte	0
 6703 1e98 20       		.uleb128 0x20
 6704 1e99 86010000 		.4byte	.LVL351
 6705 1e9d 82240000 		.4byte	0x2482
 6706 1ea1 21       		.uleb128 0x21
 6707 1ea2 01       		.uleb128 0x1
 6708 1ea3 50       		.byte	0x50
 6709 1ea4 02       		.uleb128 0x2
 6710 1ea5 74       		.byte	0x74
ARM GAS  C:\Users\d3bug\AppData\Local\Temp\cct3SNM7.s 			page 151


 6711 1ea6 00       		.sleb128 0
 6712 1ea7 00       		.byte	0
 6713 1ea8 00       		.byte	0
 6714 1ea9 27       		.uleb128 0x27
 6715 1eaa 14000000 		.4byte	.LVL310
 6716 1eae 4A240000 		.4byte	0x244a
 6717 1eb2 D41E0000 		.4byte	0x1ed4
 6718 1eb6 21       		.uleb128 0x21
 6719 1eb7 01       		.uleb128 0x1
 6720 1eb8 50       		.byte	0x50
 6721 1eb9 01       		.uleb128 0x1
 6722 1eba 30       		.byte	0x30
 6723 1ebb 21       		.uleb128 0x21
 6724 1ebc 01       		.uleb128 0x1
 6725 1ebd 51       		.byte	0x51
 6726 1ebe 05       		.uleb128 0x5
 6727 1ebf 03       		.byte	0x3
 6728 1ec0 1C000000 		.4byte	.LC2
 6729 1ec4 21       		.uleb128 0x21
 6730 1ec5 01       		.uleb128 0x1
 6731 1ec6 52       		.byte	0x52
 6732 1ec7 02       		.uleb128 0x2
 6733 1ec8 08       		.byte	0x8
 6734 1ec9 44       		.byte	0x44
 6735 1eca 21       		.uleb128 0x21
 6736 1ecb 01       		.uleb128 0x1
 6737 1ecc 53       		.byte	0x53
 6738 1ecd 05       		.uleb128 0x5
 6739 1ece 03       		.byte	0x3
 6740 1ecf 38000000 		.4byte	.LC3
 6741 1ed3 00       		.byte	0
 6742 1ed4 27       		.uleb128 0x27
 6743 1ed5 1C000000 		.4byte	.LVL311
 6744 1ed9 8E240000 		.4byte	0x248e
 6745 1edd EE1E0000 		.4byte	0x1eee
 6746 1ee1 21       		.uleb128 0x21
 6747 1ee2 01       		.uleb128 0x1
 6748 1ee3 50       		.byte	0x50
 6749 1ee4 02       		.uleb128 0x2
 6750 1ee5 74       		.byte	0x74
 6751 1ee6 00       		.sleb128 0
 6752 1ee7 21       		.uleb128 0x21
 6753 1ee8 01       		.uleb128 0x1
 6754 1ee9 51       		.byte	0x51
 6755 1eea 02       		.uleb128 0x2
 6756 1eeb 76       		.byte	0x76
 6757 1eec 00       		.sleb128 0
 6758 1eed 00       		.byte	0
 6759 1eee 27       		.uleb128 0x27
 6760 1eef 2A000000 		.4byte	.LVL313
 6761 1ef3 4A240000 		.4byte	0x244a
 6762 1ef7 191F0000 		.4byte	0x1f19
 6763 1efb 21       		.uleb128 0x21
 6764 1efc 01       		.uleb128 0x1
 6765 1efd 50       		.byte	0x50
 6766 1efe 01       		.uleb128 0x1
 6767 1eff 33       		.byte	0x33
ARM GAS  C:\Users\d3bug\AppData\Local\Temp\cct3SNM7.s 			page 152


 6768 1f00 21       		.uleb128 0x21
 6769 1f01 01       		.uleb128 0x1
 6770 1f02 51       		.byte	0x51
 6771 1f03 05       		.uleb128 0x5
 6772 1f04 03       		.byte	0x3
 6773 1f05 1C000000 		.4byte	.LC2
 6774 1f09 21       		.uleb128 0x21
 6775 1f0a 01       		.uleb128 0x1
 6776 1f0b 52       		.byte	0x52
 6777 1f0c 02       		.uleb128 0x2
 6778 1f0d 08       		.byte	0x8
 6779 1f0e 48       		.byte	0x48
 6780 1f0f 21       		.uleb128 0x21
 6781 1f10 01       		.uleb128 0x1
 6782 1f11 53       		.byte	0x53
 6783 1f12 05       		.uleb128 0x5
 6784 1f13 03       		.byte	0x3
 6785 1f14 0C000000 		.4byte	.LC1
 6786 1f18 00       		.byte	0
 6787 1f19 27       		.uleb128 0x27
 6788 1f1a 3E000000 		.4byte	.LVL316
 6789 1f1e 99240000 		.4byte	0x2499
 6790 1f22 2D1F0000 		.4byte	0x1f2d
 6791 1f26 21       		.uleb128 0x21
 6792 1f27 01       		.uleb128 0x1
 6793 1f28 50       		.byte	0x50
 6794 1f29 02       		.uleb128 0x2
 6795 1f2a 74       		.byte	0x74
 6796 1f2b 00       		.sleb128 0
 6797 1f2c 00       		.byte	0
 6798 1f2d 27       		.uleb128 0x27
 6799 1f2e 4A000000 		.4byte	.LVL317
 6800 1f32 A5240000 		.4byte	0x24a5
 6801 1f36 461F0000 		.4byte	0x1f46
 6802 1f3a 21       		.uleb128 0x21
 6803 1f3b 01       		.uleb128 0x1
 6804 1f3c 50       		.byte	0x50
 6805 1f3d 02       		.uleb128 0x2
 6806 1f3e 74       		.byte	0x74
 6807 1f3f 00       		.sleb128 0
 6808 1f40 21       		.uleb128 0x21
 6809 1f41 01       		.uleb128 0x1
 6810 1f42 51       		.byte	0x51
 6811 1f43 01       		.uleb128 0x1
 6812 1f44 4C       		.byte	0x4c
 6813 1f45 00       		.byte	0
 6814 1f46 27       		.uleb128 0x27
 6815 1f47 50000000 		.4byte	.LVL318
 6816 1f4b 5B230000 		.4byte	0x235b
 6817 1f4f 5A1F0000 		.4byte	0x1f5a
 6818 1f53 21       		.uleb128 0x21
 6819 1f54 01       		.uleb128 0x1
 6820 1f55 50       		.byte	0x50
 6821 1f56 02       		.uleb128 0x2
 6822 1f57 74       		.byte	0x74
 6823 1f58 00       		.sleb128 0
 6824 1f59 00       		.byte	0
ARM GAS  C:\Users\d3bug\AppData\Local\Temp\cct3SNM7.s 			page 153


 6825 1f5a 27       		.uleb128 0x27
 6826 1f5b 60000000 		.4byte	.LVL320
 6827 1f5f 4A240000 		.4byte	0x244a
 6828 1f63 851F0000 		.4byte	0x1f85
 6829 1f67 21       		.uleb128 0x21
 6830 1f68 01       		.uleb128 0x1
 6831 1f69 50       		.byte	0x50
 6832 1f6a 01       		.uleb128 0x1
 6833 1f6b 33       		.byte	0x33
 6834 1f6c 21       		.uleb128 0x21
 6835 1f6d 01       		.uleb128 0x1
 6836 1f6e 51       		.byte	0x51
 6837 1f6f 05       		.uleb128 0x5
 6838 1f70 03       		.byte	0x3
 6839 1f71 1C000000 		.4byte	.LC2
 6840 1f75 21       		.uleb128 0x21
 6841 1f76 01       		.uleb128 0x1
 6842 1f77 52       		.byte	0x52
 6843 1f78 02       		.uleb128 0x2
 6844 1f79 08       		.byte	0x8
 6845 1f7a 51       		.byte	0x51
 6846 1f7b 21       		.uleb128 0x21
 6847 1f7c 01       		.uleb128 0x1
 6848 1f7d 53       		.byte	0x53
 6849 1f7e 05       		.uleb128 0x5
 6850 1f7f 03       		.byte	0x3
 6851 1f80 0C000000 		.4byte	.LC1
 6852 1f84 00       		.byte	0
 6853 1f85 27       		.uleb128 0x27
 6854 1f86 90000000 		.4byte	.LVL323
 6855 1f8a B1240000 		.4byte	0x24b1
 6856 1f8e A21F0000 		.4byte	0x1fa2
 6857 1f92 21       		.uleb128 0x21
 6858 1f93 01       		.uleb128 0x1
 6859 1f94 50       		.byte	0x50
 6860 1f95 02       		.uleb128 0x2
 6861 1f96 74       		.byte	0x74
 6862 1f97 00       		.sleb128 0
 6863 1f98 21       		.uleb128 0x21
 6864 1f99 01       		.uleb128 0x1
 6865 1f9a 51       		.byte	0x51
 6866 1f9b 05       		.uleb128 0x5
 6867 1f9c 03       		.byte	0x3
 6868 1f9d 00000000 		.4byte	lv_label_design
 6869 1fa1 00       		.byte	0
 6870 1fa2 27       		.uleb128 0x27
 6871 1fa3 98000000 		.4byte	.LVL324
 6872 1fa7 BD240000 		.4byte	0x24bd
 6873 1fab BF1F0000 		.4byte	0x1fbf
 6874 1faf 21       		.uleb128 0x21
 6875 1fb0 01       		.uleb128 0x1
 6876 1fb1 50       		.byte	0x50
 6877 1fb2 02       		.uleb128 0x2
 6878 1fb3 74       		.byte	0x74
 6879 1fb4 00       		.sleb128 0
 6880 1fb5 21       		.uleb128 0x21
 6881 1fb6 01       		.uleb128 0x1
ARM GAS  C:\Users\d3bug\AppData\Local\Temp\cct3SNM7.s 			page 154


 6882 1fb7 51       		.byte	0x51
 6883 1fb8 05       		.uleb128 0x5
 6884 1fb9 03       		.byte	0x3
 6885 1fba 00000000 		.4byte	lv_label_signal
 6886 1fbe 00       		.byte	0
 6887 1fbf 27       		.uleb128 0x27
 6888 1fc0 A2000000 		.4byte	.LVL325
 6889 1fc4 C9240000 		.4byte	0x24c9
 6890 1fc8 D81F0000 		.4byte	0x1fd8
 6891 1fcc 21       		.uleb128 0x21
 6892 1fcd 01       		.uleb128 0x1
 6893 1fce 50       		.byte	0x50
 6894 1fcf 02       		.uleb128 0x2
 6895 1fd0 74       		.byte	0x74
 6896 1fd1 00       		.sleb128 0
 6897 1fd2 21       		.uleb128 0x21
 6898 1fd3 01       		.uleb128 0x1
 6899 1fd4 51       		.byte	0x51
 6900 1fd5 01       		.uleb128 0x1
 6901 1fd6 30       		.byte	0x30
 6902 1fd7 00       		.byte	0
 6903 1fd8 27       		.uleb128 0x27
 6904 1fd9 AA000000 		.4byte	.LVL326
 6905 1fdd 8D1B0000 		.4byte	0x1b8d
 6906 1fe1 F11F0000 		.4byte	0x1ff1
 6907 1fe5 21       		.uleb128 0x21
 6908 1fe6 01       		.uleb128 0x1
 6909 1fe7 50       		.byte	0x50
 6910 1fe8 02       		.uleb128 0x2
 6911 1fe9 74       		.byte	0x74
 6912 1fea 00       		.sleb128 0
 6913 1feb 21       		.uleb128 0x21
 6914 1fec 01       		.uleb128 0x1
 6915 1fed 51       		.byte	0x51
 6916 1fee 01       		.uleb128 0x1
 6917 1fef 30       		.byte	0x30
 6918 1ff0 00       		.byte	0
 6919 1ff1 27       		.uleb128 0x27
 6920 1ff2 B2000000 		.4byte	.LVL327
 6921 1ff6 A7180000 		.4byte	0x18a7
 6922 1ffa 0E200000 		.4byte	0x200e
 6923 1ffe 21       		.uleb128 0x21
 6924 1fff 01       		.uleb128 0x1
 6925 2000 50       		.byte	0x50
 6926 2001 02       		.uleb128 0x2
 6927 2002 74       		.byte	0x74
 6928 2003 00       		.sleb128 0
 6929 2004 21       		.uleb128 0x21
 6930 2005 01       		.uleb128 0x1
 6931 2006 51       		.byte	0x51
 6932 2007 05       		.uleb128 0x5
 6933 2008 03       		.byte	0x3
 6934 2009 50000000 		.4byte	.LC4
 6935 200d 00       		.byte	0
 6936 200e 20       		.uleb128 0x20
 6937 200f 92010000 		.4byte	.LVL352
 6938 2013 4A240000 		.4byte	0x244a
ARM GAS  C:\Users\d3bug\AppData\Local\Temp\cct3SNM7.s 			page 155


 6939 2017 21       		.uleb128 0x21
 6940 2018 01       		.uleb128 0x1
 6941 2019 50       		.byte	0x50
 6942 201a 01       		.uleb128 0x1
 6943 201b 31       		.byte	0x31
 6944 201c 21       		.uleb128 0x21
 6945 201d 01       		.uleb128 0x1
 6946 201e 51       		.byte	0x51
 6947 201f 05       		.uleb128 0x5
 6948 2020 03       		.byte	0x3
 6949 2021 1C000000 		.4byte	.LC2
 6950 2025 21       		.uleb128 0x21
 6951 2026 01       		.uleb128 0x1
 6952 2027 52       		.byte	0x52
 6953 2028 02       		.uleb128 0x2
 6954 2029 08       		.byte	0x8
 6955 202a 85       		.byte	0x85
 6956 202b 21       		.uleb128 0x21
 6957 202c 01       		.uleb128 0x1
 6958 202d 53       		.byte	0x53
 6959 202e 05       		.uleb128 0x5
 6960 202f 03       		.byte	0x3
 6961 2030 58000000 		.4byte	.LC5
 6962 2034 00       		.byte	0
 6963 2035 00       		.byte	0
 6964 2036 28       		.uleb128 0x28
 6965 2037 EC050000 		.4byte	.LASF219
 6966 203b 01       		.byte	0x1
 6967 203c 5401     		.2byte	0x154
 6968 203e 00000000 		.4byte	.LFB22
 6969 2042 24000000 		.4byte	.LFE22-.LFB22
 6970 2046 01       		.uleb128 0x1
 6971 2047 9C       		.byte	0x9c
 6972 2048 A1200000 		.4byte	0x20a1
 6973 204c 1D       		.uleb128 0x1d
 6974 204d F10C0000 		.4byte	.LASF173
 6975 2051 01       		.byte	0x1
 6976 2052 5401     		.2byte	0x154
 6977 2054 AB0A0000 		.4byte	0xaab
 6978 2058 8F100000 		.4byte	.LLST108
 6979 205c 1D       		.uleb128 0x1d
 6980 205d 78080000 		.4byte	.LASF160
 6981 2061 01       		.byte	0x1
 6982 2062 5401     		.2byte	0x154
 6983 2064 B4000000 		.4byte	0xb4
 6984 2068 AD100000 		.4byte	.LLST109
 6985 206c 1E       		.uleb128 0x1e
 6986 206d 65787400 		.ascii	"ext\000"
 6987 2071 01       		.byte	0x1
 6988 2072 5601     		.2byte	0x156
 6989 2074 270B0000 		.4byte	0xb27
 6990 2078 CE100000 		.4byte	.LLST110
 6991 207c 27       		.uleb128 0x27
 6992 207d 0A000000 		.4byte	.LVL360
 6993 2081 5B230000 		.4byte	0x235b
 6994 2085 90200000 		.4byte	0x2090
 6995 2089 21       		.uleb128 0x21
ARM GAS  C:\Users\d3bug\AppData\Local\Temp\cct3SNM7.s 			page 156


 6996 208a 01       		.uleb128 0x1
 6997 208b 50       		.byte	0x50
 6998 208c 02       		.uleb128 0x2
 6999 208d 75       		.byte	0x75
 7000 208e 00       		.sleb128 0
 7001 208f 00       		.byte	0
 7002 2090 20       		.uleb128 0x20
 7003 2091 22000000 		.4byte	.LVL362
 7004 2095 96140000 		.4byte	0x1496
 7005 2099 21       		.uleb128 0x21
 7006 209a 01       		.uleb128 0x1
 7007 209b 50       		.byte	0x50
 7008 209c 02       		.uleb128 0x2
 7009 209d 75       		.byte	0x75
 7010 209e 00       		.sleb128 0
 7011 209f 00       		.byte	0
 7012 20a0 00       		.byte	0
 7013 20a1 3B       		.uleb128 0x3b
 7014 20a2 B4000000 		.4byte	.LASF220
 7015 20a6 01       		.byte	0x1
 7016 20a7 5002     		.2byte	0x250
 7017 20a9 00000000 		.4byte	.LFB31
 7018 20ad 84000000 		.4byte	.LFE31-.LFB31
 7019 20b1 01       		.uleb128 0x1
 7020 20b2 9C       		.byte	0x9c
 7021 20b3 E2210000 		.4byte	0x21e2
 7022 20b7 1D       		.uleb128 0x1d
 7023 20b8 F10C0000 		.4byte	.LASF173
 7024 20bc 01       		.byte	0x1
 7025 20bd 5002     		.2byte	0x250
 7026 20bf AB0A0000 		.4byte	0xaab
 7027 20c3 E1100000 		.4byte	.LLST111
 7028 20c7 29       		.uleb128 0x29
 7029 20c8 706F7300 		.ascii	"pos\000"
 7030 20cc 01       		.byte	0x1
 7031 20cd 5002     		.2byte	0x250
 7032 20cf BF000000 		.4byte	0xbf
 7033 20d3 0D110000 		.4byte	.LLST112
 7034 20d7 29       		.uleb128 0x29
 7035 20d8 74787400 		.ascii	"txt\000"
 7036 20dc 01       		.byte	0x1
 7037 20dd 5002     		.2byte	0x250
 7038 20df 42010000 		.4byte	0x142
 7039 20e3 2B110000 		.4byte	.LLST113
 7040 20e7 1E       		.uleb128 0x1e
 7041 20e8 65787400 		.ascii	"ext\000"
 7042 20ec 01       		.byte	0x1
 7043 20ed 5202     		.2byte	0x252
 7044 20ef 270B0000 		.4byte	0xb27
 7045 20f3 57110000 		.4byte	.LLST114
 7046 20f7 1F       		.uleb128 0x1f
 7047 20f8 32000000 		.4byte	.LASF221
 7048 20fc 01       		.byte	0x1
 7049 20fd 5A02     		.2byte	0x25a
 7050 20ff BF000000 		.4byte	0xbf
 7051 2103 75110000 		.4byte	.LLST115
 7052 2107 1F       		.uleb128 0x1f
ARM GAS  C:\Users\d3bug\AppData\Local\Temp\cct3SNM7.s 			page 157


 7053 2108 260D0000 		.4byte	.LASF222
 7054 210c 01       		.byte	0x1
 7055 210d 5B02     		.2byte	0x25b
 7056 210f BF000000 		.4byte	0xbf
 7057 2113 93110000 		.4byte	.LLST116
 7058 2117 1F       		.uleb128 0x1f
 7059 2118 320C0000 		.4byte	.LASF223
 7060 211c 01       		.byte	0x1
 7061 211d 5C02     		.2byte	0x25c
 7062 211f BF000000 		.4byte	0xbf
 7063 2123 A6110000 		.4byte	.LLST117
 7064 2127 27       		.uleb128 0x27
 7065 2128 0E000000 		.4byte	.LVL364
 7066 212c 5B230000 		.4byte	0x235b
 7067 2130 3B210000 		.4byte	0x213b
 7068 2134 21       		.uleb128 0x21
 7069 2135 01       		.uleb128 0x1
 7070 2136 50       		.byte	0x50
 7071 2137 02       		.uleb128 0x2
 7072 2138 76       		.byte	0x76
 7073 2139 00       		.sleb128 0
 7074 213a 00       		.byte	0
 7075 213b 27       		.uleb128 0x27
 7076 213c 1E000000 		.4byte	.LVL366
 7077 2140 B8230000 		.4byte	0x23b8
 7078 2144 4F210000 		.4byte	0x214f
 7079 2148 21       		.uleb128 0x21
 7080 2149 01       		.uleb128 0x1
 7081 214a 50       		.byte	0x50
 7082 214b 02       		.uleb128 0x2
 7083 214c 76       		.byte	0x76
 7084 214d 00       		.sleb128 0
 7085 214e 00       		.byte	0
 7086 214f 27       		.uleb128 0x27
 7087 2150 28000000 		.4byte	.LVL367
 7088 2154 34240000 		.4byte	0x2434
 7089 2158 63210000 		.4byte	0x2163
 7090 215c 21       		.uleb128 0x21
 7091 215d 01       		.uleb128 0x1
 7092 215e 50       		.byte	0x50
 7093 215f 02       		.uleb128 0x2
 7094 2160 79       		.byte	0x79
 7095 2161 00       		.sleb128 0
 7096 2162 00       		.byte	0
 7097 2163 27       		.uleb128 0x27
 7098 2164 30000000 		.4byte	.LVL370
 7099 2168 34240000 		.4byte	0x2434
 7100 216c 77210000 		.4byte	0x2177
 7101 2170 21       		.uleb128 0x21
 7102 2171 01       		.uleb128 0x1
 7103 2172 50       		.byte	0x50
 7104 2173 02       		.uleb128 0x2
 7105 2174 77       		.byte	0x77
 7106 2175 00       		.sleb128 0
 7107 2176 00       		.byte	0
 7108 2177 27       		.uleb128 0x27
 7109 2178 3C000000 		.4byte	.LVL374
ARM GAS  C:\Users\d3bug\AppData\Local\Temp\cct3SNM7.s 			page 158


 7110 217c 60240000 		.4byte	0x2460
 7111 2180 8B210000 		.4byte	0x218b
 7112 2184 21       		.uleb128 0x21
 7113 2185 01       		.uleb128 0x1
 7114 2186 50       		.byte	0x50
 7115 2187 02       		.uleb128 0x2
 7116 2188 79       		.byte	0x79
 7117 2189 00       		.sleb128 0
 7118 218a 00       		.byte	0
 7119 218b 27       		.uleb128 0x27
 7120 218c 4E000000 		.4byte	.LVL375
 7121 2190 4A240000 		.4byte	0x244a
 7122 2194 B7210000 		.4byte	0x21b7
 7123 2198 21       		.uleb128 0x21
 7124 2199 01       		.uleb128 0x1
 7125 219a 50       		.byte	0x50
 7126 219b 01       		.uleb128 0x1
 7127 219c 33       		.byte	0x33
 7128 219d 21       		.uleb128 0x21
 7129 219e 01       		.uleb128 0x1
 7130 219f 51       		.byte	0x51
 7131 21a0 05       		.uleb128 0x5
 7132 21a1 03       		.byte	0x3
 7133 21a2 1C000000 		.4byte	.LC2
 7134 21a6 21       		.uleb128 0x21
 7135 21a7 01       		.uleb128 0x1
 7136 21a8 52       		.byte	0x52
 7137 21a9 03       		.uleb128 0x3
 7138 21aa 0A       		.byte	0xa
 7139 21ab 5E02     		.2byte	0x25e
 7140 21ad 21       		.uleb128 0x21
 7141 21ae 01       		.uleb128 0x1
 7142 21af 53       		.byte	0x53
 7143 21b0 05       		.uleb128 0x5
 7144 21b1 03       		.byte	0x3
 7145 21b2 0C000000 		.4byte	.LC1
 7146 21b6 00       		.byte	0
 7147 21b7 27       		.uleb128 0x27
 7148 21b8 6C000000 		.4byte	.LVL378
 7149 21bc D5240000 		.4byte	0x24d5
 7150 21c0 D1210000 		.4byte	0x21d1
 7151 21c4 21       		.uleb128 0x21
 7152 21c5 01       		.uleb128 0x1
 7153 21c6 51       		.byte	0x51
 7154 21c7 02       		.uleb128 0x2
 7155 21c8 75       		.byte	0x75
 7156 21c9 00       		.sleb128 0
 7157 21ca 21       		.uleb128 0x21
 7158 21cb 01       		.uleb128 0x1
 7159 21cc 52       		.byte	0x52
 7160 21cd 02       		.uleb128 0x2
 7161 21ce 77       		.byte	0x77
 7162 21cf 00       		.sleb128 0
 7163 21d0 00       		.byte	0
 7164 21d1 20       		.uleb128 0x20
 7165 21d2 72000000 		.4byte	.LVL379
 7166 21d6 96140000 		.4byte	0x1496
ARM GAS  C:\Users\d3bug\AppData\Local\Temp\cct3SNM7.s 			page 159


 7167 21da 21       		.uleb128 0x21
 7168 21db 01       		.uleb128 0x1
 7169 21dc 50       		.byte	0x50
 7170 21dd 02       		.uleb128 0x2
 7171 21de 76       		.byte	0x76
 7172 21df 00       		.sleb128 0
 7173 21e0 00       		.byte	0
 7174 21e1 00       		.byte	0
 7175 21e2 28       		.uleb128 0x28
 7176 21e3 C4050000 		.4byte	.LASF224
 7177 21e7 01       		.byte	0x1
 7178 21e8 7502     		.2byte	0x275
 7179 21ea 00000000 		.4byte	.LFB32
 7180 21ee 30000000 		.4byte	.LFE32-.LFB32
 7181 21f2 01       		.uleb128 0x1
 7182 21f3 9C       		.byte	0x9c
 7183 21f4 AF220000 		.4byte	0x22af
 7184 21f8 1D       		.uleb128 0x1d
 7185 21f9 F10C0000 		.4byte	.LASF173
 7186 21fd 01       		.byte	0x1
 7187 21fe 7502     		.2byte	0x275
 7188 2200 AB0A0000 		.4byte	0xaab
 7189 2204 C6110000 		.4byte	.LLST118
 7190 2208 29       		.uleb128 0x29
 7191 2209 706F7300 		.ascii	"pos\000"
 7192 220d 01       		.byte	0x1
 7193 220e 7502     		.2byte	0x275
 7194 2210 BF000000 		.4byte	0xbf
 7195 2214 E4110000 		.4byte	.LLST119
 7196 2218 29       		.uleb128 0x29
 7197 2219 636E7400 		.ascii	"cnt\000"
 7198 221d 01       		.byte	0x1
 7199 221e 7502     		.2byte	0x275
 7200 2220 BF000000 		.4byte	0xbf
 7201 2224 02120000 		.4byte	.LLST120
 7202 2228 1E       		.uleb128 0x1e
 7203 2229 65787400 		.ascii	"ext\000"
 7204 222d 01       		.byte	0x1
 7205 222e 7702     		.2byte	0x277
 7206 2230 270B0000 		.4byte	0xb27
 7207 2234 20120000 		.4byte	.LLST121
 7208 2238 1F       		.uleb128 0x1f
 7209 2239 8D020000 		.4byte	.LASF225
 7210 223d 01       		.byte	0x1
 7211 223e 7E02     		.2byte	0x27e
 7212 2240 35010000 		.4byte	0x135
 7213 2244 33120000 		.4byte	.LLST122
 7214 2248 27       		.uleb128 0x27
 7215 2249 0C000000 		.4byte	.LVL382
 7216 224d 5B230000 		.4byte	0x235b
 7217 2251 5C220000 		.4byte	0x225c
 7218 2255 21       		.uleb128 0x21
 7219 2256 01       		.uleb128 0x1
 7220 2257 50       		.byte	0x50
 7221 2258 02       		.uleb128 0x2
 7222 2259 74       		.byte	0x74
 7223 225a 00       		.sleb128 0
ARM GAS  C:\Users\d3bug\AppData\Local\Temp\cct3SNM7.s 			page 160


 7224 225b 00       		.byte	0
 7225 225c 27       		.uleb128 0x27
 7226 225d 1A000000 		.4byte	.LVL384
 7227 2261 B8230000 		.4byte	0x23b8
 7228 2265 70220000 		.4byte	0x2270
 7229 2269 21       		.uleb128 0x21
 7230 226a 01       		.uleb128 0x1
 7231 226b 50       		.byte	0x50
 7232 226c 02       		.uleb128 0x2
 7233 226d 74       		.byte	0x74
 7234 226e 00       		.sleb128 0
 7235 226f 00       		.byte	0
 7236 2270 27       		.uleb128 0x27
 7237 2271 20000000 		.4byte	.LVL385
 7238 2275 F60D0000 		.4byte	0xdf6
 7239 2279 84220000 		.4byte	0x2284
 7240 227d 21       		.uleb128 0x21
 7241 227e 01       		.uleb128 0x1
 7242 227f 50       		.byte	0x50
 7243 2280 02       		.uleb128 0x2
 7244 2281 74       		.byte	0x74
 7245 2282 00       		.sleb128 0
 7246 2283 00       		.byte	0
 7247 2284 27       		.uleb128 0x27
 7248 2285 28000000 		.4byte	.LVL386
 7249 2289 E0240000 		.4byte	0x24e0
 7250 228d 9E220000 		.4byte	0x229e
 7251 2291 21       		.uleb128 0x21
 7252 2292 01       		.uleb128 0x1
 7253 2293 51       		.byte	0x51
 7254 2294 02       		.uleb128 0x2
 7255 2295 75       		.byte	0x75
 7256 2296 00       		.sleb128 0
 7257 2297 21       		.uleb128 0x21
 7258 2298 01       		.uleb128 0x1
 7259 2299 52       		.byte	0x52
 7260 229a 02       		.uleb128 0x2
 7261 229b 76       		.byte	0x76
 7262 229c 00       		.sleb128 0
 7263 229d 00       		.byte	0
 7264 229e 20       		.uleb128 0x20
 7265 229f 2E000000 		.4byte	.LVL387
 7266 22a3 96140000 		.4byte	0x1496
 7267 22a7 21       		.uleb128 0x21
 7268 22a8 01       		.uleb128 0x1
 7269 22a9 50       		.byte	0x50
 7270 22aa 02       		.uleb128 0x2
 7271 22ab 74       		.byte	0x74
 7272 22ac 00       		.sleb128 0
 7273 22ad 00       		.byte	0
 7274 22ae 00       		.byte	0
 7275 22af 3C       		.uleb128 0x3c
 7276 22b0 140F0000 		.4byte	.LASF226
 7277 22b4 01       		.byte	0x1
 7278 22b5 32       		.byte	0x32
 7279 22b6 AB070000 		.4byte	0x7ab
 7280 22ba 05       		.uleb128 0x5
ARM GAS  C:\Users\d3bug\AppData\Local\Temp\cct3SNM7.s 			page 161


 7281 22bb 03       		.byte	0x3
 7282 22bc 00000000 		.4byte	ancestor_signal
 7283 22c0 11       		.uleb128 0x11
 7284 22c1 9E000000 		.4byte	0x9e
 7285 22c5 CF220000 		.4byte	0x22cf
 7286 22c9 12       		.uleb128 0x12
 7287 22ca 42010000 		.4byte	0x142
 7288 22ce 00       		.byte	0
 7289 22cf 3D       		.uleb128 0x3d
 7290 22d0 AC0A0000 		.4byte	.LASF227
 7291 22d4 0B       		.byte	0xb
 7292 22d5 81       		.byte	0x81
 7293 22d6 DA220000 		.4byte	0x22da
 7294 22da 09       		.uleb128 0x9
 7295 22db 04       		.byte	0x4
 7296 22dc C0220000 		.4byte	0x22c0
 7297 22e0 11       		.uleb128 0x11
 7298 22e1 BF000000 		.4byte	0xbf
 7299 22e5 F4220000 		.4byte	0x22f4
 7300 22e9 12       		.uleb128 0x12
 7301 22ea 42010000 		.4byte	0x142
 7302 22ee 12       		.uleb128 0x12
 7303 22ef F4220000 		.4byte	0x22f4
 7304 22f3 00       		.byte	0
 7305 22f4 09       		.uleb128 0x9
 7306 22f5 04       		.byte	0x4
 7307 22f6 BF000000 		.4byte	0xbf
 7308 22fa 3D       		.uleb128 0x3d
 7309 22fb 66010000 		.4byte	.LASF228
 7310 22ff 0B       		.byte	0xb
 7311 2300 9A       		.byte	0x9a
 7312 2301 05230000 		.4byte	0x2305
 7313 2305 09       		.uleb128 0x9
 7314 2306 04       		.byte	0x4
 7315 2307 E0220000 		.4byte	0x22e0
 7316 230b 11       		.uleb128 0x11
 7317 230c BF000000 		.4byte	0xbf
 7318 2310 1F230000 		.4byte	0x231f
 7319 2314 12       		.uleb128 0x12
 7320 2315 42010000 		.4byte	0x142
 7321 2319 12       		.uleb128 0x12
 7322 231a BF000000 		.4byte	0xbf
 7323 231e 00       		.byte	0
 7324 231f 3D       		.uleb128 0x3d
 7325 2320 43070000 		.4byte	.LASF229
 7326 2324 0B       		.byte	0xb
 7327 2325 AB       		.byte	0xab
 7328 2326 2A230000 		.4byte	0x232a
 7329 232a 09       		.uleb128 0x9
 7330 232b 04       		.byte	0x4
 7331 232c 0B230000 		.4byte	0x230b
 7332 2330 3D       		.uleb128 0x3d
 7333 2331 5E070000 		.4byte	.LASF230
 7334 2335 0B       		.byte	0xb
 7335 2336 B4       		.byte	0xb4
 7336 2337 2A230000 		.4byte	0x232a
 7337 233b 11       		.uleb128 0x11
ARM GAS  C:\Users\d3bug\AppData\Local\Temp\cct3SNM7.s 			page 162


 7338 233c BF000000 		.4byte	0xbf
 7339 2340 4A230000 		.4byte	0x234a
 7340 2344 12       		.uleb128 0x12
 7341 2345 42010000 		.4byte	0x142
 7342 2349 00       		.byte	0
 7343 234a 3D       		.uleb128 0x3d
 7344 234b 52080000 		.4byte	.LASF231
 7345 234f 0B       		.byte	0xb
 7346 2350 BC       		.byte	0xbc
 7347 2351 55230000 		.4byte	0x2355
 7348 2355 09       		.uleb128 0x9
 7349 2356 04       		.byte	0x4
 7350 2357 3B230000 		.4byte	0x233b
 7351 235b 3E       		.uleb128 0x3e
 7352 235c 00000000 		.4byte	.LASF232
 7353 2360 00000000 		.4byte	.LASF232
 7354 2364 0A       		.byte	0xa
 7355 2365 1103     		.2byte	0x311
 7356 2367 3E       		.uleb128 0x3e
 7357 2368 BD020000 		.4byte	.LASF233
 7358 236c BD020000 		.4byte	.LASF233
 7359 2370 0A       		.byte	0xa
 7360 2371 7602     		.2byte	0x276
 7361 2373 3E       		.uleb128 0x3e
 7362 2374 F9080000 		.4byte	.LASF234
 7363 2378 F9080000 		.4byte	.LASF234
 7364 237c 0A       		.byte	0xa
 7365 237d E802     		.2byte	0x2e8
 7366 237f 3F       		.uleb128 0x3f
 7367 2380 F2090000 		.4byte	.LASF235
 7368 2384 F2090000 		.4byte	.LASF235
 7369 2388 0C       		.byte	0xc
 7370 2389 25       		.byte	0x25
 7371 238a 3F       		.uleb128 0x3f
 7372 238b EF000000 		.4byte	.LASF236
 7373 238f EF000000 		.4byte	.LASF236
 7374 2393 0B       		.byte	0xb
 7375 2394 43       		.byte	0x43
 7376 2395 3E       		.uleb128 0x3e
 7377 2396 45060000 		.4byte	.LASF237
 7378 239a 45060000 		.4byte	.LASF237
 7379 239e 0A       		.byte	0xa
 7380 239f 8B02     		.2byte	0x28b
 7381 23a1 3E       		.uleb128 0x3e
 7382 23a2 720E0000 		.4byte	.LASF238
 7383 23a6 720E0000 		.4byte	.LASF238
 7384 23aa 0A       		.byte	0xa
 7385 23ab AB02     		.2byte	0x2ab
 7386 23ad 3F       		.uleb128 0x3f
 7387 23ae 7F010000 		.4byte	.LASF239
 7388 23b2 7F010000 		.4byte	.LASF239
 7389 23b6 0D       		.byte	0xd
 7390 23b7 29       		.byte	0x29
 7391 23b8 3E       		.uleb128 0x3e
 7392 23b9 D0080000 		.4byte	.LASF240
 7393 23bd D0080000 		.4byte	.LASF240
 7394 23c1 0A       		.byte	0xa
ARM GAS  C:\Users\d3bug\AppData\Local\Temp\cct3SNM7.s 			page 163


 7395 23c2 0E01     		.2byte	0x10e
 7396 23c4 3E       		.uleb128 0x3e
 7397 23c5 C00A0000 		.4byte	.LASF241
 7398 23c9 C00A0000 		.4byte	.LASF241
 7399 23cd 0A       		.byte	0xa
 7400 23ce 0502     		.2byte	0x205
 7401 23d0 3F       		.uleb128 0x3f
 7402 23d1 8D010000 		.4byte	.LASF242
 7403 23d5 8D010000 		.4byte	.LASF242
 7404 23d9 0B       		.byte	0xb
 7405 23da 5B       		.byte	0x5b
 7406 23db 3F       		.uleb128 0x3f
 7407 23dc B1030000 		.4byte	.LASF243
 7408 23e0 B1030000 		.4byte	.LASF243
 7409 23e4 0B       		.byte	0xb
 7410 23e5 4F       		.byte	0x4f
 7411 23e6 3F       		.uleb128 0x3f
 7412 23e7 35070000 		.4byte	.LASF244
 7413 23eb 35070000 		.4byte	.LASF244
 7414 23ef 0B       		.byte	0xb
 7415 23f0 66       		.byte	0x66
 7416 23f1 3F       		.uleb128 0x3f
 7417 23f2 670B0000 		.4byte	.LASF245
 7418 23f6 670B0000 		.4byte	.LASF245
 7419 23fa 02       		.byte	0x2
 7420 23fb 6E       		.byte	0x6e
 7421 23fc 3E       		.uleb128 0x3e
 7422 23fd EC020000 		.4byte	.LASF246
 7423 2401 EC020000 		.4byte	.LASF246
 7424 2405 0A       		.byte	0xa
 7425 2406 9202     		.2byte	0x292
 7426 2408 40       		.uleb128 0x40
 7427 2409 EA0D0000 		.4byte	.LASF270
 7428 240d EA0D0000 		.4byte	.LASF270
 7429 2411 3E       		.uleb128 0x3e
 7430 2412 3A0E0000 		.4byte	.LASF247
 7431 2416 3A0E0000 		.4byte	.LASF247
 7432 241a 0A       		.byte	0xa
 7433 241b 4901     		.2byte	0x149
 7434 241d 3E       		.uleb128 0x3e
 7435 241e F70C0000 		.4byte	.LASF248
 7436 2422 F70C0000 		.4byte	.LASF248
 7437 2426 0A       		.byte	0xa
 7438 2427 5701     		.2byte	0x157
 7439 2429 3F       		.uleb128 0x3f
 7440 242a 770D0000 		.4byte	.LASF249
 7441 242e 770D0000 		.4byte	.LASF249
 7442 2432 0E       		.byte	0xe
 7443 2433 4E       		.byte	0x4e
 7444 2434 3F       		.uleb128 0x3f
 7445 2435 95000000 		.4byte	.LASF250
 7446 2439 95000000 		.4byte	.LASF250
 7447 243d 0F       		.byte	0xf
 7448 243e 21       		.byte	0x21
 7449 243f 3F       		.uleb128 0x3f
 7450 2440 C6030000 		.4byte	.LASF251
 7451 2444 C6030000 		.4byte	.LASF251
ARM GAS  C:\Users\d3bug\AppData\Local\Temp\cct3SNM7.s 			page 164


 7452 2448 0E       		.byte	0xe
 7453 2449 48       		.byte	0x48
 7454 244a 3F       		.uleb128 0x3f
 7455 244b E7090000 		.4byte	.LASF252
 7456 244f E7090000 		.4byte	.LASF252
 7457 2453 10       		.byte	0x10
 7458 2454 3D       		.byte	0x3d
 7459 2455 3F       		.uleb128 0x3f
 7460 2456 AD0C0000 		.4byte	.LASF253
 7461 245a AD0C0000 		.4byte	.LASF253
 7462 245e 0F       		.byte	0xf
 7463 245f 1E       		.byte	0x1e
 7464 2460 3F       		.uleb128 0x3f
 7465 2461 02050000 		.4byte	.LASF254
 7466 2465 02050000 		.4byte	.LASF254
 7467 2469 0E       		.byte	0xe
 7468 246a 57       		.byte	0x57
 7469 246b 3E       		.uleb128 0x3e
 7470 246c 0B080000 		.4byte	.LASF255
 7471 2470 0B080000 		.4byte	.LASF255
 7472 2474 0A       		.byte	0xa
 7473 2475 8301     		.2byte	0x183
 7474 2477 3F       		.uleb128 0x3f
 7475 2478 59050000 		.4byte	.LASF256
 7476 247c 59050000 		.4byte	.LASF256
 7477 2480 0E       		.byte	0xe
 7478 2481 6A       		.byte	0x6a
 7479 2482 3E       		.uleb128 0x3e
 7480 2483 D80A0000 		.4byte	.LASF257
 7481 2487 D80A0000 		.4byte	.LASF257
 7482 248b 0A       		.byte	0xa
 7483 248c 8901     		.2byte	0x189
 7484 248e 3F       		.uleb128 0x3f
 7485 248f FE020000 		.4byte	.LASF258
 7486 2493 FE020000 		.4byte	.LASF258
 7487 2497 0A       		.byte	0xa
 7488 2498 FB       		.byte	0xfb
 7489 2499 3E       		.uleb128 0x3e
 7490 249a 7A0C0000 		.4byte	.LASF259
 7491 249e 7A0C0000 		.4byte	.LASF259
 7492 24a2 0A       		.byte	0xa
 7493 24a3 FE02     		.2byte	0x2fe
 7494 24a5 3E       		.uleb128 0x3e
 7495 24a6 80030000 		.4byte	.LASF260
 7496 24aa 80030000 		.4byte	.LASF260
 7497 24ae 0A       		.byte	0xa
 7498 24af FF01     		.2byte	0x1ff
 7499 24b1 3E       		.uleb128 0x3e
 7500 24b2 960C0000 		.4byte	.LASF261
 7501 24b6 960C0000 		.4byte	.LASF261
 7502 24ba 0A       		.byte	0xa
 7503 24bb F301     		.2byte	0x1f3
 7504 24bd 3E       		.uleb128 0x3e
 7505 24be BB090000 		.4byte	.LASF262
 7506 24c2 BB090000 		.4byte	.LASF262
 7507 24c6 0A       		.byte	0xa
 7508 24c7 EC01     		.2byte	0x1ec
ARM GAS  C:\Users\d3bug\AppData\Local\Temp\cct3SNM7.s 			page 165


 7509 24c9 3E       		.uleb128 0x3e
 7510 24ca BD060000 		.4byte	.LASF263
 7511 24ce BD060000 		.4byte	.LASF263
 7512 24d2 0A       		.byte	0xa
 7513 24d3 A201     		.2byte	0x1a2
 7514 24d5 3F       		.uleb128 0x3f
 7515 24d6 2E040000 		.4byte	.LASF264
 7516 24da 2E040000 		.4byte	.LASF264
 7517 24de 0B       		.byte	0xb
 7518 24df 6E       		.byte	0x6e
 7519 24e0 3F       		.uleb128 0x3f
 7520 24e1 E70E0000 		.4byte	.LASF265
 7521 24e5 E70E0000 		.4byte	.LASF265
 7522 24e9 0B       		.byte	0xb
 7523 24ea 76       		.byte	0x76
 7524 24eb 00       		.byte	0
 7525              		.section	.debug_abbrev,"",%progbits
 7526              	.Ldebug_abbrev0:
 7527 0000 01       		.uleb128 0x1
 7528 0001 11       		.uleb128 0x11
 7529 0002 01       		.byte	0x1
 7530 0003 25       		.uleb128 0x25
 7531 0004 0E       		.uleb128 0xe
 7532 0005 13       		.uleb128 0x13
 7533 0006 0B       		.uleb128 0xb
 7534 0007 03       		.uleb128 0x3
 7535 0008 0E       		.uleb128 0xe
 7536 0009 1B       		.uleb128 0x1b
 7537 000a 0E       		.uleb128 0xe
 7538 000b 55       		.uleb128 0x55
 7539 000c 17       		.uleb128 0x17
 7540 000d 11       		.uleb128 0x11
 7541 000e 01       		.uleb128 0x1
 7542 000f 10       		.uleb128 0x10
 7543 0010 17       		.uleb128 0x17
 7544 0011 00       		.byte	0
 7545 0012 00       		.byte	0
 7546 0013 02       		.uleb128 0x2
 7547 0014 24       		.uleb128 0x24
 7548 0015 00       		.byte	0
 7549 0016 0B       		.uleb128 0xb
 7550 0017 0B       		.uleb128 0xb
 7551 0018 3E       		.uleb128 0x3e
 7552 0019 0B       		.uleb128 0xb
 7553 001a 03       		.uleb128 0x3
 7554 001b 08       		.uleb128 0x8
 7555 001c 00       		.byte	0
 7556 001d 00       		.byte	0
 7557 001e 03       		.uleb128 0x3
 7558 001f 24       		.uleb128 0x24
 7559 0020 00       		.byte	0
 7560 0021 0B       		.uleb128 0xb
 7561 0022 0B       		.uleb128 0xb
 7562 0023 3E       		.uleb128 0x3e
 7563 0024 0B       		.uleb128 0xb
 7564 0025 03       		.uleb128 0x3
 7565 0026 0E       		.uleb128 0xe
ARM GAS  C:\Users\d3bug\AppData\Local\Temp\cct3SNM7.s 			page 166


 7566 0027 00       		.byte	0
 7567 0028 00       		.byte	0
 7568 0029 04       		.uleb128 0x4
 7569 002a 16       		.uleb128 0x16
 7570 002b 00       		.byte	0
 7571 002c 03       		.uleb128 0x3
 7572 002d 0E       		.uleb128 0xe
 7573 002e 3A       		.uleb128 0x3a
 7574 002f 0B       		.uleb128 0xb
 7575 0030 3B       		.uleb128 0x3b
 7576 0031 0B       		.uleb128 0xb
 7577 0032 49       		.uleb128 0x49
 7578 0033 13       		.uleb128 0x13
 7579 0034 00       		.byte	0
 7580 0035 00       		.byte	0
 7581 0036 05       		.uleb128 0x5
 7582 0037 17       		.uleb128 0x17
 7583 0038 01       		.byte	0x1
 7584 0039 0B       		.uleb128 0xb
 7585 003a 0B       		.uleb128 0xb
 7586 003b 3A       		.uleb128 0x3a
 7587 003c 0B       		.uleb128 0xb
 7588 003d 3B       		.uleb128 0x3b
 7589 003e 0B       		.uleb128 0xb
 7590 003f 01       		.uleb128 0x1
 7591 0040 13       		.uleb128 0x13
 7592 0041 00       		.byte	0
 7593 0042 00       		.byte	0
 7594 0043 06       		.uleb128 0x6
 7595 0044 0D       		.uleb128 0xd
 7596 0045 00       		.byte	0
 7597 0046 03       		.uleb128 0x3
 7598 0047 0E       		.uleb128 0xe
 7599 0048 3A       		.uleb128 0x3a
 7600 0049 0B       		.uleb128 0xb
 7601 004a 3B       		.uleb128 0x3b
 7602 004b 0B       		.uleb128 0xb
 7603 004c 49       		.uleb128 0x49
 7604 004d 13       		.uleb128 0x13
 7605 004e 0B       		.uleb128 0xb
 7606 004f 0B       		.uleb128 0xb
 7607 0050 0D       		.uleb128 0xd
 7608 0051 0B       		.uleb128 0xb
 7609 0052 0C       		.uleb128 0xc
 7610 0053 0B       		.uleb128 0xb
 7611 0054 00       		.byte	0
 7612 0055 00       		.byte	0
 7613 0056 07       		.uleb128 0x7
 7614 0057 0D       		.uleb128 0xd
 7615 0058 00       		.byte	0
 7616 0059 03       		.uleb128 0x3
 7617 005a 08       		.uleb128 0x8
 7618 005b 3A       		.uleb128 0x3a
 7619 005c 0B       		.uleb128 0xb
 7620 005d 3B       		.uleb128 0x3b
 7621 005e 0B       		.uleb128 0xb
 7622 005f 49       		.uleb128 0x49
ARM GAS  C:\Users\d3bug\AppData\Local\Temp\cct3SNM7.s 			page 167


 7623 0060 13       		.uleb128 0x13
 7624 0061 0B       		.uleb128 0xb
 7625 0062 0B       		.uleb128 0xb
 7626 0063 0D       		.uleb128 0xd
 7627 0064 0B       		.uleb128 0xb
 7628 0065 0C       		.uleb128 0xc
 7629 0066 0B       		.uleb128 0xb
 7630 0067 00       		.byte	0
 7631 0068 00       		.byte	0
 7632 0069 08       		.uleb128 0x8
 7633 006a 0F       		.uleb128 0xf
 7634 006b 00       		.byte	0
 7635 006c 0B       		.uleb128 0xb
 7636 006d 0B       		.uleb128 0xb
 7637 006e 00       		.byte	0
 7638 006f 00       		.byte	0
 7639 0070 09       		.uleb128 0x9
 7640 0071 0F       		.uleb128 0xf
 7641 0072 00       		.byte	0
 7642 0073 0B       		.uleb128 0xb
 7643 0074 0B       		.uleb128 0xb
 7644 0075 49       		.uleb128 0x49
 7645 0076 13       		.uleb128 0x13
 7646 0077 00       		.byte	0
 7647 0078 00       		.byte	0
 7648 0079 0A       		.uleb128 0xa
 7649 007a 26       		.uleb128 0x26
 7650 007b 00       		.byte	0
 7651 007c 49       		.uleb128 0x49
 7652 007d 13       		.uleb128 0x13
 7653 007e 00       		.byte	0
 7654 007f 00       		.byte	0
 7655 0080 0B       		.uleb128 0xb
 7656 0081 13       		.uleb128 0x13
 7657 0082 01       		.byte	0x1
 7658 0083 0B       		.uleb128 0xb
 7659 0084 0B       		.uleb128 0xb
 7660 0085 3A       		.uleb128 0x3a
 7661 0086 0B       		.uleb128 0xb
 7662 0087 3B       		.uleb128 0x3b
 7663 0088 0B       		.uleb128 0xb
 7664 0089 01       		.uleb128 0x1
 7665 008a 13       		.uleb128 0x13
 7666 008b 00       		.byte	0
 7667 008c 00       		.byte	0
 7668 008d 0C       		.uleb128 0xc
 7669 008e 0D       		.uleb128 0xd
 7670 008f 00       		.byte	0
 7671 0090 03       		.uleb128 0x3
 7672 0091 08       		.uleb128 0x8
 7673 0092 3A       		.uleb128 0x3a
 7674 0093 0B       		.uleb128 0xb
 7675 0094 3B       		.uleb128 0x3b
 7676 0095 0B       		.uleb128 0xb
 7677 0096 49       		.uleb128 0x49
 7678 0097 13       		.uleb128 0x13
 7679 0098 38       		.uleb128 0x38
ARM GAS  C:\Users\d3bug\AppData\Local\Temp\cct3SNM7.s 			page 168


 7680 0099 0B       		.uleb128 0xb
 7681 009a 00       		.byte	0
 7682 009b 00       		.byte	0
 7683 009c 0D       		.uleb128 0xd
 7684 009d 0D       		.uleb128 0xd
 7685 009e 00       		.byte	0
 7686 009f 03       		.uleb128 0x3
 7687 00a0 0E       		.uleb128 0xe
 7688 00a1 3A       		.uleb128 0x3a
 7689 00a2 0B       		.uleb128 0xb
 7690 00a3 3B       		.uleb128 0x3b
 7691 00a4 0B       		.uleb128 0xb
 7692 00a5 49       		.uleb128 0x49
 7693 00a6 13       		.uleb128 0x13
 7694 00a7 0B       		.uleb128 0xb
 7695 00a8 0B       		.uleb128 0xb
 7696 00a9 0D       		.uleb128 0xd
 7697 00aa 0B       		.uleb128 0xb
 7698 00ab 0C       		.uleb128 0xc
 7699 00ac 0B       		.uleb128 0xb
 7700 00ad 38       		.uleb128 0x38
 7701 00ae 0B       		.uleb128 0xb
 7702 00af 00       		.byte	0
 7703 00b0 00       		.byte	0
 7704 00b1 0E       		.uleb128 0xe
 7705 00b2 13       		.uleb128 0x13
 7706 00b3 01       		.byte	0x1
 7707 00b4 03       		.uleb128 0x3
 7708 00b5 0E       		.uleb128 0xe
 7709 00b6 0B       		.uleb128 0xb
 7710 00b7 0B       		.uleb128 0xb
 7711 00b8 3A       		.uleb128 0x3a
 7712 00b9 0B       		.uleb128 0xb
 7713 00ba 3B       		.uleb128 0x3b
 7714 00bb 0B       		.uleb128 0xb
 7715 00bc 01       		.uleb128 0x1
 7716 00bd 13       		.uleb128 0x13
 7717 00be 00       		.byte	0
 7718 00bf 00       		.byte	0
 7719 00c0 0F       		.uleb128 0xf
 7720 00c1 0D       		.uleb128 0xd
 7721 00c2 00       		.byte	0
 7722 00c3 03       		.uleb128 0x3
 7723 00c4 0E       		.uleb128 0xe
 7724 00c5 3A       		.uleb128 0x3a
 7725 00c6 0B       		.uleb128 0xb
 7726 00c7 3B       		.uleb128 0x3b
 7727 00c8 0B       		.uleb128 0xb
 7728 00c9 49       		.uleb128 0x49
 7729 00ca 13       		.uleb128 0x13
 7730 00cb 38       		.uleb128 0x38
 7731 00cc 0B       		.uleb128 0xb
 7732 00cd 00       		.byte	0
 7733 00ce 00       		.byte	0
 7734 00cf 10       		.uleb128 0x10
 7735 00d0 0D       		.uleb128 0xd
 7736 00d1 00       		.byte	0
ARM GAS  C:\Users\d3bug\AppData\Local\Temp\cct3SNM7.s 			page 169


 7737 00d2 03       		.uleb128 0x3
 7738 00d3 08       		.uleb128 0x8
 7739 00d4 3A       		.uleb128 0x3a
 7740 00d5 0B       		.uleb128 0xb
 7741 00d6 3B       		.uleb128 0x3b
 7742 00d7 0B       		.uleb128 0xb
 7743 00d8 49       		.uleb128 0x49
 7744 00d9 13       		.uleb128 0x13
 7745 00da 0B       		.uleb128 0xb
 7746 00db 0B       		.uleb128 0xb
 7747 00dc 0D       		.uleb128 0xd
 7748 00dd 0B       		.uleb128 0xb
 7749 00de 0C       		.uleb128 0xc
 7750 00df 0B       		.uleb128 0xb
 7751 00e0 38       		.uleb128 0x38
 7752 00e1 0B       		.uleb128 0xb
 7753 00e2 00       		.byte	0
 7754 00e3 00       		.byte	0
 7755 00e4 11       		.uleb128 0x11
 7756 00e5 15       		.uleb128 0x15
 7757 00e6 01       		.byte	0x1
 7758 00e7 27       		.uleb128 0x27
 7759 00e8 19       		.uleb128 0x19
 7760 00e9 49       		.uleb128 0x49
 7761 00ea 13       		.uleb128 0x13
 7762 00eb 01       		.uleb128 0x1
 7763 00ec 13       		.uleb128 0x13
 7764 00ed 00       		.byte	0
 7765 00ee 00       		.byte	0
 7766 00ef 12       		.uleb128 0x12
 7767 00f0 05       		.uleb128 0x5
 7768 00f1 00       		.byte	0
 7769 00f2 49       		.uleb128 0x49
 7770 00f3 13       		.uleb128 0x13
 7771 00f4 00       		.byte	0
 7772 00f5 00       		.byte	0
 7773 00f6 13       		.uleb128 0x13
 7774 00f7 04       		.uleb128 0x4
 7775 00f8 01       		.byte	0x1
 7776 00f9 0B       		.uleb128 0xb
 7777 00fa 0B       		.uleb128 0xb
 7778 00fb 49       		.uleb128 0x49
 7779 00fc 13       		.uleb128 0x13
 7780 00fd 3A       		.uleb128 0x3a
 7781 00fe 0B       		.uleb128 0xb
 7782 00ff 3B       		.uleb128 0x3b
 7783 0100 0B       		.uleb128 0xb
 7784 0101 01       		.uleb128 0x1
 7785 0102 13       		.uleb128 0x13
 7786 0103 00       		.byte	0
 7787 0104 00       		.byte	0
 7788 0105 14       		.uleb128 0x14
 7789 0106 28       		.uleb128 0x28
 7790 0107 00       		.byte	0
 7791 0108 03       		.uleb128 0x3
 7792 0109 0E       		.uleb128 0xe
 7793 010a 1C       		.uleb128 0x1c
ARM GAS  C:\Users\d3bug\AppData\Local\Temp\cct3SNM7.s 			page 170


 7794 010b 0B       		.uleb128 0xb
 7795 010c 00       		.byte	0
 7796 010d 00       		.byte	0
 7797 010e 15       		.uleb128 0x15
 7798 010f 01       		.uleb128 0x1
 7799 0110 01       		.byte	0x1
 7800 0111 49       		.uleb128 0x49
 7801 0112 13       		.uleb128 0x13
 7802 0113 01       		.uleb128 0x1
 7803 0114 13       		.uleb128 0x13
 7804 0115 00       		.byte	0
 7805 0116 00       		.byte	0
 7806 0117 16       		.uleb128 0x16
 7807 0118 21       		.uleb128 0x21
 7808 0119 00       		.byte	0
 7809 011a 49       		.uleb128 0x49
 7810 011b 13       		.uleb128 0x13
 7811 011c 2F       		.uleb128 0x2f
 7812 011d 0B       		.uleb128 0xb
 7813 011e 00       		.byte	0
 7814 011f 00       		.byte	0
 7815 0120 17       		.uleb128 0x17
 7816 0121 2E       		.uleb128 0x2e
 7817 0122 01       		.byte	0x1
 7818 0123 03       		.uleb128 0x3
 7819 0124 0E       		.uleb128 0xe
 7820 0125 3A       		.uleb128 0x3a
 7821 0126 0B       		.uleb128 0xb
 7822 0127 3B       		.uleb128 0x3b
 7823 0128 0B       		.uleb128 0xb
 7824 0129 27       		.uleb128 0x27
 7825 012a 19       		.uleb128 0x19
 7826 012b 49       		.uleb128 0x49
 7827 012c 13       		.uleb128 0x13
 7828 012d 20       		.uleb128 0x20
 7829 012e 0B       		.uleb128 0xb
 7830 012f 01       		.uleb128 0x1
 7831 0130 13       		.uleb128 0x13
 7832 0131 00       		.byte	0
 7833 0132 00       		.byte	0
 7834 0133 18       		.uleb128 0x18
 7835 0134 05       		.uleb128 0x5
 7836 0135 00       		.byte	0
 7837 0136 03       		.uleb128 0x3
 7838 0137 0E       		.uleb128 0xe
 7839 0138 3A       		.uleb128 0x3a
 7840 0139 0B       		.uleb128 0xb
 7841 013a 3B       		.uleb128 0x3b
 7842 013b 0B       		.uleb128 0xb
 7843 013c 49       		.uleb128 0x49
 7844 013d 13       		.uleb128 0x13
 7845 013e 00       		.byte	0
 7846 013f 00       		.byte	0
 7847 0140 19       		.uleb128 0x19
 7848 0141 2E       		.uleb128 0x2e
 7849 0142 01       		.byte	0x1
 7850 0143 03       		.uleb128 0x3
ARM GAS  C:\Users\d3bug\AppData\Local\Temp\cct3SNM7.s 			page 171


 7851 0144 0E       		.uleb128 0xe
 7852 0145 3A       		.uleb128 0x3a
 7853 0146 0B       		.uleb128 0xb
 7854 0147 3B       		.uleb128 0x3b
 7855 0148 05       		.uleb128 0x5
 7856 0149 27       		.uleb128 0x27
 7857 014a 19       		.uleb128 0x19
 7858 014b 49       		.uleb128 0x49
 7859 014c 13       		.uleb128 0x13
 7860 014d 20       		.uleb128 0x20
 7861 014e 0B       		.uleb128 0xb
 7862 014f 01       		.uleb128 0x1
 7863 0150 13       		.uleb128 0x13
 7864 0151 00       		.byte	0
 7865 0152 00       		.byte	0
 7866 0153 1A       		.uleb128 0x1a
 7867 0154 05       		.uleb128 0x5
 7868 0155 00       		.byte	0
 7869 0156 03       		.uleb128 0x3
 7870 0157 0E       		.uleb128 0xe
 7871 0158 3A       		.uleb128 0x3a
 7872 0159 0B       		.uleb128 0xb
 7873 015a 3B       		.uleb128 0x3b
 7874 015b 05       		.uleb128 0x5
 7875 015c 49       		.uleb128 0x49
 7876 015d 13       		.uleb128 0x13
 7877 015e 00       		.byte	0
 7878 015f 00       		.byte	0
 7879 0160 1B       		.uleb128 0x1b
 7880 0161 2E       		.uleb128 0x2e
 7881 0162 01       		.byte	0x1
 7882 0163 03       		.uleb128 0x3
 7883 0164 0E       		.uleb128 0xe
 7884 0165 3A       		.uleb128 0x3a
 7885 0166 0B       		.uleb128 0xb
 7886 0167 3B       		.uleb128 0x3b
 7887 0168 0B       		.uleb128 0xb
 7888 0169 27       		.uleb128 0x27
 7889 016a 19       		.uleb128 0x19
 7890 016b 20       		.uleb128 0x20
 7891 016c 0B       		.uleb128 0xb
 7892 016d 01       		.uleb128 0x1
 7893 016e 13       		.uleb128 0x13
 7894 016f 00       		.byte	0
 7895 0170 00       		.byte	0
 7896 0171 1C       		.uleb128 0x1c
 7897 0172 2E       		.uleb128 0x2e
 7898 0173 01       		.byte	0x1
 7899 0174 03       		.uleb128 0x3
 7900 0175 0E       		.uleb128 0xe
 7901 0176 3A       		.uleb128 0x3a
 7902 0177 0B       		.uleb128 0xb
 7903 0178 3B       		.uleb128 0x3b
 7904 0179 05       		.uleb128 0x5
 7905 017a 27       		.uleb128 0x27
 7906 017b 19       		.uleb128 0x19
 7907 017c 11       		.uleb128 0x11
ARM GAS  C:\Users\d3bug\AppData\Local\Temp\cct3SNM7.s 			page 172


 7908 017d 01       		.uleb128 0x1
 7909 017e 12       		.uleb128 0x12
 7910 017f 06       		.uleb128 0x6
 7911 0180 40       		.uleb128 0x40
 7912 0181 18       		.uleb128 0x18
 7913 0182 9642     		.uleb128 0x2116
 7914 0184 19       		.uleb128 0x19
 7915 0185 01       		.uleb128 0x1
 7916 0186 13       		.uleb128 0x13
 7917 0187 00       		.byte	0
 7918 0188 00       		.byte	0
 7919 0189 1D       		.uleb128 0x1d
 7920 018a 05       		.uleb128 0x5
 7921 018b 00       		.byte	0
 7922 018c 03       		.uleb128 0x3
 7923 018d 0E       		.uleb128 0xe
 7924 018e 3A       		.uleb128 0x3a
 7925 018f 0B       		.uleb128 0xb
 7926 0190 3B       		.uleb128 0x3b
 7927 0191 05       		.uleb128 0x5
 7928 0192 49       		.uleb128 0x49
 7929 0193 13       		.uleb128 0x13
 7930 0194 02       		.uleb128 0x2
 7931 0195 17       		.uleb128 0x17
 7932 0196 00       		.byte	0
 7933 0197 00       		.byte	0
 7934 0198 1E       		.uleb128 0x1e
 7935 0199 34       		.uleb128 0x34
 7936 019a 00       		.byte	0
 7937 019b 03       		.uleb128 0x3
 7938 019c 08       		.uleb128 0x8
 7939 019d 3A       		.uleb128 0x3a
 7940 019e 0B       		.uleb128 0xb
 7941 019f 3B       		.uleb128 0x3b
 7942 01a0 05       		.uleb128 0x5
 7943 01a1 49       		.uleb128 0x49
 7944 01a2 13       		.uleb128 0x13
 7945 01a3 02       		.uleb128 0x2
 7946 01a4 17       		.uleb128 0x17
 7947 01a5 00       		.byte	0
 7948 01a6 00       		.byte	0
 7949 01a7 1F       		.uleb128 0x1f
 7950 01a8 34       		.uleb128 0x34
 7951 01a9 00       		.byte	0
 7952 01aa 03       		.uleb128 0x3
 7953 01ab 0E       		.uleb128 0xe
 7954 01ac 3A       		.uleb128 0x3a
 7955 01ad 0B       		.uleb128 0xb
 7956 01ae 3B       		.uleb128 0x3b
 7957 01af 05       		.uleb128 0x5
 7958 01b0 49       		.uleb128 0x49
 7959 01b1 13       		.uleb128 0x13
 7960 01b2 02       		.uleb128 0x2
 7961 01b3 17       		.uleb128 0x17
 7962 01b4 00       		.byte	0
 7963 01b5 00       		.byte	0
 7964 01b6 20       		.uleb128 0x20
ARM GAS  C:\Users\d3bug\AppData\Local\Temp\cct3SNM7.s 			page 173


 7965 01b7 898201   		.uleb128 0x4109
 7966 01ba 01       		.byte	0x1
 7967 01bb 11       		.uleb128 0x11
 7968 01bc 01       		.uleb128 0x1
 7969 01bd 31       		.uleb128 0x31
 7970 01be 13       		.uleb128 0x13
 7971 01bf 00       		.byte	0
 7972 01c0 00       		.byte	0
 7973 01c1 21       		.uleb128 0x21
 7974 01c2 8A8201   		.uleb128 0x410a
 7975 01c5 00       		.byte	0
 7976 01c6 02       		.uleb128 0x2
 7977 01c7 18       		.uleb128 0x18
 7978 01c8 9142     		.uleb128 0x2111
 7979 01ca 18       		.uleb128 0x18
 7980 01cb 00       		.byte	0
 7981 01cc 00       		.byte	0
 7982 01cd 22       		.uleb128 0x22
 7983 01ce 2E       		.uleb128 0x2e
 7984 01cf 01       		.byte	0x1
 7985 01d0 03       		.uleb128 0x3
 7986 01d1 0E       		.uleb128 0xe
 7987 01d2 3A       		.uleb128 0x3a
 7988 01d3 0B       		.uleb128 0xb
 7989 01d4 3B       		.uleb128 0x3b
 7990 01d5 05       		.uleb128 0x5
 7991 01d6 27       		.uleb128 0x27
 7992 01d7 19       		.uleb128 0x19
 7993 01d8 49       		.uleb128 0x49
 7994 01d9 13       		.uleb128 0x13
 7995 01da 11       		.uleb128 0x11
 7996 01db 01       		.uleb128 0x1
 7997 01dc 12       		.uleb128 0x12
 7998 01dd 06       		.uleb128 0x6
 7999 01de 40       		.uleb128 0x40
 8000 01df 18       		.uleb128 0x18
 8001 01e0 9742     		.uleb128 0x2117
 8002 01e2 19       		.uleb128 0x19
 8003 01e3 01       		.uleb128 0x1
 8004 01e4 13       		.uleb128 0x13
 8005 01e5 00       		.byte	0
 8006 01e6 00       		.byte	0
 8007 01e7 23       		.uleb128 0x23
 8008 01e8 0B       		.uleb128 0xb
 8009 01e9 01       		.byte	0x1
 8010 01ea 11       		.uleb128 0x11
 8011 01eb 01       		.uleb128 0x1
 8012 01ec 12       		.uleb128 0x12
 8013 01ed 06       		.uleb128 0x6
 8014 01ee 00       		.byte	0
 8015 01ef 00       		.byte	0
 8016 01f0 24       		.uleb128 0x24
 8017 01f1 34       		.uleb128 0x34
 8018 01f2 00       		.byte	0
 8019 01f3 03       		.uleb128 0x3
 8020 01f4 0E       		.uleb128 0xe
 8021 01f5 3A       		.uleb128 0x3a
ARM GAS  C:\Users\d3bug\AppData\Local\Temp\cct3SNM7.s 			page 174


 8022 01f6 0B       		.uleb128 0xb
 8023 01f7 3B       		.uleb128 0x3b
 8024 01f8 05       		.uleb128 0x5
 8025 01f9 49       		.uleb128 0x49
 8026 01fa 13       		.uleb128 0x13
 8027 01fb 02       		.uleb128 0x2
 8028 01fc 18       		.uleb128 0x18
 8029 01fd 00       		.byte	0
 8030 01fe 00       		.byte	0
 8031 01ff 25       		.uleb128 0x25
 8032 0200 0B       		.uleb128 0xb
 8033 0201 01       		.byte	0x1
 8034 0202 11       		.uleb128 0x11
 8035 0203 01       		.uleb128 0x1
 8036 0204 12       		.uleb128 0x12
 8037 0205 06       		.uleb128 0x6
 8038 0206 01       		.uleb128 0x1
 8039 0207 13       		.uleb128 0x13
 8040 0208 00       		.byte	0
 8041 0209 00       		.byte	0
 8042 020a 26       		.uleb128 0x26
 8043 020b 34       		.uleb128 0x34
 8044 020c 00       		.byte	0
 8045 020d 03       		.uleb128 0x3
 8046 020e 08       		.uleb128 0x8
 8047 020f 3A       		.uleb128 0x3a
 8048 0210 0B       		.uleb128 0xb
 8049 0211 3B       		.uleb128 0x3b
 8050 0212 05       		.uleb128 0x5
 8051 0213 49       		.uleb128 0x49
 8052 0214 13       		.uleb128 0x13
 8053 0215 02       		.uleb128 0x2
 8054 0216 18       		.uleb128 0x18
 8055 0217 00       		.byte	0
 8056 0218 00       		.byte	0
 8057 0219 27       		.uleb128 0x27
 8058 021a 898201   		.uleb128 0x4109
 8059 021d 01       		.byte	0x1
 8060 021e 11       		.uleb128 0x11
 8061 021f 01       		.uleb128 0x1
 8062 0220 31       		.uleb128 0x31
 8063 0221 13       		.uleb128 0x13
 8064 0222 01       		.uleb128 0x1
 8065 0223 13       		.uleb128 0x13
 8066 0224 00       		.byte	0
 8067 0225 00       		.byte	0
 8068 0226 28       		.uleb128 0x28
 8069 0227 2E       		.uleb128 0x2e
 8070 0228 01       		.byte	0x1
 8071 0229 3F       		.uleb128 0x3f
 8072 022a 19       		.uleb128 0x19
 8073 022b 03       		.uleb128 0x3
 8074 022c 0E       		.uleb128 0xe
 8075 022d 3A       		.uleb128 0x3a
 8076 022e 0B       		.uleb128 0xb
 8077 022f 3B       		.uleb128 0x3b
 8078 0230 05       		.uleb128 0x5
ARM GAS  C:\Users\d3bug\AppData\Local\Temp\cct3SNM7.s 			page 175


 8079 0231 27       		.uleb128 0x27
 8080 0232 19       		.uleb128 0x19
 8081 0233 11       		.uleb128 0x11
 8082 0234 01       		.uleb128 0x1
 8083 0235 12       		.uleb128 0x12
 8084 0236 06       		.uleb128 0x6
 8085 0237 40       		.uleb128 0x40
 8086 0238 18       		.uleb128 0x18
 8087 0239 9742     		.uleb128 0x2117
 8088 023b 19       		.uleb128 0x19
 8089 023c 01       		.uleb128 0x1
 8090 023d 13       		.uleb128 0x13
 8091 023e 00       		.byte	0
 8092 023f 00       		.byte	0
 8093 0240 29       		.uleb128 0x29
 8094 0241 05       		.uleb128 0x5
 8095 0242 00       		.byte	0
 8096 0243 03       		.uleb128 0x3
 8097 0244 08       		.uleb128 0x8
 8098 0245 3A       		.uleb128 0x3a
 8099 0246 0B       		.uleb128 0xb
 8100 0247 3B       		.uleb128 0x3b
 8101 0248 05       		.uleb128 0x5
 8102 0249 49       		.uleb128 0x49
 8103 024a 13       		.uleb128 0x13
 8104 024b 02       		.uleb128 0x2
 8105 024c 17       		.uleb128 0x17
 8106 024d 00       		.byte	0
 8107 024e 00       		.byte	0
 8108 024f 2A       		.uleb128 0x2a
 8109 0250 2E       		.uleb128 0x2e
 8110 0251 01       		.byte	0x1
 8111 0252 3F       		.uleb128 0x3f
 8112 0253 19       		.uleb128 0x19
 8113 0254 03       		.uleb128 0x3
 8114 0255 0E       		.uleb128 0xe
 8115 0256 3A       		.uleb128 0x3a
 8116 0257 0B       		.uleb128 0xb
 8117 0258 3B       		.uleb128 0x3b
 8118 0259 05       		.uleb128 0x5
 8119 025a 27       		.uleb128 0x27
 8120 025b 19       		.uleb128 0x19
 8121 025c 49       		.uleb128 0x49
 8122 025d 13       		.uleb128 0x13
 8123 025e 11       		.uleb128 0x11
 8124 025f 01       		.uleb128 0x1
 8125 0260 12       		.uleb128 0x12
 8126 0261 06       		.uleb128 0x6
 8127 0262 40       		.uleb128 0x40
 8128 0263 18       		.uleb128 0x18
 8129 0264 9742     		.uleb128 0x2117
 8130 0266 19       		.uleb128 0x19
 8131 0267 01       		.uleb128 0x1
 8132 0268 13       		.uleb128 0x13
 8133 0269 00       		.byte	0
 8134 026a 00       		.byte	0
 8135 026b 2B       		.uleb128 0x2b
ARM GAS  C:\Users\d3bug\AppData\Local\Temp\cct3SNM7.s 			page 176


 8136 026c 34       		.uleb128 0x34
 8137 026d 00       		.byte	0
 8138 026e 03       		.uleb128 0x3
 8139 026f 0E       		.uleb128 0xe
 8140 0270 3A       		.uleb128 0x3a
 8141 0271 0B       		.uleb128 0xb
 8142 0272 3B       		.uleb128 0x3b
 8143 0273 05       		.uleb128 0x5
 8144 0274 49       		.uleb128 0x49
 8145 0275 13       		.uleb128 0x13
 8146 0276 00       		.byte	0
 8147 0277 00       		.byte	0
 8148 0278 2C       		.uleb128 0x2c
 8149 0279 1D       		.uleb128 0x1d
 8150 027a 01       		.byte	0x1
 8151 027b 31       		.uleb128 0x31
 8152 027c 13       		.uleb128 0x13
 8153 027d 11       		.uleb128 0x11
 8154 027e 01       		.uleb128 0x1
 8155 027f 12       		.uleb128 0x12
 8156 0280 06       		.uleb128 0x6
 8157 0281 58       		.uleb128 0x58
 8158 0282 0B       		.uleb128 0xb
 8159 0283 59       		.uleb128 0x59
 8160 0284 05       		.uleb128 0x5
 8161 0285 01       		.uleb128 0x1
 8162 0286 13       		.uleb128 0x13
 8163 0287 00       		.byte	0
 8164 0288 00       		.byte	0
 8165 0289 2D       		.uleb128 0x2d
 8166 028a 05       		.uleb128 0x5
 8167 028b 00       		.byte	0
 8168 028c 31       		.uleb128 0x31
 8169 028d 13       		.uleb128 0x13
 8170 028e 02       		.uleb128 0x2
 8171 028f 17       		.uleb128 0x17
 8172 0290 00       		.byte	0
 8173 0291 00       		.byte	0
 8174 0292 2E       		.uleb128 0x2e
 8175 0293 898201   		.uleb128 0x4109
 8176 0296 01       		.byte	0x1
 8177 0297 11       		.uleb128 0x11
 8178 0298 01       		.uleb128 0x1
 8179 0299 01       		.uleb128 0x1
 8180 029a 13       		.uleb128 0x13
 8181 029b 00       		.byte	0
 8182 029c 00       		.byte	0
 8183 029d 2F       		.uleb128 0x2f
 8184 029e 898201   		.uleb128 0x4109
 8185 02a1 01       		.byte	0x1
 8186 02a2 11       		.uleb128 0x11
 8187 02a3 01       		.uleb128 0x1
 8188 02a4 00       		.byte	0
 8189 02a5 00       		.byte	0
 8190 02a6 30       		.uleb128 0x30
 8191 02a7 1D       		.uleb128 0x1d
 8192 02a8 01       		.byte	0x1
ARM GAS  C:\Users\d3bug\AppData\Local\Temp\cct3SNM7.s 			page 177


 8193 02a9 31       		.uleb128 0x31
 8194 02aa 13       		.uleb128 0x13
 8195 02ab 11       		.uleb128 0x11
 8196 02ac 01       		.uleb128 0x1
 8197 02ad 12       		.uleb128 0x12
 8198 02ae 06       		.uleb128 0x6
 8199 02af 58       		.uleb128 0x58
 8200 02b0 0B       		.uleb128 0xb
 8201 02b1 59       		.uleb128 0x59
 8202 02b2 05       		.uleb128 0x5
 8203 02b3 00       		.byte	0
 8204 02b4 00       		.byte	0
 8205 02b5 31       		.uleb128 0x31
 8206 02b6 0B       		.uleb128 0xb
 8207 02b7 01       		.byte	0x1
 8208 02b8 55       		.uleb128 0x55
 8209 02b9 17       		.uleb128 0x17
 8210 02ba 01       		.uleb128 0x1
 8211 02bb 13       		.uleb128 0x13
 8212 02bc 00       		.byte	0
 8213 02bd 00       		.byte	0
 8214 02be 32       		.uleb128 0x32
 8215 02bf 34       		.uleb128 0x34
 8216 02c0 00       		.byte	0
 8217 02c1 03       		.uleb128 0x3
 8218 02c2 08       		.uleb128 0x8
 8219 02c3 3A       		.uleb128 0x3a
 8220 02c4 0B       		.uleb128 0xb
 8221 02c5 3B       		.uleb128 0x3b
 8222 02c6 05       		.uleb128 0x5
 8223 02c7 49       		.uleb128 0x49
 8224 02c8 13       		.uleb128 0x13
 8225 02c9 00       		.byte	0
 8226 02ca 00       		.byte	0
 8227 02cb 33       		.uleb128 0x33
 8228 02cc 898201   		.uleb128 0x4109
 8229 02cf 00       		.byte	0
 8230 02d0 11       		.uleb128 0x11
 8231 02d1 01       		.uleb128 0x1
 8232 02d2 31       		.uleb128 0x31
 8233 02d3 13       		.uleb128 0x13
 8234 02d4 00       		.byte	0
 8235 02d5 00       		.byte	0
 8236 02d6 34       		.uleb128 0x34
 8237 02d7 2E       		.uleb128 0x2e
 8238 02d8 01       		.byte	0x1
 8239 02d9 3F       		.uleb128 0x3f
 8240 02da 19       		.uleb128 0x19
 8241 02db 03       		.uleb128 0x3
 8242 02dc 0E       		.uleb128 0xe
 8243 02dd 3A       		.uleb128 0x3a
 8244 02de 0B       		.uleb128 0xb
 8245 02df 3B       		.uleb128 0x3b
 8246 02e0 0B       		.uleb128 0xb
 8247 02e1 27       		.uleb128 0x27
 8248 02e2 19       		.uleb128 0x19
 8249 02e3 11       		.uleb128 0x11
ARM GAS  C:\Users\d3bug\AppData\Local\Temp\cct3SNM7.s 			page 178


 8250 02e4 01       		.uleb128 0x1
 8251 02e5 12       		.uleb128 0x12
 8252 02e6 06       		.uleb128 0x6
 8253 02e7 40       		.uleb128 0x40
 8254 02e8 18       		.uleb128 0x18
 8255 02e9 9742     		.uleb128 0x2117
 8256 02eb 19       		.uleb128 0x19
 8257 02ec 01       		.uleb128 0x1
 8258 02ed 13       		.uleb128 0x13
 8259 02ee 00       		.byte	0
 8260 02ef 00       		.byte	0
 8261 02f0 35       		.uleb128 0x35
 8262 02f1 05       		.uleb128 0x5
 8263 02f2 00       		.byte	0
 8264 02f3 03       		.uleb128 0x3
 8265 02f4 0E       		.uleb128 0xe
 8266 02f5 3A       		.uleb128 0x3a
 8267 02f6 0B       		.uleb128 0xb
 8268 02f7 3B       		.uleb128 0x3b
 8269 02f8 0B       		.uleb128 0xb
 8270 02f9 49       		.uleb128 0x49
 8271 02fa 13       		.uleb128 0x13
 8272 02fb 02       		.uleb128 0x2
 8273 02fc 17       		.uleb128 0x17
 8274 02fd 00       		.byte	0
 8275 02fe 00       		.byte	0
 8276 02ff 36       		.uleb128 0x36
 8277 0300 34       		.uleb128 0x34
 8278 0301 00       		.byte	0
 8279 0302 03       		.uleb128 0x3
 8280 0303 08       		.uleb128 0x8
 8281 0304 3A       		.uleb128 0x3a
 8282 0305 0B       		.uleb128 0xb
 8283 0306 3B       		.uleb128 0x3b
 8284 0307 0B       		.uleb128 0xb
 8285 0308 49       		.uleb128 0x49
 8286 0309 13       		.uleb128 0x13
 8287 030a 02       		.uleb128 0x2
 8288 030b 17       		.uleb128 0x17
 8289 030c 00       		.byte	0
 8290 030d 00       		.byte	0
 8291 030e 37       		.uleb128 0x37
 8292 030f 2E       		.uleb128 0x2e
 8293 0310 01       		.byte	0x1
 8294 0311 3F       		.uleb128 0x3f
 8295 0312 19       		.uleb128 0x19
 8296 0313 03       		.uleb128 0x3
 8297 0314 0E       		.uleb128 0xe
 8298 0315 3A       		.uleb128 0x3a
 8299 0316 0B       		.uleb128 0xb
 8300 0317 3B       		.uleb128 0x3b
 8301 0318 0B       		.uleb128 0xb
 8302 0319 27       		.uleb128 0x27
 8303 031a 19       		.uleb128 0x19
 8304 031b 49       		.uleb128 0x49
 8305 031c 13       		.uleb128 0x13
 8306 031d 11       		.uleb128 0x11
ARM GAS  C:\Users\d3bug\AppData\Local\Temp\cct3SNM7.s 			page 179


 8307 031e 01       		.uleb128 0x1
 8308 031f 12       		.uleb128 0x12
 8309 0320 06       		.uleb128 0x6
 8310 0321 40       		.uleb128 0x40
 8311 0322 18       		.uleb128 0x18
 8312 0323 9742     		.uleb128 0x2117
 8313 0325 19       		.uleb128 0x19
 8314 0326 01       		.uleb128 0x1
 8315 0327 13       		.uleb128 0x13
 8316 0328 00       		.byte	0
 8317 0329 00       		.byte	0
 8318 032a 38       		.uleb128 0x38
 8319 032b 05       		.uleb128 0x5
 8320 032c 00       		.byte	0
 8321 032d 03       		.uleb128 0x3
 8322 032e 08       		.uleb128 0x8
 8323 032f 3A       		.uleb128 0x3a
 8324 0330 0B       		.uleb128 0xb
 8325 0331 3B       		.uleb128 0x3b
 8326 0332 0B       		.uleb128 0xb
 8327 0333 49       		.uleb128 0x49
 8328 0334 13       		.uleb128 0x13
 8329 0335 02       		.uleb128 0x2
 8330 0336 17       		.uleb128 0x17
 8331 0337 00       		.byte	0
 8332 0338 00       		.byte	0
 8333 0339 39       		.uleb128 0x39
 8334 033a 34       		.uleb128 0x34
 8335 033b 00       		.byte	0
 8336 033c 03       		.uleb128 0x3
 8337 033d 0E       		.uleb128 0xe
 8338 033e 3A       		.uleb128 0x3a
 8339 033f 0B       		.uleb128 0xb
 8340 0340 3B       		.uleb128 0x3b
 8341 0341 0B       		.uleb128 0xb
 8342 0342 49       		.uleb128 0x49
 8343 0343 13       		.uleb128 0x13
 8344 0344 02       		.uleb128 0x2
 8345 0345 17       		.uleb128 0x17
 8346 0346 00       		.byte	0
 8347 0347 00       		.byte	0
 8348 0348 3A       		.uleb128 0x3a
 8349 0349 1D       		.uleb128 0x1d
 8350 034a 01       		.byte	0x1
 8351 034b 31       		.uleb128 0x31
 8352 034c 13       		.uleb128 0x13
 8353 034d 11       		.uleb128 0x11
 8354 034e 01       		.uleb128 0x1
 8355 034f 12       		.uleb128 0x12
 8356 0350 06       		.uleb128 0x6
 8357 0351 58       		.uleb128 0x58
 8358 0352 0B       		.uleb128 0xb
 8359 0353 59       		.uleb128 0x59
 8360 0354 0B       		.uleb128 0xb
 8361 0355 01       		.uleb128 0x1
 8362 0356 13       		.uleb128 0x13
 8363 0357 00       		.byte	0
ARM GAS  C:\Users\d3bug\AppData\Local\Temp\cct3SNM7.s 			page 180


 8364 0358 00       		.byte	0
 8365 0359 3B       		.uleb128 0x3b
 8366 035a 2E       		.uleb128 0x2e
 8367 035b 01       		.byte	0x1
 8368 035c 3F       		.uleb128 0x3f
 8369 035d 19       		.uleb128 0x19
 8370 035e 03       		.uleb128 0x3
 8371 035f 0E       		.uleb128 0xe
 8372 0360 3A       		.uleb128 0x3a
 8373 0361 0B       		.uleb128 0xb
 8374 0362 3B       		.uleb128 0x3b
 8375 0363 05       		.uleb128 0x5
 8376 0364 27       		.uleb128 0x27
 8377 0365 19       		.uleb128 0x19
 8378 0366 11       		.uleb128 0x11
 8379 0367 01       		.uleb128 0x1
 8380 0368 12       		.uleb128 0x12
 8381 0369 06       		.uleb128 0x6
 8382 036a 40       		.uleb128 0x40
 8383 036b 18       		.uleb128 0x18
 8384 036c 9642     		.uleb128 0x2116
 8385 036e 19       		.uleb128 0x19
 8386 036f 01       		.uleb128 0x1
 8387 0370 13       		.uleb128 0x13
 8388 0371 00       		.byte	0
 8389 0372 00       		.byte	0
 8390 0373 3C       		.uleb128 0x3c
 8391 0374 34       		.uleb128 0x34
 8392 0375 00       		.byte	0
 8393 0376 03       		.uleb128 0x3
 8394 0377 0E       		.uleb128 0xe
 8395 0378 3A       		.uleb128 0x3a
 8396 0379 0B       		.uleb128 0xb
 8397 037a 3B       		.uleb128 0x3b
 8398 037b 0B       		.uleb128 0xb
 8399 037c 49       		.uleb128 0x49
 8400 037d 13       		.uleb128 0x13
 8401 037e 02       		.uleb128 0x2
 8402 037f 18       		.uleb128 0x18
 8403 0380 00       		.byte	0
 8404 0381 00       		.byte	0
 8405 0382 3D       		.uleb128 0x3d
 8406 0383 34       		.uleb128 0x34
 8407 0384 00       		.byte	0
 8408 0385 03       		.uleb128 0x3
 8409 0386 0E       		.uleb128 0xe
 8410 0387 3A       		.uleb128 0x3a
 8411 0388 0B       		.uleb128 0xb
 8412 0389 3B       		.uleb128 0x3b
 8413 038a 0B       		.uleb128 0xb
 8414 038b 49       		.uleb128 0x49
 8415 038c 13       		.uleb128 0x13
 8416 038d 3F       		.uleb128 0x3f
 8417 038e 19       		.uleb128 0x19
 8418 038f 3C       		.uleb128 0x3c
 8419 0390 19       		.uleb128 0x19
 8420 0391 00       		.byte	0
ARM GAS  C:\Users\d3bug\AppData\Local\Temp\cct3SNM7.s 			page 181


 8421 0392 00       		.byte	0
 8422 0393 3E       		.uleb128 0x3e
 8423 0394 2E       		.uleb128 0x2e
 8424 0395 00       		.byte	0
 8425 0396 3F       		.uleb128 0x3f
 8426 0397 19       		.uleb128 0x19
 8427 0398 3C       		.uleb128 0x3c
 8428 0399 19       		.uleb128 0x19
 8429 039a 6E       		.uleb128 0x6e
 8430 039b 0E       		.uleb128 0xe
 8431 039c 03       		.uleb128 0x3
 8432 039d 0E       		.uleb128 0xe
 8433 039e 3A       		.uleb128 0x3a
 8434 039f 0B       		.uleb128 0xb
 8435 03a0 3B       		.uleb128 0x3b
 8436 03a1 05       		.uleb128 0x5
 8437 03a2 00       		.byte	0
 8438 03a3 00       		.byte	0
 8439 03a4 3F       		.uleb128 0x3f
 8440 03a5 2E       		.uleb128 0x2e
 8441 03a6 00       		.byte	0
 8442 03a7 3F       		.uleb128 0x3f
 8443 03a8 19       		.uleb128 0x19
 8444 03a9 3C       		.uleb128 0x3c
 8445 03aa 19       		.uleb128 0x19
 8446 03ab 6E       		.uleb128 0x6e
 8447 03ac 0E       		.uleb128 0xe
 8448 03ad 03       		.uleb128 0x3
 8449 03ae 0E       		.uleb128 0xe
 8450 03af 3A       		.uleb128 0x3a
 8451 03b0 0B       		.uleb128 0xb
 8452 03b1 3B       		.uleb128 0x3b
 8453 03b2 0B       		.uleb128 0xb
 8454 03b3 00       		.byte	0
 8455 03b4 00       		.byte	0
 8456 03b5 40       		.uleb128 0x40
 8457 03b6 2E       		.uleb128 0x2e
 8458 03b7 00       		.byte	0
 8459 03b8 3F       		.uleb128 0x3f
 8460 03b9 19       		.uleb128 0x19
 8461 03ba 3C       		.uleb128 0x3c
 8462 03bb 19       		.uleb128 0x19
 8463 03bc 6E       		.uleb128 0x6e
 8464 03bd 0E       		.uleb128 0xe
 8465 03be 03       		.uleb128 0x3
 8466 03bf 0E       		.uleb128 0xe
 8467 03c0 00       		.byte	0
 8468 03c1 00       		.byte	0
 8469 03c2 00       		.byte	0
 8470              		.section	.debug_loc,"",%progbits
 8471              	.Ldebug_loc0:
 8472              	.LLST0:
 8473 0000 00000000 		.4byte	.LVL0
 8474 0004 05000000 		.4byte	.LVL1-1
 8475 0008 0100     		.2byte	0x1
 8476 000a 50       		.byte	0x50
 8477 000b 05000000 		.4byte	.LVL1-1
ARM GAS  C:\Users\d3bug\AppData\Local\Temp\cct3SNM7.s 			page 182


 8478 000f 44000000 		.4byte	.LFE36
 8479 0013 0400     		.2byte	0x4
 8480 0015 F3       		.byte	0xf3
 8481 0016 01       		.uleb128 0x1
 8482 0017 50       		.byte	0x50
 8483 0018 9F       		.byte	0x9f
 8484 0019 00000000 		.4byte	0
 8485 001d 00000000 		.4byte	0
 8486              	.LLST1:
 8487 0021 06000000 		.4byte	.LVL1
 8488 0025 20000000 		.4byte	.LVL4
 8489 0029 0100     		.2byte	0x1
 8490 002b 50       		.byte	0x50
 8491 002c 20000000 		.4byte	.LVL4
 8492 0030 3E000000 		.4byte	.LVL10
 8493 0034 0100     		.2byte	0x1
 8494 0036 54       		.byte	0x54
 8495 0037 00000000 		.4byte	0
 8496 003b 00000000 		.4byte	0
 8497              	.LLST2:
 8498 003f 18000000 		.4byte	.LVL2
 8499 0043 1E000000 		.4byte	.LVL3
 8500 0047 0300     		.2byte	0x3
 8501 0049 71       		.byte	0x71
 8502 004a 7D       		.sleb128 -3
 8503 004b 9F       		.byte	0x9f
 8504 004c 1E000000 		.4byte	.LVL3
 8505 0050 21000000 		.4byte	.LVL5-1
 8506 0054 0100     		.2byte	0x1
 8507 0056 51       		.byte	0x51
 8508 0057 00000000 		.4byte	0
 8509 005b 00000000 		.4byte	0
 8510              	.LLST3:
 8511 005f 22000000 		.4byte	.LVL5
 8512 0063 3E000000 		.4byte	.LVL10
 8513 0067 0100     		.2byte	0x1
 8514 0069 50       		.byte	0x50
 8515 006a 00000000 		.4byte	0
 8516 006e 00000000 		.4byte	0
 8517              	.LLST4:
 8518 0072 22000000 		.4byte	.LVL5
 8519 0076 26000000 		.4byte	.LVL6
 8520 007a 0200     		.2byte	0x2
 8521 007c 30       		.byte	0x30
 8522 007d 9F       		.byte	0x9f
 8523 007e 26000000 		.4byte	.LVL6
 8524 0082 2E000000 		.4byte	.LVL7
 8525 0086 0100     		.2byte	0x1
 8526 0088 53       		.byte	0x53
 8527 0089 30000000 		.4byte	.LVL8
 8528 008d 3C000000 		.4byte	.LVL9
 8529 0091 0100     		.2byte	0x1
 8530 0093 53       		.byte	0x53
 8531 0094 00000000 		.4byte	0
 8532 0098 00000000 		.4byte	0
 8533              	.LLST5:
 8534 009c 00000000 		.4byte	.LVL11
ARM GAS  C:\Users\d3bug\AppData\Local\Temp\cct3SNM7.s 			page 183


 8535 00a0 19000000 		.4byte	.LVL12-1
 8536 00a4 0100     		.2byte	0x1
 8537 00a6 50       		.byte	0x50
 8538 00a7 19000000 		.4byte	.LVL12-1
 8539 00ab 0A010000 		.4byte	.LVL34
 8540 00af 0100     		.2byte	0x1
 8541 00b1 54       		.byte	0x54
 8542 00b2 0A010000 		.4byte	.LVL34
 8543 00b6 0C010000 		.4byte	.LVL35
 8544 00ba 0100     		.2byte	0x1
 8545 00bc 50       		.byte	0x50
 8546 00bd 0C010000 		.4byte	.LVL35
 8547 00c1 0E010000 		.4byte	.LVL36
 8548 00c5 0400     		.2byte	0x4
 8549 00c7 F3       		.byte	0xf3
 8550 00c8 01       		.uleb128 0x1
 8551 00c9 50       		.byte	0x50
 8552 00ca 9F       		.byte	0x9f
 8553 00cb 0E010000 		.4byte	.LVL36
 8554 00cf 10010000 		.4byte	.LVL37
 8555 00d3 0100     		.2byte	0x1
 8556 00d5 50       		.byte	0x50
 8557 00d6 10010000 		.4byte	.LVL37
 8558 00da 12010000 		.4byte	.LVL38
 8559 00de 0400     		.2byte	0x4
 8560 00e0 F3       		.byte	0xf3
 8561 00e1 01       		.uleb128 0x1
 8562 00e2 50       		.byte	0x50
 8563 00e3 9F       		.byte	0x9f
 8564 00e4 12010000 		.4byte	.LVL38
 8565 00e8 18010000 		.4byte	.LFE33
 8566 00ec 0100     		.2byte	0x1
 8567 00ee 54       		.byte	0x54
 8568 00ef 00000000 		.4byte	0
 8569 00f3 00000000 		.4byte	0
 8570              	.LLST6:
 8571 00f7 00000000 		.4byte	.LVL11
 8572 00fb 19000000 		.4byte	.LVL12-1
 8573 00ff 0100     		.2byte	0x1
 8574 0101 51       		.byte	0x51
 8575 0102 19000000 		.4byte	.LVL12-1
 8576 0106 0A010000 		.4byte	.LVL34
 8577 010a 0100     		.2byte	0x1
 8578 010c 56       		.byte	0x56
 8579 010d 0A010000 		.4byte	.LVL34
 8580 0111 12010000 		.4byte	.LVL38
 8581 0115 0100     		.2byte	0x1
 8582 0117 51       		.byte	0x51
 8583 0118 12010000 		.4byte	.LVL38
 8584 011c 18010000 		.4byte	.LFE33
 8585 0120 0100     		.2byte	0x1
 8586 0122 56       		.byte	0x56
 8587 0123 00000000 		.4byte	0
 8588 0127 00000000 		.4byte	0
 8589              	.LLST7:
 8590 012b 00000000 		.4byte	.LVL11
 8591 012f 19000000 		.4byte	.LVL12-1
ARM GAS  C:\Users\d3bug\AppData\Local\Temp\cct3SNM7.s 			page 184


 8592 0133 0100     		.2byte	0x1
 8593 0135 52       		.byte	0x52
 8594 0136 19000000 		.4byte	.LVL12-1
 8595 013a 0A010000 		.4byte	.LVL34
 8596 013e 0400     		.2byte	0x4
 8597 0140 F3       		.byte	0xf3
 8598 0141 01       		.uleb128 0x1
 8599 0142 52       		.byte	0x52
 8600 0143 9F       		.byte	0x9f
 8601 0144 0A010000 		.4byte	.LVL34
 8602 0148 12010000 		.4byte	.LVL38
 8603 014c 0100     		.2byte	0x1
 8604 014e 52       		.byte	0x52
 8605 014f 12010000 		.4byte	.LVL38
 8606 0153 18010000 		.4byte	.LFE33
 8607 0157 0400     		.2byte	0x4
 8608 0159 F3       		.byte	0xf3
 8609 015a 01       		.uleb128 0x1
 8610 015b 52       		.byte	0x52
 8611 015c 9F       		.byte	0x9f
 8612 015d 00000000 		.4byte	0
 8613 0161 00000000 		.4byte	0
 8614              	.LLST8:
 8615 0165 1C000000 		.4byte	.LVL13
 8616 0169 1E000000 		.4byte	.LVL14
 8617 016d 0100     		.2byte	0x1
 8618 016f 50       		.byte	0x50
 8619 0170 1E000000 		.4byte	.LVL14
 8620 0174 0A010000 		.4byte	.LVL34
 8621 0178 0100     		.2byte	0x1
 8622 017a 58       		.byte	0x58
 8623 017b 12010000 		.4byte	.LVL38
 8624 017f 18010000 		.4byte	.LFE33
 8625 0183 0100     		.2byte	0x1
 8626 0185 58       		.byte	0x58
 8627 0186 00000000 		.4byte	0
 8628 018a 00000000 		.4byte	0
 8629              	.LLST9:
 8630 018e 24000000 		.4byte	.LVL16
 8631 0192 0A010000 		.4byte	.LVL34
 8632 0196 0100     		.2byte	0x1
 8633 0198 59       		.byte	0x59
 8634 0199 12010000 		.4byte	.LVL38
 8635 019d 18010000 		.4byte	.LFE33
 8636 01a1 0100     		.2byte	0x1
 8637 01a3 59       		.byte	0x59
 8638 01a4 00000000 		.4byte	0
 8639 01a8 00000000 		.4byte	0
 8640              	.LLST10:
 8641 01ac 34000000 		.4byte	.LVL19
 8642 01b0 40000000 		.4byte	.LVL20
 8643 01b4 0100     		.2byte	0x1
 8644 01b6 50       		.byte	0x50
 8645 01b7 40000000 		.4byte	.LVL20
 8646 01bb F4000000 		.4byte	.LVL32
 8647 01bf 0100     		.2byte	0x1
 8648 01c1 55       		.byte	0x55
ARM GAS  C:\Users\d3bug\AppData\Local\Temp\cct3SNM7.s 			page 185


 8649 01c2 F4000000 		.4byte	.LVL32
 8650 01c6 0A010000 		.4byte	.LVL34
 8651 01ca 0300     		.2byte	0x3
 8652 01cc 75       		.byte	0x75
 8653 01cd 6A       		.sleb128 -22
 8654 01ce 9F       		.byte	0x9f
 8655 01cf 12010000 		.4byte	.LVL38
 8656 01d3 18010000 		.4byte	.LFE33
 8657 01d7 0300     		.2byte	0x3
 8658 01d9 75       		.byte	0x75
 8659 01da 6A       		.sleb128 -22
 8660 01db 9F       		.byte	0x9f
 8661 01dc 00000000 		.4byte	0
 8662 01e0 00000000 		.4byte	0
 8663              	.LLST11:
 8664 01e4 86000000 		.4byte	.LVL23
 8665 01e8 94000000 		.4byte	.LVL24
 8666 01ec 0200     		.2byte	0x2
 8667 01ee 30       		.byte	0x30
 8668 01ef 9F       		.byte	0x9f
 8669 01f0 94000000 		.4byte	.LVL24
 8670 01f4 EC000000 		.4byte	.LVL30
 8671 01f8 0100     		.2byte	0x1
 8672 01fa 57       		.byte	0x57
 8673 01fb EC000000 		.4byte	.LVL30
 8674 01ff F0000000 		.4byte	.LVL31
 8675 0203 0600     		.2byte	0x6
 8676 0205 77       		.byte	0x77
 8677 0206 00       		.sleb128 0
 8678 0207 09       		.byte	0x9
 8679 0208 F7       		.byte	0xf7
 8680 0209 1A       		.byte	0x1a
 8681 020a 9F       		.byte	0x9f
 8682 020b F0000000 		.4byte	.LVL31
 8683 020f 0A010000 		.4byte	.LVL34
 8684 0213 0100     		.2byte	0x1
 8685 0215 57       		.byte	0x57
 8686 0216 12010000 		.4byte	.LVL38
 8687 021a 18010000 		.4byte	.LFE33
 8688 021e 0100     		.2byte	0x1
 8689 0220 57       		.byte	0x57
 8690 0221 00000000 		.4byte	0
 8691 0225 00000000 		.4byte	0
 8692              	.LLST12:
 8693 0229 00000000 		.4byte	.LVL39
 8694 022d 09000000 		.4byte	.LVL40-1
 8695 0231 0100     		.2byte	0x1
 8696 0233 50       		.byte	0x50
 8697 0234 09000000 		.4byte	.LVL40-1
 8698 0238 24000000 		.4byte	.LFE19
 8699 023c 0100     		.2byte	0x1
 8700 023e 55       		.byte	0x55
 8701 023f 00000000 		.4byte	0
 8702 0243 00000000 		.4byte	0
 8703              	.LLST13:
 8704 0247 00000000 		.4byte	.LVL39
 8705 024b 09000000 		.4byte	.LVL40-1
ARM GAS  C:\Users\d3bug\AppData\Local\Temp\cct3SNM7.s 			page 186


 8706 024f 0100     		.2byte	0x1
 8707 0251 51       		.byte	0x51
 8708 0252 09000000 		.4byte	.LVL40-1
 8709 0256 24000000 		.4byte	.LFE19
 8710 025a 0400     		.2byte	0x4
 8711 025c F3       		.byte	0xf3
 8712 025d 01       		.uleb128 0x1
 8713 025e 51       		.byte	0x51
 8714 025f 9F       		.byte	0x9f
 8715 0260 00000000 		.4byte	0
 8716 0264 00000000 		.4byte	0
 8717              	.LLST14:
 8718 0268 0A000000 		.4byte	.LVL40
 8719 026c 1E000000 		.4byte	.LVL41
 8720 0270 0100     		.2byte	0x1
 8721 0272 50       		.byte	0x50
 8722 0273 00000000 		.4byte	0
 8723 0277 00000000 		.4byte	0
 8724              	.LLST15:
 8725 027b 00000000 		.4byte	.LVL43
 8726 027f 09000000 		.4byte	.LVL44-1
 8727 0283 0100     		.2byte	0x1
 8728 0285 50       		.byte	0x50
 8729 0286 09000000 		.4byte	.LVL44-1
 8730 028a 32000000 		.4byte	.LFE21
 8731 028e 0100     		.2byte	0x1
 8732 0290 55       		.byte	0x55
 8733 0291 00000000 		.4byte	0
 8734 0295 00000000 		.4byte	0
 8735              	.LLST16:
 8736 0299 00000000 		.4byte	.LVL43
 8737 029d 09000000 		.4byte	.LVL44-1
 8738 02a1 0100     		.2byte	0x1
 8739 02a3 51       		.byte	0x51
 8740 02a4 09000000 		.4byte	.LVL44-1
 8741 02a8 32000000 		.4byte	.LFE21
 8742 02ac 0400     		.2byte	0x4
 8743 02ae F3       		.byte	0xf3
 8744 02af 01       		.uleb128 0x1
 8745 02b0 51       		.byte	0x51
 8746 02b1 9F       		.byte	0x9f
 8747 02b2 00000000 		.4byte	0
 8748 02b6 00000000 		.4byte	0
 8749              	.LLST17:
 8750 02ba 0A000000 		.4byte	.LVL44
 8751 02be 26000000 		.4byte	.LVL45
 8752 02c2 0100     		.2byte	0x1
 8753 02c4 50       		.byte	0x50
 8754 02c5 00000000 		.4byte	0
 8755 02c9 00000000 		.4byte	0
 8756              	.LLST18:
 8757 02cd 00000000 		.4byte	.LVL48
 8758 02d1 05000000 		.4byte	.LVL49-1
 8759 02d5 0100     		.2byte	0x1
 8760 02d7 50       		.byte	0x50
 8761 02d8 05000000 		.4byte	.LVL49-1
 8762 02dc 0A000000 		.4byte	.LFE23
ARM GAS  C:\Users\d3bug\AppData\Local\Temp\cct3SNM7.s 			page 187


 8763 02e0 0400     		.2byte	0x4
 8764 02e2 F3       		.byte	0xf3
 8765 02e3 01       		.uleb128 0x1
 8766 02e4 50       		.byte	0x50
 8767 02e5 9F       		.byte	0x9f
 8768 02e6 00000000 		.4byte	0
 8769 02ea 00000000 		.4byte	0
 8770              	.LLST19:
 8771 02ee 06000000 		.4byte	.LVL49
 8772 02f2 08000000 		.4byte	.LVL50
 8773 02f6 0100     		.2byte	0x1
 8774 02f8 50       		.byte	0x50
 8775 02f9 00000000 		.4byte	0
 8776 02fd 00000000 		.4byte	0
 8777              	.LLST20:
 8778 0301 00000000 		.4byte	.LVL51
 8779 0305 05000000 		.4byte	.LVL52-1
 8780 0309 0100     		.2byte	0x1
 8781 030b 50       		.byte	0x50
 8782 030c 05000000 		.4byte	.LVL52-1
 8783 0310 0A000000 		.4byte	.LFE24
 8784 0314 0400     		.2byte	0x4
 8785 0316 F3       		.byte	0xf3
 8786 0317 01       		.uleb128 0x1
 8787 0318 50       		.byte	0x50
 8788 0319 9F       		.byte	0x9f
 8789 031a 00000000 		.4byte	0
 8790 031e 00000000 		.4byte	0
 8791              	.LLST21:
 8792 0322 06000000 		.4byte	.LVL52
 8793 0326 08000000 		.4byte	.LVL53
 8794 032a 0100     		.2byte	0x1
 8795 032c 50       		.byte	0x50
 8796 032d 00000000 		.4byte	0
 8797 0331 00000000 		.4byte	0
 8798              	.LLST22:
 8799 0335 00000000 		.4byte	.LVL54
 8800 0339 05000000 		.4byte	.LVL55-1
 8801 033d 0100     		.2byte	0x1
 8802 033f 50       		.byte	0x50
 8803 0340 05000000 		.4byte	.LVL55-1
 8804 0344 0E000000 		.4byte	.LFE25
 8805 0348 0400     		.2byte	0x4
 8806 034a F3       		.byte	0xf3
 8807 034b 01       		.uleb128 0x1
 8808 034c 50       		.byte	0x50
 8809 034d 9F       		.byte	0x9f
 8810 034e 00000000 		.4byte	0
 8811 0352 00000000 		.4byte	0
 8812              	.LLST23:
 8813 0356 06000000 		.4byte	.LVL55
 8814 035a 08000000 		.4byte	.LVL56
 8815 035e 0100     		.2byte	0x1
 8816 0360 50       		.byte	0x50
 8817 0361 00000000 		.4byte	0
 8818 0365 00000000 		.4byte	0
 8819              	.LLST24:
ARM GAS  C:\Users\d3bug\AppData\Local\Temp\cct3SNM7.s 			page 188


 8820 0369 00000000 		.4byte	.LVL57
 8821 036d 05000000 		.4byte	.LVL58-1
 8822 0371 0100     		.2byte	0x1
 8823 0373 50       		.byte	0x50
 8824 0374 05000000 		.4byte	.LVL58-1
 8825 0378 0E000000 		.4byte	.LFE26
 8826 037c 0400     		.2byte	0x4
 8827 037e F3       		.byte	0xf3
 8828 037f 01       		.uleb128 0x1
 8829 0380 50       		.byte	0x50
 8830 0381 9F       		.byte	0x9f
 8831 0382 00000000 		.4byte	0
 8832 0386 00000000 		.4byte	0
 8833              	.LLST25:
 8834 038a 06000000 		.4byte	.LVL58
 8835 038e 08000000 		.4byte	.LVL59
 8836 0392 0100     		.2byte	0x1
 8837 0394 50       		.byte	0x50
 8838 0395 00000000 		.4byte	0
 8839 0399 00000000 		.4byte	0
 8840              	.LLST26:
 8841 039d 00000000 		.4byte	.LVL60
 8842 03a1 05000000 		.4byte	.LVL61-1
 8843 03a5 0100     		.2byte	0x1
 8844 03a7 50       		.byte	0x50
 8845 03a8 05000000 		.4byte	.LVL61-1
 8846 03ac 0E000000 		.4byte	.LFE27
 8847 03b0 0400     		.2byte	0x4
 8848 03b2 F3       		.byte	0xf3
 8849 03b3 01       		.uleb128 0x1
 8850 03b4 50       		.byte	0x50
 8851 03b5 9F       		.byte	0x9f
 8852 03b6 00000000 		.4byte	0
 8853 03ba 00000000 		.4byte	0
 8854              	.LLST27:
 8855 03be 06000000 		.4byte	.LVL61
 8856 03c2 08000000 		.4byte	.LVL62
 8857 03c6 0100     		.2byte	0x1
 8858 03c8 50       		.byte	0x50
 8859 03c9 00000000 		.4byte	0
 8860 03cd 00000000 		.4byte	0
 8861              	.LLST28:
 8862 03d1 00000000 		.4byte	.LVL63
 8863 03d5 05000000 		.4byte	.LVL64-1
 8864 03d9 0100     		.2byte	0x1
 8865 03db 50       		.byte	0x50
 8866 03dc 05000000 		.4byte	.LVL64-1
 8867 03e0 0A000000 		.4byte	.LFE28
 8868 03e4 0400     		.2byte	0x4
 8869 03e6 F3       		.byte	0xf3
 8870 03e7 01       		.uleb128 0x1
 8871 03e8 50       		.byte	0x50
 8872 03e9 9F       		.byte	0x9f
 8873 03ea 00000000 		.4byte	0
 8874 03ee 00000000 		.4byte	0
 8875              	.LLST29:
 8876 03f2 06000000 		.4byte	.LVL64
ARM GAS  C:\Users\d3bug\AppData\Local\Temp\cct3SNM7.s 			page 189


 8877 03f6 08000000 		.4byte	.LVL65
 8878 03fa 0100     		.2byte	0x1
 8879 03fc 50       		.byte	0x50
 8880 03fd 00000000 		.4byte	0
 8881 0401 00000000 		.4byte	0
 8882              	.LLST30:
 8883 0405 00000000 		.4byte	.LVL66
 8884 0409 11000000 		.4byte	.LVL67-1
 8885 040d 0100     		.2byte	0x1
 8886 040f 50       		.byte	0x50
 8887 0410 11000000 		.4byte	.LVL67-1
 8888 0414 8C000000 		.4byte	.LVL89
 8889 0418 0100     		.2byte	0x1
 8890 041a 55       		.byte	0x55
 8891 041b 8C000000 		.4byte	.LVL89
 8892 041f A6010000 		.4byte	.LVL120
 8893 0423 0200     		.2byte	0x2
 8894 0425 91       		.byte	0x91
 8895 0426 54       		.sleb128 -44
 8896 0427 A6010000 		.4byte	.LVL120
 8897 042b AC010000 		.4byte	.LFE29
 8898 042f 0200     		.2byte	0x2
 8899 0431 7D       		.byte	0x7d
 8900 0432 54       		.sleb128 -44
 8901 0433 00000000 		.4byte	0
 8902 0437 00000000 		.4byte	0
 8903              	.LLST31:
 8904 043b 00000000 		.4byte	.LVL66
 8905 043f 11000000 		.4byte	.LVL67-1
 8906 0443 0100     		.2byte	0x1
 8907 0445 51       		.byte	0x51
 8908 0446 11000000 		.4byte	.LVL67-1
 8909 044a 88000000 		.4byte	.LVL88
 8910 044e 0400     		.2byte	0x4
 8911 0450 F3       		.byte	0xf3
 8912 0451 01       		.uleb128 0x1
 8913 0452 51       		.byte	0x51
 8914 0453 9F       		.byte	0x9f
 8915 0454 88000000 		.4byte	.LVL88
 8916 0458 18010000 		.4byte	.LVL105
 8917 045c 0100     		.2byte	0x1
 8918 045e 5B       		.byte	0x5b
 8919 045f 18010000 		.4byte	.LVL105
 8920 0463 A6010000 		.4byte	.LVL120
 8921 0467 0200     		.2byte	0x2
 8922 0469 91       		.byte	0x91
 8923 046a 40       		.sleb128 -64
 8924 046b A6010000 		.4byte	.LVL120
 8925 046f AC010000 		.4byte	.LFE29
 8926 0473 0200     		.2byte	0x2
 8927 0475 7D       		.byte	0x7d
 8928 0476 40       		.sleb128 -64
 8929 0477 00000000 		.4byte	0
 8930 047b 00000000 		.4byte	0
 8931              	.LLST32:
 8932 047f 00000000 		.4byte	.LVL66
 8933 0483 11000000 		.4byte	.LVL67-1
ARM GAS  C:\Users\d3bug\AppData\Local\Temp\cct3SNM7.s 			page 190


 8934 0487 0100     		.2byte	0x1
 8935 0489 52       		.byte	0x52
 8936 048a 11000000 		.4byte	.LVL67-1
 8937 048e A6010000 		.4byte	.LVL120
 8938 0492 0200     		.2byte	0x2
 8939 0494 91       		.byte	0x91
 8940 0495 50       		.sleb128 -48
 8941 0496 A6010000 		.4byte	.LVL120
 8942 049a AC010000 		.4byte	.LFE29
 8943 049e 0200     		.2byte	0x2
 8944 04a0 7D       		.byte	0x7d
 8945 04a1 50       		.sleb128 -48
 8946 04a2 00000000 		.4byte	0
 8947 04a6 00000000 		.4byte	0
 8948              	.LLST33:
 8949 04aa 14000000 		.4byte	.LVL68
 8950 04ae 16000000 		.4byte	.LVL69
 8951 04b2 0100     		.2byte	0x1
 8952 04b4 50       		.byte	0x50
 8953 04b5 16000000 		.4byte	.LVL69
 8954 04b9 FC000000 		.4byte	.LVL103
 8955 04bd 0100     		.2byte	0x1
 8956 04bf 57       		.byte	0x57
 8957 04c0 00000000 		.4byte	0
 8958 04c4 00000000 		.4byte	0
 8959              	.LLST34:
 8960 04c8 1E000000 		.4byte	.LVL71
 8961 04cc 20000000 		.4byte	.LVL72
 8962 04d0 0100     		.2byte	0x1
 8963 04d2 50       		.byte	0x50
 8964 04d3 20000000 		.4byte	.LVL72
 8965 04d7 8E000000 		.4byte	.LVL90
 8966 04db 0100     		.2byte	0x1
 8967 04dd 56       		.byte	0x56
 8968 04de 8E000000 		.4byte	.LVL90
 8969 04e2 A6010000 		.4byte	.LVL120
 8970 04e6 0200     		.2byte	0x2
 8971 04e8 91       		.byte	0x91
 8972 04e9 48       		.sleb128 -56
 8973 04ea A6010000 		.4byte	.LVL120
 8974 04ee AC010000 		.4byte	.LFE29
 8975 04f2 0200     		.2byte	0x2
 8976 04f4 7D       		.byte	0x7d
 8977 04f5 48       		.sleb128 -56
 8978 04f6 00000000 		.4byte	0
 8979 04fa 00000000 		.4byte	0
 8980              	.LLST35:
 8981 04fe 1E000000 		.4byte	.LVL71
 8982 0502 94000000 		.4byte	.LVL92
 8983 0506 0200     		.2byte	0x2
 8984 0508 30       		.byte	0x30
 8985 0509 9F       		.byte	0x9f
 8986 050a 94000000 		.4byte	.LVL92
 8987 050e BA000000 		.4byte	.LVL96
 8988 0512 0100     		.2byte	0x1
 8989 0514 55       		.byte	0x55
 8990 0515 BA000000 		.4byte	.LVL96
ARM GAS  C:\Users\d3bug\AppData\Local\Temp\cct3SNM7.s 			page 191


 8991 0519 BC000000 		.4byte	.LVL97
 8992 051d 0100     		.2byte	0x1
 8993 051f 50       		.byte	0x50
 8994 0520 BC000000 		.4byte	.LVL97
 8995 0524 F8000000 		.4byte	.LVL101
 8996 0528 0100     		.2byte	0x1
 8997 052a 55       		.byte	0x55
 8998 052b F8000000 		.4byte	.LVL101
 8999 052f FA000000 		.4byte	.LVL102
 9000 0533 0100     		.2byte	0x1
 9001 0535 53       		.byte	0x53
 9002 0536 FA000000 		.4byte	.LVL102
 9003 053a 4E010000 		.4byte	.LVL109
 9004 053e 0100     		.2byte	0x1
 9005 0540 55       		.byte	0x55
 9006 0541 6E010000 		.4byte	.LVL114
 9007 0545 8A010000 		.4byte	.LVL116
 9008 0549 0100     		.2byte	0x1
 9009 054b 55       		.byte	0x55
 9010 054c 00000000 		.4byte	0
 9011 0550 00000000 		.4byte	0
 9012              	.LLST36:
 9013 0554 1E000000 		.4byte	.LVL71
 9014 0558 94000000 		.4byte	.LVL92
 9015 055c 0200     		.2byte	0x2
 9016 055e 30       		.byte	0x30
 9017 055f 9F       		.byte	0x9f
 9018 0560 94000000 		.4byte	.LVL92
 9019 0564 A4000000 		.4byte	.LVL94
 9020 0568 0100     		.2byte	0x1
 9021 056a 55       		.byte	0x55
 9022 056b A4000000 		.4byte	.LVL94
 9023 056f BC000000 		.4byte	.LVL97
 9024 0573 0100     		.2byte	0x1
 9025 0575 50       		.byte	0x50
 9026 0576 BC000000 		.4byte	.LVL97
 9027 057a CA000000 		.4byte	.LVL98
 9028 057e 0100     		.2byte	0x1
 9029 0580 55       		.byte	0x55
 9030 0581 CA000000 		.4byte	.LVL98
 9031 0585 D4000000 		.4byte	.LVL99
 9032 0589 0100     		.2byte	0x1
 9033 058b 50       		.byte	0x50
 9034 058c D4000000 		.4byte	.LVL99
 9035 0590 A6010000 		.4byte	.LVL120
 9036 0594 0100     		.2byte	0x1
 9037 0596 56       		.byte	0x56
 9038 0597 00000000 		.4byte	0
 9039 059b 00000000 		.4byte	0
 9040              	.LLST37:
 9041 059f 26000000 		.4byte	.LVL74
 9042 05a3 70000000 		.4byte	.LVL83
 9043 05a7 0200     		.2byte	0x2
 9044 05a9 91       		.byte	0x91
 9045 05aa 4C       		.sleb128 -52
 9046 05ab 72000000 		.4byte	.LVL84
 9047 05af A6010000 		.4byte	.LVL120
ARM GAS  C:\Users\d3bug\AppData\Local\Temp\cct3SNM7.s 			page 192


 9048 05b3 0200     		.2byte	0x2
 9049 05b5 91       		.byte	0x91
 9050 05b6 4C       		.sleb128 -52
 9051 05b7 A6010000 		.4byte	.LVL120
 9052 05bb AC010000 		.4byte	.LFE29
 9053 05bf 0200     		.2byte	0x2
 9054 05c1 7D       		.byte	0x7d
 9055 05c2 4C       		.sleb128 -52
 9056 05c3 00000000 		.4byte	0
 9057 05c7 00000000 		.4byte	0
 9058              	.LLST38:
 9059 05cb 2E000000 		.4byte	.LVL76
 9060 05cf 80000000 		.4byte	.LVL86
 9061 05d3 0100     		.2byte	0x1
 9062 05d5 50       		.byte	0x50
 9063 05d6 80000000 		.4byte	.LVL86
 9064 05da A6010000 		.4byte	.LVL120
 9065 05de 0100     		.2byte	0x1
 9066 05e0 58       		.byte	0x58
 9067 05e1 00000000 		.4byte	0
 9068 05e5 00000000 		.4byte	0
 9069              	.LLST39:
 9070 05e9 32000000 		.4byte	.LVL77
 9071 05ed 38000000 		.4byte	.LVL79
 9072 05f1 0100     		.2byte	0x1
 9073 05f3 53       		.byte	0x53
 9074 05f4 38000000 		.4byte	.LVL79
 9075 05f8 80000000 		.4byte	.LVL86
 9076 05fc 0200     		.2byte	0x2
 9077 05fe 70       		.byte	0x70
 9078 05ff 20       		.sleb128 32
 9079 0600 80000000 		.4byte	.LVL86
 9080 0604 81000000 		.4byte	.LVL87-1
 9081 0608 0200     		.2byte	0x2
 9082 060a 78       		.byte	0x78
 9083 060b 20       		.sleb128 32
 9084 060c 81000000 		.4byte	.LVL87-1
 9085 0610 A6010000 		.4byte	.LVL120
 9086 0614 0200     		.2byte	0x2
 9087 0616 91       		.byte	0x91
 9088 0617 44       		.sleb128 -60
 9089 0618 A6010000 		.4byte	.LVL120
 9090 061c AC010000 		.4byte	.LFE29
 9091 0620 0200     		.2byte	0x2
 9092 0622 7D       		.byte	0x7d
 9093 0623 44       		.sleb128 -60
 9094 0624 00000000 		.4byte	0
 9095 0628 00000000 		.4byte	0
 9096              	.LLST40:
 9097 062c 36000000 		.4byte	.LVL78
 9098 0630 94000000 		.4byte	.LVL92
 9099 0634 0200     		.2byte	0x2
 9100 0636 30       		.byte	0x30
 9101 0637 9F       		.byte	0x9f
 9102 0638 94000000 		.4byte	.LVL92
 9103 063c B8000000 		.4byte	.LVL95
 9104 0640 0100     		.2byte	0x1
ARM GAS  C:\Users\d3bug\AppData\Local\Temp\cct3SNM7.s 			page 193


 9105 0642 54       		.byte	0x54
 9106 0643 BA000000 		.4byte	.LVL96
 9107 0647 F6000000 		.4byte	.LVL100
 9108 064b 0100     		.2byte	0x1
 9109 064d 54       		.byte	0x54
 9110 064e F8000000 		.4byte	.LVL101
 9111 0652 A6010000 		.4byte	.LVL120
 9112 0656 0100     		.2byte	0x1
 9113 0658 54       		.byte	0x54
 9114 0659 A6010000 		.4byte	.LVL120
 9115 065d AC010000 		.4byte	.LFE29
 9116 0661 0200     		.2byte	0x2
 9117 0663 72       		.byte	0x72
 9118 0664 02       		.sleb128 2
 9119 0665 00000000 		.4byte	0
 9120 0669 00000000 		.4byte	0
 9121              	.LLST41:
 9122 066d 36000000 		.4byte	.LVL78
 9123 0671 48000000 		.4byte	.LVL80
 9124 0675 0200     		.2byte	0x2
 9125 0677 30       		.byte	0x30
 9126 0678 9F       		.byte	0x9f
 9127 0679 48000000 		.4byte	.LVL80
 9128 067d 92000000 		.4byte	.LVL91
 9129 0681 0100     		.2byte	0x1
 9130 0683 59       		.byte	0x59
 9131 0684 00000000 		.4byte	0
 9132 0688 00000000 		.4byte	0
 9133              	.LLST42:
 9134 068c 18010000 		.4byte	.LVL105
 9135 0690 26010000 		.4byte	.LVL106
 9136 0694 0100     		.2byte	0x1
 9137 0696 5B       		.byte	0x5b
 9138 0697 2A010000 		.4byte	.LVL107
 9139 069b 68010000 		.4byte	.LVL112
 9140 069f 0100     		.2byte	0x1
 9141 06a1 5B       		.byte	0x5b
 9142 06a2 6C010000 		.4byte	.LVL113
 9143 06a6 94010000 		.4byte	.LVL118
 9144 06aa 0100     		.2byte	0x1
 9145 06ac 5B       		.byte	0x5b
 9146 06ad 98010000 		.4byte	.LVL119
 9147 06b1 A6010000 		.4byte	.LVL120
 9148 06b5 0100     		.2byte	0x1
 9149 06b7 5B       		.byte	0x5b
 9150 06b8 A6010000 		.4byte	.LVL120
 9151 06bc AC010000 		.4byte	.LFE29
 9152 06c0 0200     		.2byte	0x2
 9153 06c2 72       		.byte	0x72
 9154 06c3 00       		.sleb128 0
 9155 06c4 00000000 		.4byte	0
 9156 06c8 00000000 		.4byte	0
 9157              	.LLST43:
 9158 06cc 32000000 		.4byte	.LVL77
 9159 06d0 36000000 		.4byte	.LVL78
 9160 06d4 0100     		.2byte	0x1
 9161 06d6 53       		.byte	0x53
ARM GAS  C:\Users\d3bug\AppData\Local\Temp\cct3SNM7.s 			page 194


 9162 06d7 00000000 		.4byte	0
 9163 06db 00000000 		.4byte	0
 9164              	.LLST44:
 9165 06df 4E010000 		.4byte	.LVL109
 9166 06e3 60010000 		.4byte	.LVL111
 9167 06e7 0100     		.2byte	0x1
 9168 06e9 55       		.byte	0x55
 9169 06ea 00000000 		.4byte	0
 9170 06ee 00000000 		.4byte	0
 9171              	.LLST45:
 9172 06f2 8A010000 		.4byte	.LVL116
 9173 06f6 98010000 		.4byte	.LVL119
 9174 06fa 0100     		.2byte	0x1
 9175 06fc 55       		.byte	0x55
 9176 06fd 00000000 		.4byte	0
 9177 0701 00000000 		.4byte	0
 9178              	.LLST46:
 9179 0705 00000000 		.4byte	.LVL121
 9180 0709 0F000000 		.4byte	.LVL122-1
 9181 070d 0100     		.2byte	0x1
 9182 070f 50       		.byte	0x50
 9183 0710 0F000000 		.4byte	.LVL122-1
 9184 0714 78000000 		.4byte	.LVL141
 9185 0718 0100     		.2byte	0x1
 9186 071a 54       		.byte	0x54
 9187 071b 78000000 		.4byte	.LVL141
 9188 071f 62010000 		.4byte	.LVL173
 9189 0723 0200     		.2byte	0x2
 9190 0725 91       		.byte	0x91
 9191 0726 4C       		.sleb128 -52
 9192 0727 62010000 		.4byte	.LVL173
 9193 072b 6C010000 		.4byte	.LFE30
 9194 072f 0200     		.2byte	0x2
 9195 0731 7D       		.byte	0x7d
 9196 0732 4C       		.sleb128 -52
 9197 0733 00000000 		.4byte	0
 9198 0737 00000000 		.4byte	0
 9199              	.LLST47:
 9200 073b 00000000 		.4byte	.LVL121
 9201 073f 0F000000 		.4byte	.LVL122-1
 9202 0743 0100     		.2byte	0x1
 9203 0745 51       		.byte	0x51
 9204 0746 0F000000 		.4byte	.LVL122-1
 9205 074a 62010000 		.4byte	.LVL173
 9206 074e 0100     		.2byte	0x1
 9207 0750 5B       		.byte	0x5b
 9208 0751 62010000 		.4byte	.LVL173
 9209 0755 6C010000 		.4byte	.LFE30
 9210 0759 0400     		.2byte	0x4
 9211 075b F3       		.byte	0xf3
 9212 075c 01       		.uleb128 0x1
 9213 075d 51       		.byte	0x51
 9214 075e 9F       		.byte	0x9f
 9215 075f 00000000 		.4byte	0
 9216 0763 00000000 		.4byte	0
 9217              	.LLST48:
 9218 0767 12000000 		.4byte	.LVL123
ARM GAS  C:\Users\d3bug\AppData\Local\Temp\cct3SNM7.s 			page 195


 9219 076b 14000000 		.4byte	.LVL124
 9220 076f 0100     		.2byte	0x1
 9221 0771 50       		.byte	0x50
 9222 0772 14000000 		.4byte	.LVL124
 9223 0776 62010000 		.4byte	.LVL173
 9224 077a 0100     		.2byte	0x1
 9225 077c 56       		.byte	0x56
 9226 077d 00000000 		.4byte	0
 9227 0781 00000000 		.4byte	0
 9228              	.LLST49:
 9229 0785 1C000000 		.4byte	.LVL126
 9230 0789 1E000000 		.4byte	.LVL127
 9231 078d 0100     		.2byte	0x1
 9232 078f 50       		.byte	0x50
 9233 0790 1E000000 		.4byte	.LVL127
 9234 0794 7A000000 		.4byte	.LVL142
 9235 0798 0100     		.2byte	0x1
 9236 079a 55       		.byte	0x55
 9237 079b 7A000000 		.4byte	.LVL142
 9238 079f 62010000 		.4byte	.LVL173
 9239 07a3 0200     		.2byte	0x2
 9240 07a5 91       		.byte	0x91
 9241 07a6 48       		.sleb128 -56
 9242 07a7 62010000 		.4byte	.LVL173
 9243 07ab 6C010000 		.4byte	.LFE30
 9244 07af 0200     		.2byte	0x2
 9245 07b1 7D       		.byte	0x7d
 9246 07b2 48       		.sleb128 -56
 9247 07b3 00000000 		.4byte	0
 9248 07b7 00000000 		.4byte	0
 9249              	.LLST50:
 9250 07bb 1C000000 		.4byte	.LVL126
 9251 07bf 7C000000 		.4byte	.LVL143
 9252 07c3 0200     		.2byte	0x2
 9253 07c5 30       		.byte	0x30
 9254 07c6 9F       		.byte	0x9f
 9255 07c7 7C000000 		.4byte	.LVL143
 9256 07cb A6000000 		.4byte	.LVL147
 9257 07cf 0100     		.2byte	0x1
 9258 07d1 55       		.byte	0x55
 9259 07d2 A6000000 		.4byte	.LVL147
 9260 07d6 A8000000 		.4byte	.LVL148
 9261 07da 0100     		.2byte	0x1
 9262 07dc 50       		.byte	0x50
 9263 07dd A8000000 		.4byte	.LVL148
 9264 07e1 04010000 		.4byte	.LVL161
 9265 07e5 0100     		.2byte	0x1
 9266 07e7 55       		.byte	0x55
 9267 07e8 00000000 		.4byte	0
 9268 07ec 00000000 		.4byte	0
 9269              	.LLST51:
 9270 07f0 1C000000 		.4byte	.LVL126
 9271 07f4 7C000000 		.4byte	.LVL143
 9272 07f8 0200     		.2byte	0x2
 9273 07fa 30       		.byte	0x30
 9274 07fb 9F       		.byte	0x9f
 9275 07fc 7C000000 		.4byte	.LVL143
ARM GAS  C:\Users\d3bug\AppData\Local\Temp\cct3SNM7.s 			page 196


 9276 0800 90000000 		.4byte	.LVL145
 9277 0804 0100     		.2byte	0x1
 9278 0806 55       		.byte	0x55
 9279 0807 90000000 		.4byte	.LVL145
 9280 080b A8000000 		.4byte	.LVL148
 9281 080f 0100     		.2byte	0x1
 9282 0811 50       		.byte	0x50
 9283 0812 A8000000 		.4byte	.LVL148
 9284 0816 B6000000 		.4byte	.LVL150
 9285 081a 0100     		.2byte	0x1
 9286 081c 55       		.byte	0x55
 9287 081d B6000000 		.4byte	.LVL150
 9288 0821 BA000000 		.4byte	.LVL152
 9289 0825 0100     		.2byte	0x1
 9290 0827 50       		.byte	0x50
 9291 0828 BA000000 		.4byte	.LVL152
 9292 082c 62010000 		.4byte	.LVL173
 9293 0830 0100     		.2byte	0x1
 9294 0832 57       		.byte	0x57
 9295 0833 00000000 		.4byte	0
 9296 0837 00000000 		.4byte	0
 9297              	.LLST52:
 9298 083b 24000000 		.4byte	.LVL129
 9299 083f 6E000000 		.4byte	.LVL138
 9300 0843 0200     		.2byte	0x2
 9301 0845 91       		.byte	0x91
 9302 0846 44       		.sleb128 -60
 9303 0847 70000000 		.4byte	.LVL139
 9304 084b 76000000 		.4byte	.LVL140
 9305 084f 0200     		.2byte	0x2
 9306 0851 91       		.byte	0x91
 9307 0852 44       		.sleb128 -60
 9308 0853 7C000000 		.4byte	.LVL143
 9309 0857 62010000 		.4byte	.LVL173
 9310 085b 0200     		.2byte	0x2
 9311 085d 91       		.byte	0x91
 9312 085e 44       		.sleb128 -60
 9313 085f 62010000 		.4byte	.LVL173
 9314 0863 6C010000 		.4byte	.LFE30
 9315 0867 0200     		.2byte	0x2
 9316 0869 7D       		.byte	0x7d
 9317 086a 44       		.sleb128 -60
 9318 086b 00000000 		.4byte	0
 9319 086f 00000000 		.4byte	0
 9320              	.LLST53:
 9321 0873 2C000000 		.4byte	.LVL131
 9322 0877 7C000000 		.4byte	.LVL143
 9323 087b 0100     		.2byte	0x1
 9324 087d 50       		.byte	0x50
 9325 087e 7C000000 		.4byte	.LVL143
 9326 0882 62010000 		.4byte	.LVL173
 9327 0886 0100     		.2byte	0x1
 9328 0888 58       		.byte	0x58
 9329 0889 00000000 		.4byte	0
 9330 088d 00000000 		.4byte	0
 9331              	.LLST54:
 9332 0891 30000000 		.4byte	.LVL132
ARM GAS  C:\Users\d3bug\AppData\Local\Temp\cct3SNM7.s 			page 197


 9333 0895 36000000 		.4byte	.LVL134
 9334 0899 0100     		.2byte	0x1
 9335 089b 53       		.byte	0x53
 9336 089c 36000000 		.4byte	.LVL134
 9337 08a0 7C000000 		.4byte	.LVL143
 9338 08a4 0200     		.2byte	0x2
 9339 08a6 70       		.byte	0x70
 9340 08a7 20       		.sleb128 32
 9341 08a8 7C000000 		.4byte	.LVL143
 9342 08ac 62010000 		.4byte	.LVL173
 9343 08b0 0200     		.2byte	0x2
 9344 08b2 91       		.byte	0x91
 9345 08b3 40       		.sleb128 -64
 9346 08b4 62010000 		.4byte	.LVL173
 9347 08b8 6C010000 		.4byte	.LFE30
 9348 08bc 0200     		.2byte	0x2
 9349 08be 7D       		.byte	0x7d
 9350 08bf 40       		.sleb128 -64
 9351 08c0 00000000 		.4byte	0
 9352 08c4 00000000 		.4byte	0
 9353              	.LLST55:
 9354 08c8 34000000 		.4byte	.LVL133
 9355 08cc 7C000000 		.4byte	.LVL143
 9356 08d0 0200     		.2byte	0x2
 9357 08d2 30       		.byte	0x30
 9358 08d3 9F       		.byte	0x9f
 9359 08d4 7C000000 		.4byte	.LVL143
 9360 08d8 A4000000 		.4byte	.LVL146
 9361 08dc 0100     		.2byte	0x1
 9362 08de 54       		.byte	0x54
 9363 08df A6000000 		.4byte	.LVL147
 9364 08e3 B2000000 		.4byte	.LVL149
 9365 08e7 0100     		.2byte	0x1
 9366 08e9 54       		.byte	0x54
 9367 08ea B6000000 		.4byte	.LVL150
 9368 08ee B8000000 		.4byte	.LVL151
 9369 08f2 0100     		.2byte	0x1
 9370 08f4 54       		.byte	0x54
 9371 08f5 00000000 		.4byte	0
 9372 08f9 00000000 		.4byte	0
 9373              	.LLST56:
 9374 08fd 34000000 		.4byte	.LVL133
 9375 0901 46000000 		.4byte	.LVL135
 9376 0905 0200     		.2byte	0x2
 9377 0907 30       		.byte	0x30
 9378 0908 9F       		.byte	0x9f
 9379 0909 46000000 		.4byte	.LVL135
 9380 090d 62010000 		.4byte	.LVL173
 9381 0911 0100     		.2byte	0x1
 9382 0913 59       		.byte	0x59
 9383 0914 00000000 		.4byte	0
 9384 0918 00000000 		.4byte	0
 9385              	.LLST57:
 9386 091c BA000000 		.4byte	.LVL152
 9387 0920 F6000000 		.4byte	.LVL157
 9388 0924 0200     		.2byte	0x2
 9389 0926 30       		.byte	0x30
ARM GAS  C:\Users\d3bug\AppData\Local\Temp\cct3SNM7.s 			page 198


 9390 0927 9F       		.byte	0x9f
 9391 0928 F6000000 		.4byte	.LVL157
 9392 092c F8000000 		.4byte	.LVL158
 9393 0930 0100     		.2byte	0x1
 9394 0932 54       		.byte	0x54
 9395 0933 F8000000 		.4byte	.LVL158
 9396 0937 FA000000 		.4byte	.LVL159
 9397 093b 0200     		.2byte	0x2
 9398 093d 30       		.byte	0x30
 9399 093e 9F       		.byte	0x9f
 9400 093f FA000000 		.4byte	.LVL159
 9401 0943 30010000 		.4byte	.LVL167
 9402 0947 0100     		.2byte	0x1
 9403 0949 54       		.byte	0x54
 9404 094a 32010000 		.4byte	.LVL168
 9405 094e 46010000 		.4byte	.LVL169
 9406 0952 0100     		.2byte	0x1
 9407 0954 52       		.byte	0x52
 9408 0955 46010000 		.4byte	.LVL169
 9409 0959 50010000 		.4byte	.LVL171
 9410 095d 0100     		.2byte	0x1
 9411 095f 54       		.byte	0x54
 9412 0960 00000000 		.4byte	0
 9413 0964 00000000 		.4byte	0
 9414              	.LLST58:
 9415 0968 02010000 		.4byte	.LVL160
 9416 096c 04010000 		.4byte	.LVL161
 9417 0970 0200     		.2byte	0x2
 9418 0972 91       		.byte	0x91
 9419 0973 50       		.sleb128 -48
 9420 0974 04010000 		.4byte	.LVL161
 9421 0978 62010000 		.4byte	.LVL173
 9422 097c 0100     		.2byte	0x1
 9423 097e 55       		.byte	0x55
 9424 097f 00000000 		.4byte	0
 9425 0983 00000000 		.4byte	0
 9426              	.LLST59:
 9427 0987 10010000 		.4byte	.LVL163
 9428 098b 1E010000 		.4byte	.LVL164
 9429 098f 0100     		.2byte	0x1
 9430 0991 50       		.byte	0x50
 9431 0992 1E010000 		.4byte	.LVL164
 9432 0996 48010000 		.4byte	.LVL170
 9433 099a 0100     		.2byte	0x1
 9434 099c 5A       		.byte	0x5a
 9435 099d 00000000 		.4byte	0
 9436 09a1 00000000 		.4byte	0
 9437              	.LLST60:
 9438 09a5 30000000 		.4byte	.LVL132
 9439 09a9 34000000 		.4byte	.LVL133
 9440 09ad 0100     		.2byte	0x1
 9441 09af 53       		.byte	0x53
 9442 09b0 00000000 		.4byte	0
 9443 09b4 00000000 		.4byte	0
 9444              	.LLST61:
 9445 09b8 DC000000 		.4byte	.LVL154
 9446 09bc EE000000 		.4byte	.LVL156
ARM GAS  C:\Users\d3bug\AppData\Local\Temp\cct3SNM7.s 			page 199


 9447 09c0 0100     		.2byte	0x1
 9448 09c2 54       		.byte	0x54
 9449 09c3 00000000 		.4byte	0
 9450 09c7 00000000 		.4byte	0
 9451              	.LLST62:
 9452 09cb 00000000 		.4byte	.LVL174
 9453 09cf 0B000000 		.4byte	.LVL175-1
 9454 09d3 0100     		.2byte	0x1
 9455 09d5 50       		.byte	0x50
 9456 09d6 0B000000 		.4byte	.LVL175-1
 9457 09da 8E010000 		.4byte	.LVL222
 9458 09de 0100     		.2byte	0x1
 9459 09e0 55       		.byte	0x55
 9460 09e1 8E010000 		.4byte	.LVL222
 9461 09e5 A0010000 		.4byte	.LFE35
 9462 09e9 0400     		.2byte	0x4
 9463 09eb F3       		.byte	0xf3
 9464 09ec 01       		.uleb128 0x1
 9465 09ed 50       		.byte	0x50
 9466 09ee 9F       		.byte	0x9f
 9467 09ef 00000000 		.4byte	0
 9468 09f3 00000000 		.4byte	0
 9469              	.LLST63:
 9470 09f7 0C000000 		.4byte	.LVL175
 9471 09fb 18000000 		.4byte	.LVL176
 9472 09ff 0100     		.2byte	0x1
 9473 0a01 50       		.byte	0x50
 9474 0a02 18000000 		.4byte	.LVL176
 9475 0a06 88010000 		.4byte	.LVL221
 9476 0a0a 0100     		.2byte	0x1
 9477 0a0c 54       		.byte	0x54
 9478 0a0d 00000000 		.4byte	0
 9479 0a11 00000000 		.4byte	0
 9480              	.LLST64:
 9481 0a15 1E000000 		.4byte	.LVL178
 9482 0a19 36000000 		.4byte	.LVL182
 9483 0a1d 0100     		.2byte	0x1
 9484 0a1f 57       		.byte	0x57
 9485 0a20 38000000 		.4byte	.LVL183
 9486 0a24 8E000000 		.4byte	.LVL192
 9487 0a28 0100     		.2byte	0x1
 9488 0a2a 57       		.byte	0x57
 9489 0a2b 74010000 		.4byte	.LVL219
 9490 0a2f 82010000 		.4byte	.LVL220
 9491 0a33 0100     		.2byte	0x1
 9492 0a35 57       		.byte	0x57
 9493 0a36 00000000 		.4byte	0
 9494 0a3a 00000000 		.4byte	0
 9495              	.LLST65:
 9496 0a3e 26000000 		.4byte	.LVL180
 9497 0a42 46000000 		.4byte	.LVL185
 9498 0a46 0100     		.2byte	0x1
 9499 0a48 50       		.byte	0x50
 9500 0a49 46000000 		.4byte	.LVL185
 9501 0a4d 48000000 		.4byte	.LVL186
 9502 0a51 0100     		.2byte	0x1
 9503 0a53 56       		.byte	0x56
ARM GAS  C:\Users\d3bug\AppData\Local\Temp\cct3SNM7.s 			page 200


 9504 0a54 48000000 		.4byte	.LVL186
 9505 0a58 4A000000 		.4byte	.LVL187
 9506 0a5c 0100     		.2byte	0x1
 9507 0a5e 50       		.byte	0x50
 9508 0a5f 4A000000 		.4byte	.LVL187
 9509 0a63 12010000 		.4byte	.LVL205
 9510 0a67 0100     		.2byte	0x1
 9511 0a69 56       		.byte	0x56
 9512 0a6a 74010000 		.4byte	.LVL219
 9513 0a6e 82010000 		.4byte	.LVL220
 9514 0a72 0100     		.2byte	0x1
 9515 0a74 56       		.byte	0x56
 9516 0a75 00000000 		.4byte	0
 9517 0a79 00000000 		.4byte	0
 9518              	.LLST66:
 9519 0a7d 28000000 		.4byte	.LVL181
 9520 0a81 69000000 		.4byte	.LVL190-1
 9521 0a85 0100     		.2byte	0x1
 9522 0a87 52       		.byte	0x52
 9523 0a88 00000000 		.4byte	0
 9524 0a8c 00000000 		.4byte	0
 9525              	.LLST67:
 9526 0a90 3C000000 		.4byte	.LVL184
 9527 0a94 4A000000 		.4byte	.LVL187
 9528 0a98 0200     		.2byte	0x2
 9529 0a9a 30       		.byte	0x30
 9530 0a9b 9F       		.byte	0x9f
 9531 0a9c 4A000000 		.4byte	.LVL187
 9532 0aa0 62000000 		.4byte	.LVL189
 9533 0aa4 0100     		.2byte	0x1
 9534 0aa6 50       		.byte	0x50
 9535 0aa7 00000000 		.4byte	0
 9536 0aab 00000000 		.4byte	0
 9537              	.LLST68:
 9538 0aaf 02010000 		.4byte	.LVL201
 9539 0ab3 0A010000 		.4byte	.LVL202
 9540 0ab7 0100     		.2byte	0x1
 9541 0ab9 50       		.byte	0x50
 9542 0aba 0A010000 		.4byte	.LVL202
 9543 0abe 0B010000 		.4byte	.LVL203-1
 9544 0ac2 0100     		.2byte	0x1
 9545 0ac4 51       		.byte	0x51
 9546 0ac5 0B010000 		.4byte	.LVL203-1
 9547 0ac9 6E010000 		.4byte	.LVL218
 9548 0acd 0100     		.2byte	0x1
 9549 0acf 58       		.byte	0x58
 9550 0ad0 6E010000 		.4byte	.LVL218
 9551 0ad4 74010000 		.4byte	.LVL219
 9552 0ad8 0300     		.2byte	0x3
 9553 0ada 78       		.byte	0x78
 9554 0adb 7D       		.sleb128 -3
 9555 0adc 9F       		.byte	0x9f
 9556 0add 00000000 		.4byte	0
 9557 0ae1 00000000 		.4byte	0
 9558              	.LLST69:
 9559 0ae5 10010000 		.4byte	.LVL204
 9560 0ae9 16010000 		.4byte	.LVL206
ARM GAS  C:\Users\d3bug\AppData\Local\Temp\cct3SNM7.s 			page 201


 9561 0aed 0200     		.2byte	0x2
 9562 0aef 30       		.byte	0x30
 9563 0af0 9F       		.byte	0x9f
 9564 0af1 16010000 		.4byte	.LVL206
 9565 0af5 52010000 		.4byte	.LVL213
 9566 0af9 0100     		.2byte	0x1
 9567 0afb 5A       		.byte	0x5a
 9568 0afc 52010000 		.4byte	.LVL213
 9569 0b00 54010000 		.4byte	.LVL214
 9570 0b04 0200     		.2byte	0x2
 9571 0b06 30       		.byte	0x30
 9572 0b07 9F       		.byte	0x9f
 9573 0b08 54010000 		.4byte	.LVL214
 9574 0b0c 64010000 		.4byte	.LVL216
 9575 0b10 0100     		.2byte	0x1
 9576 0b12 53       		.byte	0x53
 9577 0b13 00000000 		.4byte	0
 9578 0b17 00000000 		.4byte	0
 9579              	.LLST70:
 9580 0b1b 10010000 		.4byte	.LVL204
 9581 0b1f 16010000 		.4byte	.LVL206
 9582 0b23 0100     		.2byte	0x1
 9583 0b25 50       		.byte	0x50
 9584 0b26 16010000 		.4byte	.LVL206
 9585 0b2a 66010000 		.4byte	.LVL217
 9586 0b2e 0100     		.2byte	0x1
 9587 0b30 57       		.byte	0x57
 9588 0b31 66010000 		.4byte	.LVL217
 9589 0b35 74010000 		.4byte	.LVL219
 9590 0b39 0300     		.2byte	0x3
 9591 0b3b 77       		.byte	0x77
 9592 0b3c 7D       		.sleb128 -3
 9593 0b3d 9F       		.byte	0x9f
 9594 0b3e 00000000 		.4byte	0
 9595 0b42 00000000 		.4byte	0
 9596              	.LLST71:
 9597 0b46 10010000 		.4byte	.LVL204
 9598 0b4a 16010000 		.4byte	.LVL206
 9599 0b4e 0200     		.2byte	0x2
 9600 0b50 30       		.byte	0x30
 9601 0b51 9F       		.byte	0x9f
 9602 0b52 16010000 		.4byte	.LVL206
 9603 0b56 4E010000 		.4byte	.LVL212
 9604 0b5a 0100     		.2byte	0x1
 9605 0b5c 56       		.byte	0x56
 9606 0b5d 00000000 		.4byte	0
 9607 0b61 00000000 		.4byte	0
 9608              	.LLST72:
 9609 0b65 DC000000 		.4byte	.LVL198
 9610 0b69 E0000000 		.4byte	.LVL199
 9611 0b6d 0100     		.2byte	0x1
 9612 0b6f 53       		.byte	0x53
 9613 0b70 00000000 		.4byte	0
 9614 0b74 00000000 		.4byte	0
 9615              	.LLST73:
 9616 0b78 00000000 		.4byte	.LVL223
 9617 0b7c 0F000000 		.4byte	.LVL224-1
ARM GAS  C:\Users\d3bug\AppData\Local\Temp\cct3SNM7.s 			page 202


 9618 0b80 0100     		.2byte	0x1
 9619 0b82 50       		.byte	0x50
 9620 0b83 0F000000 		.4byte	.LVL224-1
 9621 0b87 F2000000 		.4byte	.LVL256
 9622 0b8b 0100     		.2byte	0x1
 9623 0b8d 56       		.byte	0x56
 9624 0b8e F2000000 		.4byte	.LVL256
 9625 0b92 FC000000 		.4byte	.LFE34
 9626 0b96 0400     		.2byte	0x4
 9627 0b98 F3       		.byte	0xf3
 9628 0b99 01       		.uleb128 0x1
 9629 0b9a 50       		.byte	0x50
 9630 0b9b 9F       		.byte	0x9f
 9631 0b9c 00000000 		.4byte	0
 9632 0ba0 00000000 		.4byte	0
 9633              	.LLST74:
 9634 0ba4 00000000 		.4byte	.LVL223
 9635 0ba8 0F000000 		.4byte	.LVL224-1
 9636 0bac 0100     		.2byte	0x1
 9637 0bae 51       		.byte	0x51
 9638 0baf 0F000000 		.4byte	.LVL224-1
 9639 0bb3 FC000000 		.4byte	.LFE34
 9640 0bb7 0400     		.2byte	0x4
 9641 0bb9 F3       		.byte	0xf3
 9642 0bba 01       		.uleb128 0x1
 9643 0bbb 51       		.byte	0x51
 9644 0bbc 9F       		.byte	0x9f
 9645 0bbd 00000000 		.4byte	0
 9646 0bc1 00000000 		.4byte	0
 9647              	.LLST75:
 9648 0bc5 00000000 		.4byte	.LVL223
 9649 0bc9 0F000000 		.4byte	.LVL224-1
 9650 0bcd 0100     		.2byte	0x1
 9651 0bcf 52       		.byte	0x52
 9652 0bd0 0F000000 		.4byte	.LVL224-1
 9653 0bd4 F2000000 		.4byte	.LVL256
 9654 0bd8 0100     		.2byte	0x1
 9655 0bda 57       		.byte	0x57
 9656 0bdb F2000000 		.4byte	.LVL256
 9657 0bdf FC000000 		.4byte	.LFE34
 9658 0be3 0400     		.2byte	0x4
 9659 0be5 F3       		.byte	0xf3
 9660 0be6 01       		.uleb128 0x1
 9661 0be7 52       		.byte	0x52
 9662 0be8 9F       		.byte	0x9f
 9663 0be9 00000000 		.4byte	0
 9664 0bed 00000000 		.4byte	0
 9665              	.LLST76:
 9666 0bf1 12000000 		.4byte	.LVL225
 9667 0bf5 18000000 		.4byte	.LVL226
 9668 0bf9 0100     		.2byte	0x1
 9669 0bfb 50       		.byte	0x50
 9670 0bfc 00000000 		.4byte	0
 9671 0c00 00000000 		.4byte	0
 9672              	.LLST77:
 9673 0c04 1E000000 		.4byte	.LVL228
 9674 0c08 2A000000 		.4byte	.LVL229
ARM GAS  C:\Users\d3bug\AppData\Local\Temp\cct3SNM7.s 			page 203


 9675 0c0c 0100     		.2byte	0x1
 9676 0c0e 50       		.byte	0x50
 9677 0c0f 2A000000 		.4byte	.LVL229
 9678 0c13 36000000 		.4byte	.LVL231
 9679 0c17 0100     		.2byte	0x1
 9680 0c19 58       		.byte	0x58
 9681 0c1a 36000000 		.4byte	.LVL231
 9682 0c1e 3C000000 		.4byte	.LVL232
 9683 0c22 0100     		.2byte	0x1
 9684 0c24 50       		.byte	0x50
 9685 0c25 3C000000 		.4byte	.LVL232
 9686 0c29 48000000 		.4byte	.LVL235
 9687 0c2d 0100     		.2byte	0x1
 9688 0c2f 58       		.byte	0x58
 9689 0c30 48000000 		.4byte	.LVL235
 9690 0c34 8E000000 		.4byte	.LVL242
 9691 0c38 0100     		.2byte	0x1
 9692 0c3a 50       		.byte	0x50
 9693 0c3b 8E000000 		.4byte	.LVL242
 9694 0c3f 9A000000 		.4byte	.LVL245
 9695 0c43 0100     		.2byte	0x1
 9696 0c45 58       		.byte	0x58
 9697 0c46 9A000000 		.4byte	.LVL245
 9698 0c4a A8000000 		.4byte	.LVL247
 9699 0c4e 0100     		.2byte	0x1
 9700 0c50 50       		.byte	0x50
 9701 0c51 A8000000 		.4byte	.LVL247
 9702 0c55 CA000000 		.4byte	.LVL249
 9703 0c59 0100     		.2byte	0x1
 9704 0c5b 58       		.byte	0x58
 9705 0c5c CA000000 		.4byte	.LVL249
 9706 0c60 EC000000 		.4byte	.LVL255
 9707 0c64 0100     		.2byte	0x1
 9708 0c66 50       		.byte	0x50
 9709 0c67 00000000 		.4byte	0
 9710 0c6b 00000000 		.4byte	0
 9711              	.LLST78:
 9712 0c6f 4C000000 		.4byte	.LVL236
 9713 0c73 5A000000 		.4byte	.LVL237
 9714 0c77 0300     		.2byte	0x3
 9715 0c79 76       		.byte	0x76
 9716 0c7a 10       		.sleb128 16
 9717 0c7b 9F       		.byte	0x9f
 9718 0c7c 00000000 		.4byte	0
 9719 0c80 00000000 		.4byte	0
 9720              	.LLST79:
 9721 0c84 5A000000 		.4byte	.LVL237
 9722 0c88 68000000 		.4byte	.LVL238
 9723 0c8c 0100     		.2byte	0x1
 9724 0c8e 57       		.byte	0x57
 9725 0c8f 00000000 		.4byte	0
 9726 0c93 00000000 		.4byte	0
 9727              	.LLST80:
 9728 0c97 6C000000 		.4byte	.LVL239
 9729 0c9b 7A000000 		.4byte	.LVL240
 9730 0c9f 0300     		.2byte	0x3
 9731 0ca1 76       		.byte	0x76
ARM GAS  C:\Users\d3bug\AppData\Local\Temp\cct3SNM7.s 			page 204


 9732 0ca2 10       		.sleb128 16
 9733 0ca3 9F       		.byte	0x9f
 9734 0ca4 00000000 		.4byte	0
 9735 0ca8 00000000 		.4byte	0
 9736              	.LLST81:
 9737 0cac 7A000000 		.4byte	.LVL240
 9738 0cb0 88000000 		.4byte	.LVL241
 9739 0cb4 0100     		.2byte	0x1
 9740 0cb6 57       		.byte	0x57
 9741 0cb7 00000000 		.4byte	0
 9742 0cbb 00000000 		.4byte	0
 9743              	.LLST82:
 9744 0cbf A6000000 		.4byte	.LVL246
 9745 0cc3 AC000000 		.4byte	.LVL248
 9746 0cc7 0100     		.2byte	0x1
 9747 0cc9 56       		.byte	0x56
 9748 0cca 00000000 		.4byte	0
 9749 0cce 00000000 		.4byte	0
 9750              	.LLST83:
 9751 0cd2 D4000000 		.4byte	.LVL250
 9752 0cd6 DC000000 		.4byte	.LVL251
 9753 0cda 0100     		.2byte	0x1
 9754 0cdc 53       		.byte	0x53
 9755 0cdd DE000000 		.4byte	.LVL252
 9756 0ce1 E0000000 		.4byte	.LVL253
 9757 0ce5 0100     		.2byte	0x1
 9758 0ce7 53       		.byte	0x53
 9759 0ce8 E2000000 		.4byte	.LVL254
 9760 0cec EC000000 		.4byte	.LVL255
 9761 0cf0 0100     		.2byte	0x1
 9762 0cf2 53       		.byte	0x53
 9763 0cf3 00000000 		.4byte	0
 9764 0cf7 00000000 		.4byte	0
 9765              	.LLST84:
 9766 0cfb 00000000 		.4byte	.LVL257
 9767 0cff 0B000000 		.4byte	.LVL258-1
 9768 0d03 0100     		.2byte	0x1
 9769 0d05 50       		.byte	0x50
 9770 0d06 0B000000 		.4byte	.LVL258-1
 9771 0d0a 9C000000 		.4byte	.LVL277
 9772 0d0e 0100     		.2byte	0x1
 9773 0d10 57       		.byte	0x57
 9774 0d11 9C000000 		.4byte	.LVL277
 9775 0d15 A4000000 		.4byte	.LFE15
 9776 0d19 0400     		.2byte	0x4
 9777 0d1b F3       		.byte	0xf3
 9778 0d1c 01       		.uleb128 0x1
 9779 0d1d 50       		.byte	0x50
 9780 0d1e 9F       		.byte	0x9f
 9781 0d1f 00000000 		.4byte	0
 9782 0d23 00000000 		.4byte	0
 9783              	.LLST85:
 9784 0d27 00000000 		.4byte	.LVL257
 9785 0d2b 0B000000 		.4byte	.LVL258-1
 9786 0d2f 0100     		.2byte	0x1
 9787 0d31 51       		.byte	0x51
 9788 0d32 0B000000 		.4byte	.LVL258-1
ARM GAS  C:\Users\d3bug\AppData\Local\Temp\cct3SNM7.s 			page 205


 9789 0d36 9C000000 		.4byte	.LVL277
 9790 0d3a 0100     		.2byte	0x1
 9791 0d3c 56       		.byte	0x56
 9792 0d3d 9C000000 		.4byte	.LVL277
 9793 0d41 A4000000 		.4byte	.LFE15
 9794 0d45 0400     		.2byte	0x4
 9795 0d47 F3       		.byte	0xf3
 9796 0d48 01       		.uleb128 0x1
 9797 0d49 51       		.byte	0x51
 9798 0d4a 9F       		.byte	0x9f
 9799 0d4b 00000000 		.4byte	0
 9800 0d4f 00000000 		.4byte	0
 9801              	.LLST86:
 9802 0d53 12000000 		.4byte	.LVL259
 9803 0d57 16000000 		.4byte	.LVL260
 9804 0d5b 0100     		.2byte	0x1
 9805 0d5d 50       		.byte	0x50
 9806 0d5e 1E000000 		.4byte	.LVL262
 9807 0d62 28000000 		.4byte	.LVL263
 9808 0d66 0100     		.2byte	0x1
 9809 0d68 50       		.byte	0x50
 9810 0d69 28000000 		.4byte	.LVL263
 9811 0d6d 4C000000 		.4byte	.LVL267
 9812 0d71 0100     		.2byte	0x1
 9813 0d73 54       		.byte	0x54
 9814 0d74 4C000000 		.4byte	.LVL267
 9815 0d78 4E000000 		.4byte	.LVL268
 9816 0d7c 0100     		.2byte	0x1
 9817 0d7e 50       		.byte	0x50
 9818 0d7f 4E000000 		.4byte	.LVL268
 9819 0d83 9C000000 		.4byte	.LVL277
 9820 0d87 0100     		.2byte	0x1
 9821 0d89 54       		.byte	0x54
 9822 0d8a 00000000 		.4byte	0
 9823 0d8e 00000000 		.4byte	0
 9824              	.LLST87:
 9825 0d92 56000000 		.4byte	.LVL270
 9826 0d96 92000000 		.4byte	.LVL275
 9827 0d9a 0100     		.2byte	0x1
 9828 0d9c 58       		.byte	0x58
 9829 0d9d 00000000 		.4byte	0
 9830 0da1 00000000 		.4byte	0
 9831              	.LLST88:
 9832 0da5 00000000 		.4byte	.LVL278
 9833 0da9 0B000000 		.4byte	.LVL279-1
 9834 0dad 0100     		.2byte	0x1
 9835 0daf 50       		.byte	0x50
 9836 0db0 0B000000 		.4byte	.LVL279-1
 9837 0db4 6E000000 		.4byte	.LVL290
 9838 0db8 0100     		.2byte	0x1
 9839 0dba 55       		.byte	0x55
 9840 0dbb 6E000000 		.4byte	.LVL290
 9841 0dbf 78000000 		.4byte	.LFE16
 9842 0dc3 0400     		.2byte	0x4
 9843 0dc5 F3       		.byte	0xf3
 9844 0dc6 01       		.uleb128 0x1
 9845 0dc7 50       		.byte	0x50
ARM GAS  C:\Users\d3bug\AppData\Local\Temp\cct3SNM7.s 			page 206


 9846 0dc8 9F       		.byte	0x9f
 9847 0dc9 00000000 		.4byte	0
 9848 0dcd 00000000 		.4byte	0
 9849              	.LLST89:
 9850 0dd1 00000000 		.4byte	.LVL278
 9851 0dd5 0B000000 		.4byte	.LVL279-1
 9852 0dd9 0100     		.2byte	0x1
 9853 0ddb 51       		.byte	0x51
 9854 0ddc 0B000000 		.4byte	.LVL279-1
 9855 0de0 6E000000 		.4byte	.LVL290
 9856 0de4 0100     		.2byte	0x1
 9857 0de6 57       		.byte	0x57
 9858 0de7 6E000000 		.4byte	.LVL290
 9859 0deb 78000000 		.4byte	.LFE16
 9860 0def 0400     		.2byte	0x4
 9861 0df1 F3       		.byte	0xf3
 9862 0df2 01       		.uleb128 0x1
 9863 0df3 51       		.byte	0x51
 9864 0df4 9F       		.byte	0x9f
 9865 0df5 00000000 		.4byte	0
 9866 0df9 00000000 		.4byte	0
 9867              	.LLST90:
 9868 0dfd 00000000 		.4byte	.LVL278
 9869 0e01 0B000000 		.4byte	.LVL279-1
 9870 0e05 0100     		.2byte	0x1
 9871 0e07 52       		.byte	0x52
 9872 0e08 0B000000 		.4byte	.LVL279-1
 9873 0e0c 78000000 		.4byte	.LFE16
 9874 0e10 0400     		.2byte	0x4
 9875 0e12 F3       		.byte	0xf3
 9876 0e13 01       		.uleb128 0x1
 9877 0e14 52       		.byte	0x52
 9878 0e15 9F       		.byte	0x9f
 9879 0e16 00000000 		.4byte	0
 9880 0e1a 00000000 		.4byte	0
 9881              	.LLST91:
 9882 0e1e 14000000 		.4byte	.LVL281
 9883 0e22 16000000 		.4byte	.LVL282
 9884 0e26 0100     		.2byte	0x1
 9885 0e28 50       		.byte	0x50
 9886 0e29 16000000 		.4byte	.LVL282
 9887 0e2d 6E000000 		.4byte	.LVL290
 9888 0e31 0100     		.2byte	0x1
 9889 0e33 54       		.byte	0x54
 9890 0e34 00000000 		.4byte	0
 9891 0e38 00000000 		.4byte	0
 9892              	.LLST92:
 9893 0e3c 00000000 		.4byte	.LVL291
 9894 0e40 09000000 		.4byte	.LVL292-1
 9895 0e44 0100     		.2byte	0x1
 9896 0e46 50       		.byte	0x50
 9897 0e47 09000000 		.4byte	.LVL292-1
 9898 0e4b 34000000 		.4byte	.LFE17
 9899 0e4f 0100     		.2byte	0x1
 9900 0e51 56       		.byte	0x56
 9901 0e52 00000000 		.4byte	0
 9902 0e56 00000000 		.4byte	0
ARM GAS  C:\Users\d3bug\AppData\Local\Temp\cct3SNM7.s 			page 207


 9903              	.LLST93:
 9904 0e5a 00000000 		.4byte	.LVL291
 9905 0e5e 09000000 		.4byte	.LVL292-1
 9906 0e62 0100     		.2byte	0x1
 9907 0e64 51       		.byte	0x51
 9908 0e65 09000000 		.4byte	.LVL292-1
 9909 0e69 34000000 		.4byte	.LFE17
 9910 0e6d 0100     		.2byte	0x1
 9911 0e6f 55       		.byte	0x55
 9912 0e70 00000000 		.4byte	0
 9913 0e74 00000000 		.4byte	0
 9914              	.LLST94:
 9915 0e78 0C000000 		.4byte	.LVL293
 9916 0e7c 16000000 		.4byte	.LVL294
 9917 0e80 0100     		.2byte	0x1
 9918 0e82 50       		.byte	0x50
 9919 0e83 16000000 		.4byte	.LVL294
 9920 0e87 34000000 		.4byte	.LFE17
 9921 0e8b 0100     		.2byte	0x1
 9922 0e8d 54       		.byte	0x54
 9923 0e8e 00000000 		.4byte	0
 9924 0e92 00000000 		.4byte	0
 9925              	.LLST95:
 9926 0e96 00000000 		.4byte	.LVL297
 9927 0e9a 09000000 		.4byte	.LVL298-1
 9928 0e9e 0100     		.2byte	0x1
 9929 0ea0 50       		.byte	0x50
 9930 0ea1 09000000 		.4byte	.LVL298-1
 9931 0ea5 4C000000 		.4byte	.LFE18
 9932 0ea9 0100     		.2byte	0x1
 9933 0eab 56       		.byte	0x56
 9934 0eac 00000000 		.4byte	0
 9935 0eb0 00000000 		.4byte	0
 9936              	.LLST96:
 9937 0eb4 00000000 		.4byte	.LVL297
 9938 0eb8 09000000 		.4byte	.LVL298-1
 9939 0ebc 0100     		.2byte	0x1
 9940 0ebe 51       		.byte	0x51
 9941 0ebf 09000000 		.4byte	.LVL298-1
 9942 0ec3 4C000000 		.4byte	.LFE18
 9943 0ec7 0400     		.2byte	0x4
 9944 0ec9 F3       		.byte	0xf3
 9945 0eca 01       		.uleb128 0x1
 9946 0ecb 51       		.byte	0x51
 9947 0ecc 9F       		.byte	0x9f
 9948 0ecd 00000000 		.4byte	0
 9949 0ed1 00000000 		.4byte	0
 9950              	.LLST97:
 9951 0ed5 0C000000 		.4byte	.LVL299
 9952 0ed9 3E000000 		.4byte	.LVL300
 9953 0edd 0100     		.2byte	0x1
 9954 0edf 50       		.byte	0x50
 9955 0ee0 3E000000 		.4byte	.LVL300
 9956 0ee4 4C000000 		.4byte	.LFE18
 9957 0ee8 0100     		.2byte	0x1
 9958 0eea 54       		.byte	0x54
 9959 0eeb 00000000 		.4byte	0
ARM GAS  C:\Users\d3bug\AppData\Local\Temp\cct3SNM7.s 			page 208


 9960 0eef 00000000 		.4byte	0
 9961              	.LLST98:
 9962 0ef3 00000000 		.4byte	.LVL303
 9963 0ef7 09000000 		.4byte	.LVL304-1
 9964 0efb 0100     		.2byte	0x1
 9965 0efd 50       		.byte	0x50
 9966 0efe 09000000 		.4byte	.LVL304-1
 9967 0f02 2C000000 		.4byte	.LFE20
 9968 0f06 0100     		.2byte	0x1
 9969 0f08 55       		.byte	0x55
 9970 0f09 00000000 		.4byte	0
 9971 0f0d 00000000 		.4byte	0
 9972              	.LLST99:
 9973 0f11 00000000 		.4byte	.LVL303
 9974 0f15 09000000 		.4byte	.LVL304-1
 9975 0f19 0100     		.2byte	0x1
 9976 0f1b 51       		.byte	0x51
 9977 0f1c 09000000 		.4byte	.LVL304-1
 9978 0f20 2C000000 		.4byte	.LFE20
 9979 0f24 0400     		.2byte	0x4
 9980 0f26 F3       		.byte	0xf3
 9981 0f27 01       		.uleb128 0x1
 9982 0f28 51       		.byte	0x51
 9983 0f29 9F       		.byte	0x9f
 9984 0f2a 00000000 		.4byte	0
 9985 0f2e 00000000 		.4byte	0
 9986              	.LLST100:
 9987 0f32 0A000000 		.4byte	.LVL304
 9988 0f36 26000000 		.4byte	.LVL305
 9989 0f3a 0100     		.2byte	0x1
 9990 0f3c 50       		.byte	0x50
 9991 0f3d 00000000 		.4byte	0
 9992 0f41 00000000 		.4byte	0
 9993              	.LLST101:
 9994 0f45 00000000 		.4byte	.LVL307
 9995 0f49 10000000 		.4byte	.LVL309
 9996 0f4d 0100     		.2byte	0x1
 9997 0f4f 50       		.byte	0x50
 9998 0f50 10000000 		.4byte	.LVL309
 9999 0f54 2E000000 		.4byte	.LVL315
 10000 0f58 0100     		.2byte	0x1
 10001 0f5a 54       		.byte	0x54
 10002 0f5b 2E000000 		.4byte	.LVL315
 10003 0f5f CC010000 		.4byte	.LFE14
 10004 0f63 0400     		.2byte	0x4
 10005 0f65 F3       		.byte	0xf3
 10006 0f66 01       		.uleb128 0x1
 10007 0f67 50       		.byte	0x50
 10008 0f68 9F       		.byte	0x9f
 10009 0f69 00000000 		.4byte	0
 10010 0f6d 00000000 		.4byte	0
 10011              	.LLST102:
 10012 0f71 00000000 		.4byte	.LVL307
 10013 0f75 0E000000 		.4byte	.LVL308
 10014 0f79 0100     		.2byte	0x1
 10015 0f7b 51       		.byte	0x51
 10016 0f7c 0E000000 		.4byte	.LVL308
ARM GAS  C:\Users\d3bug\AppData\Local\Temp\cct3SNM7.s 			page 209


 10017 0f80 2A010000 		.4byte	.LVL345
 10018 0f84 0100     		.2byte	0x1
 10019 0f86 56       		.byte	0x56
 10020 0f87 2A010000 		.4byte	.LVL345
 10021 0f8b 98010000 		.4byte	.LVL353
 10022 0f8f 0400     		.2byte	0x4
 10023 0f91 F3       		.byte	0xf3
 10024 0f92 01       		.uleb128 0x1
 10025 0f93 51       		.byte	0x51
 10026 0f94 9F       		.byte	0x9f
 10027 0f95 98010000 		.4byte	.LVL353
 10028 0f99 A4010000 		.4byte	.LVL357
 10029 0f9d 0100     		.2byte	0x1
 10030 0f9f 56       		.byte	0x56
 10031 0fa0 A4010000 		.4byte	.LVL357
 10032 0fa4 CC010000 		.4byte	.LFE14
 10033 0fa8 0400     		.2byte	0x4
 10034 0faa F3       		.byte	0xf3
 10035 0fab 01       		.uleb128 0x1
 10036 0fac 51       		.byte	0x51
 10037 0fad 9F       		.byte	0x9f
 10038 0fae 00000000 		.4byte	0
 10039 0fb2 00000000 		.4byte	0
 10040              	.LLST103:
 10041 0fb6 1C000000 		.4byte	.LVL311
 10042 0fba 26000000 		.4byte	.LVL312
 10043 0fbe 0100     		.2byte	0x1
 10044 0fc0 50       		.byte	0x50
 10045 0fc1 2C000000 		.4byte	.LVL314
 10046 0fc5 3D000000 		.4byte	.LVL316-1
 10047 0fc9 0100     		.2byte	0x1
 10048 0fcb 50       		.byte	0x50
 10049 0fcc 3D000000 		.4byte	.LVL316-1
 10050 0fd0 98010000 		.4byte	.LVL353
 10051 0fd4 0100     		.2byte	0x1
 10052 0fd6 54       		.byte	0x54
 10053 0fd7 98010000 		.4byte	.LVL353
 10054 0fdb 9A010000 		.4byte	.LVL354
 10055 0fdf 0100     		.2byte	0x1
 10056 0fe1 50       		.byte	0x50
 10057 0fe2 9A010000 		.4byte	.LVL354
 10058 0fe6 AA010000 		.4byte	.LVL358
 10059 0fea 0100     		.2byte	0x1
 10060 0fec 54       		.byte	0x54
 10061 0fed 00000000 		.4byte	0
 10062 0ff1 00000000 		.4byte	0
 10063              	.LLST104:
 10064 0ff5 50000000 		.4byte	.LVL318
 10065 0ff9 5C000000 		.4byte	.LVL319
 10066 0ffd 0100     		.2byte	0x1
 10067 0fff 50       		.byte	0x50
 10068 1000 5C000000 		.4byte	.LVL319
 10069 1004 62000000 		.4byte	.LVL321
 10070 1008 0100     		.2byte	0x1
 10071 100a 55       		.byte	0x55
 10072 100b 62000000 		.4byte	.LVL321
 10073 100f 8C000000 		.4byte	.LVL322
ARM GAS  C:\Users\d3bug\AppData\Local\Temp\cct3SNM7.s 			page 210


 10074 1013 0100     		.2byte	0x1
 10075 1015 50       		.byte	0x50
 10076 1016 8C000000 		.4byte	.LVL322
 10077 101a 98010000 		.4byte	.LVL353
 10078 101e 0100     		.2byte	0x1
 10079 1020 55       		.byte	0x55
 10080 1021 9E010000 		.4byte	.LVL355
 10081 1025 A0010000 		.4byte	.LVL356
 10082 1029 0100     		.2byte	0x1
 10083 102b 50       		.byte	0x50
 10084 102c A0010000 		.4byte	.LVL356
 10085 1030 AA010000 		.4byte	.LVL358
 10086 1034 0100     		.2byte	0x1
 10087 1036 55       		.byte	0x55
 10088 1037 00000000 		.4byte	0
 10089 103b 00000000 		.4byte	0
 10090              	.LLST105:
 10091 103f B2000000 		.4byte	.LVL327
 10092 1043 BC000000 		.4byte	.LVL329
 10093 1047 0200     		.2byte	0x2
 10094 1049 30       		.byte	0x30
 10095 104a 9F       		.byte	0x9f
 10096 104b 00000000 		.4byte	0
 10097 104f 00000000 		.4byte	0
 10098              	.LLST106:
 10099 1053 B2000000 		.4byte	.LVL327
 10100 1057 BC000000 		.4byte	.LVL329
 10101 105b 0100     		.2byte	0x1
 10102 105d 54       		.byte	0x54
 10103 105e 00000000 		.4byte	0
 10104 1062 00000000 		.4byte	0
 10105              	.LLST107:
 10106 1066 C4000000 		.4byte	.LVL331
 10107 106a C6000000 		.4byte	.LVL332
 10108 106e 0100     		.2byte	0x1
 10109 1070 50       		.byte	0x50
 10110 1071 C6000000 		.4byte	.LVL332
 10111 1075 86010000 		.4byte	.LVL351
 10112 1079 0100     		.2byte	0x1
 10113 107b 57       		.byte	0x57
 10114 107c A4010000 		.4byte	.LVL357
 10115 1080 AA010000 		.4byte	.LVL358
 10116 1084 0100     		.2byte	0x1
 10117 1086 57       		.byte	0x57
 10118 1087 00000000 		.4byte	0
 10119 108b 00000000 		.4byte	0
 10120              	.LLST108:
 10121 108f 00000000 		.4byte	.LVL359
 10122 1093 09000000 		.4byte	.LVL360-1
 10123 1097 0100     		.2byte	0x1
 10124 1099 50       		.byte	0x50
 10125 109a 09000000 		.4byte	.LVL360-1
 10126 109e 24000000 		.4byte	.LFE22
 10127 10a2 0100     		.2byte	0x1
 10128 10a4 55       		.byte	0x55
 10129 10a5 00000000 		.4byte	0
 10130 10a9 00000000 		.4byte	0
ARM GAS  C:\Users\d3bug\AppData\Local\Temp\cct3SNM7.s 			page 211


 10131              	.LLST109:
 10132 10ad 00000000 		.4byte	.LVL359
 10133 10b1 09000000 		.4byte	.LVL360-1
 10134 10b5 0100     		.2byte	0x1
 10135 10b7 51       		.byte	0x51
 10136 10b8 09000000 		.4byte	.LVL360-1
 10137 10bc 24000000 		.4byte	.LFE22
 10138 10c0 0400     		.2byte	0x4
 10139 10c2 F3       		.byte	0xf3
 10140 10c3 01       		.uleb128 0x1
 10141 10c4 51       		.byte	0x51
 10142 10c5 9F       		.byte	0x9f
 10143 10c6 00000000 		.4byte	0
 10144 10ca 00000000 		.4byte	0
 10145              	.LLST110:
 10146 10ce 0A000000 		.4byte	.LVL360
 10147 10d2 1E000000 		.4byte	.LVL361
 10148 10d6 0100     		.2byte	0x1
 10149 10d8 50       		.byte	0x50
 10150 10d9 00000000 		.4byte	0
 10151 10dd 00000000 		.4byte	0
 10152              	.LLST111:
 10153 10e1 00000000 		.4byte	.LVL363
 10154 10e5 0D000000 		.4byte	.LVL364-1
 10155 10e9 0100     		.2byte	0x1
 10156 10eb 50       		.byte	0x50
 10157 10ec 0D000000 		.4byte	.LVL364-1
 10158 10f0 76000000 		.4byte	.LVL380
 10159 10f4 0100     		.2byte	0x1
 10160 10f6 56       		.byte	0x56
 10161 10f7 76000000 		.4byte	.LVL380
 10162 10fb 84000000 		.4byte	.LFE31
 10163 10ff 0400     		.2byte	0x4
 10164 1101 F3       		.byte	0xf3
 10165 1102 01       		.uleb128 0x1
 10166 1103 50       		.byte	0x50
 10167 1104 9F       		.byte	0x9f
 10168 1105 00000000 		.4byte	0
 10169 1109 00000000 		.4byte	0
 10170              	.LLST112:
 10171 110d 00000000 		.4byte	.LVL363
 10172 1111 0D000000 		.4byte	.LVL364-1
 10173 1115 0100     		.2byte	0x1
 10174 1117 51       		.byte	0x51
 10175 1118 0D000000 		.4byte	.LVL364-1
 10176 111c 76000000 		.4byte	.LVL380
 10177 1120 0100     		.2byte	0x1
 10178 1122 55       		.byte	0x55
 10179 1123 00000000 		.4byte	0
 10180 1127 00000000 		.4byte	0
 10181              	.LLST113:
 10182 112b 00000000 		.4byte	.LVL363
 10183 112f 0D000000 		.4byte	.LVL364-1
 10184 1133 0100     		.2byte	0x1
 10185 1135 52       		.byte	0x52
 10186 1136 0D000000 		.4byte	.LVL364-1
 10187 113a 76000000 		.4byte	.LVL380
ARM GAS  C:\Users\d3bug\AppData\Local\Temp\cct3SNM7.s 			page 212


 10188 113e 0100     		.2byte	0x1
 10189 1140 57       		.byte	0x57
 10190 1141 76000000 		.4byte	.LVL380
 10191 1145 84000000 		.4byte	.LFE31
 10192 1149 0400     		.2byte	0x4
 10193 114b F3       		.byte	0xf3
 10194 114c 01       		.uleb128 0x1
 10195 114d 52       		.byte	0x52
 10196 114e 9F       		.byte	0x9f
 10197 114f 00000000 		.4byte	0
 10198 1153 00000000 		.4byte	0
 10199              	.LLST114:
 10200 1157 0E000000 		.4byte	.LVL364
 10201 115b 1A000000 		.4byte	.LVL365
 10202 115f 0100     		.2byte	0x1
 10203 1161 50       		.byte	0x50
 10204 1162 1A000000 		.4byte	.LVL365
 10205 1166 72000000 		.4byte	.LVL379
 10206 116a 0100     		.2byte	0x1
 10207 116c 54       		.byte	0x54
 10208 116d 00000000 		.4byte	0
 10209 1171 00000000 		.4byte	0
 10210              	.LLST115:
 10211 1175 2A000000 		.4byte	.LVL368
 10212 1179 2C000000 		.4byte	.LVL369
 10213 117d 0100     		.2byte	0x1
 10214 117f 50       		.byte	0x50
 10215 1180 2C000000 		.4byte	.LVL369
 10216 1184 72000000 		.4byte	.LVL379
 10217 1188 0100     		.2byte	0x1
 10218 118a 58       		.byte	0x58
 10219 118b 00000000 		.4byte	0
 10220 118f 00000000 		.4byte	0
 10221              	.LLST116:
 10222 1193 30000000 		.4byte	.LVL370
 10223 1197 38000000 		.4byte	.LVL373
 10224 119b 0100     		.2byte	0x1
 10225 119d 50       		.byte	0x50
 10226 119e 00000000 		.4byte	0
 10227 11a2 00000000 		.4byte	0
 10228              	.LLST117:
 10229 11a6 34000000 		.4byte	.LVL371
 10230 11aa 36000000 		.4byte	.LVL372
 10231 11ae 0100     		.2byte	0x1
 10232 11b0 51       		.byte	0x51
 10233 11b1 36000000 		.4byte	.LVL372
 10234 11b5 3B000000 		.4byte	.LVL374-1
 10235 11b9 0300     		.2byte	0x3
 10236 11bb 71       		.byte	0x71
 10237 11bc 7F       		.sleb128 -1
 10238 11bd 9F       		.byte	0x9f
 10239 11be 00000000 		.4byte	0
 10240 11c2 00000000 		.4byte	0
 10241              	.LLST118:
 10242 11c6 00000000 		.4byte	.LVL381
 10243 11ca 0B000000 		.4byte	.LVL382-1
 10244 11ce 0100     		.2byte	0x1
ARM GAS  C:\Users\d3bug\AppData\Local\Temp\cct3SNM7.s 			page 213


 10245 11d0 50       		.byte	0x50
 10246 11d1 0B000000 		.4byte	.LVL382-1
 10247 11d5 30000000 		.4byte	.LFE32
 10248 11d9 0100     		.2byte	0x1
 10249 11db 54       		.byte	0x54
 10250 11dc 00000000 		.4byte	0
 10251 11e0 00000000 		.4byte	0
 10252              	.LLST119:
 10253 11e4 00000000 		.4byte	.LVL381
 10254 11e8 0B000000 		.4byte	.LVL382-1
 10255 11ec 0100     		.2byte	0x1
 10256 11ee 51       		.byte	0x51
 10257 11ef 0B000000 		.4byte	.LVL382-1
 10258 11f3 30000000 		.4byte	.LFE32
 10259 11f7 0100     		.2byte	0x1
 10260 11f9 55       		.byte	0x55
 10261 11fa 00000000 		.4byte	0
 10262 11fe 00000000 		.4byte	0
 10263              	.LLST120:
 10264 1202 00000000 		.4byte	.LVL381
 10265 1206 0B000000 		.4byte	.LVL382-1
 10266 120a 0100     		.2byte	0x1
 10267 120c 52       		.byte	0x52
 10268 120d 0B000000 		.4byte	.LVL382-1
 10269 1211 30000000 		.4byte	.LFE32
 10270 1215 0100     		.2byte	0x1
 10271 1217 56       		.byte	0x56
 10272 1218 00000000 		.4byte	0
 10273 121c 00000000 		.4byte	0
 10274              	.LLST121:
 10275 1220 0C000000 		.4byte	.LVL382
 10276 1224 16000000 		.4byte	.LVL383
 10277 1228 0100     		.2byte	0x1
 10278 122a 50       		.byte	0x50
 10279 122b 00000000 		.4byte	0
 10280 122f 00000000 		.4byte	0
 10281              	.LLST122:
 10282 1233 20000000 		.4byte	.LVL385
 10283 1237 27000000 		.4byte	.LVL386-1
 10284 123b 0100     		.2byte	0x1
 10285 123d 50       		.byte	0x50
 10286 123e 00000000 		.4byte	0
 10287 1242 00000000 		.4byte	0
 10288              		.section	.debug_aranges,"",%progbits
 10289 0000 CC000000 		.4byte	0xcc
 10290 0004 0200     		.2byte	0x2
 10291 0006 00000000 		.4byte	.Ldebug_info0
 10292 000a 04       		.byte	0x4
 10293 000b 00       		.byte	0
 10294 000c 0000     		.2byte	0
 10295 000e 0000     		.2byte	0
 10296 0010 00000000 		.4byte	.LFB36
 10297 0014 44000000 		.4byte	.LFE36-.LFB36
 10298 0018 00000000 		.4byte	.LFB33
 10299 001c 18010000 		.4byte	.LFE33-.LFB33
 10300 0020 00000000 		.4byte	.LFB19
 10301 0024 24000000 		.4byte	.LFE19-.LFB19
ARM GAS  C:\Users\d3bug\AppData\Local\Temp\cct3SNM7.s 			page 214


 10302 0028 00000000 		.4byte	.LFB21
 10303 002c 32000000 		.4byte	.LFE21-.LFB21
 10304 0030 00000000 		.4byte	.LFB23
 10305 0034 0A000000 		.4byte	.LFE23-.LFB23
 10306 0038 00000000 		.4byte	.LFB24
 10307 003c 0A000000 		.4byte	.LFE24-.LFB24
 10308 0040 00000000 		.4byte	.LFB25
 10309 0044 0E000000 		.4byte	.LFE25-.LFB25
 10310 0048 00000000 		.4byte	.LFB26
 10311 004c 0E000000 		.4byte	.LFE26-.LFB26
 10312 0050 00000000 		.4byte	.LFB27
 10313 0054 0E000000 		.4byte	.LFE27-.LFB27
 10314 0058 00000000 		.4byte	.LFB28
 10315 005c 0A000000 		.4byte	.LFE28-.LFB28
 10316 0060 00000000 		.4byte	.LFB29
 10317 0064 AC010000 		.4byte	.LFE29-.LFB29
 10318 0068 00000000 		.4byte	.LFB30
 10319 006c 6C010000 		.4byte	.LFE30-.LFB30
 10320 0070 00000000 		.4byte	.LFB35
 10321 0074 A0010000 		.4byte	.LFE35-.LFB35
 10322 0078 00000000 		.4byte	.LFB34
 10323 007c FC000000 		.4byte	.LFE34-.LFB34
 10324 0080 00000000 		.4byte	.LFB15
 10325 0084 A4000000 		.4byte	.LFE15-.LFB15
 10326 0088 00000000 		.4byte	.LFB16
 10327 008c 78000000 		.4byte	.LFE16-.LFB16
 10328 0090 00000000 		.4byte	.LFB17
 10329 0094 34000000 		.4byte	.LFE17-.LFB17
 10330 0098 00000000 		.4byte	.LFB18
 10331 009c 4C000000 		.4byte	.LFE18-.LFB18
 10332 00a0 00000000 		.4byte	.LFB20
 10333 00a4 2C000000 		.4byte	.LFE20-.LFB20
 10334 00a8 00000000 		.4byte	.LFB14
 10335 00ac CC010000 		.4byte	.LFE14-.LFB14
 10336 00b0 00000000 		.4byte	.LFB22
 10337 00b4 24000000 		.4byte	.LFE22-.LFB22
 10338 00b8 00000000 		.4byte	.LFB31
 10339 00bc 84000000 		.4byte	.LFE31-.LFB31
 10340 00c0 00000000 		.4byte	.LFB32
 10341 00c4 30000000 		.4byte	.LFE32-.LFB32
 10342 00c8 00000000 		.4byte	0
 10343 00cc 00000000 		.4byte	0
 10344              		.section	.debug_ranges,"",%progbits
 10345              	.Ldebug_ranges0:
 10346 0000 D4000000 		.4byte	.LBB51
 10347 0004 E0000000 		.4byte	.LBE51
 10348 0008 E2000000 		.4byte	.LBB52
 10349 000c EC000000 		.4byte	.LBE52
 10350 0010 00000000 		.4byte	0
 10351 0014 00000000 		.4byte	0
 10352 0018 BC000000 		.4byte	.LBB56
 10353 001c 86010000 		.4byte	.LBE56
 10354 0020 A4010000 		.4byte	.LBB57
 10355 0024 A6010000 		.4byte	.LBE57
 10356 0028 00000000 		.4byte	0
 10357 002c 00000000 		.4byte	0
 10358 0030 00000000 		.4byte	.LFB36
ARM GAS  C:\Users\d3bug\AppData\Local\Temp\cct3SNM7.s 			page 215


 10359 0034 44000000 		.4byte	.LFE36
 10360 0038 00000000 		.4byte	.LFB33
 10361 003c 18010000 		.4byte	.LFE33
 10362 0040 00000000 		.4byte	.LFB19
 10363 0044 24000000 		.4byte	.LFE19
 10364 0048 00000000 		.4byte	.LFB21
 10365 004c 32000000 		.4byte	.LFE21
 10366 0050 00000000 		.4byte	.LFB23
 10367 0054 0A000000 		.4byte	.LFE23
 10368 0058 00000000 		.4byte	.LFB24
 10369 005c 0A000000 		.4byte	.LFE24
 10370 0060 00000000 		.4byte	.LFB25
 10371 0064 0E000000 		.4byte	.LFE25
 10372 0068 00000000 		.4byte	.LFB26
 10373 006c 0E000000 		.4byte	.LFE26
 10374 0070 00000000 		.4byte	.LFB27
 10375 0074 0E000000 		.4byte	.LFE27
 10376 0078 00000000 		.4byte	.LFB28
 10377 007c 0A000000 		.4byte	.LFE28
 10378 0080 00000000 		.4byte	.LFB29
 10379 0084 AC010000 		.4byte	.LFE29
 10380 0088 00000000 		.4byte	.LFB30
 10381 008c 6C010000 		.4byte	.LFE30
 10382 0090 00000000 		.4byte	.LFB35
 10383 0094 A0010000 		.4byte	.LFE35
 10384 0098 00000000 		.4byte	.LFB34
 10385 009c FC000000 		.4byte	.LFE34
 10386 00a0 00000000 		.4byte	.LFB15
 10387 00a4 A4000000 		.4byte	.LFE15
 10388 00a8 00000000 		.4byte	.LFB16
 10389 00ac 78000000 		.4byte	.LFE16
 10390 00b0 00000000 		.4byte	.LFB17
 10391 00b4 34000000 		.4byte	.LFE17
 10392 00b8 00000000 		.4byte	.LFB18
 10393 00bc 4C000000 		.4byte	.LFE18
 10394 00c0 00000000 		.4byte	.LFB20
 10395 00c4 2C000000 		.4byte	.LFE20
 10396 00c8 00000000 		.4byte	.LFB14
 10397 00cc CC010000 		.4byte	.LFE14
 10398 00d0 00000000 		.4byte	.LFB22
 10399 00d4 24000000 		.4byte	.LFE22
 10400 00d8 00000000 		.4byte	.LFB31
 10401 00dc 84000000 		.4byte	.LFE31
 10402 00e0 00000000 		.4byte	.LFB32
 10403 00e4 30000000 		.4byte	.LFE32
 10404 00e8 00000000 		.4byte	0
 10405 00ec 00000000 		.4byte	0
 10406              		.section	.debug_line,"",%progbits
 10407              	.Ldebug_line0:
 10408 0000 30070000 		.section	.debug_str,"MS",%progbits,1
 10408      0200BD02 
 10408      00000201 
 10408      FB0E0D00 
 10408      01010101 
 10409              	.LASF232:
 10410 0000 6C765F6F 		.ascii	"lv_obj_get_ext_attr\000"
 10410      626A5F67 
ARM GAS  C:\Users\d3bug\AppData\Local\Temp\cct3SNM7.s 			page 216


 10410      65745F65 
 10410      78745F61 
 10410      74747200 
 10411              	.LASF135:
 10412 0014 6C765F6F 		.ascii	"lv_obj_type_t\000"
 10412      626A5F74 
 10412      7970655F 
 10412      7400
 10413              	.LASF89:
 10414 0022 636C6963 		.ascii	"click\000"
 10414      6B00
 10415              	.LASF81:
 10416 0028 5F6C765F 		.ascii	"_lv_obj_t\000"
 10416      6F626A5F 
 10416      7400
 10417              	.LASF221:
 10418 0032 6F6C645F 		.ascii	"old_len\000"
 10418      6C656E00 
 10419              	.LASF88:
 10420 003a 66726565 		.ascii	"free_ptr\000"
 10420      5F707472 
 10420      00
 10421              	.LASF174:
 10422 0043 7374796C 		.ascii	"style\000"
 10422      6500
 10423              	.LASF20:
 10424 0049 66756C6C 		.ascii	"full\000"
 10424      00
 10425              	.LASF106:
 10426 004e 4C565F53 		.ascii	"LV_SIGNAL_STYLE_CHG\000"
 10426      49474E41 
 10426      4C5F5354 
 10426      594C455F 
 10426      43484700 
 10427              	.LASF196:
 10428 0062 6C657474 		.ascii	"letter_height\000"
 10428      65725F68 
 10428      65696768 
 10428      7400
 10429              	.LASF112:
 10430 0070 4C565F53 		.ascii	"LV_SIGNAL_PRESSING\000"
 10430      49474E41 
 10430      4C5F5052 
 10430      45535349 
 10430      4E4700
 10431              	.LASF149:
 10432 0083 4C565F4C 		.ascii	"LV_LABEL_LONG_DOT\000"
 10432      4142454C 
 10432      5F4C4F4E 
 10432      475F444F 
 10432      5400
 10433              	.LASF250:
 10434 0095 7374726C 		.ascii	"strlen\000"
 10434      656E00
 10435              	.LASF107:
 10436 009c 4C565F53 		.ascii	"LV_SIGNAL_REFR_EXT_SIZE\000"
 10436      49474E41 
ARM GAS  C:\Users\d3bug\AppData\Local\Temp\cct3SNM7.s 			page 217


 10436      4C5F5245 
 10436      46525F45 
 10436      58545F53 
 10437              	.LASF220:
 10438 00b4 6C765F6C 		.ascii	"lv_label_ins_text\000"
 10438      6162656C 
 10438      5F696E73 
 10438      5F746578 
 10438      7400
 10439              	.LASF217:
 10440 00c6 6E65775F 		.ascii	"new_label\000"
 10440      6C616265 
 10440      6C00
 10441              	.LASF167:
 10442 00d0 6C765F66 		.ascii	"lv_font_get_height\000"
 10442      6F6E745F 
 10442      6765745F 
 10442      68656967 
 10442      687400
 10443              	.LASF85:
 10444 00e3 64657369 		.ascii	"design_func\000"
 10444      676E5F66 
 10444      756E6300 
 10445              	.LASF236:
 10446 00ef 6C765F74 		.ascii	"lv_txt_get_size\000"
 10446      78745F67 
 10446      65745F73 
 10446      697A6500 
 10447              	.LASF91:
 10448 00ff 64726167 		.ascii	"drag_throw\000"
 10448      5F746872 
 10448      6F7700
 10449              	.LASF0:
 10450 010a 756E7369 		.ascii	"unsigned int\000"
 10450      676E6564 
 10450      20696E74 
 10450      00
 10451              	.LASF187:
 10452 0117 6C765F6C 		.ascii	"lv_label_get_body_draw\000"
 10452      6162656C 
 10452      5F676574 
 10452      5F626F64 
 10452      795F6472 
 10453              	.LASF68:
 10454 012e 6C765F73 		.ascii	"lv_style_t\000"
 10454      74796C65 
 10454      5F7400
 10455              	.LASF37:
 10456 0139 6765745F 		.ascii	"get_bitmap\000"
 10456      6269746D 
 10456      617000
 10457              	.LASF71:
 10458 0144 68656164 		.ascii	"head\000"
 10458      00
 10459              	.LASF27:
 10460 0149 6C765F70 		.ascii	"lv_point_t\000"
 10460      6F696E74 
ARM GAS  C:\Users\d3bug\AppData\Local\Temp\cct3SNM7.s 			page 218


 10460      5F7400
 10461              	.LASF198:
 10462 0154 695F6375 		.ascii	"i_current\000"
 10462      7272656E 
 10462      7400
 10463              	.LASF158:
 10464 015e 646F745F 		.ascii	"dot_tmp\000"
 10464      746D7000 
 10465              	.LASF228:
 10466 0166 6C765F74 		.ascii	"lv_txt_encoded_next\000"
 10466      78745F65 
 10466      6E636F64 
 10466      65645F6E 
 10466      65787400 
 10467              	.LASF129:
 10468 017a 796F6673 		.ascii	"yofs\000"
 10468      00
 10469              	.LASF239:
 10470 017f 6C765F64 		.ascii	"lv_draw_label\000"
 10470      7261775F 
 10470      6C616265 
 10470      6C00
 10471              	.LASF242:
 10472 018d 6C765F74 		.ascii	"lv_txt_get_width\000"
 10472      78745F67 
 10472      65745F77 
 10472      69647468 
 10472      00
 10473              	.LASF125:
 10474 019e 6C765F73 		.ascii	"lv_signal_func_t\000"
 10474      69676E61 
 10474      6C5F6675 
 10474      6E635F74 
 10474      00
 10475              	.LASF189:
 10476 01af 6C765F6C 		.ascii	"lv_label_get_letter_pos\000"
 10476      6162656C 
 10476      5F676574 
 10476      5F6C6574 
 10476      7465725F 
 10477              	.LASF70:
 10478 01c7 6E5F7369 		.ascii	"n_size\000"
 10478      7A6500
 10479              	.LASF86:
 10480 01ce 6578745F 		.ascii	"ext_attr\000"
 10480      61747472 
 10480      00
 10481              	.LASF178:
 10482 01d7 6D6F6465 		.ascii	"mode\000"
 10482      00
 10483              	.LASF194:
 10484 01dc 6C696E65 		.ascii	"line_w\000"
 10484      5F7700
 10485              	.LASF36:
 10486 01e3 756E6963 		.ascii	"unicode_list\000"
 10486      6F64655F 
 10486      6C697374 
ARM GAS  C:\Users\d3bug\AppData\Local\Temp\cct3SNM7.s 			page 219


 10486      00
 10487              	.LASF113:
 10488 01f0 4C565F53 		.ascii	"LV_SIGNAL_PRESS_LOST\000"
 10488      49474E41 
 10488      4C5F5052 
 10488      4553535F 
 10488      4C4F5354 
 10489              	.LASF150:
 10490 0205 4C565F4C 		.ascii	"LV_LABEL_LONG_ROLL\000"
 10490      4142454C 
 10490      5F4C4F4E 
 10490      475F524F 
 10490      4C4C00
 10491              	.LASF122:
 10492 0218 5F4C565F 		.ascii	"_LV_SIGNAL_FEEDBACK_SECTION_END\000"
 10492      5349474E 
 10492      414C5F46 
 10492      45454442 
 10492      41434B5F 
 10493              	.LASF155:
 10494 0238 4C565F4C 		.ascii	"LV_LABEL_ALIGN_RIGHT\000"
 10494      4142454C 
 10494      5F414C49 
 10494      474E5F52 
 10494      49474854 
 10495              	.LASF134:
 10496 024d 6C765F6F 		.ascii	"lv_obj_t\000"
 10496      626A5F74 
 10496      00
 10497              	.LASF205:
 10498 0256 6C765F6C 		.ascii	"lv_label_design\000"
 10498      6162656C 
 10498      5F646573 
 10498      69676E00 
 10499              	.LASF216:
 10500 0266 636F7079 		.ascii	"copy\000"
 10500      00
 10501              	.LASF137:
 10502 026b 4C565F54 		.ascii	"LV_TXT_FLAG_RECOLOR\000"
 10502      58545F46 
 10502      4C41475F 
 10502      5245434F 
 10502      4C4F5200 
 10503              	.LASF98:
 10504 027f 7265616C 		.ascii	"realign\000"
 10504      69676E00 
 10505              	.LASF50:
 10506 0287 696E6E65 		.ascii	"inner\000"
 10506      7200
 10507              	.LASF225:
 10508 028d 6C616265 		.ascii	"label_txt\000"
 10508      6C5F7478 
 10508      7400
 10509              	.LASF139:
 10510 0297 4C565F54 		.ascii	"LV_TXT_FLAG_CENTER\000"
 10510      58545F46 
 10510      4C41475F 
ARM GAS  C:\Users\d3bug\AppData\Local\Temp\cct3SNM7.s 			page 220


 10510      43454E54 
 10510      455200
 10511              	.LASF171:
 10512 02aa 6C765F61 		.ascii	"lv_area_get_height\000"
 10512      7265615F 
 10512      6765745F 
 10512      68656967 
 10512      687400
 10513              	.LASF233:
 10514 02bd 6C765F6F 		.ascii	"lv_obj_get_coords\000"
 10514      626A5F67 
 10514      65745F63 
 10514      6F6F7264 
 10514      7300
 10515              	.LASF17:
 10516 02cf 75696E74 		.ascii	"uint32_t\000"
 10516      33325F74 
 10516      00
 10517              	.LASF159:
 10518 02d8 646F745F 		.ascii	"dot_end\000"
 10518      656E6400 
 10519              	.LASF84:
 10520 02e0 7369676E 		.ascii	"signal_func\000"
 10520      616C5F66 
 10520      756E6300 
 10521              	.LASF246:
 10522 02ec 6C765F6F 		.ascii	"lv_obj_get_height\000"
 10522      626A5F67 
 10522      65745F68 
 10522      65696768 
 10522      7400
 10523              	.LASF258:
 10524 02fe 6C765F6F 		.ascii	"lv_obj_create\000"
 10524      626A5F63 
 10524      72656174 
 10524      6500
 10525              	.LASF146:
 10526 030c 4C565F4C 		.ascii	"LV_LABEL_LONG_EXPAND\000"
 10526      4142454C 
 10526      5F4C4F4E 
 10526      475F4558 
 10526      50414E44 
 10527              	.LASF127:
 10528 0321 62617365 		.ascii	"base\000"
 10528      00
 10529              	.LASF190:
 10530 0326 696E6465 		.ascii	"index\000"
 10530      7800
 10531              	.LASF212:
 10532 032c 6C765F6C 		.ascii	"lv_label_set_static_text\000"
 10532      6162656C 
 10532      5F736574 
 10532      5F737461 
 10532      7469635F 
 10533              	.LASF15:
 10534 0345 696E7431 		.ascii	"int16_t\000"
 10534      365F7400 
ARM GAS  C:\Users\d3bug\AppData\Local\Temp\cct3SNM7.s 			page 221


 10535              	.LASF42:
 10536 034d 676C7970 		.ascii	"glyph_cnt\000"
 10536      685F636E 
 10536      7400
 10537              	.LASF13:
 10538 0357 6C6F6E67 		.ascii	"long long unsigned int\000"
 10538      206C6F6E 
 10538      6720756E 
 10538      7369676E 
 10538      65642069 
 10539              	.LASF209:
 10540 036e 6C765F6C 		.ascii	"lv_label_set_text\000"
 10540      6162656C 
 10540      5F736574 
 10540      5F746578 
 10540      7400
 10541              	.LASF260:
 10542 0380 6C765F6F 		.ascii	"lv_obj_allocate_ext_attr\000"
 10542      626A5F61 
 10542      6C6C6F63 
 10542      6174655F 
 10542      6578745F 
 10543              	.LASF201:
 10544 0399 6C765F6C 		.ascii	"lv_label_refr_text\000"
 10544      6162656C 
 10544      5F726566 
 10544      725F7465 
 10544      787400
 10545              	.LASF48:
 10546 03ac 70617274 		.ascii	"part\000"
 10546      00
 10547              	.LASF243:
 10548 03b1 6C765F74 		.ascii	"lv_txt_get_next_line\000"
 10548      78745F67 
 10548      65745F6E 
 10548      6578745F 
 10548      6C696E65 
 10549              	.LASF251:
 10550 03c6 6C765F6D 		.ascii	"lv_mem_alloc\000"
 10550      656D5F61 
 10550      6C6C6F63 
 10550      00
 10551              	.LASF29:
 10552 03d3 775F7078 		.ascii	"w_px\000"
 10552      00
 10553              	.LASF197:
 10554 03d8 636D645F 		.ascii	"cmd_state\000"
 10554      73746174 
 10554      6500
 10555              	.LASF8:
 10556 03e2 5F5F7569 		.ascii	"__uint16_t\000"
 10556      6E743136 
 10556      5F7400
 10557              	.LASF99:
 10558 03ed 66726565 		.ascii	"free_num\000"
 10558      5F6E756D 
 10558      00
ARM GAS  C:\Users\d3bug\AppData\Local\Temp\cct3SNM7.s 			page 222


 10559              	.LASF54:
 10560 03f6 626F7264 		.ascii	"border\000"
 10560      657200
 10561              	.LASF214:
 10562 03fd 6C765F6C 		.ascii	"lv_label_set_recolor\000"
 10562      6162656C 
 10562      5F736574 
 10562      5F726563 
 10562      6F6C6F72 
 10563              	.LASF39:
 10564 0412 6E657874 		.ascii	"next_page\000"
 10564      5F706167 
 10564      6500
 10565              	.LASF140:
 10566 041c 4C565F54 		.ascii	"LV_TXT_FLAG_RIGHT\000"
 10566      58545F46 
 10566      4C41475F 
 10566      52494748 
 10566      5400
 10567              	.LASF264:
 10568 042e 6C765F74 		.ascii	"lv_txt_ins\000"
 10568      78745F69 
 10568      6E7300
 10569              	.LASF46:
 10570 0439 636F6C6F 		.ascii	"color\000"
 10570      7200
 10571              	.LASF266:
 10572 043f 474E5520 		.ascii	"GNU C11 5.4.1 20160609 (release) [ARM/embedded-5-br"
 10572      43313120 
 10572      352E342E 
 10572      31203230 
 10572      31363036 
 10573 0472 616E6368 		.ascii	"anch revision 237715] -mcpu=cortex-m3 -mthumb -g -O"
 10573      20726576 
 10573      6973696F 
 10573      6E203233 
 10573      37373135 
 10574 04a5 67202D66 		.ascii	"g -ffunction-sections -ffat-lto-objects\000"
 10574      66756E63 
 10574      74696F6E 
 10574      2D736563 
 10574      74696F6E 
 10575              	.LASF97:
 10576 04cd 6578745F 		.ascii	"ext_size\000"
 10576      73697A65 
 10576      00
 10577              	.LASF166:
 10578 04d6 6C765F6C 		.ascii	"lv_label_ext_t\000"
 10578      6162656C 
 10578      5F657874 
 10578      5F7400
 10579              	.LASF115:
 10580 04e5 4C565F53 		.ascii	"LV_SIGNAL_LONG_PRESS\000"
 10580      49474E41 
 10580      4C5F4C4F 
 10580      4E475F50 
 10580      52455353 
ARM GAS  C:\Users\d3bug\AppData\Local\Temp\cct3SNM7.s 			page 223


 10581              	.LASF62:
 10582 04fa 726F756E 		.ascii	"rounded\000"
 10582      64656400 
 10583              	.LASF254:
 10584 0502 6C765F6D 		.ascii	"lv_mem_realloc\000"
 10584      656D5F72 
 10584      65616C6C 
 10584      6F6300
 10585              	.LASF207:
 10586 0511 7369676E 		.ascii	"sign\000"
 10586      00
 10587              	.LASF87:
 10588 0516 7374796C 		.ascii	"style_p\000"
 10588      655F7000 
 10589              	.LASF47:
 10590 051e 77696474 		.ascii	"width\000"
 10590      6800
 10591              	.LASF161:
 10592 0524 6F666673 		.ascii	"offset\000"
 10592      657400
 10593              	.LASF69:
 10594 052b 6C765F6C 		.ascii	"lv_ll_node_t\000"
 10594      6C5F6E6F 
 10594      64655F74 
 10594      00
 10595              	.LASF199:
 10596 0538 6C657474 		.ascii	"letter\000"
 10596      657200
 10597              	.LASF79:
 10598 053f 5F426F6F 		.ascii	"_Bool\000"
 10598      6C00
 10599              	.LASF144:
 10600 0545 4C565F54 		.ascii	"LV_TXT_CMD_STATE_IN\000"
 10600      58545F43 
 10600      4D445F53 
 10600      54415445 
 10600      5F494E00 
 10601              	.LASF256:
 10602 0559 6C765F6D 		.ascii	"lv_mem_get_size\000"
 10602      656D5F67 
 10602      65745F73 
 10602      697A6500 
 10603              	.LASF80:
 10604 0569 5F6C765F 		.ascii	"_lv_font_struct\000"
 10604      666F6E74 
 10604      5F737472 
 10604      75637400 
 10605              	.LASF181:
 10606 0579 6C765F6C 		.ascii	"lv_label_set_align\000"
 10606      6162656C 
 10606      5F736574 
 10606      5F616C69 
 10606      676E00
 10607              	.LASF269:
 10608 058c 6C765F6C 		.ascii	"lv_label_set_style\000"
 10608      6162656C 
 10608      5F736574 
ARM GAS  C:\Users\d3bug\AppData\Local\Temp\cct3SNM7.s 			page 224


 10608      5F737479 
 10608      6C6500
 10609              	.LASF60:
 10610 059f 6C696E65 		.ascii	"line_space\000"
 10610      5F737061 
 10610      636500
 10611              	.LASF145:
 10612 05aa 6C765F74 		.ascii	"lv_txt_cmd_state_t\000"
 10612      78745F63 
 10612      6D645F73 
 10612      74617465 
 10612      5F7400
 10613              	.LASF169:
 10614 05bd 666F6E74 		.ascii	"font_p\000"
 10614      5F7000
 10615              	.LASF224:
 10616 05c4 6C765F6C 		.ascii	"lv_label_cut_text\000"
 10616      6162656C 
 10616      5F637574 
 10616      5F746578 
 10616      7400
 10617              	.LASF154:
 10618 05d6 4C565F4C 		.ascii	"LV_LABEL_ALIGN_CENTER\000"
 10618      4142454C 
 10618      5F414C49 
 10618      474E5F43 
 10618      454E5445 
 10619              	.LASF219:
 10620 05ec 6C765F6C 		.ascii	"lv_label_set_anim_speed\000"
 10620      6162656C 
 10620      5F736574 
 10620      5F616E69 
 10620      6D5F7370 
 10621              	.LASF148:
 10622 0604 4C565F4C 		.ascii	"LV_LABEL_LONG_SCROLL\000"
 10622      4142454C 
 10622      5F4C4F4E 
 10622      475F5343 
 10622      524F4C4C 
 10623              	.LASF120:
 10624 0619 4C565F53 		.ascii	"LV_SIGNAL_DEFOCUS\000"
 10624      49474E41 
 10624      4C5F4445 
 10624      464F4355 
 10624      5300
 10625              	.LASF186:
 10626 062b 6C765F6C 		.ascii	"lv_label_get_recolor\000"
 10626      6162656C 
 10626      5F676574 
 10626      5F726563 
 10626      6F6C6F72 
 10627              	.LASF25:
 10628 0640 63686172 		.ascii	"char\000"
 10628      00
 10629              	.LASF237:
 10630 0645 6C765F6F 		.ascii	"lv_obj_get_width\000"
 10630      626A5F67 
ARM GAS  C:\Users\d3bug\AppData\Local\Temp\cct3SNM7.s 			page 225


 10630      65745F77 
 10630      69647468 
 10630      00
 10631              	.LASF268:
 10632 0656 433A5C55 		.ascii	"C:\\Users\\d3bug\\Documents\\Creator\\lvgl_ssd1306\\"
 10632      73657273 
 10632      5C643362 
 10632      75675C44 
 10632      6F63756D 
 10633 0684 68656C6C 		.ascii	"hello_world_label.cydsn\000"
 10633      6F5F776F 
 10633      726C645F 
 10633      6C616265 
 10633      6C2E6379 
 10634              	.LASF121:
 10635 069c 4C565F53 		.ascii	"LV_SIGNAL_CONTROLL\000"
 10635      49474E41 
 10635      4C5F434F 
 10635      4E54524F 
 10635      4C4C00
 10636              	.LASF102:
 10637 06af 6C765F72 		.ascii	"lv_res_t\000"
 10637      65735F74 
 10637      00
 10638              	.LASF65:
 10639 06b8 74657874 		.ascii	"text\000"
 10639      00
 10640              	.LASF263:
 10641 06bd 6C765F6F 		.ascii	"lv_obj_set_click\000"
 10641      626A5F73 
 10641      65745F63 
 10641      6C69636B 
 10641      00
 10642              	.LASF31:
 10643 06ce 6C765F66 		.ascii	"lv_font_glyph_dsc_t\000"
 10643      6F6E745F 
 10643      676C7970 
 10643      685F6473 
 10643      635F7400 
 10644              	.LASF21:
 10645 06e2 6C765F63 		.ascii	"lv_color1_t\000"
 10645      6F6C6F72 
 10645      315F7400 
 10646              	.LASF109:
 10647 06ee 4C565F53 		.ascii	"LV_SIGNAL_GET_TYPE\000"
 10647      49474E41 
 10647      4C5F4745 
 10647      545F5459 
 10647      504500
 10648              	.LASF14:
 10649 0701 75696E74 		.ascii	"uint8_t\000"
 10649      385F7400 
 10650              	.LASF210:
 10651 0709 6C765F6C 		.ascii	"lv_label_set_array_text\000"
 10651      6162656C 
 10651      5F736574 
 10651      5F617272 
ARM GAS  C:\Users\d3bug\AppData\Local\Temp\cct3SNM7.s 			page 226


 10651      61795F74 
 10652              	.LASF104:
 10653 0721 4C565F53 		.ascii	"LV_SIGNAL_CHILD_CHG\000"
 10653      49474E41 
 10653      4C5F4348 
 10653      494C445F 
 10653      43484700 
 10654              	.LASF244:
 10655 0735 6C765F74 		.ascii	"lv_txt_is_cmd\000"
 10655      78745F69 
 10655      735F636D 
 10655      6400
 10656              	.LASF229:
 10657 0743 6C765F74 		.ascii	"lv_txt_encoded_get_byte_id\000"
 10657      78745F65 
 10657      6E636F64 
 10657      65645F67 
 10657      65745F62 
 10658              	.LASF230:
 10659 075e 6C765F65 		.ascii	"lv_encoded_get_char_id\000"
 10659      6E636F64 
 10659      65645F67 
 10659      65745F63 
 10659      6861725F 
 10660              	.LASF157:
 10661 0775 6C6F6E67 		.ascii	"long_mode\000"
 10661      5F6D6F64 
 10661      6500
 10662              	.LASF45:
 10663 077f 6C765F73 		.ascii	"lv_shadow_type_t\000"
 10663      6861646F 
 10663      775F7479 
 10663      70655F74 
 10663      00
 10664              	.LASF147:
 10665 0790 4C565F4C 		.ascii	"LV_LABEL_LONG_BREAK\000"
 10665      4142454C 
 10665      5F4C4F4E 
 10665      475F4252 
 10665      45414B00 
 10666              	.LASF1:
 10667 07a4 6C6F6E67 		.ascii	"long long int\000"
 10667      206C6F6E 
 10667      6720696E 
 10667      7400
 10668              	.LASF63:
 10669 07b2 676C6173 		.ascii	"glass\000"
 10669      7300
 10670              	.LASF195:
 10671 07b8 6C765F6C 		.ascii	"lv_label_get_letter_on\000"
 10671      6162656C 
 10671      5F676574 
 10671      5F6C6574 
 10671      7465725F 
 10672              	.LASF73:
 10673 07cf 6C765F6C 		.ascii	"lv_ll_t\000"
 10673      6C5F7400 
ARM GAS  C:\Users\d3bug\AppData\Local\Temp\cct3SNM7.s 			page 227


 10674              	.LASF78:
 10675 07d7 6C765F64 		.ascii	"lv_design_func_t\000"
 10675      65736967 
 10675      6E5F6675 
 10675      6E635F74 
 10675      00
 10676              	.LASF119:
 10677 07e8 4C565F53 		.ascii	"LV_SIGNAL_FOCUS\000"
 10677      49474E41 
 10677      4C5F464F 
 10677      43555300 
 10678              	.LASF56:
 10679 07f8 70616464 		.ascii	"padding\000"
 10679      696E6700 
 10680              	.LASF126:
 10681 0800 6C765F61 		.ascii	"lv_align_t\000"
 10681      6C69676E 
 10681      5F7400
 10682              	.LASF255:
 10683 080b 6C765F6F 		.ascii	"lv_obj_set_style\000"
 10683      626A5F73 
 10683      65745F73 
 10683      74796C65 
 10683      00
 10684              	.LASF101:
 10685 081c 4C565F52 		.ascii	"LV_RES_OK\000"
 10685      45535F4F 
 10685      4B00
 10686              	.LASF168:
 10687 0826 6C765F61 		.ascii	"lv_area_get_width\000"
 10687      7265615F 
 10687      6765745F 
 10687      77696474 
 10687      6800
 10688              	.LASF128:
 10689 0838 786F6673 		.ascii	"xofs\000"
 10689      00
 10690              	.LASF6:
 10691 083d 5F5F696E 		.ascii	"__int16_t\000"
 10691      7431365F 
 10691      7400
 10692              	.LASF162:
 10693 0847 73746174 		.ascii	"static_txt\000"
 10693      69635F74 
 10693      787400
 10694              	.LASF231:
 10695 0852 6C765F74 		.ascii	"lv_txt_get_encoded_length\000"
 10695      78745F67 
 10695      65745F65 
 10695      6E636F64 
 10695      65645F6C 
 10696              	.LASF132:
 10697 086c 6F726967 		.ascii	"origo_align\000"
 10697      6F5F616C 
 10697      69676E00 
 10698              	.LASF160:
 10699 0878 616E696D 		.ascii	"anim_speed\000"
ARM GAS  C:\Users\d3bug\AppData\Local\Temp\cct3SNM7.s 			page 228


 10699      5F737065 
 10699      656400
 10700              	.LASF180:
 10701 0883 73697A65 		.ascii	"size\000"
 10701      00
 10702              	.LASF130:
 10703 0888 616C6967 		.ascii	"align\000"
 10703      6E00
 10704              	.LASF34:
 10705 088e 676C7970 		.ascii	"glyph_bitmap\000"
 10705      685F6269 
 10705      746D6170 
 10705      00
 10706              	.LASF208:
 10707 089b 70617261 		.ascii	"param\000"
 10707      6D00
 10708              	.LASF143:
 10709 08a1 4C565F54 		.ascii	"LV_TXT_CMD_STATE_PAR\000"
 10709      58545F43 
 10709      4D445F53 
 10709      54415445 
 10709      5F504152 
 10710              	.LASF164:
 10711 08b6 65787061 		.ascii	"expand\000"
 10711      6E6400
 10712              	.LASF66:
 10713 08bd 696D6167 		.ascii	"image\000"
 10713      6500
 10714              	.LASF95:
 10715 08c3 70726F74 		.ascii	"protect\000"
 10715      65637400 
 10716              	.LASF177:
 10717 08cb 6D61736B 		.ascii	"mask\000"
 10717      00
 10718              	.LASF240:
 10719 08d0 6C765F6F 		.ascii	"lv_obj_invalidate\000"
 10719      626A5F69 
 10719      6E76616C 
 10719      69646174 
 10719      6500
 10720              	.LASF123:
 10721 08e2 4C565F53 		.ascii	"LV_SIGNAL_GET_EDITABLE\000"
 10721      49474E41 
 10721      4C5F4745 
 10721      545F4544 
 10721      49544142 
 10722              	.LASF234:
 10723 08f9 6C765F6F 		.ascii	"lv_obj_get_opa_scale\000"
 10723      626A5F67 
 10723      65745F6F 
 10723      70615F73 
 10723      63616C65 
 10724              	.LASF22:
 10725 090e 6C765F63 		.ascii	"lv_color_t\000"
 10725      6F6C6F72 
 10725      5F7400
 10726              	.LASF204:
ARM GAS  C:\Users\d3bug\AppData\Local\Temp\cct3SNM7.s 			page 229


 10727 0919 62797465 		.ascii	"byte_id_ori\000"
 10727      5F69645F 
 10727      6F726900 
 10728              	.LASF175:
 10729 0925 6C657474 		.ascii	"letter_i\000"
 10729      65725F69 
 10729      00
 10730              	.LASF211:
 10731 092e 61727261 		.ascii	"array\000"
 10731      7900
 10732              	.LASF170:
 10733 0934 61726561 		.ascii	"area_p\000"
 10733      5F7000
 10734              	.LASF19:
 10735 093b 67726565 		.ascii	"green\000"
 10735      6E00
 10736              	.LASF2:
 10737 0941 6C6F6E67 		.ascii	"long double\000"
 10737      20646F75 
 10737      626C6500 
 10738              	.LASF206:
 10739 094d 6C765F6C 		.ascii	"lv_label_signal\000"
 10739      6162656C 
 10739      5F736967 
 10739      6E616C00 
 10740              	.LASF16:
 10741 095d 75696E74 		.ascii	"uint16_t\000"
 10741      31365F74 
 10741      00
 10742              	.LASF267:
 10743 0966 2E2E5C6C 		.ascii	"..\\lvgl\\lv_objx\\lv_label.c\000"
 10743      76676C5C 
 10743      6C765F6F 
 10743      626A785C 
 10743      6C765F6C 
 10744              	.LASF188:
 10745 0981 6C765F6C 		.ascii	"lv_label_get_anim_speed\000"
 10745      6162656C 
 10745      5F676574 
 10745      5F616E69 
 10745      6D5F7370 
 10746              	.LASF213:
 10747 0999 6C765F6C 		.ascii	"lv_label_set_long_mode\000"
 10747      6162656C 
 10747      5F736574 
 10747      5F6C6F6E 
 10747      675F6D6F 
 10748              	.LASF52:
 10749 09b0 67726164 		.ascii	"grad_color\000"
 10749      5F636F6C 
 10749      6F7200
 10750              	.LASF262:
 10751 09bb 6C765F6F 		.ascii	"lv_obj_set_signal_func\000"
 10751      626A5F73 
 10751      65745F73 
 10751      69676E61 
 10751      6C5F6675 
ARM GAS  C:\Users\d3bug\AppData\Local\Temp\cct3SNM7.s 			page 230


 10752              	.LASF200:
 10753 09d2 6C765F6C 		.ascii	"lv_label_revert_dots\000"
 10753      6162656C 
 10753      5F726576 
 10753      6572745F 
 10753      646F7473 
 10754              	.LASF252:
 10755 09e7 6C765F6C 		.ascii	"lv_log_add\000"
 10755      6F675F61 
 10755      646400
 10756              	.LASF235:
 10757 09f2 6C765F64 		.ascii	"lv_draw_rect\000"
 10757      7261775F 
 10757      72656374 
 10757      00
 10758              	.LASF43:
 10759 09ff 6C765F66 		.ascii	"lv_font_t\000"
 10759      6F6E745F 
 10759      7400
 10760              	.LASF59:
 10761 0a09 6C657474 		.ascii	"letter_space\000"
 10761      65725F73 
 10761      70616365 
 10761      00
 10762              	.LASF110:
 10763 0a16 5F4C565F 		.ascii	"_LV_SIGNAL_FEEDBACK_SECTION_START\000"
 10763      5349474E 
 10763      414C5F46 
 10763      45454442 
 10763      41434B5F 
 10764              	.LASF51:
 10765 0a38 6D61696E 		.ascii	"main_color\000"
 10765      5F636F6C 
 10765      6F7200
 10766              	.LASF75:
 10767 0a43 4C565F44 		.ascii	"LV_DESIGN_DRAW_POST\000"
 10767      45534947 
 10767      4E5F4452 
 10767      41575F50 
 10767      4F535400 
 10768              	.LASF7:
 10769 0a57 73686F72 		.ascii	"short int\000"
 10769      7420696E 
 10769      7400
 10770              	.LASF191:
 10771 0a61 6C696E65 		.ascii	"line_start\000"
 10771      5F737461 
 10771      727400
 10772              	.LASF83:
 10773 0a6c 636F6F72 		.ascii	"coords\000"
 10773      647300
 10774              	.LASF114:
 10775 0a73 4C565F53 		.ascii	"LV_SIGNAL_RELEASED\000"
 10775      49474E41 
 10775      4C5F5245 
 10775      4C454153 
 10775      454400
ARM GAS  C:\Users\d3bug\AppData\Local\Temp\cct3SNM7.s 			page 231


 10776              	.LASF153:
 10777 0a86 4C565F4C 		.ascii	"LV_LABEL_ALIGN_LEFT\000"
 10777      4142454C 
 10777      5F414C49 
 10777      474E5F4C 
 10777      45465400 
 10778              	.LASF23:
 10779 0a9a 6C765F6F 		.ascii	"lv_opa_t\000"
 10779      70615F74 
 10779      00
 10780              	.LASF10:
 10781 0aa3 6C6F6E67 		.ascii	"long int\000"
 10781      20696E74 
 10781      00
 10782              	.LASF227:
 10783 0aac 6C765F74 		.ascii	"lv_txt_encoded_size\000"
 10783      78745F65 
 10783      6E636F64 
 10783      65645F73 
 10783      697A6500 
 10784              	.LASF241:
 10785 0ac0 6C765F6F 		.ascii	"lv_obj_refresh_ext_size\000"
 10785      626A5F72 
 10785      65667265 
 10785      73685F65 
 10785      78745F73 
 10786              	.LASF257:
 10787 0ad8 6C765F6F 		.ascii	"lv_obj_refresh_style\000"
 10787      626A5F72 
 10787      65667265 
 10787      73685F73 
 10787      74796C65 
 10788              	.LASF117:
 10789 0aed 4C565F53 		.ascii	"LV_SIGNAL_DRAG_BEGIN\000"
 10789      49474E41 
 10789      4C5F4452 
 10789      41475F42 
 10789      4547494E 
 10790              	.LASF215:
 10791 0b02 6C765F6C 		.ascii	"lv_label_create\000"
 10791      6162656C 
 10791      5F637265 
 10791      61746500 
 10792              	.LASF40:
 10793 0b12 685F7078 		.ascii	"h_px\000"
 10793      00
 10794              	.LASF179:
 10795 0b17 666C6167 		.ascii	"flag\000"
 10795      00
 10796              	.LASF18:
 10797 0b1c 626C7565 		.ascii	"blue\000"
 10797      00
 10798              	.LASF74:
 10799 0b21 4C565F44 		.ascii	"LV_DESIGN_DRAW_MAIN\000"
 10799      45534947 
 10799      4E5F4452 
 10799      41575F4D 
ARM GAS  C:\Users\d3bug\AppData\Local\Temp\cct3SNM7.s 			page 232


 10799      41494E00 
 10800              	.LASF103:
 10801 0b35 4C565F53 		.ascii	"LV_SIGNAL_CLEANUP\000"
 10801      49474E41 
 10801      4C5F434C 
 10801      45414E55 
 10801      5000
 10802              	.LASF26:
 10803 0b47 6C765F63 		.ascii	"lv_coord_t\000"
 10803      6F6F7264 
 10803      5F7400
 10804              	.LASF94:
 10805 0b52 6F70615F 		.ascii	"opa_scale_en\000"
 10805      7363616C 
 10805      655F656E 
 10805      00
 10806              	.LASF61:
 10807 0b5f 696E7465 		.ascii	"intense\000"
 10807      6E736500 
 10808              	.LASF245:
 10809 0b67 6C765F66 		.ascii	"lv_font_get_width\000"
 10809      6F6E745F 
 10809      6765745F 
 10809      77696474 
 10809      6800
 10810              	.LASF5:
 10811 0b79 5F5F7569 		.ascii	"__uint8_t\000"
 10811      6E74385F 
 10811      7400
 10812              	.LASF58:
 10813 0b83 666F6E74 		.ascii	"font\000"
 10813      00
 10814              	.LASF156:
 10815 0b88 6C765F6C 		.ascii	"lv_label_align_t\000"
 10815      6162656C 
 10815      5F616C69 
 10815      676E5F74 
 10815      00
 10816              	.LASF24:
 10817 0b99 73697A65 		.ascii	"sizetype\000"
 10817      74797065 
 10817      00
 10818              	.LASF12:
 10819 0ba2 6C6F6E67 		.ascii	"long unsigned int\000"
 10819      20756E73 
 10819      69676E65 
 10819      6420696E 
 10819      7400
 10820              	.LASF57:
 10821 0bb4 656D7074 		.ascii	"empty\000"
 10821      7900
 10822              	.LASF41:
 10823 0bba 6D6F6E6F 		.ascii	"monospace\000"
 10823      73706163 
 10823      6500
 10824              	.LASF142:
 10825 0bc4 4C565F54 		.ascii	"LV_TXT_CMD_STATE_WAIT\000"
ARM GAS  C:\Users\d3bug\AppData\Local\Temp\cct3SNM7.s 			page 233


 10825      58545F43 
 10825      4D445F53 
 10825      54415445 
 10825      5F574149 
 10826              	.LASF30:
 10827 0bda 676C7970 		.ascii	"glyph_index\000"
 10827      685F696E 
 10827      64657800 
 10828              	.LASF118:
 10829 0be6 4C565F53 		.ascii	"LV_SIGNAL_DRAG_END\000"
 10829      49474E41 
 10829      4C5F4452 
 10829      41475F45 
 10829      4E4400
 10830              	.LASF184:
 10831 0bf9 6C765F6C 		.ascii	"lv_label_get_long_mode\000"
 10831      6162656C 
 10831      5F676574 
 10831      5F6C6F6E 
 10831      675F6D6F 
 10832              	.LASF53:
 10833 0c10 72616469 		.ascii	"radius\000"
 10833      757300
 10834              	.LASF96:
 10835 0c17 6F70615F 		.ascii	"opa_scale\000"
 10835      7363616C 
 10835      6500
 10836              	.LASF64:
 10837 0c21 626F6479 		.ascii	"body\000"
 10837      00
 10838              	.LASF124:
 10839 0c26 6C765F73 		.ascii	"lv_signal_t\000"
 10839      69676E61 
 10839      6C5F7400 
 10840              	.LASF223:
 10841 0c32 6E65775F 		.ascii	"new_len\000"
 10841      6C656E00 
 10842              	.LASF49:
 10843 0c3a 74797065 		.ascii	"type\000"
 10843      00
 10844              	.LASF218:
 10845 0c3f 636F7079 		.ascii	"copy_ext\000"
 10845      5F657874 
 10845      00
 10846              	.LASF4:
 10847 0c48 756E7369 		.ascii	"unsigned char\000"
 10847      676E6564 
 10847      20636861 
 10847      7200
 10848              	.LASF76:
 10849 0c56 4C565F44 		.ascii	"LV_DESIGN_COVER_CHK\000"
 10849      45534947 
 10849      4E5F434F 
 10849      5645525F 
 10849      43484B00 
 10850              	.LASF11:
 10851 0c6a 5F5F7569 		.ascii	"__uint32_t\000"
ARM GAS  C:\Users\d3bug\AppData\Local\Temp\cct3SNM7.s 			page 234


 10851      6E743332 
 10851      5F7400
 10852              	.LASF67:
 10853 0c75 6C696E65 		.ascii	"line\000"
 10853      00
 10854              	.LASF259:
 10855 0c7a 6C765F6F 		.ascii	"lv_obj_get_signal_func\000"
 10855      626A5F67 
 10855      65745F73 
 10855      69676E61 
 10855      6C5F6675 
 10856              	.LASF72:
 10857 0c91 7461696C 		.ascii	"tail\000"
 10857      00
 10858              	.LASF261:
 10859 0c96 6C765F6F 		.ascii	"lv_obj_set_design_func\000"
 10859      626A5F73 
 10859      65745F64 
 10859      65736967 
 10859      6E5F6675 
 10860              	.LASF253:
 10861 0cad 73747263 		.ascii	"strcpy\000"
 10861      707900
 10862              	.LASF202:
 10863 0cb4 6C657474 		.ascii	"letter_id\000"
 10863      65725F69 
 10863      6400
 10864              	.LASF82:
 10865 0cbe 6368696C 		.ascii	"child_ll\000"
 10865      645F6C6C 
 10865      00
 10866              	.LASF92:
 10867 0cc7 64726167 		.ascii	"drag_parent\000"
 10867      5F706172 
 10867      656E7400 
 10868              	.LASF131:
 10869 0cd3 6175746F 		.ascii	"auto_realign\000"
 10869      5F726561 
 10869      6C69676E 
 10869      00
 10870              	.LASF77:
 10871 0ce0 6C765F64 		.ascii	"lv_design_mode_t\000"
 10871      65736967 
 10871      6E5F6D6F 
 10871      64655F74 
 10871      00
 10872              	.LASF173:
 10873 0cf1 6C616265 		.ascii	"label\000"
 10873      6C00
 10874              	.LASF248:
 10875 0cf7 6C765F6F 		.ascii	"lv_obj_set_height\000"
 10875      626A5F73 
 10875      65745F68 
 10875      65696768 
 10875      7400
 10876              	.LASF151:
 10877 0d09 4C565F4C 		.ascii	"LV_LABEL_LONG_CROP\000"
ARM GAS  C:\Users\d3bug\AppData\Local\Temp\cct3SNM7.s 			page 235


 10877      4142454C 
 10877      5F4C4F4E 
 10877      475F4352 
 10877      4F5000
 10878              	.LASF38:
 10879 0d1c 6765745F 		.ascii	"get_width\000"
 10879      77696474 
 10879      6800
 10880              	.LASF222:
 10881 0d26 696E735F 		.ascii	"ins_len\000"
 10881      6C656E00 
 10882              	.LASF203:
 10883 0d2e 62797465 		.ascii	"byte_id\000"
 10883      5F696400 
 10884              	.LASF182:
 10885 0d36 6C765F6C 		.ascii	"lv_label_set_body_draw\000"
 10885      6162656C 
 10885      5F736574 
 10885      5F626F64 
 10885      795F6472 
 10886              	.LASF116:
 10887 0d4d 4C565F53 		.ascii	"LV_SIGNAL_LONG_PRESS_REP\000"
 10887      49474E41 
 10887      4C5F4C4F 
 10887      4E475F50 
 10887      52455353 
 10888              	.LASF55:
 10889 0d66 73686164 		.ascii	"shadow\000"
 10889      6F7700
 10890              	.LASF28:
 10891 0d6d 6C765F61 		.ascii	"lv_area_t\000"
 10891      7265615F 
 10891      7400
 10892              	.LASF249:
 10893 0d77 6C765F6D 		.ascii	"lv_mem_free\000"
 10893      656D5F66 
 10893      72656500 
 10894              	.LASF3:
 10895 0d83 7369676E 		.ascii	"signed char\000"
 10895      65642063 
 10895      68617200 
 10896              	.LASF108:
 10897 0d8f 4C565F53 		.ascii	"LV_SIGNAL_LANG_CHG\000"
 10897      49474E41 
 10897      4C5F4C41 
 10897      4E475F43 
 10897      484700
 10898              	.LASF93:
 10899 0da2 68696464 		.ascii	"hidden\000"
 10899      656E00
 10900              	.LASF141:
 10901 0da9 6C765F74 		.ascii	"lv_txt_flag_t\000"
 10901      78745F66 
 10901      6C61675F 
 10901      7400
 10902              	.LASF9:
 10903 0db7 73686F72 		.ascii	"short unsigned int\000"
ARM GAS  C:\Users\d3bug\AppData\Local\Temp\cct3SNM7.s 			page 236


 10903      7420756E 
 10903      7369676E 
 10903      65642069 
 10903      6E7400
 10904              	.LASF172:
 10905 0dca 6C765F6C 		.ascii	"lv_label_get_style\000"
 10905      6162656C 
 10905      5F676574 
 10905      5F737479 
 10905      6C6500
 10906              	.LASF133:
 10907 0ddd 6C765F72 		.ascii	"lv_reailgn_t\000"
 10907      6561696C 
 10907      676E5F74 
 10907      00
 10908              	.LASF270:
 10909 0dea 6D656D63 		.ascii	"memcpy\000"
 10909      707900
 10910              	.LASF165:
 10911 0df1 626F6479 		.ascii	"body_draw\000"
 10911      5F647261 
 10911      7700
 10912              	.LASF105:
 10913 0dfb 4C565F53 		.ascii	"LV_SIGNAL_CORD_CHG\000"
 10913      49474E41 
 10913      4C5F434F 
 10913      52445F43 
 10913      484700
 10914              	.LASF136:
 10915 0e0e 4C565F54 		.ascii	"LV_TXT_FLAG_NONE\000"
 10915      58545F46 
 10915      4C41475F 
 10915      4E4F4E45 
 10915      00
 10916              	.LASF138:
 10917 0e1f 4C565F54 		.ascii	"LV_TXT_FLAG_EXPAND\000"
 10917      58545F46 
 10917      4C41475F 
 10917      45585041 
 10917      4E4400
 10918              	.LASF163:
 10919 0e32 7265636F 		.ascii	"recolor\000"
 10919      6C6F7200 
 10920              	.LASF247:
 10921 0e3a 6C765F6F 		.ascii	"lv_obj_set_size\000"
 10921      626A5F73 
 10921      65745F73 
 10921      697A6500 
 10922              	.LASF176:
 10923 0e4a 62797465 		.ascii	"byte_i\000"
 10923      5F6900
 10924              	.LASF90:
 10925 0e51 64726167 		.ascii	"drag\000"
 10925      00
 10926              	.LASF35:
 10927 0e56 676C7970 		.ascii	"glyph_dsc\000"
 10927      685F6473 
ARM GAS  C:\Users\d3bug\AppData\Local\Temp\cct3SNM7.s 			page 237


 10927      6300
 10928              	.LASF183:
 10929 0e60 6C765F6C 		.ascii	"lv_label_get_text\000"
 10929      6162656C 
 10929      5F676574 
 10929      5F746578 
 10929      7400
 10930              	.LASF238:
 10931 0e72 6C765F6F 		.ascii	"lv_obj_get_style\000"
 10931      626A5F67 
 10931      65745F73 
 10931      74796C65 
 10931      00
 10932              	.LASF32:
 10933 0e83 756E6963 		.ascii	"unicode_first\000"
 10933      6F64655F 
 10933      66697273 
 10933      7400
 10934              	.LASF44:
 10935 0e91 6C765F62 		.ascii	"lv_border_part_t\000"
 10935      6F726465 
 10935      725F7061 
 10935      72745F74 
 10935      00
 10936              	.LASF33:
 10937 0ea2 756E6963 		.ascii	"unicode_last\000"
 10937      6F64655F 
 10937      6C617374 
 10937      00
 10938              	.LASF152:
 10939 0eaf 6C765F6C 		.ascii	"lv_label_long_mode_t\000"
 10939      6162656C 
 10939      5F6C6F6E 
 10939      675F6D6F 
 10939      64655F74 
 10940              	.LASF100:
 10941 0ec4 4C565F52 		.ascii	"LV_RES_INV\000"
 10941      45535F49 
 10941      4E5600
 10942              	.LASF193:
 10943 0ecf 6D61785F 		.ascii	"max_w\000"
 10943      7700
 10944              	.LASF111:
 10945 0ed5 4C565F53 		.ascii	"LV_SIGNAL_PRESSED\000"
 10945      49474E41 
 10945      4C5F5052 
 10945      45535345 
 10945      4400
 10946              	.LASF265:
 10947 0ee7 6C765F74 		.ascii	"lv_txt_cut\000"
 10947      78745F63 
 10947      757400
 10948              	.LASF185:
 10949 0ef2 6C765F6C 		.ascii	"lv_label_get_align\000"
 10949      6162656C 
 10949      5F676574 
 10949      5F616C69 
ARM GAS  C:\Users\d3bug\AppData\Local\Temp\cct3SNM7.s 			page 238


 10949      676E00
 10950              	.LASF192:
 10951 0f05 6E65775F 		.ascii	"new_line_start\000"
 10951      6C696E65 
 10951      5F737461 
 10951      727400
 10952              	.LASF226:
 10953 0f14 616E6365 		.ascii	"ancestor_signal\000"
 10953      73746F72 
 10953      5F736967 
 10953      6E616C00 
 10954              		.ident	"GCC: (GNU Tools for ARM Embedded Processors) 5.4.1 20160609 (release) [ARM/embedded-5-bran
