ARM GAS  C:\Users\d3bug\AppData\Local\Temp\cc2ZLKFo.s 			page 1


   1              		.syntax unified
   2              		.cpu cortex-m3
   3              		.fpu softvfp
   4              		.eabi_attribute 20, 1
   5              		.eabi_attribute 21, 1
   6              		.eabi_attribute 23, 3
   7              		.eabi_attribute 24, 1
   8              		.eabi_attribute 25, 1
   9              		.eabi_attribute 26, 1
  10              		.eabi_attribute 30, 1
  11              		.eabi_attribute 34, 1
  12              		.eabi_attribute 18, 4
  13              		.thumb
  14              		.syntax unified
  15              		.file	"lv_mem.c"
  16              		.text
  17              	.Ltext0:
  18              		.cfi_sections	.debug_frame
  19              		.section	.text.ent_get_next,"ax",%progbits
  20              		.align	2
  21              		.thumb
  22              		.thumb_func
  23              		.type	ent_get_next, %function
  24              	ent_get_next:
  25              	.LFB7:
  26              		.file 1 "..\\lvgl\\lv_misc\\lv_mem.c"
   1:..\lvgl\lv_misc/lv_mem.c **** /**
   2:..\lvgl\lv_misc/lv_mem.c ****  * @file lv_mem.c
   3:..\lvgl\lv_misc/lv_mem.c ****  * General and portable implementation of malloc and free.
   4:..\lvgl\lv_misc/lv_mem.c ****  * The dynamic memory monitoring is also supported.
   5:..\lvgl\lv_misc/lv_mem.c ****  */
   6:..\lvgl\lv_misc/lv_mem.c **** 
   7:..\lvgl\lv_misc/lv_mem.c **** /*********************
   8:..\lvgl\lv_misc/lv_mem.c ****  *      INCLUDES
   9:..\lvgl\lv_misc/lv_mem.c ****  *********************/
  10:..\lvgl\lv_misc/lv_mem.c **** #include "lv_mem.h"
  11:..\lvgl\lv_misc/lv_mem.c **** #include "lv_math.h"
  12:..\lvgl\lv_misc/lv_mem.c **** #include <string.h>
  13:..\lvgl\lv_misc/lv_mem.c **** 
  14:..\lvgl\lv_misc/lv_mem.c **** #if LV_MEM_CUSTOM != 0
  15:..\lvgl\lv_misc/lv_mem.c **** #include LV_MEM_CUSTOM_INCLUDE
  16:..\lvgl\lv_misc/lv_mem.c **** #endif
  17:..\lvgl\lv_misc/lv_mem.c **** 
  18:..\lvgl\lv_misc/lv_mem.c **** /*********************
  19:..\lvgl\lv_misc/lv_mem.c ****  *      DEFINES
  20:..\lvgl\lv_misc/lv_mem.c ****  *********************/
  21:..\lvgl\lv_misc/lv_mem.c **** #define LV_MEM_ADD_JUNK     0   /*Add memory junk on alloc (0xaa) and free(0xbb) (just for testing 
  22:..\lvgl\lv_misc/lv_mem.c **** 
  23:..\lvgl\lv_misc/lv_mem.c **** 
  24:..\lvgl\lv_misc/lv_mem.c **** #ifdef LV_MEM_ENV64
  25:..\lvgl\lv_misc/lv_mem.c **** # define MEM_UNIT uint64_t
  26:..\lvgl\lv_misc/lv_mem.c **** #else
  27:..\lvgl\lv_misc/lv_mem.c **** # define MEM_UNIT uint32_t
  28:..\lvgl\lv_misc/lv_mem.c **** #endif
  29:..\lvgl\lv_misc/lv_mem.c **** 
  30:..\lvgl\lv_misc/lv_mem.c **** 
  31:..\lvgl\lv_misc/lv_mem.c **** /**********************
ARM GAS  C:\Users\d3bug\AppData\Local\Temp\cc2ZLKFo.s 			page 2


  32:..\lvgl\lv_misc/lv_mem.c ****  *      TYPEDEFS
  33:..\lvgl\lv_misc/lv_mem.c ****  **********************/
  34:..\lvgl\lv_misc/lv_mem.c **** 
  35:..\lvgl\lv_misc/lv_mem.c **** #if LV_ENABLE_GC == 0 /*gc custom allocations must not include header*/
  36:..\lvgl\lv_misc/lv_mem.c **** 
  37:..\lvgl\lv_misc/lv_mem.c **** /*The size of this union must be 4 bytes (uint32_t)*/
  38:..\lvgl\lv_misc/lv_mem.c **** typedef union {
  39:..\lvgl\lv_misc/lv_mem.c ****     struct {
  40:..\lvgl\lv_misc/lv_mem.c ****         MEM_UNIT used: 1;       //1: if the entry is used
  41:..\lvgl\lv_misc/lv_mem.c ****         MEM_UNIT d_size: 31;    //Size off the data (1 means 4 bytes)
  42:..\lvgl\lv_misc/lv_mem.c ****     };
  43:..\lvgl\lv_misc/lv_mem.c ****     MEM_UNIT header;            //The header (used + d_size)
  44:..\lvgl\lv_misc/lv_mem.c **** } lv_mem_header_t;
  45:..\lvgl\lv_misc/lv_mem.c **** 
  46:..\lvgl\lv_misc/lv_mem.c **** typedef struct {
  47:..\lvgl\lv_misc/lv_mem.c ****     lv_mem_header_t header;
  48:..\lvgl\lv_misc/lv_mem.c ****     uint8_t first_data;        /*First data byte in the allocated data (Just for easily create a po
  49:..\lvgl\lv_misc/lv_mem.c **** } lv_mem_ent_t;
  50:..\lvgl\lv_misc/lv_mem.c **** 
  51:..\lvgl\lv_misc/lv_mem.c **** #endif /* LV_ENABLE_GC */
  52:..\lvgl\lv_misc/lv_mem.c **** 
  53:..\lvgl\lv_misc/lv_mem.c **** /**********************
  54:..\lvgl\lv_misc/lv_mem.c ****  *  STATIC PROTOTYPES
  55:..\lvgl\lv_misc/lv_mem.c ****  **********************/
  56:..\lvgl\lv_misc/lv_mem.c **** #if LV_MEM_CUSTOM == 0
  57:..\lvgl\lv_misc/lv_mem.c **** static lv_mem_ent_t  * ent_get_next(lv_mem_ent_t * act_e);
  58:..\lvgl\lv_misc/lv_mem.c **** static void * ent_alloc(lv_mem_ent_t * e, uint32_t size);
  59:..\lvgl\lv_misc/lv_mem.c **** static void ent_trunc(lv_mem_ent_t * e, uint32_t size);
  60:..\lvgl\lv_misc/lv_mem.c **** #endif
  61:..\lvgl\lv_misc/lv_mem.c **** 
  62:..\lvgl\lv_misc/lv_mem.c **** /**********************
  63:..\lvgl\lv_misc/lv_mem.c ****  *  STATIC VARIABLES
  64:..\lvgl\lv_misc/lv_mem.c ****  **********************/
  65:..\lvgl\lv_misc/lv_mem.c **** #if LV_MEM_CUSTOM == 0
  66:..\lvgl\lv_misc/lv_mem.c **** static uint8_t * work_mem;
  67:..\lvgl\lv_misc/lv_mem.c **** #endif
  68:..\lvgl\lv_misc/lv_mem.c **** 
  69:..\lvgl\lv_misc/lv_mem.c **** static uint32_t zero_mem;       /*Give the address of this variable if 0 byte should be allocated*/
  70:..\lvgl\lv_misc/lv_mem.c **** 
  71:..\lvgl\lv_misc/lv_mem.c **** /**********************
  72:..\lvgl\lv_misc/lv_mem.c ****  *      MACROS
  73:..\lvgl\lv_misc/lv_mem.c ****  **********************/
  74:..\lvgl\lv_misc/lv_mem.c **** 
  75:..\lvgl\lv_misc/lv_mem.c **** /**********************
  76:..\lvgl\lv_misc/lv_mem.c ****  *   GLOBAL FUNCTIONS
  77:..\lvgl\lv_misc/lv_mem.c ****  **********************/
  78:..\lvgl\lv_misc/lv_mem.c **** 
  79:..\lvgl\lv_misc/lv_mem.c **** /**
  80:..\lvgl\lv_misc/lv_mem.c ****  * Initiaiize the dyn_mem module (work memory and other variables)
  81:..\lvgl\lv_misc/lv_mem.c ****  */
  82:..\lvgl\lv_misc/lv_mem.c **** void lv_mem_init(void)
  83:..\lvgl\lv_misc/lv_mem.c **** {
  84:..\lvgl\lv_misc/lv_mem.c **** #if LV_MEM_CUSTOM == 0
  85:..\lvgl\lv_misc/lv_mem.c **** 
  86:..\lvgl\lv_misc/lv_mem.c **** #if LV_MEM_ADR == 0
  87:..\lvgl\lv_misc/lv_mem.c ****     /*Allocate a large array to store the dynamically allocated data*/
  88:..\lvgl\lv_misc/lv_mem.c ****     static LV_MEM_ATTR MEM_UNIT work_mem_int[LV_MEM_SIZE / sizeof(MEM_UNIT)];
ARM GAS  C:\Users\d3bug\AppData\Local\Temp\cc2ZLKFo.s 			page 3


  89:..\lvgl\lv_misc/lv_mem.c ****     work_mem = (uint8_t *) work_mem_int;
  90:..\lvgl\lv_misc/lv_mem.c **** #else
  91:..\lvgl\lv_misc/lv_mem.c ****     work_mem = (uint8_t *) LV_MEM_ADR;
  92:..\lvgl\lv_misc/lv_mem.c **** #endif
  93:..\lvgl\lv_misc/lv_mem.c **** 
  94:..\lvgl\lv_misc/lv_mem.c ****     lv_mem_ent_t * full = (lv_mem_ent_t *)work_mem;
  95:..\lvgl\lv_misc/lv_mem.c ****     full->header.used = 0;
  96:..\lvgl\lv_misc/lv_mem.c ****     /*The total mem size id reduced by the first header and the close patterns */
  97:..\lvgl\lv_misc/lv_mem.c ****     full->header.d_size = LV_MEM_SIZE - sizeof(lv_mem_header_t);
  98:..\lvgl\lv_misc/lv_mem.c **** #endif
  99:..\lvgl\lv_misc/lv_mem.c **** }
 100:..\lvgl\lv_misc/lv_mem.c **** 
 101:..\lvgl\lv_misc/lv_mem.c **** /**
 102:..\lvgl\lv_misc/lv_mem.c ****  * Allocate a memory dynamically
 103:..\lvgl\lv_misc/lv_mem.c ****  * @param size size of the memory to allocate in bytes
 104:..\lvgl\lv_misc/lv_mem.c ****  * @return pointer to the allocated memory
 105:..\lvgl\lv_misc/lv_mem.c ****  */
 106:..\lvgl\lv_misc/lv_mem.c **** void * lv_mem_alloc(uint32_t size)
 107:..\lvgl\lv_misc/lv_mem.c **** {
 108:..\lvgl\lv_misc/lv_mem.c ****     if(size == 0) {
 109:..\lvgl\lv_misc/lv_mem.c ****         return &zero_mem;
 110:..\lvgl\lv_misc/lv_mem.c ****     }
 111:..\lvgl\lv_misc/lv_mem.c **** 
 112:..\lvgl\lv_misc/lv_mem.c **** #ifdef LV_MEM_ENV64
 113:..\lvgl\lv_misc/lv_mem.c ****     /*Round the size up to 8*/
 114:..\lvgl\lv_misc/lv_mem.c ****     if(size & 0x7) {
 115:..\lvgl\lv_misc/lv_mem.c ****         size = size & (~0x7);
 116:..\lvgl\lv_misc/lv_mem.c ****         size += 8;
 117:..\lvgl\lv_misc/lv_mem.c ****     }
 118:..\lvgl\lv_misc/lv_mem.c **** #else
 119:..\lvgl\lv_misc/lv_mem.c ****     /*Round the size up to 4*/
 120:..\lvgl\lv_misc/lv_mem.c ****     if(size & 0x3) {
 121:..\lvgl\lv_misc/lv_mem.c ****         size = size & (~0x3);
 122:..\lvgl\lv_misc/lv_mem.c ****         size += 4;
 123:..\lvgl\lv_misc/lv_mem.c ****     }
 124:..\lvgl\lv_misc/lv_mem.c **** #endif
 125:..\lvgl\lv_misc/lv_mem.c ****     void * alloc = NULL;
 126:..\lvgl\lv_misc/lv_mem.c **** 
 127:..\lvgl\lv_misc/lv_mem.c **** #if LV_MEM_CUSTOM == 0 /*Use the allocation from dyn_mem*/
 128:..\lvgl\lv_misc/lv_mem.c ****     lv_mem_ent_t * e = NULL;
 129:..\lvgl\lv_misc/lv_mem.c **** 
 130:..\lvgl\lv_misc/lv_mem.c ****     //Search for a appropriate entry
 131:..\lvgl\lv_misc/lv_mem.c ****     do {
 132:..\lvgl\lv_misc/lv_mem.c ****         //Get the next entry
 133:..\lvgl\lv_misc/lv_mem.c ****         e = ent_get_next(e);
 134:..\lvgl\lv_misc/lv_mem.c **** 
 135:..\lvgl\lv_misc/lv_mem.c ****         /*If there is next entry then try to allocate there*/
 136:..\lvgl\lv_misc/lv_mem.c ****         if(e != NULL) {
 137:..\lvgl\lv_misc/lv_mem.c ****             alloc = ent_alloc(e, size);
 138:..\lvgl\lv_misc/lv_mem.c ****         }
 139:..\lvgl\lv_misc/lv_mem.c ****         //End if there is not next entry OR the alloc. is successful
 140:..\lvgl\lv_misc/lv_mem.c ****     } while(e != NULL && alloc == NULL);
 141:..\lvgl\lv_misc/lv_mem.c **** 
 142:..\lvgl\lv_misc/lv_mem.c **** 
 143:..\lvgl\lv_misc/lv_mem.c **** #else  /*Use custom, user defined malloc function*/
 144:..\lvgl\lv_misc/lv_mem.c **** #if LV_ENABLE_GC == 1 /*gc must not include header*/
 145:..\lvgl\lv_misc/lv_mem.c ****     alloc = LV_MEM_CUSTOM_ALLOC(size);
ARM GAS  C:\Users\d3bug\AppData\Local\Temp\cc2ZLKFo.s 			page 4


 146:..\lvgl\lv_misc/lv_mem.c **** #else /* LV_ENABLE_GC */
 147:..\lvgl\lv_misc/lv_mem.c ****     /*Allocate a header too to store the size*/
 148:..\lvgl\lv_misc/lv_mem.c ****     alloc = LV_MEM_CUSTOM_ALLOC(size + sizeof(lv_mem_header_t));
 149:..\lvgl\lv_misc/lv_mem.c ****     if(alloc != NULL) {
 150:..\lvgl\lv_misc/lv_mem.c ****         ((lv_mem_ent_t *) alloc)->header.d_size = size;
 151:..\lvgl\lv_misc/lv_mem.c ****         ((lv_mem_ent_t *) alloc)->header.used = 1;
 152:..\lvgl\lv_misc/lv_mem.c ****         alloc = &((lv_mem_ent_t *) alloc)->first_data;
 153:..\lvgl\lv_misc/lv_mem.c ****     }
 154:..\lvgl\lv_misc/lv_mem.c **** #endif /* LV_ENABLE_GC */
 155:..\lvgl\lv_misc/lv_mem.c **** #endif /* LV_MEM_CUSTOM */
 156:..\lvgl\lv_misc/lv_mem.c **** 
 157:..\lvgl\lv_misc/lv_mem.c **** #if LV_MEM_ADD_JUNK
 158:..\lvgl\lv_misc/lv_mem.c ****     if(alloc != NULL) memset(alloc, 0xaa, size);
 159:..\lvgl\lv_misc/lv_mem.c **** #endif
 160:..\lvgl\lv_misc/lv_mem.c **** 
 161:..\lvgl\lv_misc/lv_mem.c ****     if(alloc == NULL) LV_LOG_WARN("Couldn't allocate memory");
 162:..\lvgl\lv_misc/lv_mem.c **** 
 163:..\lvgl\lv_misc/lv_mem.c ****     return alloc;
 164:..\lvgl\lv_misc/lv_mem.c **** }
 165:..\lvgl\lv_misc/lv_mem.c **** 
 166:..\lvgl\lv_misc/lv_mem.c **** /**
 167:..\lvgl\lv_misc/lv_mem.c ****  * Free an allocated data
 168:..\lvgl\lv_misc/lv_mem.c ****  * @param data pointer to an allocated memory
 169:..\lvgl\lv_misc/lv_mem.c ****  */
 170:..\lvgl\lv_misc/lv_mem.c **** void lv_mem_free(const void * data)
 171:..\lvgl\lv_misc/lv_mem.c **** {
 172:..\lvgl\lv_misc/lv_mem.c ****     if(data == &zero_mem) return;
 173:..\lvgl\lv_misc/lv_mem.c ****     if(data == NULL) return;
 174:..\lvgl\lv_misc/lv_mem.c **** 
 175:..\lvgl\lv_misc/lv_mem.c **** 
 176:..\lvgl\lv_misc/lv_mem.c **** #if LV_MEM_ADD_JUNK
 177:..\lvgl\lv_misc/lv_mem.c ****     memset((void *)data, 0xbb, lv_mem_get_size(data));
 178:..\lvgl\lv_misc/lv_mem.c **** #endif
 179:..\lvgl\lv_misc/lv_mem.c **** 
 180:..\lvgl\lv_misc/lv_mem.c **** #if LV_ENABLE_GC==0
 181:..\lvgl\lv_misc/lv_mem.c ****     /*e points to the header*/
 182:..\lvgl\lv_misc/lv_mem.c ****     lv_mem_ent_t * e = (lv_mem_ent_t *)((uint8_t *) data - sizeof(lv_mem_header_t));
 183:..\lvgl\lv_misc/lv_mem.c ****     e->header.used = 0;
 184:..\lvgl\lv_misc/lv_mem.c **** #endif
 185:..\lvgl\lv_misc/lv_mem.c **** 
 186:..\lvgl\lv_misc/lv_mem.c **** #if LV_MEM_CUSTOM == 0
 187:..\lvgl\lv_misc/lv_mem.c **** #if LV_MEM_AUTO_DEFRAG
 188:..\lvgl\lv_misc/lv_mem.c ****     /* Make a simple defrag.
 189:..\lvgl\lv_misc/lv_mem.c ****      * Join the following free entries after this*/
 190:..\lvgl\lv_misc/lv_mem.c ****     lv_mem_ent_t * e_next;
 191:..\lvgl\lv_misc/lv_mem.c ****     e_next = ent_get_next(e);
 192:..\lvgl\lv_misc/lv_mem.c ****     while(e_next != NULL) {
 193:..\lvgl\lv_misc/lv_mem.c ****         if(e_next->header.used == 0) {
 194:..\lvgl\lv_misc/lv_mem.c ****             e->header.d_size += e_next->header.d_size + sizeof(e->header);
 195:..\lvgl\lv_misc/lv_mem.c ****         } else {
 196:..\lvgl\lv_misc/lv_mem.c ****             break;
 197:..\lvgl\lv_misc/lv_mem.c ****         }
 198:..\lvgl\lv_misc/lv_mem.c ****         e_next = ent_get_next(e_next);
 199:..\lvgl\lv_misc/lv_mem.c ****     }
 200:..\lvgl\lv_misc/lv_mem.c **** #endif
 201:..\lvgl\lv_misc/lv_mem.c **** #else /*Use custom, user defined free function*/
 202:..\lvgl\lv_misc/lv_mem.c **** #if LV_ENABLE_GC==0
ARM GAS  C:\Users\d3bug\AppData\Local\Temp\cc2ZLKFo.s 			page 5


 203:..\lvgl\lv_misc/lv_mem.c ****     LV_MEM_CUSTOM_FREE(e);
 204:..\lvgl\lv_misc/lv_mem.c **** #else
 205:..\lvgl\lv_misc/lv_mem.c ****     LV_MEM_CUSTOM_FREE((void*)data);
 206:..\lvgl\lv_misc/lv_mem.c **** #endif /*LV_ENABLE_GC*/
 207:..\lvgl\lv_misc/lv_mem.c **** #endif
 208:..\lvgl\lv_misc/lv_mem.c **** }
 209:..\lvgl\lv_misc/lv_mem.c **** 
 210:..\lvgl\lv_misc/lv_mem.c **** /**
 211:..\lvgl\lv_misc/lv_mem.c ****  * Reallocate a memory with a new size. The old content will be kept.
 212:..\lvgl\lv_misc/lv_mem.c ****  * @param data pointer to an allocated memory.
 213:..\lvgl\lv_misc/lv_mem.c ****  * Its content will be copied to the new memory block and freed
 214:..\lvgl\lv_misc/lv_mem.c ****  * @param new_size the desired new size in byte
 215:..\lvgl\lv_misc/lv_mem.c ****  * @return pointer to the new memory
 216:..\lvgl\lv_misc/lv_mem.c ****  */
 217:..\lvgl\lv_misc/lv_mem.c **** 
 218:..\lvgl\lv_misc/lv_mem.c **** #if LV_ENABLE_GC==0
 219:..\lvgl\lv_misc/lv_mem.c **** 
 220:..\lvgl\lv_misc/lv_mem.c **** void * lv_mem_realloc(void * data_p, uint32_t new_size)
 221:..\lvgl\lv_misc/lv_mem.c **** {
 222:..\lvgl\lv_misc/lv_mem.c ****     /*data_p could be previously freed pointer (in this case it is invalid)*/
 223:..\lvgl\lv_misc/lv_mem.c ****     if(data_p != NULL) {
 224:..\lvgl\lv_misc/lv_mem.c ****         lv_mem_ent_t * e = (lv_mem_ent_t *)((uint8_t *) data_p - sizeof(lv_mem_header_t));
 225:..\lvgl\lv_misc/lv_mem.c ****         if(e->header.used == 0) {
 226:..\lvgl\lv_misc/lv_mem.c ****             data_p = NULL;
 227:..\lvgl\lv_misc/lv_mem.c ****         }
 228:..\lvgl\lv_misc/lv_mem.c ****     }
 229:..\lvgl\lv_misc/lv_mem.c **** 
 230:..\lvgl\lv_misc/lv_mem.c ****     uint32_t old_size = lv_mem_get_size(data_p);
 231:..\lvgl\lv_misc/lv_mem.c ****     if(old_size == new_size) return data_p;     /*Also avoid reallocating the same memory*/
 232:..\lvgl\lv_misc/lv_mem.c **** 
 233:..\lvgl\lv_misc/lv_mem.c **** #if LV_MEM_CUSTOM == 0
 234:..\lvgl\lv_misc/lv_mem.c ****     /* Only truncate the memory is possible
 235:..\lvgl\lv_misc/lv_mem.c ****      * If the 'old_size' was extended by a header size in 'ent_trunc' it avoids reallocating this s
 236:..\lvgl\lv_misc/lv_mem.c ****     if(new_size < old_size) {
 237:..\lvgl\lv_misc/lv_mem.c ****         lv_mem_ent_t * e = (lv_mem_ent_t *)((uint8_t *) data_p - sizeof(lv_mem_header_t));
 238:..\lvgl\lv_misc/lv_mem.c ****         ent_trunc(e, new_size);
 239:..\lvgl\lv_misc/lv_mem.c ****         return &e->first_data;
 240:..\lvgl\lv_misc/lv_mem.c ****     }
 241:..\lvgl\lv_misc/lv_mem.c **** #endif
 242:..\lvgl\lv_misc/lv_mem.c **** 
 243:..\lvgl\lv_misc/lv_mem.c ****     void * new_p;
 244:..\lvgl\lv_misc/lv_mem.c ****     new_p = lv_mem_alloc(new_size);
 245:..\lvgl\lv_misc/lv_mem.c **** 
 246:..\lvgl\lv_misc/lv_mem.c ****     if(new_p != NULL && data_p != NULL) {
 247:..\lvgl\lv_misc/lv_mem.c ****         /*Copy the old data to the new. Use the smaller size*/
 248:..\lvgl\lv_misc/lv_mem.c ****         if(old_size != 0) {
 249:..\lvgl\lv_misc/lv_mem.c ****             memcpy(new_p, data_p, LV_MATH_MIN(new_size, old_size));
 250:..\lvgl\lv_misc/lv_mem.c ****             lv_mem_free(data_p);
 251:..\lvgl\lv_misc/lv_mem.c ****         }
 252:..\lvgl\lv_misc/lv_mem.c ****     }
 253:..\lvgl\lv_misc/lv_mem.c **** 
 254:..\lvgl\lv_misc/lv_mem.c **** 
 255:..\lvgl\lv_misc/lv_mem.c ****     if(new_p == NULL) LV_LOG_WARN("Couldn't allocate memory");
 256:..\lvgl\lv_misc/lv_mem.c **** 
 257:..\lvgl\lv_misc/lv_mem.c ****     return new_p;
 258:..\lvgl\lv_misc/lv_mem.c **** }
 259:..\lvgl\lv_misc/lv_mem.c **** 
ARM GAS  C:\Users\d3bug\AppData\Local\Temp\cc2ZLKFo.s 			page 6


 260:..\lvgl\lv_misc/lv_mem.c **** #else /* LV_ENABLE_GC */
 261:..\lvgl\lv_misc/lv_mem.c **** 
 262:..\lvgl\lv_misc/lv_mem.c **** void * lv_mem_realloc(void * data_p, uint32_t new_size)
 263:..\lvgl\lv_misc/lv_mem.c **** {
 264:..\lvgl\lv_misc/lv_mem.c ****     void * new_p = LV_MEM_CUSTOM_REALLOC(data_p, new_size);
 265:..\lvgl\lv_misc/lv_mem.c ****     if(new_p == NULL) LV_LOG_WARN("Couldn't allocate memory");
 266:..\lvgl\lv_misc/lv_mem.c ****     return new_p;
 267:..\lvgl\lv_misc/lv_mem.c **** }
 268:..\lvgl\lv_misc/lv_mem.c **** 
 269:..\lvgl\lv_misc/lv_mem.c **** #endif /* lv_enable_gc */
 270:..\lvgl\lv_misc/lv_mem.c **** 
 271:..\lvgl\lv_misc/lv_mem.c **** /**
 272:..\lvgl\lv_misc/lv_mem.c ****  * Join the adjacent free memory blocks
 273:..\lvgl\lv_misc/lv_mem.c ****  */
 274:..\lvgl\lv_misc/lv_mem.c **** void lv_mem_defrag(void)
 275:..\lvgl\lv_misc/lv_mem.c **** {
 276:..\lvgl\lv_misc/lv_mem.c **** #if LV_MEM_CUSTOM == 0
 277:..\lvgl\lv_misc/lv_mem.c ****     lv_mem_ent_t * e_free;
 278:..\lvgl\lv_misc/lv_mem.c ****     lv_mem_ent_t * e_next;
 279:..\lvgl\lv_misc/lv_mem.c ****     e_free = ent_get_next(NULL);
 280:..\lvgl\lv_misc/lv_mem.c **** 
 281:..\lvgl\lv_misc/lv_mem.c ****     while(1) {
 282:..\lvgl\lv_misc/lv_mem.c ****         /*Search the next free entry*/
 283:..\lvgl\lv_misc/lv_mem.c ****         while(e_free != NULL) {
 284:..\lvgl\lv_misc/lv_mem.c ****             if(e_free->header.used != 0) {
 285:..\lvgl\lv_misc/lv_mem.c ****                 e_free = ent_get_next(e_free);
 286:..\lvgl\lv_misc/lv_mem.c ****             } else {
 287:..\lvgl\lv_misc/lv_mem.c ****                 break;
 288:..\lvgl\lv_misc/lv_mem.c ****             }
 289:..\lvgl\lv_misc/lv_mem.c ****         }
 290:..\lvgl\lv_misc/lv_mem.c **** 
 291:..\lvgl\lv_misc/lv_mem.c ****         if(e_free == NULL) return;
 292:..\lvgl\lv_misc/lv_mem.c **** 
 293:..\lvgl\lv_misc/lv_mem.c ****         /*Joint the following free entries to the free*/
 294:..\lvgl\lv_misc/lv_mem.c ****         e_next = ent_get_next(e_free);
 295:..\lvgl\lv_misc/lv_mem.c ****         while(e_next != NULL) {
 296:..\lvgl\lv_misc/lv_mem.c ****             if(e_next->header.used == 0) {
 297:..\lvgl\lv_misc/lv_mem.c ****                 e_free->header.d_size += e_next->header.d_size + sizeof(e_next->header);
 298:..\lvgl\lv_misc/lv_mem.c ****             } else {
 299:..\lvgl\lv_misc/lv_mem.c ****                 break;
 300:..\lvgl\lv_misc/lv_mem.c ****             }
 301:..\lvgl\lv_misc/lv_mem.c **** 
 302:..\lvgl\lv_misc/lv_mem.c ****             e_next = ent_get_next(e_next);
 303:..\lvgl\lv_misc/lv_mem.c ****         }
 304:..\lvgl\lv_misc/lv_mem.c **** 
 305:..\lvgl\lv_misc/lv_mem.c ****         if(e_next == NULL) return;
 306:..\lvgl\lv_misc/lv_mem.c **** 
 307:..\lvgl\lv_misc/lv_mem.c ****         /*Continue from the lastly checked entry*/
 308:..\lvgl\lv_misc/lv_mem.c ****         e_free = e_next;
 309:..\lvgl\lv_misc/lv_mem.c ****     }
 310:..\lvgl\lv_misc/lv_mem.c **** #endif
 311:..\lvgl\lv_misc/lv_mem.c **** }
 312:..\lvgl\lv_misc/lv_mem.c **** 
 313:..\lvgl\lv_misc/lv_mem.c **** /**
 314:..\lvgl\lv_misc/lv_mem.c ****  * Give information about the work memory of dynamic allocation
 315:..\lvgl\lv_misc/lv_mem.c ****  * @param mon_p pointer to a dm_mon_p variable,
 316:..\lvgl\lv_misc/lv_mem.c ****  *              the result of the analysis will be stored here
ARM GAS  C:\Users\d3bug\AppData\Local\Temp\cc2ZLKFo.s 			page 7


 317:..\lvgl\lv_misc/lv_mem.c ****  */
 318:..\lvgl\lv_misc/lv_mem.c **** void lv_mem_monitor(lv_mem_monitor_t * mon_p)
 319:..\lvgl\lv_misc/lv_mem.c **** {
 320:..\lvgl\lv_misc/lv_mem.c ****     /*Init the data*/
 321:..\lvgl\lv_misc/lv_mem.c ****     memset(mon_p, 0, sizeof(lv_mem_monitor_t));
 322:..\lvgl\lv_misc/lv_mem.c **** #if LV_MEM_CUSTOM == 0
 323:..\lvgl\lv_misc/lv_mem.c ****     lv_mem_ent_t * e;
 324:..\lvgl\lv_misc/lv_mem.c ****     e = NULL;
 325:..\lvgl\lv_misc/lv_mem.c **** 
 326:..\lvgl\lv_misc/lv_mem.c ****     e = ent_get_next(e);
 327:..\lvgl\lv_misc/lv_mem.c **** 
 328:..\lvgl\lv_misc/lv_mem.c ****     while(e != NULL)  {
 329:..\lvgl\lv_misc/lv_mem.c ****         if(e->header.used == 0) {
 330:..\lvgl\lv_misc/lv_mem.c ****             mon_p->free_cnt++;
 331:..\lvgl\lv_misc/lv_mem.c ****             mon_p->free_size += e->header.d_size;
 332:..\lvgl\lv_misc/lv_mem.c ****             if(e->header.d_size > mon_p->free_biggest_size) {
 333:..\lvgl\lv_misc/lv_mem.c ****                 mon_p->free_biggest_size = e->header.d_size;
 334:..\lvgl\lv_misc/lv_mem.c ****             }
 335:..\lvgl\lv_misc/lv_mem.c ****         } else {
 336:..\lvgl\lv_misc/lv_mem.c ****             mon_p->used_cnt++;
 337:..\lvgl\lv_misc/lv_mem.c ****         }
 338:..\lvgl\lv_misc/lv_mem.c **** 
 339:..\lvgl\lv_misc/lv_mem.c ****         e = ent_get_next(e);
 340:..\lvgl\lv_misc/lv_mem.c ****     }
 341:..\lvgl\lv_misc/lv_mem.c ****     mon_p->total_size = LV_MEM_SIZE;
 342:..\lvgl\lv_misc/lv_mem.c ****     mon_p->used_pct = 100 - (100U * mon_p->free_size) / mon_p->total_size;
 343:..\lvgl\lv_misc/lv_mem.c ****     mon_p->frag_pct = (uint32_t)mon_p->free_biggest_size * 100U / mon_p->free_size;
 344:..\lvgl\lv_misc/lv_mem.c ****     mon_p->frag_pct = 100 - mon_p->frag_pct;
 345:..\lvgl\lv_misc/lv_mem.c **** #endif
 346:..\lvgl\lv_misc/lv_mem.c **** }
 347:..\lvgl\lv_misc/lv_mem.c **** 
 348:..\lvgl\lv_misc/lv_mem.c **** /**
 349:..\lvgl\lv_misc/lv_mem.c ****  * Give the size of an allocated memory
 350:..\lvgl\lv_misc/lv_mem.c ****  * @param data pointer to an allocated memory
 351:..\lvgl\lv_misc/lv_mem.c ****  * @return the size of data memory in bytes
 352:..\lvgl\lv_misc/lv_mem.c ****  */
 353:..\lvgl\lv_misc/lv_mem.c **** 
 354:..\lvgl\lv_misc/lv_mem.c **** #if LV_ENABLE_GC==0
 355:..\lvgl\lv_misc/lv_mem.c **** 
 356:..\lvgl\lv_misc/lv_mem.c **** uint32_t lv_mem_get_size(const void * data)
 357:..\lvgl\lv_misc/lv_mem.c **** {
 358:..\lvgl\lv_misc/lv_mem.c ****     if(data == NULL) return 0;
 359:..\lvgl\lv_misc/lv_mem.c ****     if(data == &zero_mem) return 0;
 360:..\lvgl\lv_misc/lv_mem.c **** 
 361:..\lvgl\lv_misc/lv_mem.c ****     lv_mem_ent_t * e = (lv_mem_ent_t *)((uint8_t *) data - sizeof(lv_mem_header_t));
 362:..\lvgl\lv_misc/lv_mem.c **** 
 363:..\lvgl\lv_misc/lv_mem.c ****     return e->header.d_size;
 364:..\lvgl\lv_misc/lv_mem.c **** }
 365:..\lvgl\lv_misc/lv_mem.c **** 
 366:..\lvgl\lv_misc/lv_mem.c **** #else /* LV_ENABLE_GC */
 367:..\lvgl\lv_misc/lv_mem.c **** 
 368:..\lvgl\lv_misc/lv_mem.c **** uint32_t lv_mem_get_size(const void * data)
 369:..\lvgl\lv_misc/lv_mem.c **** {
 370:..\lvgl\lv_misc/lv_mem.c ****     return LV_MEM_CUSTOM_GET_SIZE(data);
 371:..\lvgl\lv_misc/lv_mem.c **** }
 372:..\lvgl\lv_misc/lv_mem.c **** 
 373:..\lvgl\lv_misc/lv_mem.c **** #endif /*LV_ENABLE_GC*/
ARM GAS  C:\Users\d3bug\AppData\Local\Temp\cc2ZLKFo.s 			page 8


 374:..\lvgl\lv_misc/lv_mem.c **** 
 375:..\lvgl\lv_misc/lv_mem.c **** /**********************
 376:..\lvgl\lv_misc/lv_mem.c ****  *   STATIC FUNCTIONS
 377:..\lvgl\lv_misc/lv_mem.c ****  **********************/
 378:..\lvgl\lv_misc/lv_mem.c **** 
 379:..\lvgl\lv_misc/lv_mem.c **** #if LV_MEM_CUSTOM == 0
 380:..\lvgl\lv_misc/lv_mem.c **** /**
 381:..\lvgl\lv_misc/lv_mem.c ****  * Give the next entry after 'act_e'
 382:..\lvgl\lv_misc/lv_mem.c ****  * @param act_e pointer to an entry
 383:..\lvgl\lv_misc/lv_mem.c ****  * @return pointer to an entry after 'act_e'
 384:..\lvgl\lv_misc/lv_mem.c ****  */
 385:..\lvgl\lv_misc/lv_mem.c **** static lv_mem_ent_t * ent_get_next(lv_mem_ent_t * act_e)
 386:..\lvgl\lv_misc/lv_mem.c **** {
  27              		.loc 1 386 0
  28              		.cfi_startproc
  29              		@ args = 0, pretend = 0, frame = 0
  30              		@ frame_needed = 0, uses_anonymous_args = 0
  31              		@ link register save eliminated.
  32              	.LVL0:
 387:..\lvgl\lv_misc/lv_mem.c ****     lv_mem_ent_t * next_e = NULL;
 388:..\lvgl\lv_misc/lv_mem.c **** 
 389:..\lvgl\lv_misc/lv_mem.c ****     if(act_e == NULL) { /*NULL means: get the first entry*/
  33              		.loc 1 389 0
  34 0000 10B9     		cbnz	r0, .L2
 390:..\lvgl\lv_misc/lv_mem.c ****         next_e = (lv_mem_ent_t *) work_mem;
  35              		.loc 1 390 0
  36 0002 084B     		ldr	r3, .L5
  37 0004 1868     		ldr	r0, [r3]
  38              	.LVL1:
  39 0006 7047     		bx	lr
  40              	.LVL2:
  41              	.L2:
  42              	.LBB2:
 391:..\lvgl\lv_misc/lv_mem.c ****     } else { /*Get the next entry */
 392:..\lvgl\lv_misc/lv_mem.c ****         uint8_t * data = &act_e->first_data;
  43              		.loc 1 392 0
  44 0008 031D     		adds	r3, r0, #4
  45              	.LVL3:
 393:..\lvgl\lv_misc/lv_mem.c ****         next_e = (lv_mem_ent_t *)&data[act_e->header.d_size];
  46              		.loc 1 393 0
  47 000a 0068     		ldr	r0, [r0]
  48              	.LVL4:
  49 000c 03EB5000 		add	r0, r3, r0, lsr #1
  50              	.LVL5:
 394:..\lvgl\lv_misc/lv_mem.c **** 
 395:..\lvgl\lv_misc/lv_mem.c ****         if(&next_e->first_data >= &work_mem[LV_MEM_SIZE]) next_e = NULL;
  51              		.loc 1 395 0
  52 0010 021D     		adds	r2, r0, #4
  53 0012 044B     		ldr	r3, .L5
  54              	.LVL6:
  55 0014 1B68     		ldr	r3, [r3]
  56 0016 03F50043 		add	r3, r3, #32768
  57 001a 9A42     		cmp	r2, r3
  58 001c 00D3     		bcc	.L3
  59 001e 0020     		movs	r0, #0
  60              	.LVL7:
  61              	.L3:
ARM GAS  C:\Users\d3bug\AppData\Local\Temp\cc2ZLKFo.s 			page 9


  62              	.LBE2:
 396:..\lvgl\lv_misc/lv_mem.c ****     }
 397:..\lvgl\lv_misc/lv_mem.c **** 
 398:..\lvgl\lv_misc/lv_mem.c ****     return next_e;
 399:..\lvgl\lv_misc/lv_mem.c **** }
  63              		.loc 1 399 0
  64 0020 7047     		bx	lr
  65              	.L6:
  66 0022 00BF     		.align	2
  67              	.L5:
  68 0024 00000000 		.word	.LANCHOR0
  69              		.cfi_endproc
  70              	.LFE7:
  71              		.size	ent_get_next, .-ent_get_next
  72              		.section	.text.ent_trunc,"ax",%progbits
  73              		.align	2
  74              		.thumb
  75              		.thumb_func
  76              		.type	ent_trunc, %function
  77              	ent_trunc:
  78              	.LFB9:
 400:..\lvgl\lv_misc/lv_mem.c **** 
 401:..\lvgl\lv_misc/lv_mem.c **** 
 402:..\lvgl\lv_misc/lv_mem.c **** /**
 403:..\lvgl\lv_misc/lv_mem.c ****  * Try to do the real allocation with a given size
 404:..\lvgl\lv_misc/lv_mem.c ****  * @param e try to allocate to this entry
 405:..\lvgl\lv_misc/lv_mem.c ****  * @param size size of the new memory in bytes
 406:..\lvgl\lv_misc/lv_mem.c ****  * @return pointer to the allocated memory or NULL if not enough memory in the entry
 407:..\lvgl\lv_misc/lv_mem.c ****  */
 408:..\lvgl\lv_misc/lv_mem.c **** static void * ent_alloc(lv_mem_ent_t * e, uint32_t size)
 409:..\lvgl\lv_misc/lv_mem.c **** {
 410:..\lvgl\lv_misc/lv_mem.c ****     void * alloc = NULL;
 411:..\lvgl\lv_misc/lv_mem.c **** 
 412:..\lvgl\lv_misc/lv_mem.c ****     /*If the memory is free and big enough then use it */
 413:..\lvgl\lv_misc/lv_mem.c ****     if(e->header.used == 0 && e->header.d_size >= size) {
 414:..\lvgl\lv_misc/lv_mem.c ****         /*Truncate the entry to the desired size */
 415:..\lvgl\lv_misc/lv_mem.c ****         ent_trunc(e, size),
 416:..\lvgl\lv_misc/lv_mem.c **** 
 417:..\lvgl\lv_misc/lv_mem.c ****                   e->header.used = 1;
 418:..\lvgl\lv_misc/lv_mem.c **** 
 419:..\lvgl\lv_misc/lv_mem.c ****         /*Save the allocated data*/
 420:..\lvgl\lv_misc/lv_mem.c ****         alloc = &e->first_data;
 421:..\lvgl\lv_misc/lv_mem.c ****     }
 422:..\lvgl\lv_misc/lv_mem.c **** 
 423:..\lvgl\lv_misc/lv_mem.c ****     return alloc;
 424:..\lvgl\lv_misc/lv_mem.c **** }
 425:..\lvgl\lv_misc/lv_mem.c **** 
 426:..\lvgl\lv_misc/lv_mem.c **** /**
 427:..\lvgl\lv_misc/lv_mem.c ****  * Truncate the data of entry to the given size
 428:..\lvgl\lv_misc/lv_mem.c ****  * @param e Pointer to an entry
 429:..\lvgl\lv_misc/lv_mem.c ****  * @param size new size in bytes
 430:..\lvgl\lv_misc/lv_mem.c ****  */
 431:..\lvgl\lv_misc/lv_mem.c **** static void ent_trunc(lv_mem_ent_t * e, uint32_t size)
 432:..\lvgl\lv_misc/lv_mem.c **** {
  79              		.loc 1 432 0
  80              		.cfi_startproc
  81              		@ args = 0, pretend = 0, frame = 0
ARM GAS  C:\Users\d3bug\AppData\Local\Temp\cc2ZLKFo.s 			page 10


  82              		@ frame_needed = 0, uses_anonymous_args = 0
  83              		@ link register save eliminated.
  84              	.LVL8:
 433:..\lvgl\lv_misc/lv_mem.c **** #ifdef LV_MEM_ENV64
 434:..\lvgl\lv_misc/lv_mem.c ****     /*Round the size up to 8*/
 435:..\lvgl\lv_misc/lv_mem.c ****     if(size & 0x7) {
 436:..\lvgl\lv_misc/lv_mem.c ****         size = size & (~0x7);
 437:..\lvgl\lv_misc/lv_mem.c ****         size += 8;
 438:..\lvgl\lv_misc/lv_mem.c ****     }
 439:..\lvgl\lv_misc/lv_mem.c **** #else
 440:..\lvgl\lv_misc/lv_mem.c ****     /*Round the size up to 4*/
 441:..\lvgl\lv_misc/lv_mem.c ****     if(size & 0x3) {
  85              		.loc 1 441 0
  86 0000 11F0030F 		tst	r1, #3
  87 0004 02D0     		beq	.L8
 442:..\lvgl\lv_misc/lv_mem.c ****         size = size & (~0x3);
  88              		.loc 1 442 0
  89 0006 21F00301 		bic	r1, r1, #3
  90              	.LVL9:
 443:..\lvgl\lv_misc/lv_mem.c ****         size += 4;
  91              		.loc 1 443 0
  92 000a 0431     		adds	r1, r1, #4
  93              	.LVL10:
  94              	.L8:
 444:..\lvgl\lv_misc/lv_mem.c ****     }
 445:..\lvgl\lv_misc/lv_mem.c **** #endif
 446:..\lvgl\lv_misc/lv_mem.c **** 
 447:..\lvgl\lv_misc/lv_mem.c ****     /*Don't let empty space only for a header without data*/
 448:..\lvgl\lv_misc/lv_mem.c ****     if(e->header.d_size == size + sizeof(lv_mem_header_t)) {
  95              		.loc 1 448 0
  96 000c 0368     		ldr	r3, [r0]
  97 000e C3F35E03 		ubfx	r3, r3, #1, #31
  98 0012 0A1D     		adds	r2, r1, #4
  99 0014 9342     		cmp	r3, r2
 100 0016 00D1     		bne	.L9
 449:..\lvgl\lv_misc/lv_mem.c ****         size = e->header.d_size;
 101              		.loc 1 449 0
 102 0018 1946     		mov	r1, r3
 103              	.LVL11:
 104              	.L9:
 450:..\lvgl\lv_misc/lv_mem.c ****     }
 451:..\lvgl\lv_misc/lv_mem.c **** 
 452:..\lvgl\lv_misc/lv_mem.c ****     /* Create the new entry after the current if there is space for it */
 453:..\lvgl\lv_misc/lv_mem.c ****     if(e->header.d_size != size) {
 105              		.loc 1 453 0
 106 001a 9942     		cmp	r1, r3
 107 001c 13D0     		beq	.L13
 432:..\lvgl\lv_misc/lv_mem.c **** #ifdef LV_MEM_ENV64
 108              		.loc 1 432 0
 109 001e 10B4     		push	{r4}
 110              		.cfi_def_cfa_offset 4
 111              		.cfi_offset 4, -4
 112              	.LBB3:
 454:..\lvgl\lv_misc/lv_mem.c ****         uint8_t * e_data = &e->first_data;
 113              		.loc 1 454 0
 114 0020 021D     		adds	r2, r0, #4
 115              	.LVL12:
ARM GAS  C:\Users\d3bug\AppData\Local\Temp\cc2ZLKFo.s 			page 11


 455:..\lvgl\lv_misc/lv_mem.c ****         lv_mem_ent_t * after_new_e = (lv_mem_ent_t *)&e_data[size];
 456:..\lvgl\lv_misc/lv_mem.c ****         after_new_e->header.used = 0;
 116              		.loc 1 456 0
 117 0022 535C     		ldrb	r3, [r2, r1]	@ zero_extendqisi2
 118 0024 6FF30003 		bfc	r3, #0, #1
 119 0028 5354     		strb	r3, [r2, r1]
 457:..\lvgl\lv_misc/lv_mem.c ****         after_new_e->header.d_size = e->header.d_size - size - sizeof(lv_mem_header_t);
 120              		.loc 1 457 0
 121 002a 0368     		ldr	r3, [r0]
 122 002c C1EB5303 		rsb	r3, r1, r3, lsr #1
 123 0030 043B     		subs	r3, r3, #4
 124 0032 5458     		ldr	r4, [r2, r1]
 125 0034 63F35F04 		bfi	r4, r3, #1, #31
 126 0038 5450     		str	r4, [r2, r1]
 127              	.LBE3:
 458:..\lvgl\lv_misc/lv_mem.c ****     }
 459:..\lvgl\lv_misc/lv_mem.c **** 
 460:..\lvgl\lv_misc/lv_mem.c ****     /* Set the new size for the original entry */
 461:..\lvgl\lv_misc/lv_mem.c ****     e->header.d_size = size;
 128              		.loc 1 461 0
 129 003a 0368     		ldr	r3, [r0]
 130 003c 61F35F03 		bfi	r3, r1, #1, #31
 131 0040 0360     		str	r3, [r0]
 462:..\lvgl\lv_misc/lv_mem.c **** }
 132              		.loc 1 462 0
 133 0042 10BC     		pop	{r4}
 134              		.cfi_restore 4
 135              		.cfi_def_cfa_offset 0
 136 0044 7047     		bx	lr
 137              	.LVL13:
 138              	.L13:
 461:..\lvgl\lv_misc/lv_mem.c **** }
 139              		.loc 1 461 0
 140 0046 0368     		ldr	r3, [r0]
 141 0048 61F35F03 		bfi	r3, r1, #1, #31
 142 004c 0360     		str	r3, [r0]
 143 004e 7047     		bx	lr
 144              		.cfi_endproc
 145              	.LFE9:
 146              		.size	ent_trunc, .-ent_trunc
 147              		.section	.text.ent_alloc,"ax",%progbits
 148              		.align	2
 149              		.thumb
 150              		.thumb_func
 151              		.type	ent_alloc, %function
 152              	ent_alloc:
 153              	.LFB8:
 409:..\lvgl\lv_misc/lv_mem.c ****     void * alloc = NULL;
 154              		.loc 1 409 0
 155              		.cfi_startproc
 156              		@ args = 0, pretend = 0, frame = 0
 157              		@ frame_needed = 0, uses_anonymous_args = 0
 158              	.LVL14:
 413:..\lvgl\lv_misc/lv_mem.c ****         /*Truncate the entry to the desired size */
 159              		.loc 1 413 0
 160 0000 0378     		ldrb	r3, [r0]	@ zero_extendqisi2
 161 0002 13F0010F 		tst	r3, #1
ARM GAS  C:\Users\d3bug\AppData\Local\Temp\cc2ZLKFo.s 			page 12


 162 0006 0FD1     		bne	.L16
 413:..\lvgl\lv_misc/lv_mem.c ****         /*Truncate the entry to the desired size */
 163              		.loc 1 413 0 is_stmt 0 discriminator 1
 164 0008 0368     		ldr	r3, [r0]
 165 000a C3F35E03 		ubfx	r3, r3, #1, #31
 166 000e 8B42     		cmp	r3, r1
 167 0010 0CD3     		bcc	.L17
 409:..\lvgl\lv_misc/lv_mem.c ****     void * alloc = NULL;
 168              		.loc 1 409 0 is_stmt 1
 169 0012 10B5     		push	{r4, lr}
 170              		.cfi_def_cfa_offset 8
 171              		.cfi_offset 4, -8
 172              		.cfi_offset 14, -4
 173 0014 0446     		mov	r4, r0
 415:..\lvgl\lv_misc/lv_mem.c **** 
 174              		.loc 1 415 0
 175 0016 FFF7FEFF 		bl	ent_trunc
 176              	.LVL15:
 417:..\lvgl\lv_misc/lv_mem.c **** 
 177              		.loc 1 417 0
 178 001a 2378     		ldrb	r3, [r4]	@ zero_extendqisi2
 179 001c 43F00103 		orr	r3, r3, #1
 180 0020 2046     		mov	r0, r4
 181 0022 00F8043B 		strb	r3, [r0], #4
 182              	.LVL16:
 183 0026 10BD     		pop	{r4, pc}
 184              	.LVL17:
 185              	.L16:
 186              		.cfi_def_cfa_offset 0
 187              		.cfi_restore 4
 188              		.cfi_restore 14
 410:..\lvgl\lv_misc/lv_mem.c **** 
 189              		.loc 1 410 0
 190 0028 0020     		movs	r0, #0
 191              	.LVL18:
 192 002a 7047     		bx	lr
 193              	.LVL19:
 194              	.L17:
 195 002c 0020     		movs	r0, #0
 196              	.LVL20:
 197 002e 7047     		bx	lr
 198              		.cfi_endproc
 199              	.LFE8:
 200              		.size	ent_alloc, .-ent_alloc
 201              		.section	.text.lv_mem_init,"ax",%progbits
 202              		.align	2
 203              		.global	lv_mem_init
 204              		.thumb
 205              		.thumb_func
 206              		.type	lv_mem_init, %function
 207              	lv_mem_init:
 208              	.LFB0:
  83:..\lvgl\lv_misc/lv_mem.c **** #if LV_MEM_CUSTOM == 0
 209              		.loc 1 83 0
 210              		.cfi_startproc
 211              		@ args = 0, pretend = 0, frame = 0
 212              		@ frame_needed = 0, uses_anonymous_args = 0
ARM GAS  C:\Users\d3bug\AppData\Local\Temp\cc2ZLKFo.s 			page 13


 213              		@ link register save eliminated.
  89:..\lvgl\lv_misc/lv_mem.c **** #else
 214              		.loc 1 89 0
 215 0000 064B     		ldr	r3, .L21
 216 0002 1A1D     		adds	r2, r3, #4
 217 0004 1A60     		str	r2, [r3]
 218              	.LVL21:
  95:..\lvgl\lv_misc/lv_mem.c ****     /*The total mem size id reduced by the first header and the close patterns */
 219              		.loc 1 95 0
 220 0006 1A79     		ldrb	r2, [r3, #4]	@ zero_extendqisi2
 221 0008 6FF30002 		bfc	r2, #0, #1
 222 000c 1A71     		strb	r2, [r3, #4]
  97:..\lvgl\lv_misc/lv_mem.c **** #endif
 223              		.loc 1 97 0
 224 000e 5A68     		ldr	r2, [r3, #4]
 225 0010 47F6FC71 		movw	r1, #32764
 226 0014 61F35F02 		bfi	r2, r1, #1, #31
 227 0018 5A60     		str	r2, [r3, #4]
 228 001a 7047     		bx	lr
 229              	.L22:
 230              		.align	2
 231              	.L21:
 232 001c 00000000 		.word	.LANCHOR0
 233              		.cfi_endproc
 234              	.LFE0:
 235              		.size	lv_mem_init, .-lv_mem_init
 236              		.section	.text.lv_mem_alloc,"ax",%progbits
 237              		.align	2
 238              		.global	lv_mem_alloc
 239              		.thumb
 240              		.thumb_func
 241              		.type	lv_mem_alloc, %function
 242              	lv_mem_alloc:
 243              	.LFB1:
 107:..\lvgl\lv_misc/lv_mem.c ****     if(size == 0) {
 244              		.loc 1 107 0
 245              		.cfi_startproc
 246              		@ args = 0, pretend = 0, frame = 0
 247              		@ frame_needed = 0, uses_anonymous_args = 0
 248              	.LVL22:
 108:..\lvgl\lv_misc/lv_mem.c ****         return &zero_mem;
 249              		.loc 1 108 0
 250 0000 F0B1     		cbz	r0, .L29
 107:..\lvgl\lv_misc/lv_mem.c ****     if(size == 0) {
 251              		.loc 1 107 0
 252 0002 70B5     		push	{r4, r5, r6, lr}
 253              		.cfi_def_cfa_offset 16
 254              		.cfi_offset 4, -16
 255              		.cfi_offset 5, -12
 256              		.cfi_offset 6, -8
 257              		.cfi_offset 14, -4
 258 0004 0646     		mov	r6, r0
 120:..\lvgl\lv_misc/lv_mem.c ****         size = size & (~0x3);
 259              		.loc 1 120 0
 260 0006 10F0030F 		tst	r0, #3
 261 000a 02D0     		beq	.L25
 121:..\lvgl\lv_misc/lv_mem.c ****         size += 4;
ARM GAS  C:\Users\d3bug\AppData\Local\Temp\cc2ZLKFo.s 			page 14


 262              		.loc 1 121 0
 263 000c 20F00306 		bic	r6, r0, #3
 264              	.LVL23:
 122:..\lvgl\lv_misc/lv_mem.c ****     }
 265              		.loc 1 122 0
 266 0010 0436     		adds	r6, r6, #4
 267              	.LVL24:
 268              	.L25:
 128:..\lvgl\lv_misc/lv_mem.c **** 
 269              		.loc 1 128 0
 270 0012 0024     		movs	r4, #0
 125:..\lvgl\lv_misc/lv_mem.c **** 
 271              		.loc 1 125 0
 272 0014 2546     		mov	r5, r4
 273              	.LVL25:
 274              	.L28:
 133:..\lvgl\lv_misc/lv_mem.c **** 
 275              		.loc 1 133 0
 276 0016 2046     		mov	r0, r4
 277 0018 FFF7FEFF 		bl	ent_get_next
 278              	.LVL26:
 136:..\lvgl\lv_misc/lv_mem.c ****             alloc = ent_alloc(e, size);
 279              		.loc 1 136 0
 280 001c 0446     		mov	r4, r0
 281 001e 18B1     		cbz	r0, .L26
 137:..\lvgl\lv_misc/lv_mem.c ****         }
 282              		.loc 1 137 0
 283 0020 3146     		mov	r1, r6
 284 0022 FFF7FEFF 		bl	ent_alloc
 285              	.LVL27:
 286 0026 0546     		mov	r5, r0
 287              	.LVL28:
 288              	.L26:
 140:..\lvgl\lv_misc/lv_mem.c **** 
 289              		.loc 1 140 0
 290 0028 0CB1     		cbz	r4, .L27
 140:..\lvgl\lv_misc/lv_mem.c **** 
 291              		.loc 1 140 0 is_stmt 0 discriminator 1
 292 002a 002D     		cmp	r5, #0
 293 002c F3D0     		beq	.L28
 294              	.L27:
 161:..\lvgl\lv_misc/lv_mem.c **** 
 295              		.loc 1 161 0 is_stmt 1
 296 002e 4DB9     		cbnz	r5, .L30
 161:..\lvgl\lv_misc/lv_mem.c **** 
 297              		.loc 1 161 0 is_stmt 0 discriminator 1
 298 0030 054B     		ldr	r3, .L32
 299 0032 A122     		movs	r2, #161
 300 0034 0549     		ldr	r1, .L32+4
 301 0036 0220     		movs	r0, #2
 302 0038 FFF7FEFF 		bl	lv_log_add
 303              	.LVL29:
 163:..\lvgl\lv_misc/lv_mem.c **** }
 304              		.loc 1 163 0 is_stmt 1 discriminator 1
 305 003c 2846     		mov	r0, r5
 306 003e 70BD     		pop	{r4, r5, r6, pc}
 307              	.LVL30:
ARM GAS  C:\Users\d3bug\AppData\Local\Temp\cc2ZLKFo.s 			page 15


 308              	.L29:
 309              		.cfi_def_cfa_offset 0
 310              		.cfi_restore 4
 311              		.cfi_restore 5
 312              		.cfi_restore 6
 313              		.cfi_restore 14
 109:..\lvgl\lv_misc/lv_mem.c ****     }
 314              		.loc 1 109 0
 315 0040 0348     		ldr	r0, .L32+8
 316              	.LVL31:
 164:..\lvgl\lv_misc/lv_mem.c **** 
 317              		.loc 1 164 0
 318 0042 7047     		bx	lr
 319              	.LVL32:
 320              	.L30:
 321              		.cfi_def_cfa_offset 16
 322              		.cfi_offset 4, -16
 323              		.cfi_offset 5, -12
 324              		.cfi_offset 6, -8
 325              		.cfi_offset 14, -4
 163:..\lvgl\lv_misc/lv_mem.c **** }
 326              		.loc 1 163 0
 327 0044 2846     		mov	r0, r5
 164:..\lvgl\lv_misc/lv_mem.c **** 
 328              		.loc 1 164 0
 329 0046 70BD     		pop	{r4, r5, r6, pc}
 330              	.LVL33:
 331              	.L33:
 332              		.align	2
 333              	.L32:
 334 0048 00000000 		.word	.LC0
 335 004c 1C000000 		.word	.LC1
 336 0050 04800000 		.word	.LANCHOR1+2364
 337              		.cfi_endproc
 338              	.LFE1:
 339              		.size	lv_mem_alloc, .-lv_mem_alloc
 340              		.section	.text.lv_mem_free,"ax",%progbits
 341              		.align	2
 342              		.global	lv_mem_free
 343              		.thumb
 344              		.thumb_func
 345              		.type	lv_mem_free, %function
 346              	lv_mem_free:
 347              	.LFB2:
 171:..\lvgl\lv_misc/lv_mem.c ****     if(data == &zero_mem) return;
 348              		.loc 1 171 0
 349              		.cfi_startproc
 350              		@ args = 0, pretend = 0, frame = 0
 351              		@ frame_needed = 0, uses_anonymous_args = 0
 352              	.LVL34:
 172:..\lvgl\lv_misc/lv_mem.c ****     if(data == NULL) return;
 353              		.loc 1 172 0
 354 0000 124B     		ldr	r3, .L40
 355 0002 9842     		cmp	r0, r3
 356 0004 21D0     		beq	.L39
 173:..\lvgl\lv_misc/lv_mem.c **** 
 357              		.loc 1 173 0
ARM GAS  C:\Users\d3bug\AppData\Local\Temp\cc2ZLKFo.s 			page 16


 358 0006 00B3     		cbz	r0, .L39
 171:..\lvgl\lv_misc/lv_mem.c ****     if(data == &zero_mem) return;
 359              		.loc 1 171 0
 360 0008 10B5     		push	{r4, lr}
 361              		.cfi_def_cfa_offset 8
 362              		.cfi_offset 4, -8
 363              		.cfi_offset 14, -4
 364 000a 0446     		mov	r4, r0
 365              	.LVL35:
 183:..\lvgl\lv_misc/lv_mem.c **** #endif
 366              		.loc 1 183 0
 367 000c 10F8043C 		ldrb	r3, [r0, #-4]	@ zero_extendqisi2
 368 0010 6FF30003 		bfc	r3, #0, #1
 369 0014 00F8043C 		strb	r3, [r0, #-4]
 191:..\lvgl\lv_misc/lv_mem.c ****     while(e_next != NULL) {
 370              		.loc 1 191 0
 371 0018 0438     		subs	r0, r0, #4
 372              	.LVL36:
 373 001a FFF7FEFF 		bl	ent_get_next
 374              	.LVL37:
 192:..\lvgl\lv_misc/lv_mem.c ****         if(e_next->header.used == 0) {
 375              		.loc 1 192 0
 376 001e 11E0     		b	.L36
 377              	.L37:
 193:..\lvgl\lv_misc/lv_mem.c ****             e->header.d_size += e_next->header.d_size + sizeof(e->header);
 378              		.loc 1 193 0
 379 0020 0378     		ldrb	r3, [r0]	@ zero_extendqisi2
 380 0022 13F0010F 		tst	r3, #1
 381 0026 0FD1     		bne	.L34
 194:..\lvgl\lv_misc/lv_mem.c ****         } else {
 382              		.loc 1 194 0
 383 0028 0168     		ldr	r1, [r0]
 384 002a 54F8043C 		ldr	r3, [r4, #-4]
 385 002e C3F35E02 		ubfx	r2, r3, #1, #31
 386 0032 02EB5102 		add	r2, r2, r1, lsr #1
 387 0036 0432     		adds	r2, r2, #4
 388 0038 62F35F03 		bfi	r3, r2, #1, #31
 389 003c 44F8043C 		str	r3, [r4, #-4]
 198:..\lvgl\lv_misc/lv_mem.c ****     }
 390              		.loc 1 198 0
 391 0040 FFF7FEFF 		bl	ent_get_next
 392              	.LVL38:
 393              	.L36:
 192:..\lvgl\lv_misc/lv_mem.c ****         if(e_next->header.used == 0) {
 394              		.loc 1 192 0
 395 0044 0028     		cmp	r0, #0
 396 0046 EBD1     		bne	.L37
 397              	.L34:
 398 0048 10BD     		pop	{r4, pc}
 399              	.LVL39:
 400              	.L39:
 401              		.cfi_def_cfa_offset 0
 402              		.cfi_restore 4
 403              		.cfi_restore 14
 404 004a 7047     		bx	lr
 405              	.L41:
 406              		.align	2
ARM GAS  C:\Users\d3bug\AppData\Local\Temp\cc2ZLKFo.s 			page 17


 407              	.L40:
 408 004c 04800000 		.word	.LANCHOR1+2364
 409              		.cfi_endproc
 410              	.LFE2:
 411              		.size	lv_mem_free, .-lv_mem_free
 412              		.section	.text.lv_mem_defrag,"ax",%progbits
 413              		.align	2
 414              		.global	lv_mem_defrag
 415              		.thumb
 416              		.thumb_func
 417              		.type	lv_mem_defrag, %function
 418              	lv_mem_defrag:
 419              	.LFB4:
 275:..\lvgl\lv_misc/lv_mem.c **** #if LV_MEM_CUSTOM == 0
 420              		.loc 1 275 0
 421              		.cfi_startproc
 422              		@ args = 0, pretend = 0, frame = 0
 423              		@ frame_needed = 0, uses_anonymous_args = 0
 424 0000 10B5     		push	{r4, lr}
 425              		.cfi_def_cfa_offset 8
 426              		.cfi_offset 4, -8
 427              		.cfi_offset 14, -4
 279:..\lvgl\lv_misc/lv_mem.c **** 
 428              		.loc 1 279 0
 429 0002 0020     		movs	r0, #0
 430 0004 FFF7FEFF 		bl	ent_get_next
 431              	.LVL40:
 432 0008 0446     		mov	r4, r0
 433              	.LVL41:
 434 000a 07E0     		b	.L43
 435              	.LVL42:
 436              	.L45:
 284:..\lvgl\lv_misc/lv_mem.c ****                 e_free = ent_get_next(e_free);
 437              		.loc 1 284 0
 438 000c 2378     		ldrb	r3, [r4]	@ zero_extendqisi2
 439 000e 13F0010F 		tst	r3, #1
 440 0012 05D0     		beq	.L44
 285:..\lvgl\lv_misc/lv_mem.c ****             } else {
 441              		.loc 1 285 0
 442 0014 2046     		mov	r0, r4
 443 0016 FFF7FEFF 		bl	ent_get_next
 444              	.LVL43:
 445              	.L50:
 275:..\lvgl\lv_misc/lv_mem.c **** #if LV_MEM_CUSTOM == 0
 446              		.loc 1 275 0
 447 001a 0446     		mov	r4, r0
 448              	.L43:
 449              	.LVL44:
 283:..\lvgl\lv_misc/lv_mem.c ****             if(e_free->header.used != 0) {
 450              		.loc 1 283 0
 451 001c 002C     		cmp	r4, #0
 452 001e F5D1     		bne	.L45
 453              	.L44:
 291:..\lvgl\lv_misc/lv_mem.c **** 
 454              		.loc 1 291 0
 455 0020 BCB1     		cbz	r4, .L42
 294:..\lvgl\lv_misc/lv_mem.c ****         while(e_next != NULL) {
ARM GAS  C:\Users\d3bug\AppData\Local\Temp\cc2ZLKFo.s 			page 18


 456              		.loc 1 294 0
 457 0022 2046     		mov	r0, r4
 458 0024 FFF7FEFF 		bl	ent_get_next
 459              	.LVL45:
 295:..\lvgl\lv_misc/lv_mem.c ****             if(e_next->header.used == 0) {
 460              		.loc 1 295 0
 461 0028 0FE0     		b	.L47
 462              	.L49:
 296:..\lvgl\lv_misc/lv_mem.c ****                 e_free->header.d_size += e_next->header.d_size + sizeof(e_next->header);
 463              		.loc 1 296 0
 464 002a 0378     		ldrb	r3, [r0]	@ zero_extendqisi2
 465 002c 13F0010F 		tst	r3, #1
 466 0030 0DD1     		bne	.L48
 297:..\lvgl\lv_misc/lv_mem.c ****             } else {
 467              		.loc 1 297 0
 468 0032 0168     		ldr	r1, [r0]
 469 0034 2368     		ldr	r3, [r4]
 470 0036 C3F35E02 		ubfx	r2, r3, #1, #31
 471 003a 02EB5102 		add	r2, r2, r1, lsr #1
 472 003e 0432     		adds	r2, r2, #4
 473 0040 62F35F03 		bfi	r3, r2, #1, #31
 474 0044 2360     		str	r3, [r4]
 302:..\lvgl\lv_misc/lv_mem.c ****         }
 475              		.loc 1 302 0
 476 0046 FFF7FEFF 		bl	ent_get_next
 477              	.LVL46:
 478              	.L47:
 295:..\lvgl\lv_misc/lv_mem.c ****             if(e_next->header.used == 0) {
 479              		.loc 1 295 0
 480 004a 0028     		cmp	r0, #0
 481 004c EDD1     		bne	.L49
 482              	.L48:
 305:..\lvgl\lv_misc/lv_mem.c **** 
 483              		.loc 1 305 0
 484 004e 0028     		cmp	r0, #0
 485 0050 E3D1     		bne	.L50
 486              	.LVL47:
 487              	.L42:
 488 0052 10BD     		pop	{r4, pc}
 489              		.cfi_endproc
 490              	.LFE4:
 491              		.size	lv_mem_defrag, .-lv_mem_defrag
 492              		.section	.text.lv_mem_monitor,"ax",%progbits
 493              		.align	2
 494              		.global	lv_mem_monitor
 495              		.thumb
 496              		.thumb_func
 497              		.type	lv_mem_monitor, %function
 498              	lv_mem_monitor:
 499              	.LFB5:
 319:..\lvgl\lv_misc/lv_mem.c ****     /*Init the data*/
 500              		.loc 1 319 0
 501              		.cfi_startproc
 502              		@ args = 0, pretend = 0, frame = 0
 503              		@ frame_needed = 0, uses_anonymous_args = 0
 504              	.LVL48:
 505 0000 10B5     		push	{r4, lr}
ARM GAS  C:\Users\d3bug\AppData\Local\Temp\cc2ZLKFo.s 			page 19


 506              		.cfi_def_cfa_offset 8
 507              		.cfi_offset 4, -8
 508              		.cfi_offset 14, -4
 509 0002 0446     		mov	r4, r0
 321:..\lvgl\lv_misc/lv_mem.c **** #if LV_MEM_CUSTOM == 0
 510              		.loc 1 321 0
 511 0004 0020     		movs	r0, #0
 512              	.LVL49:
 513 0006 2060     		str	r0, [r4]	@ unaligned
 514 0008 6060     		str	r0, [r4, #4]	@ unaligned
 515 000a A060     		str	r0, [r4, #8]	@ unaligned
 516 000c E060     		str	r0, [r4, #12]	@ unaligned
 517 000e 2061     		str	r0, [r4, #16]	@ unaligned
 518 0010 6061     		str	r0, [r4, #20]	@ unaligned
 519              	.LVL50:
 326:..\lvgl\lv_misc/lv_mem.c **** 
 520              		.loc 1 326 0
 521 0012 FFF7FEFF 		bl	ent_get_next
 522              	.LVL51:
 328:..\lvgl\lv_misc/lv_mem.c ****         if(e->header.used == 0) {
 523              		.loc 1 328 0
 524 0016 18E0     		b	.L53
 525              	.L56:
 329:..\lvgl\lv_misc/lv_mem.c ****             mon_p->free_cnt++;
 526              		.loc 1 329 0
 527 0018 0378     		ldrb	r3, [r0]	@ zero_extendqisi2
 528 001a 13F0010F 		tst	r3, #1
 529 001e 0FD1     		bne	.L54
 330:..\lvgl\lv_misc/lv_mem.c ****             mon_p->free_size += e->header.d_size;
 530              		.loc 1 330 0
 531 0020 6368     		ldr	r3, [r4, #4]
 532 0022 0133     		adds	r3, r3, #1
 533 0024 6360     		str	r3, [r4, #4]
 331:..\lvgl\lv_misc/lv_mem.c ****             if(e->header.d_size > mon_p->free_biggest_size) {
 534              		.loc 1 331 0
 535 0026 0268     		ldr	r2, [r0]
 536 0028 A368     		ldr	r3, [r4, #8]
 537 002a 03EB5203 		add	r3, r3, r2, lsr #1
 538 002e A360     		str	r3, [r4, #8]
 332:..\lvgl\lv_misc/lv_mem.c ****                 mon_p->free_biggest_size = e->header.d_size;
 539              		.loc 1 332 0
 540 0030 0368     		ldr	r3, [r0]
 541 0032 C3F35E03 		ubfx	r3, r3, #1, #31
 542 0036 E268     		ldr	r2, [r4, #12]
 543 0038 9342     		cmp	r3, r2
 544 003a 04D9     		bls	.L55
 333:..\lvgl\lv_misc/lv_mem.c ****             }
 545              		.loc 1 333 0
 546 003c E360     		str	r3, [r4, #12]
 547 003e 02E0     		b	.L55
 548              	.L54:
 336:..\lvgl\lv_misc/lv_mem.c ****         }
 549              		.loc 1 336 0
 550 0040 2369     		ldr	r3, [r4, #16]
 551 0042 0133     		adds	r3, r3, #1
 552 0044 2361     		str	r3, [r4, #16]
 553              	.L55:
ARM GAS  C:\Users\d3bug\AppData\Local\Temp\cc2ZLKFo.s 			page 20


 339:..\lvgl\lv_misc/lv_mem.c ****     }
 554              		.loc 1 339 0
 555 0046 FFF7FEFF 		bl	ent_get_next
 556              	.LVL52:
 557              	.L53:
 328:..\lvgl\lv_misc/lv_mem.c ****         if(e->header.used == 0) {
 558              		.loc 1 328 0
 559 004a 0028     		cmp	r0, #0
 560 004c E4D1     		bne	.L56
 341:..\lvgl\lv_misc/lv_mem.c ****     mon_p->used_pct = 100 - (100U * mon_p->free_size) / mon_p->total_size;
 561              		.loc 1 341 0
 562 004e 4FF40043 		mov	r3, #32768
 563 0052 2360     		str	r3, [r4]
 342:..\lvgl\lv_misc/lv_mem.c ****     mon_p->frag_pct = (uint32_t)mon_p->free_biggest_size * 100U / mon_p->free_size;
 564              		.loc 1 342 0
 565 0054 A168     		ldr	r1, [r4, #8]
 566 0056 6423     		movs	r3, #100
 567 0058 03FB01F2 		mul	r2, r3, r1
 568 005c D20B     		lsrs	r2, r2, #15
 569 005e 9A1A     		subs	r2, r3, r2
 570 0060 2275     		strb	r2, [r4, #20]
 343:..\lvgl\lv_misc/lv_mem.c ****     mon_p->frag_pct = 100 - mon_p->frag_pct;
 571              		.loc 1 343 0
 572 0062 E268     		ldr	r2, [r4, #12]
 573 0064 03FB02F3 		mul	r3, r3, r2
 574 0068 B3FBF1F3 		udiv	r3, r3, r1
 575 006c DBB2     		uxtb	r3, r3
 344:..\lvgl\lv_misc/lv_mem.c **** #endif
 576              		.loc 1 344 0
 577 006e C3F16403 		rsb	r3, r3, #100
 578 0072 6375     		strb	r3, [r4, #21]
 579 0074 10BD     		pop	{r4, pc}
 580              		.cfi_endproc
 581              	.LFE5:
 582              		.size	lv_mem_monitor, .-lv_mem_monitor
 583 0076 00BF     		.section	.text.lv_mem_get_size,"ax",%progbits
 584              		.align	2
 585              		.global	lv_mem_get_size
 586              		.thumb
 587              		.thumb_func
 588              		.type	lv_mem_get_size, %function
 589              	lv_mem_get_size:
 590              	.LFB6:
 357:..\lvgl\lv_misc/lv_mem.c ****     if(data == NULL) return 0;
 591              		.loc 1 357 0
 592              		.cfi_startproc
 593              		@ args = 0, pretend = 0, frame = 0
 594              		@ frame_needed = 0, uses_anonymous_args = 0
 595              		@ link register save eliminated.
 596              	.LVL53:
 358:..\lvgl\lv_misc/lv_mem.c ****     if(data == &zero_mem) return 0;
 597              		.loc 1 358 0
 598 0000 38B1     		cbz	r0, .L60
 359:..\lvgl\lv_misc/lv_mem.c **** 
 599              		.loc 1 359 0
 600 0002 064A     		ldr	r2, .L62
 601 0004 9042     		cmp	r0, r2
ARM GAS  C:\Users\d3bug\AppData\Local\Temp\cc2ZLKFo.s 			page 21


 602 0006 06D0     		beq	.L61
 603              	.LVL54:
 363:..\lvgl\lv_misc/lv_mem.c **** }
 604              		.loc 1 363 0
 605 0008 50F8040C 		ldr	r0, [r0, #-4]
 606              	.LVL55:
 607 000c C0F35E00 		ubfx	r0, r0, #1, #31
 608 0010 7047     		bx	lr
 609              	.LVL56:
 610              	.L60:
 358:..\lvgl\lv_misc/lv_mem.c ****     if(data == &zero_mem) return 0;
 611              		.loc 1 358 0
 612 0012 0020     		movs	r0, #0
 613              	.LVL57:
 614 0014 7047     		bx	lr
 615              	.LVL58:
 616              	.L61:
 359:..\lvgl\lv_misc/lv_mem.c **** 
 617              		.loc 1 359 0
 618 0016 0020     		movs	r0, #0
 619              	.LVL59:
 364:..\lvgl\lv_misc/lv_mem.c **** 
 620              		.loc 1 364 0
 621 0018 7047     		bx	lr
 622              	.L63:
 623 001a 00BF     		.align	2
 624              	.L62:
 625 001c 04800000 		.word	.LANCHOR1+2364
 626              		.cfi_endproc
 627              	.LFE6:
 628              		.size	lv_mem_get_size, .-lv_mem_get_size
 629              		.section	.text.lv_mem_realloc,"ax",%progbits
 630              		.align	2
 631              		.global	lv_mem_realloc
 632              		.thumb
 633              		.thumb_func
 634              		.type	lv_mem_realloc, %function
 635              	lv_mem_realloc:
 636              	.LFB3:
 221:..\lvgl\lv_misc/lv_mem.c ****     /*data_p could be previously freed pointer (in this case it is invalid)*/
 637              		.loc 1 221 0
 638              		.cfi_startproc
 639              		@ args = 0, pretend = 0, frame = 0
 640              		@ frame_needed = 0, uses_anonymous_args = 0
 641              	.LVL60:
 642 0000 F8B5     		push	{r3, r4, r5, r6, r7, lr}
 643              		.cfi_def_cfa_offset 24
 644              		.cfi_offset 3, -24
 645              		.cfi_offset 4, -20
 646              		.cfi_offset 5, -16
 647              		.cfi_offset 6, -12
 648              		.cfi_offset 7, -8
 649              		.cfi_offset 14, -4
 650 0002 0D46     		mov	r5, r1
 223:..\lvgl\lv_misc/lv_mem.c ****         lv_mem_ent_t * e = (lv_mem_ent_t *)((uint8_t *) data_p - sizeof(lv_mem_header_t));
 651              		.loc 1 223 0
 652 0004 0446     		mov	r4, r0
ARM GAS  C:\Users\d3bug\AppData\Local\Temp\cc2ZLKFo.s 			page 22


 653 0006 28B1     		cbz	r0, .L65
 654              	.LVL61:
 655              	.LBB4:
 225:..\lvgl\lv_misc/lv_mem.c ****             data_p = NULL;
 656              		.loc 1 225 0
 657 0008 10F8043C 		ldrb	r3, [r0, #-4]	@ zero_extendqisi2
 658 000c 13F0010F 		tst	r3, #1
 659 0010 00D1     		bne	.L65
 226:..\lvgl\lv_misc/lv_mem.c ****         }
 660              		.loc 1 226 0
 661 0012 0024     		movs	r4, #0
 662              	.LVL62:
 663              	.L65:
 664              	.LBE4:
 230:..\lvgl\lv_misc/lv_mem.c ****     if(old_size == new_size) return data_p;     /*Also avoid reallocating the same memory*/
 665              		.loc 1 230 0
 666 0014 2046     		mov	r0, r4
 667 0016 FFF7FEFF 		bl	lv_mem_get_size
 668              	.LVL63:
 669 001a 0746     		mov	r7, r0
 670              	.LVL64:
 231:..\lvgl\lv_misc/lv_mem.c **** 
 671              		.loc 1 231 0
 672 001c A842     		cmp	r0, r5
 673 001e 20D0     		beq	.L70
 236:..\lvgl\lv_misc/lv_mem.c ****         lv_mem_ent_t * e = (lv_mem_ent_t *)((uint8_t *) data_p - sizeof(lv_mem_header_t));
 674              		.loc 1 236 0
 675 0020 05D9     		bls	.L67
 676              	.LVL65:
 677              	.LBB5:
 238:..\lvgl\lv_misc/lv_mem.c ****         return &e->first_data;
 678              		.loc 1 238 0
 679 0022 2946     		mov	r1, r5
 680 0024 201F     		subs	r0, r4, #4
 681              	.LVL66:
 682 0026 FFF7FEFF 		bl	ent_trunc
 683              	.LVL67:
 239:..\lvgl\lv_misc/lv_mem.c ****     }
 684              		.loc 1 239 0
 685 002a 2046     		mov	r0, r4
 686 002c F8BD     		pop	{r3, r4, r5, r6, r7, pc}
 687              	.LVL68:
 688              	.L67:
 689              	.LBE5:
 244:..\lvgl\lv_misc/lv_mem.c **** 
 690              		.loc 1 244 0
 691 002e 2846     		mov	r0, r5
 692              	.LVL69:
 693 0030 FFF7FEFF 		bl	lv_mem_alloc
 694              	.LVL70:
 246:..\lvgl\lv_misc/lv_mem.c ****         /*Copy the old data to the new. Use the smaller size*/
 695              		.loc 1 246 0
 696 0034 0646     		mov	r6, r0
 697 0036 58B1     		cbz	r0, .L68
 246:..\lvgl\lv_misc/lv_mem.c ****         /*Copy the old data to the new. Use the smaller size*/
 698              		.loc 1 246 0 is_stmt 0 discriminator 1
 699 0038 54B1     		cbz	r4, .L68
ARM GAS  C:\Users\d3bug\AppData\Local\Temp\cc2ZLKFo.s 			page 23


 248:..\lvgl\lv_misc/lv_mem.c ****             memcpy(new_p, data_p, LV_MATH_MIN(new_size, old_size));
 700              		.loc 1 248 0 is_stmt 1
 701 003a 4FB1     		cbz	r7, .L68
 249:..\lvgl\lv_misc/lv_mem.c ****             lv_mem_free(data_p);
 702              		.loc 1 249 0
 703 003c 3A46     		mov	r2, r7
 704 003e AF42     		cmp	r7, r5
 705 0040 28BF     		it	cs
 706 0042 2A46     		movcs	r2, r5
 707 0044 2146     		mov	r1, r4
 708 0046 FFF7FEFF 		bl	memcpy
 709              	.LVL71:
 250:..\lvgl\lv_misc/lv_mem.c ****         }
 710              		.loc 1 250 0
 711 004a 2046     		mov	r0, r4
 712 004c FFF7FEFF 		bl	lv_mem_free
 713              	.LVL72:
 714              	.L68:
 255:..\lvgl\lv_misc/lv_mem.c **** 
 715              		.loc 1 255 0
 716 0050 4EB9     		cbnz	r6, .L71
 255:..\lvgl\lv_misc/lv_mem.c **** 
 717              		.loc 1 255 0 is_stmt 0 discriminator 1
 718 0052 064B     		ldr	r3, .L73
 719 0054 FF22     		movs	r2, #255
 720 0056 0649     		ldr	r1, .L73+4
 721 0058 0220     		movs	r0, #2
 722 005a FFF7FEFF 		bl	lv_log_add
 723              	.LVL73:
 257:..\lvgl\lv_misc/lv_mem.c **** }
 724              		.loc 1 257 0 is_stmt 1 discriminator 1
 725 005e 3046     		mov	r0, r6
 726 0060 F8BD     		pop	{r3, r4, r5, r6, r7, pc}
 727              	.LVL74:
 728              	.L70:
 231:..\lvgl\lv_misc/lv_mem.c **** 
 729              		.loc 1 231 0
 730 0062 2046     		mov	r0, r4
 731              	.LVL75:
 732 0064 F8BD     		pop	{r3, r4, r5, r6, r7, pc}
 733              	.LVL76:
 734              	.L71:
 257:..\lvgl\lv_misc/lv_mem.c **** }
 735              		.loc 1 257 0
 736 0066 3046     		mov	r0, r6
 258:..\lvgl\lv_misc/lv_mem.c **** 
 737              		.loc 1 258 0
 738 0068 F8BD     		pop	{r3, r4, r5, r6, r7, pc}
 739              	.LVL77:
 740              	.L74:
 741 006a 00BF     		.align	2
 742              	.L73:
 743 006c 00000000 		.word	.LC0
 744 0070 1C000000 		.word	.LC1
 745              		.cfi_endproc
 746              	.LFE3:
 747              		.size	lv_mem_realloc, .-lv_mem_realloc
ARM GAS  C:\Users\d3bug\AppData\Local\Temp\cc2ZLKFo.s 			page 24


 748              		.section	.rodata.str1.4,"aMS",%progbits,1
 749              		.align	2
 750              	.LC0:
 751 0000 436F756C 		.ascii	"Couldn't allocate memory\000"
 751      646E2774 
 751      20616C6C 
 751      6F636174 
 751      65206D65 
 752 0019 000000   		.space	3
 753              	.LC1:
 754 001c 2E2E5C6C 		.ascii	"..\\lvgl\\lv_misc\\lv_mem.c\000"
 754      76676C5C 
 754      6C765F6D 
 754      6973635C 
 754      6C765F6D 
 755              		.bss
 756              		.align	2
 757              		.set	.LANCHOR0,. + 0
 758              		.set	.LANCHOR1,. + 30408
 759              		.type	work_mem, %object
 760              		.size	work_mem, 4
 761              	work_mem:
 762 0000 00000000 		.space	4
 763              		.type	work_mem_int.4632, %object
 764              		.size	work_mem_int.4632, 32768
 765              	work_mem_int.4632:
 766 0004 00000000 		.space	32768
 766      00000000 
 766      00000000 
 766      00000000 
 766      00000000 
 767              		.type	zero_mem, %object
 768              		.size	zero_mem, 4
 769              	zero_mem:
 770 8004 00000000 		.space	4
 771              		.text
 772              	.Letext0:
 773              		.file 2 "c:\\program files (x86)\\cypress\\psoc creator\\4.2\\psoc creator\\import\\gnu\\arm\\5.4.
 774              		.file 3 "c:\\program files (x86)\\cypress\\psoc creator\\4.2\\psoc creator\\import\\gnu\\arm\\5.4.
 775              		.file 4 "..\\lvgl\\lv_misc\\lv_mem.h"
 776              		.file 5 "..\\lvgl\\lv_misc\\lv_log.h"