ARM GAS  C:\Users\d3bug\AppData\Local\Temp\ccpTinWG.s 			page 1


   1              		.syntax unified
   2              		.cpu cortex-m3
   3              		.fpu softvfp
   4              		.eabi_attribute 20, 1
   5              		.eabi_attribute 21, 1
   6              		.eabi_attribute 23, 3
   7              		.eabi_attribute 24, 1
   8              		.eabi_attribute 25, 1
   9              		.eabi_attribute 26, 1
  10              		.eabi_attribute 30, 1
  11              		.eabi_attribute 34, 1
  12              		.eabi_attribute 18, 4
  13              		.thumb
  14              		.syntax unified
  15              		.file	"lv_math.c"
  16              		.text
  17              	.Ltext0:
  18              		.cfi_sections	.debug_frame
  19              		.section	.text.lv_math_num_to_str,"ax",%progbits
  20              		.align	2
  21              		.global	lv_math_num_to_str
  22              		.thumb
  23              		.thumb_func
  24              		.type	lv_math_num_to_str, %function
  25              	lv_math_num_to_str:
  26              	.LFB0:
  27              		.file 1 "..\\lvgl\\lv_misc\\lv_math.c"
   1:..\lvgl\lv_misc/lv_math.c **** /**
   2:..\lvgl\lv_misc/lv_math.c ****  * @file lv_math.c
   3:..\lvgl\lv_misc/lv_math.c ****  *
   4:..\lvgl\lv_misc/lv_math.c ****  */
   5:..\lvgl\lv_misc/lv_math.c **** 
   6:..\lvgl\lv_misc/lv_math.c **** /*********************
   7:..\lvgl\lv_misc/lv_math.c ****  *      INCLUDES
   8:..\lvgl\lv_misc/lv_math.c ****  *********************/
   9:..\lvgl\lv_misc/lv_math.c **** #include "lv_math.h"
  10:..\lvgl\lv_misc/lv_math.c **** #include <stdbool.h>
  11:..\lvgl\lv_misc/lv_math.c **** 
  12:..\lvgl\lv_misc/lv_math.c **** /*********************
  13:..\lvgl\lv_misc/lv_math.c ****  *      DEFINES
  14:..\lvgl\lv_misc/lv_math.c ****  *********************/
  15:..\lvgl\lv_misc/lv_math.c **** 
  16:..\lvgl\lv_misc/lv_math.c **** /**********************
  17:..\lvgl\lv_misc/lv_math.c ****  *      TYPEDEFS
  18:..\lvgl\lv_misc/lv_math.c ****  **********************/
  19:..\lvgl\lv_misc/lv_math.c **** 
  20:..\lvgl\lv_misc/lv_math.c **** /**********************
  21:..\lvgl\lv_misc/lv_math.c ****  *  STATIC PROTOTYPES
  22:..\lvgl\lv_misc/lv_math.c ****  **********************/
  23:..\lvgl\lv_misc/lv_math.c **** 
  24:..\lvgl\lv_misc/lv_math.c **** /**********************
  25:..\lvgl\lv_misc/lv_math.c ****  *  STATIC VARIABLES
  26:..\lvgl\lv_misc/lv_math.c ****  **********************/
  27:..\lvgl\lv_misc/lv_math.c **** static int16_t sin0_90_table[] = {
  28:..\lvgl\lv_misc/lv_math.c ****     0,     572,    1144,   1715,   2286,   2856,   3425,   3993,   4560,   5126,
  29:..\lvgl\lv_misc/lv_math.c ****     5690,  6252,   6813,   7371,   7927,   8481,   9032,   9580,   10126,  10668,
  30:..\lvgl\lv_misc/lv_math.c ****     11207, 11743,  12275,  12803,  13328,  13848,  14364,  14876,  15383,  15886,
ARM GAS  C:\Users\d3bug\AppData\Local\Temp\ccpTinWG.s 			page 2


  31:..\lvgl\lv_misc/lv_math.c ****     16383, 16876,  17364,  17846,  18323,  18794,  19260,  19720,  20173,  20621,
  32:..\lvgl\lv_misc/lv_math.c ****     21062, 21497,  21925,  22347,  22762,  23170,  23571,  23964,  24351,  24730,
  33:..\lvgl\lv_misc/lv_math.c ****     25101, 25465,  25821,  26169,  26509,  26841,  27165,  27481,  27788,  28087,
  34:..\lvgl\lv_misc/lv_math.c ****     28377, 28659,  28932,  29196,  29451,  29697,  29934,  30162,  30381,  30591,
  35:..\lvgl\lv_misc/lv_math.c ****     30791, 30982,  31163,  31335,  31498,  31650,  31794,  31927,  32051,  32165,
  36:..\lvgl\lv_misc/lv_math.c ****     32269, 32364,  32448,  32523,  32587,  32642,  32687,  32722,  32747,  32762,
  37:..\lvgl\lv_misc/lv_math.c **** 	32767
  38:..\lvgl\lv_misc/lv_math.c **** };
  39:..\lvgl\lv_misc/lv_math.c **** 
  40:..\lvgl\lv_misc/lv_math.c **** 
  41:..\lvgl\lv_misc/lv_math.c **** /**********************
  42:..\lvgl\lv_misc/lv_math.c ****  *      MACROS
  43:..\lvgl\lv_misc/lv_math.c ****  **********************/
  44:..\lvgl\lv_misc/lv_math.c **** 
  45:..\lvgl\lv_misc/lv_math.c **** /**********************
  46:..\lvgl\lv_misc/lv_math.c ****  *   GLOBAL FUNCTIONS
  47:..\lvgl\lv_misc/lv_math.c ****  **********************/
  48:..\lvgl\lv_misc/lv_math.c **** 
  49:..\lvgl\lv_misc/lv_math.c **** /**
  50:..\lvgl\lv_misc/lv_math.c ****  * Convert a number to string
  51:..\lvgl\lv_misc/lv_math.c ****  * @param num a number
  52:..\lvgl\lv_misc/lv_math.c ****  * @param buf pointer to a `char` buffer. The result will be stored here (max 10 elements)
  53:..\lvgl\lv_misc/lv_math.c ****  * @return same as `buf` (just for convenience)
  54:..\lvgl\lv_misc/lv_math.c ****  */
  55:..\lvgl\lv_misc/lv_math.c **** char * lv_math_num_to_str(int32_t num, char * buf)
  56:..\lvgl\lv_misc/lv_math.c **** {
  28              		.loc 1 56 0
  29              		.cfi_startproc
  30              		@ args = 0, pretend = 0, frame = 0
  31              		@ frame_needed = 0, uses_anonymous_args = 0
  32              		@ link register save eliminated.
  33              	.LVL0:
  57:..\lvgl\lv_misc/lv_math.c ****     char * buf_ori = buf;
  58:..\lvgl\lv_misc/lv_math.c ****     if(num == 0) {
  34              		.loc 1 58 0
  35 0000 28B9     		cbnz	r0, .L2
  59:..\lvgl\lv_misc/lv_math.c ****         buf[0] = '0';
  36              		.loc 1 59 0
  37 0002 3023     		movs	r3, #48
  38 0004 0B70     		strb	r3, [r1]
  60:..\lvgl\lv_misc/lv_math.c ****         buf[1] = '\0';
  39              		.loc 1 60 0
  40 0006 0023     		movs	r3, #0
  41 0008 4B70     		strb	r3, [r1, #1]
  61:..\lvgl\lv_misc/lv_math.c ****         return buf;
  62:..\lvgl\lv_misc/lv_math.c ****     } else if(num < 0) {
  63:..\lvgl\lv_misc/lv_math.c ****         (*buf) = '-';
  64:..\lvgl\lv_misc/lv_math.c ****         buf++;
  65:..\lvgl\lv_misc/lv_math.c ****         num = LV_MATH_ABS(num);
  66:..\lvgl\lv_misc/lv_math.c ****     }
  67:..\lvgl\lv_misc/lv_math.c ****     uint32_t output = 0;
  68:..\lvgl\lv_misc/lv_math.c ****     int8_t i;
  69:..\lvgl\lv_misc/lv_math.c **** 
  70:..\lvgl\lv_misc/lv_math.c ****     for(i = 31; i >= 0; i--) {
  71:..\lvgl\lv_misc/lv_math.c ****         if((output & 0xF) >= 5)
  72:..\lvgl\lv_misc/lv_math.c ****             output += 3;
  73:..\lvgl\lv_misc/lv_math.c ****         if(((output & 0xF0) >> 4) >= 5)
ARM GAS  C:\Users\d3bug\AppData\Local\Temp\ccpTinWG.s 			page 3


  74:..\lvgl\lv_misc/lv_math.c ****             output += (3 << 4);
  75:..\lvgl\lv_misc/lv_math.c ****         if(((output & 0xF00) >> 8) >= 5)
  76:..\lvgl\lv_misc/lv_math.c ****             output += (3 << 8);
  77:..\lvgl\lv_misc/lv_math.c ****         if(((output & 0xF000) >> 12) >= 5)
  78:..\lvgl\lv_misc/lv_math.c ****             output += (3 << 12);
  79:..\lvgl\lv_misc/lv_math.c ****         if(((output & 0xF0000) >> 16) >= 5)
  80:..\lvgl\lv_misc/lv_math.c ****             output += (3 << 16);
  81:..\lvgl\lv_misc/lv_math.c ****         if(((output & 0xF00000) >> 20) >= 5)
  82:..\lvgl\lv_misc/lv_math.c ****             output += (3 << 20);
  83:..\lvgl\lv_misc/lv_math.c ****         if(((output & 0xF000000) >> 24) >= 5)
  84:..\lvgl\lv_misc/lv_math.c ****             output += (3 << 24);
  85:..\lvgl\lv_misc/lv_math.c ****         if(((output & 0xF0000000) >> 28) >= 5)
  86:..\lvgl\lv_misc/lv_math.c ****             output += (3 << 28);
  87:..\lvgl\lv_misc/lv_math.c ****         output = (output << 1) | ((num >> i) & 1);
  88:..\lvgl\lv_misc/lv_math.c ****     }
  89:..\lvgl\lv_misc/lv_math.c **** 
  90:..\lvgl\lv_misc/lv_math.c ****     uint8_t digit;
  91:..\lvgl\lv_misc/lv_math.c ****     bool leading_zero_ready = false;
  92:..\lvgl\lv_misc/lv_math.c ****     for(i = 28; i >= 0; i -= 4) {
  93:..\lvgl\lv_misc/lv_math.c ****         digit = ((output >> i) & 0xF) + '0';
  94:..\lvgl\lv_misc/lv_math.c ****         if(digit == '0' && leading_zero_ready == false) continue;
  95:..\lvgl\lv_misc/lv_math.c **** 
  96:..\lvgl\lv_misc/lv_math.c ****         leading_zero_ready = true;
  97:..\lvgl\lv_misc/lv_math.c ****         (*buf) = digit;
  98:..\lvgl\lv_misc/lv_math.c ****         buf++;
  99:..\lvgl\lv_misc/lv_math.c ****     }
 100:..\lvgl\lv_misc/lv_math.c **** 
 101:..\lvgl\lv_misc/lv_math.c ****     (*buf) = '\0';
 102:..\lvgl\lv_misc/lv_math.c **** 
 103:..\lvgl\lv_misc/lv_math.c ****     return buf_ori;
 104:..\lvgl\lv_misc/lv_math.c **** }
  42              		.loc 1 104 0
  43 000a 0846     		mov	r0, r1
  44              	.LVL1:
  45 000c 7047     		bx	lr
  46              	.LVL2:
  47              	.L2:
  56:..\lvgl\lv_misc/lv_math.c ****     char * buf_ori = buf;
  48              		.loc 1 56 0
  49 000e 30B4     		push	{r4, r5}
  50              		.cfi_def_cfa_offset 8
  51              		.cfi_offset 4, -8
  52              		.cfi_offset 5, -4
  53 0010 0446     		mov	r4, r0
  62:..\lvgl\lv_misc/lv_math.c ****         (*buf) = '-';
  54              		.loc 1 62 0
  55 0012 0028     		cmp	r0, #0
  56 0014 07DA     		bge	.L19
  63:..\lvgl\lv_misc/lv_math.c ****         buf++;
  57              		.loc 1 63 0
  58 0016 0D46     		mov	r5, r1
  59 0018 2D23     		movs	r3, #45
  60 001a 05F8013B 		strb	r3, [r5], #1
  61              	.LVL3:
  65:..\lvgl\lv_misc/lv_math.c ****     }
  62              		.loc 1 65 0
  63 001e 0028     		cmp	r0, #0
ARM GAS  C:\Users\d3bug\AppData\Local\Temp\ccpTinWG.s 			page 4


  64 0020 B8BF     		it	lt
  65 0022 4442     		rsblt	r4, r0, #0
  66              	.LVL4:
  67 0024 00E0     		b	.L4
  68              	.LVL5:
  69              	.L19:
  70 0026 0D46     		mov	r5, r1
  71              	.LVL6:
  72              	.L4:
  70:..\lvgl\lv_misc/lv_math.c ****         if((output & 0xF) >= 5)
  73              		.loc 1 70 0
  74 0028 1F22     		movs	r2, #31
  67:..\lvgl\lv_misc/lv_math.c ****     int8_t i;
  75              		.loc 1 67 0
  76 002a 0023     		movs	r3, #0
  70:..\lvgl\lv_misc/lv_math.c ****         if((output & 0xF) >= 5)
  77              		.loc 1 70 0
  78 002c 34E0     		b	.L5
  79              	.LVL7:
  80              	.L14:
  71:..\lvgl\lv_misc/lv_math.c ****             output += 3;
  81              		.loc 1 71 0
  82 002e 03F00F00 		and	r0, r3, #15
  83 0032 0428     		cmp	r0, #4
  84 0034 00D9     		bls	.L6
  72:..\lvgl\lv_misc/lv_math.c ****         if(((output & 0xF0) >> 4) >= 5)
  85              		.loc 1 72 0
  86 0036 0333     		adds	r3, r3, #3
  87              	.LVL8:
  88              	.L6:
  73:..\lvgl\lv_misc/lv_math.c ****             output += (3 << 4);
  89              		.loc 1 73 0
  90 0038 C3F30310 		ubfx	r0, r3, #4, #4
  91 003c 0428     		cmp	r0, #4
  92 003e 00D9     		bls	.L7
  74:..\lvgl\lv_misc/lv_math.c ****         if(((output & 0xF00) >> 8) >= 5)
  93              		.loc 1 74 0
  94 0040 3033     		adds	r3, r3, #48
  95              	.LVL9:
  96              	.L7:
  75:..\lvgl\lv_misc/lv_math.c ****             output += (3 << 8);
  97              		.loc 1 75 0
  98 0042 C3F30320 		ubfx	r0, r3, #8, #4
  99 0046 0428     		cmp	r0, #4
 100 0048 01D9     		bls	.L8
  76:..\lvgl\lv_misc/lv_math.c ****         if(((output & 0xF000) >> 12) >= 5)
 101              		.loc 1 76 0
 102 004a 03F54073 		add	r3, r3, #768
 103              	.LVL10:
 104              	.L8:
  77:..\lvgl\lv_misc/lv_math.c ****             output += (3 << 12);
 105              		.loc 1 77 0
 106 004e C3F30330 		ubfx	r0, r3, #12, #4
 107 0052 0428     		cmp	r0, #4
 108 0054 01D9     		bls	.L9
  78:..\lvgl\lv_misc/lv_math.c ****         if(((output & 0xF0000) >> 16) >= 5)
 109              		.loc 1 78 0
ARM GAS  C:\Users\d3bug\AppData\Local\Temp\ccpTinWG.s 			page 5


 110 0056 03F54053 		add	r3, r3, #12288
 111              	.LVL11:
 112              	.L9:
  79:..\lvgl\lv_misc/lv_math.c ****             output += (3 << 16);
 113              		.loc 1 79 0
 114 005a C3F30340 		ubfx	r0, r3, #16, #4
 115 005e 0428     		cmp	r0, #4
 116 0060 01D9     		bls	.L10
  80:..\lvgl\lv_misc/lv_math.c ****         if(((output & 0xF00000) >> 20) >= 5)
 117              		.loc 1 80 0
 118 0062 03F54033 		add	r3, r3, #196608
 119              	.LVL12:
 120              	.L10:
  81:..\lvgl\lv_misc/lv_math.c ****             output += (3 << 20);
 121              		.loc 1 81 0
 122 0066 C3F30350 		ubfx	r0, r3, #20, #4
 123 006a 0428     		cmp	r0, #4
 124 006c 01D9     		bls	.L11
  82:..\lvgl\lv_misc/lv_math.c ****         if(((output & 0xF000000) >> 24) >= 5)
 125              		.loc 1 82 0
 126 006e 03F54013 		add	r3, r3, #3145728
 127              	.LVL13:
 128              	.L11:
  83:..\lvgl\lv_misc/lv_math.c ****             output += (3 << 24);
 129              		.loc 1 83 0
 130 0072 C3F30360 		ubfx	r0, r3, #24, #4
 131 0076 0428     		cmp	r0, #4
 132 0078 01D9     		bls	.L12
  84:..\lvgl\lv_misc/lv_math.c ****         if(((output & 0xF0000000) >> 28) >= 5)
 133              		.loc 1 84 0
 134 007a 03F14073 		add	r3, r3, #50331648
 135              	.LVL14:
 136              	.L12:
  85:..\lvgl\lv_misc/lv_math.c ****             output += (3 << 28);
 137              		.loc 1 85 0
 138 007e B3F1A04F 		cmp	r3, #1342177280
 139 0082 01D3     		bcc	.L13
  86:..\lvgl\lv_misc/lv_math.c ****         output = (output << 1) | ((num >> i) & 1);
 140              		.loc 1 86 0
 141 0084 03F14053 		add	r3, r3, #805306368
 142              	.LVL15:
 143              	.L13:
  87:..\lvgl\lv_misc/lv_math.c ****     }
 144              		.loc 1 87 0 discriminator 2
 145 0088 44FA02F0 		asr	r0, r4, r2
 146 008c 00F00100 		and	r0, r0, #1
 147 0090 40EA4303 		orr	r3, r0, r3, lsl #1
 148              	.LVL16:
  70:..\lvgl\lv_misc/lv_math.c ****         if((output & 0xF) >= 5)
 149              		.loc 1 70 0 discriminator 2
 150 0094 013A     		subs	r2, r2, #1
 151              	.LVL17:
 152 0096 52B2     		sxtb	r2, r2
 153              	.LVL18:
 154              	.L5:
  70:..\lvgl\lv_misc/lv_math.c ****         if((output & 0xF) >= 5)
 155              		.loc 1 70 0 is_stmt 0 discriminator 1
ARM GAS  C:\Users\d3bug\AppData\Local\Temp\ccpTinWG.s 			page 6


 156 0098 002A     		cmp	r2, #0
 157 009a C8DA     		bge	.L14
 158 009c 0024     		movs	r4, #0
 159              	.LVL19:
 160 009e 1C20     		movs	r0, #28
 161 00a0 0CE0     		b	.L15
 162              	.LVL20:
 163              	.L18:
  93:..\lvgl\lv_misc/lv_math.c ****         if(digit == '0' && leading_zero_ready == false) continue;
 164              		.loc 1 93 0 is_stmt 1
 165 00a2 23FA00F2 		lsr	r2, r3, r0
 166 00a6 02F00F02 		and	r2, r2, #15
 167 00aa 3032     		adds	r2, r2, #48
 168              	.LVL21:
  94:..\lvgl\lv_misc/lv_math.c **** 
 169              		.loc 1 94 0
 170 00ac 302A     		cmp	r2, #48
 171 00ae 00D1     		bne	.L16
  94:..\lvgl\lv_misc/lv_math.c **** 
 172              		.loc 1 94 0 is_stmt 0 discriminator 1
 173 00b0 14B1     		cbz	r4, .L17
 174              	.L16:
 175              	.LVL22:
  97:..\lvgl\lv_misc/lv_math.c ****         buf++;
 176              		.loc 1 97 0 is_stmt 1
 177 00b2 05F8012B 		strb	r2, [r5], #1
 178              	.LVL23:
  96:..\lvgl\lv_misc/lv_math.c ****         (*buf) = digit;
 179              		.loc 1 96 0
 180 00b6 0124     		movs	r4, #1
 181              	.LVL24:
 182              	.L17:
  92:..\lvgl\lv_misc/lv_math.c ****         digit = ((output >> i) & 0xF) + '0';
 183              		.loc 1 92 0 discriminator 2
 184 00b8 0438     		subs	r0, r0, #4
 185              	.LVL25:
 186 00ba 40B2     		sxtb	r0, r0
 187              	.LVL26:
 188              	.L15:
  92:..\lvgl\lv_misc/lv_math.c ****         digit = ((output >> i) & 0xF) + '0';
 189              		.loc 1 92 0 is_stmt 0 discriminator 1
 190 00bc 0028     		cmp	r0, #0
 191 00be F0DA     		bge	.L18
 101:..\lvgl\lv_misc/lv_math.c **** 
 192              		.loc 1 101 0 is_stmt 1
 193 00c0 0023     		movs	r3, #0
 194              	.LVL27:
 195 00c2 2B70     		strb	r3, [r5]
 196              		.loc 1 104 0
 197 00c4 0846     		mov	r0, r1
 198              	.LVL28:
 199 00c6 30BC     		pop	{r4, r5}
 200              		.cfi_restore 5
 201              		.cfi_restore 4
 202              		.cfi_def_cfa_offset 0
 203              	.LVL29:
 204 00c8 7047     		bx	lr
ARM GAS  C:\Users\d3bug\AppData\Local\Temp\ccpTinWG.s 			page 7


 205              		.cfi_endproc
 206              	.LFE0:
 207              		.size	lv_math_num_to_str, .-lv_math_num_to_str
 208 00ca 00BF     		.section	.text.lv_trigo_sin,"ax",%progbits
 209              		.align	2
 210              		.global	lv_trigo_sin
 211              		.thumb
 212              		.thumb_func
 213              		.type	lv_trigo_sin, %function
 214              	lv_trigo_sin:
 215              	.LFB1:
 105:..\lvgl\lv_misc/lv_math.c **** 
 106:..\lvgl\lv_misc/lv_math.c **** /**
 107:..\lvgl\lv_misc/lv_math.c ****  * Return with sinus of an angle
 108:..\lvgl\lv_misc/lv_math.c ****  * @param angle
 109:..\lvgl\lv_misc/lv_math.c ****  * @return sinus of 'angle'. sin(-90) = -32767, sin(90) = 32767
 110:..\lvgl\lv_misc/lv_math.c ****  */
 111:..\lvgl\lv_misc/lv_math.c **** int16_t lv_trigo_sin(int16_t angle)
 112:..\lvgl\lv_misc/lv_math.c **** {
 216              		.loc 1 112 0
 217              		.cfi_startproc
 218              		@ args = 0, pretend = 0, frame = 0
 219              		@ frame_needed = 0, uses_anonymous_args = 0
 220              		@ link register save eliminated.
 221              	.LVL30:
 113:..\lvgl\lv_misc/lv_math.c ****     int16_t ret = 0;
 114:..\lvgl\lv_misc/lv_math.c ****     angle = angle % 360;
 222              		.loc 1 114 0
 223 0000 1B4A     		ldr	r2, .L27
 224 0002 80FB0223 		smull	r2, r3, r0, r2
 225 0006 C218     		adds	r2, r0, r3
 226 0008 C317     		asrs	r3, r0, #31
 227 000a C3EB2223 		rsb	r3, r3, r2, asr #8
 228 000e 4FF4B472 		mov	r2, #360
 229 0012 02FB1300 		mls	r0, r2, r3, r0
 230              	.LVL31:
 231 0016 00B2     		sxth	r0, r0
 232              	.LVL32:
 115:..\lvgl\lv_misc/lv_math.c **** 
 116:..\lvgl\lv_misc/lv_math.c ****     if(angle < 0) angle = 360 + angle;
 233              		.loc 1 116 0
 234 0018 0028     		cmp	r0, #0
 235 001a 01DA     		bge	.L22
 236              		.loc 1 116 0 is_stmt 0 discriminator 1
 237 001c 1044     		add	r0, r0, r2
 238              	.LVL33:
 239 001e 00B2     		sxth	r0, r0
 240              	.LVL34:
 241              	.L22:
 117:..\lvgl\lv_misc/lv_math.c **** 
 118:..\lvgl\lv_misc/lv_math.c ****     if(angle < 90) {
 242              		.loc 1 118 0 is_stmt 1
 243 0020 5928     		cmp	r0, #89
 244 0022 03DC     		bgt	.L23
 119:..\lvgl\lv_misc/lv_math.c ****         ret = sin0_90_table[angle];
 245              		.loc 1 119 0
 246 0024 134B     		ldr	r3, .L27+4
ARM GAS  C:\Users\d3bug\AppData\Local\Temp\ccpTinWG.s 			page 8


 247 0026 33F91000 		ldrsh	r0, [r3, r0, lsl #1]
 248              	.LVL35:
 249 002a 7047     		bx	lr
 250              	.LVL36:
 251              	.L23:
 120:..\lvgl\lv_misc/lv_math.c ****     } else if(angle >= 90 && angle < 180) {
 252              		.loc 1 120 0
 253 002c 80B2     		uxth	r0, r0
 254 002e A0F15A03 		sub	r3, r0, #90
 255 0032 9BB2     		uxth	r3, r3
 256 0034 592B     		cmp	r3, #89
 257 0036 06D8     		bhi	.L25
 121:..\lvgl\lv_misc/lv_math.c ****         angle = 180 - angle;
 258              		.loc 1 121 0
 259 0038 C0F1B400 		rsb	r0, r0, #180
 260              	.LVL37:
 261 003c 00B2     		sxth	r0, r0
 262              	.LVL38:
 122:..\lvgl\lv_misc/lv_math.c ****         ret = sin0_90_table[angle];
 263              		.loc 1 122 0
 264 003e 0D4B     		ldr	r3, .L27+4
 265 0040 33F91000 		ldrsh	r0, [r3, r0, lsl #1]
 266              	.LVL39:
 267 0044 7047     		bx	lr
 268              	.LVL40:
 269              	.L25:
 123:..\lvgl\lv_misc/lv_math.c ****     } else if(angle >= 180 && angle < 270) {
 270              		.loc 1 123 0
 271 0046 A0F1B403 		sub	r3, r0, #180
 272 004a 9BB2     		uxth	r3, r3
 273 004c 592B     		cmp	r3, #89
 274 004e 06D8     		bhi	.L26
 124:..\lvgl\lv_misc/lv_math.c ****         angle = angle - 180;
 275              		.loc 1 124 0
 276 0050 1BB2     		sxth	r3, r3
 277              	.LVL41:
 125:..\lvgl\lv_misc/lv_math.c ****         ret = - sin0_90_table[angle];
 278              		.loc 1 125 0
 279 0052 084A     		ldr	r2, .L27+4
 280 0054 32F91300 		ldrsh	r0, [r2, r3, lsl #1]
 281 0058 4042     		negs	r0, r0
 282 005a 00B2     		sxth	r0, r0
 283              	.LVL42:
 284 005c 7047     		bx	lr
 285              	.LVL43:
 286              	.L26:
 126:..\lvgl\lv_misc/lv_math.c ****     } else { /*angle >=270*/
 127:..\lvgl\lv_misc/lv_math.c ****         angle = 360 - angle;
 287              		.loc 1 127 0
 288 005e C0F5B470 		rsb	r0, r0, #360
 289              	.LVL44:
 290 0062 00B2     		sxth	r0, r0
 291              	.LVL45:
 128:..\lvgl\lv_misc/lv_math.c ****         ret = - sin0_90_table[angle];
 292              		.loc 1 128 0
 293 0064 034B     		ldr	r3, .L27+4
 294 0066 33F91000 		ldrsh	r0, [r3, r0, lsl #1]
ARM GAS  C:\Users\d3bug\AppData\Local\Temp\ccpTinWG.s 			page 9


 295              	.LVL46:
 296 006a 4042     		negs	r0, r0
 297 006c 00B2     		sxth	r0, r0
 298              	.LVL47:
 129:..\lvgl\lv_misc/lv_math.c ****     }
 130:..\lvgl\lv_misc/lv_math.c **** 
 131:..\lvgl\lv_misc/lv_math.c ****     return ret;
 132:..\lvgl\lv_misc/lv_math.c **** }
 299              		.loc 1 132 0
 300 006e 7047     		bx	lr
 301              	.L28:
 302              		.align	2
 303              	.L27:
 304 0070 B7600BB6 		.word	-1240768329
 305 0074 00000000 		.word	.LANCHOR0
 306              		.cfi_endproc
 307              	.LFE1:
 308              		.size	lv_trigo_sin, .-lv_trigo_sin
 309              		.section	.text.lv_bezier3,"ax",%progbits
 310              		.align	2
 311              		.global	lv_bezier3
 312              		.thumb
 313              		.thumb_func
 314              		.type	lv_bezier3, %function
 315              	lv_bezier3:
 316              	.LFB2:
 133:..\lvgl\lv_misc/lv_math.c **** 
 134:..\lvgl\lv_misc/lv_math.c **** /**
 135:..\lvgl\lv_misc/lv_math.c ****  * Calculate a value of a Cubic Bezier function.
 136:..\lvgl\lv_misc/lv_math.c ****  * @param t time in range of [0..LV_BEZIER_VAL_MAX]
 137:..\lvgl\lv_misc/lv_math.c ****  * @param u0 start values in range of [0..LV_BEZIER_VAL_MAX]
 138:..\lvgl\lv_misc/lv_math.c ****  * @param u1 control value 1 values in range of [0..LV_BEZIER_VAL_MAX]
 139:..\lvgl\lv_misc/lv_math.c ****  * @param u2 control value 2 in range of [0..LV_BEZIER_VAL_MAX]
 140:..\lvgl\lv_misc/lv_math.c ****  * @param u3 end values in range of [0..LV_BEZIER_VAL_MAX]
 141:..\lvgl\lv_misc/lv_math.c ****  * @return the value calculated from the given parameters in range of [0..LV_BEZIER_VAL_MAX]
 142:..\lvgl\lv_misc/lv_math.c ****  */
 143:..\lvgl\lv_misc/lv_math.c **** int32_t lv_bezier3(uint32_t t, int32_t u0, int32_t u1, int32_t u2, int32_t u3)
 144:..\lvgl\lv_misc/lv_math.c **** {
 317              		.loc 1 144 0
 318              		.cfi_startproc
 319              		@ args = 4, pretend = 0, frame = 0
 320              		@ frame_needed = 0, uses_anonymous_args = 0
 321              	.LVL48:
 322 0000 F0B5     		push	{r4, r5, r6, r7, lr}
 323              		.cfi_def_cfa_offset 20
 324              		.cfi_offset 4, -20
 325              		.cfi_offset 5, -16
 326              		.cfi_offset 6, -12
 327              		.cfi_offset 7, -8
 328              		.cfi_offset 14, -4
 145:..\lvgl\lv_misc/lv_math.c ****     uint32_t t_rem = 1024 - t;
 329              		.loc 1 145 0
 330 0002 C0F58067 		rsb	r7, r0, #1024
 331              	.LVL49:
 146:..\lvgl\lv_misc/lv_math.c ****     uint32_t t_rem2 = (t_rem * t_rem) >> 10;
 332              		.loc 1 146 0
 333 0006 07FB07F4 		mul	r4, r7, r7
ARM GAS  C:\Users\d3bug\AppData\Local\Temp\ccpTinWG.s 			page 10


 334 000a A40A     		lsrs	r4, r4, #10
 335              	.LVL50:
 147:..\lvgl\lv_misc/lv_math.c ****     uint32_t t_rem3 = (t_rem2 * t_rem) >> 10;
 336              		.loc 1 147 0
 337 000c 04FB07FE 		mul	lr, r4, r7
 338 0010 4FEA9E2E 		lsr	lr, lr, #10
 339              	.LVL51:
 148:..\lvgl\lv_misc/lv_math.c ****     uint32_t t2 = (t * t) >> 10;
 340              		.loc 1 148 0
 341 0014 00FB00F5 		mul	r5, r0, r0
 342 0018 AD0A     		lsrs	r5, r5, #10
 343              	.LVL52:
 149:..\lvgl\lv_misc/lv_math.c ****     uint32_t t3 = (t2 * t) >> 10;
 344              		.loc 1 149 0
 345 001a 05FB00F6 		mul	r6, r5, r0
 346 001e B60A     		lsrs	r6, r6, #10
 347              	.LVL53:
 150:..\lvgl\lv_misc/lv_math.c **** 
 151:..\lvgl\lv_misc/lv_math.c **** 
 152:..\lvgl\lv_misc/lv_math.c ****     uint32_t v1 = ((uint32_t)t_rem3 * u0) >> 10;
 348              		.loc 1 152 0
 349 0020 0EFB01F1 		mul	r1, lr, r1
 350              	.LVL54:
 153:..\lvgl\lv_misc/lv_math.c ****     uint32_t v2 = ((uint32_t)3 * t_rem2 * t * u1) >> 20;
 351              		.loc 1 153 0
 352 0024 04FB00F4 		mul	r4, r4, r0
 353              	.LVL55:
 354 0028 04FB02F2 		mul	r2, r4, r2
 355              	.LVL56:
 356 002c 02EB4202 		add	r2, r2, r2, lsl #1
 357 0030 120D     		lsrs	r2, r2, #20
 358              	.LVL57:
 154:..\lvgl\lv_misc/lv_math.c ****     uint32_t v3 = ((uint32_t)3 * t_rem * t2 * u2) >> 20;
 359              		.loc 1 154 0
 360 0032 05FB07F5 		mul	r5, r5, r7
 361              	.LVL58:
 362 0036 05FB03F3 		mul	r3, r5, r3
 363              	.LVL59:
 364 003a 03EB4303 		add	r3, r3, r3, lsl #1
 365              	.LVL60:
 155:..\lvgl\lv_misc/lv_math.c ****     uint32_t v4 = ((uint32_t)t3 * u3) >> 10;
 366              		.loc 1 155 0
 367 003e 0598     		ldr	r0, [sp, #20]
 368              	.LVL61:
 369 0040 06FB00F0 		mul	r0, r6, r0
 370              	.LVL62:
 156:..\lvgl\lv_misc/lv_math.c **** 
 157:..\lvgl\lv_misc/lv_math.c ****     return v1 + v2 + v3 + v4;
 371              		.loc 1 157 0
 372 0044 02EB9122 		add	r2, r2, r1, lsr #10
 373              	.LVL63:
 374 0048 02EB1352 		add	r2, r2, r3, lsr #20
 158:..\lvgl\lv_misc/lv_math.c **** 
 159:..\lvgl\lv_misc/lv_math.c **** }
 375              		.loc 1 159 0
 376 004c 02EB9020 		add	r0, r2, r0, lsr #10
 377              	.LVL64:
ARM GAS  C:\Users\d3bug\AppData\Local\Temp\ccpTinWG.s 			page 11


 378 0050 F0BD     		pop	{r4, r5, r6, r7, pc}
 379              		.cfi_endproc
 380              	.LFE2:
 381              		.size	lv_bezier3, .-lv_bezier3
 382 0052 00BF     		.section	.rodata
 383              		.align	2
 384              		.set	.LANCHOR0,. + 0
 385              		.type	sin0_90_table, %object
 386              		.size	sin0_90_table, 182
 387              	sin0_90_table:
 388 0000 0000     		.short	0
 389 0002 3C02     		.short	572
 390 0004 7804     		.short	1144
 391 0006 B306     		.short	1715
 392 0008 EE08     		.short	2286
 393 000a 280B     		.short	2856
 394 000c 610D     		.short	3425
 395 000e 990F     		.short	3993
 396 0010 D011     		.short	4560
 397 0012 0614     		.short	5126
 398 0014 3A16     		.short	5690
 399 0016 6C18     		.short	6252
 400 0018 9D1A     		.short	6813
 401 001a CB1C     		.short	7371
 402 001c F71E     		.short	7927
 403 001e 2121     		.short	8481
 404 0020 4823     		.short	9032
 405 0022 6C25     		.short	9580
 406 0024 8E27     		.short	10126
 407 0026 AC29     		.short	10668
 408 0028 C72B     		.short	11207
 409 002a DF2D     		.short	11743
 410 002c F32F     		.short	12275
 411 002e 0332     		.short	12803
 412 0030 1034     		.short	13328
 413 0032 1836     		.short	13848
 414 0034 1C38     		.short	14364
 415 0036 1C3A     		.short	14876
 416 0038 173C     		.short	15383
 417 003a 0E3E     		.short	15886
 418 003c FF3F     		.short	16383
 419 003e EC41     		.short	16876
 420 0040 D443     		.short	17364
 421 0042 B645     		.short	17846
 422 0044 9347     		.short	18323
 423 0046 6A49     		.short	18794
 424 0048 3C4B     		.short	19260
 425 004a 084D     		.short	19720
 426 004c CD4E     		.short	20173
 427 004e 8D50     		.short	20621
 428 0050 4652     		.short	21062
 429 0052 F953     		.short	21497
 430 0054 A555     		.short	21925
 431 0056 4B57     		.short	22347
 432 0058 EA58     		.short	22762
 433 005a 825A     		.short	23170
 434 005c 135C     		.short	23571
ARM GAS  C:\Users\d3bug\AppData\Local\Temp\ccpTinWG.s 			page 12


 435 005e 9C5D     		.short	23964
 436 0060 1F5F     		.short	24351
 437 0062 9A60     		.short	24730
 438 0064 0D62     		.short	25101
 439 0066 7963     		.short	25465
 440 0068 DD64     		.short	25821
 441 006a 3966     		.short	26169
 442 006c 8D67     		.short	26509
 443 006e D968     		.short	26841
 444 0070 1D6A     		.short	27165
 445 0072 596B     		.short	27481
 446 0074 8C6C     		.short	27788
 447 0076 B76D     		.short	28087
 448 0078 D96E     		.short	28377
 449 007a F36F     		.short	28659
 450 007c 0471     		.short	28932
 451 007e 0C72     		.short	29196
 452 0080 0B73     		.short	29451
 453 0082 0174     		.short	29697
 454 0084 EE74     		.short	29934
 455 0086 D275     		.short	30162
 456 0088 AD76     		.short	30381
 457 008a 7F77     		.short	30591
 458 008c 4778     		.short	30791
 459 008e 0679     		.short	30982
 460 0090 BB79     		.short	31163
 461 0092 677A     		.short	31335
 462 0094 0A7B     		.short	31498
 463 0096 A27B     		.short	31650
 464 0098 327C     		.short	31794
 465 009a B77C     		.short	31927
 466 009c 337D     		.short	32051
 467 009e A57D     		.short	32165
 468 00a0 0D7E     		.short	32269
 469 00a2 6C7E     		.short	32364
 470 00a4 C07E     		.short	32448
 471 00a6 0B7F     		.short	32523
 472 00a8 4B7F     		.short	32587
 473 00aa 827F     		.short	32642
 474 00ac AF7F     		.short	32687
 475 00ae D27F     		.short	32722
 476 00b0 EB7F     		.short	32747
 477 00b2 FA7F     		.short	32762
 478 00b4 FF7F     		.short	32767
 479              		.text
 480              	.Letext0:
 481              		.file 2 "c:\\program files (x86)\\cypress\\psoc creator\\4.2\\psoc creator\\import\\gnu\\arm\\5.4.
 482              		.file 3 "c:\\program files (x86)\\cypress\\psoc creator\\4.2\\psoc creator\\import\\gnu\\arm\\5.4.