ARM GAS  C:\Users\d3bug\AppData\Local\Temp\ccFiAZjI.s 			page 1


   1              		.syntax unified
   2              		.cpu cortex-m3
   3              		.fpu softvfp
   4              		.eabi_attribute 20, 1
   5              		.eabi_attribute 21, 1
   6              		.eabi_attribute 23, 3
   7              		.eabi_attribute 24, 1
   8              		.eabi_attribute 25, 1
   9              		.eabi_attribute 26, 1
  10              		.eabi_attribute 30, 1
  11              		.eabi_attribute 34, 1
  12              		.eabi_attribute 18, 4
  13              		.thumb
  14              		.syntax unified
  15              		.file	"lv_obj.c"
  16              		.text
  17              	.Ltext0:
  18              		.cfi_sections	.debug_frame
  19              		.section	.text.refresh_childen_position,"ax",%progbits
  20              		.align	2
  21              		.thumb
  22              		.thumb_func
  23              		.type	refresh_childen_position, %function
  24              	refresh_childen_position:
  25              	.LFB82:
  26              		.file 1 "..\\lvgl\\lv_core\\lv_obj.c"
   1:..\lvgl\lv_core/lv_obj.c **** /**
   2:..\lvgl\lv_core/lv_obj.c ****  * @file lv_base_obj.c
   3:..\lvgl\lv_core/lv_obj.c ****  *
   4:..\lvgl\lv_core/lv_obj.c ****  */
   5:..\lvgl\lv_core/lv_obj.c **** 
   6:..\lvgl\lv_core/lv_obj.c **** /*********************
   7:..\lvgl\lv_core/lv_obj.c ****  *      INCLUDES
   8:..\lvgl\lv_core/lv_obj.c ****  *********************/
   9:..\lvgl\lv_core/lv_obj.c **** #include "lv_obj.h"
  10:..\lvgl\lv_core/lv_obj.c **** #include "lv_indev.h"
  11:..\lvgl\lv_core/lv_obj.c **** #include "lv_refr.h"
  12:..\lvgl\lv_core/lv_obj.c **** #include "lv_group.h"
  13:..\lvgl\lv_core/lv_obj.c **** #include "../lv_themes/lv_theme.h"
  14:..\lvgl\lv_core/lv_obj.c **** #include "../lv_draw/lv_draw.h"
  15:..\lvgl\lv_core/lv_obj.c **** #include "../lv_draw/lv_draw_rbasic.h"
  16:..\lvgl\lv_core/lv_obj.c **** #include "../lv_misc/lv_anim.h"
  17:..\lvgl\lv_core/lv_obj.c **** #include "../lv_misc/lv_task.h"
  18:..\lvgl\lv_core/lv_obj.c **** #include "../lv_misc/lv_fs.h"
  19:..\lvgl\lv_core/lv_obj.c **** #include "../lv_misc/lv_ufs.h"
  20:..\lvgl\lv_core/lv_obj.c **** #include <stdint.h>
  21:..\lvgl\lv_core/lv_obj.c **** #include <string.h>
  22:..\lvgl\lv_core/lv_obj.c **** #include "../lv_misc/lv_gc.h"
  23:..\lvgl\lv_core/lv_obj.c **** 
  24:..\lvgl\lv_core/lv_obj.c **** #if defined(LV_GC_INCLUDE)
  25:..\lvgl\lv_core/lv_obj.c **** #   include LV_GC_INCLUDE
  26:..\lvgl\lv_core/lv_obj.c **** #endif /* LV_ENABLE_GC */
  27:..\lvgl\lv_core/lv_obj.c **** 
  28:..\lvgl\lv_core/lv_obj.c **** /*********************
  29:..\lvgl\lv_core/lv_obj.c ****  *      DEFINES
  30:..\lvgl\lv_core/lv_obj.c ****  *********************/
  31:..\lvgl\lv_core/lv_obj.c **** #define LV_OBJ_DEF_WIDTH  (LV_DPI)
ARM GAS  C:\Users\d3bug\AppData\Local\Temp\ccFiAZjI.s 			page 2


  32:..\lvgl\lv_core/lv_obj.c **** #define LV_OBJ_DEF_HEIGHT  (2 * LV_DPI / 3)
  33:..\lvgl\lv_core/lv_obj.c **** 
  34:..\lvgl\lv_core/lv_obj.c **** /**********************
  35:..\lvgl\lv_core/lv_obj.c ****  *      TYPEDEFS
  36:..\lvgl\lv_core/lv_obj.c ****  **********************/
  37:..\lvgl\lv_core/lv_obj.c **** 
  38:..\lvgl\lv_core/lv_obj.c **** /**********************
  39:..\lvgl\lv_core/lv_obj.c ****  *  STATIC PROTOTYPES
  40:..\lvgl\lv_core/lv_obj.c ****  **********************/
  41:..\lvgl\lv_core/lv_obj.c **** static void refresh_childen_position(lv_obj_t * obj, lv_coord_t x_diff, lv_coord_t y_diff);
  42:..\lvgl\lv_core/lv_obj.c **** static void report_style_mod_core(void * style_p, lv_obj_t * obj);
  43:..\lvgl\lv_core/lv_obj.c **** static void refresh_childen_style(lv_obj_t * obj);
  44:..\lvgl\lv_core/lv_obj.c **** static void delete_children(lv_obj_t * obj);
  45:..\lvgl\lv_core/lv_obj.c **** static bool lv_obj_design(lv_obj_t * obj, const  lv_area_t * mask_p, lv_design_mode_t mode);
  46:..\lvgl\lv_core/lv_obj.c **** static lv_res_t lv_obj_signal(lv_obj_t * obj, lv_signal_t sign, void * param);
  47:..\lvgl\lv_core/lv_obj.c **** 
  48:..\lvgl\lv_core/lv_obj.c **** /**********************
  49:..\lvgl\lv_core/lv_obj.c ****  *  STATIC VARIABLES
  50:..\lvgl\lv_core/lv_obj.c ****  **********************/
  51:..\lvgl\lv_core/lv_obj.c **** 
  52:..\lvgl\lv_core/lv_obj.c **** /**********************
  53:..\lvgl\lv_core/lv_obj.c ****  *      MACROS
  54:..\lvgl\lv_core/lv_obj.c ****  **********************/
  55:..\lvgl\lv_core/lv_obj.c **** 
  56:..\lvgl\lv_core/lv_obj.c **** /**********************
  57:..\lvgl\lv_core/lv_obj.c ****  *   GLOBAL FUNCTIONS
  58:..\lvgl\lv_core/lv_obj.c ****  **********************/
  59:..\lvgl\lv_core/lv_obj.c **** 
  60:..\lvgl\lv_core/lv_obj.c **** /**
  61:..\lvgl\lv_core/lv_obj.c ****  * Init. the 'lv' library.
  62:..\lvgl\lv_core/lv_obj.c ****  */
  63:..\lvgl\lv_core/lv_obj.c **** void lv_init(void)
  64:..\lvgl\lv_core/lv_obj.c **** {
  65:..\lvgl\lv_core/lv_obj.c ****     LV_GC_ROOT(_lv_def_scr) = NULL;
  66:..\lvgl\lv_core/lv_obj.c ****     LV_GC_ROOT(_lv_act_scr) = NULL;
  67:..\lvgl\lv_core/lv_obj.c ****     LV_GC_ROOT(_lv_top_layer) = NULL;
  68:..\lvgl\lv_core/lv_obj.c ****     LV_GC_ROOT(_lv_sys_layer) = NULL;
  69:..\lvgl\lv_core/lv_obj.c ****     LV_GC_ROOT(_lv_disp_list) = NULL;
  70:..\lvgl\lv_core/lv_obj.c ****     LV_GC_ROOT(_lv_indev_list) = NULL;
  71:..\lvgl\lv_core/lv_obj.c **** 
  72:..\lvgl\lv_core/lv_obj.c ****     LV_LOG_TRACE("lv_init started");
  73:..\lvgl\lv_core/lv_obj.c **** 
  74:..\lvgl\lv_core/lv_obj.c ****     /*Initialize the lv_misc modules*/
  75:..\lvgl\lv_core/lv_obj.c ****     lv_mem_init();
  76:..\lvgl\lv_core/lv_obj.c ****     lv_task_init();
  77:..\lvgl\lv_core/lv_obj.c **** 
  78:..\lvgl\lv_core/lv_obj.c **** #if USE_LV_FILESYSTEM
  79:..\lvgl\lv_core/lv_obj.c ****     lv_fs_init();
  80:..\lvgl\lv_core/lv_obj.c ****     lv_ufs_init();
  81:..\lvgl\lv_core/lv_obj.c **** #endif
  82:..\lvgl\lv_core/lv_obj.c **** 
  83:..\lvgl\lv_core/lv_obj.c ****     lv_font_init();
  84:..\lvgl\lv_core/lv_obj.c **** #if USE_LV_ANIMATION
  85:..\lvgl\lv_core/lv_obj.c ****     lv_anim_init();
  86:..\lvgl\lv_core/lv_obj.c **** #endif
  87:..\lvgl\lv_core/lv_obj.c **** 
  88:..\lvgl\lv_core/lv_obj.c ****     /*Init. the sstyles*/
ARM GAS  C:\Users\d3bug\AppData\Local\Temp\ccFiAZjI.s 			page 3


  89:..\lvgl\lv_core/lv_obj.c ****     lv_style_init();
  90:..\lvgl\lv_core/lv_obj.c **** 
  91:..\lvgl\lv_core/lv_obj.c ****     /*Initialize the screen refresh system*/
  92:..\lvgl\lv_core/lv_obj.c ****     lv_refr_init();
  93:..\lvgl\lv_core/lv_obj.c **** 
  94:..\lvgl\lv_core/lv_obj.c ****     /*Create the default screen*/
  95:..\lvgl\lv_core/lv_obj.c ****     lv_ll_init(&LV_GC_ROOT(_lv_scr_ll), sizeof(lv_obj_t));
  96:..\lvgl\lv_core/lv_obj.c ****     LV_GC_ROOT(_lv_def_scr) = lv_obj_create(NULL, NULL);
  97:..\lvgl\lv_core/lv_obj.c **** 
  98:..\lvgl\lv_core/lv_obj.c ****     LV_GC_ROOT(_lv_act_scr) = LV_GC_ROOT(_lv_def_scr);
  99:..\lvgl\lv_core/lv_obj.c **** 
 100:..\lvgl\lv_core/lv_obj.c ****     LV_GC_ROOT(_lv_top_layer) = lv_obj_create(NULL, NULL);
 101:..\lvgl\lv_core/lv_obj.c ****     lv_obj_set_style(LV_GC_ROOT(_lv_top_layer), &lv_style_transp_fit);
 102:..\lvgl\lv_core/lv_obj.c **** 
 103:..\lvgl\lv_core/lv_obj.c ****     LV_GC_ROOT(_lv_sys_layer) = lv_obj_create(NULL, NULL);
 104:..\lvgl\lv_core/lv_obj.c ****     lv_obj_set_style(LV_GC_ROOT(_lv_sys_layer), &lv_style_transp_fit);
 105:..\lvgl\lv_core/lv_obj.c **** 
 106:..\lvgl\lv_core/lv_obj.c ****     /*Refresh the screen*/
 107:..\lvgl\lv_core/lv_obj.c ****     lv_obj_invalidate(LV_GC_ROOT(_lv_act_scr));
 108:..\lvgl\lv_core/lv_obj.c **** 
 109:..\lvgl\lv_core/lv_obj.c **** #if LV_INDEV_READ_PERIOD != 0
 110:..\lvgl\lv_core/lv_obj.c ****     /*Init the input device handling*/
 111:..\lvgl\lv_core/lv_obj.c ****     lv_indev_init();
 112:..\lvgl\lv_core/lv_obj.c **** #endif
 113:..\lvgl\lv_core/lv_obj.c **** 
 114:..\lvgl\lv_core/lv_obj.c **** 
 115:..\lvgl\lv_core/lv_obj.c ****     LV_LOG_INFO("lv_init ready");
 116:..\lvgl\lv_core/lv_obj.c **** }
 117:..\lvgl\lv_core/lv_obj.c **** 
 118:..\lvgl\lv_core/lv_obj.c **** /*--------------------
 119:..\lvgl\lv_core/lv_obj.c ****  * Create and delete
 120:..\lvgl\lv_core/lv_obj.c ****  *-------------------*/
 121:..\lvgl\lv_core/lv_obj.c **** 
 122:..\lvgl\lv_core/lv_obj.c **** /**
 123:..\lvgl\lv_core/lv_obj.c ****  * Create a basic object
 124:..\lvgl\lv_core/lv_obj.c ****  * @param parent pointer to a parent object.
 125:..\lvgl\lv_core/lv_obj.c ****  *                  If NULL then a screen will be created
 126:..\lvgl\lv_core/lv_obj.c ****  * @param copy pointer to a base object, if not NULL then the new object will be copied from it
 127:..\lvgl\lv_core/lv_obj.c ****  * @return pointer to the new object
 128:..\lvgl\lv_core/lv_obj.c ****  */
 129:..\lvgl\lv_core/lv_obj.c **** lv_obj_t * lv_obj_create(lv_obj_t * parent, const  lv_obj_t * copy)
 130:..\lvgl\lv_core/lv_obj.c **** {
 131:..\lvgl\lv_core/lv_obj.c **** 
 132:..\lvgl\lv_core/lv_obj.c ****     lv_obj_t * new_obj = NULL;
 133:..\lvgl\lv_core/lv_obj.c ****     /*Create a screen if the parent is NULL*/
 134:..\lvgl\lv_core/lv_obj.c ****     if(parent == NULL) {
 135:..\lvgl\lv_core/lv_obj.c ****         LV_LOG_TRACE("Screen create started");
 136:..\lvgl\lv_core/lv_obj.c **** 
 137:..\lvgl\lv_core/lv_obj.c ****         new_obj = lv_ll_ins_head(&LV_GC_ROOT(_lv_scr_ll));
 138:..\lvgl\lv_core/lv_obj.c ****         lv_mem_assert(new_obj);
 139:..\lvgl\lv_core/lv_obj.c ****         if(new_obj == NULL) return NULL;
 140:..\lvgl\lv_core/lv_obj.c **** 
 141:..\lvgl\lv_core/lv_obj.c ****         new_obj->par = NULL; /*Screens has no a parent*/
 142:..\lvgl\lv_core/lv_obj.c ****         lv_ll_init(&(new_obj->child_ll), sizeof(lv_obj_t));
 143:..\lvgl\lv_core/lv_obj.c **** 
 144:..\lvgl\lv_core/lv_obj.c ****         /*Set coordinates to full screen size*/
 145:..\lvgl\lv_core/lv_obj.c ****         new_obj->coords.x1 = 0;
ARM GAS  C:\Users\d3bug\AppData\Local\Temp\ccFiAZjI.s 			page 4


 146:..\lvgl\lv_core/lv_obj.c ****         new_obj->coords.y1 = 0;
 147:..\lvgl\lv_core/lv_obj.c ****         new_obj->coords.x2 = LV_HOR_RES - 1;
 148:..\lvgl\lv_core/lv_obj.c ****         new_obj->coords.y2 = LV_VER_RES - 1;
 149:..\lvgl\lv_core/lv_obj.c ****         new_obj->ext_size = 0;
 150:..\lvgl\lv_core/lv_obj.c **** 
 151:..\lvgl\lv_core/lv_obj.c ****         /*Init realign*/
 152:..\lvgl\lv_core/lv_obj.c **** #if LV_OBJ_REALIGN
 153:..\lvgl\lv_core/lv_obj.c ****         new_obj->realign.align = LV_ALIGN_CENTER;
 154:..\lvgl\lv_core/lv_obj.c ****         new_obj->realign.xofs = 0;
 155:..\lvgl\lv_core/lv_obj.c ****         new_obj->realign.yofs = 0;
 156:..\lvgl\lv_core/lv_obj.c ****         new_obj->realign.base = NULL;
 157:..\lvgl\lv_core/lv_obj.c ****         new_obj->realign.auto_realign = 0;
 158:..\lvgl\lv_core/lv_obj.c **** #endif
 159:..\lvgl\lv_core/lv_obj.c **** 
 160:..\lvgl\lv_core/lv_obj.c ****         /*Set the default styles*/
 161:..\lvgl\lv_core/lv_obj.c ****         lv_theme_t * th = lv_theme_get_current();
 162:..\lvgl\lv_core/lv_obj.c ****         if(th) {
 163:..\lvgl\lv_core/lv_obj.c ****             new_obj->style_p = th->bg;
 164:..\lvgl\lv_core/lv_obj.c ****         } else {
 165:..\lvgl\lv_core/lv_obj.c ****             new_obj->style_p = &lv_style_scr;
 166:..\lvgl\lv_core/lv_obj.c ****         }
 167:..\lvgl\lv_core/lv_obj.c ****         /*Set virtual functions*/
 168:..\lvgl\lv_core/lv_obj.c ****         lv_obj_set_signal_func(new_obj, lv_obj_signal);
 169:..\lvgl\lv_core/lv_obj.c ****         lv_obj_set_design_func(new_obj, lv_obj_design);
 170:..\lvgl\lv_core/lv_obj.c **** 
 171:..\lvgl\lv_core/lv_obj.c ****         /*Set free data*/
 172:..\lvgl\lv_core/lv_obj.c **** #ifdef LV_OBJ_FREE_NUM_TYPE
 173:..\lvgl\lv_core/lv_obj.c ****         new_obj->free_num = 0;
 174:..\lvgl\lv_core/lv_obj.c **** #endif
 175:..\lvgl\lv_core/lv_obj.c **** 
 176:..\lvgl\lv_core/lv_obj.c **** #if LV_OBJ_FREE_PTR != 0
 177:..\lvgl\lv_core/lv_obj.c ****         new_obj->free_ptr = NULL;
 178:..\lvgl\lv_core/lv_obj.c **** #endif
 179:..\lvgl\lv_core/lv_obj.c **** 
 180:..\lvgl\lv_core/lv_obj.c **** #if USE_LV_GROUP
 181:..\lvgl\lv_core/lv_obj.c ****         new_obj->group_p = NULL;
 182:..\lvgl\lv_core/lv_obj.c **** #endif
 183:..\lvgl\lv_core/lv_obj.c ****         /*Set attributes*/
 184:..\lvgl\lv_core/lv_obj.c ****         new_obj->click = 0;
 185:..\lvgl\lv_core/lv_obj.c ****         new_obj->drag = 0;
 186:..\lvgl\lv_core/lv_obj.c ****         new_obj->drag_throw = 0;
 187:..\lvgl\lv_core/lv_obj.c ****         new_obj->drag_parent = 0;
 188:..\lvgl\lv_core/lv_obj.c ****         new_obj->hidden = 0;
 189:..\lvgl\lv_core/lv_obj.c ****         new_obj->top = 0;
 190:..\lvgl\lv_core/lv_obj.c ****         new_obj->opa_scale_en = 0;
 191:..\lvgl\lv_core/lv_obj.c ****         new_obj->protect = LV_PROTECT_NONE;
 192:..\lvgl\lv_core/lv_obj.c ****         new_obj->opa_scale = LV_OPA_COVER;
 193:..\lvgl\lv_core/lv_obj.c **** 
 194:..\lvgl\lv_core/lv_obj.c ****         new_obj->ext_attr = NULL;
 195:..\lvgl\lv_core/lv_obj.c **** 
 196:..\lvgl\lv_core/lv_obj.c ****         LV_LOG_INFO("Screen create ready");
 197:..\lvgl\lv_core/lv_obj.c ****     }
 198:..\lvgl\lv_core/lv_obj.c ****     /*parent != NULL create normal obj. on a parent*/
 199:..\lvgl\lv_core/lv_obj.c ****     else {
 200:..\lvgl\lv_core/lv_obj.c ****         LV_LOG_TRACE("Object create started");
 201:..\lvgl\lv_core/lv_obj.c **** 
 202:..\lvgl\lv_core/lv_obj.c ****         new_obj = lv_ll_ins_head(&(parent)->child_ll);
ARM GAS  C:\Users\d3bug\AppData\Local\Temp\ccFiAZjI.s 			page 5


 203:..\lvgl\lv_core/lv_obj.c ****         lv_mem_assert(new_obj);
 204:..\lvgl\lv_core/lv_obj.c ****         if(new_obj == NULL) return NULL;
 205:..\lvgl\lv_core/lv_obj.c **** 
 206:..\lvgl\lv_core/lv_obj.c **** 
 207:..\lvgl\lv_core/lv_obj.c ****         new_obj->par = parent; /*Set the parent*/
 208:..\lvgl\lv_core/lv_obj.c ****         lv_ll_init(&(new_obj->child_ll), sizeof(lv_obj_t));
 209:..\lvgl\lv_core/lv_obj.c **** 
 210:..\lvgl\lv_core/lv_obj.c ****         /*Set coordinates left top corner of parent*/
 211:..\lvgl\lv_core/lv_obj.c ****         new_obj->coords.x1 = parent->coords.x1;
 212:..\lvgl\lv_core/lv_obj.c ****         new_obj->coords.y1 = parent->coords.y1;
 213:..\lvgl\lv_core/lv_obj.c ****         new_obj->coords.x2 = parent->coords.x1 +
 214:..\lvgl\lv_core/lv_obj.c ****                              LV_OBJ_DEF_WIDTH;
 215:..\lvgl\lv_core/lv_obj.c ****         new_obj->coords.y2 = parent->coords.y1 +
 216:..\lvgl\lv_core/lv_obj.c ****                              LV_OBJ_DEF_HEIGHT;
 217:..\lvgl\lv_core/lv_obj.c ****         new_obj->ext_size = 0;
 218:..\lvgl\lv_core/lv_obj.c **** 
 219:..\lvgl\lv_core/lv_obj.c ****         /*Init realign*/
 220:..\lvgl\lv_core/lv_obj.c **** #if LV_OBJ_REALIGN
 221:..\lvgl\lv_core/lv_obj.c ****         new_obj->realign.align = LV_ALIGN_CENTER;
 222:..\lvgl\lv_core/lv_obj.c ****         new_obj->realign.xofs = 0;
 223:..\lvgl\lv_core/lv_obj.c ****         new_obj->realign.yofs = 0;
 224:..\lvgl\lv_core/lv_obj.c ****         new_obj->realign.base = NULL;
 225:..\lvgl\lv_core/lv_obj.c ****         new_obj->realign.auto_realign = 0;
 226:..\lvgl\lv_core/lv_obj.c **** #endif
 227:..\lvgl\lv_core/lv_obj.c ****         /*Set appearance*/
 228:..\lvgl\lv_core/lv_obj.c ****         lv_theme_t * th = lv_theme_get_current();
 229:..\lvgl\lv_core/lv_obj.c ****         if(th) {
 230:..\lvgl\lv_core/lv_obj.c ****             new_obj->style_p = th->panel;
 231:..\lvgl\lv_core/lv_obj.c ****         } else {
 232:..\lvgl\lv_core/lv_obj.c ****             new_obj->style_p = &lv_style_plain_color;
 233:..\lvgl\lv_core/lv_obj.c ****         }
 234:..\lvgl\lv_core/lv_obj.c **** 
 235:..\lvgl\lv_core/lv_obj.c ****         /*Set virtual functions*/
 236:..\lvgl\lv_core/lv_obj.c ****         lv_obj_set_signal_func(new_obj, lv_obj_signal);
 237:..\lvgl\lv_core/lv_obj.c ****         lv_obj_set_design_func(new_obj, lv_obj_design);
 238:..\lvgl\lv_core/lv_obj.c **** 
 239:..\lvgl\lv_core/lv_obj.c ****         /*Set free data*/
 240:..\lvgl\lv_core/lv_obj.c **** #ifdef LV_OBJ_FREE_NUM_TYPE
 241:..\lvgl\lv_core/lv_obj.c ****         new_obj->free_num = 0;
 242:..\lvgl\lv_core/lv_obj.c **** #endif
 243:..\lvgl\lv_core/lv_obj.c **** #if LV_OBJ_FREE_PTR != 0
 244:..\lvgl\lv_core/lv_obj.c ****         new_obj->free_ptr = NULL;
 245:..\lvgl\lv_core/lv_obj.c **** #endif
 246:..\lvgl\lv_core/lv_obj.c **** #if USE_LV_GROUP
 247:..\lvgl\lv_core/lv_obj.c ****         new_obj->group_p = NULL;
 248:..\lvgl\lv_core/lv_obj.c **** #endif
 249:..\lvgl\lv_core/lv_obj.c **** 
 250:..\lvgl\lv_core/lv_obj.c ****         /*Set attributes*/
 251:..\lvgl\lv_core/lv_obj.c ****         new_obj->click = 1;
 252:..\lvgl\lv_core/lv_obj.c ****         new_obj->drag = 0;
 253:..\lvgl\lv_core/lv_obj.c ****         new_obj->drag_throw = 0;
 254:..\lvgl\lv_core/lv_obj.c ****         new_obj->drag_parent = 0;
 255:..\lvgl\lv_core/lv_obj.c ****         new_obj->hidden = 0;
 256:..\lvgl\lv_core/lv_obj.c ****         new_obj->top = 0;
 257:..\lvgl\lv_core/lv_obj.c ****         new_obj->protect = LV_PROTECT_NONE;
 258:..\lvgl\lv_core/lv_obj.c ****         new_obj->opa_scale = LV_OPA_COVER;
 259:..\lvgl\lv_core/lv_obj.c ****         new_obj->opa_scale_en = 0;
ARM GAS  C:\Users\d3bug\AppData\Local\Temp\ccFiAZjI.s 			page 6


 260:..\lvgl\lv_core/lv_obj.c **** 
 261:..\lvgl\lv_core/lv_obj.c ****         new_obj->ext_attr = NULL;
 262:..\lvgl\lv_core/lv_obj.c ****     }
 263:..\lvgl\lv_core/lv_obj.c **** 
 264:..\lvgl\lv_core/lv_obj.c ****     if(copy != NULL) {
 265:..\lvgl\lv_core/lv_obj.c ****         lv_area_copy(&new_obj->coords, &copy->coords);
 266:..\lvgl\lv_core/lv_obj.c ****         new_obj->ext_size = copy->ext_size;
 267:..\lvgl\lv_core/lv_obj.c **** 
 268:..\lvgl\lv_core/lv_obj.c ****         /*Set free data*/
 269:..\lvgl\lv_core/lv_obj.c **** #ifdef LV_OBJ_FREE_NUM_TYPE
 270:..\lvgl\lv_core/lv_obj.c ****         new_obj->free_num = copy->free_num;
 271:..\lvgl\lv_core/lv_obj.c **** #endif
 272:..\lvgl\lv_core/lv_obj.c **** #if LV_OBJ_FREE_PTR != 0
 273:..\lvgl\lv_core/lv_obj.c ****         new_obj->free_ptr = copy->free_ptr;
 274:..\lvgl\lv_core/lv_obj.c **** #endif
 275:..\lvgl\lv_core/lv_obj.c **** 
 276:..\lvgl\lv_core/lv_obj.c ****         /*Copy realign*/
 277:..\lvgl\lv_core/lv_obj.c **** #if LV_OBJ_REALIGN
 278:..\lvgl\lv_core/lv_obj.c ****         new_obj->realign.align = copy->realign.align;
 279:..\lvgl\lv_core/lv_obj.c ****         new_obj->realign.xofs = copy->realign.xofs;
 280:..\lvgl\lv_core/lv_obj.c ****         new_obj->realign.yofs = copy->realign.yofs;
 281:..\lvgl\lv_core/lv_obj.c ****         new_obj->realign.base = copy->realign.base;
 282:..\lvgl\lv_core/lv_obj.c ****         new_obj->realign.auto_realign = copy->realign.auto_realign;
 283:..\lvgl\lv_core/lv_obj.c **** #endif
 284:..\lvgl\lv_core/lv_obj.c **** 
 285:..\lvgl\lv_core/lv_obj.c ****         /*Set attributes*/
 286:..\lvgl\lv_core/lv_obj.c ****         new_obj->click = copy->click;
 287:..\lvgl\lv_core/lv_obj.c ****         new_obj->drag = copy->drag;
 288:..\lvgl\lv_core/lv_obj.c ****         new_obj->drag_throw = copy->drag_throw;
 289:..\lvgl\lv_core/lv_obj.c ****         new_obj->drag_parent = copy->drag_parent;
 290:..\lvgl\lv_core/lv_obj.c ****         new_obj->hidden = copy->hidden;
 291:..\lvgl\lv_core/lv_obj.c ****         new_obj->top = copy->top;
 292:..\lvgl\lv_core/lv_obj.c **** 
 293:..\lvgl\lv_core/lv_obj.c ****         new_obj->opa_scale_en = copy->opa_scale_en;
 294:..\lvgl\lv_core/lv_obj.c ****         new_obj->protect = copy->protect;
 295:..\lvgl\lv_core/lv_obj.c ****         new_obj->opa_scale = copy->opa_scale;
 296:..\lvgl\lv_core/lv_obj.c **** 
 297:..\lvgl\lv_core/lv_obj.c ****         new_obj->style_p = copy->style_p;
 298:..\lvgl\lv_core/lv_obj.c **** 
 299:..\lvgl\lv_core/lv_obj.c **** #if USE_LV_GROUP
 300:..\lvgl\lv_core/lv_obj.c ****         /*Add to the same group*/
 301:..\lvgl\lv_core/lv_obj.c ****         if(copy->group_p != NULL) {
 302:..\lvgl\lv_core/lv_obj.c ****             lv_group_add_obj(copy->group_p, new_obj);
 303:..\lvgl\lv_core/lv_obj.c ****         }
 304:..\lvgl\lv_core/lv_obj.c **** #endif
 305:..\lvgl\lv_core/lv_obj.c **** 
 306:..\lvgl\lv_core/lv_obj.c ****         lv_obj_set_pos(new_obj, lv_obj_get_x(copy), lv_obj_get_y(copy));
 307:..\lvgl\lv_core/lv_obj.c **** 
 308:..\lvgl\lv_core/lv_obj.c ****         LV_LOG_INFO("Object create ready");
 309:..\lvgl\lv_core/lv_obj.c ****     }
 310:..\lvgl\lv_core/lv_obj.c **** 
 311:..\lvgl\lv_core/lv_obj.c **** 
 312:..\lvgl\lv_core/lv_obj.c ****     /*Send a signal to the parent to notify it about the new child*/
 313:..\lvgl\lv_core/lv_obj.c ****     if(parent != NULL) {
 314:..\lvgl\lv_core/lv_obj.c ****         parent->signal_func(parent, LV_SIGNAL_CHILD_CHG, new_obj);
 315:..\lvgl\lv_core/lv_obj.c **** 
 316:..\lvgl\lv_core/lv_obj.c ****         /*Invalidate the area if not screen created*/
ARM GAS  C:\Users\d3bug\AppData\Local\Temp\ccFiAZjI.s 			page 7


 317:..\lvgl\lv_core/lv_obj.c ****         lv_obj_invalidate(new_obj);
 318:..\lvgl\lv_core/lv_obj.c ****     }
 319:..\lvgl\lv_core/lv_obj.c **** 
 320:..\lvgl\lv_core/lv_obj.c ****     return new_obj;
 321:..\lvgl\lv_core/lv_obj.c **** }
 322:..\lvgl\lv_core/lv_obj.c **** 
 323:..\lvgl\lv_core/lv_obj.c **** /**
 324:..\lvgl\lv_core/lv_obj.c ****  * Delete 'obj' and all of its children
 325:..\lvgl\lv_core/lv_obj.c ****  * @param obj pointer to an object to delete
 326:..\lvgl\lv_core/lv_obj.c ****  * @return LV_RES_INV because the object is deleted
 327:..\lvgl\lv_core/lv_obj.c ****  */
 328:..\lvgl\lv_core/lv_obj.c **** lv_res_t lv_obj_del(lv_obj_t * obj)
 329:..\lvgl\lv_core/lv_obj.c **** {
 330:..\lvgl\lv_core/lv_obj.c ****     lv_obj_invalidate(obj);
 331:..\lvgl\lv_core/lv_obj.c **** 
 332:..\lvgl\lv_core/lv_obj.c ****     /*Delete from the group*/
 333:..\lvgl\lv_core/lv_obj.c **** #if USE_LV_GROUP
 334:..\lvgl\lv_core/lv_obj.c ****     if(obj->group_p != NULL) lv_group_remove_obj(obj);
 335:..\lvgl\lv_core/lv_obj.c **** #endif
 336:..\lvgl\lv_core/lv_obj.c **** 
 337:..\lvgl\lv_core/lv_obj.c ****     /*Remove the animations from this object*/
 338:..\lvgl\lv_core/lv_obj.c **** #if USE_LV_ANIMATION
 339:..\lvgl\lv_core/lv_obj.c ****     lv_anim_del(obj, NULL);
 340:..\lvgl\lv_core/lv_obj.c **** #endif
 341:..\lvgl\lv_core/lv_obj.c **** 
 342:..\lvgl\lv_core/lv_obj.c ****     /*Recursively delete the children*/
 343:..\lvgl\lv_core/lv_obj.c ****     lv_obj_t * i;
 344:..\lvgl\lv_core/lv_obj.c ****     lv_obj_t * i_next;
 345:..\lvgl\lv_core/lv_obj.c ****     i = lv_ll_get_head(&(obj->child_ll));
 346:..\lvgl\lv_core/lv_obj.c ****     while(i != NULL) {
 347:..\lvgl\lv_core/lv_obj.c ****         /*Get the next object before delete this*/
 348:..\lvgl\lv_core/lv_obj.c ****         i_next = lv_ll_get_next(&(obj->child_ll), i);
 349:..\lvgl\lv_core/lv_obj.c **** 
 350:..\lvgl\lv_core/lv_obj.c ****         /*Call the recursive del to the child too*/
 351:..\lvgl\lv_core/lv_obj.c ****         delete_children(i);
 352:..\lvgl\lv_core/lv_obj.c **** 
 353:..\lvgl\lv_core/lv_obj.c ****         /*Set i to the next node*/
 354:..\lvgl\lv_core/lv_obj.c ****         i = i_next;
 355:..\lvgl\lv_core/lv_obj.c ****     }
 356:..\lvgl\lv_core/lv_obj.c **** 
 357:..\lvgl\lv_core/lv_obj.c ****     /*Remove the object from parent's children list*/
 358:..\lvgl\lv_core/lv_obj.c ****     lv_obj_t * par = lv_obj_get_parent(obj);
 359:..\lvgl\lv_core/lv_obj.c ****     if(par == NULL) { /*It is a screen*/
 360:..\lvgl\lv_core/lv_obj.c ****         lv_ll_rem(&LV_GC_ROOT(_lv_scr_ll), obj);
 361:..\lvgl\lv_core/lv_obj.c ****     } else {
 362:..\lvgl\lv_core/lv_obj.c ****         lv_ll_rem(&(par->child_ll), obj);
 363:..\lvgl\lv_core/lv_obj.c ****     }
 364:..\lvgl\lv_core/lv_obj.c **** 
 365:..\lvgl\lv_core/lv_obj.c ****     /* Reset all input devices if
 366:..\lvgl\lv_core/lv_obj.c ****      * the currently pressed object is deleted*/
 367:..\lvgl\lv_core/lv_obj.c ****     lv_indev_t * indev = lv_indev_next(NULL);
 368:..\lvgl\lv_core/lv_obj.c ****     while(indev) {
 369:..\lvgl\lv_core/lv_obj.c ****         if(indev->proc.act_obj == obj || indev->proc.last_obj == obj) {
 370:..\lvgl\lv_core/lv_obj.c ****             lv_indev_reset(indev);
 371:..\lvgl\lv_core/lv_obj.c ****         }
 372:..\lvgl\lv_core/lv_obj.c ****         indev = lv_indev_next(indev);
 373:..\lvgl\lv_core/lv_obj.c ****     }
ARM GAS  C:\Users\d3bug\AppData\Local\Temp\ccFiAZjI.s 			page 8


 374:..\lvgl\lv_core/lv_obj.c **** 
 375:..\lvgl\lv_core/lv_obj.c ****     /* All children deleted.
 376:..\lvgl\lv_core/lv_obj.c ****      * Now clean up the object specific data*/
 377:..\lvgl\lv_core/lv_obj.c ****     obj->signal_func(obj, LV_SIGNAL_CLEANUP, NULL);
 378:..\lvgl\lv_core/lv_obj.c **** 
 379:..\lvgl\lv_core/lv_obj.c ****     /*Delete the base objects*/
 380:..\lvgl\lv_core/lv_obj.c ****     if(obj->ext_attr != NULL)  lv_mem_free(obj->ext_attr);
 381:..\lvgl\lv_core/lv_obj.c ****     lv_mem_free(obj); /*Free the object itself*/
 382:..\lvgl\lv_core/lv_obj.c **** 
 383:..\lvgl\lv_core/lv_obj.c ****     /*Send a signal to the parent to notify it about the child delete*/
 384:..\lvgl\lv_core/lv_obj.c ****     if(par != NULL) {
 385:..\lvgl\lv_core/lv_obj.c ****         par->signal_func(par, LV_SIGNAL_CHILD_CHG, NULL);
 386:..\lvgl\lv_core/lv_obj.c ****     }
 387:..\lvgl\lv_core/lv_obj.c **** 
 388:..\lvgl\lv_core/lv_obj.c ****     return LV_RES_INV;
 389:..\lvgl\lv_core/lv_obj.c **** }
 390:..\lvgl\lv_core/lv_obj.c **** 
 391:..\lvgl\lv_core/lv_obj.c **** /**
 392:..\lvgl\lv_core/lv_obj.c ****  * Delete all children of an object
 393:..\lvgl\lv_core/lv_obj.c ****  * @param obj pointer to an object
 394:..\lvgl\lv_core/lv_obj.c ****  */
 395:..\lvgl\lv_core/lv_obj.c **** void lv_obj_clean(lv_obj_t * obj)
 396:..\lvgl\lv_core/lv_obj.c **** {
 397:..\lvgl\lv_core/lv_obj.c ****     lv_obj_t * child = lv_obj_get_child(obj, NULL);
 398:..\lvgl\lv_core/lv_obj.c ****     lv_obj_t * child_next;
 399:..\lvgl\lv_core/lv_obj.c ****     while(child) {
 400:..\lvgl\lv_core/lv_obj.c ****         /* Read the next child before deleting the current
 401:..\lvgl\lv_core/lv_obj.c ****          * because the next couldn't be read from a deleted (invalid) node*/
 402:..\lvgl\lv_core/lv_obj.c ****         child_next = lv_obj_get_child(obj, child);
 403:..\lvgl\lv_core/lv_obj.c ****         lv_obj_del(child);
 404:..\lvgl\lv_core/lv_obj.c ****         child = child_next;
 405:..\lvgl\lv_core/lv_obj.c ****     }
 406:..\lvgl\lv_core/lv_obj.c **** }
 407:..\lvgl\lv_core/lv_obj.c **** 
 408:..\lvgl\lv_core/lv_obj.c **** /**
 409:..\lvgl\lv_core/lv_obj.c ****  * Mark the object as invalid therefore its current position will be redrawn by 'lv_refr_task'
 410:..\lvgl\lv_core/lv_obj.c ****  * @param obj pointer to an object
 411:..\lvgl\lv_core/lv_obj.c ****  */
 412:..\lvgl\lv_core/lv_obj.c **** void lv_obj_invalidate(const lv_obj_t * obj)
 413:..\lvgl\lv_core/lv_obj.c **** {
 414:..\lvgl\lv_core/lv_obj.c ****     if(lv_obj_get_hidden(obj)) return;
 415:..\lvgl\lv_core/lv_obj.c **** 
 416:..\lvgl\lv_core/lv_obj.c ****     /*Invalidate the object only if it belongs to the 'LV_GC_ROOT(_lv_act_scr)'*/
 417:..\lvgl\lv_core/lv_obj.c ****     lv_obj_t * obj_scr = lv_obj_get_screen(obj);
 418:..\lvgl\lv_core/lv_obj.c ****     if(obj_scr == lv_scr_act() ||
 419:..\lvgl\lv_core/lv_obj.c ****             obj_scr == lv_layer_top() ||
 420:..\lvgl\lv_core/lv_obj.c ****             obj_scr == lv_layer_sys()) {
 421:..\lvgl\lv_core/lv_obj.c ****         /*Truncate recursively to the parents*/
 422:..\lvgl\lv_core/lv_obj.c ****         lv_area_t area_trunc;
 423:..\lvgl\lv_core/lv_obj.c ****         lv_obj_t * par = lv_obj_get_parent(obj);
 424:..\lvgl\lv_core/lv_obj.c ****         bool union_ok = true;
 425:..\lvgl\lv_core/lv_obj.c ****         /*Start with the original coordinates*/
 426:..\lvgl\lv_core/lv_obj.c ****         lv_coord_t ext_size = obj->ext_size;
 427:..\lvgl\lv_core/lv_obj.c ****         lv_area_copy(&area_trunc, &obj->coords);
 428:..\lvgl\lv_core/lv_obj.c ****         area_trunc.x1 -= ext_size;
 429:..\lvgl\lv_core/lv_obj.c ****         area_trunc.y1 -= ext_size;
 430:..\lvgl\lv_core/lv_obj.c ****         area_trunc.x2 += ext_size;
ARM GAS  C:\Users\d3bug\AppData\Local\Temp\ccFiAZjI.s 			page 9


 431:..\lvgl\lv_core/lv_obj.c ****         area_trunc.y2 += ext_size;
 432:..\lvgl\lv_core/lv_obj.c **** 
 433:..\lvgl\lv_core/lv_obj.c ****         /*Check through all parents*/
 434:..\lvgl\lv_core/lv_obj.c ****         while(par != NULL) {
 435:..\lvgl\lv_core/lv_obj.c ****             union_ok = lv_area_intersect(&area_trunc, &area_trunc, &par->coords);
 436:..\lvgl\lv_core/lv_obj.c ****             if(union_ok == false) break;        /*If no common parts with parent break;*/
 437:..\lvgl\lv_core/lv_obj.c ****             if(lv_obj_get_hidden(par)) return;  /*If the parent is hidden then the child is hidden 
 438:..\lvgl\lv_core/lv_obj.c **** 
 439:..\lvgl\lv_core/lv_obj.c ****             par = lv_obj_get_parent(par);
 440:..\lvgl\lv_core/lv_obj.c ****         }
 441:..\lvgl\lv_core/lv_obj.c **** 
 442:..\lvgl\lv_core/lv_obj.c ****         if(union_ok != false) lv_inv_area(&area_trunc);
 443:..\lvgl\lv_core/lv_obj.c ****     }
 444:..\lvgl\lv_core/lv_obj.c **** }
 445:..\lvgl\lv_core/lv_obj.c **** 
 446:..\lvgl\lv_core/lv_obj.c **** 
 447:..\lvgl\lv_core/lv_obj.c **** /*=====================
 448:..\lvgl\lv_core/lv_obj.c ****  * Setter functions
 449:..\lvgl\lv_core/lv_obj.c ****  *====================*/
 450:..\lvgl\lv_core/lv_obj.c **** 
 451:..\lvgl\lv_core/lv_obj.c **** /*--------------
 452:..\lvgl\lv_core/lv_obj.c ****  * Screen set
 453:..\lvgl\lv_core/lv_obj.c ****  *--------------*/
 454:..\lvgl\lv_core/lv_obj.c **** 
 455:..\lvgl\lv_core/lv_obj.c **** /**
 456:..\lvgl\lv_core/lv_obj.c ****  * Load a new screen
 457:..\lvgl\lv_core/lv_obj.c ****  * @param scr pointer to a screen
 458:..\lvgl\lv_core/lv_obj.c ****  */
 459:..\lvgl\lv_core/lv_obj.c **** void lv_scr_load(lv_obj_t * scr)
 460:..\lvgl\lv_core/lv_obj.c **** {
 461:..\lvgl\lv_core/lv_obj.c ****     LV_GC_ROOT(_lv_act_scr) = scr;
 462:..\lvgl\lv_core/lv_obj.c **** 
 463:..\lvgl\lv_core/lv_obj.c ****     lv_obj_invalidate(LV_GC_ROOT(_lv_act_scr));
 464:..\lvgl\lv_core/lv_obj.c **** }
 465:..\lvgl\lv_core/lv_obj.c **** 
 466:..\lvgl\lv_core/lv_obj.c **** /*--------------------
 467:..\lvgl\lv_core/lv_obj.c ****  * Parent/children set
 468:..\lvgl\lv_core/lv_obj.c ****  *--------------------*/
 469:..\lvgl\lv_core/lv_obj.c **** 
 470:..\lvgl\lv_core/lv_obj.c **** /**
 471:..\lvgl\lv_core/lv_obj.c ****  * Set a new parent for an object. Its relative position will be the same.
 472:..\lvgl\lv_core/lv_obj.c ****  * @param obj pointer to an object. Can't be a screen.
 473:..\lvgl\lv_core/lv_obj.c ****  * @param parent pointer to the new parent object. (Can't be NULL)
 474:..\lvgl\lv_core/lv_obj.c ****  */
 475:..\lvgl\lv_core/lv_obj.c **** void lv_obj_set_parent(lv_obj_t * obj, lv_obj_t * parent)
 476:..\lvgl\lv_core/lv_obj.c **** {
 477:..\lvgl\lv_core/lv_obj.c ****     if(obj->par == NULL) {
 478:..\lvgl\lv_core/lv_obj.c ****         LV_LOG_WARN("Can't set the parent of a screen");
 479:..\lvgl\lv_core/lv_obj.c ****         return;
 480:..\lvgl\lv_core/lv_obj.c ****     }
 481:..\lvgl\lv_core/lv_obj.c **** 
 482:..\lvgl\lv_core/lv_obj.c ****     if(parent == NULL) {
 483:..\lvgl\lv_core/lv_obj.c ****         LV_LOG_WARN("Can't set parent == NULL to an object");
 484:..\lvgl\lv_core/lv_obj.c ****         return;
 485:..\lvgl\lv_core/lv_obj.c ****     }
 486:..\lvgl\lv_core/lv_obj.c **** 
 487:..\lvgl\lv_core/lv_obj.c **** 
ARM GAS  C:\Users\d3bug\AppData\Local\Temp\ccFiAZjI.s 			page 10


 488:..\lvgl\lv_core/lv_obj.c ****     lv_obj_invalidate(obj);
 489:..\lvgl\lv_core/lv_obj.c **** 
 490:..\lvgl\lv_core/lv_obj.c ****     lv_point_t old_pos;
 491:..\lvgl\lv_core/lv_obj.c ****     old_pos.x = lv_obj_get_x(obj);
 492:..\lvgl\lv_core/lv_obj.c ****     old_pos.y = lv_obj_get_y(obj);
 493:..\lvgl\lv_core/lv_obj.c **** 
 494:..\lvgl\lv_core/lv_obj.c ****     lv_obj_t * old_par = obj->par;
 495:..\lvgl\lv_core/lv_obj.c **** 
 496:..\lvgl\lv_core/lv_obj.c ****     lv_ll_chg_list(&obj->par->child_ll, &parent->child_ll, obj);
 497:..\lvgl\lv_core/lv_obj.c ****     obj->par = parent;
 498:..\lvgl\lv_core/lv_obj.c ****     lv_obj_set_pos(obj, old_pos.x, old_pos.y);
 499:..\lvgl\lv_core/lv_obj.c **** 
 500:..\lvgl\lv_core/lv_obj.c ****     /*Notify the original parent because one of its children is lost*/
 501:..\lvgl\lv_core/lv_obj.c ****     old_par->signal_func(old_par, LV_SIGNAL_CHILD_CHG, NULL);
 502:..\lvgl\lv_core/lv_obj.c **** 
 503:..\lvgl\lv_core/lv_obj.c ****     /*Notify the new parent about the child*/
 504:..\lvgl\lv_core/lv_obj.c ****     parent->signal_func(parent, LV_SIGNAL_CHILD_CHG, obj);
 505:..\lvgl\lv_core/lv_obj.c **** 
 506:..\lvgl\lv_core/lv_obj.c ****     lv_obj_invalidate(obj);
 507:..\lvgl\lv_core/lv_obj.c **** }
 508:..\lvgl\lv_core/lv_obj.c **** 
 509:..\lvgl\lv_core/lv_obj.c **** /*--------------------
 510:..\lvgl\lv_core/lv_obj.c ****  * Coordinate set
 511:..\lvgl\lv_core/lv_obj.c ****  * ------------------*/
 512:..\lvgl\lv_core/lv_obj.c **** 
 513:..\lvgl\lv_core/lv_obj.c **** /**
 514:..\lvgl\lv_core/lv_obj.c ****  * Set relative the position of an object (relative to the parent)
 515:..\lvgl\lv_core/lv_obj.c ****  * @param obj pointer to an object
 516:..\lvgl\lv_core/lv_obj.c ****  * @param x new distance from the left side of the parent
 517:..\lvgl\lv_core/lv_obj.c ****  * @param y new distance from the top of the parent
 518:..\lvgl\lv_core/lv_obj.c ****  */
 519:..\lvgl\lv_core/lv_obj.c **** void lv_obj_set_pos(lv_obj_t * obj, lv_coord_t x, lv_coord_t y)
 520:..\lvgl\lv_core/lv_obj.c **** {
 521:..\lvgl\lv_core/lv_obj.c ****     /*Convert x and y to absolute coordinates*/
 522:..\lvgl\lv_core/lv_obj.c ****     lv_obj_t * par = obj->par;
 523:..\lvgl\lv_core/lv_obj.c ****     x = x + par->coords.x1;
 524:..\lvgl\lv_core/lv_obj.c ****     y = y + par->coords.y1;
 525:..\lvgl\lv_core/lv_obj.c **** 
 526:..\lvgl\lv_core/lv_obj.c ****     /*Calculate and set the movement*/
 527:..\lvgl\lv_core/lv_obj.c ****     lv_point_t diff;
 528:..\lvgl\lv_core/lv_obj.c ****     diff.x =  x - obj->coords.x1;
 529:..\lvgl\lv_core/lv_obj.c ****     diff.y =  y - obj->coords.y1;
 530:..\lvgl\lv_core/lv_obj.c **** 
 531:..\lvgl\lv_core/lv_obj.c ****     /* Do nothing if the position is not changed */
 532:..\lvgl\lv_core/lv_obj.c ****     /* It is very important else recursive positioning can
 533:..\lvgl\lv_core/lv_obj.c ****      * occur without position change*/
 534:..\lvgl\lv_core/lv_obj.c ****     if(diff.x == 0 && diff.y == 0) return;
 535:..\lvgl\lv_core/lv_obj.c **** 
 536:..\lvgl\lv_core/lv_obj.c ****     /*Invalidate the original area*/
 537:..\lvgl\lv_core/lv_obj.c ****     lv_obj_invalidate(obj);
 538:..\lvgl\lv_core/lv_obj.c **** 
 539:..\lvgl\lv_core/lv_obj.c ****     /*Save the original coordinates*/
 540:..\lvgl\lv_core/lv_obj.c ****     lv_area_t ori;
 541:..\lvgl\lv_core/lv_obj.c ****     lv_obj_get_coords(obj, &ori);
 542:..\lvgl\lv_core/lv_obj.c **** 
 543:..\lvgl\lv_core/lv_obj.c ****     obj->coords.x1 += diff.x;
 544:..\lvgl\lv_core/lv_obj.c ****     obj->coords.y1 += diff.y;
ARM GAS  C:\Users\d3bug\AppData\Local\Temp\ccFiAZjI.s 			page 11


 545:..\lvgl\lv_core/lv_obj.c ****     obj->coords.x2 += diff.x;
 546:..\lvgl\lv_core/lv_obj.c ****     obj->coords.y2 += diff.y;
 547:..\lvgl\lv_core/lv_obj.c **** 
 548:..\lvgl\lv_core/lv_obj.c ****     refresh_childen_position(obj, diff.x, diff.y);
 549:..\lvgl\lv_core/lv_obj.c **** 
 550:..\lvgl\lv_core/lv_obj.c ****     /*Inform the object about its new coordinates*/
 551:..\lvgl\lv_core/lv_obj.c ****     obj->signal_func(obj, LV_SIGNAL_CORD_CHG, &ori);
 552:..\lvgl\lv_core/lv_obj.c **** 
 553:..\lvgl\lv_core/lv_obj.c ****     /*Send a signal to the parent too*/
 554:..\lvgl\lv_core/lv_obj.c ****     par->signal_func(par, LV_SIGNAL_CHILD_CHG, obj);
 555:..\lvgl\lv_core/lv_obj.c **** 
 556:..\lvgl\lv_core/lv_obj.c ****     /*Invalidate the new area*/
 557:..\lvgl\lv_core/lv_obj.c ****     lv_obj_invalidate(obj);
 558:..\lvgl\lv_core/lv_obj.c **** }
 559:..\lvgl\lv_core/lv_obj.c **** 
 560:..\lvgl\lv_core/lv_obj.c **** 
 561:..\lvgl\lv_core/lv_obj.c **** /**
 562:..\lvgl\lv_core/lv_obj.c ****  * Set the x coordinate of a object
 563:..\lvgl\lv_core/lv_obj.c ****  * @param obj pointer to an object
 564:..\lvgl\lv_core/lv_obj.c ****  * @param x new distance from the left side from the parent
 565:..\lvgl\lv_core/lv_obj.c ****  */
 566:..\lvgl\lv_core/lv_obj.c **** void lv_obj_set_x(lv_obj_t * obj, lv_coord_t x)
 567:..\lvgl\lv_core/lv_obj.c **** {
 568:..\lvgl\lv_core/lv_obj.c ****     lv_obj_set_pos(obj, x, lv_obj_get_y(obj));
 569:..\lvgl\lv_core/lv_obj.c **** }
 570:..\lvgl\lv_core/lv_obj.c **** 
 571:..\lvgl\lv_core/lv_obj.c **** 
 572:..\lvgl\lv_core/lv_obj.c **** /**
 573:..\lvgl\lv_core/lv_obj.c ****  * Set the y coordinate of a object
 574:..\lvgl\lv_core/lv_obj.c ****  * @param obj pointer to an object
 575:..\lvgl\lv_core/lv_obj.c ****  * @param y new distance from the top of the parent
 576:..\lvgl\lv_core/lv_obj.c ****  */
 577:..\lvgl\lv_core/lv_obj.c **** void lv_obj_set_y(lv_obj_t * obj, lv_coord_t y)
 578:..\lvgl\lv_core/lv_obj.c **** {
 579:..\lvgl\lv_core/lv_obj.c ****     lv_obj_set_pos(obj, lv_obj_get_x(obj), y);
 580:..\lvgl\lv_core/lv_obj.c **** }
 581:..\lvgl\lv_core/lv_obj.c **** 
 582:..\lvgl\lv_core/lv_obj.c **** /**
 583:..\lvgl\lv_core/lv_obj.c ****  * Set the size of an object
 584:..\lvgl\lv_core/lv_obj.c ****  * @param obj pointer to an object
 585:..\lvgl\lv_core/lv_obj.c ****  * @param w new width
 586:..\lvgl\lv_core/lv_obj.c ****  * @param h new height
 587:..\lvgl\lv_core/lv_obj.c ****  */
 588:..\lvgl\lv_core/lv_obj.c **** void lv_obj_set_size(lv_obj_t * obj, lv_coord_t w, lv_coord_t h)
 589:..\lvgl\lv_core/lv_obj.c **** {
 590:..\lvgl\lv_core/lv_obj.c **** 
 591:..\lvgl\lv_core/lv_obj.c ****     /* Do nothing if the size is not changed */
 592:..\lvgl\lv_core/lv_obj.c ****     /* It is very important else recursive resizing can
 593:..\lvgl\lv_core/lv_obj.c ****      * occur without size change*/
 594:..\lvgl\lv_core/lv_obj.c ****     if(lv_obj_get_width(obj) == w && lv_obj_get_height(obj) == h) {
 595:..\lvgl\lv_core/lv_obj.c ****         return;
 596:..\lvgl\lv_core/lv_obj.c ****     }
 597:..\lvgl\lv_core/lv_obj.c **** 
 598:..\lvgl\lv_core/lv_obj.c ****     /*Invalidate the original area*/
 599:..\lvgl\lv_core/lv_obj.c ****     lv_obj_invalidate(obj);
 600:..\lvgl\lv_core/lv_obj.c **** 
 601:..\lvgl\lv_core/lv_obj.c ****     /*Save the original coordinates*/
ARM GAS  C:\Users\d3bug\AppData\Local\Temp\ccFiAZjI.s 			page 12


 602:..\lvgl\lv_core/lv_obj.c ****     lv_area_t ori;
 603:..\lvgl\lv_core/lv_obj.c ****     lv_obj_get_coords(obj, &ori);
 604:..\lvgl\lv_core/lv_obj.c **** 
 605:..\lvgl\lv_core/lv_obj.c ****     //Set the length and height
 606:..\lvgl\lv_core/lv_obj.c ****     obj->coords.x2 = obj->coords.x1 + w - 1;
 607:..\lvgl\lv_core/lv_obj.c ****     obj->coords.y2 = obj->coords.y1 + h - 1;
 608:..\lvgl\lv_core/lv_obj.c **** 
 609:..\lvgl\lv_core/lv_obj.c **** 
 610:..\lvgl\lv_core/lv_obj.c ****     /*Send a signal to the object with its new coordinates*/
 611:..\lvgl\lv_core/lv_obj.c ****     obj->signal_func(obj, LV_SIGNAL_CORD_CHG, &ori);
 612:..\lvgl\lv_core/lv_obj.c **** 
 613:..\lvgl\lv_core/lv_obj.c ****     /*Send a signal to the parent too*/
 614:..\lvgl\lv_core/lv_obj.c ****     lv_obj_t * par = lv_obj_get_parent(obj);
 615:..\lvgl\lv_core/lv_obj.c ****     if(par != NULL) par->signal_func(par, LV_SIGNAL_CHILD_CHG, obj);
 616:..\lvgl\lv_core/lv_obj.c **** 
 617:..\lvgl\lv_core/lv_obj.c ****     /*Invalidate the new area*/
 618:..\lvgl\lv_core/lv_obj.c ****     lv_obj_invalidate(obj);
 619:..\lvgl\lv_core/lv_obj.c **** 
 620:..\lvgl\lv_core/lv_obj.c ****     /*Automatically realign the object if required*/
 621:..\lvgl\lv_core/lv_obj.c **** #if LV_OBJ_REALIGN
 622:..\lvgl\lv_core/lv_obj.c ****     if(obj->realign.auto_realign) lv_obj_realign(obj);
 623:..\lvgl\lv_core/lv_obj.c **** #endif
 624:..\lvgl\lv_core/lv_obj.c **** }
 625:..\lvgl\lv_core/lv_obj.c **** 
 626:..\lvgl\lv_core/lv_obj.c **** /**
 627:..\lvgl\lv_core/lv_obj.c ****  * Set the width of an object
 628:..\lvgl\lv_core/lv_obj.c ****  * @param obj pointer to an object
 629:..\lvgl\lv_core/lv_obj.c ****  * @param w new width
 630:..\lvgl\lv_core/lv_obj.c ****  */
 631:..\lvgl\lv_core/lv_obj.c **** void lv_obj_set_width(lv_obj_t * obj, lv_coord_t w)
 632:..\lvgl\lv_core/lv_obj.c **** {
 633:..\lvgl\lv_core/lv_obj.c ****     lv_obj_set_size(obj, w, lv_obj_get_height(obj));
 634:..\lvgl\lv_core/lv_obj.c **** }
 635:..\lvgl\lv_core/lv_obj.c **** 
 636:..\lvgl\lv_core/lv_obj.c **** /**
 637:..\lvgl\lv_core/lv_obj.c ****  * Set the height of an object
 638:..\lvgl\lv_core/lv_obj.c ****  * @param obj pointer to an object
 639:..\lvgl\lv_core/lv_obj.c ****  * @param h new height
 640:..\lvgl\lv_core/lv_obj.c ****  */
 641:..\lvgl\lv_core/lv_obj.c **** void lv_obj_set_height(lv_obj_t * obj, lv_coord_t h)
 642:..\lvgl\lv_core/lv_obj.c **** {
 643:..\lvgl\lv_core/lv_obj.c ****     lv_obj_set_size(obj, lv_obj_get_width(obj), h);
 644:..\lvgl\lv_core/lv_obj.c **** }
 645:..\lvgl\lv_core/lv_obj.c **** 
 646:..\lvgl\lv_core/lv_obj.c **** /**
 647:..\lvgl\lv_core/lv_obj.c ****  * Align an object to an other object.
 648:..\lvgl\lv_core/lv_obj.c ****  * @param obj pointer to an object to align
 649:..\lvgl\lv_core/lv_obj.c ****  * @param base pointer to an object (if NULL the parent is used). 'obj' will be aligned to it.
 650:..\lvgl\lv_core/lv_obj.c ****  * @param align type of alignment (see 'lv_align_t' enum)
 651:..\lvgl\lv_core/lv_obj.c ****  * @param x_mod x coordinate shift after alignment
 652:..\lvgl\lv_core/lv_obj.c ****  * @param y_mod y coordinate shift after alignment
 653:..\lvgl\lv_core/lv_obj.c ****  */
 654:..\lvgl\lv_core/lv_obj.c **** void lv_obj_align(lv_obj_t * obj, const lv_obj_t * base, lv_align_t align, lv_coord_t x_mod, lv_coo
 655:..\lvgl\lv_core/lv_obj.c **** {
 656:..\lvgl\lv_core/lv_obj.c ****     lv_coord_t new_x = lv_obj_get_x(obj);
 657:..\lvgl\lv_core/lv_obj.c ****     lv_coord_t new_y = lv_obj_get_y(obj);
 658:..\lvgl\lv_core/lv_obj.c **** 
ARM GAS  C:\Users\d3bug\AppData\Local\Temp\ccFiAZjI.s 			page 13


 659:..\lvgl\lv_core/lv_obj.c ****     if(base == NULL) {
 660:..\lvgl\lv_core/lv_obj.c ****         base = lv_obj_get_parent(obj);
 661:..\lvgl\lv_core/lv_obj.c ****     }
 662:..\lvgl\lv_core/lv_obj.c **** 
 663:..\lvgl\lv_core/lv_obj.c ****     switch(align) {
 664:..\lvgl\lv_core/lv_obj.c ****         case LV_ALIGN_CENTER:
 665:..\lvgl\lv_core/lv_obj.c ****             new_x = lv_obj_get_width(base) / 2 - lv_obj_get_width(obj) / 2;
 666:..\lvgl\lv_core/lv_obj.c ****             new_y = lv_obj_get_height(base) / 2 - lv_obj_get_height(obj) / 2;
 667:..\lvgl\lv_core/lv_obj.c ****             break;
 668:..\lvgl\lv_core/lv_obj.c **** 
 669:..\lvgl\lv_core/lv_obj.c ****         case LV_ALIGN_IN_TOP_LEFT:
 670:..\lvgl\lv_core/lv_obj.c ****             new_x = 0;
 671:..\lvgl\lv_core/lv_obj.c ****             new_y = 0;
 672:..\lvgl\lv_core/lv_obj.c ****             break;
 673:..\lvgl\lv_core/lv_obj.c ****         case LV_ALIGN_IN_TOP_MID:
 674:..\lvgl\lv_core/lv_obj.c ****             new_x = lv_obj_get_width(base) / 2 - lv_obj_get_width(obj) / 2;
 675:..\lvgl\lv_core/lv_obj.c ****             new_y = 0;
 676:..\lvgl\lv_core/lv_obj.c ****             break;
 677:..\lvgl\lv_core/lv_obj.c **** 
 678:..\lvgl\lv_core/lv_obj.c ****         case LV_ALIGN_IN_TOP_RIGHT:
 679:..\lvgl\lv_core/lv_obj.c ****             new_x = lv_obj_get_width(base) - lv_obj_get_width(obj);
 680:..\lvgl\lv_core/lv_obj.c ****             new_y = 0;
 681:..\lvgl\lv_core/lv_obj.c ****             break;
 682:..\lvgl\lv_core/lv_obj.c **** 
 683:..\lvgl\lv_core/lv_obj.c ****         case LV_ALIGN_IN_BOTTOM_LEFT:
 684:..\lvgl\lv_core/lv_obj.c ****             new_x = 0;
 685:..\lvgl\lv_core/lv_obj.c ****             new_y = lv_obj_get_height(base) - lv_obj_get_height(obj);
 686:..\lvgl\lv_core/lv_obj.c ****             break;
 687:..\lvgl\lv_core/lv_obj.c ****         case LV_ALIGN_IN_BOTTOM_MID:
 688:..\lvgl\lv_core/lv_obj.c ****             new_x = lv_obj_get_width(base) / 2 - lv_obj_get_width(obj) / 2;
 689:..\lvgl\lv_core/lv_obj.c ****             new_y = lv_obj_get_height(base) - lv_obj_get_height(obj);
 690:..\lvgl\lv_core/lv_obj.c ****             break;
 691:..\lvgl\lv_core/lv_obj.c **** 
 692:..\lvgl\lv_core/lv_obj.c ****         case LV_ALIGN_IN_BOTTOM_RIGHT:
 693:..\lvgl\lv_core/lv_obj.c ****             new_x = lv_obj_get_width(base) - lv_obj_get_width(obj);
 694:..\lvgl\lv_core/lv_obj.c ****             new_y = lv_obj_get_height(base) - lv_obj_get_height(obj);
 695:..\lvgl\lv_core/lv_obj.c ****             break;
 696:..\lvgl\lv_core/lv_obj.c **** 
 697:..\lvgl\lv_core/lv_obj.c ****         case LV_ALIGN_IN_LEFT_MID:
 698:..\lvgl\lv_core/lv_obj.c ****             new_x = 0;
 699:..\lvgl\lv_core/lv_obj.c ****             new_y = lv_obj_get_height(base) / 2 - lv_obj_get_height(obj) / 2;
 700:..\lvgl\lv_core/lv_obj.c ****             break;
 701:..\lvgl\lv_core/lv_obj.c **** 
 702:..\lvgl\lv_core/lv_obj.c ****         case LV_ALIGN_IN_RIGHT_MID:
 703:..\lvgl\lv_core/lv_obj.c ****             new_x = lv_obj_get_width(base) - lv_obj_get_width(obj);
 704:..\lvgl\lv_core/lv_obj.c ****             new_y = lv_obj_get_height(base) / 2 - lv_obj_get_height(obj) / 2;
 705:..\lvgl\lv_core/lv_obj.c ****             break;
 706:..\lvgl\lv_core/lv_obj.c **** 
 707:..\lvgl\lv_core/lv_obj.c ****         case LV_ALIGN_OUT_TOP_LEFT:
 708:..\lvgl\lv_core/lv_obj.c ****             new_x = 0;
 709:..\lvgl\lv_core/lv_obj.c ****             new_y = -lv_obj_get_height(obj);
 710:..\lvgl\lv_core/lv_obj.c ****             break;
 711:..\lvgl\lv_core/lv_obj.c **** 
 712:..\lvgl\lv_core/lv_obj.c ****         case LV_ALIGN_OUT_TOP_MID:
 713:..\lvgl\lv_core/lv_obj.c ****             new_x = lv_obj_get_width(base) / 2 - lv_obj_get_width(obj) / 2;
 714:..\lvgl\lv_core/lv_obj.c ****             new_y = - lv_obj_get_height(obj);
 715:..\lvgl\lv_core/lv_obj.c ****             break;
ARM GAS  C:\Users\d3bug\AppData\Local\Temp\ccFiAZjI.s 			page 14


 716:..\lvgl\lv_core/lv_obj.c **** 
 717:..\lvgl\lv_core/lv_obj.c ****         case LV_ALIGN_OUT_TOP_RIGHT:
 718:..\lvgl\lv_core/lv_obj.c ****             new_x = lv_obj_get_width(base) - lv_obj_get_width(obj);
 719:..\lvgl\lv_core/lv_obj.c ****             new_y = - lv_obj_get_height(obj);
 720:..\lvgl\lv_core/lv_obj.c ****             break;
 721:..\lvgl\lv_core/lv_obj.c **** 
 722:..\lvgl\lv_core/lv_obj.c ****         case LV_ALIGN_OUT_BOTTOM_LEFT:
 723:..\lvgl\lv_core/lv_obj.c ****             new_x = 0;
 724:..\lvgl\lv_core/lv_obj.c ****             new_y = lv_obj_get_height(base);
 725:..\lvgl\lv_core/lv_obj.c ****             break;
 726:..\lvgl\lv_core/lv_obj.c **** 
 727:..\lvgl\lv_core/lv_obj.c ****         case LV_ALIGN_OUT_BOTTOM_MID:
 728:..\lvgl\lv_core/lv_obj.c ****             new_x = lv_obj_get_width(base) / 2 - lv_obj_get_width(obj) / 2;
 729:..\lvgl\lv_core/lv_obj.c ****             new_y = lv_obj_get_height(base);
 730:..\lvgl\lv_core/lv_obj.c ****             break;
 731:..\lvgl\lv_core/lv_obj.c **** 
 732:..\lvgl\lv_core/lv_obj.c ****         case LV_ALIGN_OUT_BOTTOM_RIGHT:
 733:..\lvgl\lv_core/lv_obj.c ****             new_x = lv_obj_get_width(base) - lv_obj_get_width(obj);
 734:..\lvgl\lv_core/lv_obj.c ****             new_y = lv_obj_get_height(base);
 735:..\lvgl\lv_core/lv_obj.c ****             break;
 736:..\lvgl\lv_core/lv_obj.c **** 
 737:..\lvgl\lv_core/lv_obj.c ****         case LV_ALIGN_OUT_LEFT_TOP:
 738:..\lvgl\lv_core/lv_obj.c ****             new_x = - lv_obj_get_width(obj);
 739:..\lvgl\lv_core/lv_obj.c ****             new_y = 0;
 740:..\lvgl\lv_core/lv_obj.c ****             break;
 741:..\lvgl\lv_core/lv_obj.c **** 
 742:..\lvgl\lv_core/lv_obj.c ****         case LV_ALIGN_OUT_LEFT_MID:
 743:..\lvgl\lv_core/lv_obj.c ****             new_x = - lv_obj_get_width(obj);
 744:..\lvgl\lv_core/lv_obj.c ****             new_y = lv_obj_get_height(base) / 2 - lv_obj_get_height(obj) / 2;
 745:..\lvgl\lv_core/lv_obj.c ****             break;
 746:..\lvgl\lv_core/lv_obj.c **** 
 747:..\lvgl\lv_core/lv_obj.c ****         case LV_ALIGN_OUT_LEFT_BOTTOM:
 748:..\lvgl\lv_core/lv_obj.c ****             new_x = - lv_obj_get_width(obj);
 749:..\lvgl\lv_core/lv_obj.c ****             new_y = lv_obj_get_height(base) - lv_obj_get_height(obj);
 750:..\lvgl\lv_core/lv_obj.c ****             break;
 751:..\lvgl\lv_core/lv_obj.c **** 
 752:..\lvgl\lv_core/lv_obj.c ****         case LV_ALIGN_OUT_RIGHT_TOP:
 753:..\lvgl\lv_core/lv_obj.c ****             new_x = lv_obj_get_width(base);
 754:..\lvgl\lv_core/lv_obj.c ****             new_y = 0;
 755:..\lvgl\lv_core/lv_obj.c ****             break;
 756:..\lvgl\lv_core/lv_obj.c **** 
 757:..\lvgl\lv_core/lv_obj.c ****         case LV_ALIGN_OUT_RIGHT_MID:
 758:..\lvgl\lv_core/lv_obj.c ****             new_x = lv_obj_get_width(base);
 759:..\lvgl\lv_core/lv_obj.c ****             new_y = lv_obj_get_height(base) / 2 - lv_obj_get_height(obj) / 2;
 760:..\lvgl\lv_core/lv_obj.c ****             break;
 761:..\lvgl\lv_core/lv_obj.c **** 
 762:..\lvgl\lv_core/lv_obj.c ****         case LV_ALIGN_OUT_RIGHT_BOTTOM:
 763:..\lvgl\lv_core/lv_obj.c ****             new_x = lv_obj_get_width(base);
 764:..\lvgl\lv_core/lv_obj.c ****             new_y = lv_obj_get_height(base) - lv_obj_get_height(obj);
 765:..\lvgl\lv_core/lv_obj.c ****             break;
 766:..\lvgl\lv_core/lv_obj.c ****     }
 767:..\lvgl\lv_core/lv_obj.c **** 
 768:..\lvgl\lv_core/lv_obj.c ****     /*Bring together the coordination system of base and obj*/
 769:..\lvgl\lv_core/lv_obj.c ****     lv_obj_t * par = lv_obj_get_parent(obj);
 770:..\lvgl\lv_core/lv_obj.c ****     lv_coord_t base_abs_x = base->coords.x1;
 771:..\lvgl\lv_core/lv_obj.c ****     lv_coord_t base_abs_y = base->coords.y1;
 772:..\lvgl\lv_core/lv_obj.c ****     lv_coord_t par_abs_x = par->coords.x1;
ARM GAS  C:\Users\d3bug\AppData\Local\Temp\ccFiAZjI.s 			page 15


 773:..\lvgl\lv_core/lv_obj.c ****     lv_coord_t par_abs_y = par->coords.y1;
 774:..\lvgl\lv_core/lv_obj.c ****     new_x += x_mod + base_abs_x;
 775:..\lvgl\lv_core/lv_obj.c ****     new_y += y_mod + base_abs_y;
 776:..\lvgl\lv_core/lv_obj.c ****     new_x -= par_abs_x;
 777:..\lvgl\lv_core/lv_obj.c ****     new_y -= par_abs_y;
 778:..\lvgl\lv_core/lv_obj.c **** 
 779:..\lvgl\lv_core/lv_obj.c ****     lv_obj_set_pos(obj, new_x, new_y);
 780:..\lvgl\lv_core/lv_obj.c **** 
 781:..\lvgl\lv_core/lv_obj.c **** #if LV_OBJ_REALIGN
 782:..\lvgl\lv_core/lv_obj.c ****     /*Save the last align parameters to use them in `lv_obj_realign`*/
 783:..\lvgl\lv_core/lv_obj.c ****     obj->realign.align = align;
 784:..\lvgl\lv_core/lv_obj.c ****     obj->realign.xofs = x_mod;
 785:..\lvgl\lv_core/lv_obj.c ****     obj->realign.yofs = y_mod;
 786:..\lvgl\lv_core/lv_obj.c ****     obj->realign.base = base;
 787:..\lvgl\lv_core/lv_obj.c ****     obj->realign.origo_align = 0;
 788:..\lvgl\lv_core/lv_obj.c **** #endif
 789:..\lvgl\lv_core/lv_obj.c **** }
 790:..\lvgl\lv_core/lv_obj.c **** 
 791:..\lvgl\lv_core/lv_obj.c **** /**
 792:..\lvgl\lv_core/lv_obj.c ****  * Align an object to an other object.
 793:..\lvgl\lv_core/lv_obj.c ****  * @param obj pointer to an object to align
 794:..\lvgl\lv_core/lv_obj.c ****  * @param base pointer to an object (if NULL the parent is used). 'obj' will be aligned to it.
 795:..\lvgl\lv_core/lv_obj.c ****  * @param align type of alignment (see 'lv_align_t' enum)
 796:..\lvgl\lv_core/lv_obj.c ****  * @param x_mod x coordinate shift after alignment
 797:..\lvgl\lv_core/lv_obj.c ****  * @param y_mod y coordinate shift after alignment
 798:..\lvgl\lv_core/lv_obj.c ****  */
 799:..\lvgl\lv_core/lv_obj.c **** void lv_obj_align_origo(lv_obj_t * obj, const lv_obj_t * base, lv_align_t align, lv_coord_t x_mod, 
 800:..\lvgl\lv_core/lv_obj.c **** {
 801:..\lvgl\lv_core/lv_obj.c ****     lv_coord_t new_x = lv_obj_get_x(obj);
 802:..\lvgl\lv_core/lv_obj.c ****     lv_coord_t new_y = lv_obj_get_y(obj);
 803:..\lvgl\lv_core/lv_obj.c **** 
 804:..\lvgl\lv_core/lv_obj.c ****     lv_coord_t obj_w_half =  lv_obj_get_width(obj) / 2;
 805:..\lvgl\lv_core/lv_obj.c ****     lv_coord_t obj_h_half = lv_obj_get_height(obj) / 2;
 806:..\lvgl\lv_core/lv_obj.c **** 
 807:..\lvgl\lv_core/lv_obj.c ****     if(base == NULL) {
 808:..\lvgl\lv_core/lv_obj.c ****         base = lv_obj_get_parent(obj);
 809:..\lvgl\lv_core/lv_obj.c ****     }
 810:..\lvgl\lv_core/lv_obj.c **** 
 811:..\lvgl\lv_core/lv_obj.c ****     switch(align) {
 812:..\lvgl\lv_core/lv_obj.c ****         case LV_ALIGN_CENTER:
 813:..\lvgl\lv_core/lv_obj.c ****             new_x = lv_obj_get_width(base) / 2 - obj_w_half;
 814:..\lvgl\lv_core/lv_obj.c ****             new_y = lv_obj_get_height(base) / 2 - obj_h_half;
 815:..\lvgl\lv_core/lv_obj.c ****             break;
 816:..\lvgl\lv_core/lv_obj.c **** 
 817:..\lvgl\lv_core/lv_obj.c ****         case LV_ALIGN_IN_TOP_LEFT:
 818:..\lvgl\lv_core/lv_obj.c ****             new_x = -obj_w_half;
 819:..\lvgl\lv_core/lv_obj.c ****             new_y = -obj_h_half;
 820:..\lvgl\lv_core/lv_obj.c ****             break;
 821:..\lvgl\lv_core/lv_obj.c ****         case LV_ALIGN_IN_TOP_MID:
 822:..\lvgl\lv_core/lv_obj.c ****             new_x = lv_obj_get_width(base) / 2 - obj_w_half;
 823:..\lvgl\lv_core/lv_obj.c ****             new_y = -obj_h_half;
 824:..\lvgl\lv_core/lv_obj.c ****             break;
 825:..\lvgl\lv_core/lv_obj.c **** 
 826:..\lvgl\lv_core/lv_obj.c ****         case LV_ALIGN_IN_TOP_RIGHT:
 827:..\lvgl\lv_core/lv_obj.c ****             new_x = lv_obj_get_width(base) - obj_w_half;
 828:..\lvgl\lv_core/lv_obj.c ****             new_y = -obj_h_half;
 829:..\lvgl\lv_core/lv_obj.c ****             break;
ARM GAS  C:\Users\d3bug\AppData\Local\Temp\ccFiAZjI.s 			page 16


 830:..\lvgl\lv_core/lv_obj.c **** 
 831:..\lvgl\lv_core/lv_obj.c ****         case LV_ALIGN_IN_BOTTOM_LEFT:
 832:..\lvgl\lv_core/lv_obj.c ****             new_x = -obj_w_half;
 833:..\lvgl\lv_core/lv_obj.c ****             new_y = lv_obj_get_height(base) - obj_h_half;
 834:..\lvgl\lv_core/lv_obj.c ****             break;
 835:..\lvgl\lv_core/lv_obj.c ****         case LV_ALIGN_IN_BOTTOM_MID:
 836:..\lvgl\lv_core/lv_obj.c ****             new_x = lv_obj_get_width(base) / 2 - obj_w_half;
 837:..\lvgl\lv_core/lv_obj.c ****             new_y = lv_obj_get_height(base) - obj_h_half;
 838:..\lvgl\lv_core/lv_obj.c ****             break;
 839:..\lvgl\lv_core/lv_obj.c **** 
 840:..\lvgl\lv_core/lv_obj.c ****         case LV_ALIGN_IN_BOTTOM_RIGHT:
 841:..\lvgl\lv_core/lv_obj.c ****             new_x = lv_obj_get_width(base) - obj_w_half;
 842:..\lvgl\lv_core/lv_obj.c ****             new_y = lv_obj_get_height(base) - obj_h_half;
 843:..\lvgl\lv_core/lv_obj.c ****             break;
 844:..\lvgl\lv_core/lv_obj.c **** 
 845:..\lvgl\lv_core/lv_obj.c ****         case LV_ALIGN_IN_LEFT_MID:
 846:..\lvgl\lv_core/lv_obj.c ****             new_x = -obj_w_half;
 847:..\lvgl\lv_core/lv_obj.c ****             new_y = lv_obj_get_height(base) / 2 - obj_h_half;
 848:..\lvgl\lv_core/lv_obj.c ****             break;
 849:..\lvgl\lv_core/lv_obj.c **** 
 850:..\lvgl\lv_core/lv_obj.c ****         case LV_ALIGN_IN_RIGHT_MID:
 851:..\lvgl\lv_core/lv_obj.c ****             new_x = lv_obj_get_width(base) - obj_w_half;
 852:..\lvgl\lv_core/lv_obj.c ****             new_y = lv_obj_get_height(base) / 2 - obj_h_half;
 853:..\lvgl\lv_core/lv_obj.c ****             break;
 854:..\lvgl\lv_core/lv_obj.c **** 
 855:..\lvgl\lv_core/lv_obj.c ****         case LV_ALIGN_OUT_TOP_LEFT:
 856:..\lvgl\lv_core/lv_obj.c ****             new_x = -obj_w_half;
 857:..\lvgl\lv_core/lv_obj.c ****             new_y = -obj_h_half;
 858:..\lvgl\lv_core/lv_obj.c ****             break;
 859:..\lvgl\lv_core/lv_obj.c **** 
 860:..\lvgl\lv_core/lv_obj.c ****         case LV_ALIGN_OUT_TOP_MID:
 861:..\lvgl\lv_core/lv_obj.c ****             new_x = lv_obj_get_width(base) / 2 - obj_w_half;
 862:..\lvgl\lv_core/lv_obj.c ****             new_y = -obj_h_half;
 863:..\lvgl\lv_core/lv_obj.c ****             break;
 864:..\lvgl\lv_core/lv_obj.c **** 
 865:..\lvgl\lv_core/lv_obj.c ****         case LV_ALIGN_OUT_TOP_RIGHT:
 866:..\lvgl\lv_core/lv_obj.c ****             new_x = lv_obj_get_width(base) - obj_w_half;
 867:..\lvgl\lv_core/lv_obj.c ****             new_y = - obj_h_half;
 868:..\lvgl\lv_core/lv_obj.c ****             break;
 869:..\lvgl\lv_core/lv_obj.c **** 
 870:..\lvgl\lv_core/lv_obj.c ****         case LV_ALIGN_OUT_BOTTOM_LEFT:
 871:..\lvgl\lv_core/lv_obj.c ****             new_x = -obj_w_half;
 872:..\lvgl\lv_core/lv_obj.c ****             new_y = lv_obj_get_height(base) - obj_h_half;
 873:..\lvgl\lv_core/lv_obj.c ****             break;
 874:..\lvgl\lv_core/lv_obj.c **** 
 875:..\lvgl\lv_core/lv_obj.c ****         case LV_ALIGN_OUT_BOTTOM_MID:
 876:..\lvgl\lv_core/lv_obj.c ****             new_x = lv_obj_get_width(base) / 2 - obj_w_half;
 877:..\lvgl\lv_core/lv_obj.c ****             new_y = lv_obj_get_height(base) - obj_h_half;
 878:..\lvgl\lv_core/lv_obj.c ****             break;
 879:..\lvgl\lv_core/lv_obj.c **** 
 880:..\lvgl\lv_core/lv_obj.c ****         case LV_ALIGN_OUT_BOTTOM_RIGHT:
 881:..\lvgl\lv_core/lv_obj.c ****             new_x = lv_obj_get_width(base) - obj_w_half;
 882:..\lvgl\lv_core/lv_obj.c ****             new_y = lv_obj_get_height(base) - obj_h_half;
 883:..\lvgl\lv_core/lv_obj.c ****             break;
 884:..\lvgl\lv_core/lv_obj.c **** 
 885:..\lvgl\lv_core/lv_obj.c ****         case LV_ALIGN_OUT_LEFT_TOP:
 886:..\lvgl\lv_core/lv_obj.c ****             new_x = - obj_w_half ;
ARM GAS  C:\Users\d3bug\AppData\Local\Temp\ccFiAZjI.s 			page 17


 887:..\lvgl\lv_core/lv_obj.c ****             new_y = - obj_h_half;
 888:..\lvgl\lv_core/lv_obj.c ****             break;
 889:..\lvgl\lv_core/lv_obj.c **** 
 890:..\lvgl\lv_core/lv_obj.c ****         case LV_ALIGN_OUT_LEFT_MID:
 891:..\lvgl\lv_core/lv_obj.c ****             new_x = - obj_w_half;
 892:..\lvgl\lv_core/lv_obj.c ****             new_y = lv_obj_get_height(base) / 2 - obj_h_half;
 893:..\lvgl\lv_core/lv_obj.c ****             break;
 894:..\lvgl\lv_core/lv_obj.c **** 
 895:..\lvgl\lv_core/lv_obj.c ****         case LV_ALIGN_OUT_LEFT_BOTTOM:
 896:..\lvgl\lv_core/lv_obj.c ****             new_x = - obj_w_half;
 897:..\lvgl\lv_core/lv_obj.c ****             new_y = lv_obj_get_height(base) - obj_h_half;
 898:..\lvgl\lv_core/lv_obj.c ****             break;
 899:..\lvgl\lv_core/lv_obj.c **** 
 900:..\lvgl\lv_core/lv_obj.c ****         case LV_ALIGN_OUT_RIGHT_TOP:
 901:..\lvgl\lv_core/lv_obj.c ****             new_x = lv_obj_get_width(base) - obj_w_half;
 902:..\lvgl\lv_core/lv_obj.c ****             new_y = -obj_h_half;
 903:..\lvgl\lv_core/lv_obj.c ****             break;
 904:..\lvgl\lv_core/lv_obj.c **** 
 905:..\lvgl\lv_core/lv_obj.c ****         case LV_ALIGN_OUT_RIGHT_MID:
 906:..\lvgl\lv_core/lv_obj.c ****             new_x = lv_obj_get_width(base) - obj_w_half;
 907:..\lvgl\lv_core/lv_obj.c ****             new_y = lv_obj_get_height(base) / 2 - obj_h_half;
 908:..\lvgl\lv_core/lv_obj.c ****             break;
 909:..\lvgl\lv_core/lv_obj.c **** 
 910:..\lvgl\lv_core/lv_obj.c ****         case LV_ALIGN_OUT_RIGHT_BOTTOM:
 911:..\lvgl\lv_core/lv_obj.c ****             new_x = lv_obj_get_width(base) - obj_w_half;
 912:..\lvgl\lv_core/lv_obj.c ****             new_y = lv_obj_get_height(base) - obj_h_half;
 913:..\lvgl\lv_core/lv_obj.c ****             break;
 914:..\lvgl\lv_core/lv_obj.c ****     }
 915:..\lvgl\lv_core/lv_obj.c **** 
 916:..\lvgl\lv_core/lv_obj.c ****     /*Bring together the coordination system of base and obj*/
 917:..\lvgl\lv_core/lv_obj.c ****     lv_obj_t * par = lv_obj_get_parent(obj);
 918:..\lvgl\lv_core/lv_obj.c ****     lv_coord_t base_abs_x = base->coords.x1;
 919:..\lvgl\lv_core/lv_obj.c ****     lv_coord_t base_abs_y = base->coords.y1;
 920:..\lvgl\lv_core/lv_obj.c ****     lv_coord_t par_abs_x = par->coords.x1;
 921:..\lvgl\lv_core/lv_obj.c ****     lv_coord_t par_abs_y = par->coords.y1;
 922:..\lvgl\lv_core/lv_obj.c ****     new_x += x_mod + base_abs_x;
 923:..\lvgl\lv_core/lv_obj.c ****     new_y += y_mod + base_abs_y;
 924:..\lvgl\lv_core/lv_obj.c ****     new_x -= par_abs_x;
 925:..\lvgl\lv_core/lv_obj.c ****     new_y -= par_abs_y;
 926:..\lvgl\lv_core/lv_obj.c **** 
 927:..\lvgl\lv_core/lv_obj.c ****     lv_obj_set_pos(obj, new_x, new_y);
 928:..\lvgl\lv_core/lv_obj.c **** 
 929:..\lvgl\lv_core/lv_obj.c **** #if LV_OBJ_REALIGN
 930:..\lvgl\lv_core/lv_obj.c ****     /*Save the last align parameters to use them in `lv_obj_realign`*/
 931:..\lvgl\lv_core/lv_obj.c ****     obj->realign.align = align;
 932:..\lvgl\lv_core/lv_obj.c ****     obj->realign.xofs = x_mod;
 933:..\lvgl\lv_core/lv_obj.c ****     obj->realign.yofs = y_mod;
 934:..\lvgl\lv_core/lv_obj.c ****     obj->realign.base = base;
 935:..\lvgl\lv_core/lv_obj.c ****     obj->realign.origo_align = 1;
 936:..\lvgl\lv_core/lv_obj.c **** #endif
 937:..\lvgl\lv_core/lv_obj.c **** }
 938:..\lvgl\lv_core/lv_obj.c **** 
 939:..\lvgl\lv_core/lv_obj.c **** /**
 940:..\lvgl\lv_core/lv_obj.c ****  * Realign the object based on the last `lv_obj_align` parameters.
 941:..\lvgl\lv_core/lv_obj.c ****  * @param obj pointer to an object
 942:..\lvgl\lv_core/lv_obj.c ****  */
 943:..\lvgl\lv_core/lv_obj.c **** void lv_obj_realign(lv_obj_t * obj)
ARM GAS  C:\Users\d3bug\AppData\Local\Temp\ccFiAZjI.s 			page 18


 944:..\lvgl\lv_core/lv_obj.c **** {
 945:..\lvgl\lv_core/lv_obj.c **** #if LV_OBJ_REALIGN
 946:..\lvgl\lv_core/lv_obj.c ****     if(obj->realign.origo_align) lv_obj_align_origo(obj, obj->realign.base, obj->realign.align, obj
 947:..\lvgl\lv_core/lv_obj.c ****     else lv_obj_align(obj, obj->realign.base, obj->realign.align, obj->realign.xofs, obj->realign.y
 948:..\lvgl\lv_core/lv_obj.c **** #else
 949:..\lvgl\lv_core/lv_obj.c ****     (void) obj;
 950:..\lvgl\lv_core/lv_obj.c ****     LV_LOG_WARN("lv_obj_realaign: no effect because LV_OBJ_REALIGN = 0");
 951:..\lvgl\lv_core/lv_obj.c **** #endif
 952:..\lvgl\lv_core/lv_obj.c **** }
 953:..\lvgl\lv_core/lv_obj.c **** 
 954:..\lvgl\lv_core/lv_obj.c **** /**
 955:..\lvgl\lv_core/lv_obj.c ****  * Enable the automatic realign of the object when its size has changed based on the last `lv_obj_a
 956:..\lvgl\lv_core/lv_obj.c ****  * @param obj pointer to an object
 957:..\lvgl\lv_core/lv_obj.c ****  * @param en true: enable auto realign; false: disable auto realign
 958:..\lvgl\lv_core/lv_obj.c ****  */
 959:..\lvgl\lv_core/lv_obj.c **** void lv_obj_set_auto_realign(lv_obj_t * obj, bool en)
 960:..\lvgl\lv_core/lv_obj.c **** {
 961:..\lvgl\lv_core/lv_obj.c **** #if LV_OBJ_REALIGN
 962:..\lvgl\lv_core/lv_obj.c ****     obj->realign.auto_realign = en ? 1 : 0;
 963:..\lvgl\lv_core/lv_obj.c **** #else
 964:..\lvgl\lv_core/lv_obj.c ****     (void) obj;
 965:..\lvgl\lv_core/lv_obj.c ****     (void) en;
 966:..\lvgl\lv_core/lv_obj.c ****     LV_LOG_WARN("lv_obj_set_auto_realign: no effect because LV_OBJ_REALIGN = 0");
 967:..\lvgl\lv_core/lv_obj.c **** #endif
 968:..\lvgl\lv_core/lv_obj.c **** }
 969:..\lvgl\lv_core/lv_obj.c **** 
 970:..\lvgl\lv_core/lv_obj.c **** /*---------------------
 971:..\lvgl\lv_core/lv_obj.c ****  * Appearance set
 972:..\lvgl\lv_core/lv_obj.c ****  *--------------------*/
 973:..\lvgl\lv_core/lv_obj.c **** 
 974:..\lvgl\lv_core/lv_obj.c **** /**
 975:..\lvgl\lv_core/lv_obj.c ****  * Set a new style for an object
 976:..\lvgl\lv_core/lv_obj.c ****  * @param obj pointer to an object
 977:..\lvgl\lv_core/lv_obj.c ****  * @param style_p pointer to the new style
 978:..\lvgl\lv_core/lv_obj.c ****  */
 979:..\lvgl\lv_core/lv_obj.c **** void lv_obj_set_style(lv_obj_t * obj, lv_style_t * style)
 980:..\lvgl\lv_core/lv_obj.c **** {
 981:..\lvgl\lv_core/lv_obj.c ****     obj->style_p = style;
 982:..\lvgl\lv_core/lv_obj.c **** 
 983:..\lvgl\lv_core/lv_obj.c ****     /*Send a signal about style change to every children with NULL style*/
 984:..\lvgl\lv_core/lv_obj.c ****     refresh_childen_style(obj);
 985:..\lvgl\lv_core/lv_obj.c **** 
 986:..\lvgl\lv_core/lv_obj.c ****     /*Notify the object about the style change too*/
 987:..\lvgl\lv_core/lv_obj.c ****     lv_obj_refresh_style(obj);
 988:..\lvgl\lv_core/lv_obj.c **** }
 989:..\lvgl\lv_core/lv_obj.c **** 
 990:..\lvgl\lv_core/lv_obj.c **** /**
 991:..\lvgl\lv_core/lv_obj.c ****  * Notify an object about its style is modified
 992:..\lvgl\lv_core/lv_obj.c ****  * @param obj pointer to an object
 993:..\lvgl\lv_core/lv_obj.c ****  */
 994:..\lvgl\lv_core/lv_obj.c **** void lv_obj_refresh_style(lv_obj_t * obj)
 995:..\lvgl\lv_core/lv_obj.c **** {
 996:..\lvgl\lv_core/lv_obj.c ****     lv_obj_invalidate(obj);
 997:..\lvgl\lv_core/lv_obj.c ****     obj->signal_func(obj, LV_SIGNAL_STYLE_CHG, NULL);
 998:..\lvgl\lv_core/lv_obj.c ****     lv_obj_invalidate(obj);
 999:..\lvgl\lv_core/lv_obj.c **** 
1000:..\lvgl\lv_core/lv_obj.c **** }
ARM GAS  C:\Users\d3bug\AppData\Local\Temp\ccFiAZjI.s 			page 19


1001:..\lvgl\lv_core/lv_obj.c **** 
1002:..\lvgl\lv_core/lv_obj.c **** /**
1003:..\lvgl\lv_core/lv_obj.c ****  * Notify all object if a style is modified
1004:..\lvgl\lv_core/lv_obj.c ****  * @param style pointer to a style. Only the objects with this style will be notified
1005:..\lvgl\lv_core/lv_obj.c ****  *               (NULL to notify all objects)
1006:..\lvgl\lv_core/lv_obj.c ****  */
1007:..\lvgl\lv_core/lv_obj.c **** void lv_obj_report_style_mod(lv_style_t * style)
1008:..\lvgl\lv_core/lv_obj.c **** {
1009:..\lvgl\lv_core/lv_obj.c ****     lv_obj_t * i;
1010:..\lvgl\lv_core/lv_obj.c ****     LL_READ(LV_GC_ROOT(_lv_scr_ll), i) {
1011:..\lvgl\lv_core/lv_obj.c ****         if(i->style_p == style || style == NULL) {
1012:..\lvgl\lv_core/lv_obj.c ****             lv_obj_refresh_style(i);
1013:..\lvgl\lv_core/lv_obj.c ****         }
1014:..\lvgl\lv_core/lv_obj.c **** 
1015:..\lvgl\lv_core/lv_obj.c ****         report_style_mod_core(style, i);
1016:..\lvgl\lv_core/lv_obj.c ****     }
1017:..\lvgl\lv_core/lv_obj.c **** }
1018:..\lvgl\lv_core/lv_obj.c **** 
1019:..\lvgl\lv_core/lv_obj.c **** /*-----------------
1020:..\lvgl\lv_core/lv_obj.c ****  * Attribute set
1021:..\lvgl\lv_core/lv_obj.c ****  *----------------*/
1022:..\lvgl\lv_core/lv_obj.c **** 
1023:..\lvgl\lv_core/lv_obj.c **** /**
1024:..\lvgl\lv_core/lv_obj.c ****  * Hide an object. It won't be visible and clickable.
1025:..\lvgl\lv_core/lv_obj.c ****  * @param obj pointer to an object
1026:..\lvgl\lv_core/lv_obj.c ****  * @param en true: hide the object
1027:..\lvgl\lv_core/lv_obj.c ****  */
1028:..\lvgl\lv_core/lv_obj.c **** void lv_obj_set_hidden(lv_obj_t * obj, bool en)
1029:..\lvgl\lv_core/lv_obj.c **** {
1030:..\lvgl\lv_core/lv_obj.c ****     if(!obj->hidden) lv_obj_invalidate(obj);    /*Invalidate when not hidden (hidden objects are ig
1031:..\lvgl\lv_core/lv_obj.c **** 
1032:..\lvgl\lv_core/lv_obj.c ****     obj->hidden = en == false ? 0 : 1;
1033:..\lvgl\lv_core/lv_obj.c **** 
1034:..\lvgl\lv_core/lv_obj.c ****     if(!obj->hidden) lv_obj_invalidate(obj);    /*Invalidate when not hidden (hidden objects are ig
1035:..\lvgl\lv_core/lv_obj.c **** 
1036:..\lvgl\lv_core/lv_obj.c ****     lv_obj_t * par = lv_obj_get_parent(obj);
1037:..\lvgl\lv_core/lv_obj.c ****     par->signal_func(par, LV_SIGNAL_CHILD_CHG, obj);
1038:..\lvgl\lv_core/lv_obj.c **** 
1039:..\lvgl\lv_core/lv_obj.c **** }
1040:..\lvgl\lv_core/lv_obj.c **** 
1041:..\lvgl\lv_core/lv_obj.c **** /**
1042:..\lvgl\lv_core/lv_obj.c ****  * Enable or disable the clicking of an object
1043:..\lvgl\lv_core/lv_obj.c ****  * @param obj pointer to an object
1044:..\lvgl\lv_core/lv_obj.c ****  * @param en true: make the object clickable
1045:..\lvgl\lv_core/lv_obj.c ****  */
1046:..\lvgl\lv_core/lv_obj.c **** void lv_obj_set_click(lv_obj_t * obj, bool en)
1047:..\lvgl\lv_core/lv_obj.c **** {
1048:..\lvgl\lv_core/lv_obj.c ****     obj->click = (en == true ? 1 : 0);
1049:..\lvgl\lv_core/lv_obj.c **** }
1050:..\lvgl\lv_core/lv_obj.c **** 
1051:..\lvgl\lv_core/lv_obj.c **** /**
1052:..\lvgl\lv_core/lv_obj.c ****  * Enable to bring this object to the foreground if it
1053:..\lvgl\lv_core/lv_obj.c ****  * or any of its children is clicked
1054:..\lvgl\lv_core/lv_obj.c ****  * @param obj pointer to an object
1055:..\lvgl\lv_core/lv_obj.c ****  * @param en true: enable the auto top feature
1056:..\lvgl\lv_core/lv_obj.c ****  */
1057:..\lvgl\lv_core/lv_obj.c **** void lv_obj_set_top(lv_obj_t * obj, bool en)
ARM GAS  C:\Users\d3bug\AppData\Local\Temp\ccFiAZjI.s 			page 20


1058:..\lvgl\lv_core/lv_obj.c **** {
1059:..\lvgl\lv_core/lv_obj.c ****     obj->top = (en == true ? 1 : 0);
1060:..\lvgl\lv_core/lv_obj.c **** }
1061:..\lvgl\lv_core/lv_obj.c **** 
1062:..\lvgl\lv_core/lv_obj.c **** /**
1063:..\lvgl\lv_core/lv_obj.c ****  * Enable the dragging of an object
1064:..\lvgl\lv_core/lv_obj.c ****  * @param obj pointer to an object
1065:..\lvgl\lv_core/lv_obj.c ****  * @param en true: make the object dragable
1066:..\lvgl\lv_core/lv_obj.c ****  */
1067:..\lvgl\lv_core/lv_obj.c **** void lv_obj_set_drag(lv_obj_t * obj, bool en)
1068:..\lvgl\lv_core/lv_obj.c **** {
1069:..\lvgl\lv_core/lv_obj.c ****     if(en == true) lv_obj_set_click(obj, true);     /*Drag is useless without enabled clicking*/
1070:..\lvgl\lv_core/lv_obj.c ****     obj->drag = (en == true ? 1 : 0);
1071:..\lvgl\lv_core/lv_obj.c **** }
1072:..\lvgl\lv_core/lv_obj.c **** 
1073:..\lvgl\lv_core/lv_obj.c **** /**
1074:..\lvgl\lv_core/lv_obj.c ****  * Enable the throwing of an object after is is dragged
1075:..\lvgl\lv_core/lv_obj.c ****  * @param obj pointer to an object
1076:..\lvgl\lv_core/lv_obj.c ****  * @param en true: enable the drag throw
1077:..\lvgl\lv_core/lv_obj.c ****  */
1078:..\lvgl\lv_core/lv_obj.c **** void lv_obj_set_drag_throw(lv_obj_t * obj, bool en)
1079:..\lvgl\lv_core/lv_obj.c **** {
1080:..\lvgl\lv_core/lv_obj.c ****     obj->drag_throw = (en == true ? 1 : 0);
1081:..\lvgl\lv_core/lv_obj.c **** }
1082:..\lvgl\lv_core/lv_obj.c **** 
1083:..\lvgl\lv_core/lv_obj.c **** /**
1084:..\lvgl\lv_core/lv_obj.c ****  * Enable to use parent for drag related operations.
1085:..\lvgl\lv_core/lv_obj.c ****  * If trying to drag the object the parent will be moved instead
1086:..\lvgl\lv_core/lv_obj.c ****  * @param obj pointer to an object
1087:..\lvgl\lv_core/lv_obj.c ****  * @param en true: enable the 'drag parent' for the object
1088:..\lvgl\lv_core/lv_obj.c ****  */
1089:..\lvgl\lv_core/lv_obj.c **** void lv_obj_set_drag_parent(lv_obj_t * obj, bool en)
1090:..\lvgl\lv_core/lv_obj.c **** {
1091:..\lvgl\lv_core/lv_obj.c ****     obj->drag_parent = (en == true ? 1 : 0);
1092:..\lvgl\lv_core/lv_obj.c **** }
1093:..\lvgl\lv_core/lv_obj.c **** 
1094:..\lvgl\lv_core/lv_obj.c **** /**
1095:..\lvgl\lv_core/lv_obj.c ****  * Set the opa scale enable parameter (required to set opa_scale with `lv_obj_set_opa_scale()`)
1096:..\lvgl\lv_core/lv_obj.c ****  * @param obj pointer to an object
1097:..\lvgl\lv_core/lv_obj.c ****  * @param en true: opa scaling is enabled for this object and all children; false: no opa scaling
1098:..\lvgl\lv_core/lv_obj.c ****  */
1099:..\lvgl\lv_core/lv_obj.c **** void lv_obj_set_opa_scale_enable(lv_obj_t * obj, bool en)
1100:..\lvgl\lv_core/lv_obj.c **** {
1101:..\lvgl\lv_core/lv_obj.c ****     obj->opa_scale_en =  en ? 1 : 0;
1102:..\lvgl\lv_core/lv_obj.c **** }
1103:..\lvgl\lv_core/lv_obj.c **** 
1104:..\lvgl\lv_core/lv_obj.c **** /**
1105:..\lvgl\lv_core/lv_obj.c ****  * Set the opa scale of an object
1106:..\lvgl\lv_core/lv_obj.c ****  * @param obj pointer to an object
1107:..\lvgl\lv_core/lv_obj.c ****  * @param opa_scale a factor to scale down opacity [0..255]
1108:..\lvgl\lv_core/lv_obj.c ****  */
1109:..\lvgl\lv_core/lv_obj.c **** void lv_obj_set_opa_scale(lv_obj_t * obj, lv_opa_t opa_scale)
1110:..\lvgl\lv_core/lv_obj.c **** {
1111:..\lvgl\lv_core/lv_obj.c ****     obj->opa_scale = opa_scale;
1112:..\lvgl\lv_core/lv_obj.c ****     lv_obj_invalidate(obj);
1113:..\lvgl\lv_core/lv_obj.c **** }
1114:..\lvgl\lv_core/lv_obj.c **** 
ARM GAS  C:\Users\d3bug\AppData\Local\Temp\ccFiAZjI.s 			page 21


1115:..\lvgl\lv_core/lv_obj.c **** /**
1116:..\lvgl\lv_core/lv_obj.c ****  * Set a bit or bits in the protect filed
1117:..\lvgl\lv_core/lv_obj.c ****  * @param obj pointer to an object
1118:..\lvgl\lv_core/lv_obj.c ****  * @param prot 'OR'-ed values from `lv_protect_t`
1119:..\lvgl\lv_core/lv_obj.c ****  */
1120:..\lvgl\lv_core/lv_obj.c **** void lv_obj_set_protect(lv_obj_t * obj, uint8_t prot)
1121:..\lvgl\lv_core/lv_obj.c **** {
1122:..\lvgl\lv_core/lv_obj.c ****     obj->protect |= prot;
1123:..\lvgl\lv_core/lv_obj.c **** }
1124:..\lvgl\lv_core/lv_obj.c **** 
1125:..\lvgl\lv_core/lv_obj.c **** /**
1126:..\lvgl\lv_core/lv_obj.c ****  * Clear a bit or bits in the protect filed
1127:..\lvgl\lv_core/lv_obj.c ****  * @param obj pointer to an object
1128:..\lvgl\lv_core/lv_obj.c ****  * @param prot 'OR'-ed values from `lv_protect_t`
1129:..\lvgl\lv_core/lv_obj.c ****  */
1130:..\lvgl\lv_core/lv_obj.c **** void lv_obj_clear_protect(lv_obj_t * obj, uint8_t prot)
1131:..\lvgl\lv_core/lv_obj.c **** {
1132:..\lvgl\lv_core/lv_obj.c ****     prot = (~prot) & 0xFF;
1133:..\lvgl\lv_core/lv_obj.c ****     obj->protect &= prot;
1134:..\lvgl\lv_core/lv_obj.c **** }
1135:..\lvgl\lv_core/lv_obj.c **** 
1136:..\lvgl\lv_core/lv_obj.c **** /**
1137:..\lvgl\lv_core/lv_obj.c ****  * Set the signal function of an object.
1138:..\lvgl\lv_core/lv_obj.c ****  * Always call the previous signal function in the new.
1139:..\lvgl\lv_core/lv_obj.c ****  * @param obj pointer to an object
1140:..\lvgl\lv_core/lv_obj.c ****  * @param fp the new signal function
1141:..\lvgl\lv_core/lv_obj.c ****  */
1142:..\lvgl\lv_core/lv_obj.c **** void lv_obj_set_signal_func(lv_obj_t * obj, lv_signal_func_t fp)
1143:..\lvgl\lv_core/lv_obj.c **** {
1144:..\lvgl\lv_core/lv_obj.c ****     obj->signal_func = fp;
1145:..\lvgl\lv_core/lv_obj.c **** }
1146:..\lvgl\lv_core/lv_obj.c **** 
1147:..\lvgl\lv_core/lv_obj.c **** /**
1148:..\lvgl\lv_core/lv_obj.c ****  * Set a new design function for an object
1149:..\lvgl\lv_core/lv_obj.c ****  * @param obj pointer to an object
1150:..\lvgl\lv_core/lv_obj.c ****  * @param fp the new design function
1151:..\lvgl\lv_core/lv_obj.c ****  */
1152:..\lvgl\lv_core/lv_obj.c **** void lv_obj_set_design_func(lv_obj_t * obj, lv_design_func_t fp)
1153:..\lvgl\lv_core/lv_obj.c **** {
1154:..\lvgl\lv_core/lv_obj.c ****     obj->design_func = fp;
1155:..\lvgl\lv_core/lv_obj.c **** }
1156:..\lvgl\lv_core/lv_obj.c **** 
1157:..\lvgl\lv_core/lv_obj.c **** /*----------------
1158:..\lvgl\lv_core/lv_obj.c ****  * Other set
1159:..\lvgl\lv_core/lv_obj.c ****  *--------------*/
1160:..\lvgl\lv_core/lv_obj.c **** 
1161:..\lvgl\lv_core/lv_obj.c **** /**
1162:..\lvgl\lv_core/lv_obj.c ****  * Allocate a new ext. data for an object
1163:..\lvgl\lv_core/lv_obj.c ****  * @param obj pointer to an object
1164:..\lvgl\lv_core/lv_obj.c ****  * @param ext_size the size of the new ext. data
1165:..\lvgl\lv_core/lv_obj.c ****  * @return Normal pointer to the allocated ext
1166:..\lvgl\lv_core/lv_obj.c ****  */
1167:..\lvgl\lv_core/lv_obj.c **** void * lv_obj_allocate_ext_attr(lv_obj_t * obj, uint16_t ext_size)
1168:..\lvgl\lv_core/lv_obj.c **** {
1169:..\lvgl\lv_core/lv_obj.c ****     obj->ext_attr = lv_mem_realloc(obj->ext_attr, ext_size);
1170:..\lvgl\lv_core/lv_obj.c **** 
1171:..\lvgl\lv_core/lv_obj.c ****     return (void *)obj->ext_attr;
ARM GAS  C:\Users\d3bug\AppData\Local\Temp\ccFiAZjI.s 			page 22


1172:..\lvgl\lv_core/lv_obj.c **** }
1173:..\lvgl\lv_core/lv_obj.c **** 
1174:..\lvgl\lv_core/lv_obj.c **** /**
1175:..\lvgl\lv_core/lv_obj.c ****  * Send a 'LV_SIGNAL_REFR_EXT_SIZE' signal to the object
1176:..\lvgl\lv_core/lv_obj.c ****  * @param obj pointer to an object
1177:..\lvgl\lv_core/lv_obj.c ****  */
1178:..\lvgl\lv_core/lv_obj.c **** void lv_obj_refresh_ext_size(lv_obj_t * obj)
1179:..\lvgl\lv_core/lv_obj.c **** {
1180:..\lvgl\lv_core/lv_obj.c ****     obj->ext_size = 0;
1181:..\lvgl\lv_core/lv_obj.c ****     obj->signal_func(obj, LV_SIGNAL_REFR_EXT_SIZE, NULL);
1182:..\lvgl\lv_core/lv_obj.c **** 
1183:..\lvgl\lv_core/lv_obj.c ****     lv_obj_invalidate(obj);
1184:..\lvgl\lv_core/lv_obj.c **** }
1185:..\lvgl\lv_core/lv_obj.c **** 
1186:..\lvgl\lv_core/lv_obj.c **** #ifdef LV_OBJ_FREE_NUM_TYPE
1187:..\lvgl\lv_core/lv_obj.c **** /**
1188:..\lvgl\lv_core/lv_obj.c ****  * Set an application specific number for an object.
1189:..\lvgl\lv_core/lv_obj.c ****  * It can help to identify objects in the application.
1190:..\lvgl\lv_core/lv_obj.c ****  * @param obj pointer to an object
1191:..\lvgl\lv_core/lv_obj.c ****  * @param free_num the new free number
1192:..\lvgl\lv_core/lv_obj.c ****  */
1193:..\lvgl\lv_core/lv_obj.c **** void lv_obj_set_free_num(lv_obj_t * obj, LV_OBJ_FREE_NUM_TYPE free_num)
1194:..\lvgl\lv_core/lv_obj.c **** {
1195:..\lvgl\lv_core/lv_obj.c ****     obj->free_num = free_num;
1196:..\lvgl\lv_core/lv_obj.c **** }
1197:..\lvgl\lv_core/lv_obj.c **** #endif
1198:..\lvgl\lv_core/lv_obj.c **** 
1199:..\lvgl\lv_core/lv_obj.c **** #if LV_OBJ_FREE_PTR != 0
1200:..\lvgl\lv_core/lv_obj.c **** /**
1201:..\lvgl\lv_core/lv_obj.c ****  * Set an application specific  pointer for an object.
1202:..\lvgl\lv_core/lv_obj.c ****  * It can help to identify objects in the application.
1203:..\lvgl\lv_core/lv_obj.c ****  * @param obj pointer to an object
1204:..\lvgl\lv_core/lv_obj.c ****  * @param free_p the new free pinter
1205:..\lvgl\lv_core/lv_obj.c ****  */
1206:..\lvgl\lv_core/lv_obj.c **** void lv_obj_set_free_ptr(lv_obj_t * obj, void * free_p)
1207:..\lvgl\lv_core/lv_obj.c **** {
1208:..\lvgl\lv_core/lv_obj.c ****     obj->free_ptr = free_p;
1209:..\lvgl\lv_core/lv_obj.c **** }
1210:..\lvgl\lv_core/lv_obj.c **** #endif
1211:..\lvgl\lv_core/lv_obj.c **** 
1212:..\lvgl\lv_core/lv_obj.c **** #if USE_LV_ANIMATION
1213:..\lvgl\lv_core/lv_obj.c **** /**
1214:..\lvgl\lv_core/lv_obj.c ****  * Animate an object
1215:..\lvgl\lv_core/lv_obj.c ****  * @param obj pointer to an object to animate
1216:..\lvgl\lv_core/lv_obj.c ****  * @param type type of animation from 'lv_anim_builtin_t'. 'OR' it with ANIM_IN or ANIM_OUT
1217:..\lvgl\lv_core/lv_obj.c ****  * @param time time of animation in milliseconds
1218:..\lvgl\lv_core/lv_obj.c ****  * @param delay delay before the animation in milliseconds
1219:..\lvgl\lv_core/lv_obj.c ****  * @param cb a function to call when the animation is ready
1220:..\lvgl\lv_core/lv_obj.c ****  */
1221:..\lvgl\lv_core/lv_obj.c **** void lv_obj_animate(lv_obj_t * obj, lv_anim_builtin_t type, uint16_t time, uint16_t delay, void (*c
1222:..\lvgl\lv_core/lv_obj.c **** {
1223:..\lvgl\lv_core/lv_obj.c ****     lv_obj_t * par = lv_obj_get_parent(obj);
1224:..\lvgl\lv_core/lv_obj.c **** 
1225:..\lvgl\lv_core/lv_obj.c ****     /*Get the direction*/
1226:..\lvgl\lv_core/lv_obj.c ****     bool out = (type & LV_ANIM_DIR_MASK) == LV_ANIM_IN ? false : true;
1227:..\lvgl\lv_core/lv_obj.c ****     type = type & (~LV_ANIM_DIR_MASK);
1228:..\lvgl\lv_core/lv_obj.c **** 
ARM GAS  C:\Users\d3bug\AppData\Local\Temp\ccFiAZjI.s 			page 23


1229:..\lvgl\lv_core/lv_obj.c ****     lv_anim_t a;
1230:..\lvgl\lv_core/lv_obj.c ****     a.var = obj;
1231:..\lvgl\lv_core/lv_obj.c ****     a.time = time;
1232:..\lvgl\lv_core/lv_obj.c ****     a.act_time = (int32_t) - delay;
1233:..\lvgl\lv_core/lv_obj.c ****     a.end_cb = (void(*)(void *))cb;
1234:..\lvgl\lv_core/lv_obj.c ****     a.path = lv_anim_path_linear;
1235:..\lvgl\lv_core/lv_obj.c ****     a.playback_pause = 0;
1236:..\lvgl\lv_core/lv_obj.c ****     a.repeat_pause = 0;
1237:..\lvgl\lv_core/lv_obj.c ****     a.playback = 0;
1238:..\lvgl\lv_core/lv_obj.c ****     a.repeat = 0;
1239:..\lvgl\lv_core/lv_obj.c **** 
1240:..\lvgl\lv_core/lv_obj.c ****     /*Init to ANIM_IN*/
1241:..\lvgl\lv_core/lv_obj.c ****     switch(type) {
1242:..\lvgl\lv_core/lv_obj.c ****         case LV_ANIM_FLOAT_LEFT:
1243:..\lvgl\lv_core/lv_obj.c ****             a.fp = (void(*)(void *, int32_t))lv_obj_set_x;
1244:..\lvgl\lv_core/lv_obj.c ****             a.start = -lv_obj_get_width(obj);
1245:..\lvgl\lv_core/lv_obj.c ****             a.end = lv_obj_get_x(obj);
1246:..\lvgl\lv_core/lv_obj.c ****             break;
1247:..\lvgl\lv_core/lv_obj.c ****         case LV_ANIM_FLOAT_RIGHT:
1248:..\lvgl\lv_core/lv_obj.c ****             a.fp = (void(*)(void *, int32_t))lv_obj_set_x;
1249:..\lvgl\lv_core/lv_obj.c ****             a.start = lv_obj_get_width(par);
1250:..\lvgl\lv_core/lv_obj.c ****             a.end = lv_obj_get_x(obj);
1251:..\lvgl\lv_core/lv_obj.c ****             break;
1252:..\lvgl\lv_core/lv_obj.c ****         case LV_ANIM_FLOAT_TOP:
1253:..\lvgl\lv_core/lv_obj.c ****             a.fp = (void(*)(void *, int32_t))lv_obj_set_y;
1254:..\lvgl\lv_core/lv_obj.c ****             a.start = -lv_obj_get_height(obj);
1255:..\lvgl\lv_core/lv_obj.c ****             a.end = lv_obj_get_y(obj);
1256:..\lvgl\lv_core/lv_obj.c ****             break;
1257:..\lvgl\lv_core/lv_obj.c ****         case LV_ANIM_FLOAT_BOTTOM:
1258:..\lvgl\lv_core/lv_obj.c ****             a.fp = (void(*)(void *, int32_t))lv_obj_set_y;
1259:..\lvgl\lv_core/lv_obj.c ****             a.start = lv_obj_get_height(par);
1260:..\lvgl\lv_core/lv_obj.c ****             a.end = lv_obj_get_y(obj);
1261:..\lvgl\lv_core/lv_obj.c ****             break;
1262:..\lvgl\lv_core/lv_obj.c ****         case LV_ANIM_GROW_H:
1263:..\lvgl\lv_core/lv_obj.c ****             a.fp = (void(*)(void *, int32_t))lv_obj_set_width;
1264:..\lvgl\lv_core/lv_obj.c ****             a.start = 0;
1265:..\lvgl\lv_core/lv_obj.c ****             a.end = lv_obj_get_width(obj);
1266:..\lvgl\lv_core/lv_obj.c ****             break;
1267:..\lvgl\lv_core/lv_obj.c ****         case LV_ANIM_GROW_V:
1268:..\lvgl\lv_core/lv_obj.c ****             a.fp = (void(*)(void *, int32_t))lv_obj_set_height;
1269:..\lvgl\lv_core/lv_obj.c ****             a.start = 0;
1270:..\lvgl\lv_core/lv_obj.c ****             a.end = lv_obj_get_height(obj);
1271:..\lvgl\lv_core/lv_obj.c ****             break;
1272:..\lvgl\lv_core/lv_obj.c ****         case LV_ANIM_NONE:
1273:..\lvgl\lv_core/lv_obj.c ****             a.fp = NULL;
1274:..\lvgl\lv_core/lv_obj.c ****             a.start = 0;
1275:..\lvgl\lv_core/lv_obj.c ****             a.end = 0;
1276:..\lvgl\lv_core/lv_obj.c ****             break;
1277:..\lvgl\lv_core/lv_obj.c ****         default:
1278:..\lvgl\lv_core/lv_obj.c ****             break;
1279:..\lvgl\lv_core/lv_obj.c ****     }
1280:..\lvgl\lv_core/lv_obj.c **** 
1281:..\lvgl\lv_core/lv_obj.c ****     /*Swap start and end in case of ANIM OUT*/
1282:..\lvgl\lv_core/lv_obj.c ****     if(out != false) {
1283:..\lvgl\lv_core/lv_obj.c ****         int32_t tmp = a.start;
1284:..\lvgl\lv_core/lv_obj.c ****         a.start = a.end;
1285:..\lvgl\lv_core/lv_obj.c ****         a.end = tmp;
ARM GAS  C:\Users\d3bug\AppData\Local\Temp\ccFiAZjI.s 			page 24


1286:..\lvgl\lv_core/lv_obj.c ****     }
1287:..\lvgl\lv_core/lv_obj.c **** 
1288:..\lvgl\lv_core/lv_obj.c ****     lv_anim_create(&a);
1289:..\lvgl\lv_core/lv_obj.c **** }
1290:..\lvgl\lv_core/lv_obj.c **** 
1291:..\lvgl\lv_core/lv_obj.c **** #endif
1292:..\lvgl\lv_core/lv_obj.c **** 
1293:..\lvgl\lv_core/lv_obj.c **** /*=======================
1294:..\lvgl\lv_core/lv_obj.c ****  * Getter functions
1295:..\lvgl\lv_core/lv_obj.c ****  *======================*/
1296:..\lvgl\lv_core/lv_obj.c **** 
1297:..\lvgl\lv_core/lv_obj.c **** /*------------------
1298:..\lvgl\lv_core/lv_obj.c ****  * Screen get
1299:..\lvgl\lv_core/lv_obj.c ****  *-----------------*/
1300:..\lvgl\lv_core/lv_obj.c **** 
1301:..\lvgl\lv_core/lv_obj.c **** /**
1302:..\lvgl\lv_core/lv_obj.c ****  * Return with a pointer to the active screen
1303:..\lvgl\lv_core/lv_obj.c ****  * @return pointer to the active screen object (loaded by 'lv_scr_load()')
1304:..\lvgl\lv_core/lv_obj.c ****  */
1305:..\lvgl\lv_core/lv_obj.c **** lv_obj_t * lv_scr_act(void)
1306:..\lvgl\lv_core/lv_obj.c **** {
1307:..\lvgl\lv_core/lv_obj.c ****     return LV_GC_ROOT(_lv_act_scr);
1308:..\lvgl\lv_core/lv_obj.c **** }
1309:..\lvgl\lv_core/lv_obj.c **** 
1310:..\lvgl\lv_core/lv_obj.c **** /**
1311:..\lvgl\lv_core/lv_obj.c ****  * Return with the top layer. (Same on every screen and it is above the normal screen layer)
1312:..\lvgl\lv_core/lv_obj.c ****  * @return pointer to the top layer object  (transparent screen sized lv_obj)
1313:..\lvgl\lv_core/lv_obj.c ****  */
1314:..\lvgl\lv_core/lv_obj.c **** lv_obj_t * lv_layer_top(void)
1315:..\lvgl\lv_core/lv_obj.c **** {
1316:..\lvgl\lv_core/lv_obj.c ****     return LV_GC_ROOT(_lv_top_layer);
1317:..\lvgl\lv_core/lv_obj.c **** }
1318:..\lvgl\lv_core/lv_obj.c **** 
1319:..\lvgl\lv_core/lv_obj.c **** /**
1320:..\lvgl\lv_core/lv_obj.c ****  * Return with the system layer. (Same on every screen and it is above the all other layers)
1321:..\lvgl\lv_core/lv_obj.c ****  * It is used for example by the cursor
1322:..\lvgl\lv_core/lv_obj.c ****  * @return pointer to the system layer object (transparent screen sized lv_obj)
1323:..\lvgl\lv_core/lv_obj.c ****  */
1324:..\lvgl\lv_core/lv_obj.c **** lv_obj_t * lv_layer_sys(void)
1325:..\lvgl\lv_core/lv_obj.c **** {
1326:..\lvgl\lv_core/lv_obj.c ****     return LV_GC_ROOT(_lv_sys_layer);
1327:..\lvgl\lv_core/lv_obj.c **** }
1328:..\lvgl\lv_core/lv_obj.c **** 
1329:..\lvgl\lv_core/lv_obj.c **** /**
1330:..\lvgl\lv_core/lv_obj.c ****  * Return with the screen of an object
1331:..\lvgl\lv_core/lv_obj.c ****  * @param obj pointer to an object
1332:..\lvgl\lv_core/lv_obj.c ****  * @return pointer to a screen
1333:..\lvgl\lv_core/lv_obj.c ****  */
1334:..\lvgl\lv_core/lv_obj.c **** lv_obj_t * lv_obj_get_screen(const lv_obj_t * obj)
1335:..\lvgl\lv_core/lv_obj.c **** {
1336:..\lvgl\lv_core/lv_obj.c ****     const lv_obj_t * par = obj;
1337:..\lvgl\lv_core/lv_obj.c ****     const lv_obj_t * act_p;
1338:..\lvgl\lv_core/lv_obj.c **** 
1339:..\lvgl\lv_core/lv_obj.c ****     do {
1340:..\lvgl\lv_core/lv_obj.c ****         act_p = par;
1341:..\lvgl\lv_core/lv_obj.c ****         par = lv_obj_get_parent(act_p);
1342:..\lvgl\lv_core/lv_obj.c ****     } while(par != NULL);
ARM GAS  C:\Users\d3bug\AppData\Local\Temp\ccFiAZjI.s 			page 25


1343:..\lvgl\lv_core/lv_obj.c **** 
1344:..\lvgl\lv_core/lv_obj.c ****     return (lv_obj_t *)act_p;
1345:..\lvgl\lv_core/lv_obj.c **** }
1346:..\lvgl\lv_core/lv_obj.c **** 
1347:..\lvgl\lv_core/lv_obj.c **** /*---------------------
1348:..\lvgl\lv_core/lv_obj.c ****  * Parent/children get
1349:..\lvgl\lv_core/lv_obj.c ****  *--------------------*/
1350:..\lvgl\lv_core/lv_obj.c **** 
1351:..\lvgl\lv_core/lv_obj.c **** /**
1352:..\lvgl\lv_core/lv_obj.c ****  * Returns with the parent of an object
1353:..\lvgl\lv_core/lv_obj.c ****  * @param obj pointer to an object
1354:..\lvgl\lv_core/lv_obj.c ****  * @return pointer to the parent of  'obj'
1355:..\lvgl\lv_core/lv_obj.c ****  */
1356:..\lvgl\lv_core/lv_obj.c **** lv_obj_t * lv_obj_get_parent(const lv_obj_t * obj)
1357:..\lvgl\lv_core/lv_obj.c **** {
1358:..\lvgl\lv_core/lv_obj.c ****     return obj->par;
1359:..\lvgl\lv_core/lv_obj.c **** }
1360:..\lvgl\lv_core/lv_obj.c **** 
1361:..\lvgl\lv_core/lv_obj.c **** /**
1362:..\lvgl\lv_core/lv_obj.c ****  * Iterate through the children of an object (start from the "youngest")
1363:..\lvgl\lv_core/lv_obj.c ****  * @param obj pointer to an object
1364:..\lvgl\lv_core/lv_obj.c ****  * @param child NULL at first call to get the next children
1365:..\lvgl\lv_core/lv_obj.c ****  *                  and the previous return value later
1366:..\lvgl\lv_core/lv_obj.c ****  * @return the child after 'act_child' or NULL if no more child
1367:..\lvgl\lv_core/lv_obj.c ****  */
1368:..\lvgl\lv_core/lv_obj.c **** lv_obj_t * lv_obj_get_child(const lv_obj_t * obj, const lv_obj_t * child)
1369:..\lvgl\lv_core/lv_obj.c **** {
1370:..\lvgl\lv_core/lv_obj.c ****     lv_obj_t * result = NULL;
1371:..\lvgl\lv_core/lv_obj.c **** 
1372:..\lvgl\lv_core/lv_obj.c ****     if(child == NULL) {
1373:..\lvgl\lv_core/lv_obj.c ****         result = lv_ll_get_head(&obj->child_ll);
1374:..\lvgl\lv_core/lv_obj.c ****     } else {
1375:..\lvgl\lv_core/lv_obj.c ****         result = lv_ll_get_next(&obj->child_ll, child);
1376:..\lvgl\lv_core/lv_obj.c ****     }
1377:..\lvgl\lv_core/lv_obj.c **** 
1378:..\lvgl\lv_core/lv_obj.c ****     return result;
1379:..\lvgl\lv_core/lv_obj.c **** }
1380:..\lvgl\lv_core/lv_obj.c **** 
1381:..\lvgl\lv_core/lv_obj.c **** /**
1382:..\lvgl\lv_core/lv_obj.c ****  * Iterate through the children of an object (start from the "oldest")
1383:..\lvgl\lv_core/lv_obj.c ****  * @param obj pointer to an object
1384:..\lvgl\lv_core/lv_obj.c ****  * @param child NULL at first call to get the next children
1385:..\lvgl\lv_core/lv_obj.c ****  *                  and the previous return value later
1386:..\lvgl\lv_core/lv_obj.c ****  * @return the child after 'act_child' or NULL if no more child
1387:..\lvgl\lv_core/lv_obj.c ****  */
1388:..\lvgl\lv_core/lv_obj.c **** lv_obj_t * lv_obj_get_child_back(const lv_obj_t * obj, const lv_obj_t * child)
1389:..\lvgl\lv_core/lv_obj.c **** {
1390:..\lvgl\lv_core/lv_obj.c ****     lv_obj_t * result = NULL;
1391:..\lvgl\lv_core/lv_obj.c **** 
1392:..\lvgl\lv_core/lv_obj.c ****     if(child == NULL) {
1393:..\lvgl\lv_core/lv_obj.c ****         result = lv_ll_get_tail(&obj->child_ll);
1394:..\lvgl\lv_core/lv_obj.c ****     } else {
1395:..\lvgl\lv_core/lv_obj.c ****         result = lv_ll_get_prev(&obj->child_ll, child);
1396:..\lvgl\lv_core/lv_obj.c ****     }
1397:..\lvgl\lv_core/lv_obj.c **** 
1398:..\lvgl\lv_core/lv_obj.c ****     return result;
1399:..\lvgl\lv_core/lv_obj.c **** }
ARM GAS  C:\Users\d3bug\AppData\Local\Temp\ccFiAZjI.s 			page 26


1400:..\lvgl\lv_core/lv_obj.c **** 
1401:..\lvgl\lv_core/lv_obj.c **** /**
1402:..\lvgl\lv_core/lv_obj.c ****  * Count the children of an object (only children directly on 'obj')
1403:..\lvgl\lv_core/lv_obj.c ****  * @param obj pointer to an object
1404:..\lvgl\lv_core/lv_obj.c ****  * @return children number of 'obj'
1405:..\lvgl\lv_core/lv_obj.c ****  */
1406:..\lvgl\lv_core/lv_obj.c **** uint16_t lv_obj_count_children(const lv_obj_t * obj)
1407:..\lvgl\lv_core/lv_obj.c **** {
1408:..\lvgl\lv_core/lv_obj.c ****     lv_obj_t * i;
1409:..\lvgl\lv_core/lv_obj.c ****     uint16_t cnt = 0;
1410:..\lvgl\lv_core/lv_obj.c **** 
1411:..\lvgl\lv_core/lv_obj.c ****     LL_READ(obj->child_ll, i) cnt++;
1412:..\lvgl\lv_core/lv_obj.c **** 
1413:..\lvgl\lv_core/lv_obj.c ****     return cnt;
1414:..\lvgl\lv_core/lv_obj.c **** }
1415:..\lvgl\lv_core/lv_obj.c **** 
1416:..\lvgl\lv_core/lv_obj.c **** /*---------------------
1417:..\lvgl\lv_core/lv_obj.c ****  * Coordinate get
1418:..\lvgl\lv_core/lv_obj.c ****  *--------------------*/
1419:..\lvgl\lv_core/lv_obj.c **** 
1420:..\lvgl\lv_core/lv_obj.c **** /**
1421:..\lvgl\lv_core/lv_obj.c ****  * Copy the coordinates of an object to an area
1422:..\lvgl\lv_core/lv_obj.c ****  * @param obj pointer to an object
1423:..\lvgl\lv_core/lv_obj.c ****  * @param cords_p pointer to an area to store the coordinates
1424:..\lvgl\lv_core/lv_obj.c ****  */
1425:..\lvgl\lv_core/lv_obj.c **** void lv_obj_get_coords(const lv_obj_t * obj, lv_area_t * cords_p)
1426:..\lvgl\lv_core/lv_obj.c **** {
1427:..\lvgl\lv_core/lv_obj.c ****     lv_area_copy(cords_p, &obj->coords);
1428:..\lvgl\lv_core/lv_obj.c **** }
1429:..\lvgl\lv_core/lv_obj.c **** 
1430:..\lvgl\lv_core/lv_obj.c **** 
1431:..\lvgl\lv_core/lv_obj.c **** /**
1432:..\lvgl\lv_core/lv_obj.c ****  * Get the x coordinate of object
1433:..\lvgl\lv_core/lv_obj.c ****  * @param obj pointer to an object
1434:..\lvgl\lv_core/lv_obj.c ****  * @return distance of 'obj' from the left side of its parent
1435:..\lvgl\lv_core/lv_obj.c ****  */
1436:..\lvgl\lv_core/lv_obj.c **** lv_coord_t lv_obj_get_x(const lv_obj_t * obj)
1437:..\lvgl\lv_core/lv_obj.c **** {
1438:..\lvgl\lv_core/lv_obj.c ****     lv_coord_t rel_x;
1439:..\lvgl\lv_core/lv_obj.c ****     lv_obj_t * parent = lv_obj_get_parent(obj);
1440:..\lvgl\lv_core/lv_obj.c ****     rel_x = obj->coords.x1 - parent->coords.x1;
1441:..\lvgl\lv_core/lv_obj.c **** 
1442:..\lvgl\lv_core/lv_obj.c ****     return rel_x;
1443:..\lvgl\lv_core/lv_obj.c **** }
1444:..\lvgl\lv_core/lv_obj.c **** 
1445:..\lvgl\lv_core/lv_obj.c **** /**
1446:..\lvgl\lv_core/lv_obj.c ****  * Get the y coordinate of object
1447:..\lvgl\lv_core/lv_obj.c ****  * @param obj pointer to an object
1448:..\lvgl\lv_core/lv_obj.c ****  * @return distance of 'obj' from the top of its parent
1449:..\lvgl\lv_core/lv_obj.c ****  */
1450:..\lvgl\lv_core/lv_obj.c **** lv_coord_t lv_obj_get_y(const lv_obj_t * obj)
1451:..\lvgl\lv_core/lv_obj.c **** {
1452:..\lvgl\lv_core/lv_obj.c ****     lv_coord_t rel_y;
1453:..\lvgl\lv_core/lv_obj.c ****     lv_obj_t * parent = lv_obj_get_parent(obj);
1454:..\lvgl\lv_core/lv_obj.c ****     rel_y = obj->coords.y1 - parent->coords.y1;
1455:..\lvgl\lv_core/lv_obj.c **** 
1456:..\lvgl\lv_core/lv_obj.c ****     return rel_y;
ARM GAS  C:\Users\d3bug\AppData\Local\Temp\ccFiAZjI.s 			page 27


1457:..\lvgl\lv_core/lv_obj.c **** }
1458:..\lvgl\lv_core/lv_obj.c **** 
1459:..\lvgl\lv_core/lv_obj.c **** /**
1460:..\lvgl\lv_core/lv_obj.c ****  * Get the width of an object
1461:..\lvgl\lv_core/lv_obj.c ****  * @param obj pointer to an object
1462:..\lvgl\lv_core/lv_obj.c ****  * @return the width
1463:..\lvgl\lv_core/lv_obj.c ****  */
1464:..\lvgl\lv_core/lv_obj.c **** lv_coord_t lv_obj_get_width(const lv_obj_t * obj)
1465:..\lvgl\lv_core/lv_obj.c **** {
1466:..\lvgl\lv_core/lv_obj.c ****     return lv_area_get_width(&obj->coords);
1467:..\lvgl\lv_core/lv_obj.c **** }
1468:..\lvgl\lv_core/lv_obj.c **** 
1469:..\lvgl\lv_core/lv_obj.c **** /**
1470:..\lvgl\lv_core/lv_obj.c ****  * Get the height of an object
1471:..\lvgl\lv_core/lv_obj.c ****  * @param obj pointer to an object
1472:..\lvgl\lv_core/lv_obj.c ****  * @return the height
1473:..\lvgl\lv_core/lv_obj.c ****  */
1474:..\lvgl\lv_core/lv_obj.c **** lv_coord_t lv_obj_get_height(const lv_obj_t * obj)
1475:..\lvgl\lv_core/lv_obj.c **** {
1476:..\lvgl\lv_core/lv_obj.c ****     return lv_area_get_height(&obj->coords);
1477:..\lvgl\lv_core/lv_obj.c **** }
1478:..\lvgl\lv_core/lv_obj.c **** 
1479:..\lvgl\lv_core/lv_obj.c **** /**
1480:..\lvgl\lv_core/lv_obj.c ****  * Get the extended size attribute of an object
1481:..\lvgl\lv_core/lv_obj.c ****  * @param obj pointer to an object
1482:..\lvgl\lv_core/lv_obj.c ****  * @return the extended size attribute
1483:..\lvgl\lv_core/lv_obj.c ****  */
1484:..\lvgl\lv_core/lv_obj.c **** lv_coord_t lv_obj_get_ext_size(const lv_obj_t * obj)
1485:..\lvgl\lv_core/lv_obj.c **** {
1486:..\lvgl\lv_core/lv_obj.c ****     return obj->ext_size;
1487:..\lvgl\lv_core/lv_obj.c **** }
1488:..\lvgl\lv_core/lv_obj.c **** 
1489:..\lvgl\lv_core/lv_obj.c **** /**
1490:..\lvgl\lv_core/lv_obj.c ****  * Get the automatic realign property of the object.
1491:..\lvgl\lv_core/lv_obj.c ****  * @param obj pointer to an object
1492:..\lvgl\lv_core/lv_obj.c ****  * @return  true: auto realign is enabled; false: auto realign is disabled
1493:..\lvgl\lv_core/lv_obj.c ****  */
1494:..\lvgl\lv_core/lv_obj.c **** bool lv_obj_get_auto_realign(lv_obj_t * obj)
1495:..\lvgl\lv_core/lv_obj.c **** {
1496:..\lvgl\lv_core/lv_obj.c **** #if LV_OBJ_REALIGN
1497:..\lvgl\lv_core/lv_obj.c ****     return obj->realign.auto_realign ? true : false;
1498:..\lvgl\lv_core/lv_obj.c **** #else
1499:..\lvgl\lv_core/lv_obj.c ****     (void) obj;
1500:..\lvgl\lv_core/lv_obj.c ****     return false;
1501:..\lvgl\lv_core/lv_obj.c **** #endif
1502:..\lvgl\lv_core/lv_obj.c **** }
1503:..\lvgl\lv_core/lv_obj.c **** 
1504:..\lvgl\lv_core/lv_obj.c **** /*-----------------
1505:..\lvgl\lv_core/lv_obj.c ****  * Appearance get
1506:..\lvgl\lv_core/lv_obj.c ****  *---------------*/
1507:..\lvgl\lv_core/lv_obj.c **** 
1508:..\lvgl\lv_core/lv_obj.c **** /**
1509:..\lvgl\lv_core/lv_obj.c ****  * Get the style pointer of an object (if NULL get style of the parent)
1510:..\lvgl\lv_core/lv_obj.c ****  * @param obj pointer to an object
1511:..\lvgl\lv_core/lv_obj.c ****  * @return pointer to a style
1512:..\lvgl\lv_core/lv_obj.c ****  */
1513:..\lvgl\lv_core/lv_obj.c **** lv_style_t * lv_obj_get_style(const lv_obj_t * obj)
ARM GAS  C:\Users\d3bug\AppData\Local\Temp\ccFiAZjI.s 			page 28


1514:..\lvgl\lv_core/lv_obj.c **** {
1515:..\lvgl\lv_core/lv_obj.c ****     lv_style_t * style_act = obj->style_p;
1516:..\lvgl\lv_core/lv_obj.c ****     if(style_act == NULL) {
1517:..\lvgl\lv_core/lv_obj.c ****         lv_obj_t * par = obj->par;
1518:..\lvgl\lv_core/lv_obj.c **** 
1519:..\lvgl\lv_core/lv_obj.c ****         while(par) {
1520:..\lvgl\lv_core/lv_obj.c ****             if(par->style_p) {
1521:..\lvgl\lv_core/lv_obj.c ****                 if(par->style_p->glass == 0) {
1522:..\lvgl\lv_core/lv_obj.c **** #if USE_LV_GROUP == 0
1523:..\lvgl\lv_core/lv_obj.c ****                     style_act = par->style_p;
1524:..\lvgl\lv_core/lv_obj.c **** #else
1525:..\lvgl\lv_core/lv_obj.c ****                     /*Is a parent is focused then use then focused style*/
1526:..\lvgl\lv_core/lv_obj.c ****                     lv_group_t * g = lv_obj_get_group(par);
1527:..\lvgl\lv_core/lv_obj.c ****                     if(lv_group_get_focused(g) == par) {
1528:..\lvgl\lv_core/lv_obj.c ****                         style_act = lv_group_mod_style(g, par->style_p);
1529:..\lvgl\lv_core/lv_obj.c ****                     } else {
1530:..\lvgl\lv_core/lv_obj.c ****                         style_act = par->style_p;
1531:..\lvgl\lv_core/lv_obj.c ****                     }
1532:..\lvgl\lv_core/lv_obj.c **** #endif
1533:..\lvgl\lv_core/lv_obj.c ****                     break;
1534:..\lvgl\lv_core/lv_obj.c ****                 }
1535:..\lvgl\lv_core/lv_obj.c ****             }
1536:..\lvgl\lv_core/lv_obj.c ****             par = par->par;
1537:..\lvgl\lv_core/lv_obj.c ****         }
1538:..\lvgl\lv_core/lv_obj.c ****     }
1539:..\lvgl\lv_core/lv_obj.c **** #if USE_LV_GROUP
1540:..\lvgl\lv_core/lv_obj.c ****     if(obj->group_p) {
1541:..\lvgl\lv_core/lv_obj.c ****         if(lv_group_get_focused(obj->group_p) == obj) {
1542:..\lvgl\lv_core/lv_obj.c ****             style_act = lv_group_mod_style(obj->group_p, style_act);
1543:..\lvgl\lv_core/lv_obj.c ****         }
1544:..\lvgl\lv_core/lv_obj.c ****     }
1545:..\lvgl\lv_core/lv_obj.c **** #endif
1546:..\lvgl\lv_core/lv_obj.c **** 
1547:..\lvgl\lv_core/lv_obj.c ****     if(style_act == NULL) style_act = &lv_style_plain;
1548:..\lvgl\lv_core/lv_obj.c **** 
1549:..\lvgl\lv_core/lv_obj.c ****     return style_act;
1550:..\lvgl\lv_core/lv_obj.c **** }
1551:..\lvgl\lv_core/lv_obj.c **** 
1552:..\lvgl\lv_core/lv_obj.c **** /*-----------------
1553:..\lvgl\lv_core/lv_obj.c ****  * Attribute get
1554:..\lvgl\lv_core/lv_obj.c ****  *----------------*/
1555:..\lvgl\lv_core/lv_obj.c **** 
1556:..\lvgl\lv_core/lv_obj.c **** /**
1557:..\lvgl\lv_core/lv_obj.c ****  * Get the hidden attribute of an object
1558:..\lvgl\lv_core/lv_obj.c ****  * @param obj pointer to an object
1559:..\lvgl\lv_core/lv_obj.c ****  * @return true: the object is hidden
1560:..\lvgl\lv_core/lv_obj.c ****  */
1561:..\lvgl\lv_core/lv_obj.c **** bool lv_obj_get_hidden(const lv_obj_t * obj)
1562:..\lvgl\lv_core/lv_obj.c **** {
1563:..\lvgl\lv_core/lv_obj.c ****     return obj->hidden == 0 ? false : true;
1564:..\lvgl\lv_core/lv_obj.c **** }
1565:..\lvgl\lv_core/lv_obj.c **** 
1566:..\lvgl\lv_core/lv_obj.c **** /**
1567:..\lvgl\lv_core/lv_obj.c ****  * Get the click enable attribute of an object
1568:..\lvgl\lv_core/lv_obj.c ****  * @param obj pointer to an object
1569:..\lvgl\lv_core/lv_obj.c ****  * @return true: the object is clickable
1570:..\lvgl\lv_core/lv_obj.c ****  */
ARM GAS  C:\Users\d3bug\AppData\Local\Temp\ccFiAZjI.s 			page 29


1571:..\lvgl\lv_core/lv_obj.c **** bool lv_obj_get_click(const lv_obj_t * obj)
1572:..\lvgl\lv_core/lv_obj.c **** {
1573:..\lvgl\lv_core/lv_obj.c ****     return obj->click == 0 ? false : true;
1574:..\lvgl\lv_core/lv_obj.c **** }
1575:..\lvgl\lv_core/lv_obj.c **** 
1576:..\lvgl\lv_core/lv_obj.c **** /**
1577:..\lvgl\lv_core/lv_obj.c ****  * Get the top enable attribute of an object
1578:..\lvgl\lv_core/lv_obj.c ****  * @param obj pointer to an object
1579:..\lvgl\lv_core/lv_obj.c ****  * @return true: the auto top feture is enabled
1580:..\lvgl\lv_core/lv_obj.c ****  */
1581:..\lvgl\lv_core/lv_obj.c **** bool lv_obj_get_top(const lv_obj_t * obj)
1582:..\lvgl\lv_core/lv_obj.c **** {
1583:..\lvgl\lv_core/lv_obj.c ****     return obj->top == 0 ? false : true;
1584:..\lvgl\lv_core/lv_obj.c **** }
1585:..\lvgl\lv_core/lv_obj.c **** 
1586:..\lvgl\lv_core/lv_obj.c **** /**
1587:..\lvgl\lv_core/lv_obj.c ****  * Get the drag enable attribute of an object
1588:..\lvgl\lv_core/lv_obj.c ****  * @param obj pointer to an object
1589:..\lvgl\lv_core/lv_obj.c ****  * @return true: the object is dragable
1590:..\lvgl\lv_core/lv_obj.c ****  */
1591:..\lvgl\lv_core/lv_obj.c **** bool lv_obj_get_drag(const lv_obj_t * obj)
1592:..\lvgl\lv_core/lv_obj.c **** {
1593:..\lvgl\lv_core/lv_obj.c ****     return obj->drag == 0 ? false : true;
1594:..\lvgl\lv_core/lv_obj.c **** }
1595:..\lvgl\lv_core/lv_obj.c **** 
1596:..\lvgl\lv_core/lv_obj.c **** /**
1597:..\lvgl\lv_core/lv_obj.c ****  * Get the drag throw enable attribute of an object
1598:..\lvgl\lv_core/lv_obj.c ****  * @param obj pointer to an object
1599:..\lvgl\lv_core/lv_obj.c ****  * @return true: drag throw is enabled
1600:..\lvgl\lv_core/lv_obj.c ****  */
1601:..\lvgl\lv_core/lv_obj.c **** bool lv_obj_get_drag_throw(const lv_obj_t * obj)
1602:..\lvgl\lv_core/lv_obj.c **** {
1603:..\lvgl\lv_core/lv_obj.c ****     return obj->drag_throw == 0 ? false : true;
1604:..\lvgl\lv_core/lv_obj.c **** }
1605:..\lvgl\lv_core/lv_obj.c **** 
1606:..\lvgl\lv_core/lv_obj.c **** /**
1607:..\lvgl\lv_core/lv_obj.c ****  * Get the drag parent attribute of an object
1608:..\lvgl\lv_core/lv_obj.c ****  * @param obj pointer to an object
1609:..\lvgl\lv_core/lv_obj.c ****  * @return true: drag parent is enabled
1610:..\lvgl\lv_core/lv_obj.c ****  */
1611:..\lvgl\lv_core/lv_obj.c **** bool lv_obj_get_drag_parent(const lv_obj_t * obj)
1612:..\lvgl\lv_core/lv_obj.c **** {
1613:..\lvgl\lv_core/lv_obj.c ****     return obj->drag_parent == 0 ? false : true;
1614:..\lvgl\lv_core/lv_obj.c **** }
1615:..\lvgl\lv_core/lv_obj.c **** 
1616:..\lvgl\lv_core/lv_obj.c **** /**
1617:..\lvgl\lv_core/lv_obj.c ****  * Get the opa scale enable parameter
1618:..\lvgl\lv_core/lv_obj.c ****  * @param obj pointer to an object
1619:..\lvgl\lv_core/lv_obj.c ****  * @return true: opa scaling is enabled for this object and all children; false: no opa scaling
1620:..\lvgl\lv_core/lv_obj.c ****  */
1621:..\lvgl\lv_core/lv_obj.c **** lv_opa_t lv_obj_get_opa_scale_enable(const lv_obj_t * obj)
1622:..\lvgl\lv_core/lv_obj.c **** {
1623:..\lvgl\lv_core/lv_obj.c ****     return obj->opa_scale_en == 0 ? false : true;
1624:..\lvgl\lv_core/lv_obj.c **** }
1625:..\lvgl\lv_core/lv_obj.c **** 
1626:..\lvgl\lv_core/lv_obj.c **** /**
1627:..\lvgl\lv_core/lv_obj.c ****  * Get the opa scale parameter of an object
ARM GAS  C:\Users\d3bug\AppData\Local\Temp\ccFiAZjI.s 			page 30


1628:..\lvgl\lv_core/lv_obj.c ****  * @param obj pointer to an object
1629:..\lvgl\lv_core/lv_obj.c ****  * @return opa scale [0..255]
1630:..\lvgl\lv_core/lv_obj.c ****  */
1631:..\lvgl\lv_core/lv_obj.c **** lv_opa_t lv_obj_get_opa_scale(const lv_obj_t * obj)
1632:..\lvgl\lv_core/lv_obj.c **** {
1633:..\lvgl\lv_core/lv_obj.c ****     const lv_obj_t * parent = obj;
1634:..\lvgl\lv_core/lv_obj.c **** 
1635:..\lvgl\lv_core/lv_obj.c ****     while(parent) {
1636:..\lvgl\lv_core/lv_obj.c ****         if(parent->opa_scale_en) return parent->opa_scale;
1637:..\lvgl\lv_core/lv_obj.c ****         parent = lv_obj_get_parent(parent);
1638:..\lvgl\lv_core/lv_obj.c ****     }
1639:..\lvgl\lv_core/lv_obj.c **** 
1640:..\lvgl\lv_core/lv_obj.c ****     return LV_OPA_COVER;
1641:..\lvgl\lv_core/lv_obj.c **** }
1642:..\lvgl\lv_core/lv_obj.c **** 
1643:..\lvgl\lv_core/lv_obj.c **** /**
1644:..\lvgl\lv_core/lv_obj.c ****  * Get the protect field of an object
1645:..\lvgl\lv_core/lv_obj.c ****  * @param obj pointer to an object
1646:..\lvgl\lv_core/lv_obj.c ****  * @return protect field ('OR'ed values of `lv_protect_t`)
1647:..\lvgl\lv_core/lv_obj.c ****  */
1648:..\lvgl\lv_core/lv_obj.c **** uint8_t lv_obj_get_protect(const lv_obj_t * obj)
1649:..\lvgl\lv_core/lv_obj.c **** {
1650:..\lvgl\lv_core/lv_obj.c ****     return obj->protect ;
1651:..\lvgl\lv_core/lv_obj.c **** }
1652:..\lvgl\lv_core/lv_obj.c **** 
1653:..\lvgl\lv_core/lv_obj.c **** /**
1654:..\lvgl\lv_core/lv_obj.c ****  * Check at least one bit of a given protect bitfield is set
1655:..\lvgl\lv_core/lv_obj.c ****  * @param obj pointer to an object
1656:..\lvgl\lv_core/lv_obj.c ****  * @param prot protect bits to test ('OR'ed values of `lv_protect_t`)
1657:..\lvgl\lv_core/lv_obj.c ****  * @return false: none of the given bits are set, true: at least one bit is set
1658:..\lvgl\lv_core/lv_obj.c ****  */
1659:..\lvgl\lv_core/lv_obj.c **** bool lv_obj_is_protected(const lv_obj_t * obj, uint8_t prot)
1660:..\lvgl\lv_core/lv_obj.c **** {
1661:..\lvgl\lv_core/lv_obj.c ****     return (obj->protect & prot) == 0 ? false : true ;
1662:..\lvgl\lv_core/lv_obj.c **** }
1663:..\lvgl\lv_core/lv_obj.c **** 
1664:..\lvgl\lv_core/lv_obj.c **** /**
1665:..\lvgl\lv_core/lv_obj.c ****  * Get the signal function of an object
1666:..\lvgl\lv_core/lv_obj.c ****  * @param obj pointer to an object
1667:..\lvgl\lv_core/lv_obj.c ****  * @return the signal function
1668:..\lvgl\lv_core/lv_obj.c ****  */
1669:..\lvgl\lv_core/lv_obj.c **** lv_signal_func_t lv_obj_get_signal_func(const lv_obj_t * obj)
1670:..\lvgl\lv_core/lv_obj.c **** {
1671:..\lvgl\lv_core/lv_obj.c ****     return obj->signal_func;
1672:..\lvgl\lv_core/lv_obj.c **** }
1673:..\lvgl\lv_core/lv_obj.c **** 
1674:..\lvgl\lv_core/lv_obj.c **** /**
1675:..\lvgl\lv_core/lv_obj.c ****  * Get the design function of an object
1676:..\lvgl\lv_core/lv_obj.c ****  * @param obj pointer to an object
1677:..\lvgl\lv_core/lv_obj.c ****  * @return the design function
1678:..\lvgl\lv_core/lv_obj.c ****  */
1679:..\lvgl\lv_core/lv_obj.c **** lv_design_func_t lv_obj_get_design_func(const lv_obj_t * obj)
1680:..\lvgl\lv_core/lv_obj.c **** {
1681:..\lvgl\lv_core/lv_obj.c ****     return obj->design_func;
1682:..\lvgl\lv_core/lv_obj.c **** }
1683:..\lvgl\lv_core/lv_obj.c **** 
1684:..\lvgl\lv_core/lv_obj.c **** /*------------------
ARM GAS  C:\Users\d3bug\AppData\Local\Temp\ccFiAZjI.s 			page 31


1685:..\lvgl\lv_core/lv_obj.c ****  * Other get
1686:..\lvgl\lv_core/lv_obj.c ****  *-----------------*/
1687:..\lvgl\lv_core/lv_obj.c **** 
1688:..\lvgl\lv_core/lv_obj.c **** /**
1689:..\lvgl\lv_core/lv_obj.c ****  * Get the ext pointer
1690:..\lvgl\lv_core/lv_obj.c ****  * @param obj pointer to an object
1691:..\lvgl\lv_core/lv_obj.c ****  * @return the ext pointer but not the dynamic version
1692:..\lvgl\lv_core/lv_obj.c ****  *         Use it as ext->data1, and NOT da(ext)->data1
1693:..\lvgl\lv_core/lv_obj.c ****  */
1694:..\lvgl\lv_core/lv_obj.c **** void * lv_obj_get_ext_attr(const lv_obj_t * obj)
1695:..\lvgl\lv_core/lv_obj.c **** {
1696:..\lvgl\lv_core/lv_obj.c ****     return obj->ext_attr;
1697:..\lvgl\lv_core/lv_obj.c **** }
1698:..\lvgl\lv_core/lv_obj.c **** 
1699:..\lvgl\lv_core/lv_obj.c **** /**
1700:..\lvgl\lv_core/lv_obj.c ****  * Get object's and its ancestors type. Put their name in `type_buf` starting with the current type
1701:..\lvgl\lv_core/lv_obj.c ****  * E.g. buf.type[0]="lv_btn", buf.type[1]="lv_cont", buf.type[2]="lv_obj"
1702:..\lvgl\lv_core/lv_obj.c ****  * @param obj pointer to an object which type should be get
1703:..\lvgl\lv_core/lv_obj.c ****  * @param buf pointer to an `lv_obj_type_t` buffer to store the types
1704:..\lvgl\lv_core/lv_obj.c ****  */
1705:..\lvgl\lv_core/lv_obj.c **** void lv_obj_get_type(lv_obj_t * obj, lv_obj_type_t * buf)
1706:..\lvgl\lv_core/lv_obj.c **** {
1707:..\lvgl\lv_core/lv_obj.c ****     lv_obj_type_t tmp;
1708:..\lvgl\lv_core/lv_obj.c **** 
1709:..\lvgl\lv_core/lv_obj.c ****     memset(buf, 0, sizeof(lv_obj_type_t));
1710:..\lvgl\lv_core/lv_obj.c ****     memset(&tmp, 0, sizeof(lv_obj_type_t));
1711:..\lvgl\lv_core/lv_obj.c **** 
1712:..\lvgl\lv_core/lv_obj.c ****     obj->signal_func(obj, LV_SIGNAL_GET_TYPE, &tmp);
1713:..\lvgl\lv_core/lv_obj.c **** 
1714:..\lvgl\lv_core/lv_obj.c ****     uint8_t cnt;
1715:..\lvgl\lv_core/lv_obj.c ****     for(cnt = 0; cnt < LV_MAX_ANCESTOR_NUM; cnt++) {
1716:..\lvgl\lv_core/lv_obj.c ****         if(tmp.type[cnt] == NULL) break;
1717:..\lvgl\lv_core/lv_obj.c ****     }
1718:..\lvgl\lv_core/lv_obj.c **** 
1719:..\lvgl\lv_core/lv_obj.c **** 
1720:..\lvgl\lv_core/lv_obj.c ****     /*Swap the order. The real type comes first*/
1721:..\lvgl\lv_core/lv_obj.c ****     uint8_t i;
1722:..\lvgl\lv_core/lv_obj.c ****     for(i = 0; i < cnt; i++) {
1723:..\lvgl\lv_core/lv_obj.c ****         buf->type[i] = tmp.type[cnt - 1 - i];
1724:..\lvgl\lv_core/lv_obj.c ****     }
1725:..\lvgl\lv_core/lv_obj.c **** }
1726:..\lvgl\lv_core/lv_obj.c **** 
1727:..\lvgl\lv_core/lv_obj.c **** #ifdef LV_OBJ_FREE_NUM_TYPE
1728:..\lvgl\lv_core/lv_obj.c **** /**
1729:..\lvgl\lv_core/lv_obj.c ****  * Get the free number
1730:..\lvgl\lv_core/lv_obj.c ****  * @param obj pointer to an object
1731:..\lvgl\lv_core/lv_obj.c ****  * @return the free number
1732:..\lvgl\lv_core/lv_obj.c ****  */
1733:..\lvgl\lv_core/lv_obj.c **** LV_OBJ_FREE_NUM_TYPE lv_obj_get_free_num(const lv_obj_t * obj)
1734:..\lvgl\lv_core/lv_obj.c **** {
1735:..\lvgl\lv_core/lv_obj.c ****     return obj->free_num;
1736:..\lvgl\lv_core/lv_obj.c **** }
1737:..\lvgl\lv_core/lv_obj.c **** #endif
1738:..\lvgl\lv_core/lv_obj.c **** 
1739:..\lvgl\lv_core/lv_obj.c **** #if LV_OBJ_FREE_PTR != 0
1740:..\lvgl\lv_core/lv_obj.c **** /**
1741:..\lvgl\lv_core/lv_obj.c ****  * Get the free pointer
ARM GAS  C:\Users\d3bug\AppData\Local\Temp\ccFiAZjI.s 			page 32


1742:..\lvgl\lv_core/lv_obj.c ****  * @param obj pointer to an object
1743:..\lvgl\lv_core/lv_obj.c ****  * @return the free pointer
1744:..\lvgl\lv_core/lv_obj.c ****  */
1745:..\lvgl\lv_core/lv_obj.c **** void * lv_obj_get_free_ptr(const lv_obj_t * obj)
1746:..\lvgl\lv_core/lv_obj.c **** {
1747:..\lvgl\lv_core/lv_obj.c ****     return obj->free_ptr;
1748:..\lvgl\lv_core/lv_obj.c **** }
1749:..\lvgl\lv_core/lv_obj.c **** #endif
1750:..\lvgl\lv_core/lv_obj.c **** 
1751:..\lvgl\lv_core/lv_obj.c **** 
1752:..\lvgl\lv_core/lv_obj.c **** #if USE_LV_GROUP
1753:..\lvgl\lv_core/lv_obj.c **** /**
1754:..\lvgl\lv_core/lv_obj.c ****  * Get the group of the object
1755:..\lvgl\lv_core/lv_obj.c ****  * @param obj pointer to an object
1756:..\lvgl\lv_core/lv_obj.c ****  * @return the pointer to group of the object
1757:..\lvgl\lv_core/lv_obj.c ****  */
1758:..\lvgl\lv_core/lv_obj.c **** void * lv_obj_get_group(const lv_obj_t * obj)
1759:..\lvgl\lv_core/lv_obj.c **** {
1760:..\lvgl\lv_core/lv_obj.c ****     return obj->group_p;
1761:..\lvgl\lv_core/lv_obj.c **** }
1762:..\lvgl\lv_core/lv_obj.c **** 
1763:..\lvgl\lv_core/lv_obj.c **** /**
1764:..\lvgl\lv_core/lv_obj.c ****  * Tell whether the ohe object is the focused object of a group or not.
1765:..\lvgl\lv_core/lv_obj.c ****  * @param obj pointer to an object
1766:..\lvgl\lv_core/lv_obj.c ****  * @return true: the object is focused, false: the object is not focused or not in a group
1767:..\lvgl\lv_core/lv_obj.c ****  */
1768:..\lvgl\lv_core/lv_obj.c **** bool lv_obj_is_focused(const lv_obj_t * obj)
1769:..\lvgl\lv_core/lv_obj.c **** {
1770:..\lvgl\lv_core/lv_obj.c ****     if(obj->group_p) {
1771:..\lvgl\lv_core/lv_obj.c ****         if(lv_group_get_focused(obj->group_p) == obj) return true;
1772:..\lvgl\lv_core/lv_obj.c ****     }
1773:..\lvgl\lv_core/lv_obj.c **** 
1774:..\lvgl\lv_core/lv_obj.c ****     return false;
1775:..\lvgl\lv_core/lv_obj.c **** }
1776:..\lvgl\lv_core/lv_obj.c **** #endif
1777:..\lvgl\lv_core/lv_obj.c **** 
1778:..\lvgl\lv_core/lv_obj.c **** /**********************
1779:..\lvgl\lv_core/lv_obj.c ****  *   STATIC FUNCTIONS
1780:..\lvgl\lv_core/lv_obj.c ****  **********************/
1781:..\lvgl\lv_core/lv_obj.c **** 
1782:..\lvgl\lv_core/lv_obj.c **** /**
1783:..\lvgl\lv_core/lv_obj.c ****  * Handle the drawing related tasks of the base objects.
1784:..\lvgl\lv_core/lv_obj.c ****  * @param obj pointer to an object
1785:..\lvgl\lv_core/lv_obj.c ****  * @param mask the object will be drawn only in this area
1786:..\lvgl\lv_core/lv_obj.c ****  * @param mode LV_DESIGN_COVER_CHK: only check if the object fully covers the 'mask_p' area
1787:..\lvgl\lv_core/lv_obj.c ****  *                                  (return 'true' if yes)
1788:..\lvgl\lv_core/lv_obj.c ****  *             LV_DESIGN_DRAW: draw the object (always return 'true')
1789:..\lvgl\lv_core/lv_obj.c ****  * @param return true/false, depends on 'mode'
1790:..\lvgl\lv_core/lv_obj.c ****  */
1791:..\lvgl\lv_core/lv_obj.c **** static bool lv_obj_design(lv_obj_t * obj, const  lv_area_t * mask_p, lv_design_mode_t mode)
1792:..\lvgl\lv_core/lv_obj.c **** {
1793:..\lvgl\lv_core/lv_obj.c ****     if(mode == LV_DESIGN_COVER_CHK) {
1794:..\lvgl\lv_core/lv_obj.c **** 
1795:..\lvgl\lv_core/lv_obj.c ****         /* Because of the radius it is not sure the area is covered
1796:..\lvgl\lv_core/lv_obj.c ****          * Check the areas where there is no radius*/
1797:..\lvgl\lv_core/lv_obj.c ****         lv_style_t * style = lv_obj_get_style(obj);
1798:..\lvgl\lv_core/lv_obj.c ****         if(style->body.empty != 0) return false;
ARM GAS  C:\Users\d3bug\AppData\Local\Temp\ccFiAZjI.s 			page 33


1799:..\lvgl\lv_core/lv_obj.c **** 
1800:..\lvgl\lv_core/lv_obj.c ****         uint16_t r = style->body.radius;
1801:..\lvgl\lv_core/lv_obj.c **** 
1802:..\lvgl\lv_core/lv_obj.c ****         if(r == LV_RADIUS_CIRCLE) return false;
1803:..\lvgl\lv_core/lv_obj.c **** 
1804:..\lvgl\lv_core/lv_obj.c ****         lv_area_t area_tmp;
1805:..\lvgl\lv_core/lv_obj.c **** 
1806:..\lvgl\lv_core/lv_obj.c ****         /*Check horizontally without radius*/
1807:..\lvgl\lv_core/lv_obj.c ****         lv_obj_get_coords(obj, &area_tmp);
1808:..\lvgl\lv_core/lv_obj.c ****         area_tmp.x1 += r;
1809:..\lvgl\lv_core/lv_obj.c ****         area_tmp.x2 -= r;
1810:..\lvgl\lv_core/lv_obj.c ****         if(lv_area_is_in(mask_p, &area_tmp) == false) return false;
1811:..\lvgl\lv_core/lv_obj.c **** 
1812:..\lvgl\lv_core/lv_obj.c ****         /*Check vertically without radius*/
1813:..\lvgl\lv_core/lv_obj.c ****         lv_obj_get_coords(obj, &area_tmp);
1814:..\lvgl\lv_core/lv_obj.c ****         area_tmp.y1 += r;
1815:..\lvgl\lv_core/lv_obj.c ****         area_tmp.y2 -= r;
1816:..\lvgl\lv_core/lv_obj.c ****         if(lv_area_is_in(mask_p, &area_tmp) == false) return false;
1817:..\lvgl\lv_core/lv_obj.c **** 
1818:..\lvgl\lv_core/lv_obj.c ****     } else if(mode == LV_DESIGN_DRAW_MAIN) {
1819:..\lvgl\lv_core/lv_obj.c ****         lv_style_t * style = lv_obj_get_style(obj);
1820:..\lvgl\lv_core/lv_obj.c ****         lv_draw_rect(&obj->coords, mask_p, style, lv_obj_get_opa_scale(obj));
1821:..\lvgl\lv_core/lv_obj.c ****     }
1822:..\lvgl\lv_core/lv_obj.c **** 
1823:..\lvgl\lv_core/lv_obj.c ****     return true;
1824:..\lvgl\lv_core/lv_obj.c **** }
1825:..\lvgl\lv_core/lv_obj.c **** 
1826:..\lvgl\lv_core/lv_obj.c **** /**
1827:..\lvgl\lv_core/lv_obj.c ****  * Signal function of the basic object
1828:..\lvgl\lv_core/lv_obj.c ****  * @param obj pointer to an object
1829:..\lvgl\lv_core/lv_obj.c ****  * @param sign signal type
1830:..\lvgl\lv_core/lv_obj.c ****  * @param param parameter for the signal (depends on signal type)
1831:..\lvgl\lv_core/lv_obj.c ****  * @return LV_RES_OK: the object is not deleted in the function; LV_RES_INV: the object is deleted
1832:..\lvgl\lv_core/lv_obj.c ****  */
1833:..\lvgl\lv_core/lv_obj.c **** static lv_res_t lv_obj_signal(lv_obj_t * obj, lv_signal_t sign, void * param)
1834:..\lvgl\lv_core/lv_obj.c **** {
1835:..\lvgl\lv_core/lv_obj.c ****     (void)param;
1836:..\lvgl\lv_core/lv_obj.c **** 
1837:..\lvgl\lv_core/lv_obj.c ****     lv_res_t res = LV_RES_OK;
1838:..\lvgl\lv_core/lv_obj.c **** 
1839:..\lvgl\lv_core/lv_obj.c ****     lv_style_t * style = lv_obj_get_style(obj);
1840:..\lvgl\lv_core/lv_obj.c **** 
1841:..\lvgl\lv_core/lv_obj.c ****     lv_indev_t *indev_act = lv_indev_get_act();
1842:..\lvgl\lv_core/lv_obj.c **** 
1843:..\lvgl\lv_core/lv_obj.c ****     if(sign > _LV_SIGNAL_FEEDBACK_SECTION_START && sign < _LV_SIGNAL_FEEDBACK_SECTION_END) {
1844:..\lvgl\lv_core/lv_obj.c **** 		if(indev_act != NULL && indev_act->feedback != NULL)
1845:..\lvgl\lv_core/lv_obj.c **** 			indev_act->feedback(indev_act, sign);
1846:..\lvgl\lv_core/lv_obj.c ****     }
1847:..\lvgl\lv_core/lv_obj.c **** 
1848:..\lvgl\lv_core/lv_obj.c ****     if(sign == LV_SIGNAL_CHILD_CHG) {
1849:..\lvgl\lv_core/lv_obj.c ****         /*Return 'invalid' if the child change signal is not enabled*/
1850:..\lvgl\lv_core/lv_obj.c ****         if(lv_obj_is_protected(obj, LV_PROTECT_CHILD_CHG) != false) res = LV_RES_INV;
1851:..\lvgl\lv_core/lv_obj.c ****     } else if(sign == LV_SIGNAL_REFR_EXT_SIZE) {
1852:..\lvgl\lv_core/lv_obj.c ****         if(style->body.shadow.width > obj->ext_size) obj->ext_size = style->body.shadow.width;
1853:..\lvgl\lv_core/lv_obj.c ****     } else if(sign ==  LV_SIGNAL_STYLE_CHG) {
1854:..\lvgl\lv_core/lv_obj.c ****         lv_obj_refresh_ext_size(obj);
1855:..\lvgl\lv_core/lv_obj.c ****     } else if(sign ==  LV_SIGNAL_GET_TYPE) {
ARM GAS  C:\Users\d3bug\AppData\Local\Temp\ccFiAZjI.s 			page 34


1856:..\lvgl\lv_core/lv_obj.c ****         lv_obj_type_t * buf = param;
1857:..\lvgl\lv_core/lv_obj.c ****         buf->type[0] = "lv_obj";
1858:..\lvgl\lv_core/lv_obj.c ****     }
1859:..\lvgl\lv_core/lv_obj.c **** 
1860:..\lvgl\lv_core/lv_obj.c ****     return res;
1861:..\lvgl\lv_core/lv_obj.c **** }
1862:..\lvgl\lv_core/lv_obj.c **** 
1863:..\lvgl\lv_core/lv_obj.c **** /**
1864:..\lvgl\lv_core/lv_obj.c ****  * Reposition the children of an object. (Called recursively)
1865:..\lvgl\lv_core/lv_obj.c ****  * @param obj pointer to an object which children will be repositioned
1866:..\lvgl\lv_core/lv_obj.c ****  * @param x_diff x coordinate shift
1867:..\lvgl\lv_core/lv_obj.c ****  * @param y_diff y coordinate shift
1868:..\lvgl\lv_core/lv_obj.c ****  */
1869:..\lvgl\lv_core/lv_obj.c **** static void refresh_childen_position(lv_obj_t * obj, lv_coord_t x_diff, lv_coord_t y_diff)
1870:..\lvgl\lv_core/lv_obj.c **** {
  27              		.loc 1 1870 0
  28              		.cfi_startproc
  29              		@ args = 0, pretend = 0, frame = 0
  30              		@ frame_needed = 0, uses_anonymous_args = 0
  31              	.LVL0:
  32 0000 F8B5     		push	{r3, r4, r5, r6, r7, lr}
  33              		.cfi_def_cfa_offset 24
  34              		.cfi_offset 3, -24
  35              		.cfi_offset 4, -20
  36              		.cfi_offset 5, -16
  37              		.cfi_offset 6, -12
  38              		.cfi_offset 7, -8
  39              		.cfi_offset 14, -4
  40 0002 0E46     		mov	r6, r1
  41 0004 1546     		mov	r5, r2
1871:..\lvgl\lv_core/lv_obj.c ****     lv_obj_t * i;
1872:..\lvgl\lv_core/lv_obj.c ****     LL_READ(obj->child_ll, i) {
  42              		.loc 1 1872 0
  43 0006 071D     		adds	r7, r0, #4
  44 0008 3846     		mov	r0, r7
  45              	.LVL1:
  46 000a FFF7FEFF 		bl	lv_ll_get_head
  47              	.LVL2:
  48 000e 0446     		mov	r4, r0
  49              	.LVL3:
  50 0010 17E0     		b	.L2
  51              	.L3:
1873:..\lvgl\lv_core/lv_obj.c ****         i->coords.x1 += x_diff;
  52              		.loc 1 1873 0 discriminator 3
  53 0012 B2B2     		uxth	r2, r6
  54 0014 238A     		ldrh	r3, [r4, #16]
  55 0016 1344     		add	r3, r3, r2
  56 0018 2382     		strh	r3, [r4, #16]	@ movhi
1874:..\lvgl\lv_core/lv_obj.c ****         i->coords.y1 += y_diff;
  57              		.loc 1 1874 0 discriminator 3
  58 001a ABB2     		uxth	r3, r5
  59 001c 618A     		ldrh	r1, [r4, #18]
  60 001e 1944     		add	r1, r1, r3
  61 0020 6182     		strh	r1, [r4, #18]	@ movhi
1875:..\lvgl\lv_core/lv_obj.c ****         i->coords.x2 += x_diff;
  62              		.loc 1 1875 0 discriminator 3
  63 0022 A18A     		ldrh	r1, [r4, #20]
ARM GAS  C:\Users\d3bug\AppData\Local\Temp\ccFiAZjI.s 			page 35


  64 0024 0A44     		add	r2, r2, r1
  65 0026 A282     		strh	r2, [r4, #20]	@ movhi
1876:..\lvgl\lv_core/lv_obj.c ****         i->coords.y2 += y_diff;
  66              		.loc 1 1876 0 discriminator 3
  67 0028 E28A     		ldrh	r2, [r4, #22]
  68 002a 1344     		add	r3, r3, r2
  69 002c E382     		strh	r3, [r4, #22]	@ movhi
1877:..\lvgl\lv_core/lv_obj.c **** 
1878:..\lvgl\lv_core/lv_obj.c ****         refresh_childen_position(i, x_diff, y_diff);
  70              		.loc 1 1878 0 discriminator 3
  71 002e 2A46     		mov	r2, r5
  72 0030 3146     		mov	r1, r6
  73 0032 2046     		mov	r0, r4
  74              	.LVL4:
  75 0034 FFF7E4FF 		bl	refresh_childen_position
  76              	.LVL5:
1872:..\lvgl\lv_core/lv_obj.c ****         i->coords.x1 += x_diff;
  77              		.loc 1 1872 0 discriminator 3
  78 0038 2146     		mov	r1, r4
  79 003a 3846     		mov	r0, r7
  80 003c FFF7FEFF 		bl	lv_ll_get_next
  81              	.LVL6:
  82 0040 0446     		mov	r4, r0
  83              	.LVL7:
  84              	.L2:
1872:..\lvgl\lv_core/lv_obj.c ****         i->coords.x1 += x_diff;
  85              		.loc 1 1872 0 is_stmt 0 discriminator 1
  86 0042 002C     		cmp	r4, #0
  87 0044 E5D1     		bne	.L3
1879:..\lvgl\lv_core/lv_obj.c ****     }
1880:..\lvgl\lv_core/lv_obj.c **** }
  88              		.loc 1 1880 0 is_stmt 1
  89 0046 F8BD     		pop	{r3, r4, r5, r6, r7, pc}
  90              		.cfi_endproc
  91              	.LFE82:
  92              		.size	refresh_childen_position, .-refresh_childen_position
  93              		.section	.text.lv_obj_set_auto_realign,"ax",%progbits
  94              		.align	2
  95              		.global	lv_obj_set_auto_realign
  96              		.thumb
  97              		.thumb_func
  98              		.type	lv_obj_set_auto_realign, %function
  99              	lv_obj_set_auto_realign:
 100              	.LFB28:
 960:..\lvgl\lv_core/lv_obj.c **** #if LV_OBJ_REALIGN
 101              		.loc 1 960 0
 102              		.cfi_startproc
 103              		@ args = 0, pretend = 0, frame = 0
 104              		@ frame_needed = 0, uses_anonymous_args = 0
 105              		@ link register save eliminated.
 106              	.LVL8:
 962:..\lvgl\lv_core/lv_obj.c **** #else
 107              		.loc 1 962 0
 108 0000 90F83D30 		ldrb	r3, [r0, #61]	@ zero_extendqisi2
 109 0004 61F30003 		bfi	r3, r1, #0, #1
 110 0008 80F83D30 		strb	r3, [r0, #61]
 111 000c 7047     		bx	lr
ARM GAS  C:\Users\d3bug\AppData\Local\Temp\ccFiAZjI.s 			page 36


 112              		.cfi_endproc
 113              	.LFE28:
 114              		.size	lv_obj_set_auto_realign, .-lv_obj_set_auto_realign
 115 000e 00BF     		.section	.text.lv_obj_set_click,"ax",%progbits
 116              		.align	2
 117              		.global	lv_obj_set_click
 118              		.thumb
 119              		.thumb_func
 120              		.type	lv_obj_set_click, %function
 121              	lv_obj_set_click:
 122              	.LFB33:
1047:..\lvgl\lv_core/lv_obj.c ****     obj->click = (en == true ? 1 : 0);
 123              		.loc 1 1047 0
 124              		.cfi_startproc
 125              		@ args = 0, pretend = 0, frame = 0
 126              		@ frame_needed = 0, uses_anonymous_args = 0
 127              		@ link register save eliminated.
 128              	.LVL9:
1048:..\lvgl\lv_core/lv_obj.c **** }
 129              		.loc 1 1048 0
 130 0000 90F82C30 		ldrb	r3, [r0, #44]	@ zero_extendqisi2
 131 0004 61F30003 		bfi	r3, r1, #0, #1
 132 0008 80F82C30 		strb	r3, [r0, #44]
 133 000c 7047     		bx	lr
 134              		.cfi_endproc
 135              	.LFE33:
 136              		.size	lv_obj_set_click, .-lv_obj_set_click
 137 000e 00BF     		.section	.text.lv_obj_set_top,"ax",%progbits
 138              		.align	2
 139              		.global	lv_obj_set_top
 140              		.thumb
 141              		.thumb_func
 142              		.type	lv_obj_set_top, %function
 143              	lv_obj_set_top:
 144              	.LFB34:
1058:..\lvgl\lv_core/lv_obj.c ****     obj->top = (en == true ? 1 : 0);
 145              		.loc 1 1058 0
 146              		.cfi_startproc
 147              		@ args = 0, pretend = 0, frame = 0
 148              		@ frame_needed = 0, uses_anonymous_args = 0
 149              		@ link register save eliminated.
 150              	.LVL10:
1059:..\lvgl\lv_core/lv_obj.c **** }
 151              		.loc 1 1059 0
 152 0000 90F82C30 		ldrb	r3, [r0, #44]	@ zero_extendqisi2
 153 0004 61F34513 		bfi	r3, r1, #5, #1
 154 0008 80F82C30 		strb	r3, [r0, #44]
 155 000c 7047     		bx	lr
 156              		.cfi_endproc
 157              	.LFE34:
 158              		.size	lv_obj_set_top, .-lv_obj_set_top
 159 000e 00BF     		.section	.text.lv_obj_set_drag,"ax",%progbits
 160              		.align	2
 161              		.global	lv_obj_set_drag
 162              		.thumb
 163              		.thumb_func
 164              		.type	lv_obj_set_drag, %function
ARM GAS  C:\Users\d3bug\AppData\Local\Temp\ccFiAZjI.s 			page 37


 165              	lv_obj_set_drag:
 166              	.LFB35:
1068:..\lvgl\lv_core/lv_obj.c ****     if(en == true) lv_obj_set_click(obj, true);     /*Drag is useless without enabled clicking*/
 167              		.loc 1 1068 0
 168              		.cfi_startproc
 169              		@ args = 0, pretend = 0, frame = 0
 170              		@ frame_needed = 0, uses_anonymous_args = 0
 171              	.LVL11:
 172 0000 38B5     		push	{r3, r4, r5, lr}
 173              		.cfi_def_cfa_offset 16
 174              		.cfi_offset 3, -16
 175              		.cfi_offset 4, -12
 176              		.cfi_offset 5, -8
 177              		.cfi_offset 14, -4
 178 0002 0446     		mov	r4, r0
1069:..\lvgl\lv_core/lv_obj.c ****     obj->drag = (en == true ? 1 : 0);
 179              		.loc 1 1069 0
 180 0004 0D46     		mov	r5, r1
 181 0006 11B1     		cbz	r1, .L9
1069:..\lvgl\lv_core/lv_obj.c ****     obj->drag = (en == true ? 1 : 0);
 182              		.loc 1 1069 0 is_stmt 0 discriminator 1
 183 0008 0121     		movs	r1, #1
 184              	.LVL12:
 185 000a FFF7FEFF 		bl	lv_obj_set_click
 186              	.LVL13:
 187              	.L9:
1070:..\lvgl\lv_core/lv_obj.c **** }
 188              		.loc 1 1070 0 is_stmt 1
 189 000e 94F82C30 		ldrb	r3, [r4, #44]	@ zero_extendqisi2
 190 0012 65F34103 		bfi	r3, r5, #1, #1
 191 0016 84F82C30 		strb	r3, [r4, #44]
 192 001a 38BD     		pop	{r3, r4, r5, pc}
 193              		.cfi_endproc
 194              	.LFE35:
 195              		.size	lv_obj_set_drag, .-lv_obj_set_drag
 196              		.section	.text.lv_obj_set_drag_throw,"ax",%progbits
 197              		.align	2
 198              		.global	lv_obj_set_drag_throw
 199              		.thumb
 200              		.thumb_func
 201              		.type	lv_obj_set_drag_throw, %function
 202              	lv_obj_set_drag_throw:
 203              	.LFB36:
1079:..\lvgl\lv_core/lv_obj.c ****     obj->drag_throw = (en == true ? 1 : 0);
 204              		.loc 1 1079 0
 205              		.cfi_startproc
 206              		@ args = 0, pretend = 0, frame = 0
 207              		@ frame_needed = 0, uses_anonymous_args = 0
 208              		@ link register save eliminated.
 209              	.LVL14:
1080:..\lvgl\lv_core/lv_obj.c **** }
 210              		.loc 1 1080 0
 211 0000 90F82C30 		ldrb	r3, [r0, #44]	@ zero_extendqisi2
 212 0004 61F38203 		bfi	r3, r1, #2, #1
 213 0008 80F82C30 		strb	r3, [r0, #44]
 214 000c 7047     		bx	lr
 215              		.cfi_endproc
ARM GAS  C:\Users\d3bug\AppData\Local\Temp\ccFiAZjI.s 			page 38


 216              	.LFE36:
 217              		.size	lv_obj_set_drag_throw, .-lv_obj_set_drag_throw
 218 000e 00BF     		.section	.text.lv_obj_set_drag_parent,"ax",%progbits
 219              		.align	2
 220              		.global	lv_obj_set_drag_parent
 221              		.thumb
 222              		.thumb_func
 223              		.type	lv_obj_set_drag_parent, %function
 224              	lv_obj_set_drag_parent:
 225              	.LFB37:
1090:..\lvgl\lv_core/lv_obj.c ****     obj->drag_parent = (en == true ? 1 : 0);
 226              		.loc 1 1090 0
 227              		.cfi_startproc
 228              		@ args = 0, pretend = 0, frame = 0
 229              		@ frame_needed = 0, uses_anonymous_args = 0
 230              		@ link register save eliminated.
 231              	.LVL15:
1091:..\lvgl\lv_core/lv_obj.c **** }
 232              		.loc 1 1091 0
 233 0000 90F82C30 		ldrb	r3, [r0, #44]	@ zero_extendqisi2
 234 0004 61F3C303 		bfi	r3, r1, #3, #1
 235 0008 80F82C30 		strb	r3, [r0, #44]
 236 000c 7047     		bx	lr
 237              		.cfi_endproc
 238              	.LFE37:
 239              		.size	lv_obj_set_drag_parent, .-lv_obj_set_drag_parent
 240 000e 00BF     		.section	.text.lv_obj_set_opa_scale_enable,"ax",%progbits
 241              		.align	2
 242              		.global	lv_obj_set_opa_scale_enable
 243              		.thumb
 244              		.thumb_func
 245              		.type	lv_obj_set_opa_scale_enable, %function
 246              	lv_obj_set_opa_scale_enable:
 247              	.LFB38:
1100:..\lvgl\lv_core/lv_obj.c ****     obj->opa_scale_en =  en ? 1 : 0;
 248              		.loc 1 1100 0
 249              		.cfi_startproc
 250              		@ args = 0, pretend = 0, frame = 0
 251              		@ frame_needed = 0, uses_anonymous_args = 0
 252              		@ link register save eliminated.
 253              	.LVL16:
1101:..\lvgl\lv_core/lv_obj.c **** }
 254              		.loc 1 1101 0
 255 0000 90F82C30 		ldrb	r3, [r0, #44]	@ zero_extendqisi2
 256 0004 61F38613 		bfi	r3, r1, #6, #1
 257 0008 80F82C30 		strb	r3, [r0, #44]
 258 000c 7047     		bx	lr
 259              		.cfi_endproc
 260              	.LFE38:
 261              		.size	lv_obj_set_opa_scale_enable, .-lv_obj_set_opa_scale_enable
 262 000e 00BF     		.section	.text.lv_obj_set_protect,"ax",%progbits
 263              		.align	2
 264              		.global	lv_obj_set_protect
 265              		.thumb
 266              		.thumb_func
 267              		.type	lv_obj_set_protect, %function
 268              	lv_obj_set_protect:
ARM GAS  C:\Users\d3bug\AppData\Local\Temp\ccFiAZjI.s 			page 39


 269              	.LFB40:
1121:..\lvgl\lv_core/lv_obj.c ****     obj->protect |= prot;
 270              		.loc 1 1121 0
 271              		.cfi_startproc
 272              		@ args = 0, pretend = 0, frame = 0
 273              		@ frame_needed = 0, uses_anonymous_args = 0
 274              		@ link register save eliminated.
 275              	.LVL17:
1122:..\lvgl\lv_core/lv_obj.c **** }
 276              		.loc 1 1122 0
 277 0000 90F82D30 		ldrb	r3, [r0, #45]	@ zero_extendqisi2
 278 0004 1943     		orrs	r1, r1, r3
 279              	.LVL18:
 280 0006 80F82D10 		strb	r1, [r0, #45]
 281 000a 7047     		bx	lr
 282              		.cfi_endproc
 283              	.LFE40:
 284              		.size	lv_obj_set_protect, .-lv_obj_set_protect
 285              		.section	.text.lv_obj_clear_protect,"ax",%progbits
 286              		.align	2
 287              		.global	lv_obj_clear_protect
 288              		.thumb
 289              		.thumb_func
 290              		.type	lv_obj_clear_protect, %function
 291              	lv_obj_clear_protect:
 292              	.LFB41:
1131:..\lvgl\lv_core/lv_obj.c ****     prot = (~prot) & 0xFF;
 293              		.loc 1 1131 0
 294              		.cfi_startproc
 295              		@ args = 0, pretend = 0, frame = 0
 296              		@ frame_needed = 0, uses_anonymous_args = 0
 297              		@ link register save eliminated.
 298              	.LVL19:
1133:..\lvgl\lv_core/lv_obj.c **** }
 299              		.loc 1 1133 0
 300 0000 90F82D30 		ldrb	r3, [r0, #45]	@ zero_extendqisi2
 301 0004 23EA0101 		bic	r1, r3, r1
 302              	.LVL20:
 303 0008 80F82D10 		strb	r1, [r0, #45]
 304 000c 7047     		bx	lr
 305              		.cfi_endproc
 306              	.LFE41:
 307              		.size	lv_obj_clear_protect, .-lv_obj_clear_protect
 308 000e 00BF     		.section	.text.lv_obj_set_signal_func,"ax",%progbits
 309              		.align	2
 310              		.global	lv_obj_set_signal_func
 311              		.thumb
 312              		.thumb_func
 313              		.type	lv_obj_set_signal_func, %function
 314              	lv_obj_set_signal_func:
 315              	.LFB42:
1143:..\lvgl\lv_core/lv_obj.c ****     obj->signal_func = fp;
 316              		.loc 1 1143 0
 317              		.cfi_startproc
 318              		@ args = 0, pretend = 0, frame = 0
 319              		@ frame_needed = 0, uses_anonymous_args = 0
 320              		@ link register save eliminated.
ARM GAS  C:\Users\d3bug\AppData\Local\Temp\ccFiAZjI.s 			page 40


 321              	.LVL21:
1144:..\lvgl\lv_core/lv_obj.c **** }
 322              		.loc 1 1144 0
 323 0000 8161     		str	r1, [r0, #24]
 324 0002 7047     		bx	lr
 325              		.cfi_endproc
 326              	.LFE42:
 327              		.size	lv_obj_set_signal_func, .-lv_obj_set_signal_func
 328              		.section	.text.lv_obj_set_design_func,"ax",%progbits
 329              		.align	2
 330              		.global	lv_obj_set_design_func
 331              		.thumb
 332              		.thumb_func
 333              		.type	lv_obj_set_design_func, %function
 334              	lv_obj_set_design_func:
 335              	.LFB43:
1153:..\lvgl\lv_core/lv_obj.c ****     obj->design_func = fp;
 336              		.loc 1 1153 0
 337              		.cfi_startproc
 338              		@ args = 0, pretend = 0, frame = 0
 339              		@ frame_needed = 0, uses_anonymous_args = 0
 340              		@ link register save eliminated.
 341              	.LVL22:
1154:..\lvgl\lv_core/lv_obj.c **** }
 342              		.loc 1 1154 0
 343 0000 C161     		str	r1, [r0, #28]
 344 0002 7047     		bx	lr
 345              		.cfi_endproc
 346              	.LFE43:
 347              		.size	lv_obj_set_design_func, .-lv_obj_set_design_func
 348              		.section	.text.lv_obj_allocate_ext_attr,"ax",%progbits
 349              		.align	2
 350              		.global	lv_obj_allocate_ext_attr
 351              		.thumb
 352              		.thumb_func
 353              		.type	lv_obj_allocate_ext_attr, %function
 354              	lv_obj_allocate_ext_attr:
 355              	.LFB44:
1168:..\lvgl\lv_core/lv_obj.c ****     obj->ext_attr = lv_mem_realloc(obj->ext_attr, ext_size);
 356              		.loc 1 1168 0
 357              		.cfi_startproc
 358              		@ args = 0, pretend = 0, frame = 0
 359              		@ frame_needed = 0, uses_anonymous_args = 0
 360              	.LVL23:
 361 0000 10B5     		push	{r4, lr}
 362              		.cfi_def_cfa_offset 8
 363              		.cfi_offset 4, -8
 364              		.cfi_offset 14, -4
 365 0002 0446     		mov	r4, r0
1169:..\lvgl\lv_core/lv_obj.c **** 
 366              		.loc 1 1169 0
 367 0004 006A     		ldr	r0, [r0, #32]
 368              	.LVL24:
 369 0006 FFF7FEFF 		bl	lv_mem_realloc
 370              	.LVL25:
 371 000a 2062     		str	r0, [r4, #32]
1172:..\lvgl\lv_core/lv_obj.c **** 
ARM GAS  C:\Users\d3bug\AppData\Local\Temp\ccFiAZjI.s 			page 41


 372              		.loc 1 1172 0
 373 000c 10BD     		pop	{r4, pc}
 374              		.cfi_endproc
 375              	.LFE44:
 376              		.size	lv_obj_allocate_ext_attr, .-lv_obj_allocate_ext_attr
 377 000e 00BF     		.section	.text.lv_obj_set_free_num,"ax",%progbits
 378              		.align	2
 379              		.global	lv_obj_set_free_num
 380              		.thumb
 381              		.thumb_func
 382              		.type	lv_obj_set_free_num, %function
 383              	lv_obj_set_free_num:
 384              	.LFB46:
1194:..\lvgl\lv_core/lv_obj.c ****     obj->free_num = free_num;
 385              		.loc 1 1194 0
 386              		.cfi_startproc
 387              		@ args = 0, pretend = 0, frame = 0
 388              		@ frame_needed = 0, uses_anonymous_args = 0
 389              		@ link register save eliminated.
 390              	.LVL26:
1195:..\lvgl\lv_core/lv_obj.c **** }
 391              		.loc 1 1195 0
 392 0000 0164     		str	r1, [r0, #64]
 393 0002 7047     		bx	lr
 394              		.cfi_endproc
 395              	.LFE46:
 396              		.size	lv_obj_set_free_num, .-lv_obj_set_free_num
 397              		.section	.text.lv_obj_set_free_ptr,"ax",%progbits
 398              		.align	2
 399              		.global	lv_obj_set_free_ptr
 400              		.thumb
 401              		.thumb_func
 402              		.type	lv_obj_set_free_ptr, %function
 403              	lv_obj_set_free_ptr:
 404              	.LFB47:
1207:..\lvgl\lv_core/lv_obj.c ****     obj->free_ptr = free_p;
 405              		.loc 1 1207 0
 406              		.cfi_startproc
 407              		@ args = 0, pretend = 0, frame = 0
 408              		@ frame_needed = 0, uses_anonymous_args = 0
 409              		@ link register save eliminated.
 410              	.LVL27:
1208:..\lvgl\lv_core/lv_obj.c **** }
 411              		.loc 1 1208 0
 412 0000 8162     		str	r1, [r0, #40]
 413 0002 7047     		bx	lr
 414              		.cfi_endproc
 415              	.LFE47:
 416              		.size	lv_obj_set_free_ptr, .-lv_obj_set_free_ptr
 417              		.section	.text.lv_scr_act,"ax",%progbits
 418              		.align	2
 419              		.global	lv_scr_act
 420              		.thumb
 421              		.thumb_func
 422              		.type	lv_scr_act, %function
 423              	lv_scr_act:
 424              	.LFB48:
ARM GAS  C:\Users\d3bug\AppData\Local\Temp\ccFiAZjI.s 			page 42


1306:..\lvgl\lv_core/lv_obj.c ****     return LV_GC_ROOT(_lv_act_scr);
 425              		.loc 1 1306 0
 426              		.cfi_startproc
 427              		@ args = 0, pretend = 0, frame = 0
 428              		@ frame_needed = 0, uses_anonymous_args = 0
 429              		@ link register save eliminated.
1308:..\lvgl\lv_core/lv_obj.c **** 
 430              		.loc 1 1308 0
 431 0000 014B     		ldr	r3, .L23
 432 0002 1868     		ldr	r0, [r3]
 433 0004 7047     		bx	lr
 434              	.L24:
 435 0006 00BF     		.align	2
 436              	.L23:
 437 0008 00000000 		.word	_lv_act_scr
 438              		.cfi_endproc
 439              	.LFE48:
 440              		.size	lv_scr_act, .-lv_scr_act
 441              		.section	.text.lv_layer_top,"ax",%progbits
 442              		.align	2
 443              		.global	lv_layer_top
 444              		.thumb
 445              		.thumb_func
 446              		.type	lv_layer_top, %function
 447              	lv_layer_top:
 448              	.LFB49:
1315:..\lvgl\lv_core/lv_obj.c ****     return LV_GC_ROOT(_lv_top_layer);
 449              		.loc 1 1315 0
 450              		.cfi_startproc
 451              		@ args = 0, pretend = 0, frame = 0
 452              		@ frame_needed = 0, uses_anonymous_args = 0
 453              		@ link register save eliminated.
1317:..\lvgl\lv_core/lv_obj.c **** 
 454              		.loc 1 1317 0
 455 0000 014B     		ldr	r3, .L26
 456 0002 1868     		ldr	r0, [r3]
 457 0004 7047     		bx	lr
 458              	.L27:
 459 0006 00BF     		.align	2
 460              	.L26:
 461 0008 00000000 		.word	_lv_top_layer
 462              		.cfi_endproc
 463              	.LFE49:
 464              		.size	lv_layer_top, .-lv_layer_top
 465              		.section	.text.lv_layer_sys,"ax",%progbits
 466              		.align	2
 467              		.global	lv_layer_sys
 468              		.thumb
 469              		.thumb_func
 470              		.type	lv_layer_sys, %function
 471              	lv_layer_sys:
 472              	.LFB50:
1325:..\lvgl\lv_core/lv_obj.c ****     return LV_GC_ROOT(_lv_sys_layer);
 473              		.loc 1 1325 0
 474              		.cfi_startproc
 475              		@ args = 0, pretend = 0, frame = 0
 476              		@ frame_needed = 0, uses_anonymous_args = 0
ARM GAS  C:\Users\d3bug\AppData\Local\Temp\ccFiAZjI.s 			page 43


 477              		@ link register save eliminated.
1327:..\lvgl\lv_core/lv_obj.c **** 
 478              		.loc 1 1327 0
 479 0000 014B     		ldr	r3, .L29
 480 0002 1868     		ldr	r0, [r3]
 481 0004 7047     		bx	lr
 482              	.L30:
 483 0006 00BF     		.align	2
 484              	.L29:
 485 0008 00000000 		.word	_lv_sys_layer
 486              		.cfi_endproc
 487              	.LFE50:
 488              		.size	lv_layer_sys, .-lv_layer_sys
 489              		.section	.text.lv_obj_get_parent,"ax",%progbits
 490              		.align	2
 491              		.global	lv_obj_get_parent
 492              		.thumb
 493              		.thumb_func
 494              		.type	lv_obj_get_parent, %function
 495              	lv_obj_get_parent:
 496              	.LFB52:
1357:..\lvgl\lv_core/lv_obj.c ****     return obj->par;
 497              		.loc 1 1357 0
 498              		.cfi_startproc
 499              		@ args = 0, pretend = 0, frame = 0
 500              		@ frame_needed = 0, uses_anonymous_args = 0
 501              		@ link register save eliminated.
 502              	.LVL28:
1359:..\lvgl\lv_core/lv_obj.c **** 
 503              		.loc 1 1359 0
 504 0000 0068     		ldr	r0, [r0]
 505              	.LVL29:
 506 0002 7047     		bx	lr
 507              		.cfi_endproc
 508              	.LFE52:
 509              		.size	lv_obj_get_parent, .-lv_obj_get_parent
 510              		.section	.text.delete_children,"ax",%progbits
 511              		.align	2
 512              		.thumb
 513              		.thumb_func
 514              		.type	delete_children, %function
 515              	delete_children:
 516              	.LFB85:
1881:..\lvgl\lv_core/lv_obj.c **** 
1882:..\lvgl\lv_core/lv_obj.c **** /**
1883:..\lvgl\lv_core/lv_obj.c ****  * Refresh the style of all children of an object. (Called recursively)
1884:..\lvgl\lv_core/lv_obj.c ****  * @param style_p refresh objects only with this style.
1885:..\lvgl\lv_core/lv_obj.c ****  * @param obj pointer to an object
1886:..\lvgl\lv_core/lv_obj.c ****  */
1887:..\lvgl\lv_core/lv_obj.c **** static void report_style_mod_core(void * style_p, lv_obj_t * obj)
1888:..\lvgl\lv_core/lv_obj.c **** {
1889:..\lvgl\lv_core/lv_obj.c ****     lv_obj_t * i;
1890:..\lvgl\lv_core/lv_obj.c ****     LL_READ(obj->child_ll, i) {
1891:..\lvgl\lv_core/lv_obj.c ****         if(i->style_p == style_p || style_p == NULL) {
1892:..\lvgl\lv_core/lv_obj.c ****             refresh_childen_style(i);
1893:..\lvgl\lv_core/lv_obj.c ****             lv_obj_refresh_style(i);
1894:..\lvgl\lv_core/lv_obj.c ****         }
ARM GAS  C:\Users\d3bug\AppData\Local\Temp\ccFiAZjI.s 			page 44


1895:..\lvgl\lv_core/lv_obj.c **** 
1896:..\lvgl\lv_core/lv_obj.c ****         report_style_mod_core(style_p, i);
1897:..\lvgl\lv_core/lv_obj.c ****     }
1898:..\lvgl\lv_core/lv_obj.c **** }
1899:..\lvgl\lv_core/lv_obj.c **** 
1900:..\lvgl\lv_core/lv_obj.c **** /**
1901:..\lvgl\lv_core/lv_obj.c ****  * Recursively refresh the style of the children. Go deeper until a not NULL style is found
1902:..\lvgl\lv_core/lv_obj.c ****  * because the NULL styles are inherited from the parent
1903:..\lvgl\lv_core/lv_obj.c ****  * @param obj pointer to an object
1904:..\lvgl\lv_core/lv_obj.c ****  */
1905:..\lvgl\lv_core/lv_obj.c **** static void refresh_childen_style(lv_obj_t * obj)
1906:..\lvgl\lv_core/lv_obj.c **** {
1907:..\lvgl\lv_core/lv_obj.c ****     lv_obj_t * child = lv_obj_get_child(obj, NULL);
1908:..\lvgl\lv_core/lv_obj.c ****     while(child != NULL) {
1909:..\lvgl\lv_core/lv_obj.c ****         if(child->style_p == NULL) {
1910:..\lvgl\lv_core/lv_obj.c ****             refresh_childen_style(child);     /*Check children too*/
1911:..\lvgl\lv_core/lv_obj.c ****             lv_obj_refresh_style(child);       /*Notify the child about the style change*/
1912:..\lvgl\lv_core/lv_obj.c ****         } else if(child->style_p->glass) {
1913:..\lvgl\lv_core/lv_obj.c ****             /*Children with 'glass' parent might be effected if their style == NULL*/
1914:..\lvgl\lv_core/lv_obj.c ****             refresh_childen_style(child);
1915:..\lvgl\lv_core/lv_obj.c ****         }
1916:..\lvgl\lv_core/lv_obj.c ****         child = lv_obj_get_child(obj, child);
1917:..\lvgl\lv_core/lv_obj.c ****     }
1918:..\lvgl\lv_core/lv_obj.c **** }
1919:..\lvgl\lv_core/lv_obj.c **** 
1920:..\lvgl\lv_core/lv_obj.c **** /**
1921:..\lvgl\lv_core/lv_obj.c ****  * Called by 'lv_obj_del' to delete the children objects
1922:..\lvgl\lv_core/lv_obj.c ****  * @param obj pointer to an object (all of its children will be deleted)
1923:..\lvgl\lv_core/lv_obj.c ****  */
1924:..\lvgl\lv_core/lv_obj.c **** static void delete_children(lv_obj_t * obj)
1925:..\lvgl\lv_core/lv_obj.c **** {
 517              		.loc 1 1925 0
 518              		.cfi_startproc
 519              		@ args = 0, pretend = 0, frame = 0
 520              		@ frame_needed = 0, uses_anonymous_args = 0
 521              	.LVL30:
 522 0000 F8B5     		push	{r3, r4, r5, r6, r7, lr}
 523              		.cfi_def_cfa_offset 24
 524              		.cfi_offset 3, -24
 525              		.cfi_offset 4, -20
 526              		.cfi_offset 5, -16
 527              		.cfi_offset 6, -12
 528              		.cfi_offset 7, -8
 529              		.cfi_offset 14, -4
 530 0002 0546     		mov	r5, r0
1926:..\lvgl\lv_core/lv_obj.c ****     lv_obj_t * i;
1927:..\lvgl\lv_core/lv_obj.c ****     lv_obj_t * i_next;
1928:..\lvgl\lv_core/lv_obj.c ****     i = lv_ll_get_head(&(obj->child_ll));
 531              		.loc 1 1928 0
 532 0004 071D     		adds	r7, r0, #4
 533 0006 3846     		mov	r0, r7
 534              	.LVL31:
 535 0008 FFF7FEFF 		bl	lv_ll_get_head
 536              	.LVL32:
 537 000c 0446     		mov	r4, r0
 538              	.LVL33:
1929:..\lvgl\lv_core/lv_obj.c **** 
ARM GAS  C:\Users\d3bug\AppData\Local\Temp\ccFiAZjI.s 			page 45


1930:..\lvgl\lv_core/lv_obj.c ****     /*Remove from the group; remove before transversing children so that 
1931:..\lvgl\lv_core/lv_obj.c ****      * the object still has access to all children during the 
1932:..\lvgl\lv_core/lv_obj.c ****      * LV_SIGNAL_DEFOCUS call*/
1933:..\lvgl\lv_core/lv_obj.c **** #if USE_LV_GROUP
1934:..\lvgl\lv_core/lv_obj.c ****     if(obj->group_p != NULL) lv_group_remove_obj(obj);
1935:..\lvgl\lv_core/lv_obj.c **** #endif
1936:..\lvgl\lv_core/lv_obj.c **** 
1937:..\lvgl\lv_core/lv_obj.c ****     while(i != NULL) {
 539              		.loc 1 1937 0
 540 000e 08E0     		b	.L33
 541              	.LVL34:
 542              	.L34:
1938:..\lvgl\lv_core/lv_obj.c ****         /*Get the next object before delete this*/
1939:..\lvgl\lv_core/lv_obj.c ****         i_next = lv_ll_get_next(&(obj->child_ll), i);
 543              		.loc 1 1939 0
 544 0010 2146     		mov	r1, r4
 545 0012 3846     		mov	r0, r7
 546 0014 FFF7FEFF 		bl	lv_ll_get_next
 547              	.LVL35:
 548 0018 0646     		mov	r6, r0
 549              	.LVL36:
1940:..\lvgl\lv_core/lv_obj.c **** 
1941:..\lvgl\lv_core/lv_obj.c ****         /*Call the recursive del to the child too*/
1942:..\lvgl\lv_core/lv_obj.c ****         delete_children(i);
 550              		.loc 1 1942 0
 551 001a 2046     		mov	r0, r4
 552              	.LVL37:
 553 001c FFF7F0FF 		bl	delete_children
 554              	.LVL38:
1943:..\lvgl\lv_core/lv_obj.c **** 
1944:..\lvgl\lv_core/lv_obj.c ****         /*Set i to the next node*/
1945:..\lvgl\lv_core/lv_obj.c ****         i = i_next;
 555              		.loc 1 1945 0
 556 0020 3446     		mov	r4, r6
 557              	.LVL39:
 558              	.L33:
1937:..\lvgl\lv_core/lv_obj.c ****         /*Get the next object before delete this*/
 559              		.loc 1 1937 0
 560 0022 002C     		cmp	r4, #0
 561 0024 F4D1     		bne	.L34
1946:..\lvgl\lv_core/lv_obj.c ****     }
1947:..\lvgl\lv_core/lv_obj.c **** 
1948:..\lvgl\lv_core/lv_obj.c ****     /*Remove the animations from this object*/
1949:..\lvgl\lv_core/lv_obj.c **** #if USE_LV_ANIMATION
1950:..\lvgl\lv_core/lv_obj.c ****     lv_anim_del(obj, NULL);
1951:..\lvgl\lv_core/lv_obj.c **** #endif
1952:..\lvgl\lv_core/lv_obj.c **** 
1953:..\lvgl\lv_core/lv_obj.c **** 
1954:..\lvgl\lv_core/lv_obj.c ****     /* Reset the input devices if
1955:..\lvgl\lv_core/lv_obj.c ****      * the currently pressed object is deleted*/
1956:..\lvgl\lv_core/lv_obj.c ****     lv_indev_t * indev = lv_indev_next(NULL);
 562              		.loc 1 1956 0
 563 0026 0020     		movs	r0, #0
 564 0028 FFF7FEFF 		bl	lv_indev_next
 565              	.LVL40:
 566 002c 0446     		mov	r4, r0
 567              	.LVL41:
ARM GAS  C:\Users\d3bug\AppData\Local\Temp\ccFiAZjI.s 			page 46


1957:..\lvgl\lv_core/lv_obj.c ****     while(indev) {
 568              		.loc 1 1957 0
 569 002e 0CE0     		b	.L35
 570              	.L38:
1958:..\lvgl\lv_core/lv_obj.c ****         if(indev->proc.act_obj == obj || indev->proc.last_obj == obj) {
 571              		.loc 1 1958 0
 572 0030 236A     		ldr	r3, [r4, #32]
 573 0032 9D42     		cmp	r5, r3
 574 0034 02D0     		beq	.L36
 575              		.loc 1 1958 0 is_stmt 0 discriminator 1
 576 0036 636A     		ldr	r3, [r4, #36]
 577 0038 9D42     		cmp	r5, r3
 578 003a 02D1     		bne	.L37
 579              	.L36:
1959:..\lvgl\lv_core/lv_obj.c ****             lv_indev_reset(indev);
 580              		.loc 1 1959 0 is_stmt 1
 581 003c 2046     		mov	r0, r4
 582              	.LVL42:
 583 003e FFF7FEFF 		bl	lv_indev_reset
 584              	.LVL43:
 585              	.L37:
1960:..\lvgl\lv_core/lv_obj.c ****         }
1961:..\lvgl\lv_core/lv_obj.c ****         indev = lv_indev_next(indev);
 586              		.loc 1 1961 0
 587 0042 2046     		mov	r0, r4
 588 0044 FFF7FEFF 		bl	lv_indev_next
 589              	.LVL44:
 590 0048 0446     		mov	r4, r0
 591              	.LVL45:
 592              	.L35:
1957:..\lvgl\lv_core/lv_obj.c ****         if(indev->proc.act_obj == obj || indev->proc.last_obj == obj) {
 593              		.loc 1 1957 0
 594 004a 002C     		cmp	r4, #0
 595 004c F0D1     		bne	.L38
1962:..\lvgl\lv_core/lv_obj.c ****     }
1963:..\lvgl\lv_core/lv_obj.c **** 
1964:..\lvgl\lv_core/lv_obj.c ****     /*Remove the object from parent's children list*/
1965:..\lvgl\lv_core/lv_obj.c ****     lv_obj_t * par = lv_obj_get_parent(obj);
 596              		.loc 1 1965 0
 597 004e 2846     		mov	r0, r5
 598              	.LVL46:
 599 0050 FFF7FEFF 		bl	lv_obj_get_parent
 600              	.LVL47:
1966:..\lvgl\lv_core/lv_obj.c ****     lv_ll_rem(&(par->child_ll), obj);
 601              		.loc 1 1966 0
 602 0054 2946     		mov	r1, r5
 603 0056 0430     		adds	r0, r0, #4
 604              	.LVL48:
 605 0058 FFF7FEFF 		bl	lv_ll_rem
 606              	.LVL49:
1967:..\lvgl\lv_core/lv_obj.c **** 
1968:..\lvgl\lv_core/lv_obj.c ****     /* Clean up the object specific data*/
1969:..\lvgl\lv_core/lv_obj.c ****     obj->signal_func(obj, LV_SIGNAL_CLEANUP, NULL);
 607              		.loc 1 1969 0
 608 005c AB69     		ldr	r3, [r5, #24]
 609 005e 0022     		movs	r2, #0
 610 0060 1146     		mov	r1, r2
ARM GAS  C:\Users\d3bug\AppData\Local\Temp\ccFiAZjI.s 			page 47


 611 0062 2846     		mov	r0, r5
 612 0064 9847     		blx	r3
 613              	.LVL50:
1970:..\lvgl\lv_core/lv_obj.c **** 
1971:..\lvgl\lv_core/lv_obj.c ****     /*Delete the base objects*/
1972:..\lvgl\lv_core/lv_obj.c ****     if(obj->ext_attr != NULL)  lv_mem_free(obj->ext_attr);
 614              		.loc 1 1972 0
 615 0066 286A     		ldr	r0, [r5, #32]
 616 0068 08B1     		cbz	r0, .L39
 617              		.loc 1 1972 0 is_stmt 0 discriminator 1
 618 006a FFF7FEFF 		bl	lv_mem_free
 619              	.LVL51:
 620              	.L39:
1973:..\lvgl\lv_core/lv_obj.c ****     lv_mem_free(obj); /*Free the object itself*/
 621              		.loc 1 1973 0 is_stmt 1
 622 006e 2846     		mov	r0, r5
 623 0070 FFF7FEFF 		bl	lv_mem_free
 624              	.LVL52:
 625 0074 F8BD     		pop	{r3, r4, r5, r6, r7, pc}
 626              		.cfi_endproc
 627              	.LFE85:
 628              		.size	delete_children, .-delete_children
 629 0076 00BF     		.section	.text.lv_obj_get_screen,"ax",%progbits
 630              		.align	2
 631              		.global	lv_obj_get_screen
 632              		.thumb
 633              		.thumb_func
 634              		.type	lv_obj_get_screen, %function
 635              	lv_obj_get_screen:
 636              	.LFB51:
1335:..\lvgl\lv_core/lv_obj.c ****     const lv_obj_t * par = obj;
 637              		.loc 1 1335 0
 638              		.cfi_startproc
 639              		@ args = 0, pretend = 0, frame = 0
 640              		@ frame_needed = 0, uses_anonymous_args = 0
 641              	.LVL53:
 642 0000 10B5     		push	{r4, lr}
 643              		.cfi_def_cfa_offset 8
 644              		.cfi_offset 4, -8
 645              		.cfi_offset 14, -4
 646 0002 0446     		mov	r4, r0
 647              	.LVL54:
 648 0004 00E0     		b	.L42
 649              	.LVL55:
 650              	.L43:
1341:..\lvgl\lv_core/lv_obj.c ****     } while(par != NULL);
 651              		.loc 1 1341 0
 652 0006 1C46     		mov	r4, r3
 653              	.LVL56:
 654              	.L42:
1341:..\lvgl\lv_core/lv_obj.c ****     } while(par != NULL);
 655              		.loc 1 1341 0 is_stmt 0 discriminator 1
 656 0008 2046     		mov	r0, r4
 657 000a FFF7FEFF 		bl	lv_obj_get_parent
 658              	.LVL57:
1342:..\lvgl\lv_core/lv_obj.c **** 
 659              		.loc 1 1342 0 is_stmt 1 discriminator 1
ARM GAS  C:\Users\d3bug\AppData\Local\Temp\ccFiAZjI.s 			page 48


 660 000e 0346     		mov	r3, r0
 661 0010 0028     		cmp	r0, #0
 662 0012 F8D1     		bne	.L43
1345:..\lvgl\lv_core/lv_obj.c **** 
 663              		.loc 1 1345 0
 664 0014 2046     		mov	r0, r4
 665              	.LVL58:
 666 0016 10BD     		pop	{r4, pc}
 667              		.cfi_endproc
 668              	.LFE51:
 669              		.size	lv_obj_get_screen, .-lv_obj_get_screen
 670              		.section	.text.lv_obj_get_child,"ax",%progbits
 671              		.align	2
 672              		.global	lv_obj_get_child
 673              		.thumb
 674              		.thumb_func
 675              		.type	lv_obj_get_child, %function
 676              	lv_obj_get_child:
 677              	.LFB53:
1369:..\lvgl\lv_core/lv_obj.c ****     lv_obj_t * result = NULL;
 678              		.loc 1 1369 0
 679              		.cfi_startproc
 680              		@ args = 0, pretend = 0, frame = 0
 681              		@ frame_needed = 0, uses_anonymous_args = 0
 682              	.LVL59:
 683 0000 08B5     		push	{r3, lr}
 684              		.cfi_def_cfa_offset 8
 685              		.cfi_offset 3, -8
 686              		.cfi_offset 14, -4
 687              	.LVL60:
1372:..\lvgl\lv_core/lv_obj.c ****         result = lv_ll_get_head(&obj->child_ll);
 688              		.loc 1 1372 0
 689 0002 19B9     		cbnz	r1, .L46
1373:..\lvgl\lv_core/lv_obj.c ****     } else {
 690              		.loc 1 1373 0
 691 0004 0430     		adds	r0, r0, #4
 692              	.LVL61:
 693 0006 FFF7FEFF 		bl	lv_ll_get_head
 694              	.LVL62:
 695 000a 08BD     		pop	{r3, pc}
 696              	.LVL63:
 697              	.L46:
1375:..\lvgl\lv_core/lv_obj.c ****     }
 698              		.loc 1 1375 0
 699 000c 0430     		adds	r0, r0, #4
 700              	.LVL64:
 701 000e FFF7FEFF 		bl	lv_ll_get_next
 702              	.LVL65:
1379:..\lvgl\lv_core/lv_obj.c **** 
 703              		.loc 1 1379 0
 704 0012 08BD     		pop	{r3, pc}
 705              		.cfi_endproc
 706              	.LFE53:
 707              		.size	lv_obj_get_child, .-lv_obj_get_child
 708              		.section	.text.lv_obj_get_child_back,"ax",%progbits
 709              		.align	2
 710              		.global	lv_obj_get_child_back
ARM GAS  C:\Users\d3bug\AppData\Local\Temp\ccFiAZjI.s 			page 49


 711              		.thumb
 712              		.thumb_func
 713              		.type	lv_obj_get_child_back, %function
 714              	lv_obj_get_child_back:
 715              	.LFB54:
1389:..\lvgl\lv_core/lv_obj.c ****     lv_obj_t * result = NULL;
 716              		.loc 1 1389 0
 717              		.cfi_startproc
 718              		@ args = 0, pretend = 0, frame = 0
 719              		@ frame_needed = 0, uses_anonymous_args = 0
 720              	.LVL66:
 721 0000 08B5     		push	{r3, lr}
 722              		.cfi_def_cfa_offset 8
 723              		.cfi_offset 3, -8
 724              		.cfi_offset 14, -4
 725              	.LVL67:
1392:..\lvgl\lv_core/lv_obj.c ****         result = lv_ll_get_tail(&obj->child_ll);
 726              		.loc 1 1392 0
 727 0002 19B9     		cbnz	r1, .L50
1393:..\lvgl\lv_core/lv_obj.c ****     } else {
 728              		.loc 1 1393 0
 729 0004 0430     		adds	r0, r0, #4
 730              	.LVL68:
 731 0006 FFF7FEFF 		bl	lv_ll_get_tail
 732              	.LVL69:
 733 000a 08BD     		pop	{r3, pc}
 734              	.LVL70:
 735              	.L50:
1395:..\lvgl\lv_core/lv_obj.c ****     }
 736              		.loc 1 1395 0
 737 000c 0430     		adds	r0, r0, #4
 738              	.LVL71:
 739 000e FFF7FEFF 		bl	lv_ll_get_prev
 740              	.LVL72:
1399:..\lvgl\lv_core/lv_obj.c **** 
 741              		.loc 1 1399 0
 742 0012 08BD     		pop	{r3, pc}
 743              		.cfi_endproc
 744              	.LFE54:
 745              		.size	lv_obj_get_child_back, .-lv_obj_get_child_back
 746              		.section	.text.lv_obj_count_children,"ax",%progbits
 747              		.align	2
 748              		.global	lv_obj_count_children
 749              		.thumb
 750              		.thumb_func
 751              		.type	lv_obj_count_children, %function
 752              	lv_obj_count_children:
 753              	.LFB55:
1407:..\lvgl\lv_core/lv_obj.c ****     lv_obj_t * i;
 754              		.loc 1 1407 0
 755              		.cfi_startproc
 756              		@ args = 0, pretend = 0, frame = 0
 757              		@ frame_needed = 0, uses_anonymous_args = 0
 758              	.LVL73:
 759 0000 38B5     		push	{r3, r4, r5, lr}
 760              		.cfi_def_cfa_offset 16
 761              		.cfi_offset 3, -16
ARM GAS  C:\Users\d3bug\AppData\Local\Temp\ccFiAZjI.s 			page 50


 762              		.cfi_offset 4, -12
 763              		.cfi_offset 5, -8
 764              		.cfi_offset 14, -4
 765              	.LVL74:
1411:..\lvgl\lv_core/lv_obj.c **** 
 766              		.loc 1 1411 0
 767 0002 051D     		adds	r5, r0, #4
 768 0004 2846     		mov	r0, r5
 769              	.LVL75:
 770 0006 FFF7FEFF 		bl	lv_ll_get_head
 771              	.LVL76:
1409:..\lvgl\lv_core/lv_obj.c **** 
 772              		.loc 1 1409 0
 773 000a 0024     		movs	r4, #0
1411:..\lvgl\lv_core/lv_obj.c **** 
 774              		.loc 1 1411 0
 775 000c 05E0     		b	.L54
 776              	.LVL77:
 777              	.L55:
1411:..\lvgl\lv_core/lv_obj.c **** 
 778              		.loc 1 1411 0 is_stmt 0 discriminator 3
 779 000e 0134     		adds	r4, r4, #1
 780              	.LVL78:
 781 0010 A4B2     		uxth	r4, r4
 782              	.LVL79:
 783 0012 0146     		mov	r1, r0
 784 0014 2846     		mov	r0, r5
 785              	.LVL80:
 786 0016 FFF7FEFF 		bl	lv_ll_get_next
 787              	.LVL81:
 788              	.L54:
1411:..\lvgl\lv_core/lv_obj.c **** 
 789              		.loc 1 1411 0 discriminator 1
 790 001a 0028     		cmp	r0, #0
 791 001c F7D1     		bne	.L55
1414:..\lvgl\lv_core/lv_obj.c **** 
 792              		.loc 1 1414 0 is_stmt 1
 793 001e 2046     		mov	r0, r4
 794              	.LVL82:
 795 0020 38BD     		pop	{r3, r4, r5, pc}
 796              		.cfi_endproc
 797              	.LFE55:
 798              		.size	lv_obj_count_children, .-lv_obj_count_children
 799 0022 00BF     		.section	.text.lv_obj_get_coords,"ax",%progbits
 800              		.align	2
 801              		.global	lv_obj_get_coords
 802              		.thumb
 803              		.thumb_func
 804              		.type	lv_obj_get_coords, %function
 805              	lv_obj_get_coords:
 806              	.LFB56:
1426:..\lvgl\lv_core/lv_obj.c ****     lv_area_copy(cords_p, &obj->coords);
 807              		.loc 1 1426 0
 808              		.cfi_startproc
 809              		@ args = 0, pretend = 0, frame = 0
 810              		@ frame_needed = 0, uses_anonymous_args = 0
 811              		@ link register save eliminated.
ARM GAS  C:\Users\d3bug\AppData\Local\Temp\ccFiAZjI.s 			page 51


 812              	.LVL83:
 813              	.LBB15:
 814              	.LBB16:
 815              		.file 2 "..\\lvgl\\lv_core\\../lv_misc/lv_area.h"
   1:..\lvgl\lv_core\../lv_misc/lv_area.h **** /**
   2:..\lvgl\lv_core\../lv_misc/lv_area.h ****  * @file lv_area.h
   3:..\lvgl\lv_core\../lv_misc/lv_area.h ****  *
   4:..\lvgl\lv_core\../lv_misc/lv_area.h ****  */
   5:..\lvgl\lv_core\../lv_misc/lv_area.h **** 
   6:..\lvgl\lv_core\../lv_misc/lv_area.h **** #ifndef LV_AREA_H
   7:..\lvgl\lv_core\../lv_misc/lv_area.h **** #define LV_AREA_H
   8:..\lvgl\lv_core\../lv_misc/lv_area.h **** 
   9:..\lvgl\lv_core\../lv_misc/lv_area.h **** #ifdef __cplusplus
  10:..\lvgl\lv_core\../lv_misc/lv_area.h **** extern "C" {
  11:..\lvgl\lv_core\../lv_misc/lv_area.h **** #endif
  12:..\lvgl\lv_core\../lv_misc/lv_area.h **** 
  13:..\lvgl\lv_core\../lv_misc/lv_area.h **** 
  14:..\lvgl\lv_core\../lv_misc/lv_area.h **** /*********************
  15:..\lvgl\lv_core\../lv_misc/lv_area.h ****  *      INCLUDES
  16:..\lvgl\lv_core\../lv_misc/lv_area.h ****  *********************/
  17:..\lvgl\lv_core\../lv_misc/lv_area.h **** #include <string.h>
  18:..\lvgl\lv_core\../lv_misc/lv_area.h **** #include <stdbool.h>
  19:..\lvgl\lv_core\../lv_misc/lv_area.h **** #include <stdint.h>
  20:..\lvgl\lv_core\../lv_misc/lv_area.h **** 
  21:..\lvgl\lv_core\../lv_misc/lv_area.h **** /*********************
  22:..\lvgl\lv_core\../lv_misc/lv_area.h ****  *      DEFINES
  23:..\lvgl\lv_core\../lv_misc/lv_area.h ****  *********************/
  24:..\lvgl\lv_core\../lv_misc/lv_area.h **** #define LV_COORD_MAX     (16383)    /*To avoid overflow don't let the max [-32,32k] range */
  25:..\lvgl\lv_core\../lv_misc/lv_area.h **** #define LV_COORD_MIN     (-16384)
  26:..\lvgl\lv_core\../lv_misc/lv_area.h **** 
  27:..\lvgl\lv_core\../lv_misc/lv_area.h **** /**********************
  28:..\lvgl\lv_core\../lv_misc/lv_area.h ****  *      TYPEDEFS
  29:..\lvgl\lv_core\../lv_misc/lv_area.h ****  **********************/
  30:..\lvgl\lv_core\../lv_misc/lv_area.h **** typedef int16_t lv_coord_t;
  31:..\lvgl\lv_core\../lv_misc/lv_area.h **** 
  32:..\lvgl\lv_core\../lv_misc/lv_area.h **** typedef struct
  33:..\lvgl\lv_core\../lv_misc/lv_area.h **** {
  34:..\lvgl\lv_core\../lv_misc/lv_area.h ****     lv_coord_t x;
  35:..\lvgl\lv_core\../lv_misc/lv_area.h ****     lv_coord_t y;
  36:..\lvgl\lv_core\../lv_misc/lv_area.h **** } lv_point_t;
  37:..\lvgl\lv_core\../lv_misc/lv_area.h **** 
  38:..\lvgl\lv_core\../lv_misc/lv_area.h **** typedef struct
  39:..\lvgl\lv_core\../lv_misc/lv_area.h **** {
  40:..\lvgl\lv_core\../lv_misc/lv_area.h ****     lv_coord_t x1;
  41:..\lvgl\lv_core\../lv_misc/lv_area.h ****     lv_coord_t y1;
  42:..\lvgl\lv_core\../lv_misc/lv_area.h ****     lv_coord_t x2;
  43:..\lvgl\lv_core\../lv_misc/lv_area.h ****     lv_coord_t y2;
  44:..\lvgl\lv_core\../lv_misc/lv_area.h **** } lv_area_t;
  45:..\lvgl\lv_core\../lv_misc/lv_area.h **** 
  46:..\lvgl\lv_core\../lv_misc/lv_area.h **** /**********************
  47:..\lvgl\lv_core\../lv_misc/lv_area.h ****  * GLOBAL PROTOTYPES
  48:..\lvgl\lv_core\../lv_misc/lv_area.h ****  **********************/
  49:..\lvgl\lv_core\../lv_misc/lv_area.h **** 
  50:..\lvgl\lv_core\../lv_misc/lv_area.h **** /**
  51:..\lvgl\lv_core\../lv_misc/lv_area.h ****  * Initialize an area
  52:..\lvgl\lv_core\../lv_misc/lv_area.h ****  * @param area_p pointer to an area
  53:..\lvgl\lv_core\../lv_misc/lv_area.h ****  * @param x1 left coordinate of the area
ARM GAS  C:\Users\d3bug\AppData\Local\Temp\ccFiAZjI.s 			page 52


  54:..\lvgl\lv_core\../lv_misc/lv_area.h ****  * @param y1 top coordinate of the area
  55:..\lvgl\lv_core\../lv_misc/lv_area.h ****  * @param x2 right coordinate of the area
  56:..\lvgl\lv_core\../lv_misc/lv_area.h ****  * @param y2 bottom coordinate of the area
  57:..\lvgl\lv_core\../lv_misc/lv_area.h ****  */
  58:..\lvgl\lv_core\../lv_misc/lv_area.h **** void lv_area_set(lv_area_t * area_p, lv_coord_t x1, lv_coord_t y1, lv_coord_t x2, lv_coord_t y2);
  59:..\lvgl\lv_core\../lv_misc/lv_area.h **** 
  60:..\lvgl\lv_core\../lv_misc/lv_area.h **** /**
  61:..\lvgl\lv_core\../lv_misc/lv_area.h ****  * Copy an area
  62:..\lvgl\lv_core\../lv_misc/lv_area.h ****  * @param dest pointer to the destination area
  63:..\lvgl\lv_core\../lv_misc/lv_area.h ****  * @param src pointer to the source area
  64:..\lvgl\lv_core\../lv_misc/lv_area.h ****  */
  65:..\lvgl\lv_core\../lv_misc/lv_area.h **** inline static void lv_area_copy(lv_area_t * dest, const lv_area_t * src)
  66:..\lvgl\lv_core\../lv_misc/lv_area.h **** {
  67:..\lvgl\lv_core\../lv_misc/lv_area.h ****     memcpy(dest, src, sizeof(lv_area_t));
 816              		.loc 2 67 0
 817 0000 50F8102F 		ldr	r2, [r0, #16]!	@ unaligned
 818              	.LVL84:
 819 0004 4368     		ldr	r3, [r0, #4]	@ unaligned
 820 0006 0A60     		str	r2, [r1]	@ unaligned
 821 0008 4B60     		str	r3, [r1, #4]	@ unaligned
 822              	.LVL85:
 823 000a 7047     		bx	lr
 824              	.LBE16:
 825              	.LBE15:
 826              		.cfi_endproc
 827              	.LFE56:
 828              		.size	lv_obj_get_coords, .-lv_obj_get_coords
 829              		.section	.text.lv_obj_get_x,"ax",%progbits
 830              		.align	2
 831              		.global	lv_obj_get_x
 832              		.thumb
 833              		.thumb_func
 834              		.type	lv_obj_get_x, %function
 835              	lv_obj_get_x:
 836              	.LFB57:
1437:..\lvgl\lv_core/lv_obj.c ****     lv_coord_t rel_x;
 837              		.loc 1 1437 0
 838              		.cfi_startproc
 839              		@ args = 0, pretend = 0, frame = 0
 840              		@ frame_needed = 0, uses_anonymous_args = 0
 841              	.LVL86:
 842 0000 10B5     		push	{r4, lr}
 843              		.cfi_def_cfa_offset 8
 844              		.cfi_offset 4, -8
 845              		.cfi_offset 14, -4
 846 0002 0446     		mov	r4, r0
1439:..\lvgl\lv_core/lv_obj.c ****     rel_x = obj->coords.x1 - parent->coords.x1;
 847              		.loc 1 1439 0
 848 0004 FFF7FEFF 		bl	lv_obj_get_parent
 849              	.LVL87:
1440:..\lvgl\lv_core/lv_obj.c **** 
 850              		.loc 1 1440 0
 851 0008 B4F91030 		ldrsh	r3, [r4, #16]
 852 000c B0F91000 		ldrsh	r0, [r0, #16]
 853              	.LVL88:
 854 0010 181A     		subs	r0, r3, r0
 855              	.LVL89:
ARM GAS  C:\Users\d3bug\AppData\Local\Temp\ccFiAZjI.s 			page 53


1443:..\lvgl\lv_core/lv_obj.c **** 
 856              		.loc 1 1443 0
 857 0012 00B2     		sxth	r0, r0
 858 0014 10BD     		pop	{r4, pc}
 859              		.cfi_endproc
 860              	.LFE57:
 861              		.size	lv_obj_get_x, .-lv_obj_get_x
 862 0016 00BF     		.section	.text.lv_obj_get_y,"ax",%progbits
 863              		.align	2
 864              		.global	lv_obj_get_y
 865              		.thumb
 866              		.thumb_func
 867              		.type	lv_obj_get_y, %function
 868              	lv_obj_get_y:
 869              	.LFB58:
1451:..\lvgl\lv_core/lv_obj.c ****     lv_coord_t rel_y;
 870              		.loc 1 1451 0
 871              		.cfi_startproc
 872              		@ args = 0, pretend = 0, frame = 0
 873              		@ frame_needed = 0, uses_anonymous_args = 0
 874              	.LVL90:
 875 0000 10B5     		push	{r4, lr}
 876              		.cfi_def_cfa_offset 8
 877              		.cfi_offset 4, -8
 878              		.cfi_offset 14, -4
 879 0002 0446     		mov	r4, r0
1453:..\lvgl\lv_core/lv_obj.c ****     rel_y = obj->coords.y1 - parent->coords.y1;
 880              		.loc 1 1453 0
 881 0004 FFF7FEFF 		bl	lv_obj_get_parent
 882              	.LVL91:
1454:..\lvgl\lv_core/lv_obj.c **** 
 883              		.loc 1 1454 0
 884 0008 B4F91230 		ldrsh	r3, [r4, #18]
 885 000c B0F91200 		ldrsh	r0, [r0, #18]
 886              	.LVL92:
 887 0010 181A     		subs	r0, r3, r0
 888              	.LVL93:
1457:..\lvgl\lv_core/lv_obj.c **** 
 889              		.loc 1 1457 0
 890 0012 00B2     		sxth	r0, r0
 891 0014 10BD     		pop	{r4, pc}
 892              		.cfi_endproc
 893              	.LFE58:
 894              		.size	lv_obj_get_y, .-lv_obj_get_y
 895 0016 00BF     		.section	.text.lv_obj_get_width,"ax",%progbits
 896              		.align	2
 897              		.global	lv_obj_get_width
 898              		.thumb
 899              		.thumb_func
 900              		.type	lv_obj_get_width, %function
 901              	lv_obj_get_width:
 902              	.LFB59:
1465:..\lvgl\lv_core/lv_obj.c ****     return lv_area_get_width(&obj->coords);
 903              		.loc 1 1465 0
 904              		.cfi_startproc
 905              		@ args = 0, pretend = 0, frame = 0
 906              		@ frame_needed = 0, uses_anonymous_args = 0
ARM GAS  C:\Users\d3bug\AppData\Local\Temp\ccFiAZjI.s 			page 54


 907              		@ link register save eliminated.
 908              	.LVL94:
 909              	.LBB17:
 910              	.LBB18:
  68:..\lvgl\lv_core\../lv_misc/lv_area.h **** }
  69:..\lvgl\lv_core\../lv_misc/lv_area.h **** 
  70:..\lvgl\lv_core\../lv_misc/lv_area.h **** /**
  71:..\lvgl\lv_core\../lv_misc/lv_area.h ****  * Get the width of an area
  72:..\lvgl\lv_core\../lv_misc/lv_area.h ****  * @param area_p pointer to an area
  73:..\lvgl\lv_core\../lv_misc/lv_area.h ****  * @return the width of the area (if x1 == x2 -> width = 1)
  74:..\lvgl\lv_core\../lv_misc/lv_area.h ****  */
  75:..\lvgl\lv_core\../lv_misc/lv_area.h **** static inline lv_coord_t lv_area_get_width(const lv_area_t * area_p)
  76:..\lvgl\lv_core\../lv_misc/lv_area.h **** {
  77:..\lvgl\lv_core\../lv_misc/lv_area.h ****     return area_p->x2 - area_p->x1 + 1;
 911              		.loc 2 77 0
 912 0000 B0F91430 		ldrsh	r3, [r0, #20]
 913 0004 B0F91000 		ldrsh	r0, [r0, #16]
 914              	.LVL95:
 915 0008 181A     		subs	r0, r3, r0
 916 000a 0130     		adds	r0, r0, #1
 917              	.LVL96:
 918              	.LBE18:
 919              	.LBE17:
1467:..\lvgl\lv_core/lv_obj.c **** 
 920              		.loc 1 1467 0
 921 000c 00B2     		sxth	r0, r0
 922 000e 7047     		bx	lr
 923              		.cfi_endproc
 924              	.LFE59:
 925              		.size	lv_obj_get_width, .-lv_obj_get_width
 926              		.section	.text.lv_obj_get_height,"ax",%progbits
 927              		.align	2
 928              		.global	lv_obj_get_height
 929              		.thumb
 930              		.thumb_func
 931              		.type	lv_obj_get_height, %function
 932              	lv_obj_get_height:
 933              	.LFB60:
1475:..\lvgl\lv_core/lv_obj.c ****     return lv_area_get_height(&obj->coords);
 934              		.loc 1 1475 0
 935              		.cfi_startproc
 936              		@ args = 0, pretend = 0, frame = 0
 937              		@ frame_needed = 0, uses_anonymous_args = 0
 938              		@ link register save eliminated.
 939              	.LVL97:
 940              	.LBB19:
 941              	.LBB20:
  78:..\lvgl\lv_core\../lv_misc/lv_area.h **** }
  79:..\lvgl\lv_core\../lv_misc/lv_area.h **** 
  80:..\lvgl\lv_core\../lv_misc/lv_area.h **** /**
  81:..\lvgl\lv_core\../lv_misc/lv_area.h ****  * Get the height of an area
  82:..\lvgl\lv_core\../lv_misc/lv_area.h ****  * @param area_p pointer to an area
  83:..\lvgl\lv_core\../lv_misc/lv_area.h ****  * @return the height of the area (if y1 == y2 -> height = 1)
  84:..\lvgl\lv_core\../lv_misc/lv_area.h ****  */
  85:..\lvgl\lv_core\../lv_misc/lv_area.h **** static inline lv_coord_t lv_area_get_height(const lv_area_t * area_p)
  86:..\lvgl\lv_core\../lv_misc/lv_area.h **** {
  87:..\lvgl\lv_core\../lv_misc/lv_area.h ****     return area_p->y2 - area_p->y1 + 1;
ARM GAS  C:\Users\d3bug\AppData\Local\Temp\ccFiAZjI.s 			page 55


 942              		.loc 2 87 0
 943 0000 B0F91630 		ldrsh	r3, [r0, #22]
 944 0004 B0F91200 		ldrsh	r0, [r0, #18]
 945              	.LVL98:
 946 0008 181A     		subs	r0, r3, r0
 947 000a 0130     		adds	r0, r0, #1
 948              	.LVL99:
 949              	.LBE20:
 950              	.LBE19:
1477:..\lvgl\lv_core/lv_obj.c **** 
 951              		.loc 1 1477 0
 952 000c 00B2     		sxth	r0, r0
 953 000e 7047     		bx	lr
 954              		.cfi_endproc
 955              	.LFE60:
 956              		.size	lv_obj_get_height, .-lv_obj_get_height
 957              		.section	.text.lv_obj_get_ext_size,"ax",%progbits
 958              		.align	2
 959              		.global	lv_obj_get_ext_size
 960              		.thumb
 961              		.thumb_func
 962              		.type	lv_obj_get_ext_size, %function
 963              	lv_obj_get_ext_size:
 964              	.LFB61:
1485:..\lvgl\lv_core/lv_obj.c ****     return obj->ext_size;
 965              		.loc 1 1485 0
 966              		.cfi_startproc
 967              		@ args = 0, pretend = 0, frame = 0
 968              		@ frame_needed = 0, uses_anonymous_args = 0
 969              		@ link register save eliminated.
 970              	.LVL100:
1487:..\lvgl\lv_core/lv_obj.c **** 
 971              		.loc 1 1487 0
 972 0000 B0F93000 		ldrsh	r0, [r0, #48]
 973              	.LVL101:
 974 0004 7047     		bx	lr
 975              		.cfi_endproc
 976              	.LFE61:
 977              		.size	lv_obj_get_ext_size, .-lv_obj_get_ext_size
 978 0006 00BF     		.section	.text.lv_obj_get_auto_realign,"ax",%progbits
 979              		.align	2
 980              		.global	lv_obj_get_auto_realign
 981              		.thumb
 982              		.thumb_func
 983              		.type	lv_obj_get_auto_realign, %function
 984              	lv_obj_get_auto_realign:
 985              	.LFB62:
1495:..\lvgl\lv_core/lv_obj.c **** #if LV_OBJ_REALIGN
 986              		.loc 1 1495 0
 987              		.cfi_startproc
 988              		@ args = 0, pretend = 0, frame = 0
 989              		@ frame_needed = 0, uses_anonymous_args = 0
 990              		@ link register save eliminated.
 991              	.LVL102:
1497:..\lvgl\lv_core/lv_obj.c **** #else
 992              		.loc 1 1497 0
 993 0000 90F83D00 		ldrb	r0, [r0, #61]	@ zero_extendqisi2
ARM GAS  C:\Users\d3bug\AppData\Local\Temp\ccFiAZjI.s 			page 56


 994              	.LVL103:
1502:..\lvgl\lv_core/lv_obj.c **** 
 995              		.loc 1 1502 0
 996 0004 00F00100 		and	r0, r0, #1
 997 0008 7047     		bx	lr
 998              		.cfi_endproc
 999              	.LFE62:
 1000              		.size	lv_obj_get_auto_realign, .-lv_obj_get_auto_realign
 1001 000a 00BF     		.section	.text.lv_obj_get_style,"ax",%progbits
 1002              		.align	2
 1003              		.global	lv_obj_get_style
 1004              		.thumb
 1005              		.thumb_func
 1006              		.type	lv_obj_get_style, %function
 1007              	lv_obj_get_style:
 1008              	.LFB63:
1514:..\lvgl\lv_core/lv_obj.c ****     lv_style_t * style_act = obj->style_p;
 1009              		.loc 1 1514 0
 1010              		.cfi_startproc
 1011              		@ args = 0, pretend = 0, frame = 0
 1012              		@ frame_needed = 0, uses_anonymous_args = 0
 1013              		@ link register save eliminated.
 1014              	.LVL104:
1515:..\lvgl\lv_core/lv_obj.c ****     if(style_act == NULL) {
 1015              		.loc 1 1515 0
 1016 0000 416A     		ldr	r1, [r0, #36]
 1017              	.LVL105:
1516:..\lvgl\lv_core/lv_obj.c ****         lv_obj_t * par = obj->par;
 1018              		.loc 1 1516 0
 1019 0002 61B9     		cbnz	r1, .L67
 1020              	.LBB21:
1517:..\lvgl\lv_core/lv_obj.c **** 
 1021              		.loc 1 1517 0
 1022 0004 0368     		ldr	r3, [r0]
 1023              	.LVL106:
1519:..\lvgl\lv_core/lv_obj.c ****             if(par->style_p) {
 1024              		.loc 1 1519 0
 1025 0006 06E0     		b	.L68
 1026              	.LVL107:
 1027              	.L70:
1520:..\lvgl\lv_core/lv_obj.c ****                 if(par->style_p->glass == 0) {
 1028              		.loc 1 1520 0
 1029 0008 5A6A     		ldr	r2, [r3, #36]
 1030 000a 1AB1     		cbz	r2, .L69
1521:..\lvgl\lv_core/lv_obj.c **** #if USE_LV_GROUP == 0
 1031              		.loc 1 1521 0
 1032 000c 1078     		ldrb	r0, [r2]	@ zero_extendqisi2
 1033 000e 10F0010F 		tst	r0, #1
 1034 0012 03D0     		beq	.L72
 1035              	.L69:
1536:..\lvgl\lv_core/lv_obj.c ****         }
 1036              		.loc 1 1536 0
 1037 0014 1B68     		ldr	r3, [r3]
 1038              	.LVL108:
 1039              	.L68:
1519:..\lvgl\lv_core/lv_obj.c ****             if(par->style_p) {
 1040              		.loc 1 1519 0
ARM GAS  C:\Users\d3bug\AppData\Local\Temp\ccFiAZjI.s 			page 57


 1041 0016 002B     		cmp	r3, #0
 1042 0018 F6D1     		bne	.L70
 1043 001a 00E0     		b	.L67
 1044              	.L72:
1523:..\lvgl\lv_core/lv_obj.c **** #else
 1045              		.loc 1 1523 0
 1046 001c 1146     		mov	r1, r2
 1047              	.LVL109:
 1048              	.L67:
 1049              	.LBE21:
1547:..\lvgl\lv_core/lv_obj.c **** 
 1050              		.loc 1 1547 0
 1051 001e 01B9     		cbnz	r1, .L71
 1052 0020 0149     		ldr	r1, .L74
 1053              	.LVL110:
 1054              	.L71:
1550:..\lvgl\lv_core/lv_obj.c **** 
 1055              		.loc 1 1550 0
 1056 0022 0846     		mov	r0, r1
 1057 0024 7047     		bx	lr
 1058              	.L75:
 1059 0026 00BF     		.align	2
 1060              	.L74:
 1061 0028 00000000 		.word	lv_style_plain
 1062              		.cfi_endproc
 1063              	.LFE63:
 1064              		.size	lv_obj_get_style, .-lv_obj_get_style
 1065              		.section	.text.lv_obj_get_hidden,"ax",%progbits
 1066              		.align	2
 1067              		.global	lv_obj_get_hidden
 1068              		.thumb
 1069              		.thumb_func
 1070              		.type	lv_obj_get_hidden, %function
 1071              	lv_obj_get_hidden:
 1072              	.LFB64:
1562:..\lvgl\lv_core/lv_obj.c ****     return obj->hidden == 0 ? false : true;
 1073              		.loc 1 1562 0
 1074              		.cfi_startproc
 1075              		@ args = 0, pretend = 0, frame = 0
 1076              		@ frame_needed = 0, uses_anonymous_args = 0
 1077              		@ link register save eliminated.
 1078              	.LVL111:
1563:..\lvgl\lv_core/lv_obj.c **** }
 1079              		.loc 1 1563 0
 1080 0000 90F82C00 		ldrb	r0, [r0, #44]	@ zero_extendqisi2
 1081              	.LVL112:
1564:..\lvgl\lv_core/lv_obj.c **** 
 1082              		.loc 1 1564 0
 1083 0004 C0F30010 		ubfx	r0, r0, #4, #1
 1084 0008 7047     		bx	lr
 1085              		.cfi_endproc
 1086              	.LFE64:
 1087              		.size	lv_obj_get_hidden, .-lv_obj_get_hidden
 1088 000a 00BF     		.section	.text.lv_obj_invalidate,"ax",%progbits
 1089              		.align	2
 1090              		.global	lv_obj_invalidate
 1091              		.thumb
ARM GAS  C:\Users\d3bug\AppData\Local\Temp\ccFiAZjI.s 			page 58


 1092              		.thumb_func
 1093              		.type	lv_obj_invalidate, %function
 1094              	lv_obj_invalidate:
 1095              	.LFB16:
 413:..\lvgl\lv_core/lv_obj.c ****     if(lv_obj_get_hidden(obj)) return;
 1096              		.loc 1 413 0
 1097              		.cfi_startproc
 1098              		@ args = 0, pretend = 0, frame = 8
 1099              		@ frame_needed = 0, uses_anonymous_args = 0
 1100              	.LVL113:
 1101 0000 30B5     		push	{r4, r5, lr}
 1102              		.cfi_def_cfa_offset 12
 1103              		.cfi_offset 4, -12
 1104              		.cfi_offset 5, -8
 1105              		.cfi_offset 14, -4
 1106 0002 83B0     		sub	sp, sp, #12
 1107              		.cfi_def_cfa_offset 24
 1108 0004 0546     		mov	r5, r0
 414:..\lvgl\lv_core/lv_obj.c **** 
 1109              		.loc 1 414 0
 1110 0006 FFF7FEFF 		bl	lv_obj_get_hidden
 1111              	.LVL114:
 1112 000a 0028     		cmp	r0, #0
 1113 000c 47D1     		bne	.L77
 417:..\lvgl\lv_core/lv_obj.c ****     if(obj_scr == lv_scr_act() ||
 1114              		.loc 1 417 0
 1115 000e 2846     		mov	r0, r5
 1116 0010 FFF7FEFF 		bl	lv_obj_get_screen
 1117              	.LVL115:
 1118 0014 0446     		mov	r4, r0
 1119              	.LVL116:
 418:..\lvgl\lv_core/lv_obj.c ****             obj_scr == lv_layer_top() ||
 1120              		.loc 1 418 0
 1121 0016 FFF7FEFF 		bl	lv_scr_act
 1122              	.LVL117:
 1123 001a 8442     		cmp	r4, r0
 1124 001c 07D0     		beq	.L79
 419:..\lvgl\lv_core/lv_obj.c ****             obj_scr == lv_layer_sys()) {
 1125              		.loc 1 419 0 discriminator 1
 1126 001e FFF7FEFF 		bl	lv_layer_top
 1127              	.LVL118:
 418:..\lvgl\lv_core/lv_obj.c ****             obj_scr == lv_layer_top() ||
 1128              		.loc 1 418 0 discriminator 1
 1129 0022 8442     		cmp	r4, r0
 1130 0024 03D0     		beq	.L79
 420:..\lvgl\lv_core/lv_obj.c ****         /*Truncate recursively to the parents*/
 1131              		.loc 1 420 0
 1132 0026 FFF7FEFF 		bl	lv_layer_sys
 1133              	.LVL119:
 419:..\lvgl\lv_core/lv_obj.c ****             obj_scr == lv_layer_sys()) {
 1134              		.loc 1 419 0
 1135 002a 8442     		cmp	r4, r0
 1136 002c 37D1     		bne	.L77
 1137              	.L79:
 1138              	.LBB22:
 423:..\lvgl\lv_core/lv_obj.c ****         bool union_ok = true;
 1139              		.loc 1 423 0
ARM GAS  C:\Users\d3bug\AppData\Local\Temp\ccFiAZjI.s 			page 59


 1140 002e 2846     		mov	r0, r5
 1141 0030 FFF7FEFF 		bl	lv_obj_get_parent
 1142              	.LVL120:
 1143 0034 0446     		mov	r4, r0
 1144              	.LVL121:
 426:..\lvgl\lv_core/lv_obj.c ****         lv_area_copy(&area_trunc, &obj->coords);
 1145              		.loc 1 426 0
 1146 0036 B5F93030 		ldrsh	r3, [r5, #48]
 1147              	.LVL122:
 1148              	.LBB23:
 1149              	.LBB24:
  67:..\lvgl\lv_core\../lv_misc/lv_area.h **** }
 1150              		.loc 2 67 0
 1151 003a 6A46     		mov	r2, sp
 1152 003c 55F8100F 		ldr	r0, [r5, #16]!	@ unaligned
 1153              	.LVL123:
 1154 0040 6968     		ldr	r1, [r5, #4]	@ unaligned
 1155 0042 03C2     		stmia	r2!, {r0, r1}
 1156              	.LVL124:
 1157              	.LBE24:
 1158              	.LBE23:
 428:..\lvgl\lv_core/lv_obj.c ****         area_trunc.y1 -= ext_size;
 1159              		.loc 1 428 0
 1160 0044 9BB2     		uxth	r3, r3
 1161 0046 BDF80020 		ldrh	r2, [sp]
 1162 004a D21A     		subs	r2, r2, r3
 1163 004c ADF80020 		strh	r2, [sp]	@ movhi
 429:..\lvgl\lv_core/lv_obj.c ****         area_trunc.x2 += ext_size;
 1164              		.loc 1 429 0
 1165 0050 BDF80220 		ldrh	r2, [sp, #2]
 1166 0054 D21A     		subs	r2, r2, r3
 1167 0056 ADF80220 		strh	r2, [sp, #2]	@ movhi
 430:..\lvgl\lv_core/lv_obj.c ****         area_trunc.y2 += ext_size;
 1168              		.loc 1 430 0
 1169 005a BDF80420 		ldrh	r2, [sp, #4]
 1170 005e 1A44     		add	r2, r2, r3
 1171 0060 ADF80420 		strh	r2, [sp, #4]	@ movhi
 431:..\lvgl\lv_core/lv_obj.c **** 
 1172              		.loc 1 431 0
 1173 0064 BDF80620 		ldrh	r2, [sp, #6]
 1174 0068 1344     		add	r3, r3, r2
 1175              	.LVL125:
 1176 006a ADF80630 		strh	r3, [sp, #6]	@ movhi
 424:..\lvgl\lv_core/lv_obj.c ****         /*Start with the original coordinates*/
 1177              		.loc 1 424 0
 1178 006e 0125     		movs	r5, #1
 1179              	.LVL126:
 434:..\lvgl\lv_core/lv_obj.c ****             union_ok = lv_area_intersect(&area_trunc, &area_trunc, &par->coords);
 1180              		.loc 1 434 0
 1181 0070 0FE0     		b	.L80
 1182              	.LVL127:
 1183              	.L83:
 435:..\lvgl\lv_core/lv_obj.c ****             if(union_ok == false) break;        /*If no common parts with parent break;*/
 1184              		.loc 1 435 0
 1185 0072 04F11002 		add	r2, r4, #16
 1186 0076 6946     		mov	r1, sp
 1187 0078 6846     		mov	r0, sp
ARM GAS  C:\Users\d3bug\AppData\Local\Temp\ccFiAZjI.s 			page 60


 1188 007a FFF7FEFF 		bl	lv_area_intersect
 1189              	.LVL128:
 436:..\lvgl\lv_core/lv_obj.c ****             if(lv_obj_get_hidden(par)) return;  /*If the parent is hidden then the child is hidden 
 1190              		.loc 1 436 0
 1191 007e 0546     		mov	r5, r0
 1192 0080 48B1     		cbz	r0, .L81
 437:..\lvgl\lv_core/lv_obj.c **** 
 1193              		.loc 1 437 0
 1194 0082 2046     		mov	r0, r4
 1195              	.LVL129:
 1196 0084 FFF7FEFF 		bl	lv_obj_get_hidden
 1197              	.LVL130:
 1198 0088 48B9     		cbnz	r0, .L77
 439:..\lvgl\lv_core/lv_obj.c ****         }
 1199              		.loc 1 439 0
 1200 008a 2046     		mov	r0, r4
 1201 008c FFF7FEFF 		bl	lv_obj_get_parent
 1202              	.LVL131:
 1203 0090 0446     		mov	r4, r0
 1204              	.LVL132:
 1205              	.L80:
 434:..\lvgl\lv_core/lv_obj.c ****             union_ok = lv_area_intersect(&area_trunc, &area_trunc, &par->coords);
 1206              		.loc 1 434 0
 1207 0092 002C     		cmp	r4, #0
 1208 0094 EDD1     		bne	.L83
 1209              	.LVL133:
 1210              	.L81:
 442:..\lvgl\lv_core/lv_obj.c ****     }
 1211              		.loc 1 442 0
 1212 0096 15B1     		cbz	r5, .L77
 442:..\lvgl\lv_core/lv_obj.c ****     }
 1213              		.loc 1 442 0 is_stmt 0 discriminator 1
 1214 0098 6846     		mov	r0, sp
 1215 009a FFF7FEFF 		bl	lv_inv_area
 1216              	.LVL134:
 1217              	.L77:
 1218              	.LBE22:
 444:..\lvgl\lv_core/lv_obj.c **** 
 1219              		.loc 1 444 0 is_stmt 1
 1220 009e 03B0     		add	sp, sp, #12
 1221              		.cfi_def_cfa_offset 12
 1222              		@ sp needed
 1223 00a0 30BD     		pop	{r4, r5, pc}
 1224              		.cfi_endproc
 1225              	.LFE16:
 1226              		.size	lv_obj_invalidate, .-lv_obj_invalidate
 1227 00a2 00BF     		.section	.text.lv_obj_del,"ax",%progbits
 1228              		.align	2
 1229              		.global	lv_obj_del
 1230              		.thumb
 1231              		.thumb_func
 1232              		.type	lv_obj_del, %function
 1233              	lv_obj_del:
 1234              	.LFB14:
 329:..\lvgl\lv_core/lv_obj.c ****     lv_obj_invalidate(obj);
 1235              		.loc 1 329 0
 1236              		.cfi_startproc
ARM GAS  C:\Users\d3bug\AppData\Local\Temp\ccFiAZjI.s 			page 61


 1237              		@ args = 0, pretend = 0, frame = 0
 1238              		@ frame_needed = 0, uses_anonymous_args = 0
 1239              	.LVL135:
 1240 0000 F8B5     		push	{r3, r4, r5, r6, r7, lr}
 1241              		.cfi_def_cfa_offset 24
 1242              		.cfi_offset 3, -24
 1243              		.cfi_offset 4, -20
 1244              		.cfi_offset 5, -16
 1245              		.cfi_offset 6, -12
 1246              		.cfi_offset 7, -8
 1247              		.cfi_offset 14, -4
 1248 0002 0546     		mov	r5, r0
 330:..\lvgl\lv_core/lv_obj.c **** 
 1249              		.loc 1 330 0
 1250 0004 FFF7FEFF 		bl	lv_obj_invalidate
 1251              	.LVL136:
 345:..\lvgl\lv_core/lv_obj.c ****     while(i != NULL) {
 1252              		.loc 1 345 0
 1253 0008 2F1D     		adds	r7, r5, #4
 1254 000a 3846     		mov	r0, r7
 1255 000c FFF7FEFF 		bl	lv_ll_get_head
 1256              	.LVL137:
 1257 0010 0446     		mov	r4, r0
 1258              	.LVL138:
 346:..\lvgl\lv_core/lv_obj.c ****         /*Get the next object before delete this*/
 1259              		.loc 1 346 0
 1260 0012 08E0     		b	.L87
 1261              	.LVL139:
 1262              	.L88:
 348:..\lvgl\lv_core/lv_obj.c **** 
 1263              		.loc 1 348 0
 1264 0014 2146     		mov	r1, r4
 1265 0016 3846     		mov	r0, r7
 1266 0018 FFF7FEFF 		bl	lv_ll_get_next
 1267              	.LVL140:
 1268 001c 0646     		mov	r6, r0
 1269              	.LVL141:
 351:..\lvgl\lv_core/lv_obj.c **** 
 1270              		.loc 1 351 0
 1271 001e 2046     		mov	r0, r4
 1272              	.LVL142:
 1273 0020 FFF7FEFF 		bl	delete_children
 1274              	.LVL143:
 354:..\lvgl\lv_core/lv_obj.c ****     }
 1275              		.loc 1 354 0
 1276 0024 3446     		mov	r4, r6
 1277              	.LVL144:
 1278              	.L87:
 346:..\lvgl\lv_core/lv_obj.c ****         /*Get the next object before delete this*/
 1279              		.loc 1 346 0
 1280 0026 002C     		cmp	r4, #0
 1281 0028 F4D1     		bne	.L88
 358:..\lvgl\lv_core/lv_obj.c ****     if(par == NULL) { /*It is a screen*/
 1282              		.loc 1 358 0
 1283 002a 2846     		mov	r0, r5
 1284 002c FFF7FEFF 		bl	lv_obj_get_parent
 1285              	.LVL145:
ARM GAS  C:\Users\d3bug\AppData\Local\Temp\ccFiAZjI.s 			page 62


 359:..\lvgl\lv_core/lv_obj.c ****         lv_ll_rem(&LV_GC_ROOT(_lv_scr_ll), obj);
 1286              		.loc 1 359 0
 1287 0030 0646     		mov	r6, r0
 1288 0032 20B9     		cbnz	r0, .L89
 360:..\lvgl\lv_core/lv_obj.c ****     } else {
 1289              		.loc 1 360 0
 1290 0034 2946     		mov	r1, r5
 1291 0036 1848     		ldr	r0, .L98
 1292              	.LVL146:
 1293 0038 FFF7FEFF 		bl	lv_ll_rem
 1294              	.LVL147:
 1295 003c 03E0     		b	.L90
 1296              	.LVL148:
 1297              	.L89:
 362:..\lvgl\lv_core/lv_obj.c ****     }
 1298              		.loc 1 362 0
 1299 003e 2946     		mov	r1, r5
 1300 0040 0430     		adds	r0, r0, #4
 1301              	.LVL149:
 1302 0042 FFF7FEFF 		bl	lv_ll_rem
 1303              	.LVL150:
 1304              	.L90:
 367:..\lvgl\lv_core/lv_obj.c ****     while(indev) {
 1305              		.loc 1 367 0
 1306 0046 0020     		movs	r0, #0
 1307 0048 FFF7FEFF 		bl	lv_indev_next
 1308              	.LVL151:
 1309 004c 0446     		mov	r4, r0
 1310              	.LVL152:
 368:..\lvgl\lv_core/lv_obj.c ****         if(indev->proc.act_obj == obj || indev->proc.last_obj == obj) {
 1311              		.loc 1 368 0
 1312 004e 0CE0     		b	.L91
 1313              	.L94:
 369:..\lvgl\lv_core/lv_obj.c ****             lv_indev_reset(indev);
 1314              		.loc 1 369 0
 1315 0050 236A     		ldr	r3, [r4, #32]
 1316 0052 9D42     		cmp	r5, r3
 1317 0054 02D0     		beq	.L92
 369:..\lvgl\lv_core/lv_obj.c ****             lv_indev_reset(indev);
 1318              		.loc 1 369 0 is_stmt 0 discriminator 1
 1319 0056 636A     		ldr	r3, [r4, #36]
 1320 0058 9D42     		cmp	r5, r3
 1321 005a 02D1     		bne	.L93
 1322              	.L92:
 370:..\lvgl\lv_core/lv_obj.c ****         }
 1323              		.loc 1 370 0 is_stmt 1
 1324 005c 2046     		mov	r0, r4
 1325              	.LVL153:
 1326 005e FFF7FEFF 		bl	lv_indev_reset
 1327              	.LVL154:
 1328              	.L93:
 372:..\lvgl\lv_core/lv_obj.c ****     }
 1329              		.loc 1 372 0
 1330 0062 2046     		mov	r0, r4
 1331 0064 FFF7FEFF 		bl	lv_indev_next
 1332              	.LVL155:
 1333 0068 0446     		mov	r4, r0
ARM GAS  C:\Users\d3bug\AppData\Local\Temp\ccFiAZjI.s 			page 63


 1334              	.LVL156:
 1335              	.L91:
 368:..\lvgl\lv_core/lv_obj.c ****         if(indev->proc.act_obj == obj || indev->proc.last_obj == obj) {
 1336              		.loc 1 368 0
 1337 006a 002C     		cmp	r4, #0
 1338 006c F0D1     		bne	.L94
 377:..\lvgl\lv_core/lv_obj.c **** 
 1339              		.loc 1 377 0
 1340 006e AB69     		ldr	r3, [r5, #24]
 1341 0070 0022     		movs	r2, #0
 1342 0072 1146     		mov	r1, r2
 1343 0074 2846     		mov	r0, r5
 1344              	.LVL157:
 1345 0076 9847     		blx	r3
 1346              	.LVL158:
 380:..\lvgl\lv_core/lv_obj.c ****     lv_mem_free(obj); /*Free the object itself*/
 1347              		.loc 1 380 0
 1348 0078 286A     		ldr	r0, [r5, #32]
 1349 007a 08B1     		cbz	r0, .L95
 380:..\lvgl\lv_core/lv_obj.c ****     lv_mem_free(obj); /*Free the object itself*/
 1350              		.loc 1 380 0 is_stmt 0 discriminator 1
 1351 007c FFF7FEFF 		bl	lv_mem_free
 1352              	.LVL159:
 1353              	.L95:
 381:..\lvgl\lv_core/lv_obj.c **** 
 1354              		.loc 1 381 0 is_stmt 1
 1355 0080 2846     		mov	r0, r5
 1356 0082 FFF7FEFF 		bl	lv_mem_free
 1357              	.LVL160:
 384:..\lvgl\lv_core/lv_obj.c ****         par->signal_func(par, LV_SIGNAL_CHILD_CHG, NULL);
 1358              		.loc 1 384 0
 1359 0086 26B1     		cbz	r6, .L96
 385:..\lvgl\lv_core/lv_obj.c ****     }
 1360              		.loc 1 385 0
 1361 0088 B369     		ldr	r3, [r6, #24]
 1362 008a 0022     		movs	r2, #0
 1363 008c 0121     		movs	r1, #1
 1364 008e 3046     		mov	r0, r6
 1365 0090 9847     		blx	r3
 1366              	.LVL161:
 1367              	.L96:
 389:..\lvgl\lv_core/lv_obj.c **** 
 1368              		.loc 1 389 0
 1369 0092 0020     		movs	r0, #0
 1370 0094 F8BD     		pop	{r3, r4, r5, r6, r7, pc}
 1371              	.LVL162:
 1372              	.L99:
 1373 0096 00BF     		.align	2
 1374              	.L98:
 1375 0098 00000000 		.word	_lv_scr_ll
 1376              		.cfi_endproc
 1377              	.LFE14:
 1378              		.size	lv_obj_del, .-lv_obj_del
 1379              		.section	.text.lv_obj_clean,"ax",%progbits
 1380              		.align	2
 1381              		.global	lv_obj_clean
 1382              		.thumb
ARM GAS  C:\Users\d3bug\AppData\Local\Temp\ccFiAZjI.s 			page 64


 1383              		.thumb_func
 1384              		.type	lv_obj_clean, %function
 1385              	lv_obj_clean:
 1386              	.LFB15:
 396:..\lvgl\lv_core/lv_obj.c ****     lv_obj_t * child = lv_obj_get_child(obj, NULL);
 1387              		.loc 1 396 0
 1388              		.cfi_startproc
 1389              		@ args = 0, pretend = 0, frame = 0
 1390              		@ frame_needed = 0, uses_anonymous_args = 0
 1391              	.LVL163:
 1392 0000 70B5     		push	{r4, r5, r6, lr}
 1393              		.cfi_def_cfa_offset 16
 1394              		.cfi_offset 4, -16
 1395              		.cfi_offset 5, -12
 1396              		.cfi_offset 6, -8
 1397              		.cfi_offset 14, -4
 1398 0002 0646     		mov	r6, r0
 397:..\lvgl\lv_core/lv_obj.c ****     lv_obj_t * child_next;
 1399              		.loc 1 397 0
 1400 0004 0021     		movs	r1, #0
 1401 0006 FFF7FEFF 		bl	lv_obj_get_child
 1402              	.LVL164:
 1403 000a 0446     		mov	r4, r0
 1404              	.LVL165:
 399:..\lvgl\lv_core/lv_obj.c ****         /* Read the next child before deleting the current
 1405              		.loc 1 399 0
 1406 000c 08E0     		b	.L101
 1407              	.LVL166:
 1408              	.L102:
 402:..\lvgl\lv_core/lv_obj.c ****         lv_obj_del(child);
 1409              		.loc 1 402 0
 1410 000e 2146     		mov	r1, r4
 1411 0010 3046     		mov	r0, r6
 1412 0012 FFF7FEFF 		bl	lv_obj_get_child
 1413              	.LVL167:
 1414 0016 0546     		mov	r5, r0
 1415              	.LVL168:
 403:..\lvgl\lv_core/lv_obj.c ****         child = child_next;
 1416              		.loc 1 403 0
 1417 0018 2046     		mov	r0, r4
 1418              	.LVL169:
 1419 001a FFF7FEFF 		bl	lv_obj_del
 1420              	.LVL170:
 404:..\lvgl\lv_core/lv_obj.c ****     }
 1421              		.loc 1 404 0
 1422 001e 2C46     		mov	r4, r5
 1423              	.LVL171:
 1424              	.L101:
 399:..\lvgl\lv_core/lv_obj.c ****         /* Read the next child before deleting the current
 1425              		.loc 1 399 0
 1426 0020 002C     		cmp	r4, #0
 1427 0022 F4D1     		bne	.L102
 406:..\lvgl\lv_core/lv_obj.c **** 
 1428              		.loc 1 406 0
 1429 0024 70BD     		pop	{r4, r5, r6, pc}
 1430              		.cfi_endproc
 1431              	.LFE15:
ARM GAS  C:\Users\d3bug\AppData\Local\Temp\ccFiAZjI.s 			page 65


 1432              		.size	lv_obj_clean, .-lv_obj_clean
 1433 0026 00BF     		.section	.text.lv_scr_load,"ax",%progbits
 1434              		.align	2
 1435              		.global	lv_scr_load
 1436              		.thumb
 1437              		.thumb_func
 1438              		.type	lv_scr_load, %function
 1439              	lv_scr_load:
 1440              	.LFB17:
 460:..\lvgl\lv_core/lv_obj.c ****     LV_GC_ROOT(_lv_act_scr) = scr;
 1441              		.loc 1 460 0
 1442              		.cfi_startproc
 1443              		@ args = 0, pretend = 0, frame = 0
 1444              		@ frame_needed = 0, uses_anonymous_args = 0
 1445              	.LVL172:
 1446 0000 08B5     		push	{r3, lr}
 1447              		.cfi_def_cfa_offset 8
 1448              		.cfi_offset 3, -8
 1449              		.cfi_offset 14, -4
 461:..\lvgl\lv_core/lv_obj.c **** 
 1450              		.loc 1 461 0
 1451 0002 024B     		ldr	r3, .L106
 1452 0004 1860     		str	r0, [r3]
 463:..\lvgl\lv_core/lv_obj.c **** }
 1453              		.loc 1 463 0
 1454 0006 FFF7FEFF 		bl	lv_obj_invalidate
 1455              	.LVL173:
 1456 000a 08BD     		pop	{r3, pc}
 1457              	.L107:
 1458              		.align	2
 1459              	.L106:
 1460 000c 00000000 		.word	_lv_act_scr
 1461              		.cfi_endproc
 1462              	.LFE17:
 1463              		.size	lv_scr_load, .-lv_scr_load
 1464              		.section	.text.lv_obj_set_pos,"ax",%progbits
 1465              		.align	2
 1466              		.global	lv_obj_set_pos
 1467              		.thumb
 1468              		.thumb_func
 1469              		.type	lv_obj_set_pos, %function
 1470              	lv_obj_set_pos:
 1471              	.LFB19:
 520:..\lvgl\lv_core/lv_obj.c ****     /*Convert x and y to absolute coordinates*/
 1472              		.loc 1 520 0
 1473              		.cfi_startproc
 1474              		@ args = 0, pretend = 0, frame = 8
 1475              		@ frame_needed = 0, uses_anonymous_args = 0
 1476              	.LVL174:
 1477 0000 2DE9F043 		push	{r4, r5, r6, r7, r8, r9, lr}
 1478              		.cfi_def_cfa_offset 28
 1479              		.cfi_offset 4, -28
 1480              		.cfi_offset 5, -24
 1481              		.cfi_offset 6, -20
 1482              		.cfi_offset 7, -16
 1483              		.cfi_offset 8, -12
 1484              		.cfi_offset 9, -8
ARM GAS  C:\Users\d3bug\AppData\Local\Temp\ccFiAZjI.s 			page 66


 1485              		.cfi_offset 14, -4
 1486 0004 83B0     		sub	sp, sp, #12
 1487              		.cfi_def_cfa_offset 40
 522:..\lvgl\lv_core/lv_obj.c ****     x = x + par->coords.x1;
 1488              		.loc 1 522 0
 1489 0006 0668     		ldr	r6, [r0]
 1490              	.LVL175:
 523:..\lvgl\lv_core/lv_obj.c ****     y = y + par->coords.y1;
 1491              		.loc 1 523 0
 1492 0008 B6F91070 		ldrsh	r7, [r6, #16]
 1493 000c 3944     		add	r1, r1, r7
 1494              	.LVL176:
 1495 000e 89B2     		uxth	r1, r1
 1496              	.LVL177:
 524:..\lvgl\lv_core/lv_obj.c **** 
 1497              		.loc 1 524 0
 1498 0010 B6F91240 		ldrsh	r4, [r6, #18]
 1499 0014 2244     		add	r2, r2, r4
 1500              	.LVL178:
 1501 0016 94B2     		uxth	r4, r2
 1502              	.LVL179:
 528:..\lvgl\lv_core/lv_obj.c ****     diff.y =  y - obj->coords.y1;
 1503              		.loc 1 528 0
 1504 0018 B0F91070 		ldrsh	r7, [r0, #16]
 1505 001c CF1B     		subs	r7, r1, r7
 1506 001e BFB2     		uxth	r7, r7
 1507 0020 0FFA87F8 		sxth	r8, r7
 529:..\lvgl\lv_core/lv_obj.c **** 
 1508              		.loc 1 529 0
 1509 0024 B0F91220 		ldrsh	r2, [r0, #18]
 1510 0028 A41A     		subs	r4, r4, r2
 1511              	.LVL180:
 1512 002a A4B2     		uxth	r4, r4
 1513 002c 0FFA84F9 		sxth	r9, r4
 534:..\lvgl\lv_core/lv_obj.c **** 
 1514              		.loc 1 534 0
 1515 0030 B8F1000F 		cmp	r8, #0
 1516 0034 02D1     		bne	.L109
 534:..\lvgl\lv_core/lv_obj.c **** 
 1517              		.loc 1 534 0 is_stmt 0 discriminator 1
 1518 0036 B9F1000F 		cmp	r9, #0
 1519 003a 24D0     		beq	.L108
 1520              	.L109:
 1521 003c 0546     		mov	r5, r0
 537:..\lvgl\lv_core/lv_obj.c **** 
 1522              		.loc 1 537 0 is_stmt 1
 1523 003e FFF7FEFF 		bl	lv_obj_invalidate
 1524              	.LVL181:
 541:..\lvgl\lv_core/lv_obj.c **** 
 1525              		.loc 1 541 0
 1526 0042 6946     		mov	r1, sp
 1527 0044 2846     		mov	r0, r5
 1528 0046 FFF7FEFF 		bl	lv_obj_get_coords
 1529              	.LVL182:
 543:..\lvgl\lv_core/lv_obj.c ****     obj->coords.y1 += diff.y;
 1530              		.loc 1 543 0
 1531 004a 2B8A     		ldrh	r3, [r5, #16]
ARM GAS  C:\Users\d3bug\AppData\Local\Temp\ccFiAZjI.s 			page 67


 1532 004c 3B44     		add	r3, r3, r7
 1533 004e 2B82     		strh	r3, [r5, #16]	@ movhi
 544:..\lvgl\lv_core/lv_obj.c ****     obj->coords.x2 += diff.x;
 1534              		.loc 1 544 0
 1535 0050 6B8A     		ldrh	r3, [r5, #18]
 1536 0052 2344     		add	r3, r3, r4
 1537 0054 6B82     		strh	r3, [r5, #18]	@ movhi
 545:..\lvgl\lv_core/lv_obj.c ****     obj->coords.y2 += diff.y;
 1538              		.loc 1 545 0
 1539 0056 AB8A     		ldrh	r3, [r5, #20]
 1540 0058 1F44     		add	r7, r7, r3
 1541 005a AF82     		strh	r7, [r5, #20]	@ movhi
 546:..\lvgl\lv_core/lv_obj.c **** 
 1542              		.loc 1 546 0
 1543 005c EB8A     		ldrh	r3, [r5, #22]
 1544 005e 1C44     		add	r4, r4, r3
 1545 0060 EC82     		strh	r4, [r5, #22]	@ movhi
 548:..\lvgl\lv_core/lv_obj.c **** 
 1546              		.loc 1 548 0
 1547 0062 4A46     		mov	r2, r9
 1548 0064 4146     		mov	r1, r8
 1549 0066 2846     		mov	r0, r5
 1550 0068 FFF7FEFF 		bl	refresh_childen_position
 1551              	.LVL183:
 551:..\lvgl\lv_core/lv_obj.c **** 
 1552              		.loc 1 551 0
 1553 006c AB69     		ldr	r3, [r5, #24]
 1554 006e 6A46     		mov	r2, sp
 1555 0070 0221     		movs	r1, #2
 1556 0072 2846     		mov	r0, r5
 1557 0074 9847     		blx	r3
 1558              	.LVL184:
 554:..\lvgl\lv_core/lv_obj.c **** 
 1559              		.loc 1 554 0
 1560 0076 B369     		ldr	r3, [r6, #24]
 1561 0078 2A46     		mov	r2, r5
 1562 007a 0121     		movs	r1, #1
 1563 007c 3046     		mov	r0, r6
 1564 007e 9847     		blx	r3
 1565              	.LVL185:
 557:..\lvgl\lv_core/lv_obj.c **** }
 1566              		.loc 1 557 0
 1567 0080 2846     		mov	r0, r5
 1568 0082 FFF7FEFF 		bl	lv_obj_invalidate
 1569              	.LVL186:
 1570              	.L108:
 558:..\lvgl\lv_core/lv_obj.c **** 
 1571              		.loc 1 558 0
 1572 0086 03B0     		add	sp, sp, #12
 1573              		.cfi_def_cfa_offset 28
 1574              		@ sp needed
 1575 0088 BDE8F083 		pop	{r4, r5, r6, r7, r8, r9, pc}
 1576              		.cfi_endproc
 1577              	.LFE19:
 1578              		.size	lv_obj_set_pos, .-lv_obj_set_pos
 1579              		.section	.text.lv_obj_set_x,"ax",%progbits
 1580              		.align	2
ARM GAS  C:\Users\d3bug\AppData\Local\Temp\ccFiAZjI.s 			page 68


 1581              		.global	lv_obj_set_x
 1582              		.thumb
 1583              		.thumb_func
 1584              		.type	lv_obj_set_x, %function
 1585              	lv_obj_set_x:
 1586              	.LFB20:
 567:..\lvgl\lv_core/lv_obj.c ****     lv_obj_set_pos(obj, x, lv_obj_get_y(obj));
 1587              		.loc 1 567 0
 1588              		.cfi_startproc
 1589              		@ args = 0, pretend = 0, frame = 0
 1590              		@ frame_needed = 0, uses_anonymous_args = 0
 1591              	.LVL187:
 1592 0000 38B5     		push	{r3, r4, r5, lr}
 1593              		.cfi_def_cfa_offset 16
 1594              		.cfi_offset 3, -16
 1595              		.cfi_offset 4, -12
 1596              		.cfi_offset 5, -8
 1597              		.cfi_offset 14, -4
 1598 0002 0446     		mov	r4, r0
 1599 0004 0D46     		mov	r5, r1
 568:..\lvgl\lv_core/lv_obj.c **** }
 1600              		.loc 1 568 0
 1601 0006 FFF7FEFF 		bl	lv_obj_get_y
 1602              	.LVL188:
 1603 000a 0246     		mov	r2, r0
 1604 000c 2946     		mov	r1, r5
 1605 000e 2046     		mov	r0, r4
 1606 0010 FFF7FEFF 		bl	lv_obj_set_pos
 1607              	.LVL189:
 1608 0014 38BD     		pop	{r3, r4, r5, pc}
 1609              		.cfi_endproc
 1610              	.LFE20:
 1611              		.size	lv_obj_set_x, .-lv_obj_set_x
 1612 0016 00BF     		.section	.text.lv_obj_set_y,"ax",%progbits
 1613              		.align	2
 1614              		.global	lv_obj_set_y
 1615              		.thumb
 1616              		.thumb_func
 1617              		.type	lv_obj_set_y, %function
 1618              	lv_obj_set_y:
 1619              	.LFB21:
 578:..\lvgl\lv_core/lv_obj.c ****     lv_obj_set_pos(obj, lv_obj_get_x(obj), y);
 1620              		.loc 1 578 0
 1621              		.cfi_startproc
 1622              		@ args = 0, pretend = 0, frame = 0
 1623              		@ frame_needed = 0, uses_anonymous_args = 0
 1624              	.LVL190:
 1625 0000 38B5     		push	{r3, r4, r5, lr}
 1626              		.cfi_def_cfa_offset 16
 1627              		.cfi_offset 3, -16
 1628              		.cfi_offset 4, -12
 1629              		.cfi_offset 5, -8
 1630              		.cfi_offset 14, -4
 1631 0002 0446     		mov	r4, r0
 1632 0004 0D46     		mov	r5, r1
 579:..\lvgl\lv_core/lv_obj.c **** }
 1633              		.loc 1 579 0
ARM GAS  C:\Users\d3bug\AppData\Local\Temp\ccFiAZjI.s 			page 69


 1634 0006 FFF7FEFF 		bl	lv_obj_get_x
 1635              	.LVL191:
 1636 000a 2A46     		mov	r2, r5
 1637 000c 0146     		mov	r1, r0
 1638 000e 2046     		mov	r0, r4
 1639 0010 FFF7FEFF 		bl	lv_obj_set_pos
 1640              	.LVL192:
 1641 0014 38BD     		pop	{r3, r4, r5, pc}
 1642              		.cfi_endproc
 1643              	.LFE21:
 1644              		.size	lv_obj_set_y, .-lv_obj_set_y
 1645 0016 00BF     		.section	.text.lv_obj_align,"ax",%progbits
 1646              		.align	2
 1647              		.global	lv_obj_align
 1648              		.thumb
 1649              		.thumb_func
 1650              		.type	lv_obj_align, %function
 1651              	lv_obj_align:
 1652              	.LFB25:
 655:..\lvgl\lv_core/lv_obj.c ****     lv_coord_t new_x = lv_obj_get_x(obj);
 1653              		.loc 1 655 0
 1654              		.cfi_startproc
 1655              		@ args = 4, pretend = 0, frame = 0
 1656              		@ frame_needed = 0, uses_anonymous_args = 0
 1657              	.LVL193:
 1658 0000 2DE9F047 		push	{r4, r5, r6, r7, r8, r9, r10, lr}
 1659              		.cfi_def_cfa_offset 32
 1660              		.cfi_offset 4, -32
 1661              		.cfi_offset 5, -28
 1662              		.cfi_offset 6, -24
 1663              		.cfi_offset 7, -20
 1664              		.cfi_offset 8, -16
 1665              		.cfi_offset 9, -12
 1666              		.cfi_offset 10, -8
 1667              		.cfi_offset 14, -4
 1668 0004 0646     		mov	r6, r0
 1669 0006 0F46     		mov	r7, r1
 1670 0008 9046     		mov	r8, r2
 1671 000a 9A46     		mov	r10, r3
 1672 000c BDF92090 		ldrsh	r9, [sp, #32]
 656:..\lvgl\lv_core/lv_obj.c ****     lv_coord_t new_y = lv_obj_get_y(obj);
 1673              		.loc 1 656 0
 1674 0010 FFF7FEFF 		bl	lv_obj_get_x
 1675              	.LVL194:
 1676 0014 0546     		mov	r5, r0
 1677              	.LVL195:
 657:..\lvgl\lv_core/lv_obj.c **** 
 1678              		.loc 1 657 0
 1679 0016 3046     		mov	r0, r6
 1680 0018 FFF7FEFF 		bl	lv_obj_get_y
 1681              	.LVL196:
 1682 001c 0446     		mov	r4, r0
 1683              	.LVL197:
 659:..\lvgl\lv_core/lv_obj.c ****         base = lv_obj_get_parent(obj);
 1684              		.loc 1 659 0
 1685 001e 1FB9     		cbnz	r7, .L118
 660:..\lvgl\lv_core/lv_obj.c ****     }
ARM GAS  C:\Users\d3bug\AppData\Local\Temp\ccFiAZjI.s 			page 70


 1686              		.loc 1 660 0
 1687 0020 3046     		mov	r0, r6
 1688 0022 FFF7FEFF 		bl	lv_obj_get_parent
 1689              	.LVL198:
 1690 0026 0746     		mov	r7, r0
 1691              	.LVL199:
 1692              	.L118:
 663:..\lvgl\lv_core/lv_obj.c ****         case LV_ALIGN_CENTER:
 1693              		.loc 1 663 0
 1694 0028 B8F1140F 		cmp	r8, #20
 1695 002c 00F25B81 		bhi	.L122
 1696 0030 DFE818F0 		tbh	[pc, r8, lsl #1]
 1697              	.L121:
 1698 0034 1500     		.2byte	(.L120-.L121)/2
 1699 0036 5701     		.2byte	(.L142-.L121)/2
 1700 0038 3400     		.2byte	(.L123-.L121)/2
 1701 003a 4500     		.2byte	(.L124-.L121)/2
 1702 003c 5000     		.2byte	(.L125-.L121)/2
 1703 003e 5B00     		.2byte	(.L126-.L121)/2
 1704 0040 7400     		.2byte	(.L127-.L121)/2
 1705 0042 8700     		.2byte	(.L128-.L121)/2
 1706 0044 9800     		.2byte	(.L129-.L121)/2
 1707 0046 B100     		.2byte	(.L130-.L121)/2
 1708 0048 B800     		.2byte	(.L131-.L121)/2
 1709 004a CD00     		.2byte	(.L132-.L121)/2
 1710 004c DC00     		.2byte	(.L133-.L121)/2
 1711 004e E200     		.2byte	(.L134-.L121)/2
 1712 0050 F600     		.2byte	(.L135-.L121)/2
 1713 0052 0401     		.2byte	(.L136-.L121)/2
 1714 0054 0B01     		.2byte	(.L137-.L121)/2
 1715 0056 2001     		.2byte	(.L138-.L121)/2
 1716 0058 2F01     		.2byte	(.L139-.L121)/2
 1717 005a 3501     		.2byte	(.L140-.L121)/2
 1718 005c 4901     		.2byte	(.L141-.L121)/2
 1719              		.p2align 1
 1720              	.L120:
 665:..\lvgl\lv_core/lv_obj.c ****             new_y = lv_obj_get_height(base) / 2 - lv_obj_get_height(obj) / 2;
 1721              		.loc 1 665 0
 1722 005e 3846     		mov	r0, r7
 1723 0060 FFF7FEFF 		bl	lv_obj_get_width
 1724              	.LVL200:
 1725 0064 0546     		mov	r5, r0
 1726              	.LVL201:
 1727 0066 3046     		mov	r0, r6
 1728 0068 FFF7FEFF 		bl	lv_obj_get_width
 1729              	.LVL202:
 1730 006c 05EBD575 		add	r5, r5, r5, lsr #31
 1731 0070 00EBD070 		add	r0, r0, r0, lsr #31
 1732 0074 4010     		asrs	r0, r0, #1
 1733 0076 C0EB6500 		rsb	r0, r0, r5, asr #1
 1734 007a 05B2     		sxth	r5, r0
 1735              	.LVL203:
 666:..\lvgl\lv_core/lv_obj.c ****             break;
 1736              		.loc 1 666 0
 1737 007c 3846     		mov	r0, r7
 1738 007e FFF7FEFF 		bl	lv_obj_get_height
 1739              	.LVL204:
ARM GAS  C:\Users\d3bug\AppData\Local\Temp\ccFiAZjI.s 			page 71


 1740 0082 0446     		mov	r4, r0
 1741              	.LVL205:
 1742 0084 3046     		mov	r0, r6
 1743 0086 FFF7FEFF 		bl	lv_obj_get_height
 1744              	.LVL206:
 1745 008a 04EBD474 		add	r4, r4, r4, lsr #31
 1746 008e 00EBD070 		add	r0, r0, r0, lsr #31
 1747 0092 4010     		asrs	r0, r0, #1
 1748 0094 C0EB6400 		rsb	r0, r0, r4, asr #1
 1749 0098 04B2     		sxth	r4, r0
 1750              	.LVL207:
 667:..\lvgl\lv_core/lv_obj.c **** 
 1751              		.loc 1 667 0
 1752 009a 24E1     		b	.L122
 1753              	.L123:
 674:..\lvgl\lv_core/lv_obj.c ****             new_y = 0;
 1754              		.loc 1 674 0
 1755 009c 3846     		mov	r0, r7
 1756 009e FFF7FEFF 		bl	lv_obj_get_width
 1757              	.LVL208:
 1758 00a2 0546     		mov	r5, r0
 1759              	.LVL209:
 1760 00a4 3046     		mov	r0, r6
 1761 00a6 FFF7FEFF 		bl	lv_obj_get_width
 1762              	.LVL210:
 1763 00aa 05EBD575 		add	r5, r5, r5, lsr #31
 1764 00ae 00EBD070 		add	r0, r0, r0, lsr #31
 1765 00b2 4010     		asrs	r0, r0, #1
 1766 00b4 C0EB6500 		rsb	r0, r0, r5, asr #1
 1767 00b8 05B2     		sxth	r5, r0
 1768              	.LVL211:
 675:..\lvgl\lv_core/lv_obj.c ****             break;
 1769              		.loc 1 675 0
 1770 00ba 0024     		movs	r4, #0
 676:..\lvgl\lv_core/lv_obj.c **** 
 1771              		.loc 1 676 0
 1772 00bc 13E1     		b	.L122
 1773              	.LVL212:
 1774              	.L124:
 679:..\lvgl\lv_core/lv_obj.c ****             new_y = 0;
 1775              		.loc 1 679 0
 1776 00be 3846     		mov	r0, r7
 1777 00c0 FFF7FEFF 		bl	lv_obj_get_width
 1778              	.LVL213:
 1779 00c4 0546     		mov	r5, r0
 1780              	.LVL214:
 1781 00c6 3046     		mov	r0, r6
 1782 00c8 FFF7FEFF 		bl	lv_obj_get_width
 1783              	.LVL215:
 1784 00cc 281A     		subs	r0, r5, r0
 1785 00ce 05B2     		sxth	r5, r0
 1786              	.LVL216:
 680:..\lvgl\lv_core/lv_obj.c ****             break;
 1787              		.loc 1 680 0
 1788 00d0 0024     		movs	r4, #0
 681:..\lvgl\lv_core/lv_obj.c **** 
 1789              		.loc 1 681 0
ARM GAS  C:\Users\d3bug\AppData\Local\Temp\ccFiAZjI.s 			page 72


 1790 00d2 08E1     		b	.L122
 1791              	.LVL217:
 1792              	.L125:
 685:..\lvgl\lv_core/lv_obj.c ****             break;
 1793              		.loc 1 685 0
 1794 00d4 3846     		mov	r0, r7
 1795 00d6 FFF7FEFF 		bl	lv_obj_get_height
 1796              	.LVL218:
 1797 00da 0446     		mov	r4, r0
 1798              	.LVL219:
 1799 00dc 3046     		mov	r0, r6
 1800 00de FFF7FEFF 		bl	lv_obj_get_height
 1801              	.LVL220:
 1802 00e2 201A     		subs	r0, r4, r0
 1803 00e4 04B2     		sxth	r4, r0
 1804              	.LVL221:
 684:..\lvgl\lv_core/lv_obj.c ****             new_y = lv_obj_get_height(base) - lv_obj_get_height(obj);
 1805              		.loc 1 684 0
 1806 00e6 0025     		movs	r5, #0
 686:..\lvgl\lv_core/lv_obj.c ****         case LV_ALIGN_IN_BOTTOM_MID:
 1807              		.loc 1 686 0
 1808 00e8 FDE0     		b	.L122
 1809              	.LVL222:
 1810              	.L126:
 688:..\lvgl\lv_core/lv_obj.c ****             new_y = lv_obj_get_height(base) - lv_obj_get_height(obj);
 1811              		.loc 1 688 0
 1812 00ea 3846     		mov	r0, r7
 1813 00ec FFF7FEFF 		bl	lv_obj_get_width
 1814              	.LVL223:
 1815 00f0 0546     		mov	r5, r0
 1816              	.LVL224:
 1817 00f2 3046     		mov	r0, r6
 1818 00f4 FFF7FEFF 		bl	lv_obj_get_width
 1819              	.LVL225:
 1820 00f8 05EBD575 		add	r5, r5, r5, lsr #31
 1821 00fc 00EBD070 		add	r0, r0, r0, lsr #31
 1822 0100 4010     		asrs	r0, r0, #1
 1823 0102 C0EB6500 		rsb	r0, r0, r5, asr #1
 1824 0106 05B2     		sxth	r5, r0
 1825              	.LVL226:
 689:..\lvgl\lv_core/lv_obj.c ****             break;
 1826              		.loc 1 689 0
 1827 0108 3846     		mov	r0, r7
 1828 010a FFF7FEFF 		bl	lv_obj_get_height
 1829              	.LVL227:
 1830 010e 0446     		mov	r4, r0
 1831              	.LVL228:
 1832 0110 3046     		mov	r0, r6
 1833 0112 FFF7FEFF 		bl	lv_obj_get_height
 1834              	.LVL229:
 1835 0116 201A     		subs	r0, r4, r0
 1836 0118 04B2     		sxth	r4, r0
 1837              	.LVL230:
 690:..\lvgl\lv_core/lv_obj.c **** 
 1838              		.loc 1 690 0
 1839 011a E4E0     		b	.L122
 1840              	.L127:
ARM GAS  C:\Users\d3bug\AppData\Local\Temp\ccFiAZjI.s 			page 73


 693:..\lvgl\lv_core/lv_obj.c ****             new_y = lv_obj_get_height(base) - lv_obj_get_height(obj);
 1841              		.loc 1 693 0
 1842 011c 3846     		mov	r0, r7
 1843 011e FFF7FEFF 		bl	lv_obj_get_width
 1844              	.LVL231:
 1845 0122 0546     		mov	r5, r0
 1846              	.LVL232:
 1847 0124 3046     		mov	r0, r6
 1848 0126 FFF7FEFF 		bl	lv_obj_get_width
 1849              	.LVL233:
 1850 012a 281A     		subs	r0, r5, r0
 1851 012c 05B2     		sxth	r5, r0
 1852              	.LVL234:
 694:..\lvgl\lv_core/lv_obj.c ****             break;
 1853              		.loc 1 694 0
 1854 012e 3846     		mov	r0, r7
 1855 0130 FFF7FEFF 		bl	lv_obj_get_height
 1856              	.LVL235:
 1857 0134 0446     		mov	r4, r0
 1858              	.LVL236:
 1859 0136 3046     		mov	r0, r6
 1860 0138 FFF7FEFF 		bl	lv_obj_get_height
 1861              	.LVL237:
 1862 013c 201A     		subs	r0, r4, r0
 1863 013e 04B2     		sxth	r4, r0
 1864              	.LVL238:
 695:..\lvgl\lv_core/lv_obj.c **** 
 1865              		.loc 1 695 0
 1866 0140 D1E0     		b	.L122
 1867              	.L128:
 1868              	.LVL239:
 699:..\lvgl\lv_core/lv_obj.c ****             break;
 1869              		.loc 1 699 0
 1870 0142 3846     		mov	r0, r7
 1871 0144 FFF7FEFF 		bl	lv_obj_get_height
 1872              	.LVL240:
 1873 0148 0446     		mov	r4, r0
 1874              	.LVL241:
 1875 014a 3046     		mov	r0, r6
 1876 014c FFF7FEFF 		bl	lv_obj_get_height
 1877              	.LVL242:
 1878 0150 04EBD474 		add	r4, r4, r4, lsr #31
 1879 0154 00EBD070 		add	r0, r0, r0, lsr #31
 1880 0158 4010     		asrs	r0, r0, #1
 1881 015a C0EB6400 		rsb	r0, r0, r4, asr #1
 1882 015e 04B2     		sxth	r4, r0
 1883              	.LVL243:
 698:..\lvgl\lv_core/lv_obj.c ****             new_y = lv_obj_get_height(base) / 2 - lv_obj_get_height(obj) / 2;
 1884              		.loc 1 698 0
 1885 0160 0025     		movs	r5, #0
 700:..\lvgl\lv_core/lv_obj.c **** 
 1886              		.loc 1 700 0
 1887 0162 C0E0     		b	.L122
 1888              	.LVL244:
 1889              	.L129:
 703:..\lvgl\lv_core/lv_obj.c ****             new_y = lv_obj_get_height(base) / 2 - lv_obj_get_height(obj) / 2;
 1890              		.loc 1 703 0
ARM GAS  C:\Users\d3bug\AppData\Local\Temp\ccFiAZjI.s 			page 74


 1891 0164 3846     		mov	r0, r7
 1892 0166 FFF7FEFF 		bl	lv_obj_get_width
 1893              	.LVL245:
 1894 016a 0546     		mov	r5, r0
 1895              	.LVL246:
 1896 016c 3046     		mov	r0, r6
 1897 016e FFF7FEFF 		bl	lv_obj_get_width
 1898              	.LVL247:
 1899 0172 281A     		subs	r0, r5, r0
 1900 0174 05B2     		sxth	r5, r0
 1901              	.LVL248:
 704:..\lvgl\lv_core/lv_obj.c ****             break;
 1902              		.loc 1 704 0
 1903 0176 3846     		mov	r0, r7
 1904 0178 FFF7FEFF 		bl	lv_obj_get_height
 1905              	.LVL249:
 1906 017c 0446     		mov	r4, r0
 1907              	.LVL250:
 1908 017e 3046     		mov	r0, r6
 1909 0180 FFF7FEFF 		bl	lv_obj_get_height
 1910              	.LVL251:
 1911 0184 04EBD474 		add	r4, r4, r4, lsr #31
 1912 0188 00EBD070 		add	r0, r0, r0, lsr #31
 1913 018c 4010     		asrs	r0, r0, #1
 1914 018e C0EB6400 		rsb	r0, r0, r4, asr #1
 1915 0192 04B2     		sxth	r4, r0
 1916              	.LVL252:
 705:..\lvgl\lv_core/lv_obj.c **** 
 1917              		.loc 1 705 0
 1918 0194 A7E0     		b	.L122
 1919              	.L130:
 1920              	.LVL253:
 709:..\lvgl\lv_core/lv_obj.c ****             break;
 1921              		.loc 1 709 0
 1922 0196 3046     		mov	r0, r6
 1923 0198 FFF7FEFF 		bl	lv_obj_get_height
 1924              	.LVL254:
 1925 019c 4042     		negs	r0, r0
 1926 019e 04B2     		sxth	r4, r0
 1927              	.LVL255:
 708:..\lvgl\lv_core/lv_obj.c ****             new_y = -lv_obj_get_height(obj);
 1928              		.loc 1 708 0
 1929 01a0 0025     		movs	r5, #0
 710:..\lvgl\lv_core/lv_obj.c **** 
 1930              		.loc 1 710 0
 1931 01a2 A0E0     		b	.L122
 1932              	.LVL256:
 1933              	.L131:
 713:..\lvgl\lv_core/lv_obj.c ****             new_y = - lv_obj_get_height(obj);
 1934              		.loc 1 713 0
 1935 01a4 3846     		mov	r0, r7
 1936 01a6 FFF7FEFF 		bl	lv_obj_get_width
 1937              	.LVL257:
 1938 01aa 0546     		mov	r5, r0
 1939              	.LVL258:
 1940 01ac 3046     		mov	r0, r6
 1941 01ae FFF7FEFF 		bl	lv_obj_get_width
ARM GAS  C:\Users\d3bug\AppData\Local\Temp\ccFiAZjI.s 			page 75


 1942              	.LVL259:
 1943 01b2 05EBD575 		add	r5, r5, r5, lsr #31
 1944 01b6 00EBD070 		add	r0, r0, r0, lsr #31
 1945 01ba 4010     		asrs	r0, r0, #1
 1946 01bc C0EB6500 		rsb	r0, r0, r5, asr #1
 1947 01c0 05B2     		sxth	r5, r0
 1948              	.LVL260:
 714:..\lvgl\lv_core/lv_obj.c ****             break;
 1949              		.loc 1 714 0
 1950 01c2 3046     		mov	r0, r6
 1951 01c4 FFF7FEFF 		bl	lv_obj_get_height
 1952              	.LVL261:
 1953 01c8 4042     		negs	r0, r0
 1954 01ca 04B2     		sxth	r4, r0
 1955              	.LVL262:
 715:..\lvgl\lv_core/lv_obj.c **** 
 1956              		.loc 1 715 0
 1957 01cc 8BE0     		b	.L122
 1958              	.L132:
 718:..\lvgl\lv_core/lv_obj.c ****             new_y = - lv_obj_get_height(obj);
 1959              		.loc 1 718 0
 1960 01ce 3846     		mov	r0, r7
 1961 01d0 FFF7FEFF 		bl	lv_obj_get_width
 1962              	.LVL263:
 1963 01d4 0546     		mov	r5, r0
 1964              	.LVL264:
 1965 01d6 3046     		mov	r0, r6
 1966 01d8 FFF7FEFF 		bl	lv_obj_get_width
 1967              	.LVL265:
 1968 01dc 281A     		subs	r0, r5, r0
 1969 01de 05B2     		sxth	r5, r0
 1970              	.LVL266:
 719:..\lvgl\lv_core/lv_obj.c ****             break;
 1971              		.loc 1 719 0
 1972 01e0 3046     		mov	r0, r6
 1973 01e2 FFF7FEFF 		bl	lv_obj_get_height
 1974              	.LVL267:
 1975 01e6 4042     		negs	r0, r0
 1976 01e8 04B2     		sxth	r4, r0
 1977              	.LVL268:
 720:..\lvgl\lv_core/lv_obj.c **** 
 1978              		.loc 1 720 0
 1979 01ea 7CE0     		b	.L122
 1980              	.L133:
 1981              	.LVL269:
 724:..\lvgl\lv_core/lv_obj.c ****             break;
 1982              		.loc 1 724 0
 1983 01ec 3846     		mov	r0, r7
 1984 01ee FFF7FEFF 		bl	lv_obj_get_height
 1985              	.LVL270:
 1986 01f2 0446     		mov	r4, r0
 1987              	.LVL271:
 723:..\lvgl\lv_core/lv_obj.c ****             new_y = lv_obj_get_height(base);
 1988              		.loc 1 723 0
 1989 01f4 0025     		movs	r5, #0
 725:..\lvgl\lv_core/lv_obj.c **** 
 1990              		.loc 1 725 0
ARM GAS  C:\Users\d3bug\AppData\Local\Temp\ccFiAZjI.s 			page 76


 1991 01f6 76E0     		b	.L122
 1992              	.LVL272:
 1993              	.L134:
 728:..\lvgl\lv_core/lv_obj.c ****             new_y = lv_obj_get_height(base);
 1994              		.loc 1 728 0
 1995 01f8 3846     		mov	r0, r7
 1996 01fa FFF7FEFF 		bl	lv_obj_get_width
 1997              	.LVL273:
 1998 01fe 0546     		mov	r5, r0
 1999              	.LVL274:
 2000 0200 3046     		mov	r0, r6
 2001 0202 FFF7FEFF 		bl	lv_obj_get_width
 2002              	.LVL275:
 2003 0206 05EBD575 		add	r5, r5, r5, lsr #31
 2004 020a 00EBD070 		add	r0, r0, r0, lsr #31
 2005 020e 4010     		asrs	r0, r0, #1
 2006 0210 C0EB6500 		rsb	r0, r0, r5, asr #1
 2007 0214 05B2     		sxth	r5, r0
 2008              	.LVL276:
 729:..\lvgl\lv_core/lv_obj.c ****             break;
 2009              		.loc 1 729 0
 2010 0216 3846     		mov	r0, r7
 2011 0218 FFF7FEFF 		bl	lv_obj_get_height
 2012              	.LVL277:
 2013 021c 0446     		mov	r4, r0
 2014              	.LVL278:
 730:..\lvgl\lv_core/lv_obj.c **** 
 2015              		.loc 1 730 0
 2016 021e 62E0     		b	.L122
 2017              	.L135:
 733:..\lvgl\lv_core/lv_obj.c ****             new_y = lv_obj_get_height(base);
 2018              		.loc 1 733 0
 2019 0220 3846     		mov	r0, r7
 2020 0222 FFF7FEFF 		bl	lv_obj_get_width
 2021              	.LVL279:
 2022 0226 0546     		mov	r5, r0
 2023              	.LVL280:
 2024 0228 3046     		mov	r0, r6
 2025 022a FFF7FEFF 		bl	lv_obj_get_width
 2026              	.LVL281:
 2027 022e 281A     		subs	r0, r5, r0
 2028 0230 05B2     		sxth	r5, r0
 2029              	.LVL282:
 734:..\lvgl\lv_core/lv_obj.c ****             break;
 2030              		.loc 1 734 0
 2031 0232 3846     		mov	r0, r7
 2032 0234 FFF7FEFF 		bl	lv_obj_get_height
 2033              	.LVL283:
 2034 0238 0446     		mov	r4, r0
 2035              	.LVL284:
 735:..\lvgl\lv_core/lv_obj.c **** 
 2036              		.loc 1 735 0
 2037 023a 54E0     		b	.L122
 2038              	.L136:
 738:..\lvgl\lv_core/lv_obj.c ****             new_y = 0;
 2039              		.loc 1 738 0
 2040 023c 3046     		mov	r0, r6
ARM GAS  C:\Users\d3bug\AppData\Local\Temp\ccFiAZjI.s 			page 77


 2041 023e FFF7FEFF 		bl	lv_obj_get_width
 2042              	.LVL285:
 2043 0242 4042     		negs	r0, r0
 2044 0244 05B2     		sxth	r5, r0
 2045              	.LVL286:
 739:..\lvgl\lv_core/lv_obj.c ****             break;
 2046              		.loc 1 739 0
 2047 0246 0024     		movs	r4, #0
 740:..\lvgl\lv_core/lv_obj.c **** 
 2048              		.loc 1 740 0
 2049 0248 4DE0     		b	.L122
 2050              	.LVL287:
 2051              	.L137:
 743:..\lvgl\lv_core/lv_obj.c ****             new_y = lv_obj_get_height(base) / 2 - lv_obj_get_height(obj) / 2;
 2052              		.loc 1 743 0
 2053 024a 3046     		mov	r0, r6
 2054 024c FFF7FEFF 		bl	lv_obj_get_width
 2055              	.LVL288:
 2056 0250 4042     		negs	r0, r0
 2057 0252 05B2     		sxth	r5, r0
 2058              	.LVL289:
 744:..\lvgl\lv_core/lv_obj.c ****             break;
 2059              		.loc 1 744 0
 2060 0254 3846     		mov	r0, r7
 2061 0256 FFF7FEFF 		bl	lv_obj_get_height
 2062              	.LVL290:
 2063 025a 0446     		mov	r4, r0
 2064              	.LVL291:
 2065 025c 3046     		mov	r0, r6
 2066 025e FFF7FEFF 		bl	lv_obj_get_height
 2067              	.LVL292:
 2068 0262 04EBD474 		add	r4, r4, r4, lsr #31
 2069 0266 00EBD070 		add	r0, r0, r0, lsr #31
 2070 026a 4010     		asrs	r0, r0, #1
 2071 026c C0EB6400 		rsb	r0, r0, r4, asr #1
 2072 0270 04B2     		sxth	r4, r0
 2073              	.LVL293:
 745:..\lvgl\lv_core/lv_obj.c **** 
 2074              		.loc 1 745 0
 2075 0272 38E0     		b	.L122
 2076              	.L138:
 748:..\lvgl\lv_core/lv_obj.c ****             new_y = lv_obj_get_height(base) - lv_obj_get_height(obj);
 2077              		.loc 1 748 0
 2078 0274 3046     		mov	r0, r6
 2079 0276 FFF7FEFF 		bl	lv_obj_get_width
 2080              	.LVL294:
 2081 027a 4042     		negs	r0, r0
 2082 027c 05B2     		sxth	r5, r0
 2083              	.LVL295:
 749:..\lvgl\lv_core/lv_obj.c ****             break;
 2084              		.loc 1 749 0
 2085 027e 3846     		mov	r0, r7
 2086 0280 FFF7FEFF 		bl	lv_obj_get_height
 2087              	.LVL296:
 2088 0284 0446     		mov	r4, r0
 2089              	.LVL297:
 2090 0286 3046     		mov	r0, r6
ARM GAS  C:\Users\d3bug\AppData\Local\Temp\ccFiAZjI.s 			page 78


 2091 0288 FFF7FEFF 		bl	lv_obj_get_height
 2092              	.LVL298:
 2093 028c 201A     		subs	r0, r4, r0
 2094 028e 04B2     		sxth	r4, r0
 2095              	.LVL299:
 750:..\lvgl\lv_core/lv_obj.c **** 
 2096              		.loc 1 750 0
 2097 0290 29E0     		b	.L122
 2098              	.L139:
 753:..\lvgl\lv_core/lv_obj.c ****             new_y = 0;
 2099              		.loc 1 753 0
 2100 0292 3846     		mov	r0, r7
 2101 0294 FFF7FEFF 		bl	lv_obj_get_width
 2102              	.LVL300:
 2103 0298 0546     		mov	r5, r0
 2104              	.LVL301:
 754:..\lvgl\lv_core/lv_obj.c ****             break;
 2105              		.loc 1 754 0
 2106 029a 0024     		movs	r4, #0
 755:..\lvgl\lv_core/lv_obj.c **** 
 2107              		.loc 1 755 0
 2108 029c 23E0     		b	.L122
 2109              	.LVL302:
 2110              	.L140:
 758:..\lvgl\lv_core/lv_obj.c ****             new_y = lv_obj_get_height(base) / 2 - lv_obj_get_height(obj) / 2;
 2111              		.loc 1 758 0
 2112 029e 3846     		mov	r0, r7
 2113 02a0 FFF7FEFF 		bl	lv_obj_get_width
 2114              	.LVL303:
 2115 02a4 0546     		mov	r5, r0
 2116              	.LVL304:
 759:..\lvgl\lv_core/lv_obj.c ****             break;
 2117              		.loc 1 759 0
 2118 02a6 3846     		mov	r0, r7
 2119 02a8 FFF7FEFF 		bl	lv_obj_get_height
 2120              	.LVL305:
 2121 02ac 0446     		mov	r4, r0
 2122              	.LVL306:
 2123 02ae 3046     		mov	r0, r6
 2124 02b0 FFF7FEFF 		bl	lv_obj_get_height
 2125              	.LVL307:
 2126 02b4 04EBD474 		add	r4, r4, r4, lsr #31
 2127 02b8 00EBD070 		add	r0, r0, r0, lsr #31
 2128 02bc 4010     		asrs	r0, r0, #1
 2129 02be C0EB6400 		rsb	r0, r0, r4, asr #1
 2130 02c2 04B2     		sxth	r4, r0
 2131              	.LVL308:
 760:..\lvgl\lv_core/lv_obj.c **** 
 2132              		.loc 1 760 0
 2133 02c4 0FE0     		b	.L122
 2134              	.L141:
 763:..\lvgl\lv_core/lv_obj.c ****             new_y = lv_obj_get_height(base) - lv_obj_get_height(obj);
 2135              		.loc 1 763 0
 2136 02c6 3846     		mov	r0, r7
 2137 02c8 FFF7FEFF 		bl	lv_obj_get_width
 2138              	.LVL309:
 2139 02cc 0546     		mov	r5, r0
ARM GAS  C:\Users\d3bug\AppData\Local\Temp\ccFiAZjI.s 			page 79


 2140              	.LVL310:
 764:..\lvgl\lv_core/lv_obj.c ****             break;
 2141              		.loc 1 764 0
 2142 02ce 3846     		mov	r0, r7
 2143 02d0 FFF7FEFF 		bl	lv_obj_get_height
 2144              	.LVL311:
 2145 02d4 0446     		mov	r4, r0
 2146              	.LVL312:
 2147 02d6 3046     		mov	r0, r6
 2148 02d8 FFF7FEFF 		bl	lv_obj_get_height
 2149              	.LVL313:
 2150 02dc 201A     		subs	r0, r4, r0
 2151 02de 04B2     		sxth	r4, r0
 2152              	.LVL314:
 765:..\lvgl\lv_core/lv_obj.c ****     }
 2153              		.loc 1 765 0
 2154 02e0 01E0     		b	.L122
 2155              	.L142:
 671:..\lvgl\lv_core/lv_obj.c ****             break;
 2156              		.loc 1 671 0
 2157 02e2 0024     		movs	r4, #0
 2158              	.LVL315:
 670:..\lvgl\lv_core/lv_obj.c ****             new_y = 0;
 2159              		.loc 1 670 0
 2160 02e4 2546     		mov	r5, r4
 2161              	.LVL316:
 2162              	.L122:
 769:..\lvgl\lv_core/lv_obj.c ****     lv_coord_t base_abs_x = base->coords.x1;
 2163              		.loc 1 769 0
 2164 02e6 3046     		mov	r0, r6
 2165 02e8 FFF7FEFF 		bl	lv_obj_get_parent
 2166              	.LVL317:
 770:..\lvgl\lv_core/lv_obj.c ****     lv_coord_t base_abs_y = base->coords.y1;
 2167              		.loc 1 770 0
 2168 02ec B7F910E0 		ldrsh	lr, [r7, #16]
 2169              	.LVL318:
 771:..\lvgl\lv_core/lv_obj.c ****     lv_coord_t par_abs_x = par->coords.x1;
 2170              		.loc 1 771 0
 2171 02f0 B7F91230 		ldrsh	r3, [r7, #18]
 2172              	.LVL319:
 772:..\lvgl\lv_core/lv_obj.c ****     lv_coord_t par_abs_y = par->coords.y1;
 2173              		.loc 1 772 0
 2174 02f4 B0F91010 		ldrsh	r1, [r0, #16]
 2175              	.LVL320:
 773:..\lvgl\lv_core/lv_obj.c ****     new_x += x_mod + base_abs_x;
 2176              		.loc 1 773 0
 2177 02f8 B0F91220 		ldrsh	r2, [r0, #18]
 2178              	.LVL321:
 774:..\lvgl\lv_core/lv_obj.c ****     new_y += y_mod + base_abs_y;
 2179              		.loc 1 774 0
 2180 02fc 0AEB0E00 		add	r0, r10, lr
 2181              	.LVL322:
 2182 0300 2844     		add	r0, r0, r5
 2183 0302 85B2     		uxth	r5, r0
 2184              	.LVL323:
 775:..\lvgl\lv_core/lv_obj.c ****     new_x -= par_abs_x;
 2185              		.loc 1 775 0
ARM GAS  C:\Users\d3bug\AppData\Local\Temp\ccFiAZjI.s 			page 80


 2186 0304 09EB0300 		add	r0, r9, r3
 2187 0308 2044     		add	r0, r0, r4
 2188 030a 84B2     		uxth	r4, r0
 2189              	.LVL324:
 776:..\lvgl\lv_core/lv_obj.c ****     new_y -= par_abs_y;
 2190              		.loc 1 776 0
 2191 030c 691A     		subs	r1, r5, r1
 2192              	.LVL325:
 777:..\lvgl\lv_core/lv_obj.c **** 
 2193              		.loc 1 777 0
 2194 030e A21A     		subs	r2, r4, r2
 2195              	.LVL326:
 779:..\lvgl\lv_core/lv_obj.c **** 
 2196              		.loc 1 779 0
 2197 0310 12B2     		sxth	r2, r2
 2198 0312 09B2     		sxth	r1, r1
 2199 0314 3046     		mov	r0, r6
 2200 0316 FFF7FEFF 		bl	lv_obj_set_pos
 2201              	.LVL327:
 783:..\lvgl\lv_core/lv_obj.c ****     obj->realign.xofs = x_mod;
 2202              		.loc 1 783 0
 2203 031a 86F83C80 		strb	r8, [r6, #60]
 784:..\lvgl\lv_core/lv_obj.c ****     obj->realign.yofs = y_mod;
 2204              		.loc 1 784 0
 2205 031e A6F838A0 		strh	r10, [r6, #56]	@ movhi
 785:..\lvgl\lv_core/lv_obj.c ****     obj->realign.base = base;
 2206              		.loc 1 785 0
 2207 0322 A6F83A90 		strh	r9, [r6, #58]	@ movhi
 786:..\lvgl\lv_core/lv_obj.c ****     obj->realign.origo_align = 0;
 2208              		.loc 1 786 0
 2209 0326 7763     		str	r7, [r6, #52]
 787:..\lvgl\lv_core/lv_obj.c **** #endif
 2210              		.loc 1 787 0
 2211 0328 96F83D30 		ldrb	r3, [r6, #61]	@ zero_extendqisi2
 2212 032c 6FF34103 		bfc	r3, #1, #1
 2213 0330 86F83D30 		strb	r3, [r6, #61]
 2214 0334 BDE8F087 		pop	{r4, r5, r6, r7, r8, r9, r10, pc}
 2215              		.cfi_endproc
 2216              	.LFE25:
 2217              		.size	lv_obj_align, .-lv_obj_align
 2218              		.section	.text.lv_obj_align_origo,"ax",%progbits
 2219              		.align	2
 2220              		.global	lv_obj_align_origo
 2221              		.thumb
 2222              		.thumb_func
 2223              		.type	lv_obj_align_origo, %function
 2224              	lv_obj_align_origo:
 2225              	.LFB26:
 800:..\lvgl\lv_core/lv_obj.c ****     lv_coord_t new_x = lv_obj_get_x(obj);
 2226              		.loc 1 800 0
 2227              		.cfi_startproc
 2228              		@ args = 4, pretend = 0, frame = 8
 2229              		@ frame_needed = 0, uses_anonymous_args = 0
 2230              	.LVL328:
 2231 0000 2DE9F04F 		push	{r4, r5, r6, r7, r8, r9, r10, fp, lr}
 2232              		.cfi_def_cfa_offset 36
 2233              		.cfi_offset 4, -36
ARM GAS  C:\Users\d3bug\AppData\Local\Temp\ccFiAZjI.s 			page 81


 2234              		.cfi_offset 5, -32
 2235              		.cfi_offset 6, -28
 2236              		.cfi_offset 7, -24
 2237              		.cfi_offset 8, -20
 2238              		.cfi_offset 9, -16
 2239              		.cfi_offset 10, -12
 2240              		.cfi_offset 11, -8
 2241              		.cfi_offset 14, -4
 2242 0004 83B0     		sub	sp, sp, #12
 2243              		.cfi_def_cfa_offset 48
 2244 0006 0446     		mov	r4, r0
 2245 0008 0F46     		mov	r7, r1
 2246 000a 9146     		mov	r9, r2
 2247 000c 9B46     		mov	fp, r3
 2248 000e BDF930A0 		ldrsh	r10, [sp, #48]
 801:..\lvgl\lv_core/lv_obj.c ****     lv_coord_t new_y = lv_obj_get_y(obj);
 2249              		.loc 1 801 0
 2250 0012 FFF7FEFF 		bl	lv_obj_get_x
 2251              	.LVL329:
 2252 0016 0546     		mov	r5, r0
 2253              	.LVL330:
 802:..\lvgl\lv_core/lv_obj.c **** 
 2254              		.loc 1 802 0
 2255 0018 2046     		mov	r0, r4
 2256 001a FFF7FEFF 		bl	lv_obj_get_y
 2257              	.LVL331:
 2258 001e 0646     		mov	r6, r0
 2259              	.LVL332:
 804:..\lvgl\lv_core/lv_obj.c ****     lv_coord_t obj_h_half = lv_obj_get_height(obj) / 2;
 2260              		.loc 1 804 0
 2261 0020 2046     		mov	r0, r4
 2262 0022 FFF7FEFF 		bl	lv_obj_get_width
 2263              	.LVL333:
 2264 0026 00EBD070 		add	r0, r0, r0, lsr #31
 2265 002a 40F34F08 		sbfx	r8, r0, #1, #16
 2266              	.LVL334:
 805:..\lvgl\lv_core/lv_obj.c **** 
 2267              		.loc 1 805 0
 2268 002e 2046     		mov	r0, r4
 2269 0030 FFF7FEFF 		bl	lv_obj_get_height
 2270              	.LVL335:
 2271 0034 00EBD070 		add	r0, r0, r0, lsr #31
 2272 0038 40F34F03 		sbfx	r3, r0, #1, #16
 2273 003c 0193     		str	r3, [sp, #4]
 2274              	.LVL336:
 807:..\lvgl\lv_core/lv_obj.c ****         base = lv_obj_get_parent(obj);
 2275              		.loc 1 807 0
 2276 003e 1FB9     		cbnz	r7, .L145
 808:..\lvgl\lv_core/lv_obj.c ****     }
 2277              		.loc 1 808 0
 2278 0040 2046     		mov	r0, r4
 2279 0042 FFF7FEFF 		bl	lv_obj_get_parent
 2280              	.LVL337:
 2281 0046 0746     		mov	r7, r0
 2282              	.LVL338:
 2283              	.L145:
 811:..\lvgl\lv_core/lv_obj.c ****         case LV_ALIGN_CENTER:
ARM GAS  C:\Users\d3bug\AppData\Local\Temp\ccFiAZjI.s 			page 82


 2284              		.loc 1 811 0
 2285 0048 B9F1140F 		cmp	r9, #20
 2286 004c 00F21081 		bhi	.L146
 2287 0050 DFE819F0 		tbh	[pc, r9, lsl #1]
 2288              	.L148:
 2289 0054 1500     		.2byte	(.L147-.L148)/2
 2290 0056 2700     		.2byte	(.L149-.L148)/2
 2291 0058 2E00     		.2byte	(.L150-.L148)/2
 2292 005a 3A00     		.2byte	(.L151-.L148)/2
 2293 005c 4400     		.2byte	(.L152-.L148)/2
 2294 005e 4E00     		.2byte	(.L153-.L148)/2
 2295 0060 5D00     		.2byte	(.L154-.L148)/2
 2296 0062 6A00     		.2byte	(.L155-.L148)/2
 2297 0064 7700     		.2byte	(.L156-.L148)/2
 2298 0066 8700     		.2byte	(.L157-.L148)/2
 2299 0068 8E00     		.2byte	(.L158-.L148)/2
 2300 006a 9A00     		.2byte	(.L159-.L148)/2
 2301 006c A400     		.2byte	(.L160-.L148)/2
 2302 006e AE00     		.2byte	(.L161-.L148)/2
 2303 0070 BD00     		.2byte	(.L162-.L148)/2
 2304 0072 CA00     		.2byte	(.L163-.L148)/2
 2305 0074 D100     		.2byte	(.L164-.L148)/2
 2306 0076 DE00     		.2byte	(.L165-.L148)/2
 2307 0078 E800     		.2byte	(.L166-.L148)/2
 2308 007a F200     		.2byte	(.L167-.L148)/2
 2309 007c 0201     		.2byte	(.L168-.L148)/2
 2310              		.p2align 1
 2311              	.L147:
 813:..\lvgl\lv_core/lv_obj.c ****             new_y = lv_obj_get_height(base) / 2 - obj_h_half;
 2312              		.loc 1 813 0
 2313 007e 3846     		mov	r0, r7
 2314 0080 FFF7FEFF 		bl	lv_obj_get_width
 2315              	.LVL339:
 2316 0084 00EBD070 		add	r0, r0, r0, lsr #31
 2317 0088 C8EB6005 		rsb	r5, r8, r0, asr #1
 2318              	.LVL340:
 2319 008c 2DB2     		sxth	r5, r5
 2320              	.LVL341:
 814:..\lvgl\lv_core/lv_obj.c ****             break;
 2321              		.loc 1 814 0
 2322 008e 3846     		mov	r0, r7
 2323 0090 FFF7FEFF 		bl	lv_obj_get_height
 2324              	.LVL342:
 2325 0094 00EBD070 		add	r0, r0, r0, lsr #31
 2326 0098 019B     		ldr	r3, [sp, #4]
 2327 009a C3EB6006 		rsb	r6, r3, r0, asr #1
 2328              	.LVL343:
 2329 009e 36B2     		sxth	r6, r6
 2330              	.LVL344:
 815:..\lvgl\lv_core/lv_obj.c **** 
 2331              		.loc 1 815 0
 2332 00a0 E6E0     		b	.L146
 2333              	.L149:
 818:..\lvgl\lv_core/lv_obj.c ****             new_y = -obj_h_half;
 2334              		.loc 1 818 0
 2335 00a2 C8F10005 		rsb	r5, r8, #0
 2336              	.LVL345:
ARM GAS  C:\Users\d3bug\AppData\Local\Temp\ccFiAZjI.s 			page 83


 2337 00a6 2DB2     		sxth	r5, r5
 2338              	.LVL346:
 819:..\lvgl\lv_core/lv_obj.c ****             break;
 2339              		.loc 1 819 0
 2340 00a8 019B     		ldr	r3, [sp, #4]
 2341 00aa 5E42     		negs	r6, r3
 2342              	.LVL347:
 2343 00ac 36B2     		sxth	r6, r6
 2344              	.LVL348:
 820:..\lvgl\lv_core/lv_obj.c ****         case LV_ALIGN_IN_TOP_MID:
 2345              		.loc 1 820 0
 2346 00ae DFE0     		b	.L146
 2347              	.L150:
 822:..\lvgl\lv_core/lv_obj.c ****             new_y = -obj_h_half;
 2348              		.loc 1 822 0
 2349 00b0 3846     		mov	r0, r7
 2350 00b2 FFF7FEFF 		bl	lv_obj_get_width
 2351              	.LVL349:
 2352 00b6 00EBD070 		add	r0, r0, r0, lsr #31
 2353 00ba C8EB6005 		rsb	r5, r8, r0, asr #1
 2354              	.LVL350:
 2355 00be 2DB2     		sxth	r5, r5
 2356              	.LVL351:
 823:..\lvgl\lv_core/lv_obj.c ****             break;
 2357              		.loc 1 823 0
 2358 00c0 019B     		ldr	r3, [sp, #4]
 2359 00c2 5E42     		negs	r6, r3
 2360              	.LVL352:
 2361 00c4 36B2     		sxth	r6, r6
 2362              	.LVL353:
 824:..\lvgl\lv_core/lv_obj.c **** 
 2363              		.loc 1 824 0
 2364 00c6 D3E0     		b	.L146
 2365              	.L151:
 827:..\lvgl\lv_core/lv_obj.c ****             new_y = -obj_h_half;
 2366              		.loc 1 827 0
 2367 00c8 3846     		mov	r0, r7
 2368 00ca FFF7FEFF 		bl	lv_obj_get_width
 2369              	.LVL354:
 2370 00ce C8EB0000 		rsb	r0, r8, r0
 2371 00d2 05B2     		sxth	r5, r0
 2372              	.LVL355:
 828:..\lvgl\lv_core/lv_obj.c ****             break;
 2373              		.loc 1 828 0
 2374 00d4 019B     		ldr	r3, [sp, #4]
 2375 00d6 5E42     		negs	r6, r3
 2376              	.LVL356:
 2377 00d8 36B2     		sxth	r6, r6
 2378              	.LVL357:
 829:..\lvgl\lv_core/lv_obj.c **** 
 2379              		.loc 1 829 0
 2380 00da C9E0     		b	.L146
 2381              	.L152:
 832:..\lvgl\lv_core/lv_obj.c ****             new_y = lv_obj_get_height(base) - obj_h_half;
 2382              		.loc 1 832 0
 2383 00dc C8F10005 		rsb	r5, r8, #0
 2384              	.LVL358:
ARM GAS  C:\Users\d3bug\AppData\Local\Temp\ccFiAZjI.s 			page 84


 2385 00e0 2DB2     		sxth	r5, r5
 2386              	.LVL359:
 833:..\lvgl\lv_core/lv_obj.c ****             break;
 2387              		.loc 1 833 0
 2388 00e2 3846     		mov	r0, r7
 2389 00e4 FFF7FEFF 		bl	lv_obj_get_height
 2390              	.LVL360:
 2391 00e8 019B     		ldr	r3, [sp, #4]
 2392 00ea C01A     		subs	r0, r0, r3
 2393 00ec 06B2     		sxth	r6, r0
 2394              	.LVL361:
 834:..\lvgl\lv_core/lv_obj.c ****         case LV_ALIGN_IN_BOTTOM_MID:
 2395              		.loc 1 834 0
 2396 00ee BFE0     		b	.L146
 2397              	.L153:
 836:..\lvgl\lv_core/lv_obj.c ****             new_y = lv_obj_get_height(base) - obj_h_half;
 2398              		.loc 1 836 0
 2399 00f0 3846     		mov	r0, r7
 2400 00f2 FFF7FEFF 		bl	lv_obj_get_width
 2401              	.LVL362:
 2402 00f6 00EBD070 		add	r0, r0, r0, lsr #31
 2403 00fa C8EB6005 		rsb	r5, r8, r0, asr #1
 2404              	.LVL363:
 2405 00fe 2DB2     		sxth	r5, r5
 2406              	.LVL364:
 837:..\lvgl\lv_core/lv_obj.c ****             break;
 2407              		.loc 1 837 0
 2408 0100 3846     		mov	r0, r7
 2409 0102 FFF7FEFF 		bl	lv_obj_get_height
 2410              	.LVL365:
 2411 0106 019B     		ldr	r3, [sp, #4]
 2412 0108 C01A     		subs	r0, r0, r3
 2413 010a 06B2     		sxth	r6, r0
 2414              	.LVL366:
 838:..\lvgl\lv_core/lv_obj.c **** 
 2415              		.loc 1 838 0
 2416 010c B0E0     		b	.L146
 2417              	.L154:
 841:..\lvgl\lv_core/lv_obj.c ****             new_y = lv_obj_get_height(base) - obj_h_half;
 2418              		.loc 1 841 0
 2419 010e 3846     		mov	r0, r7
 2420 0110 FFF7FEFF 		bl	lv_obj_get_width
 2421              	.LVL367:
 2422 0114 C8EB0000 		rsb	r0, r8, r0
 2423 0118 05B2     		sxth	r5, r0
 2424              	.LVL368:
 842:..\lvgl\lv_core/lv_obj.c ****             break;
 2425              		.loc 1 842 0
 2426 011a 3846     		mov	r0, r7
 2427 011c FFF7FEFF 		bl	lv_obj_get_height
 2428              	.LVL369:
 2429 0120 019B     		ldr	r3, [sp, #4]
 2430 0122 C01A     		subs	r0, r0, r3
 2431 0124 06B2     		sxth	r6, r0
 2432              	.LVL370:
 843:..\lvgl\lv_core/lv_obj.c **** 
 2433              		.loc 1 843 0
ARM GAS  C:\Users\d3bug\AppData\Local\Temp\ccFiAZjI.s 			page 85


 2434 0126 A3E0     		b	.L146
 2435              	.L155:
 846:..\lvgl\lv_core/lv_obj.c ****             new_y = lv_obj_get_height(base) / 2 - obj_h_half;
 2436              		.loc 1 846 0
 2437 0128 C8F10005 		rsb	r5, r8, #0
 2438              	.LVL371:
 2439 012c 2DB2     		sxth	r5, r5
 2440              	.LVL372:
 847:..\lvgl\lv_core/lv_obj.c ****             break;
 2441              		.loc 1 847 0
 2442 012e 3846     		mov	r0, r7
 2443 0130 FFF7FEFF 		bl	lv_obj_get_height
 2444              	.LVL373:
 2445 0134 00EBD070 		add	r0, r0, r0, lsr #31
 2446 0138 019B     		ldr	r3, [sp, #4]
 2447 013a C3EB6006 		rsb	r6, r3, r0, asr #1
 2448              	.LVL374:
 2449 013e 36B2     		sxth	r6, r6
 2450              	.LVL375:
 848:..\lvgl\lv_core/lv_obj.c **** 
 2451              		.loc 1 848 0
 2452 0140 96E0     		b	.L146
 2453              	.L156:
 851:..\lvgl\lv_core/lv_obj.c ****             new_y = lv_obj_get_height(base) / 2 - obj_h_half;
 2454              		.loc 1 851 0
 2455 0142 3846     		mov	r0, r7
 2456 0144 FFF7FEFF 		bl	lv_obj_get_width
 2457              	.LVL376:
 2458 0148 C8EB0000 		rsb	r0, r8, r0
 2459 014c 05B2     		sxth	r5, r0
 2460              	.LVL377:
 852:..\lvgl\lv_core/lv_obj.c ****             break;
 2461              		.loc 1 852 0
 2462 014e 3846     		mov	r0, r7
 2463 0150 FFF7FEFF 		bl	lv_obj_get_height
 2464              	.LVL378:
 2465 0154 00EBD070 		add	r0, r0, r0, lsr #31
 2466 0158 019B     		ldr	r3, [sp, #4]
 2467 015a C3EB6006 		rsb	r6, r3, r0, asr #1
 2468              	.LVL379:
 2469 015e 36B2     		sxth	r6, r6
 2470              	.LVL380:
 853:..\lvgl\lv_core/lv_obj.c **** 
 2471              		.loc 1 853 0
 2472 0160 86E0     		b	.L146
 2473              	.L157:
 856:..\lvgl\lv_core/lv_obj.c ****             new_y = -obj_h_half;
 2474              		.loc 1 856 0
 2475 0162 C8F10005 		rsb	r5, r8, #0
 2476              	.LVL381:
 2477 0166 2DB2     		sxth	r5, r5
 2478              	.LVL382:
 857:..\lvgl\lv_core/lv_obj.c ****             break;
 2479              		.loc 1 857 0
 2480 0168 019B     		ldr	r3, [sp, #4]
 2481 016a 5E42     		negs	r6, r3
 2482              	.LVL383:
ARM GAS  C:\Users\d3bug\AppData\Local\Temp\ccFiAZjI.s 			page 86


 2483 016c 36B2     		sxth	r6, r6
 2484              	.LVL384:
 858:..\lvgl\lv_core/lv_obj.c **** 
 2485              		.loc 1 858 0
 2486 016e 7FE0     		b	.L146
 2487              	.L158:
 861:..\lvgl\lv_core/lv_obj.c ****             new_y = -obj_h_half;
 2488              		.loc 1 861 0
 2489 0170 3846     		mov	r0, r7
 2490 0172 FFF7FEFF 		bl	lv_obj_get_width
 2491              	.LVL385:
 2492 0176 00EBD070 		add	r0, r0, r0, lsr #31
 2493 017a C8EB6005 		rsb	r5, r8, r0, asr #1
 2494              	.LVL386:
 2495 017e 2DB2     		sxth	r5, r5
 2496              	.LVL387:
 862:..\lvgl\lv_core/lv_obj.c ****             break;
 2497              		.loc 1 862 0
 2498 0180 019B     		ldr	r3, [sp, #4]
 2499 0182 5E42     		negs	r6, r3
 2500              	.LVL388:
 2501 0184 36B2     		sxth	r6, r6
 2502              	.LVL389:
 863:..\lvgl\lv_core/lv_obj.c **** 
 2503              		.loc 1 863 0
 2504 0186 73E0     		b	.L146
 2505              	.L159:
 866:..\lvgl\lv_core/lv_obj.c ****             new_y = - obj_h_half;
 2506              		.loc 1 866 0
 2507 0188 3846     		mov	r0, r7
 2508 018a FFF7FEFF 		bl	lv_obj_get_width
 2509              	.LVL390:
 2510 018e C8EB0000 		rsb	r0, r8, r0
 2511 0192 05B2     		sxth	r5, r0
 2512              	.LVL391:
 867:..\lvgl\lv_core/lv_obj.c ****             break;
 2513              		.loc 1 867 0
 2514 0194 019B     		ldr	r3, [sp, #4]
 2515 0196 5E42     		negs	r6, r3
 2516              	.LVL392:
 2517 0198 36B2     		sxth	r6, r6
 2518              	.LVL393:
 868:..\lvgl\lv_core/lv_obj.c **** 
 2519              		.loc 1 868 0
 2520 019a 69E0     		b	.L146
 2521              	.L160:
 871:..\lvgl\lv_core/lv_obj.c ****             new_y = lv_obj_get_height(base) - obj_h_half;
 2522              		.loc 1 871 0
 2523 019c C8F10005 		rsb	r5, r8, #0
 2524              	.LVL394:
 2525 01a0 2DB2     		sxth	r5, r5
 2526              	.LVL395:
 872:..\lvgl\lv_core/lv_obj.c ****             break;
 2527              		.loc 1 872 0
 2528 01a2 3846     		mov	r0, r7
 2529 01a4 FFF7FEFF 		bl	lv_obj_get_height
 2530              	.LVL396:
ARM GAS  C:\Users\d3bug\AppData\Local\Temp\ccFiAZjI.s 			page 87


 2531 01a8 019B     		ldr	r3, [sp, #4]
 2532 01aa C01A     		subs	r0, r0, r3
 2533 01ac 06B2     		sxth	r6, r0
 2534              	.LVL397:
 873:..\lvgl\lv_core/lv_obj.c **** 
 2535              		.loc 1 873 0
 2536 01ae 5FE0     		b	.L146
 2537              	.L161:
 876:..\lvgl\lv_core/lv_obj.c ****             new_y = lv_obj_get_height(base) - obj_h_half;
 2538              		.loc 1 876 0
 2539 01b0 3846     		mov	r0, r7
 2540 01b2 FFF7FEFF 		bl	lv_obj_get_width
 2541              	.LVL398:
 2542 01b6 00EBD070 		add	r0, r0, r0, lsr #31
 2543 01ba C8EB6005 		rsb	r5, r8, r0, asr #1
 2544              	.LVL399:
 2545 01be 2DB2     		sxth	r5, r5
 2546              	.LVL400:
 877:..\lvgl\lv_core/lv_obj.c ****             break;
 2547              		.loc 1 877 0
 2548 01c0 3846     		mov	r0, r7
 2549 01c2 FFF7FEFF 		bl	lv_obj_get_height
 2550              	.LVL401:
 2551 01c6 019B     		ldr	r3, [sp, #4]
 2552 01c8 C01A     		subs	r0, r0, r3
 2553 01ca 06B2     		sxth	r6, r0
 2554              	.LVL402:
 878:..\lvgl\lv_core/lv_obj.c **** 
 2555              		.loc 1 878 0
 2556 01cc 50E0     		b	.L146
 2557              	.L162:
 881:..\lvgl\lv_core/lv_obj.c ****             new_y = lv_obj_get_height(base) - obj_h_half;
 2558              		.loc 1 881 0
 2559 01ce 3846     		mov	r0, r7
 2560 01d0 FFF7FEFF 		bl	lv_obj_get_width
 2561              	.LVL403:
 2562 01d4 C8EB0000 		rsb	r0, r8, r0
 2563 01d8 05B2     		sxth	r5, r0
 2564              	.LVL404:
 882:..\lvgl\lv_core/lv_obj.c ****             break;
 2565              		.loc 1 882 0
 2566 01da 3846     		mov	r0, r7
 2567 01dc FFF7FEFF 		bl	lv_obj_get_height
 2568              	.LVL405:
 2569 01e0 019B     		ldr	r3, [sp, #4]
 2570 01e2 C01A     		subs	r0, r0, r3
 2571 01e4 06B2     		sxth	r6, r0
 2572              	.LVL406:
 883:..\lvgl\lv_core/lv_obj.c **** 
 2573              		.loc 1 883 0
 2574 01e6 43E0     		b	.L146
 2575              	.L163:
 886:..\lvgl\lv_core/lv_obj.c ****             new_y = - obj_h_half;
 2576              		.loc 1 886 0
 2577 01e8 C8F10005 		rsb	r5, r8, #0
 2578              	.LVL407:
 2579 01ec 2DB2     		sxth	r5, r5
ARM GAS  C:\Users\d3bug\AppData\Local\Temp\ccFiAZjI.s 			page 88


 2580              	.LVL408:
 887:..\lvgl\lv_core/lv_obj.c ****             break;
 2581              		.loc 1 887 0
 2582 01ee 019B     		ldr	r3, [sp, #4]
 2583 01f0 5E42     		negs	r6, r3
 2584              	.LVL409:
 2585 01f2 36B2     		sxth	r6, r6
 2586              	.LVL410:
 888:..\lvgl\lv_core/lv_obj.c **** 
 2587              		.loc 1 888 0
 2588 01f4 3CE0     		b	.L146
 2589              	.L164:
 891:..\lvgl\lv_core/lv_obj.c ****             new_y = lv_obj_get_height(base) / 2 - obj_h_half;
 2590              		.loc 1 891 0
 2591 01f6 C8F10005 		rsb	r5, r8, #0
 2592              	.LVL411:
 2593 01fa 2DB2     		sxth	r5, r5
 2594              	.LVL412:
 892:..\lvgl\lv_core/lv_obj.c ****             break;
 2595              		.loc 1 892 0
 2596 01fc 3846     		mov	r0, r7
 2597 01fe FFF7FEFF 		bl	lv_obj_get_height
 2598              	.LVL413:
 2599 0202 00EBD070 		add	r0, r0, r0, lsr #31
 2600 0206 019B     		ldr	r3, [sp, #4]
 2601 0208 C3EB6006 		rsb	r6, r3, r0, asr #1
 2602              	.LVL414:
 2603 020c 36B2     		sxth	r6, r6
 2604              	.LVL415:
 893:..\lvgl\lv_core/lv_obj.c **** 
 2605              		.loc 1 893 0
 2606 020e 2FE0     		b	.L146
 2607              	.L165:
 896:..\lvgl\lv_core/lv_obj.c ****             new_y = lv_obj_get_height(base) - obj_h_half;
 2608              		.loc 1 896 0
 2609 0210 C8F10005 		rsb	r5, r8, #0
 2610              	.LVL416:
 2611 0214 2DB2     		sxth	r5, r5
 2612              	.LVL417:
 897:..\lvgl\lv_core/lv_obj.c ****             break;
 2613              		.loc 1 897 0
 2614 0216 3846     		mov	r0, r7
 2615 0218 FFF7FEFF 		bl	lv_obj_get_height
 2616              	.LVL418:
 2617 021c 019B     		ldr	r3, [sp, #4]
 2618 021e C01A     		subs	r0, r0, r3
 2619 0220 06B2     		sxth	r6, r0
 2620              	.LVL419:
 898:..\lvgl\lv_core/lv_obj.c **** 
 2621              		.loc 1 898 0
 2622 0222 25E0     		b	.L146
 2623              	.L166:
 901:..\lvgl\lv_core/lv_obj.c ****             new_y = -obj_h_half;
 2624              		.loc 1 901 0
 2625 0224 3846     		mov	r0, r7
 2626 0226 FFF7FEFF 		bl	lv_obj_get_width
 2627              	.LVL420:
ARM GAS  C:\Users\d3bug\AppData\Local\Temp\ccFiAZjI.s 			page 89


 2628 022a C8EB0000 		rsb	r0, r8, r0
 2629 022e 05B2     		sxth	r5, r0
 2630              	.LVL421:
 902:..\lvgl\lv_core/lv_obj.c ****             break;
 2631              		.loc 1 902 0
 2632 0230 019B     		ldr	r3, [sp, #4]
 2633 0232 5E42     		negs	r6, r3
 2634              	.LVL422:
 2635 0234 36B2     		sxth	r6, r6
 2636              	.LVL423:
 903:..\lvgl\lv_core/lv_obj.c **** 
 2637              		.loc 1 903 0
 2638 0236 1BE0     		b	.L146
 2639              	.L167:
 906:..\lvgl\lv_core/lv_obj.c ****             new_y = lv_obj_get_height(base) / 2 - obj_h_half;
 2640              		.loc 1 906 0
 2641 0238 3846     		mov	r0, r7
 2642 023a FFF7FEFF 		bl	lv_obj_get_width
 2643              	.LVL424:
 2644 023e C8EB0000 		rsb	r0, r8, r0
 2645 0242 05B2     		sxth	r5, r0
 2646              	.LVL425:
 907:..\lvgl\lv_core/lv_obj.c ****             break;
 2647              		.loc 1 907 0
 2648 0244 3846     		mov	r0, r7
 2649 0246 FFF7FEFF 		bl	lv_obj_get_height
 2650              	.LVL426:
 2651 024a 00EBD070 		add	r0, r0, r0, lsr #31
 2652 024e 019B     		ldr	r3, [sp, #4]
 2653 0250 C3EB6006 		rsb	r6, r3, r0, asr #1
 2654              	.LVL427:
 2655 0254 36B2     		sxth	r6, r6
 2656              	.LVL428:
 908:..\lvgl\lv_core/lv_obj.c **** 
 2657              		.loc 1 908 0
 2658 0256 0BE0     		b	.L146
 2659              	.L168:
 911:..\lvgl\lv_core/lv_obj.c ****             new_y = lv_obj_get_height(base) - obj_h_half;
 2660              		.loc 1 911 0
 2661 0258 3846     		mov	r0, r7
 2662 025a FFF7FEFF 		bl	lv_obj_get_width
 2663              	.LVL429:
 2664 025e C8EB0000 		rsb	r0, r8, r0
 2665 0262 05B2     		sxth	r5, r0
 2666              	.LVL430:
 912:..\lvgl\lv_core/lv_obj.c ****             break;
 2667              		.loc 1 912 0
 2668 0264 3846     		mov	r0, r7
 2669 0266 FFF7FEFF 		bl	lv_obj_get_height
 2670              	.LVL431:
 2671 026a 019B     		ldr	r3, [sp, #4]
 2672 026c C01A     		subs	r0, r0, r3
 2673 026e 06B2     		sxth	r6, r0
 2674              	.LVL432:
 2675              	.L146:
 917:..\lvgl\lv_core/lv_obj.c ****     lv_coord_t base_abs_x = base->coords.x1;
 2676              		.loc 1 917 0
ARM GAS  C:\Users\d3bug\AppData\Local\Temp\ccFiAZjI.s 			page 90


 2677 0270 2046     		mov	r0, r4
 2678 0272 FFF7FEFF 		bl	lv_obj_get_parent
 2679              	.LVL433:
 918:..\lvgl\lv_core/lv_obj.c ****     lv_coord_t base_abs_y = base->coords.y1;
 2680              		.loc 1 918 0
 2681 0276 B7F910E0 		ldrsh	lr, [r7, #16]
 2682              	.LVL434:
 919:..\lvgl\lv_core/lv_obj.c ****     lv_coord_t par_abs_x = par->coords.x1;
 2683              		.loc 1 919 0
 2684 027a B7F91230 		ldrsh	r3, [r7, #18]
 2685              	.LVL435:
 920:..\lvgl\lv_core/lv_obj.c ****     lv_coord_t par_abs_y = par->coords.y1;
 2686              		.loc 1 920 0
 2687 027e B0F91010 		ldrsh	r1, [r0, #16]
 2688              	.LVL436:
 921:..\lvgl\lv_core/lv_obj.c ****     new_x += x_mod + base_abs_x;
 2689              		.loc 1 921 0
 2690 0282 B0F91220 		ldrsh	r2, [r0, #18]
 2691              	.LVL437:
 922:..\lvgl\lv_core/lv_obj.c ****     new_y += y_mod + base_abs_y;
 2692              		.loc 1 922 0
 2693 0286 0BEB0E00 		add	r0, fp, lr
 2694              	.LVL438:
 2695 028a 2844     		add	r0, r0, r5
 2696 028c 85B2     		uxth	r5, r0
 2697              	.LVL439:
 923:..\lvgl\lv_core/lv_obj.c ****     new_x -= par_abs_x;
 2698              		.loc 1 923 0
 2699 028e 0AEB0300 		add	r0, r10, r3
 2700 0292 3044     		add	r0, r0, r6
 2701 0294 86B2     		uxth	r6, r0
 2702              	.LVL440:
 924:..\lvgl\lv_core/lv_obj.c ****     new_y -= par_abs_y;
 2703              		.loc 1 924 0
 2704 0296 691A     		subs	r1, r5, r1
 2705              	.LVL441:
 925:..\lvgl\lv_core/lv_obj.c **** 
 2706              		.loc 1 925 0
 2707 0298 B21A     		subs	r2, r6, r2
 2708              	.LVL442:
 927:..\lvgl\lv_core/lv_obj.c **** 
 2709              		.loc 1 927 0
 2710 029a 12B2     		sxth	r2, r2
 2711 029c 09B2     		sxth	r1, r1
 2712 029e 2046     		mov	r0, r4
 2713 02a0 FFF7FEFF 		bl	lv_obj_set_pos
 2714              	.LVL443:
 931:..\lvgl\lv_core/lv_obj.c ****     obj->realign.xofs = x_mod;
 2715              		.loc 1 931 0
 2716 02a4 84F83C90 		strb	r9, [r4, #60]
 932:..\lvgl\lv_core/lv_obj.c ****     obj->realign.yofs = y_mod;
 2717              		.loc 1 932 0
 2718 02a8 A4F838B0 		strh	fp, [r4, #56]	@ movhi
 933:..\lvgl\lv_core/lv_obj.c ****     obj->realign.base = base;
 2719              		.loc 1 933 0
 2720 02ac A4F83AA0 		strh	r10, [r4, #58]	@ movhi
 934:..\lvgl\lv_core/lv_obj.c ****     obj->realign.origo_align = 1;
ARM GAS  C:\Users\d3bug\AppData\Local\Temp\ccFiAZjI.s 			page 91


 2721              		.loc 1 934 0
 2722 02b0 6763     		str	r7, [r4, #52]
 935:..\lvgl\lv_core/lv_obj.c **** #endif
 2723              		.loc 1 935 0
 2724 02b2 94F83D30 		ldrb	r3, [r4, #61]	@ zero_extendqisi2
 2725 02b6 43F00203 		orr	r3, r3, #2
 2726 02ba 84F83D30 		strb	r3, [r4, #61]
 937:..\lvgl\lv_core/lv_obj.c **** 
 2727              		.loc 1 937 0
 2728 02be 03B0     		add	sp, sp, #12
 2729              		.cfi_def_cfa_offset 36
 2730              		@ sp needed
 2731 02c0 BDE8F08F 		pop	{r4, r5, r6, r7, r8, r9, r10, fp, pc}
 2732              		.cfi_endproc
 2733              	.LFE26:
 2734              		.size	lv_obj_align_origo, .-lv_obj_align_origo
 2735              		.section	.text.lv_obj_realign,"ax",%progbits
 2736              		.align	2
 2737              		.global	lv_obj_realign
 2738              		.thumb
 2739              		.thumb_func
 2740              		.type	lv_obj_realign, %function
 2741              	lv_obj_realign:
 2742              	.LFB27:
 944:..\lvgl\lv_core/lv_obj.c **** #if LV_OBJ_REALIGN
 2743              		.loc 1 944 0
 2744              		.cfi_startproc
 2745              		@ args = 0, pretend = 0, frame = 0
 2746              		@ frame_needed = 0, uses_anonymous_args = 0
 2747              	.LVL444:
 2748 0000 00B5     		push	{lr}
 2749              		.cfi_def_cfa_offset 4
 2750              		.cfi_offset 14, -4
 2751 0002 83B0     		sub	sp, sp, #12
 2752              		.cfi_def_cfa_offset 16
 946:..\lvgl\lv_core/lv_obj.c ****     else lv_obj_align(obj, obj->realign.base, obj->realign.align, obj->realign.xofs, obj->realign.y
 2753              		.loc 1 946 0
 2754 0004 90F83D30 		ldrb	r3, [r0, #61]	@ zero_extendqisi2
 2755 0008 13F0020F 		tst	r3, #2
 2756 000c 0AD0     		beq	.L171
 946:..\lvgl\lv_core/lv_obj.c ****     else lv_obj_align(obj, obj->realign.base, obj->realign.align, obj->realign.xofs, obj->realign.y
 2757              		.loc 1 946 0 is_stmt 0 discriminator 1
 2758 000e B0F93830 		ldrsh	r3, [r0, #56]
 2759 0012 90F83C20 		ldrb	r2, [r0, #60]	@ zero_extendqisi2
 2760 0016 B0F93A10 		ldrsh	r1, [r0, #58]
 2761 001a 0091     		str	r1, [sp]
 2762 001c 416B     		ldr	r1, [r0, #52]
 2763 001e FFF7FEFF 		bl	lv_obj_align_origo
 2764              	.LVL445:
 2765 0022 09E0     		b	.L170
 2766              	.LVL446:
 2767              	.L171:
 947:..\lvgl\lv_core/lv_obj.c **** #else
 2768              		.loc 1 947 0 is_stmt 1
 2769 0024 B0F93830 		ldrsh	r3, [r0, #56]
 2770 0028 90F83C20 		ldrb	r2, [r0, #60]	@ zero_extendqisi2
 2771 002c B0F93A10 		ldrsh	r1, [r0, #58]
ARM GAS  C:\Users\d3bug\AppData\Local\Temp\ccFiAZjI.s 			page 92


 2772 0030 0091     		str	r1, [sp]
 2773 0032 416B     		ldr	r1, [r0, #52]
 2774 0034 FFF7FEFF 		bl	lv_obj_align
 2775              	.LVL447:
 2776              	.L170:
 952:..\lvgl\lv_core/lv_obj.c **** 
 2777              		.loc 1 952 0
 2778 0038 03B0     		add	sp, sp, #12
 2779              		.cfi_def_cfa_offset 4
 2780              		@ sp needed
 2781 003a 5DF804FB 		ldr	pc, [sp], #4
 2782              		.cfi_endproc
 2783              	.LFE27:
 2784              		.size	lv_obj_realign, .-lv_obj_realign
 2785 003e 00BF     		.section	.text.lv_obj_create,"ax",%progbits
 2786              		.align	2
 2787              		.global	lv_obj_create
 2788              		.thumb
 2789              		.thumb_func
 2790              		.type	lv_obj_create, %function
 2791              	lv_obj_create:
 2792              	.LFB13:
 130:..\lvgl\lv_core/lv_obj.c **** 
 2793              		.loc 1 130 0
 2794              		.cfi_startproc
 2795              		@ args = 0, pretend = 0, frame = 0
 2796              		@ frame_needed = 0, uses_anonymous_args = 0
 2797              	.LVL448:
 2798 0000 F8B5     		push	{r3, r4, r5, r6, r7, lr}
 2799              		.cfi_def_cfa_offset 24
 2800              		.cfi_offset 3, -24
 2801              		.cfi_offset 4, -20
 2802              		.cfi_offset 5, -16
 2803              		.cfi_offset 6, -12
 2804              		.cfi_offset 7, -8
 2805              		.cfi_offset 14, -4
 2806 0002 0D46     		mov	r5, r1
 2807              	.LVL449:
 134:..\lvgl\lv_core/lv_obj.c ****         LV_LOG_TRACE("Screen create started");
 2808              		.loc 1 134 0
 2809 0004 0646     		mov	r6, r0
 2810 0006 0028     		cmp	r0, #0
 2811 0008 53D1     		bne	.L175
 2812              	.LBB25:
 135:..\lvgl\lv_core/lv_obj.c **** 
 2813              		.loc 1 135 0
 2814 000a 9E4B     		ldr	r3, .L191
 2815 000c 8722     		movs	r2, #135
 2816 000e 9E49     		ldr	r1, .L191+4
 2817              	.LVL450:
 2818 0010 FFF7FEFF 		bl	lv_log_add
 2819              	.LVL451:
 137:..\lvgl\lv_core/lv_obj.c ****         lv_mem_assert(new_obj);
 2820              		.loc 1 137 0
 2821 0014 9D48     		ldr	r0, .L191+8
 2822 0016 FFF7FEFF 		bl	lv_ll_ins_head
 2823              	.LVL452:
ARM GAS  C:\Users\d3bug\AppData\Local\Temp\ccFiAZjI.s 			page 93


 138:..\lvgl\lv_core/lv_obj.c ****         if(new_obj == NULL) return NULL;
 2824              		.loc 1 138 0
 2825 001a 0446     		mov	r4, r0
 2826 001c 30B9     		cbnz	r0, .L176
 138:..\lvgl\lv_core/lv_obj.c ****         if(new_obj == NULL) return NULL;
 2827              		.loc 1 138 0 is_stmt 0 discriminator 1
 2828 001e 9C4B     		ldr	r3, .L191+12
 2829 0020 8A22     		movs	r2, #138
 2830 0022 9949     		ldr	r1, .L191+4
 2831 0024 0320     		movs	r0, #3
 2832              	.LVL453:
 2833 0026 FFF7FEFF 		bl	lv_log_add
 2834              	.LVL454:
 2835              	.L177:
 2836 002a FEE7     		b	.L177
 2837              	.LVL455:
 2838              	.L176:
 139:..\lvgl\lv_core/lv_obj.c **** 
 2839              		.loc 1 139 0 is_stmt 1
 2840 002c 0028     		cmp	r0, #0
 2841 002e 00F02281 		beq	.L187
 141:..\lvgl\lv_core/lv_obj.c ****         lv_ll_init(&(new_obj->child_ll), sizeof(lv_obj_t));
 2842              		.loc 1 141 0
 2843 0032 0027     		movs	r7, #0
 2844 0034 40F8047B 		str	r7, [r0], #4
 2845              	.LVL456:
 142:..\lvgl\lv_core/lv_obj.c **** 
 2846              		.loc 1 142 0
 2847 0038 4421     		movs	r1, #68
 2848 003a FFF7FEFF 		bl	lv_ll_init
 2849              	.LVL457:
 145:..\lvgl\lv_core/lv_obj.c ****         new_obj->coords.y1 = 0;
 2850              		.loc 1 145 0
 2851 003e 2782     		strh	r7, [r4, #16]	@ movhi
 146:..\lvgl\lv_core/lv_obj.c ****         new_obj->coords.x2 = LV_HOR_RES - 1;
 2852              		.loc 1 146 0
 2853 0040 6782     		strh	r7, [r4, #18]	@ movhi
 147:..\lvgl\lv_core/lv_obj.c ****         new_obj->coords.y2 = LV_VER_RES - 1;
 2854              		.loc 1 147 0
 2855 0042 7F23     		movs	r3, #127
 2856 0044 A382     		strh	r3, [r4, #20]	@ movhi
 148:..\lvgl\lv_core/lv_obj.c ****         new_obj->ext_size = 0;
 2857              		.loc 1 148 0
 2858 0046 3F23     		movs	r3, #63
 2859 0048 E382     		strh	r3, [r4, #22]	@ movhi
 149:..\lvgl\lv_core/lv_obj.c **** 
 2860              		.loc 1 149 0
 2861 004a 2786     		strh	r7, [r4, #48]	@ movhi
 153:..\lvgl\lv_core/lv_obj.c ****         new_obj->realign.xofs = 0;
 2862              		.loc 1 153 0
 2863 004c 84F83C70 		strb	r7, [r4, #60]
 154:..\lvgl\lv_core/lv_obj.c ****         new_obj->realign.yofs = 0;
 2864              		.loc 1 154 0
 2865 0050 2787     		strh	r7, [r4, #56]	@ movhi
 155:..\lvgl\lv_core/lv_obj.c ****         new_obj->realign.base = NULL;
 2866              		.loc 1 155 0
 2867 0052 6787     		strh	r7, [r4, #58]	@ movhi
ARM GAS  C:\Users\d3bug\AppData\Local\Temp\ccFiAZjI.s 			page 94


 156:..\lvgl\lv_core/lv_obj.c ****         new_obj->realign.auto_realign = 0;
 2868              		.loc 1 156 0
 2869 0054 6763     		str	r7, [r4, #52]
 157:..\lvgl\lv_core/lv_obj.c **** #endif
 2870              		.loc 1 157 0
 2871 0056 94F83D30 		ldrb	r3, [r4, #61]	@ zero_extendqisi2
 2872 005a 67F30003 		bfi	r3, r7, #0, #1
 2873 005e 84F83D30 		strb	r3, [r4, #61]
 161:..\lvgl\lv_core/lv_obj.c ****         if(th) {
 2874              		.loc 1 161 0
 2875 0062 FFF7FEFF 		bl	lv_theme_get_current
 2876              	.LVL458:
 162:..\lvgl\lv_core/lv_obj.c ****             new_obj->style_p = th->bg;
 2877              		.loc 1 162 0
 2878 0066 10B1     		cbz	r0, .L179
 163:..\lvgl\lv_core/lv_obj.c ****         } else {
 2879              		.loc 1 163 0
 2880 0068 0368     		ldr	r3, [r0]
 2881 006a 6362     		str	r3, [r4, #36]
 2882 006c 01E0     		b	.L180
 2883              	.L179:
 165:..\lvgl\lv_core/lv_obj.c ****         }
 2884              		.loc 1 165 0
 2885 006e 894B     		ldr	r3, .L191+16
 2886 0070 6362     		str	r3, [r4, #36]
 2887              	.L180:
 168:..\lvgl\lv_core/lv_obj.c ****         lv_obj_set_design_func(new_obj, lv_obj_design);
 2888              		.loc 1 168 0
 2889 0072 8949     		ldr	r1, .L191+20
 2890 0074 2046     		mov	r0, r4
 2891              	.LVL459:
 2892 0076 FFF7FEFF 		bl	lv_obj_set_signal_func
 2893              	.LVL460:
 169:..\lvgl\lv_core/lv_obj.c **** 
 2894              		.loc 1 169 0
 2895 007a 8849     		ldr	r1, .L191+24
 2896 007c 2046     		mov	r0, r4
 2897 007e FFF7FEFF 		bl	lv_obj_set_design_func
 2898              	.LVL461:
 173:..\lvgl\lv_core/lv_obj.c **** #endif
 2899              		.loc 1 173 0
 2900 0082 0023     		movs	r3, #0
 2901 0084 2364     		str	r3, [r4, #64]
 177:..\lvgl\lv_core/lv_obj.c **** #endif
 2902              		.loc 1 177 0
 2903 0086 A362     		str	r3, [r4, #40]
 184:..\lvgl\lv_core/lv_obj.c ****         new_obj->drag = 0;
 2904              		.loc 1 184 0
 2905 0088 94F82C20 		ldrb	r2, [r4, #44]	@ zero_extendqisi2
 190:..\lvgl\lv_core/lv_obj.c ****         new_obj->protect = LV_PROTECT_NONE;
 2906              		.loc 1 190 0
 2907 008c 02F0C002 		and	r2, r2, #192
 2908 0090 63F38612 		bfi	r2, r3, #6, #1
 2909 0094 84F82C20 		strb	r2, [r4, #44]
 191:..\lvgl\lv_core/lv_obj.c ****         new_obj->opa_scale = LV_OPA_COVER;
 2910              		.loc 1 191 0
 2911 0098 84F82D30 		strb	r3, [r4, #45]
ARM GAS  C:\Users\d3bug\AppData\Local\Temp\ccFiAZjI.s 			page 95


 192:..\lvgl\lv_core/lv_obj.c **** 
 2912              		.loc 1 192 0
 2913 009c FF22     		movs	r2, #255
 2914 009e 84F82E20 		strb	r2, [r4, #46]
 194:..\lvgl\lv_core/lv_obj.c **** 
 2915              		.loc 1 194 0
 2916 00a2 2362     		str	r3, [r4, #32]
 196:..\lvgl\lv_core/lv_obj.c ****     }
 2917              		.loc 1 196 0
 2918 00a4 7E4B     		ldr	r3, .L191+28
 2919 00a6 C422     		movs	r2, #196
 2920 00a8 7749     		ldr	r1, .L191+4
 2921 00aa 0120     		movs	r0, #1
 2922 00ac FFF7FEFF 		bl	lv_log_add
 2923              	.LVL462:
 2924              	.LBE25:
 2925 00b0 57E0     		b	.L181
 2926              	.LVL463:
 2927              	.L175:
 2928              	.LBB26:
 200:..\lvgl\lv_core/lv_obj.c **** 
 2929              		.loc 1 200 0
 2930 00b2 7C4B     		ldr	r3, .L191+32
 2931 00b4 C822     		movs	r2, #200
 2932 00b6 7449     		ldr	r1, .L191+4
 2933              	.LVL464:
 2934 00b8 0020     		movs	r0, #0
 2935              	.LVL465:
 2936 00ba FFF7FEFF 		bl	lv_log_add
 2937              	.LVL466:
 202:..\lvgl\lv_core/lv_obj.c ****         lv_mem_assert(new_obj);
 2938              		.loc 1 202 0
 2939 00be 301D     		adds	r0, r6, #4
 2940 00c0 FFF7FEFF 		bl	lv_ll_ins_head
 2941              	.LVL467:
 203:..\lvgl\lv_core/lv_obj.c ****         if(new_obj == NULL) return NULL;
 2942              		.loc 1 203 0
 2943 00c4 0446     		mov	r4, r0
 2944 00c6 30B9     		cbnz	r0, .L182
 203:..\lvgl\lv_core/lv_obj.c ****         if(new_obj == NULL) return NULL;
 2945              		.loc 1 203 0 is_stmt 0 discriminator 1
 2946 00c8 714B     		ldr	r3, .L191+12
 2947 00ca CB22     		movs	r2, #203
 2948 00cc 6E49     		ldr	r1, .L191+4
 2949 00ce 0320     		movs	r0, #3
 2950              	.LVL468:
 2951 00d0 FFF7FEFF 		bl	lv_log_add
 2952              	.LVL469:
 2953              	.L183:
 2954 00d4 FEE7     		b	.L183
 2955              	.LVL470:
 2956              	.L182:
 204:..\lvgl\lv_core/lv_obj.c **** 
 2957              		.loc 1 204 0 is_stmt 1
 2958 00d6 0028     		cmp	r0, #0
 2959 00d8 00F0CF80 		beq	.L188
 207:..\lvgl\lv_core/lv_obj.c ****         lv_ll_init(&(new_obj->child_ll), sizeof(lv_obj_t));
ARM GAS  C:\Users\d3bug\AppData\Local\Temp\ccFiAZjI.s 			page 96


 2960              		.loc 1 207 0
 2961 00dc 40F8046B 		str	r6, [r0], #4
 2962              	.LVL471:
 208:..\lvgl\lv_core/lv_obj.c **** 
 2963              		.loc 1 208 0
 2964 00e0 4421     		movs	r1, #68
 2965 00e2 FFF7FEFF 		bl	lv_ll_init
 2966              	.LVL472:
 211:..\lvgl\lv_core/lv_obj.c ****         new_obj->coords.y1 = parent->coords.y1;
 2967              		.loc 1 211 0
 2968 00e6 B6F91030 		ldrsh	r3, [r6, #16]
 2969 00ea 2382     		strh	r3, [r4, #16]	@ movhi
 212:..\lvgl\lv_core/lv_obj.c ****         new_obj->coords.x2 = parent->coords.x1 +
 2970              		.loc 1 212 0
 2971 00ec B6F91230 		ldrsh	r3, [r6, #18]
 2972 00f0 6382     		strh	r3, [r4, #18]	@ movhi
 213:..\lvgl\lv_core/lv_obj.c ****                              LV_OBJ_DEF_WIDTH;
 2973              		.loc 1 213 0
 2974 00f2 B6F91030 		ldrsh	r3, [r6, #16]
 2975 00f6 6433     		adds	r3, r3, #100
 2976 00f8 A382     		strh	r3, [r4, #20]	@ movhi
 215:..\lvgl\lv_core/lv_obj.c ****                              LV_OBJ_DEF_HEIGHT;
 2977              		.loc 1 215 0
 2978 00fa B6F91230 		ldrsh	r3, [r6, #18]
 2979 00fe 4233     		adds	r3, r3, #66
 2980 0100 E382     		strh	r3, [r4, #22]	@ movhi
 217:..\lvgl\lv_core/lv_obj.c **** 
 2981              		.loc 1 217 0
 2982 0102 0023     		movs	r3, #0
 2983 0104 2386     		strh	r3, [r4, #48]	@ movhi
 221:..\lvgl\lv_core/lv_obj.c ****         new_obj->realign.xofs = 0;
 2984              		.loc 1 221 0
 2985 0106 84F83C30 		strb	r3, [r4, #60]
 222:..\lvgl\lv_core/lv_obj.c ****         new_obj->realign.yofs = 0;
 2986              		.loc 1 222 0
 2987 010a 2387     		strh	r3, [r4, #56]	@ movhi
 223:..\lvgl\lv_core/lv_obj.c ****         new_obj->realign.base = NULL;
 2988              		.loc 1 223 0
 2989 010c 6387     		strh	r3, [r4, #58]	@ movhi
 224:..\lvgl\lv_core/lv_obj.c ****         new_obj->realign.auto_realign = 0;
 2990              		.loc 1 224 0
 2991 010e 6363     		str	r3, [r4, #52]
 225:..\lvgl\lv_core/lv_obj.c **** #endif
 2992              		.loc 1 225 0
 2993 0110 94F83D20 		ldrb	r2, [r4, #61]	@ zero_extendqisi2
 2994 0114 63F30002 		bfi	r2, r3, #0, #1
 2995 0118 84F83D20 		strb	r2, [r4, #61]
 228:..\lvgl\lv_core/lv_obj.c ****         if(th) {
 2996              		.loc 1 228 0
 2997 011c FFF7FEFF 		bl	lv_theme_get_current
 2998              	.LVL473:
 229:..\lvgl\lv_core/lv_obj.c ****             new_obj->style_p = th->panel;
 2999              		.loc 1 229 0
 3000 0120 10B1     		cbz	r0, .L184
 230:..\lvgl\lv_core/lv_obj.c ****         } else {
 3001              		.loc 1 230 0
 3002 0122 4368     		ldr	r3, [r0, #4]
ARM GAS  C:\Users\d3bug\AppData\Local\Temp\ccFiAZjI.s 			page 97


 3003 0124 6362     		str	r3, [r4, #36]
 3004 0126 01E0     		b	.L185
 3005              	.L184:
 232:..\lvgl\lv_core/lv_obj.c ****         }
 3006              		.loc 1 232 0
 3007 0128 5F4B     		ldr	r3, .L191+36
 3008 012a 6362     		str	r3, [r4, #36]
 3009              	.L185:
 236:..\lvgl\lv_core/lv_obj.c ****         lv_obj_set_design_func(new_obj, lv_obj_design);
 3010              		.loc 1 236 0
 3011 012c 5A49     		ldr	r1, .L191+20
 3012 012e 2046     		mov	r0, r4
 3013              	.LVL474:
 3014 0130 FFF7FEFF 		bl	lv_obj_set_signal_func
 3015              	.LVL475:
 237:..\lvgl\lv_core/lv_obj.c **** 
 3016              		.loc 1 237 0
 3017 0134 5949     		ldr	r1, .L191+24
 3018 0136 2046     		mov	r0, r4
 3019 0138 FFF7FEFF 		bl	lv_obj_set_design_func
 3020              	.LVL476:
 241:..\lvgl\lv_core/lv_obj.c **** #endif
 3021              		.loc 1 241 0
 3022 013c 0022     		movs	r2, #0
 3023 013e 2264     		str	r2, [r4, #64]
 244:..\lvgl\lv_core/lv_obj.c **** #endif
 3024              		.loc 1 244 0
 3025 0140 A262     		str	r2, [r4, #40]
 251:..\lvgl\lv_core/lv_obj.c ****         new_obj->drag = 0;
 3026              		.loc 1 251 0
 3027 0142 94F82C30 		ldrb	r3, [r4, #44]	@ zero_extendqisi2
 252:..\lvgl\lv_core/lv_obj.c ****         new_obj->drag_throw = 0;
 3028              		.loc 1 252 0
 3029 0146 43F00103 		orr	r3, r3, #1
 257:..\lvgl\lv_core/lv_obj.c ****         new_obj->opa_scale = LV_OPA_COVER;
 3030              		.loc 1 257 0
 3031 014a 84F82D20 		strb	r2, [r4, #45]
 258:..\lvgl\lv_core/lv_obj.c ****         new_obj->opa_scale_en = 0;
 3032              		.loc 1 258 0
 3033 014e FF21     		movs	r1, #255
 3034 0150 84F82E10 		strb	r1, [r4, #46]
 259:..\lvgl\lv_core/lv_obj.c **** 
 3035              		.loc 1 259 0
 3036 0154 03F0C103 		and	r3, r3, #193
 3037 0158 62F38613 		bfi	r3, r2, #6, #1
 3038 015c 84F82C30 		strb	r3, [r4, #44]
 261:..\lvgl\lv_core/lv_obj.c ****     }
 3039              		.loc 1 261 0
 3040 0160 2262     		str	r2, [r4, #32]
 3041              	.L181:
 3042              	.LBE26:
 264:..\lvgl\lv_core/lv_obj.c ****         lv_area_copy(&new_obj->coords, &copy->coords);
 3043              		.loc 1 264 0
 3044 0162 002D     		cmp	r5, #0
 3045 0164 7CD0     		beq	.L186
 265:..\lvgl\lv_core/lv_obj.c ****         new_obj->ext_size = copy->ext_size;
 3046              		.loc 1 265 0
ARM GAS  C:\Users\d3bug\AppData\Local\Temp\ccFiAZjI.s 			page 98


 3047 0166 2B46     		mov	r3, r5
 3048              	.LVL477:
 3049              	.LBB27:
 3050              	.LBB28:
  67:..\lvgl\lv_core\../lv_misc/lv_area.h **** }
 3051              		.loc 2 67 0
 3052 0168 53F8102F 		ldr	r2, [r3, #16]!	@ unaligned
 3053              	.LVL478:
 3054 016c 5B68     		ldr	r3, [r3, #4]	@ unaligned
 3055 016e 2261     		str	r2, [r4, #16]	@ unaligned
 3056 0170 6361     		str	r3, [r4, #20]	@ unaligned
 3057              	.LVL479:
 3058              	.LBE28:
 3059              	.LBE27:
 266:..\lvgl\lv_core/lv_obj.c **** 
 3060              		.loc 1 266 0
 3061 0172 B5F93030 		ldrsh	r3, [r5, #48]
 3062 0176 2386     		strh	r3, [r4, #48]	@ movhi
 270:..\lvgl\lv_core/lv_obj.c **** #endif
 3063              		.loc 1 270 0
 3064 0178 2B6C     		ldr	r3, [r5, #64]
 3065 017a 2364     		str	r3, [r4, #64]
 273:..\lvgl\lv_core/lv_obj.c **** #endif
 3066              		.loc 1 273 0
 3067 017c AB6A     		ldr	r3, [r5, #40]
 3068 017e A362     		str	r3, [r4, #40]
 278:..\lvgl\lv_core/lv_obj.c ****         new_obj->realign.xofs = copy->realign.xofs;
 3069              		.loc 1 278 0
 3070 0180 95F83C30 		ldrb	r3, [r5, #60]	@ zero_extendqisi2
 3071 0184 84F83C30 		strb	r3, [r4, #60]
 279:..\lvgl\lv_core/lv_obj.c ****         new_obj->realign.yofs = copy->realign.yofs;
 3072              		.loc 1 279 0
 3073 0188 B5F93830 		ldrsh	r3, [r5, #56]
 3074 018c 2387     		strh	r3, [r4, #56]	@ movhi
 280:..\lvgl\lv_core/lv_obj.c ****         new_obj->realign.base = copy->realign.base;
 3075              		.loc 1 280 0
 3076 018e B5F93A30 		ldrsh	r3, [r5, #58]
 3077 0192 6387     		strh	r3, [r4, #58]	@ movhi
 281:..\lvgl\lv_core/lv_obj.c ****         new_obj->realign.auto_realign = copy->realign.auto_realign;
 3078              		.loc 1 281 0
 3079 0194 6B6B     		ldr	r3, [r5, #52]
 3080 0196 6363     		str	r3, [r4, #52]
 282:..\lvgl\lv_core/lv_obj.c **** #endif
 3081              		.loc 1 282 0
 3082 0198 95F83D20 		ldrb	r2, [r5, #61]	@ zero_extendqisi2
 3083 019c 94F83D30 		ldrb	r3, [r4, #61]	@ zero_extendqisi2
 3084 01a0 62F30003 		bfi	r3, r2, #0, #1
 3085 01a4 84F83D30 		strb	r3, [r4, #61]
 286:..\lvgl\lv_core/lv_obj.c ****         new_obj->drag = copy->drag;
 3086              		.loc 1 286 0
 3087 01a8 95F82C20 		ldrb	r2, [r5, #44]	@ zero_extendqisi2
 3088 01ac 94F82C30 		ldrb	r3, [r4, #44]	@ zero_extendqisi2
 3089 01b0 62F30003 		bfi	r3, r2, #0, #1
 3090 01b4 84F82C30 		strb	r3, [r4, #44]
 287:..\lvgl\lv_core/lv_obj.c ****         new_obj->drag_throw = copy->drag_throw;
 3091              		.loc 1 287 0
 3092 01b8 95F82C30 		ldrb	r3, [r5, #44]	@ zero_extendqisi2
ARM GAS  C:\Users\d3bug\AppData\Local\Temp\ccFiAZjI.s 			page 99


 3093 01bc C3F34003 		ubfx	r3, r3, #1, #1
 3094 01c0 94F82C20 		ldrb	r2, [r4, #44]	@ zero_extendqisi2
 3095 01c4 63F34102 		bfi	r2, r3, #1, #1
 3096 01c8 84F82C20 		strb	r2, [r4, #44]
 288:..\lvgl\lv_core/lv_obj.c ****         new_obj->drag_parent = copy->drag_parent;
 3097              		.loc 1 288 0
 3098 01cc 95F82C30 		ldrb	r3, [r5, #44]	@ zero_extendqisi2
 3099 01d0 C3F38003 		ubfx	r3, r3, #2, #1
 3100 01d4 D2B2     		uxtb	r2, r2
 3101 01d6 63F38202 		bfi	r2, r3, #2, #1
 3102 01da 84F82C20 		strb	r2, [r4, #44]
 289:..\lvgl\lv_core/lv_obj.c ****         new_obj->hidden = copy->hidden;
 3103              		.loc 1 289 0
 3104 01de 95F82C30 		ldrb	r3, [r5, #44]	@ zero_extendqisi2
 3105 01e2 C3F3C003 		ubfx	r3, r3, #3, #1
 3106 01e6 D2B2     		uxtb	r2, r2
 3107 01e8 63F3C302 		bfi	r2, r3, #3, #1
 3108 01ec 84F82C20 		strb	r2, [r4, #44]
 290:..\lvgl\lv_core/lv_obj.c ****         new_obj->top = copy->top;
 3109              		.loc 1 290 0
 3110 01f0 95F82C30 		ldrb	r3, [r5, #44]	@ zero_extendqisi2
 3111 01f4 C3F30013 		ubfx	r3, r3, #4, #1
 3112 01f8 D2B2     		uxtb	r2, r2
 3113 01fa 63F30412 		bfi	r2, r3, #4, #1
 3114 01fe 84F82C20 		strb	r2, [r4, #44]
 291:..\lvgl\lv_core/lv_obj.c **** 
 3115              		.loc 1 291 0
 3116 0202 95F82C30 		ldrb	r3, [r5, #44]	@ zero_extendqisi2
 3117 0206 C3F34013 		ubfx	r3, r3, #5, #1
 3118 020a D2B2     		uxtb	r2, r2
 3119 020c 63F34512 		bfi	r2, r3, #5, #1
 3120 0210 84F82C20 		strb	r2, [r4, #44]
 293:..\lvgl\lv_core/lv_obj.c ****         new_obj->protect = copy->protect;
 3121              		.loc 1 293 0
 3122 0214 95F82C30 		ldrb	r3, [r5, #44]	@ zero_extendqisi2
 3123 0218 C3F38013 		ubfx	r3, r3, #6, #1
 3124 021c D2B2     		uxtb	r2, r2
 3125 021e 63F38612 		bfi	r2, r3, #6, #1
 3126 0222 84F82C20 		strb	r2, [r4, #44]
 294:..\lvgl\lv_core/lv_obj.c ****         new_obj->opa_scale = copy->opa_scale;
 3127              		.loc 1 294 0
 3128 0226 95F82D30 		ldrb	r3, [r5, #45]	@ zero_extendqisi2
 3129 022a 84F82D30 		strb	r3, [r4, #45]
 295:..\lvgl\lv_core/lv_obj.c **** 
 3130              		.loc 1 295 0
 3131 022e 95F82E30 		ldrb	r3, [r5, #46]	@ zero_extendqisi2
 3132 0232 84F82E30 		strb	r3, [r4, #46]
 297:..\lvgl\lv_core/lv_obj.c **** 
 3133              		.loc 1 297 0
 3134 0236 6B6A     		ldr	r3, [r5, #36]
 3135 0238 6362     		str	r3, [r4, #36]
 306:..\lvgl\lv_core/lv_obj.c **** 
 3136              		.loc 1 306 0
 3137 023a 2846     		mov	r0, r5
 3138 023c FFF7FEFF 		bl	lv_obj_get_x
 3139              	.LVL480:
 3140 0240 0746     		mov	r7, r0
ARM GAS  C:\Users\d3bug\AppData\Local\Temp\ccFiAZjI.s 			page 100


 3141 0242 2846     		mov	r0, r5
 3142 0244 FFF7FEFF 		bl	lv_obj_get_y
 3143              	.LVL481:
 3144 0248 0246     		mov	r2, r0
 3145 024a 3946     		mov	r1, r7
 3146 024c 2046     		mov	r0, r4
 3147 024e FFF7FEFF 		bl	lv_obj_set_pos
 3148              	.LVL482:
 308:..\lvgl\lv_core/lv_obj.c ****     }
 3149              		.loc 1 308 0
 3150 0252 164B     		ldr	r3, .L191+40
 3151 0254 4FF49A72 		mov	r2, #308
 3152 0258 0B49     		ldr	r1, .L191+4
 3153 025a 0120     		movs	r0, #1
 3154 025c FFF7FEFF 		bl	lv_log_add
 3155              	.LVL483:
 3156              	.L186:
 313:..\lvgl\lv_core/lv_obj.c ****         parent->signal_func(parent, LV_SIGNAL_CHILD_CHG, new_obj);
 3157              		.loc 1 313 0
 3158 0260 6EB1     		cbz	r6, .L189
 314:..\lvgl\lv_core/lv_obj.c **** 
 3159              		.loc 1 314 0
 3160 0262 B369     		ldr	r3, [r6, #24]
 3161 0264 2246     		mov	r2, r4
 3162 0266 0121     		movs	r1, #1
 3163 0268 3046     		mov	r0, r6
 3164 026a 9847     		blx	r3
 3165              	.LVL484:
 317:..\lvgl\lv_core/lv_obj.c ****     }
 3166              		.loc 1 317 0
 3167 026c 2046     		mov	r0, r4
 3168 026e FFF7FEFF 		bl	lv_obj_invalidate
 3169              	.LVL485:
 320:..\lvgl\lv_core/lv_obj.c **** }
 3170              		.loc 1 320 0
 3171 0272 2046     		mov	r0, r4
 3172 0274 F8BD     		pop	{r3, r4, r5, r6, r7, pc}
 3173              	.LVL486:
 3174              	.L187:
 3175              	.LBB29:
 139:..\lvgl\lv_core/lv_obj.c **** 
 3176              		.loc 1 139 0
 3177 0276 0020     		movs	r0, #0
 3178              	.LVL487:
 3179 0278 F8BD     		pop	{r3, r4, r5, r6, r7, pc}
 3180              	.LVL488:
 3181              	.L188:
 3182              	.LBE29:
 3183              	.LBB30:
 204:..\lvgl\lv_core/lv_obj.c **** 
 3184              		.loc 1 204 0
 3185 027a 0020     		movs	r0, #0
 3186              	.LVL489:
 3187 027c F8BD     		pop	{r3, r4, r5, r6, r7, pc}
 3188              	.LVL490:
 3189              	.L189:
 3190              	.LBE30:
ARM GAS  C:\Users\d3bug\AppData\Local\Temp\ccFiAZjI.s 			page 101


 320:..\lvgl\lv_core/lv_obj.c **** }
 3191              		.loc 1 320 0
 3192 027e 2046     		mov	r0, r4
 321:..\lvgl\lv_core/lv_obj.c **** 
 3193              		.loc 1 321 0
 3194 0280 F8BD     		pop	{r3, r4, r5, r6, r7, pc}
 3195              	.LVL491:
 3196              	.L192:
 3197 0282 00BF     		.align	2
 3198              	.L191:
 3199 0284 00000000 		.word	.LC0
 3200 0288 18000000 		.word	.LC1
 3201 028c 00000000 		.word	_lv_scr_ll
 3202 0290 34000000 		.word	.LC2
 3203 0294 00000000 		.word	lv_style_scr
 3204 0298 00000000 		.word	lv_obj_signal
 3205 029c 00000000 		.word	lv_obj_design
 3206 02a0 44000000 		.word	.LC3
 3207 02a4 58000000 		.word	.LC4
 3208 02a8 00000000 		.word	lv_style_plain_color
 3209 02ac 70000000 		.word	.LC5
 3210              		.cfi_endproc
 3211              	.LFE13:
 3212              		.size	lv_obj_create, .-lv_obj_create
 3213              		.section	.text.lv_obj_set_parent,"ax",%progbits
 3214              		.align	2
 3215              		.global	lv_obj_set_parent
 3216              		.thumb
 3217              		.thumb_func
 3218              		.type	lv_obj_set_parent, %function
 3219              	lv_obj_set_parent:
 3220              	.LFB18:
 476:..\lvgl\lv_core/lv_obj.c ****     if(obj->par == NULL) {
 3221              		.loc 1 476 0
 3222              		.cfi_startproc
 3223              		@ args = 0, pretend = 0, frame = 0
 3224              		@ frame_needed = 0, uses_anonymous_args = 0
 3225              	.LVL492:
 3226 0000 2DE9F041 		push	{r4, r5, r6, r7, r8, lr}
 3227              		.cfi_def_cfa_offset 24
 3228              		.cfi_offset 4, -24
 3229              		.cfi_offset 5, -20
 3230              		.cfi_offset 6, -16
 3231              		.cfi_offset 7, -12
 3232              		.cfi_offset 8, -8
 3233              		.cfi_offset 14, -4
 477:..\lvgl\lv_core/lv_obj.c ****         LV_LOG_WARN("Can't set the parent of a screen");
 3234              		.loc 1 477 0
 3235 0004 0368     		ldr	r3, [r0]
 3236 0006 43B9     		cbnz	r3, .L194
 478:..\lvgl\lv_core/lv_obj.c ****         return;
 3237              		.loc 1 478 0
 3238 0008 1C4B     		ldr	r3, .L199
 3239 000a 4FF4EF72 		mov	r2, #478
 3240 000e 1C49     		ldr	r1, .L199+4
 3241              	.LVL493:
 3242 0010 0220     		movs	r0, #2
ARM GAS  C:\Users\d3bug\AppData\Local\Temp\ccFiAZjI.s 			page 102


 3243              	.LVL494:
 3244 0012 FFF7FEFF 		bl	lv_log_add
 3245              	.LVL495:
 479:..\lvgl\lv_core/lv_obj.c ****     }
 3246              		.loc 1 479 0
 3247 0016 BDE8F081 		pop	{r4, r5, r6, r7, r8, pc}
 3248              	.LVL496:
 3249              	.L194:
 3250 001a 0446     		mov	r4, r0
 3251 001c 0D46     		mov	r5, r1
 482:..\lvgl\lv_core/lv_obj.c ****         LV_LOG_WARN("Can't set parent == NULL to an object");
 3252              		.loc 1 482 0
 3253 001e 41B9     		cbnz	r1, .L196
 483:..\lvgl\lv_core/lv_obj.c ****         return;
 3254              		.loc 1 483 0
 3255 0020 184B     		ldr	r3, .L199+8
 3256 0022 40F2E312 		movw	r2, #483
 3257 0026 1649     		ldr	r1, .L199+4
 3258              	.LVL497:
 3259 0028 0220     		movs	r0, #2
 3260              	.LVL498:
 3261 002a FFF7FEFF 		bl	lv_log_add
 3262              	.LVL499:
 484:..\lvgl\lv_core/lv_obj.c ****     }
 3263              		.loc 1 484 0
 3264 002e BDE8F081 		pop	{r4, r5, r6, r7, r8, pc}
 3265              	.LVL500:
 3266              	.L196:
 488:..\lvgl\lv_core/lv_obj.c **** 
 3267              		.loc 1 488 0
 3268 0032 FFF7FEFF 		bl	lv_obj_invalidate
 3269              	.LVL501:
 491:..\lvgl\lv_core/lv_obj.c ****     old_pos.y = lv_obj_get_y(obj);
 3270              		.loc 1 491 0
 3271 0036 2046     		mov	r0, r4
 3272 0038 FFF7FEFF 		bl	lv_obj_get_x
 3273              	.LVL502:
 3274 003c 0746     		mov	r7, r0
 492:..\lvgl\lv_core/lv_obj.c **** 
 3275              		.loc 1 492 0
 3276 003e 2046     		mov	r0, r4
 3277 0040 FFF7FEFF 		bl	lv_obj_get_y
 3278              	.LVL503:
 3279 0044 8046     		mov	r8, r0
 494:..\lvgl\lv_core/lv_obj.c **** 
 3280              		.loc 1 494 0
 3281 0046 2668     		ldr	r6, [r4]
 3282              	.LVL504:
 496:..\lvgl\lv_core/lv_obj.c ****     obj->par = parent;
 3283              		.loc 1 496 0
 3284 0048 2246     		mov	r2, r4
 3285 004a 291D     		adds	r1, r5, #4
 3286 004c 301D     		adds	r0, r6, #4
 3287 004e FFF7FEFF 		bl	lv_ll_chg_list
 3288              	.LVL505:
 497:..\lvgl\lv_core/lv_obj.c ****     lv_obj_set_pos(obj, old_pos.x, old_pos.y);
 3289              		.loc 1 497 0
ARM GAS  C:\Users\d3bug\AppData\Local\Temp\ccFiAZjI.s 			page 103


 3290 0052 2560     		str	r5, [r4]
 498:..\lvgl\lv_core/lv_obj.c **** 
 3291              		.loc 1 498 0
 3292 0054 4246     		mov	r2, r8
 3293 0056 3946     		mov	r1, r7
 3294 0058 2046     		mov	r0, r4
 3295 005a FFF7FEFF 		bl	lv_obj_set_pos
 3296              	.LVL506:
 501:..\lvgl\lv_core/lv_obj.c **** 
 3297              		.loc 1 501 0
 3298 005e B369     		ldr	r3, [r6, #24]
 3299 0060 0022     		movs	r2, #0
 3300 0062 0121     		movs	r1, #1
 3301 0064 3046     		mov	r0, r6
 3302 0066 9847     		blx	r3
 3303              	.LVL507:
 504:..\lvgl\lv_core/lv_obj.c **** 
 3304              		.loc 1 504 0
 3305 0068 AB69     		ldr	r3, [r5, #24]
 3306 006a 2246     		mov	r2, r4
 3307 006c 0121     		movs	r1, #1
 3308 006e 2846     		mov	r0, r5
 3309 0070 9847     		blx	r3
 3310              	.LVL508:
 506:..\lvgl\lv_core/lv_obj.c **** }
 3311              		.loc 1 506 0
 3312 0072 2046     		mov	r0, r4
 3313 0074 FFF7FEFF 		bl	lv_obj_invalidate
 3314              	.LVL509:
 3315 0078 BDE8F081 		pop	{r4, r5, r6, r7, r8, pc}
 3316              	.LVL510:
 3317              	.L200:
 3318              		.align	2
 3319              	.L199:
 3320 007c 84000000 		.word	.LC6
 3321 0080 18000000 		.word	.LC1
 3322 0084 A8000000 		.word	.LC7
 3323              		.cfi_endproc
 3324              	.LFE18:
 3325              		.size	lv_obj_set_parent, .-lv_obj_set_parent
 3326              		.section	.text.lv_obj_set_size,"ax",%progbits
 3327              		.align	2
 3328              		.global	lv_obj_set_size
 3329              		.thumb
 3330              		.thumb_func
 3331              		.type	lv_obj_set_size, %function
 3332              	lv_obj_set_size:
 3333              	.LFB22:
 589:..\lvgl\lv_core/lv_obj.c **** 
 3334              		.loc 1 589 0
 3335              		.cfi_startproc
 3336              		@ args = 0, pretend = 0, frame = 8
 3337              		@ frame_needed = 0, uses_anonymous_args = 0
 3338              	.LVL511:
 3339 0000 70B5     		push	{r4, r5, r6, lr}
 3340              		.cfi_def_cfa_offset 16
 3341              		.cfi_offset 4, -16
ARM GAS  C:\Users\d3bug\AppData\Local\Temp\ccFiAZjI.s 			page 104


 3342              		.cfi_offset 5, -12
 3343              		.cfi_offset 6, -8
 3344              		.cfi_offset 14, -4
 3345 0002 82B0     		sub	sp, sp, #8
 3346              		.cfi_def_cfa_offset 24
 3347 0004 0446     		mov	r4, r0
 3348 0006 0D46     		mov	r5, r1
 3349 0008 1646     		mov	r6, r2
 594:..\lvgl\lv_core/lv_obj.c ****         return;
 3350              		.loc 1 594 0
 3351 000a FFF7FEFF 		bl	lv_obj_get_width
 3352              	.LVL512:
 3353 000e A842     		cmp	r0, r5
 3354 0010 04D1     		bne	.L202
 594:..\lvgl\lv_core/lv_obj.c ****         return;
 3355              		.loc 1 594 0 is_stmt 0 discriminator 1
 3356 0012 2046     		mov	r0, r4
 3357 0014 FFF7FEFF 		bl	lv_obj_get_height
 3358              	.LVL513:
 3359 0018 B042     		cmp	r0, r6
 3360 001a 28D0     		beq	.L201
 3361              	.L202:
 599:..\lvgl\lv_core/lv_obj.c **** 
 3362              		.loc 1 599 0 is_stmt 1
 3363 001c 2046     		mov	r0, r4
 3364 001e FFF7FEFF 		bl	lv_obj_invalidate
 3365              	.LVL514:
 603:..\lvgl\lv_core/lv_obj.c **** 
 3366              		.loc 1 603 0
 3367 0022 6946     		mov	r1, sp
 3368 0024 2046     		mov	r0, r4
 3369 0026 FFF7FEFF 		bl	lv_obj_get_coords
 3370              	.LVL515:
 606:..\lvgl\lv_core/lv_obj.c ****     obj->coords.y2 = obj->coords.y1 + h - 1;
 3371              		.loc 1 606 0
 3372 002a B4F91030 		ldrsh	r3, [r4, #16]
 3373 002e 1D44     		add	r5, r5, r3
 3374 0030 013D     		subs	r5, r5, #1
 3375 0032 A582     		strh	r5, [r4, #20]	@ movhi
 607:..\lvgl\lv_core/lv_obj.c **** 
 3376              		.loc 1 607 0
 3377 0034 B4F91230 		ldrsh	r3, [r4, #18]
 3378 0038 1E44     		add	r6, r6, r3
 3379 003a 013E     		subs	r6, r6, #1
 3380 003c E682     		strh	r6, [r4, #22]	@ movhi
 611:..\lvgl\lv_core/lv_obj.c **** 
 3381              		.loc 1 611 0
 3382 003e A369     		ldr	r3, [r4, #24]
 3383 0040 6A46     		mov	r2, sp
 3384 0042 0221     		movs	r1, #2
 3385 0044 2046     		mov	r0, r4
 3386 0046 9847     		blx	r3
 3387              	.LVL516:
 614:..\lvgl\lv_core/lv_obj.c ****     if(par != NULL) par->signal_func(par, LV_SIGNAL_CHILD_CHG, obj);
 3388              		.loc 1 614 0
 3389 0048 2046     		mov	r0, r4
 3390 004a FFF7FEFF 		bl	lv_obj_get_parent
ARM GAS  C:\Users\d3bug\AppData\Local\Temp\ccFiAZjI.s 			page 105


 3391              	.LVL517:
 615:..\lvgl\lv_core/lv_obj.c **** 
 3392              		.loc 1 615 0
 3393 004e 18B1     		cbz	r0, .L204
 615:..\lvgl\lv_core/lv_obj.c **** 
 3394              		.loc 1 615 0 is_stmt 0 discriminator 1
 3395 0050 8569     		ldr	r5, [r0, #24]
 3396 0052 2246     		mov	r2, r4
 3397 0054 0121     		movs	r1, #1
 3398 0056 A847     		blx	r5
 3399              	.LVL518:
 3400              	.L204:
 618:..\lvgl\lv_core/lv_obj.c **** 
 3401              		.loc 1 618 0 is_stmt 1
 3402 0058 2046     		mov	r0, r4
 3403 005a FFF7FEFF 		bl	lv_obj_invalidate
 3404              	.LVL519:
 622:..\lvgl\lv_core/lv_obj.c **** #endif
 3405              		.loc 1 622 0
 3406 005e 94F83D30 		ldrb	r3, [r4, #61]	@ zero_extendqisi2
 3407 0062 13F0010F 		tst	r3, #1
 3408 0066 02D0     		beq	.L201
 622:..\lvgl\lv_core/lv_obj.c **** #endif
 3409              		.loc 1 622 0 is_stmt 0 discriminator 1
 3410 0068 2046     		mov	r0, r4
 3411 006a FFF7FEFF 		bl	lv_obj_realign
 3412              	.LVL520:
 3413              	.L201:
 624:..\lvgl\lv_core/lv_obj.c **** 
 3414              		.loc 1 624 0 is_stmt 1
 3415 006e 02B0     		add	sp, sp, #8
 3416              		.cfi_def_cfa_offset 16
 3417              		@ sp needed
 3418 0070 70BD     		pop	{r4, r5, r6, pc}
 3419              		.cfi_endproc
 3420              	.LFE22:
 3421              		.size	lv_obj_set_size, .-lv_obj_set_size
 3422 0072 00BF     		.section	.text.lv_obj_set_width,"ax",%progbits
 3423              		.align	2
 3424              		.global	lv_obj_set_width
 3425              		.thumb
 3426              		.thumb_func
 3427              		.type	lv_obj_set_width, %function
 3428              	lv_obj_set_width:
 3429              	.LFB23:
 632:..\lvgl\lv_core/lv_obj.c ****     lv_obj_set_size(obj, w, lv_obj_get_height(obj));
 3430              		.loc 1 632 0
 3431              		.cfi_startproc
 3432              		@ args = 0, pretend = 0, frame = 0
 3433              		@ frame_needed = 0, uses_anonymous_args = 0
 3434              	.LVL521:
 3435 0000 38B5     		push	{r3, r4, r5, lr}
 3436              		.cfi_def_cfa_offset 16
 3437              		.cfi_offset 3, -16
 3438              		.cfi_offset 4, -12
 3439              		.cfi_offset 5, -8
 3440              		.cfi_offset 14, -4
ARM GAS  C:\Users\d3bug\AppData\Local\Temp\ccFiAZjI.s 			page 106


 3441 0002 0446     		mov	r4, r0
 3442 0004 0D46     		mov	r5, r1
 633:..\lvgl\lv_core/lv_obj.c **** }
 3443              		.loc 1 633 0
 3444 0006 FFF7FEFF 		bl	lv_obj_get_height
 3445              	.LVL522:
 3446 000a 0246     		mov	r2, r0
 3447 000c 2946     		mov	r1, r5
 3448 000e 2046     		mov	r0, r4
 3449 0010 FFF7FEFF 		bl	lv_obj_set_size
 3450              	.LVL523:
 3451 0014 38BD     		pop	{r3, r4, r5, pc}
 3452              		.cfi_endproc
 3453              	.LFE23:
 3454              		.size	lv_obj_set_width, .-lv_obj_set_width
 3455 0016 00BF     		.section	.text.lv_obj_set_height,"ax",%progbits
 3456              		.align	2
 3457              		.global	lv_obj_set_height
 3458              		.thumb
 3459              		.thumb_func
 3460              		.type	lv_obj_set_height, %function
 3461              	lv_obj_set_height:
 3462              	.LFB24:
 642:..\lvgl\lv_core/lv_obj.c ****     lv_obj_set_size(obj, lv_obj_get_width(obj), h);
 3463              		.loc 1 642 0
 3464              		.cfi_startproc
 3465              		@ args = 0, pretend = 0, frame = 0
 3466              		@ frame_needed = 0, uses_anonymous_args = 0
 3467              	.LVL524:
 3468 0000 38B5     		push	{r3, r4, r5, lr}
 3469              		.cfi_def_cfa_offset 16
 3470              		.cfi_offset 3, -16
 3471              		.cfi_offset 4, -12
 3472              		.cfi_offset 5, -8
 3473              		.cfi_offset 14, -4
 3474 0002 0446     		mov	r4, r0
 3475 0004 0D46     		mov	r5, r1
 643:..\lvgl\lv_core/lv_obj.c **** }
 3476              		.loc 1 643 0
 3477 0006 FFF7FEFF 		bl	lv_obj_get_width
 3478              	.LVL525:
 3479 000a 2A46     		mov	r2, r5
 3480 000c 0146     		mov	r1, r0
 3481 000e 2046     		mov	r0, r4
 3482 0010 FFF7FEFF 		bl	lv_obj_set_size
 3483              	.LVL526:
 3484 0014 38BD     		pop	{r3, r4, r5, pc}
 3485              		.cfi_endproc
 3486              	.LFE24:
 3487              		.size	lv_obj_set_height, .-lv_obj_set_height
 3488 0016 00BF     		.section	.text.lv_obj_refresh_style,"ax",%progbits
 3489              		.align	2
 3490              		.global	lv_obj_refresh_style
 3491              		.thumb
 3492              		.thumb_func
 3493              		.type	lv_obj_refresh_style, %function
 3494              	lv_obj_refresh_style:
ARM GAS  C:\Users\d3bug\AppData\Local\Temp\ccFiAZjI.s 			page 107


 3495              	.LFB30:
 995:..\lvgl\lv_core/lv_obj.c ****     lv_obj_invalidate(obj);
 3496              		.loc 1 995 0
 3497              		.cfi_startproc
 3498              		@ args = 0, pretend = 0, frame = 0
 3499              		@ frame_needed = 0, uses_anonymous_args = 0
 3500              	.LVL527:
 3501 0000 10B5     		push	{r4, lr}
 3502              		.cfi_def_cfa_offset 8
 3503              		.cfi_offset 4, -8
 3504              		.cfi_offset 14, -4
 3505 0002 0446     		mov	r4, r0
 996:..\lvgl\lv_core/lv_obj.c ****     obj->signal_func(obj, LV_SIGNAL_STYLE_CHG, NULL);
 3506              		.loc 1 996 0
 3507 0004 FFF7FEFF 		bl	lv_obj_invalidate
 3508              	.LVL528:
 997:..\lvgl\lv_core/lv_obj.c ****     lv_obj_invalidate(obj);
 3509              		.loc 1 997 0
 3510 0008 A369     		ldr	r3, [r4, #24]
 3511 000a 0022     		movs	r2, #0
 3512 000c 0321     		movs	r1, #3
 3513 000e 2046     		mov	r0, r4
 3514 0010 9847     		blx	r3
 3515              	.LVL529:
 998:..\lvgl\lv_core/lv_obj.c **** 
 3516              		.loc 1 998 0
 3517 0012 2046     		mov	r0, r4
 3518 0014 FFF7FEFF 		bl	lv_obj_invalidate
 3519              	.LVL530:
 3520 0018 10BD     		pop	{r4, pc}
 3521              		.cfi_endproc
 3522              	.LFE30:
 3523              		.size	lv_obj_refresh_style, .-lv_obj_refresh_style
 3524 001a 00BF     		.section	.text.refresh_childen_style,"ax",%progbits
 3525              		.align	2
 3526              		.thumb
 3527              		.thumb_func
 3528              		.type	refresh_childen_style, %function
 3529              	refresh_childen_style:
 3530              	.LFB84:
1906:..\lvgl\lv_core/lv_obj.c ****     lv_obj_t * child = lv_obj_get_child(obj, NULL);
 3531              		.loc 1 1906 0
 3532              		.cfi_startproc
 3533              		@ args = 0, pretend = 0, frame = 0
 3534              		@ frame_needed = 0, uses_anonymous_args = 0
 3535              	.LVL531:
 3536 0000 38B5     		push	{r3, r4, r5, lr}
 3537              		.cfi_def_cfa_offset 16
 3538              		.cfi_offset 3, -16
 3539              		.cfi_offset 4, -12
 3540              		.cfi_offset 5, -8
 3541              		.cfi_offset 14, -4
 3542 0002 0546     		mov	r5, r0
1907:..\lvgl\lv_core/lv_obj.c ****     while(child != NULL) {
 3543              		.loc 1 1907 0
 3544 0004 0021     		movs	r1, #0
 3545 0006 FFF7FEFF 		bl	lv_obj_get_child
ARM GAS  C:\Users\d3bug\AppData\Local\Temp\ccFiAZjI.s 			page 108


 3546              	.LVL532:
 3547 000a 0446     		mov	r4, r0
 3548              	.LVL533:
1908:..\lvgl\lv_core/lv_obj.c ****         if(child->style_p == NULL) {
 3549              		.loc 1 1908 0
 3550 000c 14E0     		b	.L215
 3551              	.L218:
1909:..\lvgl\lv_core/lv_obj.c ****             refresh_childen_style(child);     /*Check children too*/
 3552              		.loc 1 1909 0
 3553 000e 636A     		ldr	r3, [r4, #36]
 3554 0010 33B9     		cbnz	r3, .L216
1910:..\lvgl\lv_core/lv_obj.c ****             lv_obj_refresh_style(child);       /*Notify the child about the style change*/
 3555              		.loc 1 1910 0
 3556 0012 2046     		mov	r0, r4
 3557 0014 FFF7F4FF 		bl	refresh_childen_style
 3558              	.LVL534:
1911:..\lvgl\lv_core/lv_obj.c ****         } else if(child->style_p->glass) {
 3559              		.loc 1 1911 0
 3560 0018 2046     		mov	r0, r4
 3561 001a FFF7FEFF 		bl	lv_obj_refresh_style
 3562              	.LVL535:
 3563 001e 06E0     		b	.L217
 3564              	.LVL536:
 3565              	.L216:
1912:..\lvgl\lv_core/lv_obj.c ****             /*Children with 'glass' parent might be effected if their style == NULL*/
 3566              		.loc 1 1912 0
 3567 0020 1B78     		ldrb	r3, [r3]	@ zero_extendqisi2
 3568 0022 13F0010F 		tst	r3, #1
 3569 0026 02D0     		beq	.L217
1914:..\lvgl\lv_core/lv_obj.c ****         }
 3570              		.loc 1 1914 0
 3571 0028 2046     		mov	r0, r4
 3572              	.LVL537:
 3573 002a FFF7E9FF 		bl	refresh_childen_style
 3574              	.LVL538:
 3575              	.L217:
1916:..\lvgl\lv_core/lv_obj.c ****     }
 3576              		.loc 1 1916 0
 3577 002e 2146     		mov	r1, r4
 3578 0030 2846     		mov	r0, r5
 3579 0032 FFF7FEFF 		bl	lv_obj_get_child
 3580              	.LVL539:
 3581 0036 0446     		mov	r4, r0
 3582              	.LVL540:
 3583              	.L215:
1908:..\lvgl\lv_core/lv_obj.c ****         if(child->style_p == NULL) {
 3584              		.loc 1 1908 0
 3585 0038 002C     		cmp	r4, #0
 3586 003a E8D1     		bne	.L218
1918:..\lvgl\lv_core/lv_obj.c **** 
 3587              		.loc 1 1918 0
 3588 003c 38BD     		pop	{r3, r4, r5, pc}
 3589              		.cfi_endproc
 3590              	.LFE84:
 3591              		.size	refresh_childen_style, .-refresh_childen_style
 3592 003e 00BF     		.section	.text.lv_obj_set_style,"ax",%progbits
 3593              		.align	2
ARM GAS  C:\Users\d3bug\AppData\Local\Temp\ccFiAZjI.s 			page 109


 3594              		.global	lv_obj_set_style
 3595              		.thumb
 3596              		.thumb_func
 3597              		.type	lv_obj_set_style, %function
 3598              	lv_obj_set_style:
 3599              	.LFB29:
 980:..\lvgl\lv_core/lv_obj.c ****     obj->style_p = style;
 3600              		.loc 1 980 0
 3601              		.cfi_startproc
 3602              		@ args = 0, pretend = 0, frame = 0
 3603              		@ frame_needed = 0, uses_anonymous_args = 0
 3604              	.LVL541:
 3605 0000 10B5     		push	{r4, lr}
 3606              		.cfi_def_cfa_offset 8
 3607              		.cfi_offset 4, -8
 3608              		.cfi_offset 14, -4
 3609 0002 0446     		mov	r4, r0
 981:..\lvgl\lv_core/lv_obj.c **** 
 3610              		.loc 1 981 0
 3611 0004 4162     		str	r1, [r0, #36]
 984:..\lvgl\lv_core/lv_obj.c **** 
 3612              		.loc 1 984 0
 3613 0006 FFF7FEFF 		bl	refresh_childen_style
 3614              	.LVL542:
 987:..\lvgl\lv_core/lv_obj.c **** }
 3615              		.loc 1 987 0
 3616 000a 2046     		mov	r0, r4
 3617 000c FFF7FEFF 		bl	lv_obj_refresh_style
 3618              	.LVL543:
 3619 0010 10BD     		pop	{r4, pc}
 3620              		.cfi_endproc
 3621              	.LFE29:
 3622              		.size	lv_obj_set_style, .-lv_obj_set_style
 3623 0012 00BF     		.section	.text.report_style_mod_core,"ax",%progbits
 3624              		.align	2
 3625              		.thumb
 3626              		.thumb_func
 3627              		.type	report_style_mod_core, %function
 3628              	report_style_mod_core:
 3629              	.LFB83:
1888:..\lvgl\lv_core/lv_obj.c ****     lv_obj_t * i;
 3630              		.loc 1 1888 0
 3631              		.cfi_startproc
 3632              		@ args = 0, pretend = 0, frame = 0
 3633              		@ frame_needed = 0, uses_anonymous_args = 0
 3634              	.LVL544:
 3635 0000 70B5     		push	{r4, r5, r6, lr}
 3636              		.cfi_def_cfa_offset 16
 3637              		.cfi_offset 4, -16
 3638              		.cfi_offset 5, -12
 3639              		.cfi_offset 6, -8
 3640              		.cfi_offset 14, -4
 3641 0002 0546     		mov	r5, r0
1890:..\lvgl\lv_core/lv_obj.c ****         if(i->style_p == style_p || style_p == NULL) {
 3642              		.loc 1 1890 0
 3643 0004 0E1D     		adds	r6, r1, #4
 3644 0006 3046     		mov	r0, r6
ARM GAS  C:\Users\d3bug\AppData\Local\Temp\ccFiAZjI.s 			page 110


 3645              	.LVL545:
 3646 0008 FFF7FEFF 		bl	lv_ll_get_head
 3647              	.LVL546:
 3648 000c 0446     		mov	r4, r0
 3649              	.LVL547:
 3650 000e 12E0     		b	.L223
 3651              	.L226:
1891:..\lvgl\lv_core/lv_obj.c ****             refresh_childen_style(i);
 3652              		.loc 1 1891 0
 3653 0010 636A     		ldr	r3, [r4, #36]
 3654 0012 AB42     		cmp	r3, r5
 3655 0014 00D0     		beq	.L224
1891:..\lvgl\lv_core/lv_obj.c ****             refresh_childen_style(i);
 3656              		.loc 1 1891 0 is_stmt 0 discriminator 1
 3657 0016 2DB9     		cbnz	r5, .L225
 3658              	.L224:
1892:..\lvgl\lv_core/lv_obj.c ****             lv_obj_refresh_style(i);
 3659              		.loc 1 1892 0 is_stmt 1
 3660 0018 2046     		mov	r0, r4
 3661              	.LVL548:
 3662 001a FFF7FEFF 		bl	refresh_childen_style
 3663              	.LVL549:
1893:..\lvgl\lv_core/lv_obj.c ****         }
 3664              		.loc 1 1893 0
 3665 001e 2046     		mov	r0, r4
 3666 0020 FFF7FEFF 		bl	lv_obj_refresh_style
 3667              	.LVL550:
 3668              	.L225:
1896:..\lvgl\lv_core/lv_obj.c ****     }
 3669              		.loc 1 1896 0 discriminator 2
 3670 0024 2146     		mov	r1, r4
 3671 0026 2846     		mov	r0, r5
 3672 0028 FFF7EAFF 		bl	report_style_mod_core
 3673              	.LVL551:
1890:..\lvgl\lv_core/lv_obj.c ****         if(i->style_p == style_p || style_p == NULL) {
 3674              		.loc 1 1890 0 discriminator 2
 3675 002c 2146     		mov	r1, r4
 3676 002e 3046     		mov	r0, r6
 3677 0030 FFF7FEFF 		bl	lv_ll_get_next
 3678              	.LVL552:
 3679 0034 0446     		mov	r4, r0
 3680              	.LVL553:
 3681              	.L223:
1890:..\lvgl\lv_core/lv_obj.c ****         if(i->style_p == style_p || style_p == NULL) {
 3682              		.loc 1 1890 0 is_stmt 0 discriminator 1
 3683 0036 002C     		cmp	r4, #0
 3684 0038 EAD1     		bne	.L226
1898:..\lvgl\lv_core/lv_obj.c **** 
 3685              		.loc 1 1898 0 is_stmt 1
 3686 003a 70BD     		pop	{r4, r5, r6, pc}
 3687              		.cfi_endproc
 3688              	.LFE83:
 3689              		.size	report_style_mod_core, .-report_style_mod_core
 3690              		.section	.text.lv_obj_report_style_mod,"ax",%progbits
 3691              		.align	2
 3692              		.global	lv_obj_report_style_mod
 3693              		.thumb
ARM GAS  C:\Users\d3bug\AppData\Local\Temp\ccFiAZjI.s 			page 111


 3694              		.thumb_func
 3695              		.type	lv_obj_report_style_mod, %function
 3696              	lv_obj_report_style_mod:
 3697              	.LFB31:
1008:..\lvgl\lv_core/lv_obj.c ****     lv_obj_t * i;
 3698              		.loc 1 1008 0
 3699              		.cfi_startproc
 3700              		@ args = 0, pretend = 0, frame = 0
 3701              		@ frame_needed = 0, uses_anonymous_args = 0
 3702              	.LVL554:
 3703 0000 38B5     		push	{r3, r4, r5, lr}
 3704              		.cfi_def_cfa_offset 16
 3705              		.cfi_offset 3, -16
 3706              		.cfi_offset 4, -12
 3707              		.cfi_offset 5, -8
 3708              		.cfi_offset 14, -4
 3709 0002 0546     		mov	r5, r0
1010:..\lvgl\lv_core/lv_obj.c ****         if(i->style_p == style || style == NULL) {
 3710              		.loc 1 1010 0
 3711 0004 0B48     		ldr	r0, .L234
 3712              	.LVL555:
 3713 0006 FFF7FEFF 		bl	lv_ll_get_head
 3714              	.LVL556:
 3715 000a 0446     		mov	r4, r0
 3716              	.LVL557:
 3717 000c 0FE0     		b	.L229
 3718              	.L232:
1011:..\lvgl\lv_core/lv_obj.c ****             lv_obj_refresh_style(i);
 3719              		.loc 1 1011 0
 3720 000e 636A     		ldr	r3, [r4, #36]
 3721 0010 AB42     		cmp	r3, r5
 3722 0012 00D0     		beq	.L230
1011:..\lvgl\lv_core/lv_obj.c ****             lv_obj_refresh_style(i);
 3723              		.loc 1 1011 0 is_stmt 0 discriminator 1
 3724 0014 15B9     		cbnz	r5, .L231
 3725              	.L230:
1012:..\lvgl\lv_core/lv_obj.c ****         }
 3726              		.loc 1 1012 0 is_stmt 1
 3727 0016 2046     		mov	r0, r4
 3728              	.LVL558:
 3729 0018 FFF7FEFF 		bl	lv_obj_refresh_style
 3730              	.LVL559:
 3731              	.L231:
1015:..\lvgl\lv_core/lv_obj.c ****     }
 3732              		.loc 1 1015 0 discriminator 2
 3733 001c 2146     		mov	r1, r4
 3734 001e 2846     		mov	r0, r5
 3735 0020 FFF7FEFF 		bl	report_style_mod_core
 3736              	.LVL560:
1010:..\lvgl\lv_core/lv_obj.c ****         if(i->style_p == style || style == NULL) {
 3737              		.loc 1 1010 0 discriminator 2
 3738 0024 2146     		mov	r1, r4
 3739 0026 0348     		ldr	r0, .L234
 3740 0028 FFF7FEFF 		bl	lv_ll_get_next
 3741              	.LVL561:
 3742 002c 0446     		mov	r4, r0
 3743              	.LVL562:
ARM GAS  C:\Users\d3bug\AppData\Local\Temp\ccFiAZjI.s 			page 112


 3744              	.L229:
1010:..\lvgl\lv_core/lv_obj.c ****         if(i->style_p == style || style == NULL) {
 3745              		.loc 1 1010 0 is_stmt 0 discriminator 1
 3746 002e 002C     		cmp	r4, #0
 3747 0030 EDD1     		bne	.L232
1017:..\lvgl\lv_core/lv_obj.c **** 
 3748              		.loc 1 1017 0 is_stmt 1
 3749 0032 38BD     		pop	{r3, r4, r5, pc}
 3750              	.LVL563:
 3751              	.L235:
 3752              		.align	2
 3753              	.L234:
 3754 0034 00000000 		.word	_lv_scr_ll
 3755              		.cfi_endproc
 3756              	.LFE31:
 3757              		.size	lv_obj_report_style_mod, .-lv_obj_report_style_mod
 3758              		.section	.text.lv_init,"ax",%progbits
 3759              		.align	2
 3760              		.global	lv_init
 3761              		.thumb
 3762              		.thumb_func
 3763              		.type	lv_init, %function
 3764              	lv_init:
 3765              	.LFB12:
  64:..\lvgl\lv_core/lv_obj.c ****     LV_GC_ROOT(_lv_def_scr) = NULL;
 3766              		.loc 1 64 0
 3767              		.cfi_startproc
 3768              		@ args = 0, pretend = 0, frame = 0
 3769              		@ frame_needed = 0, uses_anonymous_args = 0
 3770 0000 2DE9F843 		push	{r3, r4, r5, r6, r7, r8, r9, lr}
 3771              		.cfi_def_cfa_offset 32
 3772              		.cfi_offset 3, -32
 3773              		.cfi_offset 4, -28
 3774              		.cfi_offset 5, -24
 3775              		.cfi_offset 6, -20
 3776              		.cfi_offset 7, -16
 3777              		.cfi_offset 8, -12
 3778              		.cfi_offset 9, -8
 3779              		.cfi_offset 14, -4
  65:..\lvgl\lv_core/lv_obj.c ****     LV_GC_ROOT(_lv_act_scr) = NULL;
 3780              		.loc 1 65 0
 3781 0004 DFF8B890 		ldr	r9, .L238+36
 3782 0008 0024     		movs	r4, #0
 3783 000a C9F80040 		str	r4, [r9]
  66:..\lvgl\lv_core/lv_obj.c ****     LV_GC_ROOT(_lv_top_layer) = NULL;
 3784              		.loc 1 66 0
 3785 000e 234D     		ldr	r5, .L238
 3786 0010 2C60     		str	r4, [r5]
  67:..\lvgl\lv_core/lv_obj.c ****     LV_GC_ROOT(_lv_sys_layer) = NULL;
 3787              		.loc 1 67 0
 3788 0012 234F     		ldr	r7, .L238+4
 3789 0014 3C60     		str	r4, [r7]
  68:..\lvgl\lv_core/lv_obj.c ****     LV_GC_ROOT(_lv_disp_list) = NULL;
 3790              		.loc 1 68 0
 3791 0016 DFF8AC80 		ldr	r8, .L238+40
 3792 001a C8F80040 		str	r4, [r8]
  69:..\lvgl\lv_core/lv_obj.c ****     LV_GC_ROOT(_lv_indev_list) = NULL;
ARM GAS  C:\Users\d3bug\AppData\Local\Temp\ccFiAZjI.s 			page 113


 3793              		.loc 1 69 0
 3794 001e 214B     		ldr	r3, .L238+8
 3795 0020 1C60     		str	r4, [r3]
  70:..\lvgl\lv_core/lv_obj.c **** 
 3796              		.loc 1 70 0
 3797 0022 214B     		ldr	r3, .L238+12
 3798 0024 1C60     		str	r4, [r3]
  72:..\lvgl\lv_core/lv_obj.c **** 
 3799              		.loc 1 72 0
 3800 0026 214E     		ldr	r6, .L238+16
 3801 0028 214B     		ldr	r3, .L238+20
 3802 002a 4822     		movs	r2, #72
 3803 002c 3146     		mov	r1, r6
 3804 002e 2046     		mov	r0, r4
 3805 0030 FFF7FEFF 		bl	lv_log_add
 3806              	.LVL564:
  75:..\lvgl\lv_core/lv_obj.c ****     lv_task_init();
 3807              		.loc 1 75 0
 3808 0034 FFF7FEFF 		bl	lv_mem_init
 3809              	.LVL565:
  76:..\lvgl\lv_core/lv_obj.c **** 
 3810              		.loc 1 76 0
 3811 0038 FFF7FEFF 		bl	lv_task_init
 3812              	.LVL566:
  83:..\lvgl\lv_core/lv_obj.c **** #if USE_LV_ANIMATION
 3813              		.loc 1 83 0
 3814 003c FFF7FEFF 		bl	lv_font_init
 3815              	.LVL567:
  89:..\lvgl\lv_core/lv_obj.c **** 
 3816              		.loc 1 89 0
 3817 0040 FFF7FEFF 		bl	lv_style_init
 3818              	.LVL568:
  92:..\lvgl\lv_core/lv_obj.c **** 
 3819              		.loc 1 92 0
 3820 0044 FFF7FEFF 		bl	lv_refr_init
 3821              	.LVL569:
  95:..\lvgl\lv_core/lv_obj.c ****     LV_GC_ROOT(_lv_def_scr) = lv_obj_create(NULL, NULL);
 3822              		.loc 1 95 0
 3823 0048 4421     		movs	r1, #68
 3824 004a 1A48     		ldr	r0, .L238+24
 3825 004c FFF7FEFF 		bl	lv_ll_init
 3826              	.LVL570:
  96:..\lvgl\lv_core/lv_obj.c **** 
 3827              		.loc 1 96 0
 3828 0050 2146     		mov	r1, r4
 3829 0052 2046     		mov	r0, r4
 3830 0054 FFF7FEFF 		bl	lv_obj_create
 3831              	.LVL571:
 3832 0058 C9F80000 		str	r0, [r9]
  98:..\lvgl\lv_core/lv_obj.c **** 
 3833              		.loc 1 98 0
 3834 005c 2860     		str	r0, [r5]
 100:..\lvgl\lv_core/lv_obj.c ****     lv_obj_set_style(LV_GC_ROOT(_lv_top_layer), &lv_style_transp_fit);
 3835              		.loc 1 100 0
 3836 005e 2146     		mov	r1, r4
 3837 0060 2046     		mov	r0, r4
 3838 0062 FFF7FEFF 		bl	lv_obj_create
ARM GAS  C:\Users\d3bug\AppData\Local\Temp\ccFiAZjI.s 			page 114


 3839              	.LVL572:
 3840 0066 3860     		str	r0, [r7]
 101:..\lvgl\lv_core/lv_obj.c **** 
 3841              		.loc 1 101 0
 3842 0068 134F     		ldr	r7, .L238+28
 3843 006a 3946     		mov	r1, r7
 3844 006c FFF7FEFF 		bl	lv_obj_set_style
 3845              	.LVL573:
 103:..\lvgl\lv_core/lv_obj.c ****     lv_obj_set_style(LV_GC_ROOT(_lv_sys_layer), &lv_style_transp_fit);
 3846              		.loc 1 103 0
 3847 0070 2146     		mov	r1, r4
 3848 0072 2046     		mov	r0, r4
 3849 0074 FFF7FEFF 		bl	lv_obj_create
 3850              	.LVL574:
 3851 0078 C8F80000 		str	r0, [r8]
 104:..\lvgl\lv_core/lv_obj.c **** 
 3852              		.loc 1 104 0
 3853 007c 3946     		mov	r1, r7
 3854 007e FFF7FEFF 		bl	lv_obj_set_style
 3855              	.LVL575:
 107:..\lvgl\lv_core/lv_obj.c **** 
 3856              		.loc 1 107 0
 3857 0082 2868     		ldr	r0, [r5]
 3858 0084 FFF7FEFF 		bl	lv_obj_invalidate
 3859              	.LVL576:
 111:..\lvgl\lv_core/lv_obj.c **** #endif
 3860              		.loc 1 111 0
 3861 0088 FFF7FEFF 		bl	lv_indev_init
 3862              	.LVL577:
 115:..\lvgl\lv_core/lv_obj.c **** }
 3863              		.loc 1 115 0
 3864 008c 0B4B     		ldr	r3, .L238+32
 3865 008e 7322     		movs	r2, #115
 3866 0090 3146     		mov	r1, r6
 3867 0092 0120     		movs	r0, #1
 3868 0094 FFF7FEFF 		bl	lv_log_add
 3869              	.LVL578:
 3870 0098 BDE8F883 		pop	{r3, r4, r5, r6, r7, r8, r9, pc}
 3871              	.L239:
 3872              		.align	2
 3873              	.L238:
 3874 009c 00000000 		.word	_lv_act_scr
 3875 00a0 00000000 		.word	_lv_top_layer
 3876 00a4 00000000 		.word	_lv_disp_list
 3877 00a8 00000000 		.word	_lv_indev_list
 3878 00ac 18000000 		.word	.LC1
 3879 00b0 D0000000 		.word	.LC8
 3880 00b4 00000000 		.word	_lv_scr_ll
 3881 00b8 00000000 		.word	lv_style_transp_fit
 3882 00bc E0000000 		.word	.LC9
 3883 00c0 00000000 		.word	_lv_def_scr
 3884 00c4 00000000 		.word	_lv_sys_layer
 3885              		.cfi_endproc
 3886              	.LFE12:
 3887              		.size	lv_init, .-lv_init
 3888              		.section	.text.lv_obj_set_hidden,"ax",%progbits
 3889              		.align	2
ARM GAS  C:\Users\d3bug\AppData\Local\Temp\ccFiAZjI.s 			page 115


 3890              		.global	lv_obj_set_hidden
 3891              		.thumb
 3892              		.thumb_func
 3893              		.type	lv_obj_set_hidden, %function
 3894              	lv_obj_set_hidden:
 3895              	.LFB32:
1029:..\lvgl\lv_core/lv_obj.c ****     if(!obj->hidden) lv_obj_invalidate(obj);    /*Invalidate when not hidden (hidden objects are ig
 3896              		.loc 1 1029 0
 3897              		.cfi_startproc
 3898              		@ args = 0, pretend = 0, frame = 0
 3899              		@ frame_needed = 0, uses_anonymous_args = 0
 3900              	.LVL579:
 3901 0000 38B5     		push	{r3, r4, r5, lr}
 3902              		.cfi_def_cfa_offset 16
 3903              		.cfi_offset 3, -16
 3904              		.cfi_offset 4, -12
 3905              		.cfi_offset 5, -8
 3906              		.cfi_offset 14, -4
 3907 0002 0446     		mov	r4, r0
 3908 0004 0D46     		mov	r5, r1
1030:..\lvgl\lv_core/lv_obj.c **** 
 3909              		.loc 1 1030 0
 3910 0006 90F82C30 		ldrb	r3, [r0, #44]	@ zero_extendqisi2
 3911 000a 13F0100F 		tst	r3, #16
 3912 000e 01D1     		bne	.L241
1030:..\lvgl\lv_core/lv_obj.c **** 
 3913              		.loc 1 1030 0 is_stmt 0 discriminator 1
 3914 0010 FFF7FEFF 		bl	lv_obj_invalidate
 3915              	.LVL580:
 3916              	.L241:
1032:..\lvgl\lv_core/lv_obj.c **** 
 3917              		.loc 1 1032 0 is_stmt 1
 3918 0014 0DB9     		cbnz	r5, .L244
 3919 0016 0022     		movs	r2, #0
 3920 0018 00E0     		b	.L242
 3921              	.L244:
 3922 001a 0122     		movs	r2, #1
 3923              	.L242:
1032:..\lvgl\lv_core/lv_obj.c **** 
 3924              		.loc 1 1032 0 is_stmt 0 discriminator 4
 3925 001c 94F82C30 		ldrb	r3, [r4, #44]	@ zero_extendqisi2
 3926 0020 62F30413 		bfi	r3, r2, #4, #1
 3927 0024 84F82C30 		strb	r3, [r4, #44]
1034:..\lvgl\lv_core/lv_obj.c **** 
 3928              		.loc 1 1034 0 is_stmt 1 discriminator 4
 3929 0028 13F0100F 		tst	r3, #16
 3930 002c 02D1     		bne	.L243
1034:..\lvgl\lv_core/lv_obj.c **** 
 3931              		.loc 1 1034 0 is_stmt 0 discriminator 1
 3932 002e 2046     		mov	r0, r4
 3933 0030 FFF7FEFF 		bl	lv_obj_invalidate
 3934              	.LVL581:
 3935              	.L243:
1036:..\lvgl\lv_core/lv_obj.c ****     par->signal_func(par, LV_SIGNAL_CHILD_CHG, obj);
 3936              		.loc 1 1036 0 is_stmt 1
 3937 0034 2046     		mov	r0, r4
 3938 0036 FFF7FEFF 		bl	lv_obj_get_parent
ARM GAS  C:\Users\d3bug\AppData\Local\Temp\ccFiAZjI.s 			page 116


 3939              	.LVL582:
1037:..\lvgl\lv_core/lv_obj.c **** 
 3940              		.loc 1 1037 0
 3941 003a 8369     		ldr	r3, [r0, #24]
 3942 003c 2246     		mov	r2, r4
 3943 003e 0121     		movs	r1, #1
 3944 0040 9847     		blx	r3
 3945              	.LVL583:
 3946 0042 38BD     		pop	{r3, r4, r5, pc}
 3947              		.cfi_endproc
 3948              	.LFE32:
 3949              		.size	lv_obj_set_hidden, .-lv_obj_set_hidden
 3950              		.section	.text.lv_obj_set_opa_scale,"ax",%progbits
 3951              		.align	2
 3952              		.global	lv_obj_set_opa_scale
 3953              		.thumb
 3954              		.thumb_func
 3955              		.type	lv_obj_set_opa_scale, %function
 3956              	lv_obj_set_opa_scale:
 3957              	.LFB39:
1110:..\lvgl\lv_core/lv_obj.c ****     obj->opa_scale = opa_scale;
 3958              		.loc 1 1110 0
 3959              		.cfi_startproc
 3960              		@ args = 0, pretend = 0, frame = 0
 3961              		@ frame_needed = 0, uses_anonymous_args = 0
 3962              	.LVL584:
 3963 0000 08B5     		push	{r3, lr}
 3964              		.cfi_def_cfa_offset 8
 3965              		.cfi_offset 3, -8
 3966              		.cfi_offset 14, -4
1111:..\lvgl\lv_core/lv_obj.c ****     lv_obj_invalidate(obj);
 3967              		.loc 1 1111 0
 3968 0002 80F82E10 		strb	r1, [r0, #46]
1112:..\lvgl\lv_core/lv_obj.c **** }
 3969              		.loc 1 1112 0
 3970 0006 FFF7FEFF 		bl	lv_obj_invalidate
 3971              	.LVL585:
 3972 000a 08BD     		pop	{r3, pc}
 3973              		.cfi_endproc
 3974              	.LFE39:
 3975              		.size	lv_obj_set_opa_scale, .-lv_obj_set_opa_scale
 3976              		.section	.text.lv_obj_refresh_ext_size,"ax",%progbits
 3977              		.align	2
 3978              		.global	lv_obj_refresh_ext_size
 3979              		.thumb
 3980              		.thumb_func
 3981              		.type	lv_obj_refresh_ext_size, %function
 3982              	lv_obj_refresh_ext_size:
 3983              	.LFB45:
1179:..\lvgl\lv_core/lv_obj.c ****     obj->ext_size = 0;
 3984              		.loc 1 1179 0
 3985              		.cfi_startproc
 3986              		@ args = 0, pretend = 0, frame = 0
 3987              		@ frame_needed = 0, uses_anonymous_args = 0
 3988              	.LVL586:
 3989 0000 10B5     		push	{r4, lr}
 3990              		.cfi_def_cfa_offset 8
ARM GAS  C:\Users\d3bug\AppData\Local\Temp\ccFiAZjI.s 			page 117


 3991              		.cfi_offset 4, -8
 3992              		.cfi_offset 14, -4
 3993 0002 0446     		mov	r4, r0
1180:..\lvgl\lv_core/lv_obj.c ****     obj->signal_func(obj, LV_SIGNAL_REFR_EXT_SIZE, NULL);
 3994              		.loc 1 1180 0
 3995 0004 0022     		movs	r2, #0
 3996 0006 0286     		strh	r2, [r0, #48]	@ movhi
1181:..\lvgl\lv_core/lv_obj.c **** 
 3997              		.loc 1 1181 0
 3998 0008 8369     		ldr	r3, [r0, #24]
 3999 000a 0421     		movs	r1, #4
 4000 000c 9847     		blx	r3
 4001              	.LVL587:
1183:..\lvgl\lv_core/lv_obj.c **** }
 4002              		.loc 1 1183 0
 4003 000e 2046     		mov	r0, r4
 4004 0010 FFF7FEFF 		bl	lv_obj_invalidate
 4005              	.LVL588:
 4006 0014 10BD     		pop	{r4, pc}
 4007              		.cfi_endproc
 4008              	.LFE45:
 4009              		.size	lv_obj_refresh_ext_size, .-lv_obj_refresh_ext_size
 4010 0016 00BF     		.section	.text.lv_obj_get_click,"ax",%progbits
 4011              		.align	2
 4012              		.global	lv_obj_get_click
 4013              		.thumb
 4014              		.thumb_func
 4015              		.type	lv_obj_get_click, %function
 4016              	lv_obj_get_click:
 4017              	.LFB65:
1572:..\lvgl\lv_core/lv_obj.c ****     return obj->click == 0 ? false : true;
 4018              		.loc 1 1572 0
 4019              		.cfi_startproc
 4020              		@ args = 0, pretend = 0, frame = 0
 4021              		@ frame_needed = 0, uses_anonymous_args = 0
 4022              		@ link register save eliminated.
 4023              	.LVL589:
1573:..\lvgl\lv_core/lv_obj.c **** }
 4024              		.loc 1 1573 0
 4025 0000 90F82C00 		ldrb	r0, [r0, #44]	@ zero_extendqisi2
 4026              	.LVL590:
1574:..\lvgl\lv_core/lv_obj.c **** 
 4027              		.loc 1 1574 0
 4028 0004 00F00100 		and	r0, r0, #1
 4029 0008 7047     		bx	lr
 4030              		.cfi_endproc
 4031              	.LFE65:
 4032              		.size	lv_obj_get_click, .-lv_obj_get_click
 4033 000a 00BF     		.section	.text.lv_obj_get_top,"ax",%progbits
 4034              		.align	2
 4035              		.global	lv_obj_get_top
 4036              		.thumb
 4037              		.thumb_func
 4038              		.type	lv_obj_get_top, %function
 4039              	lv_obj_get_top:
 4040              	.LFB66:
1582:..\lvgl\lv_core/lv_obj.c ****     return obj->top == 0 ? false : true;
ARM GAS  C:\Users\d3bug\AppData\Local\Temp\ccFiAZjI.s 			page 118


 4041              		.loc 1 1582 0
 4042              		.cfi_startproc
 4043              		@ args = 0, pretend = 0, frame = 0
 4044              		@ frame_needed = 0, uses_anonymous_args = 0
 4045              		@ link register save eliminated.
 4046              	.LVL591:
1583:..\lvgl\lv_core/lv_obj.c **** }
 4047              		.loc 1 1583 0
 4048 0000 90F82C00 		ldrb	r0, [r0, #44]	@ zero_extendqisi2
 4049              	.LVL592:
1584:..\lvgl\lv_core/lv_obj.c **** 
 4050              		.loc 1 1584 0
 4051 0004 C0F34010 		ubfx	r0, r0, #5, #1
 4052 0008 7047     		bx	lr
 4053              		.cfi_endproc
 4054              	.LFE66:
 4055              		.size	lv_obj_get_top, .-lv_obj_get_top
 4056 000a 00BF     		.section	.text.lv_obj_get_drag,"ax",%progbits
 4057              		.align	2
 4058              		.global	lv_obj_get_drag
 4059              		.thumb
 4060              		.thumb_func
 4061              		.type	lv_obj_get_drag, %function
 4062              	lv_obj_get_drag:
 4063              	.LFB67:
1592:..\lvgl\lv_core/lv_obj.c ****     return obj->drag == 0 ? false : true;
 4064              		.loc 1 1592 0
 4065              		.cfi_startproc
 4066              		@ args = 0, pretend = 0, frame = 0
 4067              		@ frame_needed = 0, uses_anonymous_args = 0
 4068              		@ link register save eliminated.
 4069              	.LVL593:
1593:..\lvgl\lv_core/lv_obj.c **** }
 4070              		.loc 1 1593 0
 4071 0000 90F82C00 		ldrb	r0, [r0, #44]	@ zero_extendqisi2
 4072              	.LVL594:
1594:..\lvgl\lv_core/lv_obj.c **** 
 4073              		.loc 1 1594 0
 4074 0004 C0F34000 		ubfx	r0, r0, #1, #1
 4075 0008 7047     		bx	lr
 4076              		.cfi_endproc
 4077              	.LFE67:
 4078              		.size	lv_obj_get_drag, .-lv_obj_get_drag
 4079 000a 00BF     		.section	.text.lv_obj_get_drag_throw,"ax",%progbits
 4080              		.align	2
 4081              		.global	lv_obj_get_drag_throw
 4082              		.thumb
 4083              		.thumb_func
 4084              		.type	lv_obj_get_drag_throw, %function
 4085              	lv_obj_get_drag_throw:
 4086              	.LFB68:
1602:..\lvgl\lv_core/lv_obj.c ****     return obj->drag_throw == 0 ? false : true;
 4087              		.loc 1 1602 0
 4088              		.cfi_startproc
 4089              		@ args = 0, pretend = 0, frame = 0
 4090              		@ frame_needed = 0, uses_anonymous_args = 0
 4091              		@ link register save eliminated.
ARM GAS  C:\Users\d3bug\AppData\Local\Temp\ccFiAZjI.s 			page 119


 4092              	.LVL595:
1603:..\lvgl\lv_core/lv_obj.c **** }
 4093              		.loc 1 1603 0
 4094 0000 90F82C00 		ldrb	r0, [r0, #44]	@ zero_extendqisi2
 4095              	.LVL596:
1604:..\lvgl\lv_core/lv_obj.c **** 
 4096              		.loc 1 1604 0
 4097 0004 C0F38000 		ubfx	r0, r0, #2, #1
 4098 0008 7047     		bx	lr
 4099              		.cfi_endproc
 4100              	.LFE68:
 4101              		.size	lv_obj_get_drag_throw, .-lv_obj_get_drag_throw
 4102 000a 00BF     		.section	.text.lv_obj_get_drag_parent,"ax",%progbits
 4103              		.align	2
 4104              		.global	lv_obj_get_drag_parent
 4105              		.thumb
 4106              		.thumb_func
 4107              		.type	lv_obj_get_drag_parent, %function
 4108              	lv_obj_get_drag_parent:
 4109              	.LFB69:
1612:..\lvgl\lv_core/lv_obj.c ****     return obj->drag_parent == 0 ? false : true;
 4110              		.loc 1 1612 0
 4111              		.cfi_startproc
 4112              		@ args = 0, pretend = 0, frame = 0
 4113              		@ frame_needed = 0, uses_anonymous_args = 0
 4114              		@ link register save eliminated.
 4115              	.LVL597:
1613:..\lvgl\lv_core/lv_obj.c **** }
 4116              		.loc 1 1613 0
 4117 0000 90F82C00 		ldrb	r0, [r0, #44]	@ zero_extendqisi2
 4118              	.LVL598:
1614:..\lvgl\lv_core/lv_obj.c **** 
 4119              		.loc 1 1614 0
 4120 0004 C0F3C000 		ubfx	r0, r0, #3, #1
 4121 0008 7047     		bx	lr
 4122              		.cfi_endproc
 4123              	.LFE69:
 4124              		.size	lv_obj_get_drag_parent, .-lv_obj_get_drag_parent
 4125 000a 00BF     		.section	.text.lv_obj_get_opa_scale_enable,"ax",%progbits
 4126              		.align	2
 4127              		.global	lv_obj_get_opa_scale_enable
 4128              		.thumb
 4129              		.thumb_func
 4130              		.type	lv_obj_get_opa_scale_enable, %function
 4131              	lv_obj_get_opa_scale_enable:
 4132              	.LFB70:
1622:..\lvgl\lv_core/lv_obj.c ****     return obj->opa_scale_en == 0 ? false : true;
 4133              		.loc 1 1622 0
 4134              		.cfi_startproc
 4135              		@ args = 0, pretend = 0, frame = 0
 4136              		@ frame_needed = 0, uses_anonymous_args = 0
 4137              		@ link register save eliminated.
 4138              	.LVL599:
1623:..\lvgl\lv_core/lv_obj.c **** }
 4139              		.loc 1 1623 0
 4140 0000 90F82C00 		ldrb	r0, [r0, #44]	@ zero_extendqisi2
 4141              	.LVL600:
ARM GAS  C:\Users\d3bug\AppData\Local\Temp\ccFiAZjI.s 			page 120


1624:..\lvgl\lv_core/lv_obj.c **** 
 4142              		.loc 1 1624 0
 4143 0004 C0F38010 		ubfx	r0, r0, #6, #1
 4144 0008 7047     		bx	lr
 4145              		.cfi_endproc
 4146              	.LFE70:
 4147              		.size	lv_obj_get_opa_scale_enable, .-lv_obj_get_opa_scale_enable
 4148 000a 00BF     		.section	.text.lv_obj_get_opa_scale,"ax",%progbits
 4149              		.align	2
 4150              		.global	lv_obj_get_opa_scale
 4151              		.thumb
 4152              		.thumb_func
 4153              		.type	lv_obj_get_opa_scale, %function
 4154              	lv_obj_get_opa_scale:
 4155              	.LFB71:
1632:..\lvgl\lv_core/lv_obj.c ****     const lv_obj_t * parent = obj;
 4156              		.loc 1 1632 0
 4157              		.cfi_startproc
 4158              		@ args = 0, pretend = 0, frame = 0
 4159              		@ frame_needed = 0, uses_anonymous_args = 0
 4160              	.LVL601:
 4161 0000 08B5     		push	{r3, lr}
 4162              		.cfi_def_cfa_offset 8
 4163              		.cfi_offset 3, -8
 4164              		.cfi_offset 14, -4
 4165              	.LVL602:
1635:..\lvgl\lv_core/lv_obj.c ****         if(parent->opa_scale_en) return parent->opa_scale;
 4166              		.loc 1 1635 0
 4167 0002 09E0     		b	.L257
 4168              	.LVL603:
 4169              	.L260:
1636:..\lvgl\lv_core/lv_obj.c ****         parent = lv_obj_get_parent(parent);
 4170              		.loc 1 1636 0
 4171 0004 90F82C30 		ldrb	r3, [r0, #44]	@ zero_extendqisi2
 4172 0008 13F0400F 		tst	r3, #64
 4173 000c 02D0     		beq	.L258
1636:..\lvgl\lv_core/lv_obj.c ****         parent = lv_obj_get_parent(parent);
 4174              		.loc 1 1636 0 is_stmt 0 discriminator 1
 4175 000e 90F82E00 		ldrb	r0, [r0, #46]	@ zero_extendqisi2
 4176              	.LVL604:
 4177 0012 08BD     		pop	{r3, pc}
 4178              	.LVL605:
 4179              	.L258:
1637:..\lvgl\lv_core/lv_obj.c ****     }
 4180              		.loc 1 1637 0 is_stmt 1
 4181 0014 FFF7FEFF 		bl	lv_obj_get_parent
 4182              	.LVL606:
 4183              	.L257:
1635:..\lvgl\lv_core/lv_obj.c ****         if(parent->opa_scale_en) return parent->opa_scale;
 4184              		.loc 1 1635 0
 4185 0018 0028     		cmp	r0, #0
 4186 001a F3D1     		bne	.L260
1640:..\lvgl\lv_core/lv_obj.c **** }
 4187              		.loc 1 1640 0
 4188 001c FF20     		movs	r0, #255
 4189              	.LVL607:
1641:..\lvgl\lv_core/lv_obj.c **** 
ARM GAS  C:\Users\d3bug\AppData\Local\Temp\ccFiAZjI.s 			page 121


 4190              		.loc 1 1641 0
 4191 001e 08BD     		pop	{r3, pc}
 4192              		.cfi_endproc
 4193              	.LFE71:
 4194              		.size	lv_obj_get_opa_scale, .-lv_obj_get_opa_scale
 4195              		.section	.text.lv_obj_design,"ax",%progbits
 4196              		.align	2
 4197              		.thumb
 4198              		.thumb_func
 4199              		.type	lv_obj_design, %function
 4200              	lv_obj_design:
 4201              	.LFB80:
1792:..\lvgl\lv_core/lv_obj.c ****     if(mode == LV_DESIGN_COVER_CHK) {
 4202              		.loc 1 1792 0
 4203              		.cfi_startproc
 4204              		@ args = 0, pretend = 0, frame = 8
 4205              		@ frame_needed = 0, uses_anonymous_args = 0
 4206              	.LVL608:
 4207 0000 F0B5     		push	{r4, r5, r6, r7, lr}
 4208              		.cfi_def_cfa_offset 20
 4209              		.cfi_offset 4, -20
 4210              		.cfi_offset 5, -16
 4211              		.cfi_offset 6, -12
 4212              		.cfi_offset 7, -8
 4213              		.cfi_offset 14, -4
 4214 0002 83B0     		sub	sp, sp, #12
 4215              		.cfi_def_cfa_offset 32
 4216 0004 0446     		mov	r4, r0
 4217 0006 0D46     		mov	r5, r1
1793:..\lvgl\lv_core/lv_obj.c **** 
 4218              		.loc 1 1793 0
 4219 0008 022A     		cmp	r2, #2
 4220 000a 33D1     		bne	.L263
 4221              	.LBB31:
1797:..\lvgl\lv_core/lv_obj.c ****         if(style->body.empty != 0) return false;
 4222              		.loc 1 1797 0
 4223 000c FFF7FEFF 		bl	lv_obj_get_style
 4224              	.LVL609:
1798:..\lvgl\lv_core/lv_obj.c **** 
 4225              		.loc 1 1798 0
 4226 0010 837E     		ldrb	r3, [r0, #26]	@ zero_extendqisi2
 4227 0012 13F0010F 		tst	r3, #1
 4228 0016 2BD1     		bne	.L264
1800:..\lvgl\lv_core/lv_obj.c **** 
 4229              		.loc 1 1800 0
 4230 0018 8688     		ldrh	r6, [r0, #4]
 4231              	.LVL610:
1802:..\lvgl\lv_core/lv_obj.c **** 
 4232              		.loc 1 1802 0
 4233 001a 43F6FF73 		movw	r3, #16383
 4234 001e 9E42     		cmp	r6, r3
 4235 0020 26D0     		beq	.L264
1807:..\lvgl\lv_core/lv_obj.c ****         area_tmp.x1 += r;
 4236              		.loc 1 1807 0
 4237 0022 6946     		mov	r1, sp
 4238 0024 2046     		mov	r0, r4
 4239              	.LVL611:
ARM GAS  C:\Users\d3bug\AppData\Local\Temp\ccFiAZjI.s 			page 122


 4240 0026 FFF7FEFF 		bl	lv_obj_get_coords
 4241              	.LVL612:
1808:..\lvgl\lv_core/lv_obj.c ****         area_tmp.x2 -= r;
 4242              		.loc 1 1808 0
 4243 002a BDF80030 		ldrh	r3, [sp]
 4244 002e 3344     		add	r3, r3, r6
 4245 0030 ADF80030 		strh	r3, [sp]	@ movhi
1809:..\lvgl\lv_core/lv_obj.c ****         if(lv_area_is_in(mask_p, &area_tmp) == false) return false;
 4246              		.loc 1 1809 0
 4247 0034 BDF80430 		ldrh	r3, [sp, #4]
 4248 0038 9B1B     		subs	r3, r3, r6
 4249 003a ADF80430 		strh	r3, [sp, #4]	@ movhi
1810:..\lvgl\lv_core/lv_obj.c **** 
 4250              		.loc 1 1810 0
 4251 003e 6946     		mov	r1, sp
 4252 0040 2846     		mov	r0, r5
 4253 0042 FFF7FEFF 		bl	lv_area_is_in
 4254              	.LVL613:
 4255 0046 98B1     		cbz	r0, .L264
1813:..\lvgl\lv_core/lv_obj.c ****         area_tmp.y1 += r;
 4256              		.loc 1 1813 0
 4257 0048 6946     		mov	r1, sp
 4258 004a 2046     		mov	r0, r4
 4259 004c FFF7FEFF 		bl	lv_obj_get_coords
 4260              	.LVL614:
1814:..\lvgl\lv_core/lv_obj.c ****         area_tmp.y2 -= r;
 4261              		.loc 1 1814 0
 4262 0050 BDF80230 		ldrh	r3, [sp, #2]
 4263 0054 3344     		add	r3, r3, r6
 4264 0056 ADF80230 		strh	r3, [sp, #2]	@ movhi
1815:..\lvgl\lv_core/lv_obj.c ****         if(lv_area_is_in(mask_p, &area_tmp) == false) return false;
 4265              		.loc 1 1815 0
 4266 005a BDF80630 		ldrh	r3, [sp, #6]
 4267 005e 9E1B     		subs	r6, r3, r6
 4268              	.LVL615:
 4269 0060 ADF80660 		strh	r6, [sp, #6]	@ movhi
1816:..\lvgl\lv_core/lv_obj.c **** 
 4270              		.loc 1 1816 0
 4271 0064 6946     		mov	r1, sp
 4272 0066 2846     		mov	r0, r5
 4273 0068 FFF7FEFF 		bl	lv_area_is_in
 4274              	.LVL616:
 4275 006c 0346     		mov	r3, r0
 4276 006e 98B9     		cbnz	r0, .L265
 4277              	.L264:
1798:..\lvgl\lv_core/lv_obj.c **** 
 4278              		.loc 1 1798 0 discriminator 2
 4279 0070 0023     		movs	r3, #0
 4280 0072 11E0     		b	.L265
 4281              	.LVL617:
 4282              	.L263:
 4283              	.LBE31:
1818:..\lvgl\lv_core/lv_obj.c ****         lv_style_t * style = lv_obj_get_style(obj);
 4284              		.loc 1 1818 0
 4285 0074 7AB9     		cbnz	r2, .L266
 4286              	.LBB32:
1819:..\lvgl\lv_core/lv_obj.c ****         lv_draw_rect(&obj->coords, mask_p, style, lv_obj_get_opa_scale(obj));
ARM GAS  C:\Users\d3bug\AppData\Local\Temp\ccFiAZjI.s 			page 123


 4287              		.loc 1 1819 0
 4288 0076 FFF7FEFF 		bl	lv_obj_get_style
 4289              	.LVL618:
 4290 007a 0746     		mov	r7, r0
 4291              	.LVL619:
1820:..\lvgl\lv_core/lv_obj.c ****     }
 4292              		.loc 1 1820 0
 4293 007c 04F11006 		add	r6, r4, #16
 4294 0080 2046     		mov	r0, r4
 4295              	.LVL620:
 4296 0082 FFF7FEFF 		bl	lv_obj_get_opa_scale
 4297              	.LVL621:
 4298 0086 0346     		mov	r3, r0
 4299 0088 3A46     		mov	r2, r7
 4300 008a 2946     		mov	r1, r5
 4301 008c 3046     		mov	r0, r6
 4302 008e FFF7FEFF 		bl	lv_draw_rect
 4303              	.LVL622:
 4304              	.LBE32:
1823:..\lvgl\lv_core/lv_obj.c **** }
 4305              		.loc 1 1823 0
 4306 0092 0123     		movs	r3, #1
 4307 0094 00E0     		b	.L265
 4308              	.LVL623:
 4309              	.L266:
 4310 0096 0123     		movs	r3, #1
 4311              	.LVL624:
 4312              	.L265:
1824:..\lvgl\lv_core/lv_obj.c **** 
 4313              		.loc 1 1824 0
 4314 0098 1846     		mov	r0, r3
 4315 009a 03B0     		add	sp, sp, #12
 4316              		.cfi_def_cfa_offset 20
 4317              		@ sp needed
 4318 009c F0BD     		pop	{r4, r5, r6, r7, pc}
 4319              		.cfi_endproc
 4320              	.LFE80:
 4321              		.size	lv_obj_design, .-lv_obj_design
 4322 009e 00BF     		.section	.text.lv_obj_get_protect,"ax",%progbits
 4323              		.align	2
 4324              		.global	lv_obj_get_protect
 4325              		.thumb
 4326              		.thumb_func
 4327              		.type	lv_obj_get_protect, %function
 4328              	lv_obj_get_protect:
 4329              	.LFB72:
1649:..\lvgl\lv_core/lv_obj.c ****     return obj->protect ;
 4330              		.loc 1 1649 0
 4331              		.cfi_startproc
 4332              		@ args = 0, pretend = 0, frame = 0
 4333              		@ frame_needed = 0, uses_anonymous_args = 0
 4334              		@ link register save eliminated.
 4335              	.LVL625:
1651:..\lvgl\lv_core/lv_obj.c **** 
 4336              		.loc 1 1651 0
 4337 0000 90F82D00 		ldrb	r0, [r0, #45]	@ zero_extendqisi2
 4338              	.LVL626:
ARM GAS  C:\Users\d3bug\AppData\Local\Temp\ccFiAZjI.s 			page 124


 4339 0004 7047     		bx	lr
 4340              		.cfi_endproc
 4341              	.LFE72:
 4342              		.size	lv_obj_get_protect, .-lv_obj_get_protect
 4343 0006 00BF     		.section	.text.lv_obj_is_protected,"ax",%progbits
 4344              		.align	2
 4345              		.global	lv_obj_is_protected
 4346              		.thumb
 4347              		.thumb_func
 4348              		.type	lv_obj_is_protected, %function
 4349              	lv_obj_is_protected:
 4350              	.LFB73:
1660:..\lvgl\lv_core/lv_obj.c ****     return (obj->protect & prot) == 0 ? false : true ;
 4351              		.loc 1 1660 0
 4352              		.cfi_startproc
 4353              		@ args = 0, pretend = 0, frame = 0
 4354              		@ frame_needed = 0, uses_anonymous_args = 0
 4355              		@ link register save eliminated.
 4356              	.LVL627:
1661:..\lvgl\lv_core/lv_obj.c **** }
 4357              		.loc 1 1661 0
 4358 0000 90F82D30 		ldrb	r3, [r0, #45]	@ zero_extendqisi2
 4359 0004 0B42     		tst	r3, r1
1662:..\lvgl\lv_core/lv_obj.c **** 
 4360              		.loc 1 1662 0
 4361 0006 14BF     		ite	ne
 4362 0008 0120     		movne	r0, #1
 4363              	.LVL628:
 4364 000a 0020     		moveq	r0, #0
 4365 000c 7047     		bx	lr
 4366              		.cfi_endproc
 4367              	.LFE73:
 4368              		.size	lv_obj_is_protected, .-lv_obj_is_protected
 4369 000e 00BF     		.section	.text.lv_obj_signal,"ax",%progbits
 4370              		.align	2
 4371              		.thumb
 4372              		.thumb_func
 4373              		.type	lv_obj_signal, %function
 4374              	lv_obj_signal:
 4375              	.LFB81:
1834:..\lvgl\lv_core/lv_obj.c ****     (void)param;
 4376              		.loc 1 1834 0
 4377              		.cfi_startproc
 4378              		@ args = 0, pretend = 0, frame = 0
 4379              		@ frame_needed = 0, uses_anonymous_args = 0
 4380              	.LVL629:
 4381 0000 F8B5     		push	{r3, r4, r5, r6, r7, lr}
 4382              		.cfi_def_cfa_offset 24
 4383              		.cfi_offset 3, -24
 4384              		.cfi_offset 4, -20
 4385              		.cfi_offset 5, -16
 4386              		.cfi_offset 6, -12
 4387              		.cfi_offset 7, -8
 4388              		.cfi_offset 14, -4
 4389 0002 0546     		mov	r5, r0
 4390 0004 0C46     		mov	r4, r1
 4391 0006 1746     		mov	r7, r2
ARM GAS  C:\Users\d3bug\AppData\Local\Temp\ccFiAZjI.s 			page 125


 4392              	.LVL630:
1839:..\lvgl\lv_core/lv_obj.c **** 
 4393              		.loc 1 1839 0
 4394 0008 FFF7FEFF 		bl	lv_obj_get_style
 4395              	.LVL631:
 4396 000c 0646     		mov	r6, r0
 4397              	.LVL632:
1841:..\lvgl\lv_core/lv_obj.c **** 
 4398              		.loc 1 1841 0
 4399 000e FFF7FEFF 		bl	lv_indev_get_act
 4400              	.LVL633:
1843:..\lvgl\lv_core/lv_obj.c **** 		if(indev_act != NULL && indev_act->feedback != NULL)
 4401              		.loc 1 1843 0
 4402 0012 A4F10803 		sub	r3, r4, #8
 4403 0016 DBB2     		uxtb	r3, r3
 4404 0018 0A2B     		cmp	r3, #10
 4405 001a 04D8     		bhi	.L271
1844:..\lvgl\lv_core/lv_obj.c **** 			indev_act->feedback(indev_act, sign);
 4406              		.loc 1 1844 0
 4407 001c 18B1     		cbz	r0, .L271
1844:..\lvgl\lv_core/lv_obj.c **** 			indev_act->feedback(indev_act, sign);
 4408              		.loc 1 1844 0 is_stmt 0 discriminator 1
 4409 001e 836B     		ldr	r3, [r0, #56]
 4410 0020 0BB1     		cbz	r3, .L271
1845:..\lvgl\lv_core/lv_obj.c ****     }
 4411              		.loc 1 1845 0 is_stmt 1
 4412 0022 2146     		mov	r1, r4
 4413 0024 9847     		blx	r3
 4414              	.LVL634:
 4415              	.L271:
1848:..\lvgl\lv_core/lv_obj.c ****         /*Return 'invalid' if the child change signal is not enabled*/
 4416              		.loc 1 1848 0
 4417 0026 012C     		cmp	r4, #1
 4418 0028 06D1     		bne	.L272
1850:..\lvgl\lv_core/lv_obj.c ****     } else if(sign == LV_SIGNAL_REFR_EXT_SIZE) {
 4419              		.loc 1 1850 0
 4420 002a 0121     		movs	r1, #1
 4421 002c 2846     		mov	r0, r5
 4422 002e FFF7FEFF 		bl	lv_obj_is_protected
 4423              	.LVL635:
 4424 0032 C8B9     		cbnz	r0, .L276
1837:..\lvgl\lv_core/lv_obj.c **** 
 4425              		.loc 1 1837 0
 4426 0034 0120     		movs	r0, #1
 4427 0036 F8BD     		pop	{r3, r4, r5, r6, r7, pc}
 4428              	.LVL636:
 4429              	.L272:
1851:..\lvgl\lv_core/lv_obj.c ****         if(style->body.shadow.width > obj->ext_size) obj->ext_size = style->body.shadow.width;
 4430              		.loc 1 1851 0
 4431 0038 042C     		cmp	r4, #4
 4432 003a 08D1     		bne	.L274
1852:..\lvgl\lv_core/lv_obj.c ****     } else if(sign ==  LV_SIGNAL_STYLE_CHG) {
 4433              		.loc 1 1852 0
 4434 003c B6F91030 		ldrsh	r3, [r6, #16]
 4435 0040 B5F93020 		ldrsh	r2, [r5, #48]
 4436 0044 9342     		cmp	r3, r2
 4437 0046 11DD     		ble	.L277
ARM GAS  C:\Users\d3bug\AppData\Local\Temp\ccFiAZjI.s 			page 126


1852:..\lvgl\lv_core/lv_obj.c ****     } else if(sign ==  LV_SIGNAL_STYLE_CHG) {
 4438              		.loc 1 1852 0 is_stmt 0 discriminator 1
 4439 0048 2B86     		strh	r3, [r5, #48]	@ movhi
1837:..\lvgl\lv_core/lv_obj.c **** 
 4440              		.loc 1 1837 0 is_stmt 1 discriminator 1
 4441 004a 0120     		movs	r0, #1
 4442 004c F8BD     		pop	{r3, r4, r5, r6, r7, pc}
 4443              	.LVL637:
 4444              	.L274:
1853:..\lvgl\lv_core/lv_obj.c ****         lv_obj_refresh_ext_size(obj);
 4445              		.loc 1 1853 0
 4446 004e 032C     		cmp	r4, #3
 4447 0050 04D1     		bne	.L275
1854:..\lvgl\lv_core/lv_obj.c ****     } else if(sign ==  LV_SIGNAL_GET_TYPE) {
 4448              		.loc 1 1854 0
 4449 0052 2846     		mov	r0, r5
 4450 0054 FFF7FEFF 		bl	lv_obj_refresh_ext_size
 4451              	.LVL638:
1837:..\lvgl\lv_core/lv_obj.c **** 
 4452              		.loc 1 1837 0
 4453 0058 0120     		movs	r0, #1
 4454 005a F8BD     		pop	{r3, r4, r5, r6, r7, pc}
 4455              	.LVL639:
 4456              	.L275:
1855:..\lvgl\lv_core/lv_obj.c ****         lv_obj_type_t * buf = param;
 4457              		.loc 1 1855 0
 4458 005c 062C     		cmp	r4, #6
 4459 005e 07D1     		bne	.L278
 4460              	.LVL640:
 4461              	.LBB33:
1857:..\lvgl\lv_core/lv_obj.c ****     }
 4462              		.loc 1 1857 0
 4463 0060 044B     		ldr	r3, .L280
 4464 0062 3B60     		str	r3, [r7]
 4465              	.LBE33:
1837:..\lvgl\lv_core/lv_obj.c **** 
 4466              		.loc 1 1837 0
 4467 0064 0120     		movs	r0, #1
 4468 0066 F8BD     		pop	{r3, r4, r5, r6, r7, pc}
 4469              	.LVL641:
 4470              	.L276:
1850:..\lvgl\lv_core/lv_obj.c ****     } else if(sign == LV_SIGNAL_REFR_EXT_SIZE) {
 4471              		.loc 1 1850 0
 4472 0068 0020     		movs	r0, #0
 4473 006a F8BD     		pop	{r3, r4, r5, r6, r7, pc}
 4474              	.LVL642:
 4475              	.L277:
1837:..\lvgl\lv_core/lv_obj.c **** 
 4476              		.loc 1 1837 0
 4477 006c 0120     		movs	r0, #1
 4478 006e F8BD     		pop	{r3, r4, r5, r6, r7, pc}
 4479              	.LVL643:
 4480              	.L278:
 4481 0070 0120     		movs	r0, #1
 4482              	.LVL644:
1861:..\lvgl\lv_core/lv_obj.c **** 
 4483              		.loc 1 1861 0
ARM GAS  C:\Users\d3bug\AppData\Local\Temp\ccFiAZjI.s 			page 127


 4484 0072 F8BD     		pop	{r3, r4, r5, r6, r7, pc}
 4485              	.LVL645:
 4486              	.L281:
 4487              		.align	2
 4488              	.L280:
 4489 0074 F0000000 		.word	.LC10
 4490              		.cfi_endproc
 4491              	.LFE81:
 4492              		.size	lv_obj_signal, .-lv_obj_signal
 4493              		.section	.text.lv_obj_get_signal_func,"ax",%progbits
 4494              		.align	2
 4495              		.global	lv_obj_get_signal_func
 4496              		.thumb
 4497              		.thumb_func
 4498              		.type	lv_obj_get_signal_func, %function
 4499              	lv_obj_get_signal_func:
 4500              	.LFB74:
1670:..\lvgl\lv_core/lv_obj.c ****     return obj->signal_func;
 4501              		.loc 1 1670 0
 4502              		.cfi_startproc
 4503              		@ args = 0, pretend = 0, frame = 0
 4504              		@ frame_needed = 0, uses_anonymous_args = 0
 4505              		@ link register save eliminated.
 4506              	.LVL646:
1672:..\lvgl\lv_core/lv_obj.c **** 
 4507              		.loc 1 1672 0
 4508 0000 8069     		ldr	r0, [r0, #24]
 4509              	.LVL647:
 4510 0002 7047     		bx	lr
 4511              		.cfi_endproc
 4512              	.LFE74:
 4513              		.size	lv_obj_get_signal_func, .-lv_obj_get_signal_func
 4514              		.section	.text.lv_obj_get_design_func,"ax",%progbits
 4515              		.align	2
 4516              		.global	lv_obj_get_design_func
 4517              		.thumb
 4518              		.thumb_func
 4519              		.type	lv_obj_get_design_func, %function
 4520              	lv_obj_get_design_func:
 4521              	.LFB75:
1680:..\lvgl\lv_core/lv_obj.c ****     return obj->design_func;
 4522              		.loc 1 1680 0
 4523              		.cfi_startproc
 4524              		@ args = 0, pretend = 0, frame = 0
 4525              		@ frame_needed = 0, uses_anonymous_args = 0
 4526              		@ link register save eliminated.
 4527              	.LVL648:
1682:..\lvgl\lv_core/lv_obj.c **** 
 4528              		.loc 1 1682 0
 4529 0000 C069     		ldr	r0, [r0, #28]
 4530              	.LVL649:
 4531 0002 7047     		bx	lr
 4532              		.cfi_endproc
 4533              	.LFE75:
 4534              		.size	lv_obj_get_design_func, .-lv_obj_get_design_func
 4535              		.section	.text.lv_obj_get_ext_attr,"ax",%progbits
 4536              		.align	2
ARM GAS  C:\Users\d3bug\AppData\Local\Temp\ccFiAZjI.s 			page 128


 4537              		.global	lv_obj_get_ext_attr
 4538              		.thumb
 4539              		.thumb_func
 4540              		.type	lv_obj_get_ext_attr, %function
 4541              	lv_obj_get_ext_attr:
 4542              	.LFB76:
1695:..\lvgl\lv_core/lv_obj.c ****     return obj->ext_attr;
 4543              		.loc 1 1695 0
 4544              		.cfi_startproc
 4545              		@ args = 0, pretend = 0, frame = 0
 4546              		@ frame_needed = 0, uses_anonymous_args = 0
 4547              		@ link register save eliminated.
 4548              	.LVL650:
1697:..\lvgl\lv_core/lv_obj.c **** 
 4549              		.loc 1 1697 0
 4550 0000 006A     		ldr	r0, [r0, #32]
 4551              	.LVL651:
 4552 0002 7047     		bx	lr
 4553              		.cfi_endproc
 4554              	.LFE76:
 4555              		.size	lv_obj_get_ext_attr, .-lv_obj_get_ext_attr
 4556              		.section	.text.lv_obj_get_type,"ax",%progbits
 4557              		.align	2
 4558              		.global	lv_obj_get_type
 4559              		.thumb
 4560              		.thumb_func
 4561              		.type	lv_obj_get_type, %function
 4562              	lv_obj_get_type:
 4563              	.LFB77:
1706:..\lvgl\lv_core/lv_obj.c ****     lv_obj_type_t tmp;
 4564              		.loc 1 1706 0
 4565              		.cfi_startproc
 4566              		@ args = 0, pretend = 0, frame = 32
 4567              		@ frame_needed = 0, uses_anonymous_args = 0
 4568              	.LVL652:
 4569 0000 70B5     		push	{r4, r5, r6, lr}
 4570              		.cfi_def_cfa_offset 16
 4571              		.cfi_offset 4, -16
 4572              		.cfi_offset 5, -12
 4573              		.cfi_offset 6, -8
 4574              		.cfi_offset 14, -4
 4575 0002 88B0     		sub	sp, sp, #32
 4576              		.cfi_def_cfa_offset 48
 4577 0004 0546     		mov	r5, r0
 4578 0006 0C46     		mov	r4, r1
1709:..\lvgl\lv_core/lv_obj.c ****     memset(&tmp, 0, sizeof(lv_obj_type_t));
 4579              		.loc 1 1709 0
 4580 0008 2026     		movs	r6, #32
 4581 000a 3246     		mov	r2, r6
 4582 000c 0021     		movs	r1, #0
 4583              	.LVL653:
 4584 000e 2046     		mov	r0, r4
 4585              	.LVL654:
 4586 0010 FFF7FEFF 		bl	memset
 4587              	.LVL655:
1710:..\lvgl\lv_core/lv_obj.c **** 
 4588              		.loc 1 1710 0
ARM GAS  C:\Users\d3bug\AppData\Local\Temp\ccFiAZjI.s 			page 129


 4589 0014 3246     		mov	r2, r6
 4590 0016 0021     		movs	r1, #0
 4591 0018 6846     		mov	r0, sp
 4592 001a FFF7FEFF 		bl	memset
 4593              	.LVL656:
1712:..\lvgl\lv_core/lv_obj.c **** 
 4594              		.loc 1 1712 0
 4595 001e AB69     		ldr	r3, [r5, #24]
 4596 0020 6A46     		mov	r2, sp
 4597 0022 0621     		movs	r1, #6
 4598 0024 2846     		mov	r0, r5
 4599 0026 9847     		blx	r3
 4600              	.LVL657:
1715:..\lvgl\lv_core/lv_obj.c ****         if(tmp.type[cnt] == NULL) break;
 4601              		.loc 1 1715 0
 4602 0028 0022     		movs	r2, #0
 4603 002a 07E0     		b	.L286
 4604              	.LVL658:
 4605              	.L288:
1716:..\lvgl\lv_core/lv_obj.c ****     }
 4606              		.loc 1 1716 0
 4607 002c 08AB     		add	r3, sp, #32
 4608 002e 03EB8203 		add	r3, r3, r2, lsl #2
 4609 0032 53F8203C 		ldr	r3, [r3, #-32]
 4610 0036 8BB1     		cbz	r3, .L290
1715:..\lvgl\lv_core/lv_obj.c ****         if(tmp.type[cnt] == NULL) break;
 4611              		.loc 1 1715 0 discriminator 2
 4612 0038 0132     		adds	r2, r2, #1
 4613              	.LVL659:
 4614 003a D2B2     		uxtb	r2, r2
 4615              	.LVL660:
 4616              	.L286:
1715:..\lvgl\lv_core/lv_obj.c ****         if(tmp.type[cnt] == NULL) break;
 4617              		.loc 1 1715 0 is_stmt 0 discriminator 1
 4618 003c 072A     		cmp	r2, #7
 4619 003e F5D9     		bls	.L288
 4620 0040 0023     		movs	r3, #0
 4621 0042 0CE0     		b	.L287
 4622              	.LVL661:
 4623              	.L289:
1723:..\lvgl\lv_core/lv_obj.c ****     }
 4624              		.loc 1 1723 0 is_stmt 1 discriminator 3
 4625 0044 511E     		subs	r1, r2, #1
 4626 0046 C91A     		subs	r1, r1, r3
 4627 0048 08A8     		add	r0, sp, #32
 4628 004a 00EB8101 		add	r1, r0, r1, lsl #2
 4629 004e 51F8201C 		ldr	r1, [r1, #-32]
 4630 0052 44F82310 		str	r1, [r4, r3, lsl #2]
1722:..\lvgl\lv_core/lv_obj.c ****         buf->type[i] = tmp.type[cnt - 1 - i];
 4631              		.loc 1 1722 0 discriminator 3
 4632 0056 0133     		adds	r3, r3, #1
 4633              	.LVL662:
 4634 0058 DBB2     		uxtb	r3, r3
 4635              	.LVL663:
 4636 005a 00E0     		b	.L287
 4637              	.LVL664:
 4638              	.L290:
ARM GAS  C:\Users\d3bug\AppData\Local\Temp\ccFiAZjI.s 			page 130


 4639 005c 0023     		movs	r3, #0
 4640              	.L287:
 4641              	.LVL665:
1722:..\lvgl\lv_core/lv_obj.c ****         buf->type[i] = tmp.type[cnt - 1 - i];
 4642              		.loc 1 1722 0 is_stmt 0 discriminator 1
 4643 005e 9A42     		cmp	r2, r3
 4644 0060 F0D8     		bhi	.L289
1725:..\lvgl\lv_core/lv_obj.c **** 
 4645              		.loc 1 1725 0 is_stmt 1
 4646 0062 08B0     		add	sp, sp, #32
 4647              		.cfi_def_cfa_offset 16
 4648              		@ sp needed
 4649 0064 70BD     		pop	{r4, r5, r6, pc}
 4650              		.cfi_endproc
 4651              	.LFE77:
 4652              		.size	lv_obj_get_type, .-lv_obj_get_type
 4653 0066 00BF     		.section	.text.lv_obj_get_free_num,"ax",%progbits
 4654              		.align	2
 4655              		.global	lv_obj_get_free_num
 4656              		.thumb
 4657              		.thumb_func
 4658              		.type	lv_obj_get_free_num, %function
 4659              	lv_obj_get_free_num:
 4660              	.LFB78:
1734:..\lvgl\lv_core/lv_obj.c ****     return obj->free_num;
 4661              		.loc 1 1734 0
 4662              		.cfi_startproc
 4663              		@ args = 0, pretend = 0, frame = 0
 4664              		@ frame_needed = 0, uses_anonymous_args = 0
 4665              		@ link register save eliminated.
 4666              	.LVL666:
1736:..\lvgl\lv_core/lv_obj.c **** #endif
 4667              		.loc 1 1736 0
 4668 0000 006C     		ldr	r0, [r0, #64]
 4669              	.LVL667:
 4670 0002 7047     		bx	lr
 4671              		.cfi_endproc
 4672              	.LFE78:
 4673              		.size	lv_obj_get_free_num, .-lv_obj_get_free_num
 4674              		.section	.text.lv_obj_get_free_ptr,"ax",%progbits
 4675              		.align	2
 4676              		.global	lv_obj_get_free_ptr
 4677              		.thumb
 4678              		.thumb_func
 4679              		.type	lv_obj_get_free_ptr, %function
 4680              	lv_obj_get_free_ptr:
 4681              	.LFB79:
1746:..\lvgl\lv_core/lv_obj.c ****     return obj->free_ptr;
 4682              		.loc 1 1746 0
 4683              		.cfi_startproc
 4684              		@ args = 0, pretend = 0, frame = 0
 4685              		@ frame_needed = 0, uses_anonymous_args = 0
 4686              		@ link register save eliminated.
 4687              	.LVL668:
1748:..\lvgl\lv_core/lv_obj.c **** #endif
 4688              		.loc 1 1748 0
 4689 0000 806A     		ldr	r0, [r0, #40]
ARM GAS  C:\Users\d3bug\AppData\Local\Temp\ccFiAZjI.s 			page 131


 4690              	.LVL669:
 4691 0002 7047     		bx	lr
 4692              		.cfi_endproc
 4693              	.LFE79:
 4694              		.size	lv_obj_get_free_ptr, .-lv_obj_get_free_ptr
 4695              		.section	.rodata.str1.4,"aMS",%progbits,1
 4696              		.align	2
 4697              	.LC0:
 4698 0000 53637265 		.ascii	"Screen create started\000"
 4698      656E2063 
 4698      72656174 
 4698      65207374 
 4698      61727465 
 4699 0016 0000     		.space	2
 4700              	.LC1:
 4701 0018 2E2E5C6C 		.ascii	"..\\lvgl\\lv_core\\lv_obj.c\000"
 4701      76676C5C 
 4701      6C765F63 
 4701      6F72655C 
 4701      6C765F6F 
 4702 0031 000000   		.space	3
 4703              	.LC2:
 4704 0034 4F757420 		.ascii	"Out of memory!\000"
 4704      6F66206D 
 4704      656D6F72 
 4704      792100
 4705 0043 00       		.space	1
 4706              	.LC3:
 4707 0044 53637265 		.ascii	"Screen create ready\000"
 4707      656E2063 
 4707      72656174 
 4707      65207265 
 4707      61647900 
 4708              	.LC4:
 4709 0058 4F626A65 		.ascii	"Object create started\000"
 4709      63742063 
 4709      72656174 
 4709      65207374 
 4709      61727465 
 4710 006e 0000     		.space	2
 4711              	.LC5:
 4712 0070 4F626A65 		.ascii	"Object create ready\000"
 4712      63742063 
 4712      72656174 
 4712      65207265 
 4712      61647900 
 4713              	.LC6:
 4714 0084 43616E27 		.ascii	"Can't set the parent of a screen\000"
 4714      74207365 
 4714      74207468 
 4714      65207061 
 4714      72656E74 
 4715 00a5 000000   		.space	3
 4716              	.LC7:
 4717 00a8 43616E27 		.ascii	"Can't set parent == NULL to an object\000"
 4717      74207365 
 4717      74207061 
ARM GAS  C:\Users\d3bug\AppData\Local\Temp\ccFiAZjI.s 			page 132


 4717      72656E74 
 4717      203D3D20 
 4718 00ce 0000     		.space	2
 4719              	.LC8:
 4720 00d0 6C765F69 		.ascii	"lv_init started\000"
 4720      6E697420 
 4720      73746172 
 4720      74656400 
 4721              	.LC9:
 4722 00e0 6C765F69 		.ascii	"lv_init ready\000"
 4722      6E697420 
 4722      72656164 
 4722      7900
 4723 00ee 0000     		.space	2
 4724              	.LC10:
 4725 00f0 6C765F6F 		.ascii	"lv_obj\000"
 4725      626A00
 4726              		.text
 4727              	.Letext0:
 4728              		.file 3 "c:\\program files (x86)\\cypress\\psoc creator\\4.2\\psoc creator\\import\\gnu\\arm\\5.4.
 4729              		.file 4 "c:\\program files (x86)\\cypress\\psoc creator\\4.2\\psoc creator\\import\\gnu\\arm\\5.4.
 4730              		.file 5 "..\\lvgl\\lv_core\\../lv_misc/lv_color.h"
 4731              		.file 6 "..\\lvgl\\lv_core\\../lv_misc/lv_font.h"
 4732              		.file 7 "..\\lvgl\\lv_core\\lv_style.h"
 4733              		.file 8 "..\\lvgl\\lv_core\\../lv_misc/lv_ll.h"
 4734              		.file 9 "..\\lvgl\\lv_core\\lv_obj.h"
 4735              		.file 10 "..\\lvgl\\lv_core\\../lv_hal/lv_hal_indev.h"
 4736              		.file 11 "..\\lvgl\\lv_core\\../lv_themes/lv_theme.h"
 4737              		.file 12 "..\\lvgl\\lv_core\\../lv_misc/lv_gc.h"
 4738              		.file 13 "..\\lvgl\\lv_core\\../lv_misc/lv_mem.h"
 4739              		.file 14 "..\\lvgl\\lv_core\\lv_indev.h"
 4740              		.file 15 "..\\lvgl\\lv_core\\lv_refr.h"
 4741              		.file 16 "..\\lvgl\\lv_core\\../lv_misc/lv_log.h"
 4742              		.file 17 "..\\lvgl\\lv_core\\../lv_misc/lv_task.h"
 4743              		.file 18 "..\\lvgl\\lv_core\\../lv_draw/lv_draw_rect.h"
 4744              		.section	.debug_info,"",%progbits
 4745              	.Ldebug_info0:
 4746 0000 1F370000 		.4byte	0x371f
 4747 0004 0400     		.2byte	0x4
 4748 0006 00000000 		.4byte	.Ldebug_abbrev0
 4749 000a 04       		.byte	0x4
 4750 000b 01       		.uleb128 0x1
 4751 000c 38030000 		.4byte	.LASF374
 4752 0010 0C       		.byte	0xc
 4753 0011 38080000 		.4byte	.LASF375
 4754 0015 23100000 		.4byte	.LASF376
 4755 0019 30000000 		.4byte	.Ldebug_ranges0+0x30
 4756 001d 00000000 		.4byte	0
 4757 0021 00000000 		.4byte	.Ldebug_line0
 4758 0025 02       		.uleb128 0x2
 4759 0026 04       		.byte	0x4
 4760 0027 05       		.byte	0x5
 4761 0028 696E7400 		.ascii	"int\000"
 4762 002c 03       		.uleb128 0x3
 4763 002d 04       		.byte	0x4
 4764 002e 07       		.byte	0x7
 4765 002f B60A0000 		.4byte	.LASF0
ARM GAS  C:\Users\d3bug\AppData\Local\Temp\ccFiAZjI.s 			page 133


 4766 0033 03       		.uleb128 0x3
 4767 0034 08       		.byte	0x8
 4768 0035 05       		.byte	0x5
 4769 0036 AE090000 		.4byte	.LASF1
 4770 003a 03       		.uleb128 0x3
 4771 003b 08       		.byte	0x8
 4772 003c 04       		.byte	0x4
 4773 003d 470C0000 		.4byte	.LASF2
 4774 0041 03       		.uleb128 0x3
 4775 0042 01       		.byte	0x1
 4776 0043 06       		.byte	0x6
 4777 0044 4D040000 		.4byte	.LASF3
 4778 0048 04       		.uleb128 0x4
 4779 0049 1C020000 		.4byte	.LASF5
 4780 004d 03       		.byte	0x3
 4781 004e 1D       		.byte	0x1d
 4782 004f 53000000 		.4byte	0x53
 4783 0053 03       		.uleb128 0x3
 4784 0054 01       		.byte	0x1
 4785 0055 08       		.byte	0x8
 4786 0056 AC040000 		.4byte	.LASF4
 4787 005a 04       		.uleb128 0x4
 4788 005b DC0E0000 		.4byte	.LASF6
 4789 005f 03       		.byte	0x3
 4790 0060 29       		.byte	0x29
 4791 0061 65000000 		.4byte	0x65
 4792 0065 03       		.uleb128 0x3
 4793 0066 02       		.byte	0x2
 4794 0067 05       		.byte	0x5
 4795 0068 C6100000 		.4byte	.LASF7
 4796 006c 04       		.uleb128 0x4
 4797 006d A1050000 		.4byte	.LASF8
 4798 0071 03       		.byte	0x3
 4799 0072 2B       		.byte	0x2b
 4800 0073 77000000 		.4byte	0x77
 4801 0077 03       		.uleb128 0x3
 4802 0078 02       		.byte	0x2
 4803 0079 07       		.byte	0x7
 4804 007a 7B130000 		.4byte	.LASF9
 4805 007e 03       		.uleb128 0x3
 4806 007f 04       		.byte	0x4
 4807 0080 05       		.byte	0x5
 4808 0081 8C020000 		.4byte	.LASF10
 4809 0085 04       		.uleb128 0x4
 4810 0086 9B090000 		.4byte	.LASF11
 4811 008a 03       		.byte	0x3
 4812 008b 41       		.byte	0x41
 4813 008c 90000000 		.4byte	0x90
 4814 0090 03       		.uleb128 0x3
 4815 0091 04       		.byte	0x4
 4816 0092 07       		.byte	0x7
 4817 0093 69080000 		.4byte	.LASF12
 4818 0097 03       		.uleb128 0x3
 4819 0098 08       		.byte	0x8
 4820 0099 07       		.byte	0x7
 4821 009a 990D0000 		.4byte	.LASF13
 4822 009e 04       		.uleb128 0x4
ARM GAS  C:\Users\d3bug\AppData\Local\Temp\ccFiAZjI.s 			page 134


 4823 009f 59040000 		.4byte	.LASF14
 4824 00a3 04       		.byte	0x4
 4825 00a4 18       		.byte	0x18
 4826 00a5 48000000 		.4byte	0x48
 4827 00a9 04       		.uleb128 0x4
 4828 00aa 36110000 		.4byte	.LASF15
 4829 00ae 04       		.byte	0x4
 4830 00af 20       		.byte	0x20
 4831 00b0 5A000000 		.4byte	0x5a
 4832 00b4 04       		.uleb128 0x4
 4833 00b5 FE0D0000 		.4byte	.LASF16
 4834 00b9 04       		.byte	0x4
 4835 00ba 24       		.byte	0x24
 4836 00bb 6C000000 		.4byte	0x6c
 4837 00bf 04       		.uleb128 0x4
 4838 00c0 BB120000 		.4byte	.LASF17
 4839 00c4 04       		.byte	0x4
 4840 00c5 30       		.byte	0x30
 4841 00c6 85000000 		.4byte	0x85
 4842 00ca 05       		.uleb128 0x5
 4843 00cb 01       		.byte	0x1
 4844 00cc 53000000 		.4byte	0x53
 4845 00d0 05       		.byte	0x5
 4846 00d1 3C       		.byte	0x3c
 4847 00d2 25010000 		.4byte	0x125
 4848 00d6 06       		.uleb128 0x6
 4849 00d7 550A0000 		.4byte	.LASF18
 4850 00db 00       		.byte	0
 4851 00dc 06       		.uleb128 0x6
 4852 00dd 15090000 		.4byte	.LASF19
 4853 00e1 00       		.byte	0
 4854 00e2 06       		.uleb128 0x6
 4855 00e3 900E0000 		.4byte	.LASF20
 4856 00e7 19       		.byte	0x19
 4857 00e8 06       		.uleb128 0x6
 4858 00e9 720F0000 		.4byte	.LASF21
 4859 00ed 33       		.byte	0x33
 4860 00ee 06       		.uleb128 0x6
 4861 00ef 19100000 		.4byte	.LASF22
 4862 00f3 4C       		.byte	0x4c
 4863 00f4 06       		.uleb128 0x6
 4864 00f5 2C110000 		.4byte	.LASF23
 4865 00f9 66       		.byte	0x66
 4866 00fa 06       		.uleb128 0x6
 4867 00fb D7110000 		.4byte	.LASF24
 4868 00ff 7F       		.byte	0x7f
 4869 0100 06       		.uleb128 0x6
 4870 0101 A6120000 		.4byte	.LASF25
 4871 0105 99       		.byte	0x99
 4872 0106 06       		.uleb128 0x6
 4873 0107 71130000 		.4byte	.LASF26
 4874 010b B2       		.byte	0xb2
 4875 010c 06       		.uleb128 0x6
 4876 010d 07140000 		.4byte	.LASF27
 4877 0111 CC       		.byte	0xcc
 4878 0112 06       		.uleb128 0x6
 4879 0113 9C140000 		.4byte	.LASF28
ARM GAS  C:\Users\d3bug\AppData\Local\Temp\ccFiAZjI.s 			page 135


 4880 0117 E5       		.byte	0xe5
 4881 0118 06       		.uleb128 0x6
 4882 0119 C60B0000 		.4byte	.LASF29
 4883 011d FF       		.byte	0xff
 4884 011e 06       		.uleb128 0x6
 4885 011f C20C0000 		.4byte	.LASF30
 4886 0123 FF       		.byte	0xff
 4887 0124 00       		.byte	0
 4888 0125 07       		.uleb128 0x7
 4889 0126 01       		.byte	0x1
 4890 0127 05       		.byte	0x5
 4891 0128 5F       		.byte	0x5f
 4892 0129 66010000 		.4byte	0x166
 4893 012d 08       		.uleb128 0x8
 4894 012e 7E040000 		.4byte	.LASF31
 4895 0132 05       		.byte	0x5
 4896 0133 61       		.byte	0x61
 4897 0134 9E000000 		.4byte	0x9e
 4898 0138 01       		.byte	0x1
 4899 0139 01       		.byte	0x1
 4900 013a 07       		.byte	0x7
 4901 013b 08       		.uleb128 0x8
 4902 013c 44130000 		.4byte	.LASF32
 4903 0140 05       		.byte	0x5
 4904 0141 62       		.byte	0x62
 4905 0142 9E000000 		.4byte	0x9e
 4906 0146 01       		.byte	0x1
 4907 0147 01       		.byte	0x1
 4908 0148 07       		.byte	0x7
 4909 0149 09       		.uleb128 0x9
 4910 014a 72656400 		.ascii	"red\000"
 4911 014e 05       		.byte	0x5
 4912 014f 63       		.byte	0x63
 4913 0150 9E000000 		.4byte	0x9e
 4914 0154 01       		.byte	0x1
 4915 0155 01       		.byte	0x1
 4916 0156 07       		.byte	0x7
 4917 0157 08       		.uleb128 0x8
 4918 0158 570F0000 		.4byte	.LASF33
 4919 015c 05       		.byte	0x5
 4920 015d 64       		.byte	0x64
 4921 015e 9E000000 		.4byte	0x9e
 4922 0162 01       		.byte	0x1
 4923 0163 01       		.byte	0x1
 4924 0164 07       		.byte	0x7
 4925 0165 00       		.byte	0
 4926 0166 04       		.uleb128 0x4
 4927 0167 1F0A0000 		.4byte	.LASF34
 4928 016b 05       		.byte	0x5
 4929 016c 65       		.byte	0x65
 4930 016d 25010000 		.4byte	0x125
 4931 0171 04       		.uleb128 0x4
 4932 0172 240E0000 		.4byte	.LASF35
 4933 0176 05       		.byte	0x5
 4934 0177 92       		.byte	0x92
 4935 0178 66010000 		.4byte	0x166
 4936 017c 04       		.uleb128 0x4
ARM GAS  C:\Users\d3bug\AppData\Local\Temp\ccFiAZjI.s 			page 136


 4937 017d 93000000 		.4byte	.LASF36
 4938 0181 05       		.byte	0x5
 4939 0182 A0       		.byte	0xa0
 4940 0183 9E000000 		.4byte	0x9e
 4941 0187 03       		.uleb128 0x3
 4942 0188 04       		.byte	0x4
 4943 0189 07       		.byte	0x7
 4944 018a 1B000000 		.4byte	.LASF37
 4945 018e 0A       		.uleb128 0xa
 4946 018f 04       		.byte	0x4
 4947 0190 03       		.uleb128 0x3
 4948 0191 01       		.byte	0x1
 4949 0192 08       		.byte	0x8
 4950 0193 4B050000 		.4byte	.LASF38
 4951 0197 0B       		.uleb128 0xb
 4952 0198 04       		.byte	0x4
 4953 0199 9D010000 		.4byte	0x19d
 4954 019d 0C       		.uleb128 0xc
 4955 019e 90010000 		.4byte	0x190
 4956 01a2 04       		.uleb128 0x4
 4957 01a3 8E130000 		.4byte	.LASF39
 4958 01a7 02       		.byte	0x2
 4959 01a8 1E       		.byte	0x1e
 4960 01a9 A9000000 		.4byte	0xa9
 4961 01ad 0D       		.uleb128 0xd
 4962 01ae 04       		.byte	0x4
 4963 01af 02       		.byte	0x2
 4964 01b0 20       		.byte	0x20
 4965 01b1 CA010000 		.4byte	0x1ca
 4966 01b5 0E       		.uleb128 0xe
 4967 01b6 7800     		.ascii	"x\000"
 4968 01b8 02       		.byte	0x2
 4969 01b9 22       		.byte	0x22
 4970 01ba A2010000 		.4byte	0x1a2
 4971 01be 00       		.byte	0
 4972 01bf 0E       		.uleb128 0xe
 4973 01c0 7900     		.ascii	"y\000"
 4974 01c2 02       		.byte	0x2
 4975 01c3 23       		.byte	0x23
 4976 01c4 A2010000 		.4byte	0x1a2
 4977 01c8 02       		.byte	0x2
 4978 01c9 00       		.byte	0
 4979 01ca 04       		.uleb128 0x4
 4980 01cb C8000000 		.4byte	.LASF40
 4981 01cf 02       		.byte	0x2
 4982 01d0 24       		.byte	0x24
 4983 01d1 AD010000 		.4byte	0x1ad
 4984 01d5 0D       		.uleb128 0xd
 4985 01d6 08       		.byte	0x8
 4986 01d7 02       		.byte	0x2
 4987 01d8 26       		.byte	0x26
 4988 01d9 0A020000 		.4byte	0x20a
 4989 01dd 0E       		.uleb128 0xe
 4990 01de 783100   		.ascii	"x1\000"
 4991 01e1 02       		.byte	0x2
 4992 01e2 28       		.byte	0x28
 4993 01e3 A2010000 		.4byte	0x1a2
ARM GAS  C:\Users\d3bug\AppData\Local\Temp\ccFiAZjI.s 			page 137


 4994 01e7 00       		.byte	0
 4995 01e8 0E       		.uleb128 0xe
 4996 01e9 793100   		.ascii	"y1\000"
 4997 01ec 02       		.byte	0x2
 4998 01ed 29       		.byte	0x29
 4999 01ee A2010000 		.4byte	0x1a2
 5000 01f2 02       		.byte	0x2
 5001 01f3 0E       		.uleb128 0xe
 5002 01f4 783200   		.ascii	"x2\000"
 5003 01f7 02       		.byte	0x2
 5004 01f8 2A       		.byte	0x2a
 5005 01f9 A2010000 		.4byte	0x1a2
 5006 01fd 04       		.byte	0x4
 5007 01fe 0E       		.uleb128 0xe
 5008 01ff 793200   		.ascii	"y2\000"
 5009 0202 02       		.byte	0x2
 5010 0203 2B       		.byte	0x2b
 5011 0204 A2010000 		.4byte	0x1a2
 5012 0208 06       		.byte	0x6
 5013 0209 00       		.byte	0
 5014 020a 04       		.uleb128 0x4
 5015 020b F2060000 		.4byte	.LASF41
 5016 020f 02       		.byte	0x2
 5017 0210 2C       		.byte	0x2c
 5018 0211 D5010000 		.4byte	0x1d5
 5019 0215 0D       		.uleb128 0xd
 5020 0216 04       		.byte	0x4
 5021 0217 06       		.byte	0x6
 5022 0218 25       		.byte	0x25
 5023 0219 3C020000 		.4byte	0x23c
 5024 021d 0F       		.uleb128 0xf
 5025 021e 52070000 		.4byte	.LASF42
 5026 0222 06       		.byte	0x6
 5027 0223 27       		.byte	0x27
 5028 0224 BF000000 		.4byte	0xbf
 5029 0228 04       		.byte	0x4
 5030 0229 08       		.byte	0x8
 5031 022a 18       		.byte	0x18
 5032 022b 00       		.byte	0
 5033 022c 0F       		.uleb128 0xf
 5034 022d D3030000 		.4byte	.LASF43
 5035 0231 06       		.byte	0x6
 5036 0232 28       		.byte	0x28
 5037 0233 BF000000 		.4byte	0xbf
 5038 0237 04       		.byte	0x4
 5039 0238 18       		.byte	0x18
 5040 0239 00       		.byte	0
 5041 023a 00       		.byte	0
 5042 023b 00       		.byte	0
 5043 023c 04       		.uleb128 0x4
 5044 023d 6F0B0000 		.4byte	.LASF44
 5045 0241 06       		.byte	0x6
 5046 0242 29       		.byte	0x29
 5047 0243 15020000 		.4byte	0x215
 5048 0247 10       		.uleb128 0x10
 5049 0248 43140000 		.4byte	.LASF93
 5050 024c 28       		.byte	0x28
ARM GAS  C:\Users\d3bug\AppData\Local\Temp\ccFiAZjI.s 			page 138


 5051 024d 06       		.byte	0x6
 5052 024e 31       		.byte	0x31
 5053 024f ED020000 		.4byte	0x2ed
 5054 0253 11       		.uleb128 0x11
 5055 0254 0D000000 		.4byte	.LASF45
 5056 0258 06       		.byte	0x6
 5057 0259 33       		.byte	0x33
 5058 025a BF000000 		.4byte	0xbf
 5059 025e 00       		.byte	0
 5060 025f 11       		.uleb128 0x11
 5061 0260 8F140000 		.4byte	.LASF46
 5062 0264 06       		.byte	0x6
 5063 0265 34       		.byte	0x34
 5064 0266 BF000000 		.4byte	0xbf
 5065 026a 04       		.byte	0x4
 5066 026b 11       		.uleb128 0x11
 5067 026c C6010000 		.4byte	.LASF47
 5068 0270 06       		.byte	0x6
 5069 0271 35       		.byte	0x35
 5070 0272 ED020000 		.4byte	0x2ed
 5071 0276 08       		.byte	0x8
 5072 0277 11       		.uleb128 0x11
 5073 0278 94100000 		.4byte	.LASF48
 5074 027c 06       		.byte	0x6
 5075 027d 36       		.byte	0x36
 5076 027e F8020000 		.4byte	0x2f8
 5077 0282 0C       		.byte	0xc
 5078 0283 11       		.uleb128 0x11
 5079 0284 4E0B0000 		.4byte	.LASF49
 5080 0288 06       		.byte	0x6
 5081 0289 37       		.byte	0x37
 5082 028a 03030000 		.4byte	0x303
 5083 028e 10       		.byte	0x10
 5084 028f 11       		.uleb128 0x11
 5085 0290 850E0000 		.4byte	.LASF50
 5086 0294 06       		.byte	0x6
 5087 0295 38       		.byte	0x38
 5088 0296 2D030000 		.4byte	0x32d
 5089 029a 14       		.byte	0x14
 5090 029b 11       		.uleb128 0x11
 5091 029c 28090000 		.4byte	.LASF51
 5092 02a0 06       		.byte	0x6
 5093 02a1 39       		.byte	0x39
 5094 02a2 47030000 		.4byte	0x347
 5095 02a6 18       		.byte	0x18
 5096 02a7 11       		.uleb128 0x11
 5097 02a8 F9050000 		.4byte	.LASF52
 5098 02ac 06       		.byte	0x6
 5099 02ad 3A       		.byte	0x3a
 5100 02ae 4D030000 		.4byte	0x34d
 5101 02b2 1C       		.byte	0x1c
 5102 02b3 0F       		.uleb128 0xf
 5103 02b4 5A090000 		.4byte	.LASF53
 5104 02b8 06       		.byte	0x6
 5105 02b9 3B       		.byte	0x3b
 5106 02ba BF000000 		.4byte	0xbf
 5107 02be 04       		.byte	0x4
ARM GAS  C:\Users\d3bug\AppData\Local\Temp\ccFiAZjI.s 			page 139


 5108 02bf 08       		.byte	0x8
 5109 02c0 18       		.byte	0x18
 5110 02c1 20       		.byte	0x20
 5111 02c2 12       		.uleb128 0x12
 5112 02c3 62707000 		.ascii	"bpp\000"
 5113 02c7 06       		.byte	0x6
 5114 02c8 3C       		.byte	0x3c
 5115 02c9 BF000000 		.4byte	0xbf
 5116 02cd 04       		.byte	0x4
 5117 02ce 04       		.byte	0x4
 5118 02cf 14       		.byte	0x14
 5119 02d0 20       		.byte	0x20
 5120 02d1 0F       		.uleb128 0xf
 5121 02d2 2D060000 		.4byte	.LASF54
 5122 02d6 06       		.byte	0x6
 5123 02d7 3D       		.byte	0x3d
 5124 02d8 BF000000 		.4byte	0xbf
 5125 02dc 04       		.byte	0x4
 5126 02dd 08       		.byte	0x8
 5127 02de 0C       		.byte	0xc
 5128 02df 20       		.byte	0x20
 5129 02e0 11       		.uleb128 0x11
 5130 02e1 1E090000 		.4byte	.LASF55
 5131 02e5 06       		.byte	0x6
 5132 02e6 3E       		.byte	0x3e
 5133 02e7 B4000000 		.4byte	0xb4
 5134 02eb 24       		.byte	0x24
 5135 02ec 00       		.byte	0
 5136 02ed 0B       		.uleb128 0xb
 5137 02ee 04       		.byte	0x4
 5138 02ef F3020000 		.4byte	0x2f3
 5139 02f3 0C       		.uleb128 0xc
 5140 02f4 9E000000 		.4byte	0x9e
 5141 02f8 0B       		.uleb128 0xb
 5142 02f9 04       		.byte	0x4
 5143 02fa FE020000 		.4byte	0x2fe
 5144 02fe 0C       		.uleb128 0xc
 5145 02ff 3C020000 		.4byte	0x23c
 5146 0303 0B       		.uleb128 0xb
 5147 0304 04       		.byte	0x4
 5148 0305 09030000 		.4byte	0x309
 5149 0309 0C       		.uleb128 0xc
 5150 030a BF000000 		.4byte	0xbf
 5151 030e 13       		.uleb128 0x13
 5152 030f ED020000 		.4byte	0x2ed
 5153 0313 22030000 		.4byte	0x322
 5154 0317 14       		.uleb128 0x14
 5155 0318 22030000 		.4byte	0x322
 5156 031c 14       		.uleb128 0x14
 5157 031d BF000000 		.4byte	0xbf
 5158 0321 00       		.byte	0
 5159 0322 0B       		.uleb128 0xb
 5160 0323 04       		.byte	0x4
 5161 0324 28030000 		.4byte	0x328
 5162 0328 0C       		.uleb128 0xc
 5163 0329 47020000 		.4byte	0x247
 5164 032d 0B       		.uleb128 0xb
ARM GAS  C:\Users\d3bug\AppData\Local\Temp\ccFiAZjI.s 			page 140


 5165 032e 04       		.byte	0x4
 5166 032f 0E030000 		.4byte	0x30e
 5167 0333 13       		.uleb128 0x13
 5168 0334 A9000000 		.4byte	0xa9
 5169 0338 47030000 		.4byte	0x347
 5170 033c 14       		.uleb128 0x14
 5171 033d 22030000 		.4byte	0x322
 5172 0341 14       		.uleb128 0x14
 5173 0342 BF000000 		.4byte	0xbf
 5174 0346 00       		.byte	0
 5175 0347 0B       		.uleb128 0xb
 5176 0348 04       		.byte	0x4
 5177 0349 33030000 		.4byte	0x333
 5178 034d 0B       		.uleb128 0xb
 5179 034e 04       		.byte	0x4
 5180 034f 47020000 		.4byte	0x247
 5181 0353 04       		.uleb128 0x4
 5182 0354 4A130000 		.4byte	.LASF56
 5183 0358 06       		.byte	0x6
 5184 0359 3F       		.byte	0x3f
 5185 035a 47020000 		.4byte	0x247
 5186 035e 04       		.uleb128 0x4
 5187 035f D5130000 		.4byte	.LASF57
 5188 0363 07       		.byte	0x7
 5189 0364 2A       		.byte	0x2a
 5190 0365 9E000000 		.4byte	0x9e
 5191 0369 04       		.uleb128 0x4
 5192 036a CC0F0000 		.4byte	.LASF58
 5193 036e 07       		.byte	0x7
 5194 036f 32       		.byte	0x32
 5195 0370 9E000000 		.4byte	0x9e
 5196 0374 0D       		.uleb128 0xd
 5197 0375 06       		.byte	0x6
 5198 0376 07       		.byte	0x7
 5199 0377 3E       		.byte	0x3e
 5200 0378 AD030000 		.4byte	0x3ad
 5201 037c 11       		.uleb128 0x11
 5202 037d 7C0F0000 		.4byte	.LASF59
 5203 0381 07       		.byte	0x7
 5204 0382 3F       		.byte	0x3f
 5205 0383 71010000 		.4byte	0x171
 5206 0387 00       		.byte	0
 5207 0388 11       		.uleb128 0x11
 5208 0389 D5090000 		.4byte	.LASF60
 5209 038d 07       		.byte	0x7
 5210 038e 40       		.byte	0x40
 5211 038f A2010000 		.4byte	0x1a2
 5212 0393 02       		.byte	0x2
 5213 0394 11       		.uleb128 0x11
 5214 0395 5B140000 		.4byte	.LASF61
 5215 0399 07       		.byte	0x7
 5216 039a 41       		.byte	0x41
 5217 039b 5E030000 		.4byte	0x35e
 5218 039f 04       		.byte	0x4
 5219 03a0 0E       		.uleb128 0xe
 5220 03a1 6F706100 		.ascii	"opa\000"
 5221 03a5 07       		.byte	0x7
ARM GAS  C:\Users\d3bug\AppData\Local\Temp\ccFiAZjI.s 			page 141


 5222 03a6 42       		.byte	0x42
 5223 03a7 7C010000 		.4byte	0x17c
 5224 03ab 05       		.byte	0x5
 5225 03ac 00       		.byte	0
 5226 03ad 0D       		.uleb128 0xd
 5227 03ae 06       		.byte	0x6
 5228 03af 07       		.byte	0x7
 5229 03b0 45       		.byte	0x45
 5230 03b1 DA030000 		.4byte	0x3da
 5231 03b5 11       		.uleb128 0x11
 5232 03b6 7C0F0000 		.4byte	.LASF59
 5233 03ba 07       		.byte	0x7
 5234 03bb 46       		.byte	0x46
 5235 03bc 71010000 		.4byte	0x171
 5236 03c0 00       		.byte	0
 5237 03c1 11       		.uleb128 0x11
 5238 03c2 D5090000 		.4byte	.LASF60
 5239 03c6 07       		.byte	0x7
 5240 03c7 47       		.byte	0x47
 5241 03c8 A2010000 		.4byte	0x1a2
 5242 03cc 02       		.byte	0x2
 5243 03cd 11       		.uleb128 0x11
 5244 03ce C1010000 		.4byte	.LASF62
 5245 03d2 07       		.byte	0x7
 5246 03d3 48       		.byte	0x48
 5247 03d4 69030000 		.4byte	0x369
 5248 03d8 04       		.byte	0x4
 5249 03d9 00       		.byte	0
 5250 03da 0D       		.uleb128 0xd
 5251 03db 06       		.byte	0x6
 5252 03dc 07       		.byte	0x7
 5253 03dd 4B       		.byte	0x4b
 5254 03de 07040000 		.4byte	0x407
 5255 03e2 0E       		.uleb128 0xe
 5256 03e3 76657200 		.ascii	"ver\000"
 5257 03e7 07       		.byte	0x7
 5258 03e8 4C       		.byte	0x4c
 5259 03e9 A2010000 		.4byte	0x1a2
 5260 03ed 00       		.byte	0
 5261 03ee 0E       		.uleb128 0xe
 5262 03ef 686F7200 		.ascii	"hor\000"
 5263 03f3 07       		.byte	0x7
 5264 03f4 4D       		.byte	0x4d
 5265 03f5 A2010000 		.4byte	0x1a2
 5266 03f9 02       		.byte	0x2
 5267 03fa 11       		.uleb128 0x11
 5268 03fb 1A080000 		.4byte	.LASF63
 5269 03ff 07       		.byte	0x7
 5270 0400 4E       		.byte	0x4e
 5271 0401 A2010000 		.4byte	0x1a2
 5272 0405 04       		.byte	0x4
 5273 0406 00       		.byte	0
 5274 0407 0D       		.uleb128 0xd
 5275 0408 1A       		.byte	0x1a
 5276 0409 07       		.byte	0x7
 5277 040a 38       		.byte	0x38
 5278 040b 73040000 		.4byte	0x473
ARM GAS  C:\Users\d3bug\AppData\Local\Temp\ccFiAZjI.s 			page 142


 5279 040f 11       		.uleb128 0x11
 5280 0410 3A0D0000 		.4byte	.LASF64
 5281 0414 07       		.byte	0x7
 5282 0415 39       		.byte	0x39
 5283 0416 71010000 		.4byte	0x171
 5284 041a 00       		.byte	0
 5285 041b 11       		.uleb128 0x11
 5286 041c 830B0000 		.4byte	.LASF65
 5287 0420 07       		.byte	0x7
 5288 0421 3A       		.byte	0x3a
 5289 0422 71010000 		.4byte	0x171
 5290 0426 01       		.byte	0x1
 5291 0427 11       		.uleb128 0x11
 5292 0428 E8000000 		.4byte	.LASF66
 5293 042c 07       		.byte	0x7
 5294 042d 3B       		.byte	0x3b
 5295 042e A2010000 		.4byte	0x1a2
 5296 0432 02       		.byte	0x2
 5297 0433 0E       		.uleb128 0xe
 5298 0434 6F706100 		.ascii	"opa\000"
 5299 0438 07       		.byte	0x7
 5300 0439 3C       		.byte	0x3c
 5301 043a 7C010000 		.4byte	0x17c
 5302 043e 04       		.byte	0x4
 5303 043f 11       		.uleb128 0x11
 5304 0440 B9130000 		.4byte	.LASF67
 5305 0444 07       		.byte	0x7
 5306 0445 43       		.byte	0x43
 5307 0446 74030000 		.4byte	0x374
 5308 044a 06       		.byte	0x6
 5309 044b 11       		.uleb128 0x11
 5310 044c C0110000 		.4byte	.LASF68
 5311 0450 07       		.byte	0x7
 5312 0451 49       		.byte	0x49
 5313 0452 AD030000 		.4byte	0x3ad
 5314 0456 0C       		.byte	0xc
 5315 0457 11       		.uleb128 0x11
 5316 0458 8F120000 		.4byte	.LASF69
 5317 045c 07       		.byte	0x7
 5318 045d 4F       		.byte	0x4f
 5319 045e DA030000 		.4byte	0x3da
 5320 0462 12       		.byte	0x12
 5321 0463 0F       		.uleb128 0xf
 5322 0464 8C080000 		.4byte	.LASF70
 5323 0468 07       		.byte	0x7
 5324 0469 51       		.byte	0x51
 5325 046a 9E000000 		.4byte	0x9e
 5326 046e 01       		.byte	0x1
 5327 046f 01       		.byte	0x1
 5328 0470 07       		.byte	0x7
 5329 0471 18       		.byte	0x18
 5330 0472 00       		.byte	0
 5331 0473 0D       		.uleb128 0xd
 5332 0474 10       		.byte	0x10
 5333 0475 07       		.byte	0x7
 5334 0476 55       		.byte	0x55
 5335 0477 B8040000 		.4byte	0x4b8
ARM GAS  C:\Users\d3bug\AppData\Local\Temp\ccFiAZjI.s 			page 143


 5336 047b 11       		.uleb128 0x11
 5337 047c 7C0F0000 		.4byte	.LASF59
 5338 0480 07       		.byte	0x7
 5339 0481 56       		.byte	0x56
 5340 0482 71010000 		.4byte	0x171
 5341 0486 00       		.byte	0
 5342 0487 11       		.uleb128 0x11
 5343 0488 07100000 		.4byte	.LASF71
 5344 048c 07       		.byte	0x7
 5345 048d 57       		.byte	0x57
 5346 048e B8040000 		.4byte	0x4b8
 5347 0492 04       		.byte	0x4
 5348 0493 11       		.uleb128 0x11
 5349 0494 0C100000 		.4byte	.LASF72
 5350 0498 07       		.byte	0x7
 5351 0499 58       		.byte	0x58
 5352 049a A2010000 		.4byte	0x1a2
 5353 049e 08       		.byte	0x8
 5354 049f 11       		.uleb128 0x11
 5355 04a0 A60F0000 		.4byte	.LASF73
 5356 04a4 07       		.byte	0x7
 5357 04a5 59       		.byte	0x59
 5358 04a6 A2010000 		.4byte	0x1a2
 5359 04aa 0A       		.byte	0xa
 5360 04ab 0E       		.uleb128 0xe
 5361 04ac 6F706100 		.ascii	"opa\000"
 5362 04b0 07       		.byte	0x7
 5363 04b1 5A       		.byte	0x5a
 5364 04b2 7C010000 		.4byte	0x17c
 5365 04b6 0C       		.byte	0xc
 5366 04b7 00       		.byte	0
 5367 04b8 0B       		.uleb128 0xb
 5368 04b9 04       		.byte	0x4
 5369 04ba BE040000 		.4byte	0x4be
 5370 04be 0C       		.uleb128 0xc
 5371 04bf 53030000 		.4byte	0x353
 5372 04c3 0D       		.uleb128 0xd
 5373 04c4 03       		.byte	0x3
 5374 04c5 07       		.byte	0x7
 5375 04c6 5D       		.byte	0x5d
 5376 04c7 F0040000 		.4byte	0x4f0
 5377 04cb 11       		.uleb128 0x11
 5378 04cc 7C0F0000 		.4byte	.LASF59
 5379 04d0 07       		.byte	0x7
 5380 04d1 5E       		.byte	0x5e
 5381 04d2 71010000 		.4byte	0x171
 5382 04d6 00       		.byte	0
 5383 04d7 11       		.uleb128 0x11
 5384 04d8 A4000000 		.4byte	.LASF74
 5385 04dc 07       		.byte	0x7
 5386 04dd 5F       		.byte	0x5f
 5387 04de 7C010000 		.4byte	0x17c
 5388 04e2 01       		.byte	0x1
 5389 04e3 0E       		.uleb128 0xe
 5390 04e4 6F706100 		.ascii	"opa\000"
 5391 04e8 07       		.byte	0x7
 5392 04e9 60       		.byte	0x60
ARM GAS  C:\Users\d3bug\AppData\Local\Temp\ccFiAZjI.s 			page 144


 5393 04ea 7C010000 		.4byte	0x17c
 5394 04ee 02       		.byte	0x2
 5395 04ef 00       		.byte	0
 5396 04f0 0D       		.uleb128 0xd
 5397 04f1 06       		.byte	0x6
 5398 04f2 07       		.byte	0x7
 5399 04f3 63       		.byte	0x63
 5400 04f4 2C050000 		.4byte	0x52c
 5401 04f8 11       		.uleb128 0x11
 5402 04f9 7C0F0000 		.4byte	.LASF59
 5403 04fd 07       		.byte	0x7
 5404 04fe 64       		.byte	0x64
 5405 04ff 71010000 		.4byte	0x171
 5406 0503 00       		.byte	0
 5407 0504 11       		.uleb128 0x11
 5408 0505 D5090000 		.4byte	.LASF60
 5409 0509 07       		.byte	0x7
 5410 050a 65       		.byte	0x65
 5411 050b A2010000 		.4byte	0x1a2
 5412 050f 02       		.byte	0x2
 5413 0510 0E       		.uleb128 0xe
 5414 0511 6F706100 		.ascii	"opa\000"
 5415 0515 07       		.byte	0x7
 5416 0516 66       		.byte	0x66
 5417 0517 7C010000 		.4byte	0x17c
 5418 051b 04       		.byte	0x4
 5419 051c 0F       		.uleb128 0xf
 5420 051d B0060000 		.4byte	.LASF75
 5421 0521 07       		.byte	0x7
 5422 0522 67       		.byte	0x67
 5423 0523 9E000000 		.4byte	0x9e
 5424 0527 01       		.byte	0x1
 5425 0528 01       		.byte	0x1
 5426 0529 07       		.byte	0x7
 5427 052a 05       		.byte	0x5
 5428 052b 00       		.byte	0
 5429 052c 0D       		.uleb128 0xd
 5430 052d 38       		.byte	0x38
 5431 052e 07       		.byte	0x7
 5432 052f 34       		.byte	0x34
 5433 0530 74050000 		.4byte	0x574
 5434 0534 0F       		.uleb128 0xf
 5435 0535 910A0000 		.4byte	.LASF76
 5436 0539 07       		.byte	0x7
 5437 053a 36       		.byte	0x36
 5438 053b 9E000000 		.4byte	0x9e
 5439 053f 01       		.byte	0x1
 5440 0540 01       		.byte	0x1
 5441 0541 07       		.byte	0x7
 5442 0542 00       		.byte	0
 5443 0543 11       		.uleb128 0x11
 5444 0544 83050000 		.4byte	.LASF77
 5445 0548 07       		.byte	0x7
 5446 0549 52       		.byte	0x52
 5447 054a 07040000 		.4byte	0x407
 5448 054e 02       		.byte	0x2
 5449 054f 11       		.uleb128 0x11
ARM GAS  C:\Users\d3bug\AppData\Local\Temp\ccFiAZjI.s 			page 145


 5450 0550 98060000 		.4byte	.LASF78
 5451 0554 07       		.byte	0x7
 5452 0555 5B       		.byte	0x5b
 5453 0556 73040000 		.4byte	0x473
 5454 055a 1C       		.byte	0x1c
 5455 055b 11       		.uleb128 0x11
 5456 055c AA060000 		.4byte	.LASF79
 5457 0560 07       		.byte	0x7
 5458 0561 61       		.byte	0x61
 5459 0562 C3040000 		.4byte	0x4c3
 5460 0566 2C       		.byte	0x2c
 5461 0567 11       		.uleb128 0x11
 5462 0568 00090000 		.4byte	.LASF80
 5463 056c 07       		.byte	0x7
 5464 056d 68       		.byte	0x68
 5465 056e F0040000 		.4byte	0x4f0
 5466 0572 30       		.byte	0x30
 5467 0573 00       		.byte	0
 5468 0574 04       		.uleb128 0x4
 5469 0575 0F080000 		.4byte	.LASF81
 5470 0579 07       		.byte	0x7
 5471 057a 69       		.byte	0x69
 5472 057b 2C050000 		.4byte	0x52c
 5473 057f 04       		.uleb128 0x4
 5474 0580 00000000 		.4byte	.LASF82
 5475 0584 08       		.byte	0x8
 5476 0585 1E       		.byte	0x1e
 5477 0586 9E000000 		.4byte	0x9e
 5478 058a 0D       		.uleb128 0xd
 5479 058b 0C       		.byte	0xc
 5480 058c 08       		.byte	0x8
 5481 058d 21       		.byte	0x21
 5482 058e B7050000 		.4byte	0x5b7
 5483 0592 11       		.uleb128 0x11
 5484 0593 60140000 		.4byte	.LASF83
 5485 0597 08       		.byte	0x8
 5486 0598 23       		.byte	0x23
 5487 0599 BF000000 		.4byte	0xbf
 5488 059d 00       		.byte	0
 5489 059e 11       		.uleb128 0x11
 5490 059f C6030000 		.4byte	.LASF84
 5491 05a3 08       		.byte	0x8
 5492 05a4 24       		.byte	0x24
 5493 05a5 B7050000 		.4byte	0x5b7
 5494 05a9 04       		.byte	0x4
 5495 05aa 11       		.uleb128 0x11
 5496 05ab 5F000000 		.4byte	.LASF85
 5497 05af 08       		.byte	0x8
 5498 05b0 25       		.byte	0x25
 5499 05b1 B7050000 		.4byte	0x5b7
 5500 05b5 08       		.byte	0x8
 5501 05b6 00       		.byte	0
 5502 05b7 0B       		.uleb128 0xb
 5503 05b8 04       		.byte	0x4
 5504 05b9 7F050000 		.4byte	0x57f
 5505 05bd 04       		.uleb128 0x4
 5506 05be F0100000 		.4byte	.LASF86
ARM GAS  C:\Users\d3bug\AppData\Local\Temp\ccFiAZjI.s 			page 146


 5507 05c2 08       		.byte	0x8
 5508 05c3 26       		.byte	0x26
 5509 05c4 8A050000 		.4byte	0x58a
 5510 05c8 05       		.uleb128 0x5
 5511 05c9 01       		.byte	0x1
 5512 05ca 53000000 		.4byte	0x53
 5513 05ce 09       		.byte	0x9
 5514 05cf 46       		.byte	0x46
 5515 05d0 E7050000 		.4byte	0x5e7
 5516 05d4 06       		.uleb128 0x6
 5517 05d5 5B0B0000 		.4byte	.LASF87
 5518 05d9 00       		.byte	0
 5519 05da 06       		.uleb128 0x6
 5520 05db 6F050000 		.4byte	.LASF88
 5521 05df 01       		.byte	0x1
 5522 05e0 06       		.uleb128 0x6
 5523 05e1 E5050000 		.4byte	.LASF89
 5524 05e5 02       		.byte	0x2
 5525 05e6 00       		.byte	0
 5526 05e7 04       		.uleb128 0x4
 5527 05e8 B10C0000 		.4byte	.LASF90
 5528 05ec 09       		.byte	0x9
 5529 05ed 4B       		.byte	0x4b
 5530 05ee 9E000000 		.4byte	0x9e
 5531 05f2 04       		.uleb128 0x4
 5532 05f3 7B080000 		.4byte	.LASF91
 5533 05f7 09       		.byte	0x9
 5534 05f8 4D       		.byte	0x4d
 5535 05f9 FD050000 		.4byte	0x5fd
 5536 05fd 0B       		.uleb128 0xb
 5537 05fe 04       		.byte	0x4
 5538 05ff 03060000 		.4byte	0x603
 5539 0603 13       		.uleb128 0x13
 5540 0604 1C060000 		.4byte	0x61c
 5541 0608 1C060000 		.4byte	0x61c
 5542 060c 14       		.uleb128 0x14
 5543 060d 23060000 		.4byte	0x623
 5544 0611 14       		.uleb128 0x14
 5545 0612 3B070000 		.4byte	0x73b
 5546 0616 14       		.uleb128 0x14
 5547 0617 E7050000 		.4byte	0x5e7
 5548 061b 00       		.byte	0
 5549 061c 03       		.uleb128 0x3
 5550 061d 01       		.byte	0x1
 5551 061e 02       		.byte	0x2
 5552 061f 29050000 		.4byte	.LASF92
 5553 0623 0B       		.uleb128 0xb
 5554 0624 04       		.byte	0x4
 5555 0625 29060000 		.4byte	0x629
 5556 0629 10       		.uleb128 0x10
 5557 062a E80F0000 		.4byte	.LASF94
 5558 062e 44       		.byte	0x44
 5559 062f 09       		.byte	0x9
 5560 0630 9D       		.byte	0x9d
 5561 0631 3B070000 		.4byte	0x73b
 5562 0635 0E       		.uleb128 0xe
 5563 0636 70617200 		.ascii	"par\000"
ARM GAS  C:\Users\d3bug\AppData\Local\Temp\ccFiAZjI.s 			page 147


 5564 063a 09       		.byte	0x9
 5565 063b 9F       		.byte	0x9f
 5566 063c 23060000 		.4byte	0x623
 5567 0640 00       		.byte	0
 5568 0641 11       		.uleb128 0x11
 5569 0642 F1090000 		.4byte	.LASF95
 5570 0646 09       		.byte	0x9
 5571 0647 A0       		.byte	0xa0
 5572 0648 BD050000 		.4byte	0x5bd
 5573 064c 04       		.byte	0x4
 5574 064d 11       		.uleb128 0x11
 5575 064e 51110000 		.4byte	.LASF96
 5576 0652 09       		.byte	0x9
 5577 0653 A2       		.byte	0xa2
 5578 0654 0A020000 		.4byte	0x20a
 5579 0658 10       		.byte	0x10
 5580 0659 11       		.uleb128 0x11
 5581 065a B00D0000 		.4byte	.LASF97
 5582 065e 09       		.byte	0x9
 5583 065f A4       		.byte	0xa4
 5584 0660 00080000 		.4byte	0x800
 5585 0664 18       		.byte	0x18
 5586 0665 11       		.uleb128 0x11
 5587 0666 EA080000 		.4byte	.LASF98
 5588 066a 09       		.byte	0x9
 5589 066b A5       		.byte	0xa5
 5590 066c F2050000 		.4byte	0x5f2
 5591 0670 1C       		.byte	0x1c
 5592 0671 11       		.uleb128 0x11
 5593 0672 5E0C0000 		.4byte	.LASF99
 5594 0676 09       		.byte	0x9
 5595 0677 A7       		.byte	0xa7
 5596 0678 8E010000 		.4byte	0x18e
 5597 067c 20       		.byte	0x20
 5598 067d 11       		.uleb128 0x11
 5599 067e A6090000 		.4byte	.LASF100
 5600 0682 09       		.byte	0x9
 5601 0683 A8       		.byte	0xa8
 5602 0684 2D090000 		.4byte	0x92d
 5603 0688 24       		.byte	0x24
 5604 0689 11       		.uleb128 0x11
 5605 068a AB070000 		.4byte	.LASF101
 5606 068e 09       		.byte	0x9
 5607 068f AB       		.byte	0xab
 5608 0690 8E010000 		.4byte	0x18e
 5609 0694 28       		.byte	0x28
 5610 0695 0F       		.uleb128 0xf
 5611 0696 0A050000 		.4byte	.LASF102
 5612 069a 09       		.byte	0x9
 5613 069b B2       		.byte	0xb2
 5614 069c 9E000000 		.4byte	0x9e
 5615 06a0 01       		.byte	0x1
 5616 06a1 01       		.byte	0x1
 5617 06a2 07       		.byte	0x7
 5618 06a3 2C       		.byte	0x2c
 5619 06a4 0F       		.uleb128 0xf
 5620 06a5 DD0F0000 		.4byte	.LASF103
ARM GAS  C:\Users\d3bug\AppData\Local\Temp\ccFiAZjI.s 			page 148


 5621 06a9 09       		.byte	0x9
 5622 06aa B3       		.byte	0xb3
 5623 06ab 9E000000 		.4byte	0x9e
 5624 06af 01       		.byte	0x1
 5625 06b0 01       		.byte	0x1
 5626 06b1 06       		.byte	0x6
 5627 06b2 2C       		.byte	0x2c
 5628 06b3 0F       		.uleb128 0xf
 5629 06b4 B8060000 		.4byte	.LASF104
 5630 06b8 09       		.byte	0x9
 5631 06b9 B4       		.byte	0xb4
 5632 06ba 9E000000 		.4byte	0x9e
 5633 06be 01       		.byte	0x1
 5634 06bf 01       		.byte	0x1
 5635 06c0 05       		.byte	0x5
 5636 06c1 2C       		.byte	0x2c
 5637 06c2 0F       		.uleb128 0xf
 5638 06c3 35120000 		.4byte	.LASF105
 5639 06c7 09       		.byte	0x9
 5640 06c8 B5       		.byte	0xb5
 5641 06c9 9E000000 		.4byte	0x9e
 5642 06cd 01       		.byte	0x1
 5643 06ce 01       		.byte	0x1
 5644 06cf 04       		.byte	0x4
 5645 06d0 2C       		.byte	0x2c
 5646 06d1 0F       		.uleb128 0xf
 5647 06d2 50020000 		.4byte	.LASF106
 5648 06d6 09       		.byte	0x9
 5649 06d7 B6       		.byte	0xb6
 5650 06d8 9E000000 		.4byte	0x9e
 5651 06dc 01       		.byte	0x1
 5652 06dd 01       		.byte	0x1
 5653 06de 03       		.byte	0x3
 5654 06df 2C       		.byte	0x2c
 5655 06e0 12       		.uleb128 0x12
 5656 06e1 746F7000 		.ascii	"top\000"
 5657 06e5 09       		.byte	0x9
 5658 06e6 B7       		.byte	0xb7
 5659 06e7 9E000000 		.4byte	0x9e
 5660 06eb 01       		.byte	0x1
 5661 06ec 01       		.byte	0x1
 5662 06ed 02       		.byte	0x2
 5663 06ee 2C       		.byte	0x2c
 5664 06ef 0F       		.uleb128 0xf
 5665 06f0 69110000 		.4byte	.LASF107
 5666 06f4 09       		.byte	0x9
 5667 06f5 B8       		.byte	0xb8
 5668 06f6 9E000000 		.4byte	0x9e
 5669 06fa 01       		.byte	0x1
 5670 06fb 01       		.byte	0x1
 5671 06fc 01       		.byte	0x1
 5672 06fd 2C       		.byte	0x2c
 5673 06fe 11       		.uleb128 0x11
 5674 06ff 020A0000 		.4byte	.LASF108
 5675 0703 09       		.byte	0x9
 5676 0704 B9       		.byte	0xb9
 5677 0705 9E000000 		.4byte	0x9e
ARM GAS  C:\Users\d3bug\AppData\Local\Temp\ccFiAZjI.s 			page 149


 5678 0709 2D       		.byte	0x2d
 5679 070a 11       		.uleb128 0x11
 5680 070b BB140000 		.4byte	.LASF109
 5681 070f 09       		.byte	0x9
 5682 0710 BA       		.byte	0xba
 5683 0711 7C010000 		.4byte	0x17c
 5684 0715 2E       		.byte	0x2e
 5685 0716 11       		.uleb128 0x11
 5686 0717 420E0000 		.4byte	.LASF110
 5687 071b 09       		.byte	0x9
 5688 071c BC       		.byte	0xbc
 5689 071d A2010000 		.4byte	0x1a2
 5690 0721 30       		.byte	0x30
 5691 0722 11       		.uleb128 0x11
 5692 0723 74070000 		.4byte	.LASF111
 5693 0727 09       		.byte	0x9
 5694 0728 BE       		.byte	0xbe
 5695 0729 22090000 		.4byte	0x922
 5696 072d 34       		.byte	0x34
 5697 072e 11       		.uleb128 0x11
 5698 072f 24000000 		.4byte	.LASF112
 5699 0733 09       		.byte	0x9
 5700 0734 C2       		.byte	0xc2
 5701 0735 BF000000 		.4byte	0xbf
 5702 0739 40       		.byte	0x40
 5703 073a 00       		.byte	0
 5704 073b 0B       		.uleb128 0xb
 5705 073c 04       		.byte	0x4
 5706 073d 41070000 		.4byte	0x741
 5707 0741 0C       		.uleb128 0xc
 5708 0742 0A020000 		.4byte	0x20a
 5709 0746 05       		.uleb128 0x5
 5710 0747 01       		.byte	0x1
 5711 0748 53000000 		.4byte	0x53
 5712 074c 09       		.byte	0x9
 5713 074d 50       		.byte	0x50
 5714 074e 5F070000 		.4byte	0x75f
 5715 0752 06       		.uleb128 0x6
 5716 0753 7C010000 		.4byte	.LASF113
 5717 0757 00       		.byte	0
 5718 0758 06       		.uleb128 0x6
 5719 0759 070E0000 		.4byte	.LASF114
 5720 075d 01       		.byte	0x1
 5721 075e 00       		.byte	0
 5722 075f 04       		.uleb128 0x4
 5723 0760 170C0000 		.4byte	.LASF115
 5724 0764 09       		.byte	0x9
 5725 0765 54       		.byte	0x54
 5726 0766 9E000000 		.4byte	0x9e
 5727 076a 05       		.uleb128 0x5
 5728 076b 01       		.byte	0x1
 5729 076c 53000000 		.4byte	0x53
 5730 0770 09       		.byte	0x9
 5731 0771 57       		.byte	0x57
 5732 0772 F5070000 		.4byte	0x7f5
 5733 0776 06       		.uleb128 0x6
 5734 0777 360A0000 		.4byte	.LASF116
ARM GAS  C:\Users\d3bug\AppData\Local\Temp\ccFiAZjI.s 			page 150


 5735 077b 00       		.byte	0
 5736 077c 06       		.uleb128 0x6
 5737 077d C30A0000 		.4byte	.LASF117
 5738 0781 01       		.byte	0x1
 5739 0782 06       		.uleb128 0x6
 5740 0783 3E110000 		.4byte	.LASF118
 5741 0787 02       		.byte	0x2
 5742 0788 06       		.uleb128 0x6
 5743 0789 73000000 		.4byte	.LASF119
 5744 078d 03       		.byte	0x3
 5745 078e 06       		.uleb128 0x6
 5746 078f 8E0F0000 		.4byte	.LASF120
 5747 0793 04       		.byte	0x4
 5748 0794 06       		.uleb128 0x6
 5749 0795 8E0B0000 		.4byte	.LASF121
 5750 0799 05       		.byte	0x5
 5751 079a 06       		.uleb128 0x6
 5752 079b CE070000 		.4byte	.LASF122
 5753 079f 06       		.byte	0x6
 5754 07a0 06       		.uleb128 0x6
 5755 07a1 6A020000 		.4byte	.LASF123
 5756 07a5 07       		.byte	0x7
 5757 07a6 06       		.uleb128 0x6
 5758 07a7 9E010000 		.4byte	.LASF124
 5759 07ab 08       		.byte	0x8
 5760 07ac 06       		.uleb128 0x6
 5761 07ad B30B0000 		.4byte	.LASF125
 5762 07b1 09       		.byte	0x9
 5763 07b2 06       		.uleb128 0x6
 5764 07b3 DA0C0000 		.4byte	.LASF126
 5765 07b7 0A       		.byte	0xa
 5766 07b8 06       		.uleb128 0x6
 5767 07b9 270D0000 		.4byte	.LASF127
 5768 07bd 0B       		.byte	0xb
 5769 07be 06       		.uleb128 0x6
 5770 07bf D3000000 		.4byte	.LASF128
 5771 07c3 0C       		.byte	0xc
 5772 07c4 06       		.uleb128 0x6
 5773 07c5 83040000 		.4byte	.LASF129
 5774 07c9 0D       		.byte	0xd
 5775 07ca 06       		.uleb128 0x6
 5776 07cb 16010000 		.4byte	.LASF130
 5777 07cf 0E       		.byte	0xe
 5778 07d0 06       		.uleb128 0x6
 5779 07d1 070D0000 		.4byte	.LASF131
 5780 07d5 0F       		.byte	0xf
 5781 07d6 06       		.uleb128 0x6
 5782 07d7 05090000 		.4byte	.LASF132
 5783 07db 10       		.byte	0x10
 5784 07dc 06       		.uleb128 0x6
 5785 07dd 70060000 		.4byte	.LASF133
 5786 07e1 11       		.byte	0x11
 5787 07e2 06       		.uleb128 0x6
 5788 07e3 970A0000 		.4byte	.LASF134
 5789 07e7 12       		.byte	0x12
 5790 07e8 06       		.uleb128 0x6
 5791 07e9 D0100000 		.4byte	.LASF135
ARM GAS  C:\Users\d3bug\AppData\Local\Temp\ccFiAZjI.s 			page 151


 5792 07ed 13       		.byte	0x13
 5793 07ee 06       		.uleb128 0x6
 5794 07ef F3040000 		.4byte	.LASF136
 5795 07f3 14       		.byte	0x14
 5796 07f4 00       		.byte	0
 5797 07f5 04       		.uleb128 0x4
 5798 07f6 8D0D0000 		.4byte	.LASF137
 5799 07fa 09       		.byte	0x9
 5800 07fb 73       		.byte	0x73
 5801 07fc 9E000000 		.4byte	0x9e
 5802 0800 04       		.uleb128 0x4
 5803 0801 BE020000 		.4byte	.LASF138
 5804 0805 09       		.byte	0x9
 5805 0806 75       		.byte	0x75
 5806 0807 0B080000 		.4byte	0x80b
 5807 080b 0B       		.uleb128 0xb
 5808 080c 04       		.byte	0x4
 5809 080d 11080000 		.4byte	0x811
 5810 0811 13       		.uleb128 0x13
 5811 0812 5F070000 		.4byte	0x75f
 5812 0816 2A080000 		.4byte	0x82a
 5813 081a 14       		.uleb128 0x14
 5814 081b 23060000 		.4byte	0x623
 5815 081f 14       		.uleb128 0x14
 5816 0820 F5070000 		.4byte	0x7f5
 5817 0824 14       		.uleb128 0x14
 5818 0825 8E010000 		.4byte	0x18e
 5819 0829 00       		.byte	0
 5820 082a 05       		.uleb128 0x5
 5821 082b 01       		.byte	0x1
 5822 082c 53000000 		.4byte	0x53
 5823 0830 09       		.byte	0x9
 5824 0831 78       		.byte	0x78
 5825 0832 B5080000 		.4byte	0x8b5
 5826 0836 06       		.uleb128 0x6
 5827 0837 0B0B0000 		.4byte	.LASF139
 5828 083b 00       		.byte	0
 5829 083c 06       		.uleb128 0x6
 5830 083d F20F0000 		.4byte	.LASF140
 5831 0841 01       		.byte	0x1
 5832 0842 06       		.uleb128 0x6
 5833 0843 510D0000 		.4byte	.LASF141
 5834 0847 02       		.byte	0x2
 5835 0848 06       		.uleb128 0x6
 5836 0849 DB090000 		.4byte	.LASF142
 5837 084d 03       		.byte	0x3
 5838 084e 06       		.uleb128 0x6
 5839 084f 630A0000 		.4byte	.LASF143
 5840 0853 04       		.byte	0x4
 5841 0854 06       		.uleb128 0x6
 5842 0855 F1020000 		.4byte	.LASF144
 5843 0859 05       		.byte	0x5
 5844 085a 06       		.uleb128 0x6
 5845 085b 92070000 		.4byte	.LASF145
 5846 085f 06       		.byte	0x6
 5847 0860 06       		.uleb128 0x6
 5848 0861 20120000 		.4byte	.LASF146
ARM GAS  C:\Users\d3bug\AppData\Local\Temp\ccFiAZjI.s 			page 152


 5849 0865 07       		.byte	0x7
 5850 0866 06       		.uleb128 0x6
 5851 0867 5C0F0000 		.4byte	.LASF147
 5852 086b 08       		.byte	0x8
 5853 086c 06       		.uleb128 0x6
 5854 086d 800C0000 		.4byte	.LASF148
 5855 0871 09       		.byte	0x9
 5856 0872 06       		.uleb128 0x6
 5857 0873 69120000 		.4byte	.LASF149
 5858 0877 0A       		.byte	0xa
 5859 0878 06       		.uleb128 0x6
 5860 0879 15110000 		.4byte	.LASF150
 5861 087d 0B       		.byte	0xb
 5862 087e 06       		.uleb128 0x6
 5863 087f 82090000 		.4byte	.LASF151
 5864 0883 0C       		.byte	0xc
 5865 0884 06       		.uleb128 0x6
 5866 0885 51080000 		.4byte	.LASF152
 5867 0889 0D       		.byte	0xd
 5868 088a 06       		.uleb128 0x6
 5869 088b B4070000 		.4byte	.LASF153
 5870 088f 0E       		.byte	0xe
 5871 0890 06       		.uleb128 0x6
 5872 0891 F8120000 		.4byte	.LASF154
 5873 0895 0F       		.byte	0xf
 5874 0896 06       		.uleb128 0x6
 5875 0897 CF050000 		.4byte	.LASF155
 5876 089b 10       		.byte	0x10
 5877 089c 06       		.uleb128 0x6
 5878 089d BC090000 		.4byte	.LASF156
 5879 08a1 11       		.byte	0x11
 5880 08a2 06       		.uleb128 0x6
 5881 08a3 E70D0000 		.4byte	.LASF157
 5882 08a7 12       		.byte	0x12
 5883 08a8 06       		.uleb128 0x6
 5884 08a9 87010000 		.4byte	.LASF158
 5885 08ad 13       		.byte	0x13
 5886 08ae 06       		.uleb128 0x6
 5887 08af 2D0C0000 		.4byte	.LASF159
 5888 08b3 14       		.byte	0x14
 5889 08b4 00       		.byte	0
 5890 08b5 04       		.uleb128 0x4
 5891 08b6 FC000000 		.4byte	.LASF160
 5892 08ba 09       		.byte	0x9
 5893 08bb 8F       		.byte	0x8f
 5894 08bc 9E000000 		.4byte	0x9e
 5895 08c0 0D       		.uleb128 0xd
 5896 08c1 0C       		.byte	0xc
 5897 08c2 09       		.byte	0x9
 5898 08c3 92       		.byte	0x92
 5899 08c4 17090000 		.4byte	0x917
 5900 08c8 11       		.uleb128 0x11
 5901 08c9 B6100000 		.4byte	.LASF161
 5902 08cd 09       		.byte	0x9
 5903 08ce 93       		.byte	0x93
 5904 08cf 17090000 		.4byte	0x917
 5905 08d3 00       		.byte	0
ARM GAS  C:\Users\d3bug\AppData\Local\Temp\ccFiAZjI.s 			page 153


 5906 08d4 11       		.uleb128 0x11
 5907 08d5 B10F0000 		.4byte	.LASF162
 5908 08d9 09       		.byte	0x9
 5909 08da 94       		.byte	0x94
 5910 08db A2010000 		.4byte	0x1a2
 5911 08df 04       		.byte	0x4
 5912 08e0 11       		.uleb128 0x11
 5913 08e1 88050000 		.4byte	.LASF163
 5914 08e5 09       		.byte	0x9
 5915 08e6 95       		.byte	0x95
 5916 08e7 A2010000 		.4byte	0x1a2
 5917 08eb 06       		.byte	0x6
 5918 08ec 11       		.uleb128 0x11
 5919 08ed 4F0A0000 		.4byte	.LASF164
 5920 08f1 09       		.byte	0x9
 5921 08f2 96       		.byte	0x96
 5922 08f3 B5080000 		.4byte	0x8b5
 5923 08f7 08       		.byte	0x8
 5924 08f8 0F       		.uleb128 0xf
 5925 08f9 1B0B0000 		.4byte	.LASF165
 5926 08fd 09       		.byte	0x9
 5927 08fe 97       		.byte	0x97
 5928 08ff 9E000000 		.4byte	0x9e
 5929 0903 01       		.byte	0x1
 5930 0904 01       		.byte	0x1
 5931 0905 07       		.byte	0x7
 5932 0906 09       		.byte	0x9
 5933 0907 0F       		.uleb128 0xf
 5934 0908 1E140000 		.4byte	.LASF166
 5935 090c 09       		.byte	0x9
 5936 090d 98       		.byte	0x98
 5937 090e 9E000000 		.4byte	0x9e
 5938 0912 01       		.byte	0x1
 5939 0913 01       		.byte	0x1
 5940 0914 06       		.byte	0x6
 5941 0915 09       		.byte	0x9
 5942 0916 00       		.byte	0
 5943 0917 0B       		.uleb128 0xb
 5944 0918 04       		.byte	0x4
 5945 0919 1D090000 		.4byte	0x91d
 5946 091d 0C       		.uleb128 0xc
 5947 091e 29060000 		.4byte	0x629
 5948 0922 04       		.uleb128 0x4
 5949 0923 EF000000 		.4byte	.LASF167
 5950 0927 09       		.byte	0x9
 5951 0928 99       		.byte	0x99
 5952 0929 C0080000 		.4byte	0x8c0
 5953 092d 0B       		.uleb128 0xb
 5954 092e 04       		.byte	0x4
 5955 092f 74050000 		.4byte	0x574
 5956 0933 04       		.uleb128 0x4
 5957 0934 C30F0000 		.4byte	.LASF168
 5958 0938 09       		.byte	0x9
 5959 0939 C4       		.byte	0xc4
 5960 093a 29060000 		.4byte	0x629
 5961 093e 05       		.uleb128 0x5
 5962 093f 01       		.byte	0x1
ARM GAS  C:\Users\d3bug\AppData\Local\Temp\ccFiAZjI.s 			page 154


 5963 0940 53000000 		.4byte	0x53
 5964 0944 09       		.byte	0x9
 5965 0945 CA       		.byte	0xca
 5966 0946 75090000 		.4byte	0x975
 5967 094a 06       		.uleb128 0x6
 5968 094b 700C0000 		.4byte	.LASF169
 5969 094f 00       		.byte	0
 5970 0950 06       		.uleb128 0x6
 5971 0951 69100000 		.4byte	.LASF170
 5972 0955 01       		.byte	0x1
 5973 0956 06       		.uleb128 0x6
 5974 0957 E1040000 		.4byte	.LASF171
 5975 095b 02       		.byte	0x2
 5976 095c 06       		.uleb128 0x6
 5977 095d 64000000 		.4byte	.LASF172
 5978 0961 04       		.byte	0x4
 5979 0962 06       		.uleb128 0x6
 5980 0963 10070000 		.4byte	.LASF173
 5981 0967 08       		.byte	0x8
 5982 0968 06       		.uleb128 0x6
 5983 0969 7E100000 		.4byte	.LASF174
 5984 096d 10       		.byte	0x10
 5985 096e 06       		.uleb128 0x6
 5986 096f D00D0000 		.4byte	.LASF175
 5987 0973 20       		.byte	0x20
 5988 0974 00       		.byte	0
 5989 0975 0D       		.uleb128 0xd
 5990 0976 20       		.byte	0x20
 5991 0977 09       		.byte	0x9
 5992 0978 D7       		.byte	0xd7
 5993 0979 8A090000 		.4byte	0x98a
 5994 097d 11       		.uleb128 0x11
 5995 097e C1010000 		.4byte	.LASF62
 5996 0982 09       		.byte	0x9
 5997 0983 D8       		.byte	0xd8
 5998 0984 8A090000 		.4byte	0x98a
 5999 0988 00       		.byte	0
 6000 0989 00       		.byte	0
 6001 098a 15       		.uleb128 0x15
 6002 098b 97010000 		.4byte	0x197
 6003 098f 9A090000 		.4byte	0x99a
 6004 0993 16       		.uleb128 0x16
 6005 0994 87010000 		.4byte	0x187
 6006 0998 07       		.byte	0x7
 6007 0999 00       		.byte	0
 6008 099a 04       		.uleb128 0x4
 6009 099b 75140000 		.4byte	.LASF176
 6010 099f 09       		.byte	0x9
 6011 09a0 D9       		.byte	0xd9
 6012 09a1 75090000 		.4byte	0x975
 6013 09a5 04       		.uleb128 0x4
 6014 09a6 37060000 		.4byte	.LASF177
 6015 09aa 0A       		.byte	0xa
 6016 09ab 28       		.byte	0x28
 6017 09ac 9E000000 		.4byte	0x9e
 6018 09b0 04       		.uleb128 0x4
 6019 09b1 D4060000 		.4byte	.LASF178
ARM GAS  C:\Users\d3bug\AppData\Local\Temp\ccFiAZjI.s 			page 155


 6020 09b5 0A       		.byte	0xa
 6021 09b6 2F       		.byte	0x2f
 6022 09b7 9E000000 		.4byte	0x9e
 6023 09bb 07       		.uleb128 0x7
 6024 09bc 04       		.byte	0x4
 6025 09bd 0A       		.byte	0xa
 6026 09be 33       		.byte	0x33
 6027 09bf F0090000 		.4byte	0x9f0
 6028 09c3 17       		.uleb128 0x17
 6029 09c4 0C020000 		.4byte	.LASF179
 6030 09c8 0A       		.byte	0xa
 6031 09c9 34       		.byte	0x34
 6032 09ca CA010000 		.4byte	0x1ca
 6033 09ce 18       		.uleb128 0x18
 6034 09cf 6B657900 		.ascii	"key\000"
 6035 09d3 0A       		.byte	0xa
 6036 09d4 35       		.byte	0x35
 6037 09d5 BF000000 		.4byte	0xbf
 6038 09d9 18       		.uleb128 0x18
 6039 09da 62746E00 		.ascii	"btn\000"
 6040 09de 0A       		.byte	0xa
 6041 09df 36       		.byte	0x36
 6042 09e0 BF000000 		.4byte	0xbf
 6043 09e4 17       		.uleb128 0x17
 6044 09e5 020B0000 		.4byte	.LASF180
 6045 09e9 0A       		.byte	0xa
 6046 09ea 37       		.byte	0x37
 6047 09eb A9000000 		.4byte	0xa9
 6048 09ef 00       		.byte	0
 6049 09f0 0D       		.uleb128 0xd
 6050 09f1 0C       		.byte	0xc
 6051 09f2 0A       		.byte	0xa
 6052 09f3 32       		.byte	0x32
 6053 09f4 170A0000 		.4byte	0xa17
 6054 09f8 19       		.uleb128 0x19
 6055 09f9 BB090000 		.4byte	0x9bb
 6056 09fd 00       		.byte	0
 6057 09fe 11       		.uleb128 0x11
 6058 09ff A9130000 		.4byte	.LASF181
 6059 0a03 0A       		.byte	0xa
 6060 0a04 39       		.byte	0x39
 6061 0a05 8E010000 		.4byte	0x18e
 6062 0a09 04       		.byte	0x4
 6063 0a0a 11       		.uleb128 0x11
 6064 0a0b 4F010000 		.4byte	.LASF182
 6065 0a0f 0A       		.byte	0xa
 6066 0a10 3A       		.byte	0x3a
 6067 0a11 B0090000 		.4byte	0x9b0
 6068 0a15 08       		.byte	0x8
 6069 0a16 00       		.byte	0
 6070 0a17 04       		.uleb128 0x4
 6071 0a18 99130000 		.4byte	.LASF183
 6072 0a1c 0A       		.byte	0xa
 6073 0a1d 3B       		.byte	0x3b
 6074 0a1e F0090000 		.4byte	0x9f0
 6075 0a22 0D       		.uleb128 0xd
 6076 0a23 0C       		.byte	0xc
ARM GAS  C:\Users\d3bug\AppData\Local\Temp\ccFiAZjI.s 			page 156


 6077 0a24 0A       		.byte	0xa
 6078 0a25 3E       		.byte	0x3e
 6079 0a26 4F0A0000 		.4byte	0xa4f
 6080 0a2a 11       		.uleb128 0x11
 6081 0a2b C1010000 		.4byte	.LASF62
 6082 0a2f 0A       		.byte	0xa
 6083 0a30 3F       		.byte	0x3f
 6084 0a31 A5090000 		.4byte	0x9a5
 6085 0a35 00       		.byte	0
 6086 0a36 11       		.uleb128 0x11
 6087 0a37 A7040000 		.4byte	.LASF184
 6088 0a3b 0A       		.byte	0xa
 6089 0a3c 40       		.byte	0x40
 6090 0a3d 640A0000 		.4byte	0xa64
 6091 0a41 04       		.byte	0x4
 6092 0a42 11       		.uleb128 0x11
 6093 0a43 A9130000 		.4byte	.LASF181
 6094 0a47 0A       		.byte	0xa
 6095 0a48 41       		.byte	0x41
 6096 0a49 8E010000 		.4byte	0x18e
 6097 0a4d 08       		.byte	0x8
 6098 0a4e 00       		.byte	0
 6099 0a4f 13       		.uleb128 0x13
 6100 0a50 1C060000 		.4byte	0x61c
 6101 0a54 5E0A0000 		.4byte	0xa5e
 6102 0a58 14       		.uleb128 0x14
 6103 0a59 5E0A0000 		.4byte	0xa5e
 6104 0a5d 00       		.byte	0
 6105 0a5e 0B       		.uleb128 0xb
 6106 0a5f 04       		.byte	0x4
 6107 0a60 170A0000 		.4byte	0xa17
 6108 0a64 0B       		.uleb128 0xb
 6109 0a65 04       		.byte	0x4
 6110 0a66 4F0A0000 		.4byte	0xa4f
 6111 0a6a 04       		.uleb128 0x4
 6112 0a6b 41120000 		.4byte	.LASF185
 6113 0a6f 0A       		.byte	0xa
 6114 0a70 42       		.byte	0x42
 6115 0a71 220A0000 		.4byte	0xa22
 6116 0a75 0D       		.uleb128 0xd
 6117 0a76 1C       		.byte	0x1c
 6118 0a77 0A       		.byte	0xa
 6119 0a78 4A       		.byte	0x4a
 6120 0a79 F30A0000 		.4byte	0xaf3
 6121 0a7d 11       		.uleb128 0x11
 6122 0a7e 38090000 		.4byte	.LASF186
 6123 0a82 0A       		.byte	0xa
 6124 0a83 4B       		.byte	0x4b
 6125 0a84 CA010000 		.4byte	0x1ca
 6126 0a88 00       		.byte	0
 6127 0a89 11       		.uleb128 0x11
 6128 0a8a 2B0A0000 		.4byte	.LASF187
 6129 0a8e 0A       		.byte	0xa
 6130 0a8f 4C       		.byte	0x4c
 6131 0a90 CA010000 		.4byte	0x1ca
 6132 0a94 04       		.byte	0x4
 6133 0a95 11       		.uleb128 0x11
ARM GAS  C:\Users\d3bug\AppData\Local\Temp\ccFiAZjI.s 			page 157


 6134 0a96 590C0000 		.4byte	.LASF188
 6135 0a9a 0A       		.byte	0xa
 6136 0a9b 4D       		.byte	0x4d
 6137 0a9c CA010000 		.4byte	0x1ca
 6138 0aa0 08       		.byte	0x8
 6139 0aa1 11       		.uleb128 0x11
 6140 0aa2 670C0000 		.4byte	.LASF189
 6141 0aa6 0A       		.byte	0xa
 6142 0aa7 4E       		.byte	0x4e
 6143 0aa8 CA010000 		.4byte	0x1ca
 6144 0aac 0C       		.byte	0xc
 6145 0aad 11       		.uleb128 0x11
 6146 0aae CB030000 		.4byte	.LASF190
 6147 0ab2 0A       		.byte	0xa
 6148 0ab3 4F       		.byte	0x4f
 6149 0ab4 23060000 		.4byte	0x623
 6150 0ab8 10       		.byte	0x10
 6151 0ab9 11       		.uleb128 0x11
 6152 0aba 51090000 		.4byte	.LASF191
 6153 0abe 0A       		.byte	0xa
 6154 0abf 50       		.byte	0x50
 6155 0ac0 23060000 		.4byte	0x623
 6156 0ac4 14       		.byte	0x14
 6157 0ac5 0F       		.uleb128 0xf
 6158 0ac6 06110000 		.4byte	.LASF192
 6159 0aca 0A       		.byte	0xa
 6160 0acb 53       		.byte	0x53
 6161 0acc 9E000000 		.4byte	0x9e
 6162 0ad0 01       		.byte	0x1
 6163 0ad1 01       		.byte	0x1
 6164 0ad2 07       		.byte	0x7
 6165 0ad3 18       		.byte	0x18
 6166 0ad4 0F       		.uleb128 0xf
 6167 0ad5 0F0F0000 		.4byte	.LASF193
 6168 0ad9 0A       		.byte	0xa
 6169 0ada 54       		.byte	0x54
 6170 0adb 9E000000 		.4byte	0x9e
 6171 0adf 01       		.byte	0x1
 6172 0ae0 01       		.byte	0x1
 6173 0ae1 06       		.byte	0x6
 6174 0ae2 18       		.byte	0x18
 6175 0ae3 0F       		.uleb128 0xf
 6176 0ae4 62070000 		.4byte	.LASF194
 6177 0ae8 0A       		.byte	0xa
 6178 0ae9 55       		.byte	0x55
 6179 0aea 9E000000 		.4byte	0x9e
 6180 0aee 01       		.byte	0x1
 6181 0aef 01       		.byte	0x1
 6182 0af0 05       		.byte	0x5
 6183 0af1 18       		.byte	0x18
 6184 0af2 00       		.byte	0
 6185 0af3 0D       		.uleb128 0xd
 6186 0af4 08       		.byte	0x8
 6187 0af5 0A       		.byte	0xa
 6188 0af6 57       		.byte	0x57
 6189 0af7 140B0000 		.4byte	0xb14
 6190 0afb 11       		.uleb128 0x11
ARM GAS  C:\Users\d3bug\AppData\Local\Temp\ccFiAZjI.s 			page 158


 6191 0afc B3020000 		.4byte	.LASF195
 6192 0b00 0A       		.byte	0xa
 6193 0b01 58       		.byte	0x58
 6194 0b02 B0090000 		.4byte	0x9b0
 6195 0b06 00       		.byte	0
 6196 0b07 11       		.uleb128 0x11
 6197 0b08 F8070000 		.4byte	.LASF196
 6198 0b0c 0A       		.byte	0xa
 6199 0b0d 59       		.byte	0x59
 6200 0b0e BF000000 		.4byte	0xbf
 6201 0b12 04       		.byte	0x4
 6202 0b13 00       		.byte	0
 6203 0b14 07       		.uleb128 0x7
 6204 0b15 1C       		.byte	0x1c
 6205 0b16 0A       		.byte	0xa
 6206 0b17 49       		.byte	0x49
 6207 0b18 270B0000 		.4byte	0xb27
 6208 0b1c 1A       		.uleb128 0x1a
 6209 0b1d 750A0000 		.4byte	0xa75
 6210 0b21 1A       		.uleb128 0x1a
 6211 0b22 F30A0000 		.4byte	0xaf3
 6212 0b26 00       		.byte	0
 6213 0b27 10       		.uleb128 0x10
 6214 0b28 650D0000 		.4byte	.LASF197
 6215 0b2c 2C       		.byte	0x2c
 6216 0b2d 0A       		.byte	0xa
 6217 0b2e 47       		.byte	0x47
 6218 0b2f 8B0B0000 		.4byte	0xb8b
 6219 0b33 11       		.uleb128 0x11
 6220 0b34 4F010000 		.4byte	.LASF182
 6221 0b38 0A       		.byte	0xa
 6222 0b39 48       		.byte	0x48
 6223 0b3a B0090000 		.4byte	0x9b0
 6224 0b3e 00       		.byte	0
 6225 0b3f 19       		.uleb128 0x19
 6226 0b40 140B0000 		.4byte	0xb14
 6227 0b44 04       		.byte	0x4
 6228 0b45 11       		.uleb128 0x11
 6229 0b46 A40C0000 		.4byte	.LASF198
 6230 0b4a 0A       		.byte	0xa
 6231 0b4b 5D       		.byte	0x5d
 6232 0b4c BF000000 		.4byte	0xbf
 6233 0b50 20       		.byte	0x20
 6234 0b51 11       		.uleb128 0x11
 6235 0b52 E60E0000 		.4byte	.LASF199
 6236 0b56 0A       		.byte	0xa
 6237 0b57 5E       		.byte	0x5e
 6238 0b58 BF000000 		.4byte	0xbf
 6239 0b5c 24       		.byte	0x24
 6240 0b5d 0F       		.uleb128 0xf
 6241 0b5e FA130000 		.4byte	.LASF200
 6242 0b62 0A       		.byte	0xa
 6243 0b63 61       		.byte	0x61
 6244 0b64 9E000000 		.4byte	0x9e
 6245 0b68 01       		.byte	0x1
 6246 0b69 01       		.byte	0x1
 6247 0b6a 07       		.byte	0x7
ARM GAS  C:\Users\d3bug\AppData\Local\Temp\ccFiAZjI.s 			page 159


 6248 0b6b 28       		.byte	0x28
 6249 0b6c 0F       		.uleb128 0xf
 6250 0b6d 360E0000 		.4byte	.LASF201
 6251 0b71 0A       		.byte	0xa
 6252 0b72 62       		.byte	0x62
 6253 0b73 9E000000 		.4byte	0x9e
 6254 0b77 01       		.byte	0x1
 6255 0b78 01       		.byte	0x1
 6256 0b79 06       		.byte	0x6
 6257 0b7a 28       		.byte	0x28
 6258 0b7b 0F       		.uleb128 0xf
 6259 0b7c 2F080000 		.4byte	.LASF202
 6260 0b80 0A       		.byte	0xa
 6261 0b81 63       		.byte	0x63
 6262 0b82 9E000000 		.4byte	0x9e
 6263 0b86 01       		.byte	0x1
 6264 0b87 01       		.byte	0x1
 6265 0b88 05       		.byte	0x5
 6266 0b89 28       		.byte	0x28
 6267 0b8a 00       		.byte	0
 6268 0b8b 04       		.uleb128 0x4
 6269 0b8c C7110000 		.4byte	.LASF203
 6270 0b90 0A       		.byte	0xa
 6271 0b91 64       		.byte	0x64
 6272 0b92 270B0000 		.4byte	0xb27
 6273 0b96 04       		.uleb128 0x4
 6274 0b97 A1110000 		.4byte	.LASF204
 6275 0b9b 0A       		.byte	0xa
 6276 0b9c 68       		.byte	0x68
 6277 0b9d A10B0000 		.4byte	0xba1
 6278 0ba1 0B       		.uleb128 0xb
 6279 0ba2 04       		.byte	0x4
 6280 0ba3 A70B0000 		.4byte	0xba7
 6281 0ba7 1B       		.uleb128 0x1b
 6282 0ba8 B70B0000 		.4byte	0xbb7
 6283 0bac 14       		.uleb128 0x14
 6284 0bad B70B0000 		.4byte	0xbb7
 6285 0bb1 14       		.uleb128 0x14
 6286 0bb2 F5070000 		.4byte	0x7f5
 6287 0bb6 00       		.byte	0
 6288 0bb7 0B       		.uleb128 0xb
 6289 0bb8 04       		.byte	0x4
 6290 0bb9 BD0B0000 		.4byte	0xbbd
 6291 0bbd 10       		.uleb128 0x10
 6292 0bbe 44020000 		.4byte	.LASF205
 6293 0bc2 48       		.byte	0x48
 6294 0bc3 0A       		.byte	0xa
 6295 0bc4 6E       		.byte	0x6e
 6296 0bc5 0C0C0000 		.4byte	0xc0c
 6297 0bc9 11       		.uleb128 0x11
 6298 0bca 9A050000 		.4byte	.LASF206
 6299 0bce 0A       		.byte	0xa
 6300 0bcf 6F       		.byte	0x6f
 6301 0bd0 6A0A0000 		.4byte	0xa6a
 6302 0bd4 00       		.byte	0
 6303 0bd5 11       		.uleb128 0x11
 6304 0bd6 03060000 		.4byte	.LASF207
ARM GAS  C:\Users\d3bug\AppData\Local\Temp\ccFiAZjI.s 			page 160


 6305 0bda 0A       		.byte	0xa
 6306 0bdb 70       		.byte	0x70
 6307 0bdc 8B0B0000 		.4byte	0xb8b
 6308 0be0 0C       		.byte	0xc
 6309 0be1 11       		.uleb128 0x11
 6310 0be2 F8100000 		.4byte	.LASF208
 6311 0be6 0A       		.byte	0xa
 6312 0be7 71       		.byte	0x71
 6313 0be8 960B0000 		.4byte	0xb96
 6314 0bec 38       		.byte	0x38
 6315 0bed 11       		.uleb128 0x11
 6316 0bee 57020000 		.4byte	.LASF209
 6317 0bf2 0A       		.byte	0xa
 6318 0bf3 72       		.byte	0x72
 6319 0bf4 BF000000 		.4byte	0xbf
 6320 0bf8 3C       		.byte	0x3c
 6321 0bf9 19       		.uleb128 0x19
 6322 0bfa 0C0C0000 		.4byte	0xc0c
 6323 0bfe 40       		.byte	0x40
 6324 0bff 11       		.uleb128 0x11
 6325 0c00 3E140000 		.4byte	.LASF210
 6326 0c04 0A       		.byte	0xa
 6327 0c05 79       		.byte	0x79
 6328 0c06 B70B0000 		.4byte	0xbb7
 6329 0c0a 44       		.byte	0x44
 6330 0c0b 00       		.byte	0
 6331 0c0c 07       		.uleb128 0x7
 6332 0c0d 04       		.byte	0x4
 6333 0c0e 0A       		.byte	0xa
 6334 0c0f 73       		.byte	0x73
 6335 0c10 360C0000 		.4byte	0xc36
 6336 0c14 17       		.uleb128 0x17
 6337 0c15 6E140000 		.4byte	.LASF211
 6338 0c19 0A       		.byte	0xa
 6339 0c1a 74       		.byte	0x74
 6340 0c1b 23060000 		.4byte	0x623
 6341 0c1f 17       		.uleb128 0x17
 6342 0c20 32090000 		.4byte	.LASF212
 6343 0c24 0A       		.byte	0xa
 6344 0c25 75       		.byte	0x75
 6345 0c26 3B0C0000 		.4byte	0xc3b
 6346 0c2a 17       		.uleb128 0x17
 6347 0c2b 9C040000 		.4byte	.LASF213
 6348 0c2f 0A       		.byte	0xa
 6349 0c30 76       		.byte	0x76
 6350 0c31 410C0000 		.4byte	0xc41
 6351 0c35 00       		.byte	0
 6352 0c36 1C       		.uleb128 0x1c
 6353 0c37 83140000 		.4byte	.LASF377
 6354 0c3b 0B       		.uleb128 0xb
 6355 0c3c 04       		.byte	0x4
 6356 0c3d 360C0000 		.4byte	0xc36
 6357 0c41 0B       		.uleb128 0xb
 6358 0c42 04       		.byte	0x4
 6359 0c43 470C0000 		.4byte	0xc47
 6360 0c47 0C       		.uleb128 0xc
 6361 0c48 CA010000 		.4byte	0x1ca
ARM GAS  C:\Users\d3bug\AppData\Local\Temp\ccFiAZjI.s 			page 161


 6362 0c4c 04       		.uleb128 0x4
 6363 0c4d 87070000 		.4byte	.LASF214
 6364 0c51 0A       		.byte	0xa
 6365 0c52 7A       		.byte	0x7a
 6366 0c53 BD0B0000 		.4byte	0xbbd
 6367 0c57 0D       		.uleb128 0xd
 6368 0c58 0C       		.byte	0xc
 6369 0c59 0B       		.byte	0xb
 6370 0c5a 3E       		.byte	0x3e
 6371 0c5b 840C0000 		.4byte	0xc84
 6372 0c5f 11       		.uleb128 0x11
 6373 0c60 07020000 		.4byte	.LASF215
 6374 0c64 0B       		.byte	0xb
 6375 0c65 3F       		.byte	0x3f
 6376 0c66 2D090000 		.4byte	0x92d
 6377 0c6a 00       		.byte	0
 6378 0c6b 0E       		.uleb128 0xe
 6379 0c6c 73656300 		.ascii	"sec\000"
 6380 0c70 0B       		.byte	0xb
 6381 0c71 40       		.byte	0x40
 6382 0c72 2D090000 		.4byte	0x92d
 6383 0c76 04       		.byte	0x4
 6384 0c77 11       		.uleb128 0x11
 6385 0c78 CE080000 		.4byte	.LASF216
 6386 0c7c 0B       		.byte	0xb
 6387 0c7d 41       		.byte	0x41
 6388 0c7e 2D090000 		.4byte	0x92d
 6389 0c82 08       		.byte	0x8
 6390 0c83 00       		.byte	0
 6391 0c84 0D       		.uleb128 0xd
 6392 0c85 14       		.byte	0x14
 6393 0c86 0B       		.byte	0xb
 6394 0c87 20       		.byte	0x20
 6395 0c88 B00C0000 		.4byte	0xcb0
 6396 0c8c 0E       		.uleb128 0xe
 6397 0c8d 626700   		.ascii	"bg\000"
 6398 0c90 0B       		.byte	0xb
 6399 0c91 21       		.byte	0x21
 6400 0c92 2D090000 		.4byte	0x92d
 6401 0c96 00       		.byte	0
 6402 0c97 11       		.uleb128 0x11
 6403 0c98 FB0E0000 		.4byte	.LASF217
 6404 0c9c 0B       		.byte	0xb
 6405 0c9d 22       		.byte	0x22
 6406 0c9e 2D090000 		.4byte	0x92d
 6407 0ca2 04       		.byte	0x4
 6408 0ca3 11       		.uleb128 0x11
 6409 0ca4 CF130000 		.4byte	.LASF218
 6410 0ca8 0B       		.byte	0xb
 6411 0ca9 42       		.byte	0x42
 6412 0caa 570C0000 		.4byte	0xc57
 6413 0cae 08       		.byte	0x8
 6414 0caf 00       		.byte	0
 6415 0cb0 1D       		.uleb128 0x1d
 6416 0cb1 57070000 		.4byte	.LASF219
 6417 0cb5 0B       		.byte	0xb
 6418 0cb6 2401     		.2byte	0x124
ARM GAS  C:\Users\d3bug\AppData\Local\Temp\ccFiAZjI.s 			page 162


 6419 0cb8 840C0000 		.4byte	0xc84
 6420 0cbc 1E       		.uleb128 0x1e
 6421 0cbd 50050000 		.4byte	.LASF378
 6422 0cc1 02       		.byte	0x2
 6423 0cc2 41       		.byte	0x41
 6424 0cc3 03       		.byte	0x3
 6425 0cc4 DF0C0000 		.4byte	0xcdf
 6426 0cc8 1F       		.uleb128 0x1f
 6427 0cc9 400F0000 		.4byte	.LASF220
 6428 0ccd 02       		.byte	0x2
 6429 0cce 41       		.byte	0x41
 6430 0ccf DF0C0000 		.4byte	0xcdf
 6431 0cd3 20       		.uleb128 0x20
 6432 0cd4 73726300 		.ascii	"src\000"
 6433 0cd8 02       		.byte	0x2
 6434 0cd9 41       		.byte	0x41
 6435 0cda 3B070000 		.4byte	0x73b
 6436 0cde 00       		.byte	0
 6437 0cdf 0B       		.uleb128 0xb
 6438 0ce0 04       		.byte	0x4
 6439 0ce1 0A020000 		.4byte	0x20a
 6440 0ce5 21       		.uleb128 0x21
 6441 0ce6 0E120000 		.4byte	.LASF222
 6442 0cea 02       		.byte	0x2
 6443 0ceb 4B       		.byte	0x4b
 6444 0cec A2010000 		.4byte	0x1a2
 6445 0cf0 03       		.byte	0x3
 6446 0cf1 010D0000 		.4byte	0xd01
 6447 0cf5 1F       		.uleb128 0x1f
 6448 0cf6 0D030000 		.4byte	.LASF221
 6449 0cfa 02       		.byte	0x2
 6450 0cfb 4B       		.byte	0x4b
 6451 0cfc 3B070000 		.4byte	0x73b
 6452 0d00 00       		.byte	0
 6453 0d01 21       		.uleb128 0x21
 6454 0d02 610E0000 		.4byte	.LASF223
 6455 0d06 02       		.byte	0x2
 6456 0d07 55       		.byte	0x55
 6457 0d08 A2010000 		.4byte	0x1a2
 6458 0d0c 03       		.byte	0x3
 6459 0d0d 1D0D0000 		.4byte	0xd1d
 6460 0d11 1F       		.uleb128 0x1f
 6461 0d12 0D030000 		.4byte	.LASF221
 6462 0d16 02       		.byte	0x2
 6463 0d17 55       		.byte	0x55
 6464 0d18 3B070000 		.4byte	0x73b
 6465 0d1c 00       		.byte	0
 6466 0d1d 22       		.uleb128 0x22
 6467 0d1e 31070000 		.4byte	.LASF246
 6468 0d22 01       		.byte	0x1
 6469 0d23 4D07     		.2byte	0x74d
 6470 0d25 00000000 		.4byte	.LFB82
 6471 0d29 48000000 		.4byte	.LFE82-.LFB82
 6472 0d2d 01       		.uleb128 0x1
 6473 0d2e 9C       		.byte	0x9c
 6474 0d2f BC0D0000 		.4byte	0xdbc
 6475 0d33 23       		.uleb128 0x23
ARM GAS  C:\Users\d3bug\AppData\Local\Temp\ccFiAZjI.s 			page 163


 6476 0d34 6F626A00 		.ascii	"obj\000"
 6477 0d38 01       		.byte	0x1
 6478 0d39 4D07     		.2byte	0x74d
 6479 0d3b BC0D0000 		.4byte	0xdbc
 6480 0d3f 00000000 		.4byte	.LLST0
 6481 0d43 24       		.uleb128 0x24
 6482 0d44 31040000 		.4byte	.LASF224
 6483 0d48 01       		.byte	0x1
 6484 0d49 4D07     		.2byte	0x74d
 6485 0d4b A2010000 		.4byte	0x1a2
 6486 0d4f 2D000000 		.4byte	.LLST1
 6487 0d53 24       		.uleb128 0x24
 6488 0d54 2F0E0000 		.4byte	.LASF225
 6489 0d58 01       		.byte	0x1
 6490 0d59 4D07     		.2byte	0x74d
 6491 0d5b A2010000 		.4byte	0x1a2
 6492 0d5f 4E000000 		.4byte	.LLST2
 6493 0d63 25       		.uleb128 0x25
 6494 0d64 6900     		.ascii	"i\000"
 6495 0d66 01       		.byte	0x1
 6496 0d67 4F07     		.2byte	0x74f
 6497 0d69 BC0D0000 		.4byte	0xdbc
 6498 0d6d 6F000000 		.4byte	.LLST3
 6499 0d71 26       		.uleb128 0x26
 6500 0d72 0E000000 		.4byte	.LVL2
 6501 0d76 05360000 		.4byte	0x3605
 6502 0d7a 850D0000 		.4byte	0xd85
 6503 0d7e 27       		.uleb128 0x27
 6504 0d7f 01       		.uleb128 0x1
 6505 0d80 50       		.byte	0x50
 6506 0d81 02       		.uleb128 0x2
 6507 0d82 77       		.byte	0x77
 6508 0d83 00       		.sleb128 0
 6509 0d84 00       		.byte	0
 6510 0d85 26       		.uleb128 0x26
 6511 0d86 38000000 		.4byte	.LVL5
 6512 0d8a 1D0D0000 		.4byte	0xd1d
 6513 0d8e A50D0000 		.4byte	0xda5
 6514 0d92 27       		.uleb128 0x27
 6515 0d93 01       		.uleb128 0x1
 6516 0d94 50       		.byte	0x50
 6517 0d95 02       		.uleb128 0x2
 6518 0d96 74       		.byte	0x74
 6519 0d97 00       		.sleb128 0
 6520 0d98 27       		.uleb128 0x27
 6521 0d99 01       		.uleb128 0x1
 6522 0d9a 51       		.byte	0x51
 6523 0d9b 02       		.uleb128 0x2
 6524 0d9c 76       		.byte	0x76
 6525 0d9d 00       		.sleb128 0
 6526 0d9e 27       		.uleb128 0x27
 6527 0d9f 01       		.uleb128 0x1
 6528 0da0 52       		.byte	0x52
 6529 0da1 02       		.uleb128 0x2
 6530 0da2 75       		.byte	0x75
 6531 0da3 00       		.sleb128 0
 6532 0da4 00       		.byte	0
ARM GAS  C:\Users\d3bug\AppData\Local\Temp\ccFiAZjI.s 			page 164


 6533 0da5 28       		.uleb128 0x28
 6534 0da6 40000000 		.4byte	.LVL6
 6535 0daa 10360000 		.4byte	0x3610
 6536 0dae 27       		.uleb128 0x27
 6537 0daf 01       		.uleb128 0x1
 6538 0db0 50       		.byte	0x50
 6539 0db1 02       		.uleb128 0x2
 6540 0db2 77       		.byte	0x77
 6541 0db3 00       		.sleb128 0
 6542 0db4 27       		.uleb128 0x27
 6543 0db5 01       		.uleb128 0x1
 6544 0db6 51       		.byte	0x51
 6545 0db7 02       		.uleb128 0x2
 6546 0db8 74       		.byte	0x74
 6547 0db9 00       		.sleb128 0
 6548 0dba 00       		.byte	0
 6549 0dbb 00       		.byte	0
 6550 0dbc 0B       		.uleb128 0xb
 6551 0dbd 04       		.byte	0x4
 6552 0dbe 33090000 		.4byte	0x933
 6553 0dc2 29       		.uleb128 0x29
 6554 0dc3 9E100000 		.4byte	.LASF226
 6555 0dc7 01       		.byte	0x1
 6556 0dc8 BF03     		.2byte	0x3bf
 6557 0dca 00000000 		.4byte	.LFB28
 6558 0dce 0E000000 		.4byte	.LFE28-.LFB28
 6559 0dd2 01       		.uleb128 0x1
 6560 0dd3 9C       		.byte	0x9c
 6561 0dd4 F40D0000 		.4byte	0xdf4
 6562 0dd8 2A       		.uleb128 0x2a
 6563 0dd9 6F626A00 		.ascii	"obj\000"
 6564 0ddd 01       		.byte	0x1
 6565 0dde BF03     		.2byte	0x3bf
 6566 0de0 BC0D0000 		.4byte	0xdbc
 6567 0de4 01       		.uleb128 0x1
 6568 0de5 50       		.byte	0x50
 6569 0de6 2A       		.uleb128 0x2a
 6570 0de7 656E00   		.ascii	"en\000"
 6571 0dea 01       		.byte	0x1
 6572 0deb BF03     		.2byte	0x3bf
 6573 0ded 1C060000 		.4byte	0x61c
 6574 0df1 01       		.uleb128 0x1
 6575 0df2 51       		.byte	0x51
 6576 0df3 00       		.byte	0
 6577 0df4 29       		.uleb128 0x29
 6578 0df5 740E0000 		.4byte	.LASF227
 6579 0df9 01       		.byte	0x1
 6580 0dfa 1604     		.2byte	0x416
 6581 0dfc 00000000 		.4byte	.LFB33
 6582 0e00 0E000000 		.4byte	.LFE33-.LFB33
 6583 0e04 01       		.uleb128 0x1
 6584 0e05 9C       		.byte	0x9c
 6585 0e06 260E0000 		.4byte	0xe26
 6586 0e0a 2A       		.uleb128 0x2a
 6587 0e0b 6F626A00 		.ascii	"obj\000"
 6588 0e0f 01       		.byte	0x1
 6589 0e10 1604     		.2byte	0x416
ARM GAS  C:\Users\d3bug\AppData\Local\Temp\ccFiAZjI.s 			page 165


 6590 0e12 BC0D0000 		.4byte	0xdbc
 6591 0e16 01       		.uleb128 0x1
 6592 0e17 50       		.byte	0x50
 6593 0e18 2A       		.uleb128 0x2a
 6594 0e19 656E00   		.ascii	"en\000"
 6595 0e1c 01       		.byte	0x1
 6596 0e1d 1604     		.2byte	0x416
 6597 0e1f 1C060000 		.4byte	0x61c
 6598 0e23 01       		.uleb128 0x1
 6599 0e24 51       		.byte	0x51
 6600 0e25 00       		.byte	0
 6601 0e26 29       		.uleb128 0x29
 6602 0e27 6F040000 		.4byte	.LASF228
 6603 0e2b 01       		.byte	0x1
 6604 0e2c 2104     		.2byte	0x421
 6605 0e2e 00000000 		.4byte	.LFB34
 6606 0e32 0E000000 		.4byte	.LFE34-.LFB34
 6607 0e36 01       		.uleb128 0x1
 6608 0e37 9C       		.byte	0x9c
 6609 0e38 580E0000 		.4byte	0xe58
 6610 0e3c 2A       		.uleb128 0x2a
 6611 0e3d 6F626A00 		.ascii	"obj\000"
 6612 0e41 01       		.byte	0x1
 6613 0e42 2104     		.2byte	0x421
 6614 0e44 BC0D0000 		.4byte	0xdbc
 6615 0e48 01       		.uleb128 0x1
 6616 0e49 50       		.byte	0x50
 6617 0e4a 2A       		.uleb128 0x2a
 6618 0e4b 656E00   		.ascii	"en\000"
 6619 0e4e 01       		.byte	0x1
 6620 0e4f 2104     		.2byte	0x421
 6621 0e51 1C060000 		.4byte	0x61c
 6622 0e55 01       		.uleb128 0x1
 6623 0e56 51       		.byte	0x51
 6624 0e57 00       		.byte	0
 6625 0e58 29       		.uleb128 0x29
 6626 0e59 60060000 		.4byte	.LASF229
 6627 0e5d 01       		.byte	0x1
 6628 0e5e 2B04     		.2byte	0x42b
 6629 0e60 00000000 		.4byte	.LFB35
 6630 0e64 1C000000 		.4byte	.LFE35-.LFB35
 6631 0e68 01       		.uleb128 0x1
 6632 0e69 9C       		.byte	0x9c
 6633 0e6a A30E0000 		.4byte	0xea3
 6634 0e6e 23       		.uleb128 0x23
 6635 0e6f 6F626A00 		.ascii	"obj\000"
 6636 0e73 01       		.byte	0x1
 6637 0e74 2B04     		.2byte	0x42b
 6638 0e76 BC0D0000 		.4byte	0xdbc
 6639 0e7a 98000000 		.4byte	.LLST4
 6640 0e7e 23       		.uleb128 0x23
 6641 0e7f 656E00   		.ascii	"en\000"
 6642 0e82 01       		.byte	0x1
 6643 0e83 2B04     		.2byte	0x42b
 6644 0e85 1C060000 		.4byte	0x61c
 6645 0e89 B6000000 		.4byte	.LLST5
 6646 0e8d 28       		.uleb128 0x28
ARM GAS  C:\Users\d3bug\AppData\Local\Temp\ccFiAZjI.s 			page 166


 6647 0e8e 0E000000 		.4byte	.LVL13
 6648 0e92 F40D0000 		.4byte	0xdf4
 6649 0e96 27       		.uleb128 0x27
 6650 0e97 01       		.uleb128 0x1
 6651 0e98 50       		.byte	0x50
 6652 0e99 02       		.uleb128 0x2
 6653 0e9a 74       		.byte	0x74
 6654 0e9b 00       		.sleb128 0
 6655 0e9c 27       		.uleb128 0x27
 6656 0e9d 01       		.uleb128 0x1
 6657 0e9e 51       		.byte	0x51
 6658 0e9f 01       		.uleb128 0x1
 6659 0ea0 31       		.byte	0x31
 6660 0ea1 00       		.byte	0
 6661 0ea2 00       		.byte	0
 6662 0ea3 29       		.uleb128 0x29
 6663 0ea4 F1010000 		.4byte	.LASF230
 6664 0ea8 01       		.byte	0x1
 6665 0ea9 3604     		.2byte	0x436
 6666 0eab 00000000 		.4byte	.LFB36
 6667 0eaf 0E000000 		.4byte	.LFE36-.LFB36
 6668 0eb3 01       		.uleb128 0x1
 6669 0eb4 9C       		.byte	0x9c
 6670 0eb5 D50E0000 		.4byte	0xed5
 6671 0eb9 2A       		.uleb128 0x2a
 6672 0eba 6F626A00 		.ascii	"obj\000"
 6673 0ebe 01       		.byte	0x1
 6674 0ebf 3604     		.2byte	0x436
 6675 0ec1 BC0D0000 		.4byte	0xdbc
 6676 0ec5 01       		.uleb128 0x1
 6677 0ec6 50       		.byte	0x50
 6678 0ec7 2A       		.uleb128 0x2a
 6679 0ec8 656E00   		.ascii	"en\000"
 6680 0ecb 01       		.byte	0x1
 6681 0ecc 3604     		.2byte	0x436
 6682 0ece 1C060000 		.4byte	0x61c
 6683 0ed2 01       		.uleb128 0x1
 6684 0ed3 51       		.byte	0x51
 6685 0ed4 00       		.byte	0
 6686 0ed5 29       		.uleb128 0x29
 6687 0ed6 290F0000 		.4byte	.LASF231
 6688 0eda 01       		.byte	0x1
 6689 0edb 4104     		.2byte	0x441
 6690 0edd 00000000 		.4byte	.LFB37
 6691 0ee1 0E000000 		.4byte	.LFE37-.LFB37
 6692 0ee5 01       		.uleb128 0x1
 6693 0ee6 9C       		.byte	0x9c
 6694 0ee7 070F0000 		.4byte	0xf07
 6695 0eeb 2A       		.uleb128 0x2a
 6696 0eec 6F626A00 		.ascii	"obj\000"
 6697 0ef0 01       		.byte	0x1
 6698 0ef1 4104     		.2byte	0x441
 6699 0ef3 BC0D0000 		.4byte	0xdbc
 6700 0ef7 01       		.uleb128 0x1
 6701 0ef8 50       		.byte	0x50
 6702 0ef9 2A       		.uleb128 0x2a
 6703 0efa 656E00   		.ascii	"en\000"
ARM GAS  C:\Users\d3bug\AppData\Local\Temp\ccFiAZjI.s 			page 167


 6704 0efd 01       		.byte	0x1
 6705 0efe 4104     		.2byte	0x441
 6706 0f00 1C060000 		.4byte	0x61c
 6707 0f04 01       		.uleb128 0x1
 6708 0f05 51       		.byte	0x51
 6709 0f06 00       		.byte	0
 6710 0f07 29       		.uleb128 0x29
 6711 0f08 2F050000 		.4byte	.LASF232
 6712 0f0c 01       		.byte	0x1
 6713 0f0d 4B04     		.2byte	0x44b
 6714 0f0f 00000000 		.4byte	.LFB38
 6715 0f13 0E000000 		.4byte	.LFE38-.LFB38
 6716 0f17 01       		.uleb128 0x1
 6717 0f18 9C       		.byte	0x9c
 6718 0f19 390F0000 		.4byte	0xf39
 6719 0f1d 2A       		.uleb128 0x2a
 6720 0f1e 6F626A00 		.ascii	"obj\000"
 6721 0f22 01       		.byte	0x1
 6722 0f23 4B04     		.2byte	0x44b
 6723 0f25 BC0D0000 		.4byte	0xdbc
 6724 0f29 01       		.uleb128 0x1
 6725 0f2a 50       		.byte	0x50
 6726 0f2b 2A       		.uleb128 0x2a
 6727 0f2c 656E00   		.ascii	"en\000"
 6728 0f2f 01       		.byte	0x1
 6729 0f30 4B04     		.2byte	0x44b
 6730 0f32 1C060000 		.4byte	0x61c
 6731 0f36 01       		.uleb128 0x1
 6732 0f37 51       		.byte	0x51
 6733 0f38 00       		.byte	0
 6734 0f39 29       		.uleb128 0x29
 6735 0f3a C90E0000 		.4byte	.LASF233
 6736 0f3e 01       		.byte	0x1
 6737 0f3f 6004     		.2byte	0x460
 6738 0f41 00000000 		.4byte	.LFB40
 6739 0f45 0C000000 		.4byte	.LFE40-.LFB40
 6740 0f49 01       		.uleb128 0x1
 6741 0f4a 9C       		.byte	0x9c
 6742 0f4b 6E0F0000 		.4byte	0xf6e
 6743 0f4f 2A       		.uleb128 0x2a
 6744 0f50 6F626A00 		.ascii	"obj\000"
 6745 0f54 01       		.byte	0x1
 6746 0f55 6004     		.2byte	0x460
 6747 0f57 BC0D0000 		.4byte	0xdbc
 6748 0f5b 01       		.uleb128 0x1
 6749 0f5c 50       		.byte	0x50
 6750 0f5d 24       		.uleb128 0x24
 6751 0f5e D10B0000 		.4byte	.LASF234
 6752 0f62 01       		.byte	0x1
 6753 0f63 6004     		.2byte	0x460
 6754 0f65 9E000000 		.4byte	0x9e
 6755 0f69 D7000000 		.4byte	.LLST6
 6756 0f6d 00       		.byte	0
 6757 0f6e 29       		.uleb128 0x29
 6758 0f6f 38040000 		.4byte	.LASF235
 6759 0f73 01       		.byte	0x1
 6760 0f74 6A04     		.2byte	0x46a
ARM GAS  C:\Users\d3bug\AppData\Local\Temp\ccFiAZjI.s 			page 168


 6761 0f76 00000000 		.4byte	.LFB41
 6762 0f7a 0E000000 		.4byte	.LFE41-.LFB41
 6763 0f7e 01       		.uleb128 0x1
 6764 0f7f 9C       		.byte	0x9c
 6765 0f80 A30F0000 		.4byte	0xfa3
 6766 0f84 2A       		.uleb128 0x2a
 6767 0f85 6F626A00 		.ascii	"obj\000"
 6768 0f89 01       		.byte	0x1
 6769 0f8a 6A04     		.2byte	0x46a
 6770 0f8c BC0D0000 		.4byte	0xdbc
 6771 0f90 01       		.uleb128 0x1
 6772 0f91 50       		.byte	0x50
 6773 0f92 24       		.uleb128 0x24
 6774 0f93 D10B0000 		.4byte	.LASF234
 6775 0f97 01       		.byte	0x1
 6776 0f98 6A04     		.2byte	0x46a
 6777 0f9a 9E000000 		.4byte	0x9e
 6778 0f9e F8000000 		.4byte	.LLST7
 6779 0fa2 00       		.byte	0
 6780 0fa3 29       		.uleb128 0x29
 6781 0fa4 EB0A0000 		.4byte	.LASF236
 6782 0fa8 01       		.byte	0x1
 6783 0fa9 7604     		.2byte	0x476
 6784 0fab 00000000 		.4byte	.LFB42
 6785 0faf 04000000 		.4byte	.LFE42-.LFB42
 6786 0fb3 01       		.uleb128 0x1
 6787 0fb4 9C       		.byte	0x9c
 6788 0fb5 D50F0000 		.4byte	0xfd5
 6789 0fb9 2A       		.uleb128 0x2a
 6790 0fba 6F626A00 		.ascii	"obj\000"
 6791 0fbe 01       		.byte	0x1
 6792 0fbf 7604     		.2byte	0x476
 6793 0fc1 BC0D0000 		.4byte	0xdbc
 6794 0fc5 01       		.uleb128 0x1
 6795 0fc6 50       		.byte	0x50
 6796 0fc7 2A       		.uleb128 0x2a
 6797 0fc8 667000   		.ascii	"fp\000"
 6798 0fcb 01       		.byte	0x1
 6799 0fcc 7604     		.2byte	0x476
 6800 0fce 00080000 		.4byte	0x800
 6801 0fd2 01       		.uleb128 0x1
 6802 0fd3 51       		.byte	0x51
 6803 0fd4 00       		.byte	0
 6804 0fd5 29       		.uleb128 0x29
 6805 0fd6 16060000 		.4byte	.LASF237
 6806 0fda 01       		.byte	0x1
 6807 0fdb 8004     		.2byte	0x480
 6808 0fdd 00000000 		.4byte	.LFB43
 6809 0fe1 04000000 		.4byte	.LFE43-.LFB43
 6810 0fe5 01       		.uleb128 0x1
 6811 0fe6 9C       		.byte	0x9c
 6812 0fe7 07100000 		.4byte	0x1007
 6813 0feb 2A       		.uleb128 0x2a
 6814 0fec 6F626A00 		.ascii	"obj\000"
 6815 0ff0 01       		.byte	0x1
 6816 0ff1 8004     		.2byte	0x480
 6817 0ff3 BC0D0000 		.4byte	0xdbc
ARM GAS  C:\Users\d3bug\AppData\Local\Temp\ccFiAZjI.s 			page 169


 6818 0ff7 01       		.uleb128 0x1
 6819 0ff8 50       		.byte	0x50
 6820 0ff9 2A       		.uleb128 0x2a
 6821 0ffa 667000   		.ascii	"fp\000"
 6822 0ffd 01       		.byte	0x1
 6823 0ffe 8004     		.2byte	0x480
 6824 1000 F2050000 		.4byte	0x5f2
 6825 1004 01       		.uleb128 0x1
 6826 1005 51       		.byte	0x51
 6827 1006 00       		.byte	0
 6828 1007 2B       		.uleb128 0x2b
 6829 1008 10050000 		.4byte	.LASF244
 6830 100c 01       		.byte	0x1
 6831 100d 8F04     		.2byte	0x48f
 6832 100f 8E010000 		.4byte	0x18e
 6833 1013 00000000 		.4byte	.LFB44
 6834 1017 0E000000 		.4byte	.LFE44-.LFB44
 6835 101b 01       		.uleb128 0x1
 6836 101c 9C       		.byte	0x9c
 6837 101d 4B100000 		.4byte	0x104b
 6838 1021 23       		.uleb128 0x23
 6839 1022 6F626A00 		.ascii	"obj\000"
 6840 1026 01       		.byte	0x1
 6841 1027 8F04     		.2byte	0x48f
 6842 1029 BC0D0000 		.4byte	0xdbc
 6843 102d 19010000 		.4byte	.LLST8
 6844 1031 24       		.uleb128 0x24
 6845 1032 420E0000 		.4byte	.LASF110
 6846 1036 01       		.byte	0x1
 6847 1037 8F04     		.2byte	0x48f
 6848 1039 B4000000 		.4byte	0xb4
 6849 103d 37010000 		.4byte	.LLST9
 6850 1041 2C       		.uleb128 0x2c
 6851 1042 0A000000 		.4byte	.LVL25
 6852 1046 1B360000 		.4byte	0x361b
 6853 104a 00       		.byte	0
 6854 104b 29       		.uleb128 0x29
 6855 104c EB030000 		.4byte	.LASF238
 6856 1050 01       		.byte	0x1
 6857 1051 A904     		.2byte	0x4a9
 6858 1053 00000000 		.4byte	.LFB46
 6859 1057 04000000 		.4byte	.LFE46-.LFB46
 6860 105b 01       		.uleb128 0x1
 6861 105c 9C       		.byte	0x9c
 6862 105d 7E100000 		.4byte	0x107e
 6863 1061 2A       		.uleb128 0x2a
 6864 1062 6F626A00 		.ascii	"obj\000"
 6865 1066 01       		.byte	0x1
 6866 1067 A904     		.2byte	0x4a9
 6867 1069 BC0D0000 		.4byte	0xdbc
 6868 106d 01       		.uleb128 0x1
 6869 106e 50       		.byte	0x50
 6870 106f 2D       		.uleb128 0x2d
 6871 1070 24000000 		.4byte	.LASF112
 6872 1074 01       		.byte	0x1
 6873 1075 A904     		.2byte	0x4a9
 6874 1077 BF000000 		.4byte	0xbf
ARM GAS  C:\Users\d3bug\AppData\Local\Temp\ccFiAZjI.s 			page 170


 6875 107b 01       		.uleb128 0x1
 6876 107c 51       		.byte	0x51
 6877 107d 00       		.byte	0
 6878 107e 29       		.uleb128 0x29
 6879 107f D70A0000 		.4byte	.LASF239
 6880 1083 01       		.byte	0x1
 6881 1084 B604     		.2byte	0x4b6
 6882 1086 00000000 		.4byte	.LFB47
 6883 108a 04000000 		.4byte	.LFE47-.LFB47
 6884 108e 01       		.uleb128 0x1
 6885 108f 9C       		.byte	0x9c
 6886 1090 B1100000 		.4byte	0x10b1
 6887 1094 2A       		.uleb128 0x2a
 6888 1095 6F626A00 		.ascii	"obj\000"
 6889 1099 01       		.byte	0x1
 6890 109a B604     		.2byte	0x4b6
 6891 109c BC0D0000 		.4byte	0xdbc
 6892 10a0 01       		.uleb128 0x1
 6893 10a1 50       		.byte	0x50
 6894 10a2 2D       		.uleb128 0x2d
 6895 10a3 1D0E0000 		.4byte	.LASF240
 6896 10a7 01       		.byte	0x1
 6897 10a8 B604     		.2byte	0x4b6
 6898 10aa 8E010000 		.4byte	0x18e
 6899 10ae 01       		.uleb128 0x1
 6900 10af 51       		.byte	0x51
 6901 10b0 00       		.byte	0
 6902 10b1 2E       		.uleb128 0x2e
 6903 10b2 58110000 		.4byte	.LASF241
 6904 10b6 01       		.byte	0x1
 6905 10b7 1905     		.2byte	0x519
 6906 10b9 BC0D0000 		.4byte	0xdbc
 6907 10bd 00000000 		.4byte	.LFB48
 6908 10c1 0C000000 		.4byte	.LFE48-.LFB48
 6909 10c5 01       		.uleb128 0x1
 6910 10c6 9C       		.byte	0x9c
 6911 10c7 2E       		.uleb128 0x2e
 6912 10c8 E5060000 		.4byte	.LASF242
 6913 10cc 01       		.byte	0x1
 6914 10cd 2205     		.2byte	0x522
 6915 10cf BC0D0000 		.4byte	0xdbc
 6916 10d3 00000000 		.4byte	.LFB49
 6917 10d7 0C000000 		.4byte	.LFE49-.LFB49
 6918 10db 01       		.uleb128 0x1
 6919 10dc 9C       		.byte	0x9c
 6920 10dd 2E       		.uleb128 0x2e
 6921 10de 5F090000 		.4byte	.LASF243
 6922 10e2 01       		.byte	0x1
 6923 10e3 2C05     		.2byte	0x52c
 6924 10e5 BC0D0000 		.4byte	0xdbc
 6925 10e9 00000000 		.4byte	.LFB50
 6926 10ed 0C000000 		.4byte	.LFE50-.LFB50
 6927 10f1 01       		.uleb128 0x1
 6928 10f2 9C       		.byte	0x9c
 6929 10f3 2B       		.uleb128 0x2b
 6930 10f4 A10B0000 		.4byte	.LASF245
 6931 10f8 01       		.byte	0x1
ARM GAS  C:\Users\d3bug\AppData\Local\Temp\ccFiAZjI.s 			page 171


 6932 10f9 4C05     		.2byte	0x54c
 6933 10fb BC0D0000 		.4byte	0xdbc
 6934 10ff 00000000 		.4byte	.LFB52
 6935 1103 04000000 		.4byte	.LFE52-.LFB52
 6936 1107 01       		.uleb128 0x1
 6937 1108 9C       		.byte	0x9c
 6938 1109 1E110000 		.4byte	0x111e
 6939 110d 23       		.uleb128 0x23
 6940 110e 6F626A00 		.ascii	"obj\000"
 6941 1112 01       		.byte	0x1
 6942 1113 4C05     		.2byte	0x54c
 6943 1115 1E110000 		.4byte	0x111e
 6944 1119 58010000 		.4byte	.LLST10
 6945 111d 00       		.byte	0
 6946 111e 0B       		.uleb128 0xb
 6947 111f 04       		.byte	0x4
 6948 1120 24110000 		.4byte	0x1124
 6949 1124 0C       		.uleb128 0xc
 6950 1125 33090000 		.4byte	0x933
 6951 1129 22       		.uleb128 0x22
 6952 112a 0E130000 		.4byte	.LASF247
 6953 112e 01       		.byte	0x1
 6954 112f 8407     		.2byte	0x784
 6955 1131 00000000 		.4byte	.LFB85
 6956 1135 76000000 		.4byte	.LFE85-.LFB85
 6957 1139 01       		.uleb128 0x1
 6958 113a 9C       		.byte	0x9c
 6959 113b 66120000 		.4byte	0x1266
 6960 113f 23       		.uleb128 0x23
 6961 1140 6F626A00 		.ascii	"obj\000"
 6962 1144 01       		.byte	0x1
 6963 1145 8407     		.2byte	0x784
 6964 1147 BC0D0000 		.4byte	0xdbc
 6965 114b 79010000 		.4byte	.LLST11
 6966 114f 25       		.uleb128 0x25
 6967 1150 6900     		.ascii	"i\000"
 6968 1152 01       		.byte	0x1
 6969 1153 8607     		.2byte	0x786
 6970 1155 BC0D0000 		.4byte	0xdbc
 6971 1159 97010000 		.4byte	.LLST12
 6972 115d 2F       		.uleb128 0x2f
 6973 115e FF030000 		.4byte	.LASF248
 6974 1162 01       		.byte	0x1
 6975 1163 8707     		.2byte	0x787
 6976 1165 BC0D0000 		.4byte	0xdbc
 6977 1169 CB010000 		.4byte	.LLST13
 6978 116d 2F       		.uleb128 0x2f
 6979 116e 63110000 		.4byte	.LASF249
 6980 1172 01       		.byte	0x1
 6981 1173 A407     		.2byte	0x7a4
 6982 1175 66120000 		.4byte	0x1266
 6983 1179 E9010000 		.4byte	.LLST14
 6984 117d 25       		.uleb128 0x25
 6985 117e 70617200 		.ascii	"par\000"
 6986 1182 01       		.byte	0x1
 6987 1183 AD07     		.2byte	0x7ad
 6988 1185 BC0D0000 		.4byte	0xdbc
ARM GAS  C:\Users\d3bug\AppData\Local\Temp\ccFiAZjI.s 			page 172


 6989 1189 1D020000 		.4byte	.LLST15
 6990 118d 26       		.uleb128 0x26
 6991 118e 0C000000 		.4byte	.LVL32
 6992 1192 05360000 		.4byte	0x3605
 6993 1196 A1110000 		.4byte	0x11a1
 6994 119a 27       		.uleb128 0x27
 6995 119b 01       		.uleb128 0x1
 6996 119c 50       		.byte	0x50
 6997 119d 02       		.uleb128 0x2
 6998 119e 77       		.byte	0x77
 6999 119f 00       		.sleb128 0
 7000 11a0 00       		.byte	0
 7001 11a1 26       		.uleb128 0x26
 7002 11a2 18000000 		.4byte	.LVL35
 7003 11a6 10360000 		.4byte	0x3610
 7004 11aa BB110000 		.4byte	0x11bb
 7005 11ae 27       		.uleb128 0x27
 7006 11af 01       		.uleb128 0x1
 7007 11b0 50       		.byte	0x50
 7008 11b1 02       		.uleb128 0x2
 7009 11b2 77       		.byte	0x77
 7010 11b3 00       		.sleb128 0
 7011 11b4 27       		.uleb128 0x27
 7012 11b5 01       		.uleb128 0x1
 7013 11b6 51       		.byte	0x51
 7014 11b7 02       		.uleb128 0x2
 7015 11b8 74       		.byte	0x74
 7016 11b9 00       		.sleb128 0
 7017 11ba 00       		.byte	0
 7018 11bb 26       		.uleb128 0x26
 7019 11bc 20000000 		.4byte	.LVL38
 7020 11c0 29110000 		.4byte	0x1129
 7021 11c4 CF110000 		.4byte	0x11cf
 7022 11c8 27       		.uleb128 0x27
 7023 11c9 01       		.uleb128 0x1
 7024 11ca 50       		.byte	0x50
 7025 11cb 02       		.uleb128 0x2
 7026 11cc 74       		.byte	0x74
 7027 11cd 00       		.sleb128 0
 7028 11ce 00       		.byte	0
 7029 11cf 26       		.uleb128 0x26
 7030 11d0 2C000000 		.4byte	.LVL40
 7031 11d4 26360000 		.4byte	0x3626
 7032 11d8 E2110000 		.4byte	0x11e2
 7033 11dc 27       		.uleb128 0x27
 7034 11dd 01       		.uleb128 0x1
 7035 11de 50       		.byte	0x50
 7036 11df 01       		.uleb128 0x1
 7037 11e0 30       		.byte	0x30
 7038 11e1 00       		.byte	0
 7039 11e2 26       		.uleb128 0x26
 7040 11e3 42000000 		.4byte	.LVL43
 7041 11e7 31360000 		.4byte	0x3631
 7042 11eb F6110000 		.4byte	0x11f6
 7043 11ef 27       		.uleb128 0x27
 7044 11f0 01       		.uleb128 0x1
 7045 11f1 50       		.byte	0x50
ARM GAS  C:\Users\d3bug\AppData\Local\Temp\ccFiAZjI.s 			page 173


 7046 11f2 02       		.uleb128 0x2
 7047 11f3 74       		.byte	0x74
 7048 11f4 00       		.sleb128 0
 7049 11f5 00       		.byte	0
 7050 11f6 26       		.uleb128 0x26
 7051 11f7 48000000 		.4byte	.LVL44
 7052 11fb 26360000 		.4byte	0x3626
 7053 11ff 0A120000 		.4byte	0x120a
 7054 1203 27       		.uleb128 0x27
 7055 1204 01       		.uleb128 0x1
 7056 1205 50       		.byte	0x50
 7057 1206 02       		.uleb128 0x2
 7058 1207 74       		.byte	0x74
 7059 1208 00       		.sleb128 0
 7060 1209 00       		.byte	0
 7061 120a 26       		.uleb128 0x26
 7062 120b 54000000 		.4byte	.LVL47
 7063 120f F3100000 		.4byte	0x10f3
 7064 1213 1E120000 		.4byte	0x121e
 7065 1217 27       		.uleb128 0x27
 7066 1218 01       		.uleb128 0x1
 7067 1219 50       		.byte	0x50
 7068 121a 02       		.uleb128 0x2
 7069 121b 75       		.byte	0x75
 7070 121c 00       		.sleb128 0
 7071 121d 00       		.byte	0
 7072 121e 26       		.uleb128 0x26
 7073 121f 5C000000 		.4byte	.LVL49
 7074 1223 3C360000 		.4byte	0x363c
 7075 1227 32120000 		.4byte	0x1232
 7076 122b 27       		.uleb128 0x27
 7077 122c 01       		.uleb128 0x1
 7078 122d 51       		.byte	0x51
 7079 122e 02       		.uleb128 0x2
 7080 122f 75       		.byte	0x75
 7081 1230 00       		.sleb128 0
 7082 1231 00       		.byte	0
 7083 1232 30       		.uleb128 0x30
 7084 1233 66000000 		.4byte	.LVL50
 7085 1237 4C120000 		.4byte	0x124c
 7086 123b 27       		.uleb128 0x27
 7087 123c 01       		.uleb128 0x1
 7088 123d 50       		.byte	0x50
 7089 123e 02       		.uleb128 0x2
 7090 123f 75       		.byte	0x75
 7091 1240 00       		.sleb128 0
 7092 1241 27       		.uleb128 0x27
 7093 1242 01       		.uleb128 0x1
 7094 1243 51       		.byte	0x51
 7095 1244 01       		.uleb128 0x1
 7096 1245 30       		.byte	0x30
 7097 1246 27       		.uleb128 0x27
 7098 1247 01       		.uleb128 0x1
 7099 1248 52       		.byte	0x52
 7100 1249 01       		.uleb128 0x1
 7101 124a 30       		.byte	0x30
 7102 124b 00       		.byte	0
ARM GAS  C:\Users\d3bug\AppData\Local\Temp\ccFiAZjI.s 			page 174


 7103 124c 2C       		.uleb128 0x2c
 7104 124d 6E000000 		.4byte	.LVL51
 7105 1251 47360000 		.4byte	0x3647
 7106 1255 28       		.uleb128 0x28
 7107 1256 74000000 		.4byte	.LVL52
 7108 125a 47360000 		.4byte	0x3647
 7109 125e 27       		.uleb128 0x27
 7110 125f 01       		.uleb128 0x1
 7111 1260 50       		.byte	0x50
 7112 1261 02       		.uleb128 0x2
 7113 1262 75       		.byte	0x75
 7114 1263 00       		.sleb128 0
 7115 1264 00       		.byte	0
 7116 1265 00       		.byte	0
 7117 1266 0B       		.uleb128 0xb
 7118 1267 04       		.byte	0x4
 7119 1268 4C0C0000 		.4byte	0xc4c
 7120 126c 2B       		.uleb128 0x2b
 7121 126d 26030000 		.4byte	.LASF250
 7122 1271 01       		.byte	0x1
 7123 1272 3605     		.2byte	0x536
 7124 1274 BC0D0000 		.4byte	0xdbc
 7125 1278 00000000 		.4byte	.LFB51
 7126 127c 18000000 		.4byte	.LFE51-.LFB51
 7127 1280 01       		.uleb128 0x1
 7128 1281 9C       		.byte	0x9c
 7129 1282 C7120000 		.4byte	0x12c7
 7130 1286 23       		.uleb128 0x23
 7131 1287 6F626A00 		.ascii	"obj\000"
 7132 128b 01       		.byte	0x1
 7133 128c 3605     		.2byte	0x536
 7134 128e 1E110000 		.4byte	0x111e
 7135 1292 3D020000 		.4byte	.LLST16
 7136 1296 25       		.uleb128 0x25
 7137 1297 70617200 		.ascii	"par\000"
 7138 129b 01       		.byte	0x1
 7139 129c 3805     		.2byte	0x538
 7140 129e 1E110000 		.4byte	0x111e
 7141 12a2 5E020000 		.4byte	.LLST17
 7142 12a6 2F       		.uleb128 0x2f
 7143 12a7 EB010000 		.4byte	.LASF251
 7144 12ab 01       		.byte	0x1
 7145 12ac 3905     		.2byte	0x539
 7146 12ae 1E110000 		.4byte	0x111e
 7147 12b2 92020000 		.4byte	.LLST18
 7148 12b6 28       		.uleb128 0x28
 7149 12b7 0E000000 		.4byte	.LVL57
 7150 12bb F3100000 		.4byte	0x10f3
 7151 12bf 27       		.uleb128 0x27
 7152 12c0 01       		.uleb128 0x1
 7153 12c1 50       		.byte	0x50
 7154 12c2 02       		.uleb128 0x2
 7155 12c3 74       		.byte	0x74
 7156 12c4 00       		.sleb128 0
 7157 12c5 00       		.byte	0
 7158 12c6 00       		.byte	0
 7159 12c7 2B       		.uleb128 0x2b
ARM GAS  C:\Users\d3bug\AppData\Local\Temp\ccFiAZjI.s 			page 175


 7160 12c8 D9080000 		.4byte	.LASF252
 7161 12cc 01       		.byte	0x1
 7162 12cd 5805     		.2byte	0x558
 7163 12cf BC0D0000 		.4byte	0xdbc
 7164 12d3 00000000 		.4byte	.LFB53
 7165 12d7 14000000 		.4byte	.LFE53-.LFB53
 7166 12db 01       		.uleb128 0x1
 7167 12dc 9C       		.byte	0x9c
 7168 12dd 3C130000 		.4byte	0x133c
 7169 12e1 23       		.uleb128 0x23
 7170 12e2 6F626A00 		.ascii	"obj\000"
 7171 12e6 01       		.byte	0x1
 7172 12e7 5805     		.2byte	0x558
 7173 12e9 1E110000 		.4byte	0x111e
 7174 12ed BB020000 		.4byte	.LLST19
 7175 12f1 24       		.uleb128 0x24
 7176 12f2 2D000000 		.4byte	.LASF253
 7177 12f6 01       		.byte	0x1
 7178 12f7 5805     		.2byte	0x558
 7179 12f9 1E110000 		.4byte	0x111e
 7180 12fd 0F030000 		.4byte	.LLST20
 7181 1301 2F       		.uleb128 0x2f
 7182 1302 38020000 		.4byte	.LASF254
 7183 1306 01       		.byte	0x1
 7184 1307 5A05     		.2byte	0x55a
 7185 1309 BC0D0000 		.4byte	0xdbc
 7186 130d 49030000 		.4byte	.LLST21
 7187 1311 26       		.uleb128 0x26
 7188 1312 0A000000 		.4byte	.LVL62
 7189 1316 05360000 		.4byte	0x3605
 7190 131a 28130000 		.4byte	0x1328
 7191 131e 27       		.uleb128 0x27
 7192 131f 01       		.uleb128 0x1
 7193 1320 50       		.byte	0x50
 7194 1321 05       		.uleb128 0x5
 7195 1322 F3       		.byte	0xf3
 7196 1323 01       		.uleb128 0x1
 7197 1324 50       		.byte	0x50
 7198 1325 23       		.byte	0x23
 7199 1326 04       		.uleb128 0x4
 7200 1327 00       		.byte	0
 7201 1328 28       		.uleb128 0x28
 7202 1329 12000000 		.4byte	.LVL65
 7203 132d 10360000 		.4byte	0x3610
 7204 1331 27       		.uleb128 0x27
 7205 1332 01       		.uleb128 0x1
 7206 1333 50       		.byte	0x50
 7207 1334 05       		.uleb128 0x5
 7208 1335 F3       		.byte	0xf3
 7209 1336 01       		.uleb128 0x1
 7210 1337 50       		.byte	0x50
 7211 1338 23       		.byte	0x23
 7212 1339 04       		.uleb128 0x4
 7213 133a 00       		.byte	0
 7214 133b 00       		.byte	0
 7215 133c 2B       		.uleb128 0x2b
 7216 133d CB040000 		.4byte	.LASF255
ARM GAS  C:\Users\d3bug\AppData\Local\Temp\ccFiAZjI.s 			page 176


 7217 1341 01       		.byte	0x1
 7218 1342 6C05     		.2byte	0x56c
 7219 1344 BC0D0000 		.4byte	0xdbc
 7220 1348 00000000 		.4byte	.LFB54
 7221 134c 14000000 		.4byte	.LFE54-.LFB54
 7222 1350 01       		.uleb128 0x1
 7223 1351 9C       		.byte	0x9c
 7224 1352 B1130000 		.4byte	0x13b1
 7225 1356 23       		.uleb128 0x23
 7226 1357 6F626A00 		.ascii	"obj\000"
 7227 135b 01       		.byte	0x1
 7228 135c 6C05     		.2byte	0x56c
 7229 135e 1E110000 		.4byte	0x111e
 7230 1362 7F030000 		.4byte	.LLST22
 7231 1366 24       		.uleb128 0x24
 7232 1367 2D000000 		.4byte	.LASF253
 7233 136b 01       		.byte	0x1
 7234 136c 6C05     		.2byte	0x56c
 7235 136e 1E110000 		.4byte	0x111e
 7236 1372 D3030000 		.4byte	.LLST23
 7237 1376 2F       		.uleb128 0x2f
 7238 1377 38020000 		.4byte	.LASF254
 7239 137b 01       		.byte	0x1
 7240 137c 6E05     		.2byte	0x56e
 7241 137e BC0D0000 		.4byte	0xdbc
 7242 1382 0D040000 		.4byte	.LLST24
 7243 1386 26       		.uleb128 0x26
 7244 1387 0A000000 		.4byte	.LVL69
 7245 138b 52360000 		.4byte	0x3652
 7246 138f 9D130000 		.4byte	0x139d
 7247 1393 27       		.uleb128 0x27
 7248 1394 01       		.uleb128 0x1
 7249 1395 50       		.byte	0x50
 7250 1396 05       		.uleb128 0x5
 7251 1397 F3       		.byte	0xf3
 7252 1398 01       		.uleb128 0x1
 7253 1399 50       		.byte	0x50
 7254 139a 23       		.byte	0x23
 7255 139b 04       		.uleb128 0x4
 7256 139c 00       		.byte	0
 7257 139d 28       		.uleb128 0x28
 7258 139e 12000000 		.4byte	.LVL72
 7259 13a2 5D360000 		.4byte	0x365d
 7260 13a6 27       		.uleb128 0x27
 7261 13a7 01       		.uleb128 0x1
 7262 13a8 50       		.byte	0x50
 7263 13a9 05       		.uleb128 0x5
 7264 13aa F3       		.byte	0xf3
 7265 13ab 01       		.uleb128 0x1
 7266 13ac 50       		.byte	0x50
 7267 13ad 23       		.byte	0x23
 7268 13ae 04       		.uleb128 0x4
 7269 13af 00       		.byte	0
 7270 13b0 00       		.byte	0
 7271 13b1 2B       		.uleb128 0x2b
 7272 13b2 7B0A0000 		.4byte	.LASF256
 7273 13b6 01       		.byte	0x1
ARM GAS  C:\Users\d3bug\AppData\Local\Temp\ccFiAZjI.s 			page 177


 7274 13b7 7E05     		.2byte	0x57e
 7275 13b9 B4000000 		.4byte	0xb4
 7276 13bd 00000000 		.4byte	.LFB55
 7277 13c1 22000000 		.4byte	.LFE55-.LFB55
 7278 13c5 01       		.uleb128 0x1
 7279 13c6 9C       		.byte	0x9c
 7280 13c7 1E140000 		.4byte	0x141e
 7281 13cb 23       		.uleb128 0x23
 7282 13cc 6F626A00 		.ascii	"obj\000"
 7283 13d0 01       		.byte	0x1
 7284 13d1 7E05     		.2byte	0x57e
 7285 13d3 1E110000 		.4byte	0x111e
 7286 13d7 43040000 		.4byte	.LLST25
 7287 13db 25       		.uleb128 0x25
 7288 13dc 6900     		.ascii	"i\000"
 7289 13de 01       		.byte	0x1
 7290 13df 8005     		.2byte	0x580
 7291 13e1 BC0D0000 		.4byte	0xdbc
 7292 13e5 70040000 		.4byte	.LLST26
 7293 13e9 25       		.uleb128 0x25
 7294 13ea 636E7400 		.ascii	"cnt\000"
 7295 13ee 01       		.byte	0x1
 7296 13ef 8105     		.2byte	0x581
 7297 13f1 B4000000 		.4byte	0xb4
 7298 13f5 99040000 		.4byte	.LLST27
 7299 13f9 26       		.uleb128 0x26
 7300 13fa 0A000000 		.4byte	.LVL76
 7301 13fe 05360000 		.4byte	0x3605
 7302 1402 0D140000 		.4byte	0x140d
 7303 1406 27       		.uleb128 0x27
 7304 1407 01       		.uleb128 0x1
 7305 1408 50       		.byte	0x50
 7306 1409 02       		.uleb128 0x2
 7307 140a 75       		.byte	0x75
 7308 140b 00       		.sleb128 0
 7309 140c 00       		.byte	0
 7310 140d 28       		.uleb128 0x28
 7311 140e 1A000000 		.4byte	.LVL81
 7312 1412 10360000 		.4byte	0x3610
 7313 1416 27       		.uleb128 0x27
 7314 1417 01       		.uleb128 0x1
 7315 1418 50       		.byte	0x50
 7316 1419 02       		.uleb128 0x2
 7317 141a 75       		.byte	0x75
 7318 141b 00       		.sleb128 0
 7319 141c 00       		.byte	0
 7320 141d 00       		.byte	0
 7321 141e 29       		.uleb128 0x29
 7322 141f 54130000 		.4byte	.LASF257
 7323 1423 01       		.byte	0x1
 7324 1424 9105     		.2byte	0x591
 7325 1426 00000000 		.4byte	.LFB56
 7326 142a 0C000000 		.4byte	.LFE56-.LFB56
 7327 142e 01       		.uleb128 0x1
 7328 142f 9C       		.byte	0x9c
 7329 1430 76140000 		.4byte	0x1476
 7330 1434 23       		.uleb128 0x23
ARM GAS  C:\Users\d3bug\AppData\Local\Temp\ccFiAZjI.s 			page 178


 7331 1435 6F626A00 		.ascii	"obj\000"
 7332 1439 01       		.byte	0x1
 7333 143a 9105     		.2byte	0x591
 7334 143c 1E110000 		.4byte	0x111e
 7335 1440 C3040000 		.4byte	.LLST28
 7336 1444 2D       		.uleb128 0x2d
 7337 1445 FA090000 		.4byte	.LASF258
 7338 1449 01       		.byte	0x1
 7339 144a 9105     		.2byte	0x591
 7340 144c DF0C0000 		.4byte	0xcdf
 7341 1450 01       		.uleb128 0x1
 7342 1451 51       		.byte	0x51
 7343 1452 31       		.uleb128 0x31
 7344 1453 BC0C0000 		.4byte	0xcbc
 7345 1457 00000000 		.4byte	.LBB15
 7346 145b 0C000000 		.4byte	.LBE15-.LBB15
 7347 145f 01       		.byte	0x1
 7348 1460 9305     		.2byte	0x593
 7349 1462 32       		.uleb128 0x32
 7350 1463 D30C0000 		.4byte	0xcd3
 7351 1467 E3040000 		.4byte	.LLST29
 7352 146b 32       		.uleb128 0x32
 7353 146c C80C0000 		.4byte	0xcc8
 7354 1470 03050000 		.4byte	.LLST30
 7355 1474 00       		.byte	0
 7356 1475 00       		.byte	0
 7357 1476 2B       		.uleb128 0x2b
 7358 1477 B60F0000 		.4byte	.LASF259
 7359 147b 01       		.byte	0x1
 7360 147c 9C05     		.2byte	0x59c
 7361 147e A2010000 		.4byte	0x1a2
 7362 1482 00000000 		.4byte	.LFB57
 7363 1486 16000000 		.4byte	.LFE57-.LFB57
 7364 148a 01       		.uleb128 0x1
 7365 148b 9C       		.byte	0x9c
 7366 148c CF140000 		.4byte	0x14cf
 7367 1490 23       		.uleb128 0x23
 7368 1491 6F626A00 		.ascii	"obj\000"
 7369 1495 01       		.byte	0x1
 7370 1496 9C05     		.2byte	0x59c
 7371 1498 1E110000 		.4byte	0x111e
 7372 149c 16050000 		.4byte	.LLST31
 7373 14a0 33       		.uleb128 0x33
 7374 14a1 DF030000 		.4byte	.LASF260
 7375 14a5 01       		.byte	0x1
 7376 14a6 9E05     		.2byte	0x59e
 7377 14a8 A2010000 		.4byte	0x1a2
 7378 14ac 01       		.uleb128 0x1
 7379 14ad 50       		.byte	0x50
 7380 14ae 2F       		.uleb128 0x2f
 7381 14af 480A0000 		.4byte	.LASF261
 7382 14b3 01       		.byte	0x1
 7383 14b4 9F05     		.2byte	0x59f
 7384 14b6 BC0D0000 		.4byte	0xdbc
 7385 14ba 34050000 		.4byte	.LLST32
 7386 14be 28       		.uleb128 0x28
 7387 14bf 08000000 		.4byte	.LVL87
ARM GAS  C:\Users\d3bug\AppData\Local\Temp\ccFiAZjI.s 			page 179


 7388 14c3 F3100000 		.4byte	0x10f3
 7389 14c7 27       		.uleb128 0x27
 7390 14c8 01       		.uleb128 0x1
 7391 14c9 50       		.byte	0x50
 7392 14ca 02       		.uleb128 0x2
 7393 14cb 74       		.byte	0x74
 7394 14cc 00       		.sleb128 0
 7395 14cd 00       		.byte	0
 7396 14ce 00       		.byte	0
 7397 14cf 2B       		.uleb128 0x2b
 7398 14d0 200C0000 		.4byte	.LASF262
 7399 14d4 01       		.byte	0x1
 7400 14d5 AA05     		.2byte	0x5aa
 7401 14d7 A2010000 		.4byte	0x1a2
 7402 14db 00000000 		.4byte	.LFB58
 7403 14df 16000000 		.4byte	.LFE58-.LFB58
 7404 14e3 01       		.uleb128 0x1
 7405 14e4 9C       		.byte	0x9c
 7406 14e5 28150000 		.4byte	0x1528
 7407 14e9 23       		.uleb128 0x23
 7408 14ea 6F626A00 		.ascii	"obj\000"
 7409 14ee 01       		.byte	0x1
 7410 14ef AA05     		.2byte	0x5aa
 7411 14f1 1E110000 		.4byte	0x111e
 7412 14f5 47050000 		.4byte	.LLST33
 7413 14f9 33       		.uleb128 0x33
 7414 14fa E5030000 		.4byte	.LASF263
 7415 14fe 01       		.byte	0x1
 7416 14ff AC05     		.2byte	0x5ac
 7417 1501 A2010000 		.4byte	0x1a2
 7418 1505 01       		.uleb128 0x1
 7419 1506 50       		.byte	0x50
 7420 1507 2F       		.uleb128 0x2f
 7421 1508 480A0000 		.4byte	.LASF261
 7422 150c 01       		.byte	0x1
 7423 150d AD05     		.2byte	0x5ad
 7424 150f BC0D0000 		.4byte	0xdbc
 7425 1513 65050000 		.4byte	.LLST34
 7426 1517 28       		.uleb128 0x28
 7427 1518 08000000 		.4byte	.LVL91
 7428 151c F3100000 		.4byte	0x10f3
 7429 1520 27       		.uleb128 0x27
 7430 1521 01       		.uleb128 0x1
 7431 1522 50       		.byte	0x50
 7432 1523 02       		.uleb128 0x2
 7433 1524 74       		.byte	0x74
 7434 1525 00       		.sleb128 0
 7435 1526 00       		.byte	0
 7436 1527 00       		.byte	0
 7437 1528 2B       		.uleb128 0x2b
 7438 1529 B0010000 		.4byte	.LASF264
 7439 152d 01       		.byte	0x1
 7440 152e B805     		.2byte	0x5b8
 7441 1530 A2010000 		.4byte	0x1a2
 7442 1534 00000000 		.4byte	.LFB59
 7443 1538 10000000 		.4byte	.LFE59-.LFB59
 7444 153c 01       		.uleb128 0x1
ARM GAS  C:\Users\d3bug\AppData\Local\Temp\ccFiAZjI.s 			page 180


 7445 153d 9C       		.byte	0x9c
 7446 153e 6D150000 		.4byte	0x156d
 7447 1542 23       		.uleb128 0x23
 7448 1543 6F626A00 		.ascii	"obj\000"
 7449 1547 01       		.byte	0x1
 7450 1548 B805     		.2byte	0x5b8
 7451 154a 1E110000 		.4byte	0x111e
 7452 154e 78050000 		.4byte	.LLST35
 7453 1552 31       		.uleb128 0x31
 7454 1553 E50C0000 		.4byte	0xce5
 7455 1557 00000000 		.4byte	.LBB17
 7456 155b 0C000000 		.4byte	.LBE17-.LBB17
 7457 155f 01       		.byte	0x1
 7458 1560 BA05     		.2byte	0x5ba
 7459 1562 32       		.uleb128 0x32
 7460 1563 F50C0000 		.4byte	0xcf5
 7461 1567 99050000 		.4byte	.LLST36
 7462 156b 00       		.byte	0
 7463 156c 00       		.byte	0
 7464 156d 2B       		.uleb128 0x2b
 7465 156e 450F0000 		.4byte	.LASF265
 7466 1572 01       		.byte	0x1
 7467 1573 C205     		.2byte	0x5c2
 7468 1575 A2010000 		.4byte	0x1a2
 7469 1579 00000000 		.4byte	.LFB60
 7470 157d 10000000 		.4byte	.LFE60-.LFB60
 7471 1581 01       		.uleb128 0x1
 7472 1582 9C       		.byte	0x9c
 7473 1583 B2150000 		.4byte	0x15b2
 7474 1587 23       		.uleb128 0x23
 7475 1588 6F626A00 		.ascii	"obj\000"
 7476 158c 01       		.byte	0x1
 7477 158d C205     		.2byte	0x5c2
 7478 158f 1E110000 		.4byte	0x111e
 7479 1593 BE050000 		.4byte	.LLST37
 7480 1597 31       		.uleb128 0x31
 7481 1598 010D0000 		.4byte	0xd01
 7482 159c 00000000 		.4byte	.LBB19
 7483 15a0 0C000000 		.4byte	.LBE19-.LBB19
 7484 15a4 01       		.byte	0x1
 7485 15a5 C405     		.2byte	0x5c4
 7486 15a7 32       		.uleb128 0x32
 7487 15a8 110D0000 		.4byte	0xd11
 7488 15ac DF050000 		.4byte	.LLST38
 7489 15b0 00       		.byte	0
 7490 15b1 00       		.byte	0
 7491 15b2 2B       		.uleb128 0x2b
 7492 15b3 FC060000 		.4byte	.LASF266
 7493 15b7 01       		.byte	0x1
 7494 15b8 CC05     		.2byte	0x5cc
 7495 15ba A2010000 		.4byte	0x1a2
 7496 15be 00000000 		.4byte	.LFB61
 7497 15c2 06000000 		.4byte	.LFE61-.LFB61
 7498 15c6 01       		.uleb128 0x1
 7499 15c7 9C       		.byte	0x9c
 7500 15c8 DD150000 		.4byte	0x15dd
 7501 15cc 23       		.uleb128 0x23
ARM GAS  C:\Users\d3bug\AppData\Local\Temp\ccFiAZjI.s 			page 181


 7502 15cd 6F626A00 		.ascii	"obj\000"
 7503 15d1 01       		.byte	0x1
 7504 15d2 CC05     		.2byte	0x5cc
 7505 15d4 1E110000 		.4byte	0x111e
 7506 15d8 04060000 		.4byte	.LLST39
 7507 15dc 00       		.byte	0
 7508 15dd 2B       		.uleb128 0x2b
 7509 15de FF0B0000 		.4byte	.LASF267
 7510 15e2 01       		.byte	0x1
 7511 15e3 D605     		.2byte	0x5d6
 7512 15e5 1C060000 		.4byte	0x61c
 7513 15e9 00000000 		.4byte	.LFB62
 7514 15ed 0A000000 		.4byte	.LFE62-.LFB62
 7515 15f1 01       		.uleb128 0x1
 7516 15f2 9C       		.byte	0x9c
 7517 15f3 08160000 		.4byte	0x1608
 7518 15f7 23       		.uleb128 0x23
 7519 15f8 6F626A00 		.ascii	"obj\000"
 7520 15fc 01       		.byte	0x1
 7521 15fd D605     		.2byte	0x5d6
 7522 15ff BC0D0000 		.4byte	0xdbc
 7523 1603 25060000 		.4byte	.LLST40
 7524 1607 00       		.byte	0
 7525 1608 2B       		.uleb128 0x2b
 7526 1609 BA040000 		.4byte	.LASF268
 7527 160d 01       		.byte	0x1
 7528 160e E905     		.2byte	0x5e9
 7529 1610 2D090000 		.4byte	0x92d
 7530 1614 00000000 		.4byte	.LFB63
 7531 1618 2C000000 		.4byte	.LFE63-.LFB63
 7532 161c 01       		.uleb128 0x1
 7533 161d 9C       		.byte	0x9c
 7534 161e 5B160000 		.4byte	0x165b
 7535 1622 23       		.uleb128 0x23
 7536 1623 6F626A00 		.ascii	"obj\000"
 7537 1627 01       		.byte	0x1
 7538 1628 E905     		.2byte	0x5e9
 7539 162a 1E110000 		.4byte	0x111e
 7540 162e 46060000 		.4byte	.LLST41
 7541 1632 33       		.uleb128 0x33
 7542 1633 F6080000 		.4byte	.LASF269
 7543 1637 01       		.byte	0x1
 7544 1638 EB05     		.2byte	0x5eb
 7545 163a 2D090000 		.4byte	0x92d
 7546 163e 01       		.uleb128 0x1
 7547 163f 51       		.byte	0x51
 7548 1640 34       		.uleb128 0x34
 7549 1641 04000000 		.4byte	.LBB21
 7550 1645 1A000000 		.4byte	.LBE21-.LBB21
 7551 1649 25       		.uleb128 0x25
 7552 164a 70617200 		.ascii	"par\000"
 7553 164e 01       		.byte	0x1
 7554 164f ED05     		.2byte	0x5ed
 7555 1651 BC0D0000 		.4byte	0xdbc
 7556 1655 67060000 		.4byte	.LLST42
 7557 1659 00       		.byte	0
 7558 165a 00       		.byte	0
ARM GAS  C:\Users\d3bug\AppData\Local\Temp\ccFiAZjI.s 			page 182


 7559 165b 2B       		.uleb128 0x2b
 7560 165c E6120000 		.4byte	.LASF270
 7561 1660 01       		.byte	0x1
 7562 1661 1906     		.2byte	0x619
 7563 1663 1C060000 		.4byte	0x61c
 7564 1667 00000000 		.4byte	.LFB64
 7565 166b 0A000000 		.4byte	.LFE64-.LFB64
 7566 166f 01       		.uleb128 0x1
 7567 1670 9C       		.byte	0x9c
 7568 1671 86160000 		.4byte	0x1686
 7569 1675 23       		.uleb128 0x23
 7570 1676 6F626A00 		.ascii	"obj\000"
 7571 167a 01       		.byte	0x1
 7572 167b 1906     		.2byte	0x619
 7573 167d 1E110000 		.4byte	0x111e
 7574 1681 7A060000 		.4byte	.LLST43
 7575 1685 00       		.byte	0
 7576 1686 29       		.uleb128 0x29
 7577 1687 D4120000 		.4byte	.LASF271
 7578 168b 01       		.byte	0x1
 7579 168c 9C01     		.2byte	0x19c
 7580 168e 00000000 		.4byte	.LFB16
 7581 1692 A2000000 		.4byte	.LFE16-.LFB16
 7582 1696 01       		.uleb128 0x1
 7583 1697 9C       		.byte	0x9c
 7584 1698 E0170000 		.4byte	0x17e0
 7585 169c 23       		.uleb128 0x23
 7586 169d 6F626A00 		.ascii	"obj\000"
 7587 16a1 01       		.byte	0x1
 7588 16a2 9C01     		.2byte	0x19c
 7589 16a4 1E110000 		.4byte	0x111e
 7590 16a8 9B060000 		.4byte	.LLST44
 7591 16ac 2F       		.uleb128 0x2f
 7592 16ad 53140000 		.4byte	.LASF272
 7593 16b1 01       		.byte	0x1
 7594 16b2 A101     		.2byte	0x1a1
 7595 16b4 BC0D0000 		.4byte	0xdbc
 7596 16b8 C7060000 		.4byte	.LLST45
 7597 16bc 35       		.uleb128 0x35
 7598 16bd 2E000000 		.4byte	.LBB22
 7599 16c1 70000000 		.4byte	.LBE22-.LBB22
 7600 16c5 9C170000 		.4byte	0x179c
 7601 16c9 33       		.uleb128 0x33
 7602 16ca 3F010000 		.4byte	.LASF273
 7603 16ce 01       		.byte	0x1
 7604 16cf A601     		.2byte	0x1a6
 7605 16d1 0A020000 		.4byte	0x20a
 7606 16d5 02       		.uleb128 0x2
 7607 16d6 91       		.byte	0x91
 7608 16d7 68       		.sleb128 -24
 7609 16d8 25       		.uleb128 0x25
 7610 16d9 70617200 		.ascii	"par\000"
 7611 16dd 01       		.byte	0x1
 7612 16de A701     		.2byte	0x1a7
 7613 16e0 BC0D0000 		.4byte	0xdbc
 7614 16e4 E5060000 		.4byte	.LLST46
 7615 16e8 2F       		.uleb128 0x2f
ARM GAS  C:\Users\d3bug\AppData\Local\Temp\ccFiAZjI.s 			page 183


 7616 16e9 370B0000 		.4byte	.LASF274
 7617 16ed 01       		.byte	0x1
 7618 16ee A801     		.2byte	0x1a8
 7619 16f0 1C060000 		.4byte	0x61c
 7620 16f4 03070000 		.4byte	.LLST47
 7621 16f8 2F       		.uleb128 0x2f
 7622 16f9 420E0000 		.4byte	.LASF110
 7623 16fd 01       		.byte	0x1
 7624 16fe AA01     		.2byte	0x1aa
 7625 1700 A2010000 		.4byte	0x1a2
 7626 1704 38070000 		.4byte	.LLST48
 7627 1708 36       		.uleb128 0x36
 7628 1709 BC0C0000 		.4byte	0xcbc
 7629 170d 3A000000 		.4byte	.LBB23
 7630 1711 0A000000 		.4byte	.LBE23-.LBB23
 7631 1715 01       		.byte	0x1
 7632 1716 AB01     		.2byte	0x1ab
 7633 1718 2F170000 		.4byte	0x172f
 7634 171c 32       		.uleb128 0x32
 7635 171d D30C0000 		.4byte	0xcd3
 7636 1721 66070000 		.4byte	.LLST49
 7637 1725 32       		.uleb128 0x32
 7638 1726 C80C0000 		.4byte	0xcc8
 7639 172a 86070000 		.4byte	.LLST50
 7640 172e 00       		.byte	0
 7641 172f 26       		.uleb128 0x26
 7642 1730 34000000 		.4byte	.LVL120
 7643 1734 F3100000 		.4byte	0x10f3
 7644 1738 43170000 		.4byte	0x1743
 7645 173c 27       		.uleb128 0x27
 7646 173d 01       		.uleb128 0x1
 7647 173e 50       		.byte	0x50
 7648 173f 02       		.uleb128 0x2
 7649 1740 75       		.byte	0x75
 7650 1741 00       		.sleb128 0
 7651 1742 00       		.byte	0
 7652 1743 26       		.uleb128 0x26
 7653 1744 7E000000 		.4byte	.LVL128
 7654 1748 68360000 		.4byte	0x3668
 7655 174c 63170000 		.4byte	0x1763
 7656 1750 27       		.uleb128 0x27
 7657 1751 01       		.uleb128 0x1
 7658 1752 50       		.byte	0x50
 7659 1753 02       		.uleb128 0x2
 7660 1754 7D       		.byte	0x7d
 7661 1755 00       		.sleb128 0
 7662 1756 27       		.uleb128 0x27
 7663 1757 01       		.uleb128 0x1
 7664 1758 51       		.byte	0x51
 7665 1759 02       		.uleb128 0x2
 7666 175a 7D       		.byte	0x7d
 7667 175b 00       		.sleb128 0
 7668 175c 27       		.uleb128 0x27
 7669 175d 01       		.uleb128 0x1
 7670 175e 52       		.byte	0x52
 7671 175f 02       		.uleb128 0x2
 7672 1760 74       		.byte	0x74
ARM GAS  C:\Users\d3bug\AppData\Local\Temp\ccFiAZjI.s 			page 184


 7673 1761 10       		.sleb128 16
 7674 1762 00       		.byte	0
 7675 1763 26       		.uleb128 0x26
 7676 1764 88000000 		.4byte	.LVL130
 7677 1768 5B160000 		.4byte	0x165b
 7678 176c 77170000 		.4byte	0x1777
 7679 1770 27       		.uleb128 0x27
 7680 1771 01       		.uleb128 0x1
 7681 1772 50       		.byte	0x50
 7682 1773 02       		.uleb128 0x2
 7683 1774 74       		.byte	0x74
 7684 1775 00       		.sleb128 0
 7685 1776 00       		.byte	0
 7686 1777 26       		.uleb128 0x26
 7687 1778 90000000 		.4byte	.LVL131
 7688 177c F3100000 		.4byte	0x10f3
 7689 1780 8B170000 		.4byte	0x178b
 7690 1784 27       		.uleb128 0x27
 7691 1785 01       		.uleb128 0x1
 7692 1786 50       		.byte	0x50
 7693 1787 02       		.uleb128 0x2
 7694 1788 74       		.byte	0x74
 7695 1789 00       		.sleb128 0
 7696 178a 00       		.byte	0
 7697 178b 28       		.uleb128 0x28
 7698 178c 9E000000 		.4byte	.LVL134
 7699 1790 73360000 		.4byte	0x3673
 7700 1794 27       		.uleb128 0x27
 7701 1795 01       		.uleb128 0x1
 7702 1796 50       		.byte	0x50
 7703 1797 02       		.uleb128 0x2
 7704 1798 7D       		.byte	0x7d
 7705 1799 00       		.sleb128 0
 7706 179a 00       		.byte	0
 7707 179b 00       		.byte	0
 7708 179c 26       		.uleb128 0x26
 7709 179d 0A000000 		.4byte	.LVL114
 7710 17a1 5B160000 		.4byte	0x165b
 7711 17a5 B0170000 		.4byte	0x17b0
 7712 17a9 27       		.uleb128 0x27
 7713 17aa 01       		.uleb128 0x1
 7714 17ab 50       		.byte	0x50
 7715 17ac 02       		.uleb128 0x2
 7716 17ad 75       		.byte	0x75
 7717 17ae 00       		.sleb128 0
 7718 17af 00       		.byte	0
 7719 17b0 26       		.uleb128 0x26
 7720 17b1 14000000 		.4byte	.LVL115
 7721 17b5 6C120000 		.4byte	0x126c
 7722 17b9 C4170000 		.4byte	0x17c4
 7723 17bd 27       		.uleb128 0x27
 7724 17be 01       		.uleb128 0x1
 7725 17bf 50       		.byte	0x50
 7726 17c0 02       		.uleb128 0x2
 7727 17c1 75       		.byte	0x75
 7728 17c2 00       		.sleb128 0
 7729 17c3 00       		.byte	0
ARM GAS  C:\Users\d3bug\AppData\Local\Temp\ccFiAZjI.s 			page 185


 7730 17c4 2C       		.uleb128 0x2c
 7731 17c5 1A000000 		.4byte	.LVL117
 7732 17c9 B1100000 		.4byte	0x10b1
 7733 17cd 2C       		.uleb128 0x2c
 7734 17ce 22000000 		.4byte	.LVL118
 7735 17d2 C7100000 		.4byte	0x10c7
 7736 17d6 2C       		.uleb128 0x2c
 7737 17d7 2A000000 		.4byte	.LVL119
 7738 17db DD100000 		.4byte	0x10dd
 7739 17df 00       		.byte	0
 7740 17e0 2B       		.uleb128 0x2b
 7741 17e1 66130000 		.4byte	.LASF275
 7742 17e5 01       		.byte	0x1
 7743 17e6 4801     		.2byte	0x148
 7744 17e8 5F070000 		.4byte	0x75f
 7745 17ec 00000000 		.4byte	.LFB14
 7746 17f0 9C000000 		.4byte	.LFE14-.LFB14
 7747 17f4 01       		.uleb128 0x1
 7748 17f5 9C       		.byte	0x9c
 7749 17f6 69190000 		.4byte	0x1969
 7750 17fa 23       		.uleb128 0x23
 7751 17fb 6F626A00 		.ascii	"obj\000"
 7752 17ff 01       		.byte	0x1
 7753 1800 4801     		.2byte	0x148
 7754 1802 BC0D0000 		.4byte	0xdbc
 7755 1806 99070000 		.4byte	.LLST51
 7756 180a 25       		.uleb128 0x25
 7757 180b 6900     		.ascii	"i\000"
 7758 180d 01       		.byte	0x1
 7759 180e 5701     		.2byte	0x157
 7760 1810 BC0D0000 		.4byte	0xdbc
 7761 1814 C5070000 		.4byte	.LLST52
 7762 1818 2F       		.uleb128 0x2f
 7763 1819 FF030000 		.4byte	.LASF248
 7764 181d 01       		.byte	0x1
 7765 181e 5801     		.2byte	0x158
 7766 1820 BC0D0000 		.4byte	0xdbc
 7767 1824 F9070000 		.4byte	.LLST53
 7768 1828 25       		.uleb128 0x25
 7769 1829 70617200 		.ascii	"par\000"
 7770 182d 01       		.byte	0x1
 7771 182e 6601     		.2byte	0x166
 7772 1830 BC0D0000 		.4byte	0xdbc
 7773 1834 17080000 		.4byte	.LLST54
 7774 1838 2F       		.uleb128 0x2f
 7775 1839 63110000 		.4byte	.LASF249
 7776 183d 01       		.byte	0x1
 7777 183e 6F01     		.2byte	0x16f
 7778 1840 66120000 		.4byte	0x1266
 7779 1844 4B080000 		.4byte	.LLST55
 7780 1848 26       		.uleb128 0x26
 7781 1849 08000000 		.4byte	.LVL136
 7782 184d 86160000 		.4byte	0x1686
 7783 1851 5C180000 		.4byte	0x185c
 7784 1855 27       		.uleb128 0x27
 7785 1856 01       		.uleb128 0x1
 7786 1857 50       		.byte	0x50
ARM GAS  C:\Users\d3bug\AppData\Local\Temp\ccFiAZjI.s 			page 186


 7787 1858 02       		.uleb128 0x2
 7788 1859 75       		.byte	0x75
 7789 185a 00       		.sleb128 0
 7790 185b 00       		.byte	0
 7791 185c 26       		.uleb128 0x26
 7792 185d 10000000 		.4byte	.LVL137
 7793 1861 05360000 		.4byte	0x3605
 7794 1865 70180000 		.4byte	0x1870
 7795 1869 27       		.uleb128 0x27
 7796 186a 01       		.uleb128 0x1
 7797 186b 50       		.byte	0x50
 7798 186c 02       		.uleb128 0x2
 7799 186d 77       		.byte	0x77
 7800 186e 00       		.sleb128 0
 7801 186f 00       		.byte	0
 7802 1870 26       		.uleb128 0x26
 7803 1871 1C000000 		.4byte	.LVL140
 7804 1875 10360000 		.4byte	0x3610
 7805 1879 8A180000 		.4byte	0x188a
 7806 187d 27       		.uleb128 0x27
 7807 187e 01       		.uleb128 0x1
 7808 187f 50       		.byte	0x50
 7809 1880 02       		.uleb128 0x2
 7810 1881 77       		.byte	0x77
 7811 1882 00       		.sleb128 0
 7812 1883 27       		.uleb128 0x27
 7813 1884 01       		.uleb128 0x1
 7814 1885 51       		.byte	0x51
 7815 1886 02       		.uleb128 0x2
 7816 1887 74       		.byte	0x74
 7817 1888 00       		.sleb128 0
 7818 1889 00       		.byte	0
 7819 188a 26       		.uleb128 0x26
 7820 188b 24000000 		.4byte	.LVL143
 7821 188f 29110000 		.4byte	0x1129
 7822 1893 9E180000 		.4byte	0x189e
 7823 1897 27       		.uleb128 0x27
 7824 1898 01       		.uleb128 0x1
 7825 1899 50       		.byte	0x50
 7826 189a 02       		.uleb128 0x2
 7827 189b 74       		.byte	0x74
 7828 189c 00       		.sleb128 0
 7829 189d 00       		.byte	0
 7830 189e 26       		.uleb128 0x26
 7831 189f 30000000 		.4byte	.LVL145
 7832 18a3 F3100000 		.4byte	0x10f3
 7833 18a7 B2180000 		.4byte	0x18b2
 7834 18ab 27       		.uleb128 0x27
 7835 18ac 01       		.uleb128 0x1
 7836 18ad 50       		.byte	0x50
 7837 18ae 02       		.uleb128 0x2
 7838 18af 75       		.byte	0x75
 7839 18b0 00       		.sleb128 0
 7840 18b1 00       		.byte	0
 7841 18b2 26       		.uleb128 0x26
 7842 18b3 3C000000 		.4byte	.LVL147
 7843 18b7 3C360000 		.4byte	0x363c
ARM GAS  C:\Users\d3bug\AppData\Local\Temp\ccFiAZjI.s 			page 187


 7844 18bb C6180000 		.4byte	0x18c6
 7845 18bf 27       		.uleb128 0x27
 7846 18c0 01       		.uleb128 0x1
 7847 18c1 51       		.byte	0x51
 7848 18c2 02       		.uleb128 0x2
 7849 18c3 75       		.byte	0x75
 7850 18c4 00       		.sleb128 0
 7851 18c5 00       		.byte	0
 7852 18c6 26       		.uleb128 0x26
 7853 18c7 46000000 		.4byte	.LVL150
 7854 18cb 3C360000 		.4byte	0x363c
 7855 18cf E0180000 		.4byte	0x18e0
 7856 18d3 27       		.uleb128 0x27
 7857 18d4 01       		.uleb128 0x1
 7858 18d5 50       		.byte	0x50
 7859 18d6 02       		.uleb128 0x2
 7860 18d7 76       		.byte	0x76
 7861 18d8 04       		.sleb128 4
 7862 18d9 27       		.uleb128 0x27
 7863 18da 01       		.uleb128 0x1
 7864 18db 51       		.byte	0x51
 7865 18dc 02       		.uleb128 0x2
 7866 18dd 75       		.byte	0x75
 7867 18de 00       		.sleb128 0
 7868 18df 00       		.byte	0
 7869 18e0 26       		.uleb128 0x26
 7870 18e1 4C000000 		.4byte	.LVL151
 7871 18e5 26360000 		.4byte	0x3626
 7872 18e9 F3180000 		.4byte	0x18f3
 7873 18ed 27       		.uleb128 0x27
 7874 18ee 01       		.uleb128 0x1
 7875 18ef 50       		.byte	0x50
 7876 18f0 01       		.uleb128 0x1
 7877 18f1 30       		.byte	0x30
 7878 18f2 00       		.byte	0
 7879 18f3 26       		.uleb128 0x26
 7880 18f4 62000000 		.4byte	.LVL154
 7881 18f8 31360000 		.4byte	0x3631
 7882 18fc 07190000 		.4byte	0x1907
 7883 1900 27       		.uleb128 0x27
 7884 1901 01       		.uleb128 0x1
 7885 1902 50       		.byte	0x50
 7886 1903 02       		.uleb128 0x2
 7887 1904 74       		.byte	0x74
 7888 1905 00       		.sleb128 0
 7889 1906 00       		.byte	0
 7890 1907 26       		.uleb128 0x26
 7891 1908 68000000 		.4byte	.LVL155
 7892 190c 26360000 		.4byte	0x3626
 7893 1910 1B190000 		.4byte	0x191b
 7894 1914 27       		.uleb128 0x27
 7895 1915 01       		.uleb128 0x1
 7896 1916 50       		.byte	0x50
 7897 1917 02       		.uleb128 0x2
 7898 1918 74       		.byte	0x74
 7899 1919 00       		.sleb128 0
 7900 191a 00       		.byte	0
ARM GAS  C:\Users\d3bug\AppData\Local\Temp\ccFiAZjI.s 			page 188


 7901 191b 30       		.uleb128 0x30
 7902 191c 78000000 		.4byte	.LVL158
 7903 1920 35190000 		.4byte	0x1935
 7904 1924 27       		.uleb128 0x27
 7905 1925 01       		.uleb128 0x1
 7906 1926 50       		.byte	0x50
 7907 1927 02       		.uleb128 0x2
 7908 1928 75       		.byte	0x75
 7909 1929 00       		.sleb128 0
 7910 192a 27       		.uleb128 0x27
 7911 192b 01       		.uleb128 0x1
 7912 192c 51       		.byte	0x51
 7913 192d 01       		.uleb128 0x1
 7914 192e 30       		.byte	0x30
 7915 192f 27       		.uleb128 0x27
 7916 1930 01       		.uleb128 0x1
 7917 1931 52       		.byte	0x52
 7918 1932 01       		.uleb128 0x1
 7919 1933 30       		.byte	0x30
 7920 1934 00       		.byte	0
 7921 1935 2C       		.uleb128 0x2c
 7922 1936 80000000 		.4byte	.LVL159
 7923 193a 47360000 		.4byte	0x3647
 7924 193e 26       		.uleb128 0x26
 7925 193f 86000000 		.4byte	.LVL160
 7926 1943 47360000 		.4byte	0x3647
 7927 1947 52190000 		.4byte	0x1952
 7928 194b 27       		.uleb128 0x27
 7929 194c 01       		.uleb128 0x1
 7930 194d 50       		.byte	0x50
 7931 194e 02       		.uleb128 0x2
 7932 194f 75       		.byte	0x75
 7933 1950 00       		.sleb128 0
 7934 1951 00       		.byte	0
 7935 1952 37       		.uleb128 0x37
 7936 1953 92000000 		.4byte	.LVL161
 7937 1957 27       		.uleb128 0x27
 7938 1958 01       		.uleb128 0x1
 7939 1959 50       		.byte	0x50
 7940 195a 02       		.uleb128 0x2
 7941 195b 76       		.byte	0x76
 7942 195c 00       		.sleb128 0
 7943 195d 27       		.uleb128 0x27
 7944 195e 01       		.uleb128 0x1
 7945 195f 51       		.byte	0x51
 7946 1960 01       		.uleb128 0x1
 7947 1961 31       		.byte	0x31
 7948 1962 27       		.uleb128 0x27
 7949 1963 01       		.uleb128 0x1
 7950 1964 52       		.byte	0x52
 7951 1965 01       		.uleb128 0x1
 7952 1966 30       		.byte	0x30
 7953 1967 00       		.byte	0
 7954 1968 00       		.byte	0
 7955 1969 29       		.uleb128 0x29
 7956 196a 11140000 		.4byte	.LASF276
 7957 196e 01       		.byte	0x1
ARM GAS  C:\Users\d3bug\AppData\Local\Temp\ccFiAZjI.s 			page 189


 7958 196f 8B01     		.2byte	0x18b
 7959 1971 00000000 		.4byte	.LFB15
 7960 1975 26000000 		.4byte	.LFE15-.LFB15
 7961 1979 01       		.uleb128 0x1
 7962 197a 9C       		.byte	0x9c
 7963 197b F3190000 		.4byte	0x19f3
 7964 197f 23       		.uleb128 0x23
 7965 1980 6F626A00 		.ascii	"obj\000"
 7966 1984 01       		.byte	0x1
 7967 1985 8B01     		.2byte	0x18b
 7968 1987 BC0D0000 		.4byte	0xdbc
 7969 198b 7F080000 		.4byte	.LLST56
 7970 198f 2F       		.uleb128 0x2f
 7971 1990 2D000000 		.4byte	.LASF253
 7972 1994 01       		.byte	0x1
 7973 1995 8D01     		.2byte	0x18d
 7974 1997 BC0D0000 		.4byte	0xdbc
 7975 199b 9D080000 		.4byte	.LLST57
 7976 199f 2F       		.uleb128 0x2f
 7977 19a0 CF0C0000 		.4byte	.LASF277
 7978 19a4 01       		.byte	0x1
 7979 19a5 8E01     		.2byte	0x18e
 7980 19a7 BC0D0000 		.4byte	0xdbc
 7981 19ab D1080000 		.4byte	.LLST58
 7982 19af 26       		.uleb128 0x26
 7983 19b0 0A000000 		.4byte	.LVL164
 7984 19b4 C7120000 		.4byte	0x12c7
 7985 19b8 C8190000 		.4byte	0x19c8
 7986 19bc 27       		.uleb128 0x27
 7987 19bd 01       		.uleb128 0x1
 7988 19be 50       		.byte	0x50
 7989 19bf 02       		.uleb128 0x2
 7990 19c0 76       		.byte	0x76
 7991 19c1 00       		.sleb128 0
 7992 19c2 27       		.uleb128 0x27
 7993 19c3 01       		.uleb128 0x1
 7994 19c4 51       		.byte	0x51
 7995 19c5 01       		.uleb128 0x1
 7996 19c6 30       		.byte	0x30
 7997 19c7 00       		.byte	0
 7998 19c8 26       		.uleb128 0x26
 7999 19c9 16000000 		.4byte	.LVL167
 8000 19cd C7120000 		.4byte	0x12c7
 8001 19d1 E2190000 		.4byte	0x19e2
 8002 19d5 27       		.uleb128 0x27
 8003 19d6 01       		.uleb128 0x1
 8004 19d7 50       		.byte	0x50
 8005 19d8 02       		.uleb128 0x2
 8006 19d9 76       		.byte	0x76
 8007 19da 00       		.sleb128 0
 8008 19db 27       		.uleb128 0x27
 8009 19dc 01       		.uleb128 0x1
 8010 19dd 51       		.byte	0x51
 8011 19de 02       		.uleb128 0x2
 8012 19df 74       		.byte	0x74
 8013 19e0 00       		.sleb128 0
 8014 19e1 00       		.byte	0
ARM GAS  C:\Users\d3bug\AppData\Local\Temp\ccFiAZjI.s 			page 190


 8015 19e2 28       		.uleb128 0x28
 8016 19e3 1E000000 		.4byte	.LVL170
 8017 19e7 E0170000 		.4byte	0x17e0
 8018 19eb 27       		.uleb128 0x27
 8019 19ec 01       		.uleb128 0x1
 8020 19ed 50       		.byte	0x50
 8021 19ee 02       		.uleb128 0x2
 8022 19ef 74       		.byte	0x74
 8023 19f0 00       		.sleb128 0
 8024 19f1 00       		.byte	0
 8025 19f2 00       		.byte	0
 8026 19f3 29       		.uleb128 0x29
 8027 19f4 820F0000 		.4byte	.LASF278
 8028 19f8 01       		.byte	0x1
 8029 19f9 CB01     		.2byte	0x1cb
 8030 19fb 00000000 		.4byte	.LFB17
 8031 19ff 10000000 		.4byte	.LFE17-.LFB17
 8032 1a03 01       		.uleb128 0x1
 8033 1a04 9C       		.byte	0x9c
 8034 1a05 2B1A0000 		.4byte	0x1a2b
 8035 1a09 23       		.uleb128 0x23
 8036 1a0a 73637200 		.ascii	"scr\000"
 8037 1a0e 01       		.byte	0x1
 8038 1a0f CB01     		.2byte	0x1cb
 8039 1a11 BC0D0000 		.4byte	0xdbc
 8040 1a15 EF080000 		.4byte	.LLST59
 8041 1a19 28       		.uleb128 0x28
 8042 1a1a 0A000000 		.4byte	.LVL173
 8043 1a1e 86160000 		.4byte	0x1686
 8044 1a22 27       		.uleb128 0x27
 8045 1a23 01       		.uleb128 0x1
 8046 1a24 50       		.byte	0x50
 8047 1a25 03       		.uleb128 0x3
 8048 1a26 F3       		.byte	0xf3
 8049 1a27 01       		.uleb128 0x1
 8050 1a28 50       		.byte	0x50
 8051 1a29 00       		.byte	0
 8052 1a2a 00       		.byte	0
 8053 1a2b 29       		.uleb128 0x29
 8054 1a2c 20080000 		.4byte	.LASF279
 8055 1a30 01       		.byte	0x1
 8056 1a31 0702     		.2byte	0x207
 8057 1a33 00000000 		.4byte	.LFB19
 8058 1a37 8C000000 		.4byte	.LFE19-.LFB19
 8059 1a3b 01       		.uleb128 0x1
 8060 1a3c 9C       		.byte	0x9c
 8061 1a3d 2B1B0000 		.4byte	0x1b2b
 8062 1a41 23       		.uleb128 0x23
 8063 1a42 6F626A00 		.ascii	"obj\000"
 8064 1a46 01       		.byte	0x1
 8065 1a47 0702     		.2byte	0x207
 8066 1a49 BC0D0000 		.4byte	0xdbc
 8067 1a4d 10090000 		.4byte	.LLST60
 8068 1a51 23       		.uleb128 0x23
 8069 1a52 7800     		.ascii	"x\000"
 8070 1a54 01       		.byte	0x1
 8071 1a55 0702     		.2byte	0x207
ARM GAS  C:\Users\d3bug\AppData\Local\Temp\ccFiAZjI.s 			page 191


 8072 1a57 A2010000 		.4byte	0x1a2
 8073 1a5b 3C090000 		.4byte	.LLST61
 8074 1a5f 23       		.uleb128 0x23
 8075 1a60 7900     		.ascii	"y\000"
 8076 1a62 01       		.byte	0x1
 8077 1a63 0702     		.2byte	0x207
 8078 1a65 A2010000 		.4byte	0x1a2
 8079 1a69 68090000 		.4byte	.LLST62
 8080 1a6d 38       		.uleb128 0x38
 8081 1a6e 70617200 		.ascii	"par\000"
 8082 1a72 01       		.byte	0x1
 8083 1a73 0A02     		.2byte	0x20a
 8084 1a75 BC0D0000 		.4byte	0xdbc
 8085 1a79 01       		.uleb128 0x1
 8086 1a7a 56       		.byte	0x56
 8087 1a7b 39       		.uleb128 0x39
 8088 1a7c 3F020000 		.4byte	.LASF299
 8089 1a80 01       		.byte	0x1
 8090 1a81 0F02     		.2byte	0x20f
 8091 1a83 CA010000 		.4byte	0x1ca
 8092 1a87 38       		.uleb128 0x38
 8093 1a88 6F726900 		.ascii	"ori\000"
 8094 1a8c 01       		.byte	0x1
 8095 1a8d 1C02     		.2byte	0x21c
 8096 1a8f 0A020000 		.4byte	0x20a
 8097 1a93 02       		.uleb128 0x2
 8098 1a94 91       		.byte	0x91
 8099 1a95 58       		.sleb128 -40
 8100 1a96 26       		.uleb128 0x26
 8101 1a97 42000000 		.4byte	.LVL181
 8102 1a9b 86160000 		.4byte	0x1686
 8103 1a9f AA1A0000 		.4byte	0x1aaa
 8104 1aa3 27       		.uleb128 0x27
 8105 1aa4 01       		.uleb128 0x1
 8106 1aa5 50       		.byte	0x50
 8107 1aa6 02       		.uleb128 0x2
 8108 1aa7 75       		.byte	0x75
 8109 1aa8 00       		.sleb128 0
 8110 1aa9 00       		.byte	0
 8111 1aaa 26       		.uleb128 0x26
 8112 1aab 4A000000 		.4byte	.LVL182
 8113 1aaf 1E140000 		.4byte	0x141e
 8114 1ab3 C41A0000 		.4byte	0x1ac4
 8115 1ab7 27       		.uleb128 0x27
 8116 1ab8 01       		.uleb128 0x1
 8117 1ab9 50       		.byte	0x50
 8118 1aba 02       		.uleb128 0x2
 8119 1abb 75       		.byte	0x75
 8120 1abc 00       		.sleb128 0
 8121 1abd 27       		.uleb128 0x27
 8122 1abe 01       		.uleb128 0x1
 8123 1abf 51       		.byte	0x51
 8124 1ac0 02       		.uleb128 0x2
 8125 1ac1 7D       		.byte	0x7d
 8126 1ac2 00       		.sleb128 0
 8127 1ac3 00       		.byte	0
 8128 1ac4 26       		.uleb128 0x26
ARM GAS  C:\Users\d3bug\AppData\Local\Temp\ccFiAZjI.s 			page 192


 8129 1ac5 6C000000 		.4byte	.LVL183
 8130 1ac9 1D0D0000 		.4byte	0xd1d
 8131 1acd E41A0000 		.4byte	0x1ae4
 8132 1ad1 27       		.uleb128 0x27
 8133 1ad2 01       		.uleb128 0x1
 8134 1ad3 50       		.byte	0x50
 8135 1ad4 02       		.uleb128 0x2
 8136 1ad5 75       		.byte	0x75
 8137 1ad6 00       		.sleb128 0
 8138 1ad7 27       		.uleb128 0x27
 8139 1ad8 01       		.uleb128 0x1
 8140 1ad9 51       		.byte	0x51
 8141 1ada 02       		.uleb128 0x2
 8142 1adb 78       		.byte	0x78
 8143 1adc 00       		.sleb128 0
 8144 1add 27       		.uleb128 0x27
 8145 1ade 01       		.uleb128 0x1
 8146 1adf 52       		.byte	0x52
 8147 1ae0 02       		.uleb128 0x2
 8148 1ae1 79       		.byte	0x79
 8149 1ae2 00       		.sleb128 0
 8150 1ae3 00       		.byte	0
 8151 1ae4 30       		.uleb128 0x30
 8152 1ae5 76000000 		.4byte	.LVL184
 8153 1ae9 FF1A0000 		.4byte	0x1aff
 8154 1aed 27       		.uleb128 0x27
 8155 1aee 01       		.uleb128 0x1
 8156 1aef 50       		.byte	0x50
 8157 1af0 02       		.uleb128 0x2
 8158 1af1 75       		.byte	0x75
 8159 1af2 00       		.sleb128 0
 8160 1af3 27       		.uleb128 0x27
 8161 1af4 01       		.uleb128 0x1
 8162 1af5 51       		.byte	0x51
 8163 1af6 01       		.uleb128 0x1
 8164 1af7 32       		.byte	0x32
 8165 1af8 27       		.uleb128 0x27
 8166 1af9 01       		.uleb128 0x1
 8167 1afa 52       		.byte	0x52
 8168 1afb 02       		.uleb128 0x2
 8169 1afc 7D       		.byte	0x7d
 8170 1afd 00       		.sleb128 0
 8171 1afe 00       		.byte	0
 8172 1aff 30       		.uleb128 0x30
 8173 1b00 80000000 		.4byte	.LVL185
 8174 1b04 1A1B0000 		.4byte	0x1b1a
 8175 1b08 27       		.uleb128 0x27
 8176 1b09 01       		.uleb128 0x1
 8177 1b0a 50       		.byte	0x50
 8178 1b0b 02       		.uleb128 0x2
 8179 1b0c 76       		.byte	0x76
 8180 1b0d 00       		.sleb128 0
 8181 1b0e 27       		.uleb128 0x27
 8182 1b0f 01       		.uleb128 0x1
 8183 1b10 51       		.byte	0x51
 8184 1b11 01       		.uleb128 0x1
 8185 1b12 31       		.byte	0x31
ARM GAS  C:\Users\d3bug\AppData\Local\Temp\ccFiAZjI.s 			page 193


 8186 1b13 27       		.uleb128 0x27
 8187 1b14 01       		.uleb128 0x1
 8188 1b15 52       		.byte	0x52
 8189 1b16 02       		.uleb128 0x2
 8190 1b17 75       		.byte	0x75
 8191 1b18 00       		.sleb128 0
 8192 1b19 00       		.byte	0
 8193 1b1a 28       		.uleb128 0x28
 8194 1b1b 86000000 		.4byte	.LVL186
 8195 1b1f 86160000 		.4byte	0x1686
 8196 1b23 27       		.uleb128 0x27
 8197 1b24 01       		.uleb128 0x1
 8198 1b25 50       		.byte	0x50
 8199 1b26 02       		.uleb128 0x2
 8200 1b27 75       		.byte	0x75
 8201 1b28 00       		.sleb128 0
 8202 1b29 00       		.byte	0
 8203 1b2a 00       		.byte	0
 8204 1b2b 29       		.uleb128 0x29
 8205 1b2c 1E130000 		.4byte	.LASF280
 8206 1b30 01       		.byte	0x1
 8207 1b31 3602     		.2byte	0x236
 8208 1b33 00000000 		.4byte	.LFB20
 8209 1b37 16000000 		.4byte	.LFE20-.LFB20
 8210 1b3b 01       		.uleb128 0x1
 8211 1b3c 9C       		.byte	0x9c
 8212 1b3d 8A1B0000 		.4byte	0x1b8a
 8213 1b41 23       		.uleb128 0x23
 8214 1b42 6F626A00 		.ascii	"obj\000"
 8215 1b46 01       		.byte	0x1
 8216 1b47 3602     		.2byte	0x236
 8217 1b49 BC0D0000 		.4byte	0xdbc
 8218 1b4d 94090000 		.4byte	.LLST63
 8219 1b51 23       		.uleb128 0x23
 8220 1b52 7800     		.ascii	"x\000"
 8221 1b54 01       		.byte	0x1
 8222 1b55 3602     		.2byte	0x236
 8223 1b57 A2010000 		.4byte	0x1a2
 8224 1b5b B2090000 		.4byte	.LLST64
 8225 1b5f 26       		.uleb128 0x26
 8226 1b60 0A000000 		.4byte	.LVL188
 8227 1b64 CF140000 		.4byte	0x14cf
 8228 1b68 731B0000 		.4byte	0x1b73
 8229 1b6c 27       		.uleb128 0x27
 8230 1b6d 01       		.uleb128 0x1
 8231 1b6e 50       		.byte	0x50
 8232 1b6f 02       		.uleb128 0x2
 8233 1b70 74       		.byte	0x74
 8234 1b71 00       		.sleb128 0
 8235 1b72 00       		.byte	0
 8236 1b73 28       		.uleb128 0x28
 8237 1b74 14000000 		.4byte	.LVL189
 8238 1b78 2B1A0000 		.4byte	0x1a2b
 8239 1b7c 27       		.uleb128 0x27
 8240 1b7d 01       		.uleb128 0x1
 8241 1b7e 50       		.byte	0x50
 8242 1b7f 02       		.uleb128 0x2
ARM GAS  C:\Users\d3bug\AppData\Local\Temp\ccFiAZjI.s 			page 194


 8243 1b80 74       		.byte	0x74
 8244 1b81 00       		.sleb128 0
 8245 1b82 27       		.uleb128 0x27
 8246 1b83 01       		.uleb128 0x1
 8247 1b84 51       		.byte	0x51
 8248 1b85 02       		.uleb128 0x2
 8249 1b86 75       		.byte	0x75
 8250 1b87 00       		.sleb128 0
 8251 1b88 00       		.byte	0
 8252 1b89 00       		.byte	0
 8253 1b8a 29       		.uleb128 0x29
 8254 1b8b 2B130000 		.4byte	.LASF281
 8255 1b8f 01       		.byte	0x1
 8256 1b90 4102     		.2byte	0x241
 8257 1b92 00000000 		.4byte	.LFB21
 8258 1b96 16000000 		.4byte	.LFE21-.LFB21
 8259 1b9a 01       		.uleb128 0x1
 8260 1b9b 9C       		.byte	0x9c
 8261 1b9c E91B0000 		.4byte	0x1be9
 8262 1ba0 23       		.uleb128 0x23
 8263 1ba1 6F626A00 		.ascii	"obj\000"
 8264 1ba5 01       		.byte	0x1
 8265 1ba6 4102     		.2byte	0x241
 8266 1ba8 BC0D0000 		.4byte	0xdbc
 8267 1bac D3090000 		.4byte	.LLST65
 8268 1bb0 23       		.uleb128 0x23
 8269 1bb1 7900     		.ascii	"y\000"
 8270 1bb3 01       		.byte	0x1
 8271 1bb4 4102     		.2byte	0x241
 8272 1bb6 A2010000 		.4byte	0x1a2
 8273 1bba F1090000 		.4byte	.LLST66
 8274 1bbe 26       		.uleb128 0x26
 8275 1bbf 0A000000 		.4byte	.LVL191
 8276 1bc3 76140000 		.4byte	0x1476
 8277 1bc7 D21B0000 		.4byte	0x1bd2
 8278 1bcb 27       		.uleb128 0x27
 8279 1bcc 01       		.uleb128 0x1
 8280 1bcd 50       		.byte	0x50
 8281 1bce 02       		.uleb128 0x2
 8282 1bcf 74       		.byte	0x74
 8283 1bd0 00       		.sleb128 0
 8284 1bd1 00       		.byte	0
 8285 1bd2 28       		.uleb128 0x28
 8286 1bd3 14000000 		.4byte	.LVL192
 8287 1bd7 2B1A0000 		.4byte	0x1a2b
 8288 1bdb 27       		.uleb128 0x27
 8289 1bdc 01       		.uleb128 0x1
 8290 1bdd 50       		.byte	0x50
 8291 1bde 02       		.uleb128 0x2
 8292 1bdf 74       		.byte	0x74
 8293 1be0 00       		.sleb128 0
 8294 1be1 27       		.uleb128 0x27
 8295 1be2 01       		.uleb128 0x1
 8296 1be3 52       		.byte	0x52
 8297 1be4 02       		.uleb128 0x2
 8298 1be5 75       		.byte	0x75
 8299 1be6 00       		.sleb128 0
ARM GAS  C:\Users\d3bug\AppData\Local\Temp\ccFiAZjI.s 			page 195


 8300 1be7 00       		.byte	0
 8301 1be8 00       		.byte	0
 8302 1be9 29       		.uleb128 0x29
 8303 1bea 8D050000 		.4byte	.LASF282
 8304 1bee 01       		.byte	0x1
 8305 1bef 8E02     		.2byte	0x28e
 8306 1bf1 00000000 		.4byte	.LFB25
 8307 1bf5 38030000 		.4byte	.LFE25-.LFB25
 8308 1bf9 01       		.uleb128 0x1
 8309 1bfa 9C       		.byte	0x9c
 8310 1bfb 2F210000 		.4byte	0x212f
 8311 1bff 23       		.uleb128 0x23
 8312 1c00 6F626A00 		.ascii	"obj\000"
 8313 1c04 01       		.byte	0x1
 8314 1c05 8E02     		.2byte	0x28e
 8315 1c07 BC0D0000 		.4byte	0xdbc
 8316 1c0b 120A0000 		.4byte	.LLST67
 8317 1c0f 24       		.uleb128 0x24
 8318 1c10 B6100000 		.4byte	.LASF161
 8319 1c14 01       		.byte	0x1
 8320 1c15 8E02     		.2byte	0x28e
 8321 1c17 1E110000 		.4byte	0x111e
 8322 1c1b 300A0000 		.4byte	.LLST68
 8323 1c1f 24       		.uleb128 0x24
 8324 1c20 4F0A0000 		.4byte	.LASF164
 8325 1c24 01       		.byte	0x1
 8326 1c25 8E02     		.2byte	0x28e
 8327 1c27 B5080000 		.4byte	0x8b5
 8328 1c2b 4E0A0000 		.4byte	.LLST69
 8329 1c2f 24       		.uleb128 0x24
 8330 1c30 B3130000 		.4byte	.LASF283
 8331 1c34 01       		.byte	0x1
 8332 1c35 8E02     		.2byte	0x28e
 8333 1c37 A2010000 		.4byte	0x1a2
 8334 1c3b 6F0A0000 		.4byte	.LLST70
 8335 1c3f 2D       		.uleb128 0x2d
 8336 1c40 E20F0000 		.4byte	.LASF284
 8337 1c44 01       		.byte	0x1
 8338 1c45 8E02     		.2byte	0x28e
 8339 1c47 A2010000 		.4byte	0x1a2
 8340 1c4b 02       		.uleb128 0x2
 8341 1c4c 91       		.byte	0x91
 8342 1c4d 00       		.sleb128 0
 8343 1c4e 2F       		.uleb128 0x2f
 8344 1c4f 110E0000 		.4byte	.LASF285
 8345 1c53 01       		.byte	0x1
 8346 1c54 9002     		.2byte	0x290
 8347 1c56 A2010000 		.4byte	0x1a2
 8348 1c5a 900A0000 		.4byte	.LLST71
 8349 1c5e 2F       		.uleb128 0x2f
 8350 1c5f 170E0000 		.4byte	.LASF286
 8351 1c63 01       		.byte	0x1
 8352 1c64 9102     		.2byte	0x291
 8353 1c66 A2010000 		.4byte	0x1a2
 8354 1c6a 780B0000 		.4byte	.LLST72
 8355 1c6e 25       		.uleb128 0x25
 8356 1c6f 70617200 		.ascii	"par\000"
ARM GAS  C:\Users\d3bug\AppData\Local\Temp\ccFiAZjI.s 			page 196


 8357 1c73 01       		.byte	0x1
 8358 1c74 0103     		.2byte	0x301
 8359 1c76 BC0D0000 		.4byte	0xdbc
 8360 1c7a 6B0C0000 		.4byte	.LLST73
 8361 1c7e 2F       		.uleb128 0x2f
 8362 1c7f 76110000 		.4byte	.LASF287
 8363 1c83 01       		.byte	0x1
 8364 1c84 0203     		.2byte	0x302
 8365 1c86 A2010000 		.4byte	0x1a2
 8366 1c8a 7E0C0000 		.4byte	.LLST74
 8367 1c8e 2F       		.uleb128 0x2f
 8368 1c8f 81110000 		.4byte	.LASF288
 8369 1c93 01       		.byte	0x1
 8370 1c94 0303     		.2byte	0x303
 8371 1c96 A2010000 		.4byte	0x1a2
 8372 1c9a 910C0000 		.4byte	.LLST75
 8373 1c9e 2F       		.uleb128 0x2f
 8374 1c9f BC0D0000 		.4byte	.LASF289
 8375 1ca3 01       		.byte	0x1
 8376 1ca4 0403     		.2byte	0x304
 8377 1ca6 A2010000 		.4byte	0x1a2
 8378 1caa A40C0000 		.4byte	.LLST76
 8379 1cae 2F       		.uleb128 0x2f
 8380 1caf C60D0000 		.4byte	.LASF290
 8381 1cb3 01       		.byte	0x1
 8382 1cb4 0503     		.2byte	0x305
 8383 1cb6 A2010000 		.4byte	0x1a2
 8384 1cba B70C0000 		.4byte	.LLST77
 8385 1cbe 26       		.uleb128 0x26
 8386 1cbf 14000000 		.4byte	.LVL194
 8387 1cc3 76140000 		.4byte	0x1476
 8388 1cc7 D21C0000 		.4byte	0x1cd2
 8389 1ccb 27       		.uleb128 0x27
 8390 1ccc 01       		.uleb128 0x1
 8391 1ccd 50       		.byte	0x50
 8392 1cce 02       		.uleb128 0x2
 8393 1ccf 76       		.byte	0x76
 8394 1cd0 00       		.sleb128 0
 8395 1cd1 00       		.byte	0
 8396 1cd2 26       		.uleb128 0x26
 8397 1cd3 1C000000 		.4byte	.LVL196
 8398 1cd7 CF140000 		.4byte	0x14cf
 8399 1cdb E61C0000 		.4byte	0x1ce6
 8400 1cdf 27       		.uleb128 0x27
 8401 1ce0 01       		.uleb128 0x1
 8402 1ce1 50       		.byte	0x50
 8403 1ce2 02       		.uleb128 0x2
 8404 1ce3 76       		.byte	0x76
 8405 1ce4 00       		.sleb128 0
 8406 1ce5 00       		.byte	0
 8407 1ce6 26       		.uleb128 0x26
 8408 1ce7 26000000 		.4byte	.LVL198
 8409 1ceb F3100000 		.4byte	0x10f3
 8410 1cef FA1C0000 		.4byte	0x1cfa
 8411 1cf3 27       		.uleb128 0x27
 8412 1cf4 01       		.uleb128 0x1
 8413 1cf5 50       		.byte	0x50
ARM GAS  C:\Users\d3bug\AppData\Local\Temp\ccFiAZjI.s 			page 197


 8414 1cf6 02       		.uleb128 0x2
 8415 1cf7 76       		.byte	0x76
 8416 1cf8 00       		.sleb128 0
 8417 1cf9 00       		.byte	0
 8418 1cfa 26       		.uleb128 0x26
 8419 1cfb 64000000 		.4byte	.LVL200
 8420 1cff 28150000 		.4byte	0x1528
 8421 1d03 0E1D0000 		.4byte	0x1d0e
 8422 1d07 27       		.uleb128 0x27
 8423 1d08 01       		.uleb128 0x1
 8424 1d09 50       		.byte	0x50
 8425 1d0a 02       		.uleb128 0x2
 8426 1d0b 77       		.byte	0x77
 8427 1d0c 00       		.sleb128 0
 8428 1d0d 00       		.byte	0
 8429 1d0e 26       		.uleb128 0x26
 8430 1d0f 6C000000 		.4byte	.LVL202
 8431 1d13 28150000 		.4byte	0x1528
 8432 1d17 221D0000 		.4byte	0x1d22
 8433 1d1b 27       		.uleb128 0x27
 8434 1d1c 01       		.uleb128 0x1
 8435 1d1d 50       		.byte	0x50
 8436 1d1e 02       		.uleb128 0x2
 8437 1d1f 76       		.byte	0x76
 8438 1d20 00       		.sleb128 0
 8439 1d21 00       		.byte	0
 8440 1d22 26       		.uleb128 0x26
 8441 1d23 82000000 		.4byte	.LVL204
 8442 1d27 6D150000 		.4byte	0x156d
 8443 1d2b 361D0000 		.4byte	0x1d36
 8444 1d2f 27       		.uleb128 0x27
 8445 1d30 01       		.uleb128 0x1
 8446 1d31 50       		.byte	0x50
 8447 1d32 02       		.uleb128 0x2
 8448 1d33 77       		.byte	0x77
 8449 1d34 00       		.sleb128 0
 8450 1d35 00       		.byte	0
 8451 1d36 26       		.uleb128 0x26
 8452 1d37 8A000000 		.4byte	.LVL206
 8453 1d3b 6D150000 		.4byte	0x156d
 8454 1d3f 4A1D0000 		.4byte	0x1d4a
 8455 1d43 27       		.uleb128 0x27
 8456 1d44 01       		.uleb128 0x1
 8457 1d45 50       		.byte	0x50
 8458 1d46 02       		.uleb128 0x2
 8459 1d47 76       		.byte	0x76
 8460 1d48 00       		.sleb128 0
 8461 1d49 00       		.byte	0
 8462 1d4a 26       		.uleb128 0x26
 8463 1d4b A2000000 		.4byte	.LVL208
 8464 1d4f 28150000 		.4byte	0x1528
 8465 1d53 5E1D0000 		.4byte	0x1d5e
 8466 1d57 27       		.uleb128 0x27
 8467 1d58 01       		.uleb128 0x1
 8468 1d59 50       		.byte	0x50
 8469 1d5a 02       		.uleb128 0x2
 8470 1d5b 77       		.byte	0x77
ARM GAS  C:\Users\d3bug\AppData\Local\Temp\ccFiAZjI.s 			page 198


 8471 1d5c 00       		.sleb128 0
 8472 1d5d 00       		.byte	0
 8473 1d5e 26       		.uleb128 0x26
 8474 1d5f AA000000 		.4byte	.LVL210
 8475 1d63 28150000 		.4byte	0x1528
 8476 1d67 721D0000 		.4byte	0x1d72
 8477 1d6b 27       		.uleb128 0x27
 8478 1d6c 01       		.uleb128 0x1
 8479 1d6d 50       		.byte	0x50
 8480 1d6e 02       		.uleb128 0x2
 8481 1d6f 76       		.byte	0x76
 8482 1d70 00       		.sleb128 0
 8483 1d71 00       		.byte	0
 8484 1d72 26       		.uleb128 0x26
 8485 1d73 C4000000 		.4byte	.LVL213
 8486 1d77 28150000 		.4byte	0x1528
 8487 1d7b 861D0000 		.4byte	0x1d86
 8488 1d7f 27       		.uleb128 0x27
 8489 1d80 01       		.uleb128 0x1
 8490 1d81 50       		.byte	0x50
 8491 1d82 02       		.uleb128 0x2
 8492 1d83 77       		.byte	0x77
 8493 1d84 00       		.sleb128 0
 8494 1d85 00       		.byte	0
 8495 1d86 26       		.uleb128 0x26
 8496 1d87 CC000000 		.4byte	.LVL215
 8497 1d8b 28150000 		.4byte	0x1528
 8498 1d8f 9A1D0000 		.4byte	0x1d9a
 8499 1d93 27       		.uleb128 0x27
 8500 1d94 01       		.uleb128 0x1
 8501 1d95 50       		.byte	0x50
 8502 1d96 02       		.uleb128 0x2
 8503 1d97 76       		.byte	0x76
 8504 1d98 00       		.sleb128 0
 8505 1d99 00       		.byte	0
 8506 1d9a 26       		.uleb128 0x26
 8507 1d9b DA000000 		.4byte	.LVL218
 8508 1d9f 6D150000 		.4byte	0x156d
 8509 1da3 AE1D0000 		.4byte	0x1dae
 8510 1da7 27       		.uleb128 0x27
 8511 1da8 01       		.uleb128 0x1
 8512 1da9 50       		.byte	0x50
 8513 1daa 02       		.uleb128 0x2
 8514 1dab 77       		.byte	0x77
 8515 1dac 00       		.sleb128 0
 8516 1dad 00       		.byte	0
 8517 1dae 26       		.uleb128 0x26
 8518 1daf E2000000 		.4byte	.LVL220
 8519 1db3 6D150000 		.4byte	0x156d
 8520 1db7 C21D0000 		.4byte	0x1dc2
 8521 1dbb 27       		.uleb128 0x27
 8522 1dbc 01       		.uleb128 0x1
 8523 1dbd 50       		.byte	0x50
 8524 1dbe 02       		.uleb128 0x2
 8525 1dbf 76       		.byte	0x76
 8526 1dc0 00       		.sleb128 0
 8527 1dc1 00       		.byte	0
ARM GAS  C:\Users\d3bug\AppData\Local\Temp\ccFiAZjI.s 			page 199


 8528 1dc2 26       		.uleb128 0x26
 8529 1dc3 F0000000 		.4byte	.LVL223
 8530 1dc7 28150000 		.4byte	0x1528
 8531 1dcb D61D0000 		.4byte	0x1dd6
 8532 1dcf 27       		.uleb128 0x27
 8533 1dd0 01       		.uleb128 0x1
 8534 1dd1 50       		.byte	0x50
 8535 1dd2 02       		.uleb128 0x2
 8536 1dd3 77       		.byte	0x77
 8537 1dd4 00       		.sleb128 0
 8538 1dd5 00       		.byte	0
 8539 1dd6 26       		.uleb128 0x26
 8540 1dd7 F8000000 		.4byte	.LVL225
 8541 1ddb 28150000 		.4byte	0x1528
 8542 1ddf EA1D0000 		.4byte	0x1dea
 8543 1de3 27       		.uleb128 0x27
 8544 1de4 01       		.uleb128 0x1
 8545 1de5 50       		.byte	0x50
 8546 1de6 02       		.uleb128 0x2
 8547 1de7 76       		.byte	0x76
 8548 1de8 00       		.sleb128 0
 8549 1de9 00       		.byte	0
 8550 1dea 26       		.uleb128 0x26
 8551 1deb 0E010000 		.4byte	.LVL227
 8552 1def 6D150000 		.4byte	0x156d
 8553 1df3 FE1D0000 		.4byte	0x1dfe
 8554 1df7 27       		.uleb128 0x27
 8555 1df8 01       		.uleb128 0x1
 8556 1df9 50       		.byte	0x50
 8557 1dfa 02       		.uleb128 0x2
 8558 1dfb 77       		.byte	0x77
 8559 1dfc 00       		.sleb128 0
 8560 1dfd 00       		.byte	0
 8561 1dfe 26       		.uleb128 0x26
 8562 1dff 16010000 		.4byte	.LVL229
 8563 1e03 6D150000 		.4byte	0x156d
 8564 1e07 121E0000 		.4byte	0x1e12
 8565 1e0b 27       		.uleb128 0x27
 8566 1e0c 01       		.uleb128 0x1
 8567 1e0d 50       		.byte	0x50
 8568 1e0e 02       		.uleb128 0x2
 8569 1e0f 76       		.byte	0x76
 8570 1e10 00       		.sleb128 0
 8571 1e11 00       		.byte	0
 8572 1e12 26       		.uleb128 0x26
 8573 1e13 22010000 		.4byte	.LVL231
 8574 1e17 28150000 		.4byte	0x1528
 8575 1e1b 261E0000 		.4byte	0x1e26
 8576 1e1f 27       		.uleb128 0x27
 8577 1e20 01       		.uleb128 0x1
 8578 1e21 50       		.byte	0x50
 8579 1e22 02       		.uleb128 0x2
 8580 1e23 77       		.byte	0x77
 8581 1e24 00       		.sleb128 0
 8582 1e25 00       		.byte	0
 8583 1e26 26       		.uleb128 0x26
 8584 1e27 2A010000 		.4byte	.LVL233
ARM GAS  C:\Users\d3bug\AppData\Local\Temp\ccFiAZjI.s 			page 200


 8585 1e2b 28150000 		.4byte	0x1528
 8586 1e2f 3A1E0000 		.4byte	0x1e3a
 8587 1e33 27       		.uleb128 0x27
 8588 1e34 01       		.uleb128 0x1
 8589 1e35 50       		.byte	0x50
 8590 1e36 02       		.uleb128 0x2
 8591 1e37 76       		.byte	0x76
 8592 1e38 00       		.sleb128 0
 8593 1e39 00       		.byte	0
 8594 1e3a 26       		.uleb128 0x26
 8595 1e3b 34010000 		.4byte	.LVL235
 8596 1e3f 6D150000 		.4byte	0x156d
 8597 1e43 4E1E0000 		.4byte	0x1e4e
 8598 1e47 27       		.uleb128 0x27
 8599 1e48 01       		.uleb128 0x1
 8600 1e49 50       		.byte	0x50
 8601 1e4a 02       		.uleb128 0x2
 8602 1e4b 77       		.byte	0x77
 8603 1e4c 00       		.sleb128 0
 8604 1e4d 00       		.byte	0
 8605 1e4e 26       		.uleb128 0x26
 8606 1e4f 3C010000 		.4byte	.LVL237
 8607 1e53 6D150000 		.4byte	0x156d
 8608 1e57 621E0000 		.4byte	0x1e62
 8609 1e5b 27       		.uleb128 0x27
 8610 1e5c 01       		.uleb128 0x1
 8611 1e5d 50       		.byte	0x50
 8612 1e5e 02       		.uleb128 0x2
 8613 1e5f 76       		.byte	0x76
 8614 1e60 00       		.sleb128 0
 8615 1e61 00       		.byte	0
 8616 1e62 26       		.uleb128 0x26
 8617 1e63 48010000 		.4byte	.LVL240
 8618 1e67 6D150000 		.4byte	0x156d
 8619 1e6b 761E0000 		.4byte	0x1e76
 8620 1e6f 27       		.uleb128 0x27
 8621 1e70 01       		.uleb128 0x1
 8622 1e71 50       		.byte	0x50
 8623 1e72 02       		.uleb128 0x2
 8624 1e73 77       		.byte	0x77
 8625 1e74 00       		.sleb128 0
 8626 1e75 00       		.byte	0
 8627 1e76 26       		.uleb128 0x26
 8628 1e77 50010000 		.4byte	.LVL242
 8629 1e7b 6D150000 		.4byte	0x156d
 8630 1e7f 8A1E0000 		.4byte	0x1e8a
 8631 1e83 27       		.uleb128 0x27
 8632 1e84 01       		.uleb128 0x1
 8633 1e85 50       		.byte	0x50
 8634 1e86 02       		.uleb128 0x2
 8635 1e87 76       		.byte	0x76
 8636 1e88 00       		.sleb128 0
 8637 1e89 00       		.byte	0
 8638 1e8a 26       		.uleb128 0x26
 8639 1e8b 6A010000 		.4byte	.LVL245
 8640 1e8f 28150000 		.4byte	0x1528
 8641 1e93 9E1E0000 		.4byte	0x1e9e
ARM GAS  C:\Users\d3bug\AppData\Local\Temp\ccFiAZjI.s 			page 201


 8642 1e97 27       		.uleb128 0x27
 8643 1e98 01       		.uleb128 0x1
 8644 1e99 50       		.byte	0x50
 8645 1e9a 02       		.uleb128 0x2
 8646 1e9b 77       		.byte	0x77
 8647 1e9c 00       		.sleb128 0
 8648 1e9d 00       		.byte	0
 8649 1e9e 26       		.uleb128 0x26
 8650 1e9f 72010000 		.4byte	.LVL247
 8651 1ea3 28150000 		.4byte	0x1528
 8652 1ea7 B21E0000 		.4byte	0x1eb2
 8653 1eab 27       		.uleb128 0x27
 8654 1eac 01       		.uleb128 0x1
 8655 1ead 50       		.byte	0x50
 8656 1eae 02       		.uleb128 0x2
 8657 1eaf 76       		.byte	0x76
 8658 1eb0 00       		.sleb128 0
 8659 1eb1 00       		.byte	0
 8660 1eb2 26       		.uleb128 0x26
 8661 1eb3 7C010000 		.4byte	.LVL249
 8662 1eb7 6D150000 		.4byte	0x156d
 8663 1ebb C61E0000 		.4byte	0x1ec6
 8664 1ebf 27       		.uleb128 0x27
 8665 1ec0 01       		.uleb128 0x1
 8666 1ec1 50       		.byte	0x50
 8667 1ec2 02       		.uleb128 0x2
 8668 1ec3 77       		.byte	0x77
 8669 1ec4 00       		.sleb128 0
 8670 1ec5 00       		.byte	0
 8671 1ec6 26       		.uleb128 0x26
 8672 1ec7 84010000 		.4byte	.LVL251
 8673 1ecb 6D150000 		.4byte	0x156d
 8674 1ecf DA1E0000 		.4byte	0x1eda
 8675 1ed3 27       		.uleb128 0x27
 8676 1ed4 01       		.uleb128 0x1
 8677 1ed5 50       		.byte	0x50
 8678 1ed6 02       		.uleb128 0x2
 8679 1ed7 76       		.byte	0x76
 8680 1ed8 00       		.sleb128 0
 8681 1ed9 00       		.byte	0
 8682 1eda 26       		.uleb128 0x26
 8683 1edb 9C010000 		.4byte	.LVL254
 8684 1edf 6D150000 		.4byte	0x156d
 8685 1ee3 EE1E0000 		.4byte	0x1eee
 8686 1ee7 27       		.uleb128 0x27
 8687 1ee8 01       		.uleb128 0x1
 8688 1ee9 50       		.byte	0x50
 8689 1eea 02       		.uleb128 0x2
 8690 1eeb 76       		.byte	0x76
 8691 1eec 00       		.sleb128 0
 8692 1eed 00       		.byte	0
 8693 1eee 26       		.uleb128 0x26
 8694 1eef AA010000 		.4byte	.LVL257
 8695 1ef3 28150000 		.4byte	0x1528
 8696 1ef7 021F0000 		.4byte	0x1f02
 8697 1efb 27       		.uleb128 0x27
 8698 1efc 01       		.uleb128 0x1
ARM GAS  C:\Users\d3bug\AppData\Local\Temp\ccFiAZjI.s 			page 202


 8699 1efd 50       		.byte	0x50
 8700 1efe 02       		.uleb128 0x2
 8701 1eff 77       		.byte	0x77
 8702 1f00 00       		.sleb128 0
 8703 1f01 00       		.byte	0
 8704 1f02 26       		.uleb128 0x26
 8705 1f03 B2010000 		.4byte	.LVL259
 8706 1f07 28150000 		.4byte	0x1528
 8707 1f0b 161F0000 		.4byte	0x1f16
 8708 1f0f 27       		.uleb128 0x27
 8709 1f10 01       		.uleb128 0x1
 8710 1f11 50       		.byte	0x50
 8711 1f12 02       		.uleb128 0x2
 8712 1f13 76       		.byte	0x76
 8713 1f14 00       		.sleb128 0
 8714 1f15 00       		.byte	0
 8715 1f16 26       		.uleb128 0x26
 8716 1f17 C8010000 		.4byte	.LVL261
 8717 1f1b 6D150000 		.4byte	0x156d
 8718 1f1f 2A1F0000 		.4byte	0x1f2a
 8719 1f23 27       		.uleb128 0x27
 8720 1f24 01       		.uleb128 0x1
 8721 1f25 50       		.byte	0x50
 8722 1f26 02       		.uleb128 0x2
 8723 1f27 76       		.byte	0x76
 8724 1f28 00       		.sleb128 0
 8725 1f29 00       		.byte	0
 8726 1f2a 26       		.uleb128 0x26
 8727 1f2b D4010000 		.4byte	.LVL263
 8728 1f2f 28150000 		.4byte	0x1528
 8729 1f33 3E1F0000 		.4byte	0x1f3e
 8730 1f37 27       		.uleb128 0x27
 8731 1f38 01       		.uleb128 0x1
 8732 1f39 50       		.byte	0x50
 8733 1f3a 02       		.uleb128 0x2
 8734 1f3b 77       		.byte	0x77
 8735 1f3c 00       		.sleb128 0
 8736 1f3d 00       		.byte	0
 8737 1f3e 26       		.uleb128 0x26
 8738 1f3f DC010000 		.4byte	.LVL265
 8739 1f43 28150000 		.4byte	0x1528
 8740 1f47 521F0000 		.4byte	0x1f52
 8741 1f4b 27       		.uleb128 0x27
 8742 1f4c 01       		.uleb128 0x1
 8743 1f4d 50       		.byte	0x50
 8744 1f4e 02       		.uleb128 0x2
 8745 1f4f 76       		.byte	0x76
 8746 1f50 00       		.sleb128 0
 8747 1f51 00       		.byte	0
 8748 1f52 26       		.uleb128 0x26
 8749 1f53 E6010000 		.4byte	.LVL267
 8750 1f57 6D150000 		.4byte	0x156d
 8751 1f5b 661F0000 		.4byte	0x1f66
 8752 1f5f 27       		.uleb128 0x27
 8753 1f60 01       		.uleb128 0x1
 8754 1f61 50       		.byte	0x50
 8755 1f62 02       		.uleb128 0x2
ARM GAS  C:\Users\d3bug\AppData\Local\Temp\ccFiAZjI.s 			page 203


 8756 1f63 76       		.byte	0x76
 8757 1f64 00       		.sleb128 0
 8758 1f65 00       		.byte	0
 8759 1f66 26       		.uleb128 0x26
 8760 1f67 F2010000 		.4byte	.LVL270
 8761 1f6b 6D150000 		.4byte	0x156d
 8762 1f6f 7A1F0000 		.4byte	0x1f7a
 8763 1f73 27       		.uleb128 0x27
 8764 1f74 01       		.uleb128 0x1
 8765 1f75 50       		.byte	0x50
 8766 1f76 02       		.uleb128 0x2
 8767 1f77 77       		.byte	0x77
 8768 1f78 00       		.sleb128 0
 8769 1f79 00       		.byte	0
 8770 1f7a 26       		.uleb128 0x26
 8771 1f7b FE010000 		.4byte	.LVL273
 8772 1f7f 28150000 		.4byte	0x1528
 8773 1f83 8E1F0000 		.4byte	0x1f8e
 8774 1f87 27       		.uleb128 0x27
 8775 1f88 01       		.uleb128 0x1
 8776 1f89 50       		.byte	0x50
 8777 1f8a 02       		.uleb128 0x2
 8778 1f8b 77       		.byte	0x77
 8779 1f8c 00       		.sleb128 0
 8780 1f8d 00       		.byte	0
 8781 1f8e 26       		.uleb128 0x26
 8782 1f8f 06020000 		.4byte	.LVL275
 8783 1f93 28150000 		.4byte	0x1528
 8784 1f97 A21F0000 		.4byte	0x1fa2
 8785 1f9b 27       		.uleb128 0x27
 8786 1f9c 01       		.uleb128 0x1
 8787 1f9d 50       		.byte	0x50
 8788 1f9e 02       		.uleb128 0x2
 8789 1f9f 76       		.byte	0x76
 8790 1fa0 00       		.sleb128 0
 8791 1fa1 00       		.byte	0
 8792 1fa2 26       		.uleb128 0x26
 8793 1fa3 1C020000 		.4byte	.LVL277
 8794 1fa7 6D150000 		.4byte	0x156d
 8795 1fab B61F0000 		.4byte	0x1fb6
 8796 1faf 27       		.uleb128 0x27
 8797 1fb0 01       		.uleb128 0x1
 8798 1fb1 50       		.byte	0x50
 8799 1fb2 02       		.uleb128 0x2
 8800 1fb3 77       		.byte	0x77
 8801 1fb4 00       		.sleb128 0
 8802 1fb5 00       		.byte	0
 8803 1fb6 26       		.uleb128 0x26
 8804 1fb7 26020000 		.4byte	.LVL279
 8805 1fbb 28150000 		.4byte	0x1528
 8806 1fbf CA1F0000 		.4byte	0x1fca
 8807 1fc3 27       		.uleb128 0x27
 8808 1fc4 01       		.uleb128 0x1
 8809 1fc5 50       		.byte	0x50
 8810 1fc6 02       		.uleb128 0x2
 8811 1fc7 77       		.byte	0x77
 8812 1fc8 00       		.sleb128 0
ARM GAS  C:\Users\d3bug\AppData\Local\Temp\ccFiAZjI.s 			page 204


 8813 1fc9 00       		.byte	0
 8814 1fca 26       		.uleb128 0x26
 8815 1fcb 2E020000 		.4byte	.LVL281
 8816 1fcf 28150000 		.4byte	0x1528
 8817 1fd3 DE1F0000 		.4byte	0x1fde
 8818 1fd7 27       		.uleb128 0x27
 8819 1fd8 01       		.uleb128 0x1
 8820 1fd9 50       		.byte	0x50
 8821 1fda 02       		.uleb128 0x2
 8822 1fdb 76       		.byte	0x76
 8823 1fdc 00       		.sleb128 0
 8824 1fdd 00       		.byte	0
 8825 1fde 26       		.uleb128 0x26
 8826 1fdf 38020000 		.4byte	.LVL283
 8827 1fe3 6D150000 		.4byte	0x156d
 8828 1fe7 F21F0000 		.4byte	0x1ff2
 8829 1feb 27       		.uleb128 0x27
 8830 1fec 01       		.uleb128 0x1
 8831 1fed 50       		.byte	0x50
 8832 1fee 02       		.uleb128 0x2
 8833 1fef 77       		.byte	0x77
 8834 1ff0 00       		.sleb128 0
 8835 1ff1 00       		.byte	0
 8836 1ff2 26       		.uleb128 0x26
 8837 1ff3 42020000 		.4byte	.LVL285
 8838 1ff7 28150000 		.4byte	0x1528
 8839 1ffb 06200000 		.4byte	0x2006
 8840 1fff 27       		.uleb128 0x27
 8841 2000 01       		.uleb128 0x1
 8842 2001 50       		.byte	0x50
 8843 2002 02       		.uleb128 0x2
 8844 2003 76       		.byte	0x76
 8845 2004 00       		.sleb128 0
 8846 2005 00       		.byte	0
 8847 2006 26       		.uleb128 0x26
 8848 2007 50020000 		.4byte	.LVL288
 8849 200b 28150000 		.4byte	0x1528
 8850 200f 1A200000 		.4byte	0x201a
 8851 2013 27       		.uleb128 0x27
 8852 2014 01       		.uleb128 0x1
 8853 2015 50       		.byte	0x50
 8854 2016 02       		.uleb128 0x2
 8855 2017 76       		.byte	0x76
 8856 2018 00       		.sleb128 0
 8857 2019 00       		.byte	0
 8858 201a 26       		.uleb128 0x26
 8859 201b 5A020000 		.4byte	.LVL290
 8860 201f 6D150000 		.4byte	0x156d
 8861 2023 2E200000 		.4byte	0x202e
 8862 2027 27       		.uleb128 0x27
 8863 2028 01       		.uleb128 0x1
 8864 2029 50       		.byte	0x50
 8865 202a 02       		.uleb128 0x2
 8866 202b 77       		.byte	0x77
 8867 202c 00       		.sleb128 0
 8868 202d 00       		.byte	0
 8869 202e 26       		.uleb128 0x26
ARM GAS  C:\Users\d3bug\AppData\Local\Temp\ccFiAZjI.s 			page 205


 8870 202f 62020000 		.4byte	.LVL292
 8871 2033 6D150000 		.4byte	0x156d
 8872 2037 42200000 		.4byte	0x2042
 8873 203b 27       		.uleb128 0x27
 8874 203c 01       		.uleb128 0x1
 8875 203d 50       		.byte	0x50
 8876 203e 02       		.uleb128 0x2
 8877 203f 76       		.byte	0x76
 8878 2040 00       		.sleb128 0
 8879 2041 00       		.byte	0
 8880 2042 26       		.uleb128 0x26
 8881 2043 7A020000 		.4byte	.LVL294
 8882 2047 28150000 		.4byte	0x1528
 8883 204b 56200000 		.4byte	0x2056
 8884 204f 27       		.uleb128 0x27
 8885 2050 01       		.uleb128 0x1
 8886 2051 50       		.byte	0x50
 8887 2052 02       		.uleb128 0x2
 8888 2053 76       		.byte	0x76
 8889 2054 00       		.sleb128 0
 8890 2055 00       		.byte	0
 8891 2056 26       		.uleb128 0x26
 8892 2057 84020000 		.4byte	.LVL296
 8893 205b 6D150000 		.4byte	0x156d
 8894 205f 6A200000 		.4byte	0x206a
 8895 2063 27       		.uleb128 0x27
 8896 2064 01       		.uleb128 0x1
 8897 2065 50       		.byte	0x50
 8898 2066 02       		.uleb128 0x2
 8899 2067 77       		.byte	0x77
 8900 2068 00       		.sleb128 0
 8901 2069 00       		.byte	0
 8902 206a 26       		.uleb128 0x26
 8903 206b 8C020000 		.4byte	.LVL298
 8904 206f 6D150000 		.4byte	0x156d
 8905 2073 7E200000 		.4byte	0x207e
 8906 2077 27       		.uleb128 0x27
 8907 2078 01       		.uleb128 0x1
 8908 2079 50       		.byte	0x50
 8909 207a 02       		.uleb128 0x2
 8910 207b 76       		.byte	0x76
 8911 207c 00       		.sleb128 0
 8912 207d 00       		.byte	0
 8913 207e 26       		.uleb128 0x26
 8914 207f 98020000 		.4byte	.LVL300
 8915 2083 28150000 		.4byte	0x1528
 8916 2087 92200000 		.4byte	0x2092
 8917 208b 27       		.uleb128 0x27
 8918 208c 01       		.uleb128 0x1
 8919 208d 50       		.byte	0x50
 8920 208e 02       		.uleb128 0x2
 8921 208f 77       		.byte	0x77
 8922 2090 00       		.sleb128 0
 8923 2091 00       		.byte	0
 8924 2092 26       		.uleb128 0x26
 8925 2093 A4020000 		.4byte	.LVL303
 8926 2097 28150000 		.4byte	0x1528
ARM GAS  C:\Users\d3bug\AppData\Local\Temp\ccFiAZjI.s 			page 206


 8927 209b A6200000 		.4byte	0x20a6
 8928 209f 27       		.uleb128 0x27
 8929 20a0 01       		.uleb128 0x1
 8930 20a1 50       		.byte	0x50
 8931 20a2 02       		.uleb128 0x2
 8932 20a3 77       		.byte	0x77
 8933 20a4 00       		.sleb128 0
 8934 20a5 00       		.byte	0
 8935 20a6 26       		.uleb128 0x26
 8936 20a7 AC020000 		.4byte	.LVL305
 8937 20ab 6D150000 		.4byte	0x156d
 8938 20af BA200000 		.4byte	0x20ba
 8939 20b3 27       		.uleb128 0x27
 8940 20b4 01       		.uleb128 0x1
 8941 20b5 50       		.byte	0x50
 8942 20b6 02       		.uleb128 0x2
 8943 20b7 77       		.byte	0x77
 8944 20b8 00       		.sleb128 0
 8945 20b9 00       		.byte	0
 8946 20ba 26       		.uleb128 0x26
 8947 20bb B4020000 		.4byte	.LVL307
 8948 20bf 6D150000 		.4byte	0x156d
 8949 20c3 CE200000 		.4byte	0x20ce
 8950 20c7 27       		.uleb128 0x27
 8951 20c8 01       		.uleb128 0x1
 8952 20c9 50       		.byte	0x50
 8953 20ca 02       		.uleb128 0x2
 8954 20cb 76       		.byte	0x76
 8955 20cc 00       		.sleb128 0
 8956 20cd 00       		.byte	0
 8957 20ce 26       		.uleb128 0x26
 8958 20cf CC020000 		.4byte	.LVL309
 8959 20d3 28150000 		.4byte	0x1528
 8960 20d7 E2200000 		.4byte	0x20e2
 8961 20db 27       		.uleb128 0x27
 8962 20dc 01       		.uleb128 0x1
 8963 20dd 50       		.byte	0x50
 8964 20de 02       		.uleb128 0x2
 8965 20df 77       		.byte	0x77
 8966 20e0 00       		.sleb128 0
 8967 20e1 00       		.byte	0
 8968 20e2 26       		.uleb128 0x26
 8969 20e3 D4020000 		.4byte	.LVL311
 8970 20e7 6D150000 		.4byte	0x156d
 8971 20eb F6200000 		.4byte	0x20f6
 8972 20ef 27       		.uleb128 0x27
 8973 20f0 01       		.uleb128 0x1
 8974 20f1 50       		.byte	0x50
 8975 20f2 02       		.uleb128 0x2
 8976 20f3 77       		.byte	0x77
 8977 20f4 00       		.sleb128 0
 8978 20f5 00       		.byte	0
 8979 20f6 26       		.uleb128 0x26
 8980 20f7 DC020000 		.4byte	.LVL313
 8981 20fb 6D150000 		.4byte	0x156d
 8982 20ff 0A210000 		.4byte	0x210a
 8983 2103 27       		.uleb128 0x27
ARM GAS  C:\Users\d3bug\AppData\Local\Temp\ccFiAZjI.s 			page 207


 8984 2104 01       		.uleb128 0x1
 8985 2105 50       		.byte	0x50
 8986 2106 02       		.uleb128 0x2
 8987 2107 76       		.byte	0x76
 8988 2108 00       		.sleb128 0
 8989 2109 00       		.byte	0
 8990 210a 26       		.uleb128 0x26
 8991 210b EC020000 		.4byte	.LVL317
 8992 210f F3100000 		.4byte	0x10f3
 8993 2113 1E210000 		.4byte	0x211e
 8994 2117 27       		.uleb128 0x27
 8995 2118 01       		.uleb128 0x1
 8996 2119 50       		.byte	0x50
 8997 211a 02       		.uleb128 0x2
 8998 211b 76       		.byte	0x76
 8999 211c 00       		.sleb128 0
 9000 211d 00       		.byte	0
 9001 211e 28       		.uleb128 0x28
 9002 211f 1A030000 		.4byte	.LVL327
 9003 2123 2B1A0000 		.4byte	0x1a2b
 9004 2127 27       		.uleb128 0x27
 9005 2128 01       		.uleb128 0x1
 9006 2129 50       		.byte	0x50
 9007 212a 02       		.uleb128 0x2
 9008 212b 76       		.byte	0x76
 9009 212c 00       		.sleb128 0
 9010 212d 00       		.byte	0
 9011 212e 00       		.byte	0
 9012 212f 29       		.uleb128 0x29
 9013 2130 55010000 		.4byte	.LASF291
 9014 2134 01       		.byte	0x1
 9015 2135 1F03     		.2byte	0x31f
 9016 2137 00000000 		.4byte	.LFB26
 9017 213b C4020000 		.4byte	.LFE26-.LFB26
 9018 213f 01       		.uleb128 0x1
 9019 2140 9C       		.byte	0x9c
 9020 2141 B2240000 		.4byte	0x24b2
 9021 2145 23       		.uleb128 0x23
 9022 2146 6F626A00 		.ascii	"obj\000"
 9023 214a 01       		.byte	0x1
 9024 214b 1F03     		.2byte	0x31f
 9025 214d BC0D0000 		.4byte	0xdbc
 9026 2151 CA0C0000 		.4byte	.LLST78
 9027 2155 24       		.uleb128 0x24
 9028 2156 B6100000 		.4byte	.LASF161
 9029 215a 01       		.byte	0x1
 9030 215b 1F03     		.2byte	0x31f
 9031 215d 1E110000 		.4byte	0x111e
 9032 2161 E80C0000 		.4byte	.LLST79
 9033 2165 24       		.uleb128 0x24
 9034 2166 4F0A0000 		.4byte	.LASF164
 9035 216a 01       		.byte	0x1
 9036 216b 1F03     		.2byte	0x31f
 9037 216d B5080000 		.4byte	0x8b5
 9038 2171 060D0000 		.4byte	.LLST80
 9039 2175 24       		.uleb128 0x24
 9040 2176 B3130000 		.4byte	.LASF283
ARM GAS  C:\Users\d3bug\AppData\Local\Temp\ccFiAZjI.s 			page 208


 9041 217a 01       		.byte	0x1
 9042 217b 1F03     		.2byte	0x31f
 9043 217d A2010000 		.4byte	0x1a2
 9044 2181 270D0000 		.4byte	.LLST81
 9045 2185 2D       		.uleb128 0x2d
 9046 2186 E20F0000 		.4byte	.LASF284
 9047 218a 01       		.byte	0x1
 9048 218b 1F03     		.2byte	0x31f
 9049 218d A2010000 		.4byte	0x1a2
 9050 2191 02       		.uleb128 0x2
 9051 2192 91       		.byte	0x91
 9052 2193 00       		.sleb128 0
 9053 2194 2F       		.uleb128 0x2f
 9054 2195 110E0000 		.4byte	.LASF285
 9055 2199 01       		.byte	0x1
 9056 219a 2103     		.2byte	0x321
 9057 219c A2010000 		.4byte	0x1a2
 9058 21a0 480D0000 		.4byte	.LLST82
 9059 21a4 2F       		.uleb128 0x2f
 9060 21a5 170E0000 		.4byte	.LASF286
 9061 21a9 01       		.byte	0x1
 9062 21aa 2203     		.2byte	0x322
 9063 21ac A2010000 		.4byte	0x1a2
 9064 21b0 F50D0000 		.4byte	.LLST83
 9065 21b4 33       		.uleb128 0x33
 9066 21b5 E50B0000 		.4byte	.LASF292
 9067 21b9 01       		.byte	0x1
 9068 21ba 2403     		.2byte	0x324
 9069 21bc A2010000 		.4byte	0x1a2
 9070 21c0 01       		.uleb128 0x1
 9071 21c1 58       		.byte	0x58
 9072 21c2 33       		.uleb128 0x33
 9073 21c3 7C070000 		.4byte	.LASF293
 9074 21c7 01       		.byte	0x1
 9075 21c8 2503     		.2byte	0x325
 9076 21ca A2010000 		.4byte	0x1a2
 9077 21ce 02       		.uleb128 0x2
 9078 21cf 91       		.byte	0x91
 9079 21d0 54       		.sleb128 -44
 9080 21d1 25       		.uleb128 0x25
 9081 21d2 70617200 		.ascii	"par\000"
 9082 21d6 01       		.byte	0x1
 9083 21d7 9503     		.2byte	0x395
 9084 21d9 BC0D0000 		.4byte	0xdbc
 9085 21dd A20E0000 		.4byte	.LLST84
 9086 21e1 2F       		.uleb128 0x2f
 9087 21e2 76110000 		.4byte	.LASF287
 9088 21e6 01       		.byte	0x1
 9089 21e7 9603     		.2byte	0x396
 9090 21e9 A2010000 		.4byte	0x1a2
 9091 21ed B50E0000 		.4byte	.LLST85
 9092 21f1 2F       		.uleb128 0x2f
 9093 21f2 81110000 		.4byte	.LASF288
 9094 21f6 01       		.byte	0x1
 9095 21f7 9703     		.2byte	0x397
 9096 21f9 A2010000 		.4byte	0x1a2
 9097 21fd C80E0000 		.4byte	.LLST86
ARM GAS  C:\Users\d3bug\AppData\Local\Temp\ccFiAZjI.s 			page 209


 9098 2201 2F       		.uleb128 0x2f
 9099 2202 BC0D0000 		.4byte	.LASF289
 9100 2206 01       		.byte	0x1
 9101 2207 9803     		.2byte	0x398
 9102 2209 A2010000 		.4byte	0x1a2
 9103 220d DB0E0000 		.4byte	.LLST87
 9104 2211 2F       		.uleb128 0x2f
 9105 2212 C60D0000 		.4byte	.LASF290
 9106 2216 01       		.byte	0x1
 9107 2217 9903     		.2byte	0x399
 9108 2219 A2010000 		.4byte	0x1a2
 9109 221d EE0E0000 		.4byte	.LLST88
 9110 2221 26       		.uleb128 0x26
 9111 2222 16000000 		.4byte	.LVL329
 9112 2226 76140000 		.4byte	0x1476
 9113 222a 35220000 		.4byte	0x2235
 9114 222e 27       		.uleb128 0x27
 9115 222f 01       		.uleb128 0x1
 9116 2230 50       		.byte	0x50
 9117 2231 02       		.uleb128 0x2
 9118 2232 74       		.byte	0x74
 9119 2233 00       		.sleb128 0
 9120 2234 00       		.byte	0
 9121 2235 26       		.uleb128 0x26
 9122 2236 1E000000 		.4byte	.LVL331
 9123 223a CF140000 		.4byte	0x14cf
 9124 223e 49220000 		.4byte	0x2249
 9125 2242 27       		.uleb128 0x27
 9126 2243 01       		.uleb128 0x1
 9127 2244 50       		.byte	0x50
 9128 2245 02       		.uleb128 0x2
 9129 2246 74       		.byte	0x74
 9130 2247 00       		.sleb128 0
 9131 2248 00       		.byte	0
 9132 2249 26       		.uleb128 0x26
 9133 224a 26000000 		.4byte	.LVL333
 9134 224e 28150000 		.4byte	0x1528
 9135 2252 5D220000 		.4byte	0x225d
 9136 2256 27       		.uleb128 0x27
 9137 2257 01       		.uleb128 0x1
 9138 2258 50       		.byte	0x50
 9139 2259 02       		.uleb128 0x2
 9140 225a 74       		.byte	0x74
 9141 225b 00       		.sleb128 0
 9142 225c 00       		.byte	0
 9143 225d 26       		.uleb128 0x26
 9144 225e 34000000 		.4byte	.LVL335
 9145 2262 6D150000 		.4byte	0x156d
 9146 2266 71220000 		.4byte	0x2271
 9147 226a 27       		.uleb128 0x27
 9148 226b 01       		.uleb128 0x1
 9149 226c 50       		.byte	0x50
 9150 226d 02       		.uleb128 0x2
 9151 226e 74       		.byte	0x74
 9152 226f 00       		.sleb128 0
 9153 2270 00       		.byte	0
 9154 2271 26       		.uleb128 0x26
ARM GAS  C:\Users\d3bug\AppData\Local\Temp\ccFiAZjI.s 			page 210


 9155 2272 46000000 		.4byte	.LVL337
 9156 2276 F3100000 		.4byte	0x10f3
 9157 227a 85220000 		.4byte	0x2285
 9158 227e 27       		.uleb128 0x27
 9159 227f 01       		.uleb128 0x1
 9160 2280 50       		.byte	0x50
 9161 2281 02       		.uleb128 0x2
 9162 2282 74       		.byte	0x74
 9163 2283 00       		.sleb128 0
 9164 2284 00       		.byte	0
 9165 2285 26       		.uleb128 0x26
 9166 2286 84000000 		.4byte	.LVL339
 9167 228a 28150000 		.4byte	0x1528
 9168 228e 99220000 		.4byte	0x2299
 9169 2292 27       		.uleb128 0x27
 9170 2293 01       		.uleb128 0x1
 9171 2294 50       		.byte	0x50
 9172 2295 02       		.uleb128 0x2
 9173 2296 77       		.byte	0x77
 9174 2297 00       		.sleb128 0
 9175 2298 00       		.byte	0
 9176 2299 26       		.uleb128 0x26
 9177 229a 94000000 		.4byte	.LVL342
 9178 229e 6D150000 		.4byte	0x156d
 9179 22a2 AD220000 		.4byte	0x22ad
 9180 22a6 27       		.uleb128 0x27
 9181 22a7 01       		.uleb128 0x1
 9182 22a8 50       		.byte	0x50
 9183 22a9 02       		.uleb128 0x2
 9184 22aa 77       		.byte	0x77
 9185 22ab 00       		.sleb128 0
 9186 22ac 00       		.byte	0
 9187 22ad 26       		.uleb128 0x26
 9188 22ae B6000000 		.4byte	.LVL349
 9189 22b2 28150000 		.4byte	0x1528
 9190 22b6 C1220000 		.4byte	0x22c1
 9191 22ba 27       		.uleb128 0x27
 9192 22bb 01       		.uleb128 0x1
 9193 22bc 50       		.byte	0x50
 9194 22bd 02       		.uleb128 0x2
 9195 22be 77       		.byte	0x77
 9196 22bf 00       		.sleb128 0
 9197 22c0 00       		.byte	0
 9198 22c1 26       		.uleb128 0x26
 9199 22c2 CE000000 		.4byte	.LVL354
 9200 22c6 28150000 		.4byte	0x1528
 9201 22ca D5220000 		.4byte	0x22d5
 9202 22ce 27       		.uleb128 0x27
 9203 22cf 01       		.uleb128 0x1
 9204 22d0 50       		.byte	0x50
 9205 22d1 02       		.uleb128 0x2
 9206 22d2 77       		.byte	0x77
 9207 22d3 00       		.sleb128 0
 9208 22d4 00       		.byte	0
 9209 22d5 26       		.uleb128 0x26
 9210 22d6 E8000000 		.4byte	.LVL360
 9211 22da 6D150000 		.4byte	0x156d
ARM GAS  C:\Users\d3bug\AppData\Local\Temp\ccFiAZjI.s 			page 211


 9212 22de E9220000 		.4byte	0x22e9
 9213 22e2 27       		.uleb128 0x27
 9214 22e3 01       		.uleb128 0x1
 9215 22e4 50       		.byte	0x50
 9216 22e5 02       		.uleb128 0x2
 9217 22e6 77       		.byte	0x77
 9218 22e7 00       		.sleb128 0
 9219 22e8 00       		.byte	0
 9220 22e9 26       		.uleb128 0x26
 9221 22ea F6000000 		.4byte	.LVL362
 9222 22ee 28150000 		.4byte	0x1528
 9223 22f2 FD220000 		.4byte	0x22fd
 9224 22f6 27       		.uleb128 0x27
 9225 22f7 01       		.uleb128 0x1
 9226 22f8 50       		.byte	0x50
 9227 22f9 02       		.uleb128 0x2
 9228 22fa 77       		.byte	0x77
 9229 22fb 00       		.sleb128 0
 9230 22fc 00       		.byte	0
 9231 22fd 26       		.uleb128 0x26
 9232 22fe 06010000 		.4byte	.LVL365
 9233 2302 6D150000 		.4byte	0x156d
 9234 2306 11230000 		.4byte	0x2311
 9235 230a 27       		.uleb128 0x27
 9236 230b 01       		.uleb128 0x1
 9237 230c 50       		.byte	0x50
 9238 230d 02       		.uleb128 0x2
 9239 230e 77       		.byte	0x77
 9240 230f 00       		.sleb128 0
 9241 2310 00       		.byte	0
 9242 2311 26       		.uleb128 0x26
 9243 2312 14010000 		.4byte	.LVL367
 9244 2316 28150000 		.4byte	0x1528
 9245 231a 25230000 		.4byte	0x2325
 9246 231e 27       		.uleb128 0x27
 9247 231f 01       		.uleb128 0x1
 9248 2320 50       		.byte	0x50
 9249 2321 02       		.uleb128 0x2
 9250 2322 77       		.byte	0x77
 9251 2323 00       		.sleb128 0
 9252 2324 00       		.byte	0
 9253 2325 26       		.uleb128 0x26
 9254 2326 20010000 		.4byte	.LVL369
 9255 232a 6D150000 		.4byte	0x156d
 9256 232e 39230000 		.4byte	0x2339
 9257 2332 27       		.uleb128 0x27
 9258 2333 01       		.uleb128 0x1
 9259 2334 50       		.byte	0x50
 9260 2335 02       		.uleb128 0x2
 9261 2336 77       		.byte	0x77
 9262 2337 00       		.sleb128 0
 9263 2338 00       		.byte	0
 9264 2339 26       		.uleb128 0x26
 9265 233a 34010000 		.4byte	.LVL373
 9266 233e 6D150000 		.4byte	0x156d
 9267 2342 4D230000 		.4byte	0x234d
 9268 2346 27       		.uleb128 0x27
ARM GAS  C:\Users\d3bug\AppData\Local\Temp\ccFiAZjI.s 			page 212


 9269 2347 01       		.uleb128 0x1
 9270 2348 50       		.byte	0x50
 9271 2349 02       		.uleb128 0x2
 9272 234a 77       		.byte	0x77
 9273 234b 00       		.sleb128 0
 9274 234c 00       		.byte	0
 9275 234d 26       		.uleb128 0x26
 9276 234e 48010000 		.4byte	.LVL376
 9277 2352 28150000 		.4byte	0x1528
 9278 2356 61230000 		.4byte	0x2361
 9279 235a 27       		.uleb128 0x27
 9280 235b 01       		.uleb128 0x1
 9281 235c 50       		.byte	0x50
 9282 235d 02       		.uleb128 0x2
 9283 235e 77       		.byte	0x77
 9284 235f 00       		.sleb128 0
 9285 2360 00       		.byte	0
 9286 2361 26       		.uleb128 0x26
 9287 2362 54010000 		.4byte	.LVL378
 9288 2366 6D150000 		.4byte	0x156d
 9289 236a 75230000 		.4byte	0x2375
 9290 236e 27       		.uleb128 0x27
 9291 236f 01       		.uleb128 0x1
 9292 2370 50       		.byte	0x50
 9293 2371 02       		.uleb128 0x2
 9294 2372 77       		.byte	0x77
 9295 2373 00       		.sleb128 0
 9296 2374 00       		.byte	0
 9297 2375 26       		.uleb128 0x26
 9298 2376 76010000 		.4byte	.LVL385
 9299 237a 28150000 		.4byte	0x1528
 9300 237e 89230000 		.4byte	0x2389
 9301 2382 27       		.uleb128 0x27
 9302 2383 01       		.uleb128 0x1
 9303 2384 50       		.byte	0x50
 9304 2385 02       		.uleb128 0x2
 9305 2386 77       		.byte	0x77
 9306 2387 00       		.sleb128 0
 9307 2388 00       		.byte	0
 9308 2389 26       		.uleb128 0x26
 9309 238a 8E010000 		.4byte	.LVL390
 9310 238e 28150000 		.4byte	0x1528
 9311 2392 9D230000 		.4byte	0x239d
 9312 2396 27       		.uleb128 0x27
 9313 2397 01       		.uleb128 0x1
 9314 2398 50       		.byte	0x50
 9315 2399 02       		.uleb128 0x2
 9316 239a 77       		.byte	0x77
 9317 239b 00       		.sleb128 0
 9318 239c 00       		.byte	0
 9319 239d 26       		.uleb128 0x26
 9320 239e A8010000 		.4byte	.LVL396
 9321 23a2 6D150000 		.4byte	0x156d
 9322 23a6 B1230000 		.4byte	0x23b1
 9323 23aa 27       		.uleb128 0x27
 9324 23ab 01       		.uleb128 0x1
 9325 23ac 50       		.byte	0x50
ARM GAS  C:\Users\d3bug\AppData\Local\Temp\ccFiAZjI.s 			page 213


 9326 23ad 02       		.uleb128 0x2
 9327 23ae 77       		.byte	0x77
 9328 23af 00       		.sleb128 0
 9329 23b0 00       		.byte	0
 9330 23b1 26       		.uleb128 0x26
 9331 23b2 B6010000 		.4byte	.LVL398
 9332 23b6 28150000 		.4byte	0x1528
 9333 23ba C5230000 		.4byte	0x23c5
 9334 23be 27       		.uleb128 0x27
 9335 23bf 01       		.uleb128 0x1
 9336 23c0 50       		.byte	0x50
 9337 23c1 02       		.uleb128 0x2
 9338 23c2 77       		.byte	0x77
 9339 23c3 00       		.sleb128 0
 9340 23c4 00       		.byte	0
 9341 23c5 26       		.uleb128 0x26
 9342 23c6 C6010000 		.4byte	.LVL401
 9343 23ca 6D150000 		.4byte	0x156d
 9344 23ce D9230000 		.4byte	0x23d9
 9345 23d2 27       		.uleb128 0x27
 9346 23d3 01       		.uleb128 0x1
 9347 23d4 50       		.byte	0x50
 9348 23d5 02       		.uleb128 0x2
 9349 23d6 77       		.byte	0x77
 9350 23d7 00       		.sleb128 0
 9351 23d8 00       		.byte	0
 9352 23d9 26       		.uleb128 0x26
 9353 23da D4010000 		.4byte	.LVL403
 9354 23de 28150000 		.4byte	0x1528
 9355 23e2 ED230000 		.4byte	0x23ed
 9356 23e6 27       		.uleb128 0x27
 9357 23e7 01       		.uleb128 0x1
 9358 23e8 50       		.byte	0x50
 9359 23e9 02       		.uleb128 0x2
 9360 23ea 77       		.byte	0x77
 9361 23eb 00       		.sleb128 0
 9362 23ec 00       		.byte	0
 9363 23ed 26       		.uleb128 0x26
 9364 23ee E0010000 		.4byte	.LVL405
 9365 23f2 6D150000 		.4byte	0x156d
 9366 23f6 01240000 		.4byte	0x2401
 9367 23fa 27       		.uleb128 0x27
 9368 23fb 01       		.uleb128 0x1
 9369 23fc 50       		.byte	0x50
 9370 23fd 02       		.uleb128 0x2
 9371 23fe 77       		.byte	0x77
 9372 23ff 00       		.sleb128 0
 9373 2400 00       		.byte	0
 9374 2401 26       		.uleb128 0x26
 9375 2402 02020000 		.4byte	.LVL413
 9376 2406 6D150000 		.4byte	0x156d
 9377 240a 15240000 		.4byte	0x2415
 9378 240e 27       		.uleb128 0x27
 9379 240f 01       		.uleb128 0x1
 9380 2410 50       		.byte	0x50
 9381 2411 02       		.uleb128 0x2
 9382 2412 77       		.byte	0x77
ARM GAS  C:\Users\d3bug\AppData\Local\Temp\ccFiAZjI.s 			page 214


 9383 2413 00       		.sleb128 0
 9384 2414 00       		.byte	0
 9385 2415 26       		.uleb128 0x26
 9386 2416 1C020000 		.4byte	.LVL418
 9387 241a 6D150000 		.4byte	0x156d
 9388 241e 29240000 		.4byte	0x2429
 9389 2422 27       		.uleb128 0x27
 9390 2423 01       		.uleb128 0x1
 9391 2424 50       		.byte	0x50
 9392 2425 02       		.uleb128 0x2
 9393 2426 77       		.byte	0x77
 9394 2427 00       		.sleb128 0
 9395 2428 00       		.byte	0
 9396 2429 26       		.uleb128 0x26
 9397 242a 2A020000 		.4byte	.LVL420
 9398 242e 28150000 		.4byte	0x1528
 9399 2432 3D240000 		.4byte	0x243d
 9400 2436 27       		.uleb128 0x27
 9401 2437 01       		.uleb128 0x1
 9402 2438 50       		.byte	0x50
 9403 2439 02       		.uleb128 0x2
 9404 243a 77       		.byte	0x77
 9405 243b 00       		.sleb128 0
 9406 243c 00       		.byte	0
 9407 243d 26       		.uleb128 0x26
 9408 243e 3E020000 		.4byte	.LVL424
 9409 2442 28150000 		.4byte	0x1528
 9410 2446 51240000 		.4byte	0x2451
 9411 244a 27       		.uleb128 0x27
 9412 244b 01       		.uleb128 0x1
 9413 244c 50       		.byte	0x50
 9414 244d 02       		.uleb128 0x2
 9415 244e 77       		.byte	0x77
 9416 244f 00       		.sleb128 0
 9417 2450 00       		.byte	0
 9418 2451 26       		.uleb128 0x26
 9419 2452 4A020000 		.4byte	.LVL426
 9420 2456 6D150000 		.4byte	0x156d
 9421 245a 65240000 		.4byte	0x2465
 9422 245e 27       		.uleb128 0x27
 9423 245f 01       		.uleb128 0x1
 9424 2460 50       		.byte	0x50
 9425 2461 02       		.uleb128 0x2
 9426 2462 77       		.byte	0x77
 9427 2463 00       		.sleb128 0
 9428 2464 00       		.byte	0
 9429 2465 26       		.uleb128 0x26
 9430 2466 5E020000 		.4byte	.LVL429
 9431 246a 28150000 		.4byte	0x1528
 9432 246e 79240000 		.4byte	0x2479
 9433 2472 27       		.uleb128 0x27
 9434 2473 01       		.uleb128 0x1
 9435 2474 50       		.byte	0x50
 9436 2475 02       		.uleb128 0x2
 9437 2476 77       		.byte	0x77
 9438 2477 00       		.sleb128 0
 9439 2478 00       		.byte	0
ARM GAS  C:\Users\d3bug\AppData\Local\Temp\ccFiAZjI.s 			page 215


 9440 2479 26       		.uleb128 0x26
 9441 247a 6A020000 		.4byte	.LVL431
 9442 247e 6D150000 		.4byte	0x156d
 9443 2482 8D240000 		.4byte	0x248d
 9444 2486 27       		.uleb128 0x27
 9445 2487 01       		.uleb128 0x1
 9446 2488 50       		.byte	0x50
 9447 2489 02       		.uleb128 0x2
 9448 248a 77       		.byte	0x77
 9449 248b 00       		.sleb128 0
 9450 248c 00       		.byte	0
 9451 248d 26       		.uleb128 0x26
 9452 248e 76020000 		.4byte	.LVL433
 9453 2492 F3100000 		.4byte	0x10f3
 9454 2496 A1240000 		.4byte	0x24a1
 9455 249a 27       		.uleb128 0x27
 9456 249b 01       		.uleb128 0x1
 9457 249c 50       		.byte	0x50
 9458 249d 02       		.uleb128 0x2
 9459 249e 74       		.byte	0x74
 9460 249f 00       		.sleb128 0
 9461 24a0 00       		.byte	0
 9462 24a1 28       		.uleb128 0x28
 9463 24a2 A4020000 		.4byte	.LVL443
 9464 24a6 2B1A0000 		.4byte	0x1a2b
 9465 24aa 27       		.uleb128 0x27
 9466 24ab 01       		.uleb128 0x1
 9467 24ac 50       		.byte	0x50
 9468 24ad 02       		.uleb128 0x2
 9469 24ae 74       		.byte	0x74
 9470 24af 00       		.sleb128 0
 9471 24b0 00       		.byte	0
 9472 24b1 00       		.byte	0
 9473 24b2 29       		.uleb128 0x29
 9474 24b3 14040000 		.4byte	.LASF294
 9475 24b7 01       		.byte	0x1
 9476 24b8 AF03     		.2byte	0x3af
 9477 24ba 00000000 		.4byte	.LFB27
 9478 24be 3E000000 		.4byte	.LFE27-.LFB27
 9479 24c2 01       		.uleb128 0x1
 9480 24c3 9C       		.byte	0x9c
 9481 24c4 FF240000 		.4byte	0x24ff
 9482 24c8 23       		.uleb128 0x23
 9483 24c9 6F626A00 		.ascii	"obj\000"
 9484 24cd 01       		.byte	0x1
 9485 24ce AF03     		.2byte	0x3af
 9486 24d0 BC0D0000 		.4byte	0xdbc
 9487 24d4 010F0000 		.4byte	.LLST89
 9488 24d8 26       		.uleb128 0x26
 9489 24d9 22000000 		.4byte	.LVL445
 9490 24dd 2F210000 		.4byte	0x212f
 9491 24e1 ED240000 		.4byte	0x24ed
 9492 24e5 27       		.uleb128 0x27
 9493 24e6 01       		.uleb128 0x1
 9494 24e7 50       		.byte	0x50
 9495 24e8 03       		.uleb128 0x3
 9496 24e9 F3       		.byte	0xf3
ARM GAS  C:\Users\d3bug\AppData\Local\Temp\ccFiAZjI.s 			page 216


 9497 24ea 01       		.uleb128 0x1
 9498 24eb 50       		.byte	0x50
 9499 24ec 00       		.byte	0
 9500 24ed 28       		.uleb128 0x28
 9501 24ee 38000000 		.4byte	.LVL447
 9502 24f2 E91B0000 		.4byte	0x1be9
 9503 24f6 27       		.uleb128 0x27
 9504 24f7 01       		.uleb128 0x1
 9505 24f8 50       		.byte	0x50
 9506 24f9 03       		.uleb128 0x3
 9507 24fa F3       		.byte	0xf3
 9508 24fb 01       		.uleb128 0x1
 9509 24fc 50       		.byte	0x50
 9510 24fd 00       		.byte	0
 9511 24fe 00       		.byte	0
 9512 24ff 3A       		.uleb128 0x3a
 9513 2500 08060000 		.4byte	.LASF295
 9514 2504 01       		.byte	0x1
 9515 2505 81       		.byte	0x81
 9516 2506 BC0D0000 		.4byte	0xdbc
 9517 250a 00000000 		.4byte	.LFB13
 9518 250e B0020000 		.4byte	.LFE13-.LFB13
 9519 2512 01       		.uleb128 0x1
 9520 2513 9C       		.byte	0x9c
 9521 2514 DD270000 		.4byte	0x27dd
 9522 2518 3B       		.uleb128 0x3b
 9523 2519 480A0000 		.4byte	.LASF261
 9524 251d 01       		.byte	0x1
 9525 251e 81       		.byte	0x81
 9526 251f BC0D0000 		.4byte	0xdbc
 9527 2523 3B0F0000 		.4byte	.LLST90
 9528 2527 3B       		.uleb128 0x3b
 9529 2528 08030000 		.4byte	.LASF296
 9530 252c 01       		.byte	0x1
 9531 252d 81       		.byte	0x81
 9532 252e 1E110000 		.4byte	0x111e
 9533 2532 7D0F0000 		.4byte	.LLST91
 9534 2536 3C       		.uleb128 0x3c
 9535 2537 9A0E0000 		.4byte	.LASF297
 9536 253b 01       		.byte	0x1
 9537 253c 84       		.byte	0x84
 9538 253d BC0D0000 		.4byte	0xdbc
 9539 2541 BF0F0000 		.4byte	.LLST92
 9540 2545 3D       		.uleb128 0x3d
 9541 2546 00000000 		.4byte	.Ldebug_ranges0+0
 9542 254a 41260000 		.4byte	0x2641
 9543 254e 3E       		.uleb128 0x3e
 9544 254f 746800   		.ascii	"th\000"
 9545 2552 01       		.byte	0x1
 9546 2553 A1       		.byte	0xa1
 9547 2554 DD270000 		.4byte	0x27dd
 9548 2558 6E100000 		.4byte	.LLST93
 9549 255c 26       		.uleb128 0x26
 9550 255d 14000000 		.4byte	.LVL451
 9551 2561 7E360000 		.4byte	0x367e
 9552 2565 88250000 		.4byte	0x2588
 9553 2569 27       		.uleb128 0x27
ARM GAS  C:\Users\d3bug\AppData\Local\Temp\ccFiAZjI.s 			page 217


 9554 256a 01       		.uleb128 0x1
 9555 256b 50       		.byte	0x50
 9556 256c 02       		.uleb128 0x2
 9557 256d 76       		.byte	0x76
 9558 256e 00       		.sleb128 0
 9559 256f 27       		.uleb128 0x27
 9560 2570 01       		.uleb128 0x1
 9561 2571 51       		.byte	0x51
 9562 2572 05       		.uleb128 0x5
 9563 2573 03       		.byte	0x3
 9564 2574 18000000 		.4byte	.LC1
 9565 2578 27       		.uleb128 0x27
 9566 2579 01       		.uleb128 0x1
 9567 257a 52       		.byte	0x52
 9568 257b 02       		.uleb128 0x2
 9569 257c 08       		.byte	0x8
 9570 257d 87       		.byte	0x87
 9571 257e 27       		.uleb128 0x27
 9572 257f 01       		.uleb128 0x1
 9573 2580 53       		.byte	0x53
 9574 2581 05       		.uleb128 0x5
 9575 2582 03       		.byte	0x3
 9576 2583 00000000 		.4byte	.LC0
 9577 2587 00       		.byte	0
 9578 2588 2C       		.uleb128 0x2c
 9579 2589 1A000000 		.4byte	.LVL452
 9580 258d 89360000 		.4byte	0x3689
 9581 2591 26       		.uleb128 0x26
 9582 2592 2A000000 		.4byte	.LVL454
 9583 2596 7E360000 		.4byte	0x367e
 9584 259a BC250000 		.4byte	0x25bc
 9585 259e 27       		.uleb128 0x27
 9586 259f 01       		.uleb128 0x1
 9587 25a0 50       		.byte	0x50
 9588 25a1 01       		.uleb128 0x1
 9589 25a2 33       		.byte	0x33
 9590 25a3 27       		.uleb128 0x27
 9591 25a4 01       		.uleb128 0x1
 9592 25a5 51       		.byte	0x51
 9593 25a6 05       		.uleb128 0x5
 9594 25a7 03       		.byte	0x3
 9595 25a8 18000000 		.4byte	.LC1
 9596 25ac 27       		.uleb128 0x27
 9597 25ad 01       		.uleb128 0x1
 9598 25ae 52       		.byte	0x52
 9599 25af 02       		.uleb128 0x2
 9600 25b0 08       		.byte	0x8
 9601 25b1 8A       		.byte	0x8a
 9602 25b2 27       		.uleb128 0x27
 9603 25b3 01       		.uleb128 0x1
 9604 25b4 53       		.byte	0x53
 9605 25b5 05       		.uleb128 0x5
 9606 25b6 03       		.byte	0x3
 9607 25b7 34000000 		.4byte	.LC2
 9608 25bb 00       		.byte	0
 9609 25bc 26       		.uleb128 0x26
 9610 25bd 3E000000 		.4byte	.LVL457
ARM GAS  C:\Users\d3bug\AppData\Local\Temp\ccFiAZjI.s 			page 218


 9611 25c1 94360000 		.4byte	0x3694
 9612 25c5 D6250000 		.4byte	0x25d6
 9613 25c9 27       		.uleb128 0x27
 9614 25ca 01       		.uleb128 0x1
 9615 25cb 50       		.byte	0x50
 9616 25cc 02       		.uleb128 0x2
 9617 25cd 74       		.byte	0x74
 9618 25ce 04       		.sleb128 4
 9619 25cf 27       		.uleb128 0x27
 9620 25d0 01       		.uleb128 0x1
 9621 25d1 51       		.byte	0x51
 9622 25d2 02       		.uleb128 0x2
 9623 25d3 08       		.byte	0x8
 9624 25d4 44       		.byte	0x44
 9625 25d5 00       		.byte	0
 9626 25d6 2C       		.uleb128 0x2c
 9627 25d7 66000000 		.4byte	.LVL458
 9628 25db 9F360000 		.4byte	0x369f
 9629 25df 26       		.uleb128 0x26
 9630 25e0 7A000000 		.4byte	.LVL460
 9631 25e4 A30F0000 		.4byte	0xfa3
 9632 25e8 FC250000 		.4byte	0x25fc
 9633 25ec 27       		.uleb128 0x27
 9634 25ed 01       		.uleb128 0x1
 9635 25ee 50       		.byte	0x50
 9636 25ef 02       		.uleb128 0x2
 9637 25f0 74       		.byte	0x74
 9638 25f1 00       		.sleb128 0
 9639 25f2 27       		.uleb128 0x27
 9640 25f3 01       		.uleb128 0x1
 9641 25f4 51       		.byte	0x51
 9642 25f5 05       		.uleb128 0x5
 9643 25f6 03       		.byte	0x3
 9644 25f7 00000000 		.4byte	lv_obj_signal
 9645 25fb 00       		.byte	0
 9646 25fc 26       		.uleb128 0x26
 9647 25fd 82000000 		.4byte	.LVL461
 9648 2601 D50F0000 		.4byte	0xfd5
 9649 2605 19260000 		.4byte	0x2619
 9650 2609 27       		.uleb128 0x27
 9651 260a 01       		.uleb128 0x1
 9652 260b 50       		.byte	0x50
 9653 260c 02       		.uleb128 0x2
 9654 260d 74       		.byte	0x74
 9655 260e 00       		.sleb128 0
 9656 260f 27       		.uleb128 0x27
 9657 2610 01       		.uleb128 0x1
 9658 2611 51       		.byte	0x51
 9659 2612 05       		.uleb128 0x5
 9660 2613 03       		.byte	0x3
 9661 2614 00000000 		.4byte	lv_obj_design
 9662 2618 00       		.byte	0
 9663 2619 28       		.uleb128 0x28
 9664 261a B0000000 		.4byte	.LVL462
 9665 261e 7E360000 		.4byte	0x367e
 9666 2622 27       		.uleb128 0x27
 9667 2623 01       		.uleb128 0x1
ARM GAS  C:\Users\d3bug\AppData\Local\Temp\ccFiAZjI.s 			page 219


 9668 2624 50       		.byte	0x50
 9669 2625 01       		.uleb128 0x1
 9670 2626 31       		.byte	0x31
 9671 2627 27       		.uleb128 0x27
 9672 2628 01       		.uleb128 0x1
 9673 2629 51       		.byte	0x51
 9674 262a 05       		.uleb128 0x5
 9675 262b 03       		.byte	0x3
 9676 262c 18000000 		.4byte	.LC1
 9677 2630 27       		.uleb128 0x27
 9678 2631 01       		.uleb128 0x1
 9679 2632 52       		.byte	0x52
 9680 2633 02       		.uleb128 0x2
 9681 2634 08       		.byte	0x8
 9682 2635 C4       		.byte	0xc4
 9683 2636 27       		.uleb128 0x27
 9684 2637 01       		.uleb128 0x1
 9685 2638 53       		.byte	0x53
 9686 2639 05       		.uleb128 0x5
 9687 263a 03       		.byte	0x3
 9688 263b 44000000 		.4byte	.LC3
 9689 263f 00       		.byte	0
 9690 2640 00       		.byte	0
 9691 2641 3D       		.uleb128 0x3d
 9692 2642 18000000 		.4byte	.Ldebug_ranges0+0x18
 9693 2646 1C270000 		.4byte	0x271c
 9694 264a 3E       		.uleb128 0x3e
 9695 264b 746800   		.ascii	"th\000"
 9696 264e 01       		.byte	0x1
 9697 264f E4       		.byte	0xe4
 9698 2650 DD270000 		.4byte	0x27dd
 9699 2654 81100000 		.4byte	.LLST94
 9700 2658 26       		.uleb128 0x26
 9701 2659 BE000000 		.4byte	.LVL466
 9702 265d 7E360000 		.4byte	0x367e
 9703 2661 83260000 		.4byte	0x2683
 9704 2665 27       		.uleb128 0x27
 9705 2666 01       		.uleb128 0x1
 9706 2667 50       		.byte	0x50
 9707 2668 01       		.uleb128 0x1
 9708 2669 30       		.byte	0x30
 9709 266a 27       		.uleb128 0x27
 9710 266b 01       		.uleb128 0x1
 9711 266c 51       		.byte	0x51
 9712 266d 05       		.uleb128 0x5
 9713 266e 03       		.byte	0x3
 9714 266f 18000000 		.4byte	.LC1
 9715 2673 27       		.uleb128 0x27
 9716 2674 01       		.uleb128 0x1
 9717 2675 52       		.byte	0x52
 9718 2676 02       		.uleb128 0x2
 9719 2677 08       		.byte	0x8
 9720 2678 C8       		.byte	0xc8
 9721 2679 27       		.uleb128 0x27
 9722 267a 01       		.uleb128 0x1
 9723 267b 53       		.byte	0x53
 9724 267c 05       		.uleb128 0x5
ARM GAS  C:\Users\d3bug\AppData\Local\Temp\ccFiAZjI.s 			page 220


 9725 267d 03       		.byte	0x3
 9726 267e 58000000 		.4byte	.LC4
 9727 2682 00       		.byte	0
 9728 2683 26       		.uleb128 0x26
 9729 2684 C4000000 		.4byte	.LVL467
 9730 2688 89360000 		.4byte	0x3689
 9731 268c 97260000 		.4byte	0x2697
 9732 2690 27       		.uleb128 0x27
 9733 2691 01       		.uleb128 0x1
 9734 2692 50       		.byte	0x50
 9735 2693 02       		.uleb128 0x2
 9736 2694 76       		.byte	0x76
 9737 2695 04       		.sleb128 4
 9738 2696 00       		.byte	0
 9739 2697 26       		.uleb128 0x26
 9740 2698 D4000000 		.4byte	.LVL469
 9741 269c 7E360000 		.4byte	0x367e
 9742 26a0 C2260000 		.4byte	0x26c2
 9743 26a4 27       		.uleb128 0x27
 9744 26a5 01       		.uleb128 0x1
 9745 26a6 50       		.byte	0x50
 9746 26a7 01       		.uleb128 0x1
 9747 26a8 33       		.byte	0x33
 9748 26a9 27       		.uleb128 0x27
 9749 26aa 01       		.uleb128 0x1
 9750 26ab 51       		.byte	0x51
 9751 26ac 05       		.uleb128 0x5
 9752 26ad 03       		.byte	0x3
 9753 26ae 18000000 		.4byte	.LC1
 9754 26b2 27       		.uleb128 0x27
 9755 26b3 01       		.uleb128 0x1
 9756 26b4 52       		.byte	0x52
 9757 26b5 02       		.uleb128 0x2
 9758 26b6 08       		.byte	0x8
 9759 26b7 CB       		.byte	0xcb
 9760 26b8 27       		.uleb128 0x27
 9761 26b9 01       		.uleb128 0x1
 9762 26ba 53       		.byte	0x53
 9763 26bb 05       		.uleb128 0x5
 9764 26bc 03       		.byte	0x3
 9765 26bd 34000000 		.4byte	.LC2
 9766 26c1 00       		.byte	0
 9767 26c2 26       		.uleb128 0x26
 9768 26c3 E6000000 		.4byte	.LVL472
 9769 26c7 94360000 		.4byte	0x3694
 9770 26cb DC260000 		.4byte	0x26dc
 9771 26cf 27       		.uleb128 0x27
 9772 26d0 01       		.uleb128 0x1
 9773 26d1 50       		.byte	0x50
 9774 26d2 02       		.uleb128 0x2
 9775 26d3 74       		.byte	0x74
 9776 26d4 04       		.sleb128 4
 9777 26d5 27       		.uleb128 0x27
 9778 26d6 01       		.uleb128 0x1
 9779 26d7 51       		.byte	0x51
 9780 26d8 02       		.uleb128 0x2
 9781 26d9 08       		.byte	0x8
ARM GAS  C:\Users\d3bug\AppData\Local\Temp\ccFiAZjI.s 			page 221


 9782 26da 44       		.byte	0x44
 9783 26db 00       		.byte	0
 9784 26dc 2C       		.uleb128 0x2c
 9785 26dd 20010000 		.4byte	.LVL473
 9786 26e1 9F360000 		.4byte	0x369f
 9787 26e5 26       		.uleb128 0x26
 9788 26e6 34010000 		.4byte	.LVL475
 9789 26ea A30F0000 		.4byte	0xfa3
 9790 26ee 02270000 		.4byte	0x2702
 9791 26f2 27       		.uleb128 0x27
 9792 26f3 01       		.uleb128 0x1
 9793 26f4 50       		.byte	0x50
 9794 26f5 02       		.uleb128 0x2
 9795 26f6 74       		.byte	0x74
 9796 26f7 00       		.sleb128 0
 9797 26f8 27       		.uleb128 0x27
 9798 26f9 01       		.uleb128 0x1
 9799 26fa 51       		.byte	0x51
 9800 26fb 05       		.uleb128 0x5
 9801 26fc 03       		.byte	0x3
 9802 26fd 00000000 		.4byte	lv_obj_signal
 9803 2701 00       		.byte	0
 9804 2702 28       		.uleb128 0x28
 9805 2703 3C010000 		.4byte	.LVL476
 9806 2707 D50F0000 		.4byte	0xfd5
 9807 270b 27       		.uleb128 0x27
 9808 270c 01       		.uleb128 0x1
 9809 270d 50       		.byte	0x50
 9810 270e 02       		.uleb128 0x2
 9811 270f 74       		.byte	0x74
 9812 2710 00       		.sleb128 0
 9813 2711 27       		.uleb128 0x27
 9814 2712 01       		.uleb128 0x1
 9815 2713 51       		.byte	0x51
 9816 2714 05       		.uleb128 0x5
 9817 2715 03       		.byte	0x3
 9818 2716 00000000 		.4byte	lv_obj_design
 9819 271a 00       		.byte	0
 9820 271b 00       		.byte	0
 9821 271c 36       		.uleb128 0x36
 9822 271d BC0C0000 		.4byte	0xcbc
 9823 2721 68010000 		.4byte	.LBB27
 9824 2725 0A000000 		.4byte	.LBE27-.LBB27
 9825 2729 01       		.byte	0x1
 9826 272a 0901     		.2byte	0x109
 9827 272c 43270000 		.4byte	0x2743
 9828 2730 32       		.uleb128 0x32
 9829 2731 D30C0000 		.4byte	0xcd3
 9830 2735 94100000 		.4byte	.LLST95
 9831 2739 32       		.uleb128 0x32
 9832 273a C80C0000 		.4byte	0xcc8
 9833 273e B2100000 		.4byte	.LLST96
 9834 2742 00       		.byte	0
 9835 2743 26       		.uleb128 0x26
 9836 2744 40020000 		.4byte	.LVL480
 9837 2748 76140000 		.4byte	0x1476
 9838 274c 57270000 		.4byte	0x2757
ARM GAS  C:\Users\d3bug\AppData\Local\Temp\ccFiAZjI.s 			page 222


 9839 2750 27       		.uleb128 0x27
 9840 2751 01       		.uleb128 0x1
 9841 2752 50       		.byte	0x50
 9842 2753 02       		.uleb128 0x2
 9843 2754 75       		.byte	0x75
 9844 2755 00       		.sleb128 0
 9845 2756 00       		.byte	0
 9846 2757 26       		.uleb128 0x26
 9847 2758 48020000 		.4byte	.LVL481
 9848 275c CF140000 		.4byte	0x14cf
 9849 2760 6B270000 		.4byte	0x276b
 9850 2764 27       		.uleb128 0x27
 9851 2765 01       		.uleb128 0x1
 9852 2766 50       		.byte	0x50
 9853 2767 02       		.uleb128 0x2
 9854 2768 75       		.byte	0x75
 9855 2769 00       		.sleb128 0
 9856 276a 00       		.byte	0
 9857 276b 26       		.uleb128 0x26
 9858 276c 52020000 		.4byte	.LVL482
 9859 2770 2B1A0000 		.4byte	0x1a2b
 9860 2774 85270000 		.4byte	0x2785
 9861 2778 27       		.uleb128 0x27
 9862 2779 01       		.uleb128 0x1
 9863 277a 50       		.byte	0x50
 9864 277b 02       		.uleb128 0x2
 9865 277c 74       		.byte	0x74
 9866 277d 00       		.sleb128 0
 9867 277e 27       		.uleb128 0x27
 9868 277f 01       		.uleb128 0x1
 9869 2780 51       		.byte	0x51
 9870 2781 02       		.uleb128 0x2
 9871 2782 77       		.byte	0x77
 9872 2783 00       		.sleb128 0
 9873 2784 00       		.byte	0
 9874 2785 26       		.uleb128 0x26
 9875 2786 60020000 		.4byte	.LVL483
 9876 278a 7E360000 		.4byte	0x367e
 9877 278e B1270000 		.4byte	0x27b1
 9878 2792 27       		.uleb128 0x27
 9879 2793 01       		.uleb128 0x1
 9880 2794 50       		.byte	0x50
 9881 2795 01       		.uleb128 0x1
 9882 2796 31       		.byte	0x31
 9883 2797 27       		.uleb128 0x27
 9884 2798 01       		.uleb128 0x1
 9885 2799 51       		.byte	0x51
 9886 279a 05       		.uleb128 0x5
 9887 279b 03       		.byte	0x3
 9888 279c 18000000 		.4byte	.LC1
 9889 27a0 27       		.uleb128 0x27
 9890 27a1 01       		.uleb128 0x1
 9891 27a2 52       		.byte	0x52
 9892 27a3 03       		.uleb128 0x3
 9893 27a4 0A       		.byte	0xa
 9894 27a5 3401     		.2byte	0x134
 9895 27a7 27       		.uleb128 0x27
ARM GAS  C:\Users\d3bug\AppData\Local\Temp\ccFiAZjI.s 			page 223


 9896 27a8 01       		.uleb128 0x1
 9897 27a9 53       		.byte	0x53
 9898 27aa 05       		.uleb128 0x5
 9899 27ab 03       		.byte	0x3
 9900 27ac 70000000 		.4byte	.LC5
 9901 27b0 00       		.byte	0
 9902 27b1 30       		.uleb128 0x30
 9903 27b2 6C020000 		.4byte	.LVL484
 9904 27b6 CC270000 		.4byte	0x27cc
 9905 27ba 27       		.uleb128 0x27
 9906 27bb 01       		.uleb128 0x1
 9907 27bc 50       		.byte	0x50
 9908 27bd 02       		.uleb128 0x2
 9909 27be 76       		.byte	0x76
 9910 27bf 00       		.sleb128 0
 9911 27c0 27       		.uleb128 0x27
 9912 27c1 01       		.uleb128 0x1
 9913 27c2 51       		.byte	0x51
 9914 27c3 01       		.uleb128 0x1
 9915 27c4 31       		.byte	0x31
 9916 27c5 27       		.uleb128 0x27
 9917 27c6 01       		.uleb128 0x1
 9918 27c7 52       		.byte	0x52
 9919 27c8 02       		.uleb128 0x2
 9920 27c9 74       		.byte	0x74
 9921 27ca 00       		.sleb128 0
 9922 27cb 00       		.byte	0
 9923 27cc 28       		.uleb128 0x28
 9924 27cd 72020000 		.4byte	.LVL485
 9925 27d1 86160000 		.4byte	0x1686
 9926 27d5 27       		.uleb128 0x27
 9927 27d6 01       		.uleb128 0x1
 9928 27d7 50       		.byte	0x50
 9929 27d8 02       		.uleb128 0x2
 9930 27d9 74       		.byte	0x74
 9931 27da 00       		.sleb128 0
 9932 27db 00       		.byte	0
 9933 27dc 00       		.byte	0
 9934 27dd 0B       		.uleb128 0xb
 9935 27de 04       		.byte	0x4
 9936 27df B00C0000 		.4byte	0xcb0
 9937 27e3 29       		.uleb128 0x29
 9938 27e4 26020000 		.4byte	.LASF298
 9939 27e8 01       		.byte	0x1
 9940 27e9 DB01     		.2byte	0x1db
 9941 27eb 00000000 		.4byte	.LFB18
 9942 27ef 88000000 		.4byte	.LFE18-.LFB18
 9943 27f3 01       		.uleb128 0x1
 9944 27f4 9C       		.byte	0x9c
 9945 27f5 44290000 		.4byte	0x2944
 9946 27f9 23       		.uleb128 0x23
 9947 27fa 6F626A00 		.ascii	"obj\000"
 9948 27fe 01       		.byte	0x1
 9949 27ff DB01     		.2byte	0x1db
 9950 2801 BC0D0000 		.4byte	0xdbc
 9951 2805 C7100000 		.4byte	.LLST97
 9952 2809 24       		.uleb128 0x24
ARM GAS  C:\Users\d3bug\AppData\Local\Temp\ccFiAZjI.s 			page 224


 9953 280a 480A0000 		.4byte	.LASF261
 9954 280e 01       		.byte	0x1
 9955 280f DB01     		.2byte	0x1db
 9956 2811 BC0D0000 		.4byte	0xdbc
 9957 2815 22110000 		.4byte	.LLST98
 9958 2819 39       		.uleb128 0x39
 9959 281a 590E0000 		.4byte	.LASF300
 9960 281e 01       		.byte	0x1
 9961 281f EA01     		.2byte	0x1ea
 9962 2821 CA010000 		.4byte	0x1ca
 9963 2825 2F       		.uleb128 0x2f
 9964 2826 4A070000 		.4byte	.LASF301
 9965 282a 01       		.byte	0x1
 9966 282b EE01     		.2byte	0x1ee
 9967 282d BC0D0000 		.4byte	0xdbc
 9968 2831 7D110000 		.4byte	.LLST99
 9969 2835 26       		.uleb128 0x26
 9970 2836 16000000 		.4byte	.LVL495
 9971 283a 7E360000 		.4byte	0x367e
 9972 283e 61280000 		.4byte	0x2861
 9973 2842 27       		.uleb128 0x27
 9974 2843 01       		.uleb128 0x1
 9975 2844 50       		.byte	0x50
 9976 2845 01       		.uleb128 0x1
 9977 2846 32       		.byte	0x32
 9978 2847 27       		.uleb128 0x27
 9979 2848 01       		.uleb128 0x1
 9980 2849 51       		.byte	0x51
 9981 284a 05       		.uleb128 0x5
 9982 284b 03       		.byte	0x3
 9983 284c 18000000 		.4byte	.LC1
 9984 2850 27       		.uleb128 0x27
 9985 2851 01       		.uleb128 0x1
 9986 2852 52       		.byte	0x52
 9987 2853 03       		.uleb128 0x3
 9988 2854 0A       		.byte	0xa
 9989 2855 DE01     		.2byte	0x1de
 9990 2857 27       		.uleb128 0x27
 9991 2858 01       		.uleb128 0x1
 9992 2859 53       		.byte	0x53
 9993 285a 05       		.uleb128 0x5
 9994 285b 03       		.byte	0x3
 9995 285c 84000000 		.4byte	.LC6
 9996 2860 00       		.byte	0
 9997 2861 26       		.uleb128 0x26
 9998 2862 2E000000 		.4byte	.LVL499
 9999 2866 7E360000 		.4byte	0x367e
 10000 286a 8D280000 		.4byte	0x288d
 10001 286e 27       		.uleb128 0x27
 10002 286f 01       		.uleb128 0x1
 10003 2870 50       		.byte	0x50
 10004 2871 01       		.uleb128 0x1
 10005 2872 32       		.byte	0x32
 10006 2873 27       		.uleb128 0x27
 10007 2874 01       		.uleb128 0x1
 10008 2875 51       		.byte	0x51
 10009 2876 05       		.uleb128 0x5
ARM GAS  C:\Users\d3bug\AppData\Local\Temp\ccFiAZjI.s 			page 225


 10010 2877 03       		.byte	0x3
 10011 2878 18000000 		.4byte	.LC1
 10012 287c 27       		.uleb128 0x27
 10013 287d 01       		.uleb128 0x1
 10014 287e 52       		.byte	0x52
 10015 287f 03       		.uleb128 0x3
 10016 2880 0A       		.byte	0xa
 10017 2881 E301     		.2byte	0x1e3
 10018 2883 27       		.uleb128 0x27
 10019 2884 01       		.uleb128 0x1
 10020 2885 53       		.byte	0x53
 10021 2886 05       		.uleb128 0x5
 10022 2887 03       		.byte	0x3
 10023 2888 A8000000 		.4byte	.LC7
 10024 288c 00       		.byte	0
 10025 288d 2C       		.uleb128 0x2c
 10026 288e 36000000 		.4byte	.LVL501
 10027 2892 86160000 		.4byte	0x1686
 10028 2896 26       		.uleb128 0x26
 10029 2897 3C000000 		.4byte	.LVL502
 10030 289b 76140000 		.4byte	0x1476
 10031 289f AA280000 		.4byte	0x28aa
 10032 28a3 27       		.uleb128 0x27
 10033 28a4 01       		.uleb128 0x1
 10034 28a5 50       		.byte	0x50
 10035 28a6 02       		.uleb128 0x2
 10036 28a7 74       		.byte	0x74
 10037 28a8 00       		.sleb128 0
 10038 28a9 00       		.byte	0
 10039 28aa 26       		.uleb128 0x26
 10040 28ab 44000000 		.4byte	.LVL503
 10041 28af CF140000 		.4byte	0x14cf
 10042 28b3 BE280000 		.4byte	0x28be
 10043 28b7 27       		.uleb128 0x27
 10044 28b8 01       		.uleb128 0x1
 10045 28b9 50       		.byte	0x50
 10046 28ba 02       		.uleb128 0x2
 10047 28bb 74       		.byte	0x74
 10048 28bc 00       		.sleb128 0
 10049 28bd 00       		.byte	0
 10050 28be 26       		.uleb128 0x26
 10051 28bf 52000000 		.4byte	.LVL505
 10052 28c3 AB360000 		.4byte	0x36ab
 10053 28c7 DE280000 		.4byte	0x28de
 10054 28cb 27       		.uleb128 0x27
 10055 28cc 01       		.uleb128 0x1
 10056 28cd 50       		.byte	0x50
 10057 28ce 02       		.uleb128 0x2
 10058 28cf 76       		.byte	0x76
 10059 28d0 04       		.sleb128 4
 10060 28d1 27       		.uleb128 0x27
 10061 28d2 01       		.uleb128 0x1
 10062 28d3 51       		.byte	0x51
 10063 28d4 02       		.uleb128 0x2
 10064 28d5 75       		.byte	0x75
 10065 28d6 04       		.sleb128 4
 10066 28d7 27       		.uleb128 0x27
ARM GAS  C:\Users\d3bug\AppData\Local\Temp\ccFiAZjI.s 			page 226


 10067 28d8 01       		.uleb128 0x1
 10068 28d9 52       		.byte	0x52
 10069 28da 02       		.uleb128 0x2
 10070 28db 74       		.byte	0x74
 10071 28dc 00       		.sleb128 0
 10072 28dd 00       		.byte	0
 10073 28de 26       		.uleb128 0x26
 10074 28df 5E000000 		.4byte	.LVL506
 10075 28e3 2B1A0000 		.4byte	0x1a2b
 10076 28e7 FE280000 		.4byte	0x28fe
 10077 28eb 27       		.uleb128 0x27
 10078 28ec 01       		.uleb128 0x1
 10079 28ed 50       		.byte	0x50
 10080 28ee 02       		.uleb128 0x2
 10081 28ef 74       		.byte	0x74
 10082 28f0 00       		.sleb128 0
 10083 28f1 27       		.uleb128 0x27
 10084 28f2 01       		.uleb128 0x1
 10085 28f3 51       		.byte	0x51
 10086 28f4 02       		.uleb128 0x2
 10087 28f5 77       		.byte	0x77
 10088 28f6 00       		.sleb128 0
 10089 28f7 27       		.uleb128 0x27
 10090 28f8 01       		.uleb128 0x1
 10091 28f9 52       		.byte	0x52
 10092 28fa 02       		.uleb128 0x2
 10093 28fb 78       		.byte	0x78
 10094 28fc 00       		.sleb128 0
 10095 28fd 00       		.byte	0
 10096 28fe 30       		.uleb128 0x30
 10097 28ff 68000000 		.4byte	.LVL507
 10098 2903 18290000 		.4byte	0x2918
 10099 2907 27       		.uleb128 0x27
 10100 2908 01       		.uleb128 0x1
 10101 2909 50       		.byte	0x50
 10102 290a 02       		.uleb128 0x2
 10103 290b 76       		.byte	0x76
 10104 290c 00       		.sleb128 0
 10105 290d 27       		.uleb128 0x27
 10106 290e 01       		.uleb128 0x1
 10107 290f 51       		.byte	0x51
 10108 2910 01       		.uleb128 0x1
 10109 2911 31       		.byte	0x31
 10110 2912 27       		.uleb128 0x27
 10111 2913 01       		.uleb128 0x1
 10112 2914 52       		.byte	0x52
 10113 2915 01       		.uleb128 0x1
 10114 2916 30       		.byte	0x30
 10115 2917 00       		.byte	0
 10116 2918 30       		.uleb128 0x30
 10117 2919 72000000 		.4byte	.LVL508
 10118 291d 33290000 		.4byte	0x2933
 10119 2921 27       		.uleb128 0x27
 10120 2922 01       		.uleb128 0x1
 10121 2923 50       		.byte	0x50
 10122 2924 02       		.uleb128 0x2
 10123 2925 75       		.byte	0x75
ARM GAS  C:\Users\d3bug\AppData\Local\Temp\ccFiAZjI.s 			page 227


 10124 2926 00       		.sleb128 0
 10125 2927 27       		.uleb128 0x27
 10126 2928 01       		.uleb128 0x1
 10127 2929 51       		.byte	0x51
 10128 292a 01       		.uleb128 0x1
 10129 292b 31       		.byte	0x31
 10130 292c 27       		.uleb128 0x27
 10131 292d 01       		.uleb128 0x1
 10132 292e 52       		.byte	0x52
 10133 292f 02       		.uleb128 0x2
 10134 2930 74       		.byte	0x74
 10135 2931 00       		.sleb128 0
 10136 2932 00       		.byte	0
 10137 2933 28       		.uleb128 0x28
 10138 2934 78000000 		.4byte	.LVL509
 10139 2938 86160000 		.4byte	0x1686
 10140 293c 27       		.uleb128 0x27
 10141 293d 01       		.uleb128 0x1
 10142 293e 50       		.byte	0x50
 10143 293f 02       		.uleb128 0x2
 10144 2940 74       		.byte	0x74
 10145 2941 00       		.sleb128 0
 10146 2942 00       		.byte	0
 10147 2943 00       		.byte	0
 10148 2944 29       		.uleb128 0x29
 10149 2945 C4120000 		.4byte	.LASF302
 10150 2949 01       		.byte	0x1
 10151 294a 4C02     		.2byte	0x24c
 10152 294c 00000000 		.4byte	.LFB22
 10153 2950 72000000 		.4byte	.LFE22-.LFB22
 10154 2954 01       		.uleb128 0x1
 10155 2955 9C       		.byte	0x9c
 10156 2956 672A0000 		.4byte	0x2a67
 10157 295a 23       		.uleb128 0x23
 10158 295b 6F626A00 		.ascii	"obj\000"
 10159 295f 01       		.byte	0x1
 10160 2960 4C02     		.2byte	0x24c
 10161 2962 BC0D0000 		.4byte	0xdbc
 10162 2966 90110000 		.4byte	.LLST100
 10163 296a 23       		.uleb128 0x23
 10164 296b 7700     		.ascii	"w\000"
 10165 296d 01       		.byte	0x1
 10166 296e 4C02     		.2byte	0x24c
 10167 2970 A2010000 		.4byte	0x1a2
 10168 2974 AE110000 		.4byte	.LLST101
 10169 2978 23       		.uleb128 0x23
 10170 2979 6800     		.ascii	"h\000"
 10171 297b 01       		.byte	0x1
 10172 297c 4C02     		.2byte	0x24c
 10173 297e A2010000 		.4byte	0x1a2
 10174 2982 CF110000 		.4byte	.LLST102
 10175 2986 38       		.uleb128 0x38
 10176 2987 6F726900 		.ascii	"ori\000"
 10177 298b 01       		.byte	0x1
 10178 298c 5A02     		.2byte	0x25a
 10179 298e 0A020000 		.4byte	0x20a
 10180 2992 02       		.uleb128 0x2
ARM GAS  C:\Users\d3bug\AppData\Local\Temp\ccFiAZjI.s 			page 228


 10181 2993 91       		.byte	0x91
 10182 2994 68       		.sleb128 -24
 10183 2995 25       		.uleb128 0x25
 10184 2996 70617200 		.ascii	"par\000"
 10185 299a 01       		.byte	0x1
 10186 299b 6602     		.2byte	0x266
 10187 299d BC0D0000 		.4byte	0xdbc
 10188 29a1 F0110000 		.4byte	.LLST103
 10189 29a5 26       		.uleb128 0x26
 10190 29a6 0E000000 		.4byte	.LVL512
 10191 29aa 28150000 		.4byte	0x1528
 10192 29ae B9290000 		.4byte	0x29b9
 10193 29b2 27       		.uleb128 0x27
 10194 29b3 01       		.uleb128 0x1
 10195 29b4 50       		.byte	0x50
 10196 29b5 02       		.uleb128 0x2
 10197 29b6 74       		.byte	0x74
 10198 29b7 00       		.sleb128 0
 10199 29b8 00       		.byte	0
 10200 29b9 26       		.uleb128 0x26
 10201 29ba 18000000 		.4byte	.LVL513
 10202 29be 6D150000 		.4byte	0x156d
 10203 29c2 CD290000 		.4byte	0x29cd
 10204 29c6 27       		.uleb128 0x27
 10205 29c7 01       		.uleb128 0x1
 10206 29c8 50       		.byte	0x50
 10207 29c9 02       		.uleb128 0x2
 10208 29ca 74       		.byte	0x74
 10209 29cb 00       		.sleb128 0
 10210 29cc 00       		.byte	0
 10211 29cd 26       		.uleb128 0x26
 10212 29ce 22000000 		.4byte	.LVL514
 10213 29d2 86160000 		.4byte	0x1686
 10214 29d6 E1290000 		.4byte	0x29e1
 10215 29da 27       		.uleb128 0x27
 10216 29db 01       		.uleb128 0x1
 10217 29dc 50       		.byte	0x50
 10218 29dd 02       		.uleb128 0x2
 10219 29de 74       		.byte	0x74
 10220 29df 00       		.sleb128 0
 10221 29e0 00       		.byte	0
 10222 29e1 26       		.uleb128 0x26
 10223 29e2 2A000000 		.4byte	.LVL515
 10224 29e6 1E140000 		.4byte	0x141e
 10225 29ea FB290000 		.4byte	0x29fb
 10226 29ee 27       		.uleb128 0x27
 10227 29ef 01       		.uleb128 0x1
 10228 29f0 50       		.byte	0x50
 10229 29f1 02       		.uleb128 0x2
 10230 29f2 74       		.byte	0x74
 10231 29f3 00       		.sleb128 0
 10232 29f4 27       		.uleb128 0x27
 10233 29f5 01       		.uleb128 0x1
 10234 29f6 51       		.byte	0x51
 10235 29f7 02       		.uleb128 0x2
 10236 29f8 7D       		.byte	0x7d
 10237 29f9 00       		.sleb128 0
ARM GAS  C:\Users\d3bug\AppData\Local\Temp\ccFiAZjI.s 			page 229


 10238 29fa 00       		.byte	0
 10239 29fb 30       		.uleb128 0x30
 10240 29fc 48000000 		.4byte	.LVL516
 10241 2a00 162A0000 		.4byte	0x2a16
 10242 2a04 27       		.uleb128 0x27
 10243 2a05 01       		.uleb128 0x1
 10244 2a06 50       		.byte	0x50
 10245 2a07 02       		.uleb128 0x2
 10246 2a08 74       		.byte	0x74
 10247 2a09 00       		.sleb128 0
 10248 2a0a 27       		.uleb128 0x27
 10249 2a0b 01       		.uleb128 0x1
 10250 2a0c 51       		.byte	0x51
 10251 2a0d 01       		.uleb128 0x1
 10252 2a0e 32       		.byte	0x32
 10253 2a0f 27       		.uleb128 0x27
 10254 2a10 01       		.uleb128 0x1
 10255 2a11 52       		.byte	0x52
 10256 2a12 02       		.uleb128 0x2
 10257 2a13 7D       		.byte	0x7d
 10258 2a14 00       		.sleb128 0
 10259 2a15 00       		.byte	0
 10260 2a16 26       		.uleb128 0x26
 10261 2a17 4E000000 		.4byte	.LVL517
 10262 2a1b F3100000 		.4byte	0x10f3
 10263 2a1f 2A2A0000 		.4byte	0x2a2a
 10264 2a23 27       		.uleb128 0x27
 10265 2a24 01       		.uleb128 0x1
 10266 2a25 50       		.byte	0x50
 10267 2a26 02       		.uleb128 0x2
 10268 2a27 74       		.byte	0x74
 10269 2a28 00       		.sleb128 0
 10270 2a29 00       		.byte	0
 10271 2a2a 3F       		.uleb128 0x3f
 10272 2a2b 58000000 		.4byte	.LVL518
 10273 2a2f 02       		.uleb128 0x2
 10274 2a30 75       		.byte	0x75
 10275 2a31 00       		.sleb128 0
 10276 2a32 422A0000 		.4byte	0x2a42
 10277 2a36 27       		.uleb128 0x27
 10278 2a37 01       		.uleb128 0x1
 10279 2a38 51       		.byte	0x51
 10280 2a39 01       		.uleb128 0x1
 10281 2a3a 31       		.byte	0x31
 10282 2a3b 27       		.uleb128 0x27
 10283 2a3c 01       		.uleb128 0x1
 10284 2a3d 52       		.byte	0x52
 10285 2a3e 02       		.uleb128 0x2
 10286 2a3f 74       		.byte	0x74
 10287 2a40 00       		.sleb128 0
 10288 2a41 00       		.byte	0
 10289 2a42 26       		.uleb128 0x26
 10290 2a43 5E000000 		.4byte	.LVL519
 10291 2a47 86160000 		.4byte	0x1686
 10292 2a4b 562A0000 		.4byte	0x2a56
 10293 2a4f 27       		.uleb128 0x27
 10294 2a50 01       		.uleb128 0x1
ARM GAS  C:\Users\d3bug\AppData\Local\Temp\ccFiAZjI.s 			page 230


 10295 2a51 50       		.byte	0x50
 10296 2a52 02       		.uleb128 0x2
 10297 2a53 74       		.byte	0x74
 10298 2a54 00       		.sleb128 0
 10299 2a55 00       		.byte	0
 10300 2a56 28       		.uleb128 0x28
 10301 2a57 6E000000 		.4byte	.LVL520
 10302 2a5b B2240000 		.4byte	0x24b2
 10303 2a5f 27       		.uleb128 0x27
 10304 2a60 01       		.uleb128 0x1
 10305 2a61 50       		.byte	0x50
 10306 2a62 02       		.uleb128 0x2
 10307 2a63 74       		.byte	0x74
 10308 2a64 00       		.sleb128 0
 10309 2a65 00       		.byte	0
 10310 2a66 00       		.byte	0
 10311 2a67 29       		.uleb128 0x29
 10312 2a68 B80E0000 		.4byte	.LASF303
 10313 2a6c 01       		.byte	0x1
 10314 2a6d 7702     		.2byte	0x277
 10315 2a6f 00000000 		.4byte	.LFB23
 10316 2a73 16000000 		.4byte	.LFE23-.LFB23
 10317 2a77 01       		.uleb128 0x1
 10318 2a78 9C       		.byte	0x9c
 10319 2a79 C62A0000 		.4byte	0x2ac6
 10320 2a7d 23       		.uleb128 0x23
 10321 2a7e 6F626A00 		.ascii	"obj\000"
 10322 2a82 01       		.byte	0x1
 10323 2a83 7702     		.2byte	0x277
 10324 2a85 BC0D0000 		.4byte	0xdbc
 10325 2a89 03120000 		.4byte	.LLST104
 10326 2a8d 23       		.uleb128 0x23
 10327 2a8e 7700     		.ascii	"w\000"
 10328 2a90 01       		.byte	0x1
 10329 2a91 7702     		.2byte	0x277
 10330 2a93 A2010000 		.4byte	0x1a2
 10331 2a97 21120000 		.4byte	.LLST105
 10332 2a9b 26       		.uleb128 0x26
 10333 2a9c 0A000000 		.4byte	.LVL522
 10334 2aa0 6D150000 		.4byte	0x156d
 10335 2aa4 AF2A0000 		.4byte	0x2aaf
 10336 2aa8 27       		.uleb128 0x27
 10337 2aa9 01       		.uleb128 0x1
 10338 2aaa 50       		.byte	0x50
 10339 2aab 02       		.uleb128 0x2
 10340 2aac 74       		.byte	0x74
 10341 2aad 00       		.sleb128 0
 10342 2aae 00       		.byte	0
 10343 2aaf 28       		.uleb128 0x28
 10344 2ab0 14000000 		.4byte	.LVL523
 10345 2ab4 44290000 		.4byte	0x2944
 10346 2ab8 27       		.uleb128 0x27
 10347 2ab9 01       		.uleb128 0x1
 10348 2aba 50       		.byte	0x50
 10349 2abb 02       		.uleb128 0x2
 10350 2abc 74       		.byte	0x74
 10351 2abd 00       		.sleb128 0
ARM GAS  C:\Users\d3bug\AppData\Local\Temp\ccFiAZjI.s 			page 231


 10352 2abe 27       		.uleb128 0x27
 10353 2abf 01       		.uleb128 0x1
 10354 2ac0 51       		.byte	0x51
 10355 2ac1 02       		.uleb128 0x2
 10356 2ac2 75       		.byte	0x75
 10357 2ac3 00       		.sleb128 0
 10358 2ac4 00       		.byte	0
 10359 2ac5 00       		.byte	0
 10360 2ac6 29       		.uleb128 0x29
 10361 2ac7 5D050000 		.4byte	.LASF304
 10362 2acb 01       		.byte	0x1
 10363 2acc 8102     		.2byte	0x281
 10364 2ace 00000000 		.4byte	.LFB24
 10365 2ad2 16000000 		.4byte	.LFE24-.LFB24
 10366 2ad6 01       		.uleb128 0x1
 10367 2ad7 9C       		.byte	0x9c
 10368 2ad8 252B0000 		.4byte	0x2b25
 10369 2adc 23       		.uleb128 0x23
 10370 2add 6F626A00 		.ascii	"obj\000"
 10371 2ae1 01       		.byte	0x1
 10372 2ae2 8102     		.2byte	0x281
 10373 2ae4 BC0D0000 		.4byte	0xdbc
 10374 2ae8 42120000 		.4byte	.LLST106
 10375 2aec 23       		.uleb128 0x23
 10376 2aed 6800     		.ascii	"h\000"
 10377 2aef 01       		.byte	0x1
 10378 2af0 8102     		.2byte	0x281
 10379 2af2 A2010000 		.4byte	0x1a2
 10380 2af6 60120000 		.4byte	.LLST107
 10381 2afa 26       		.uleb128 0x26
 10382 2afb 0A000000 		.4byte	.LVL525
 10383 2aff 28150000 		.4byte	0x1528
 10384 2b03 0E2B0000 		.4byte	0x2b0e
 10385 2b07 27       		.uleb128 0x27
 10386 2b08 01       		.uleb128 0x1
 10387 2b09 50       		.byte	0x50
 10388 2b0a 02       		.uleb128 0x2
 10389 2b0b 74       		.byte	0x74
 10390 2b0c 00       		.sleb128 0
 10391 2b0d 00       		.byte	0
 10392 2b0e 28       		.uleb128 0x28
 10393 2b0f 14000000 		.4byte	.LVL526
 10394 2b13 44290000 		.4byte	0x2944
 10395 2b17 27       		.uleb128 0x27
 10396 2b18 01       		.uleb128 0x1
 10397 2b19 50       		.byte	0x50
 10398 2b1a 02       		.uleb128 0x2
 10399 2b1b 74       		.byte	0x74
 10400 2b1c 00       		.sleb128 0
 10401 2b1d 27       		.uleb128 0x27
 10402 2b1e 01       		.uleb128 0x1
 10403 2b1f 52       		.byte	0x52
 10404 2b20 02       		.uleb128 0x2
 10405 2b21 75       		.byte	0x75
 10406 2b22 00       		.sleb128 0
 10407 2b23 00       		.byte	0
 10408 2b24 00       		.byte	0
ARM GAS  C:\Users\d3bug\AppData\Local\Temp\ccFiAZjI.s 			page 232


 10409 2b25 29       		.uleb128 0x29
 10410 2b26 0A0A0000 		.4byte	.LASF305
 10411 2b2a 01       		.byte	0x1
 10412 2b2b E203     		.2byte	0x3e2
 10413 2b2d 00000000 		.4byte	.LFB30
 10414 2b31 1A000000 		.4byte	.LFE30-.LFB30
 10415 2b35 01       		.uleb128 0x1
 10416 2b36 9C       		.byte	0x9c
 10417 2b37 8A2B0000 		.4byte	0x2b8a
 10418 2b3b 23       		.uleb128 0x23
 10419 2b3c 6F626A00 		.ascii	"obj\000"
 10420 2b40 01       		.byte	0x1
 10421 2b41 E203     		.2byte	0x3e2
 10422 2b43 BC0D0000 		.4byte	0xdbc
 10423 2b47 81120000 		.4byte	.LLST108
 10424 2b4b 26       		.uleb128 0x26
 10425 2b4c 08000000 		.4byte	.LVL528
 10426 2b50 86160000 		.4byte	0x1686
 10427 2b54 5F2B0000 		.4byte	0x2b5f
 10428 2b58 27       		.uleb128 0x27
 10429 2b59 01       		.uleb128 0x1
 10430 2b5a 50       		.byte	0x50
 10431 2b5b 02       		.uleb128 0x2
 10432 2b5c 74       		.byte	0x74
 10433 2b5d 00       		.sleb128 0
 10434 2b5e 00       		.byte	0
 10435 2b5f 30       		.uleb128 0x30
 10436 2b60 12000000 		.4byte	.LVL529
 10437 2b64 792B0000 		.4byte	0x2b79
 10438 2b68 27       		.uleb128 0x27
 10439 2b69 01       		.uleb128 0x1
 10440 2b6a 50       		.byte	0x50
 10441 2b6b 02       		.uleb128 0x2
 10442 2b6c 74       		.byte	0x74
 10443 2b6d 00       		.sleb128 0
 10444 2b6e 27       		.uleb128 0x27
 10445 2b6f 01       		.uleb128 0x1
 10446 2b70 51       		.byte	0x51
 10447 2b71 01       		.uleb128 0x1
 10448 2b72 33       		.byte	0x33
 10449 2b73 27       		.uleb128 0x27
 10450 2b74 01       		.uleb128 0x1
 10451 2b75 52       		.byte	0x52
 10452 2b76 01       		.uleb128 0x1
 10453 2b77 30       		.byte	0x30
 10454 2b78 00       		.byte	0
 10455 2b79 28       		.uleb128 0x28
 10456 2b7a 18000000 		.4byte	.LVL530
 10457 2b7e 86160000 		.4byte	0x1686
 10458 2b82 27       		.uleb128 0x27
 10459 2b83 01       		.uleb128 0x1
 10460 2b84 50       		.byte	0x50
 10461 2b85 02       		.uleb128 0x2
 10462 2b86 74       		.byte	0x74
 10463 2b87 00       		.sleb128 0
 10464 2b88 00       		.byte	0
 10465 2b89 00       		.byte	0
ARM GAS  C:\Users\d3bug\AppData\Local\Temp\ccFiAZjI.s 			page 233


 10466 2b8a 22       		.uleb128 0x22
 10467 2b8b E1110000 		.4byte	.LASF306
 10468 2b8f 01       		.byte	0x1
 10469 2b90 7107     		.2byte	0x771
 10470 2b92 00000000 		.4byte	.LFB84
 10471 2b96 3E000000 		.4byte	.LFE84-.LFB84
 10472 2b9a 01       		.uleb128 0x1
 10473 2b9b 9C       		.byte	0x9c
 10474 2b9c 2C2C0000 		.4byte	0x2c2c
 10475 2ba0 23       		.uleb128 0x23
 10476 2ba1 6F626A00 		.ascii	"obj\000"
 10477 2ba5 01       		.byte	0x1
 10478 2ba6 7107     		.2byte	0x771
 10479 2ba8 BC0D0000 		.4byte	0xdbc
 10480 2bac 9F120000 		.4byte	.LLST109
 10481 2bb0 2F       		.uleb128 0x2f
 10482 2bb1 2D000000 		.4byte	.LASF253
 10483 2bb5 01       		.byte	0x1
 10484 2bb6 7307     		.2byte	0x773
 10485 2bb8 BC0D0000 		.4byte	0xdbc
 10486 2bbc BD120000 		.4byte	.LLST110
 10487 2bc0 26       		.uleb128 0x26
 10488 2bc1 0A000000 		.4byte	.LVL532
 10489 2bc5 C7120000 		.4byte	0x12c7
 10490 2bc9 D92B0000 		.4byte	0x2bd9
 10491 2bcd 27       		.uleb128 0x27
 10492 2bce 01       		.uleb128 0x1
 10493 2bcf 50       		.byte	0x50
 10494 2bd0 02       		.uleb128 0x2
 10495 2bd1 75       		.byte	0x75
 10496 2bd2 00       		.sleb128 0
 10497 2bd3 27       		.uleb128 0x27
 10498 2bd4 01       		.uleb128 0x1
 10499 2bd5 51       		.byte	0x51
 10500 2bd6 01       		.uleb128 0x1
 10501 2bd7 30       		.byte	0x30
 10502 2bd8 00       		.byte	0
 10503 2bd9 26       		.uleb128 0x26
 10504 2bda 18000000 		.4byte	.LVL534
 10505 2bde 8A2B0000 		.4byte	0x2b8a
 10506 2be2 ED2B0000 		.4byte	0x2bed
 10507 2be6 27       		.uleb128 0x27
 10508 2be7 01       		.uleb128 0x1
 10509 2be8 50       		.byte	0x50
 10510 2be9 02       		.uleb128 0x2
 10511 2bea 74       		.byte	0x74
 10512 2beb 00       		.sleb128 0
 10513 2bec 00       		.byte	0
 10514 2bed 26       		.uleb128 0x26
 10515 2bee 1E000000 		.4byte	.LVL535
 10516 2bf2 252B0000 		.4byte	0x2b25
 10517 2bf6 012C0000 		.4byte	0x2c01
 10518 2bfa 27       		.uleb128 0x27
 10519 2bfb 01       		.uleb128 0x1
 10520 2bfc 50       		.byte	0x50
 10521 2bfd 02       		.uleb128 0x2
 10522 2bfe 74       		.byte	0x74
ARM GAS  C:\Users\d3bug\AppData\Local\Temp\ccFiAZjI.s 			page 234


 10523 2bff 00       		.sleb128 0
 10524 2c00 00       		.byte	0
 10525 2c01 26       		.uleb128 0x26
 10526 2c02 2E000000 		.4byte	.LVL538
 10527 2c06 8A2B0000 		.4byte	0x2b8a
 10528 2c0a 152C0000 		.4byte	0x2c15
 10529 2c0e 27       		.uleb128 0x27
 10530 2c0f 01       		.uleb128 0x1
 10531 2c10 50       		.byte	0x50
 10532 2c11 02       		.uleb128 0x2
 10533 2c12 74       		.byte	0x74
 10534 2c13 00       		.sleb128 0
 10535 2c14 00       		.byte	0
 10536 2c15 28       		.uleb128 0x28
 10537 2c16 36000000 		.4byte	.LVL539
 10538 2c1a C7120000 		.4byte	0x12c7
 10539 2c1e 27       		.uleb128 0x27
 10540 2c1f 01       		.uleb128 0x1
 10541 2c20 50       		.byte	0x50
 10542 2c21 02       		.uleb128 0x2
 10543 2c22 75       		.byte	0x75
 10544 2c23 00       		.sleb128 0
 10545 2c24 27       		.uleb128 0x27
 10546 2c25 01       		.uleb128 0x1
 10547 2c26 51       		.byte	0x51
 10548 2c27 02       		.uleb128 0x2
 10549 2c28 74       		.byte	0x74
 10550 2c29 00       		.sleb128 0
 10551 2c2a 00       		.byte	0
 10552 2c2b 00       		.byte	0
 10553 2c2c 29       		.uleb128 0x29
 10554 2c2d 7E120000 		.4byte	.LASF307
 10555 2c31 01       		.byte	0x1
 10556 2c32 D303     		.2byte	0x3d3
 10557 2c34 00000000 		.4byte	.LFB29
 10558 2c38 12000000 		.4byte	.LFE29-.LFB29
 10559 2c3c 01       		.uleb128 0x1
 10560 2c3d 9C       		.byte	0x9c
 10561 2c3e 872C0000 		.4byte	0x2c87
 10562 2c42 23       		.uleb128 0x23
 10563 2c43 6F626A00 		.ascii	"obj\000"
 10564 2c47 01       		.byte	0x1
 10565 2c48 D303     		.2byte	0x3d3
 10566 2c4a BC0D0000 		.4byte	0xdbc
 10567 2c4e FC120000 		.4byte	.LLST111
 10568 2c52 24       		.uleb128 0x24
 10569 2c53 530C0000 		.4byte	.LASF308
 10570 2c57 01       		.byte	0x1
 10571 2c58 D303     		.2byte	0x3d3
 10572 2c5a 2D090000 		.4byte	0x92d
 10573 2c5e 1A130000 		.4byte	.LLST112
 10574 2c62 26       		.uleb128 0x26
 10575 2c63 0A000000 		.4byte	.LVL542
 10576 2c67 8A2B0000 		.4byte	0x2b8a
 10577 2c6b 762C0000 		.4byte	0x2c76
 10578 2c6f 27       		.uleb128 0x27
 10579 2c70 01       		.uleb128 0x1
ARM GAS  C:\Users\d3bug\AppData\Local\Temp\ccFiAZjI.s 			page 235


 10580 2c71 50       		.byte	0x50
 10581 2c72 02       		.uleb128 0x2
 10582 2c73 74       		.byte	0x74
 10583 2c74 00       		.sleb128 0
 10584 2c75 00       		.byte	0
 10585 2c76 28       		.uleb128 0x28
 10586 2c77 10000000 		.4byte	.LVL543
 10587 2c7b 252B0000 		.4byte	0x2b25
 10588 2c7f 27       		.uleb128 0x27
 10589 2c80 01       		.uleb128 0x1
 10590 2c81 50       		.byte	0x50
 10591 2c82 02       		.uleb128 0x2
 10592 2c83 74       		.byte	0x74
 10593 2c84 00       		.sleb128 0
 10594 2c85 00       		.byte	0
 10595 2c86 00       		.byte	0
 10596 2c87 22       		.uleb128 0x22
 10597 2c88 82060000 		.4byte	.LASF309
 10598 2c8c 01       		.byte	0x1
 10599 2c8d 5F07     		.2byte	0x75f
 10600 2c8f 00000000 		.4byte	.LFB83
 10601 2c93 3C000000 		.4byte	.LFE83-.LFB83
 10602 2c97 01       		.uleb128 0x1
 10603 2c98 9C       		.byte	0x9c
 10604 2c99 382D0000 		.4byte	0x2d38
 10605 2c9d 24       		.uleb128 0x24
 10606 2c9e A6090000 		.4byte	.LASF100
 10607 2ca2 01       		.byte	0x1
 10608 2ca3 5F07     		.2byte	0x75f
 10609 2ca5 8E010000 		.4byte	0x18e
 10610 2ca9 3B130000 		.4byte	.LLST113
 10611 2cad 23       		.uleb128 0x23
 10612 2cae 6F626A00 		.ascii	"obj\000"
 10613 2cb2 01       		.byte	0x1
 10614 2cb3 5F07     		.2byte	0x75f
 10615 2cb5 BC0D0000 		.4byte	0xdbc
 10616 2cb9 59130000 		.4byte	.LLST114
 10617 2cbd 25       		.uleb128 0x25
 10618 2cbe 6900     		.ascii	"i\000"
 10619 2cc0 01       		.byte	0x1
 10620 2cc1 6107     		.2byte	0x761
 10621 2cc3 BC0D0000 		.4byte	0xdbc
 10622 2cc7 79130000 		.4byte	.LLST115
 10623 2ccb 26       		.uleb128 0x26
 10624 2ccc 0C000000 		.4byte	.LVL546
 10625 2cd0 05360000 		.4byte	0x3605
 10626 2cd4 DF2C0000 		.4byte	0x2cdf
 10627 2cd8 27       		.uleb128 0x27
 10628 2cd9 01       		.uleb128 0x1
 10629 2cda 50       		.byte	0x50
 10630 2cdb 02       		.uleb128 0x2
 10631 2cdc 76       		.byte	0x76
 10632 2cdd 00       		.sleb128 0
 10633 2cde 00       		.byte	0
 10634 2cdf 26       		.uleb128 0x26
 10635 2ce0 1E000000 		.4byte	.LVL549
 10636 2ce4 8A2B0000 		.4byte	0x2b8a
ARM GAS  C:\Users\d3bug\AppData\Local\Temp\ccFiAZjI.s 			page 236


 10637 2ce8 F32C0000 		.4byte	0x2cf3
 10638 2cec 27       		.uleb128 0x27
 10639 2ced 01       		.uleb128 0x1
 10640 2cee 50       		.byte	0x50
 10641 2cef 02       		.uleb128 0x2
 10642 2cf0 74       		.byte	0x74
 10643 2cf1 00       		.sleb128 0
 10644 2cf2 00       		.byte	0
 10645 2cf3 26       		.uleb128 0x26
 10646 2cf4 24000000 		.4byte	.LVL550
 10647 2cf8 252B0000 		.4byte	0x2b25
 10648 2cfc 072D0000 		.4byte	0x2d07
 10649 2d00 27       		.uleb128 0x27
 10650 2d01 01       		.uleb128 0x1
 10651 2d02 50       		.byte	0x50
 10652 2d03 02       		.uleb128 0x2
 10653 2d04 74       		.byte	0x74
 10654 2d05 00       		.sleb128 0
 10655 2d06 00       		.byte	0
 10656 2d07 26       		.uleb128 0x26
 10657 2d08 2C000000 		.4byte	.LVL551
 10658 2d0c 872C0000 		.4byte	0x2c87
 10659 2d10 212D0000 		.4byte	0x2d21
 10660 2d14 27       		.uleb128 0x27
 10661 2d15 01       		.uleb128 0x1
 10662 2d16 50       		.byte	0x50
 10663 2d17 02       		.uleb128 0x2
 10664 2d18 75       		.byte	0x75
 10665 2d19 00       		.sleb128 0
 10666 2d1a 27       		.uleb128 0x27
 10667 2d1b 01       		.uleb128 0x1
 10668 2d1c 51       		.byte	0x51
 10669 2d1d 02       		.uleb128 0x2
 10670 2d1e 74       		.byte	0x74
 10671 2d1f 00       		.sleb128 0
 10672 2d20 00       		.byte	0
 10673 2d21 28       		.uleb128 0x28
 10674 2d22 34000000 		.4byte	.LVL552
 10675 2d26 10360000 		.4byte	0x3610
 10676 2d2a 27       		.uleb128 0x27
 10677 2d2b 01       		.uleb128 0x1
 10678 2d2c 50       		.byte	0x50
 10679 2d2d 02       		.uleb128 0x2
 10680 2d2e 76       		.byte	0x76
 10681 2d2f 00       		.sleb128 0
 10682 2d30 27       		.uleb128 0x27
 10683 2d31 01       		.uleb128 0x1
 10684 2d32 51       		.byte	0x51
 10685 2d33 02       		.uleb128 0x2
 10686 2d34 74       		.byte	0x74
 10687 2d35 00       		.sleb128 0
 10688 2d36 00       		.byte	0
 10689 2d37 00       		.byte	0
 10690 2d38 29       		.uleb128 0x29
 10691 2d39 EF0C0000 		.4byte	.LASF310
 10692 2d3d 01       		.byte	0x1
 10693 2d3e EF03     		.2byte	0x3ef
ARM GAS  C:\Users\d3bug\AppData\Local\Temp\ccFiAZjI.s 			page 237


 10694 2d40 00000000 		.4byte	.LFB31
 10695 2d44 38000000 		.4byte	.LFE31-.LFB31
 10696 2d48 01       		.uleb128 0x1
 10697 2d49 9C       		.byte	0x9c
 10698 2d4a B42D0000 		.4byte	0x2db4
 10699 2d4e 24       		.uleb128 0x24
 10700 2d4f 530C0000 		.4byte	.LASF308
 10701 2d53 01       		.byte	0x1
 10702 2d54 EF03     		.2byte	0x3ef
 10703 2d56 2D090000 		.4byte	0x92d
 10704 2d5a A2130000 		.4byte	.LLST116
 10705 2d5e 25       		.uleb128 0x25
 10706 2d5f 6900     		.ascii	"i\000"
 10707 2d61 01       		.byte	0x1
 10708 2d62 F103     		.2byte	0x3f1
 10709 2d64 BC0D0000 		.4byte	0xdbc
 10710 2d68 CE130000 		.4byte	.LLST117
 10711 2d6c 2C       		.uleb128 0x2c
 10712 2d6d 0A000000 		.4byte	.LVL556
 10713 2d71 05360000 		.4byte	0x3605
 10714 2d75 26       		.uleb128 0x26
 10715 2d76 1C000000 		.4byte	.LVL559
 10716 2d7a 252B0000 		.4byte	0x2b25
 10717 2d7e 892D0000 		.4byte	0x2d89
 10718 2d82 27       		.uleb128 0x27
 10719 2d83 01       		.uleb128 0x1
 10720 2d84 50       		.byte	0x50
 10721 2d85 02       		.uleb128 0x2
 10722 2d86 74       		.byte	0x74
 10723 2d87 00       		.sleb128 0
 10724 2d88 00       		.byte	0
 10725 2d89 26       		.uleb128 0x26
 10726 2d8a 24000000 		.4byte	.LVL560
 10727 2d8e 872C0000 		.4byte	0x2c87
 10728 2d92 A32D0000 		.4byte	0x2da3
 10729 2d96 27       		.uleb128 0x27
 10730 2d97 01       		.uleb128 0x1
 10731 2d98 50       		.byte	0x50
 10732 2d99 02       		.uleb128 0x2
 10733 2d9a 75       		.byte	0x75
 10734 2d9b 00       		.sleb128 0
 10735 2d9c 27       		.uleb128 0x27
 10736 2d9d 01       		.uleb128 0x1
 10737 2d9e 51       		.byte	0x51
 10738 2d9f 02       		.uleb128 0x2
 10739 2da0 74       		.byte	0x74
 10740 2da1 00       		.sleb128 0
 10741 2da2 00       		.byte	0
 10742 2da3 28       		.uleb128 0x28
 10743 2da4 2C000000 		.4byte	.LVL561
 10744 2da8 10360000 		.4byte	0x3610
 10745 2dac 27       		.uleb128 0x27
 10746 2dad 01       		.uleb128 0x1
 10747 2dae 51       		.byte	0x51
 10748 2daf 02       		.uleb128 0x2
 10749 2db0 74       		.byte	0x74
 10750 2db1 00       		.sleb128 0
ARM GAS  C:\Users\d3bug\AppData\Local\Temp\ccFiAZjI.s 			page 238


 10751 2db2 00       		.byte	0
 10752 2db3 00       		.byte	0
 10753 2db4 40       		.uleb128 0x40
 10754 2db5 9C000000 		.4byte	.LASF311
 10755 2db9 01       		.byte	0x1
 10756 2dba 3F       		.byte	0x3f
 10757 2dbb 00000000 		.4byte	.LFB12
 10758 2dbf C8000000 		.4byte	.LFE12-.LFB12
 10759 2dc3 01       		.uleb128 0x1
 10760 2dc4 9C       		.byte	0x9c
 10761 2dc5 E02E0000 		.4byte	0x2ee0
 10762 2dc9 26       		.uleb128 0x26
 10763 2dca 34000000 		.4byte	.LVL564
 10764 2dce 7E360000 		.4byte	0x367e
 10765 2dd2 F22D0000 		.4byte	0x2df2
 10766 2dd6 27       		.uleb128 0x27
 10767 2dd7 01       		.uleb128 0x1
 10768 2dd8 50       		.byte	0x50
 10769 2dd9 02       		.uleb128 0x2
 10770 2dda 74       		.byte	0x74
 10771 2ddb 00       		.sleb128 0
 10772 2ddc 27       		.uleb128 0x27
 10773 2ddd 01       		.uleb128 0x1
 10774 2dde 51       		.byte	0x51
 10775 2ddf 02       		.uleb128 0x2
 10776 2de0 76       		.byte	0x76
 10777 2de1 00       		.sleb128 0
 10778 2de2 27       		.uleb128 0x27
 10779 2de3 01       		.uleb128 0x1
 10780 2de4 52       		.byte	0x52
 10781 2de5 02       		.uleb128 0x2
 10782 2de6 08       		.byte	0x8
 10783 2de7 48       		.byte	0x48
 10784 2de8 27       		.uleb128 0x27
 10785 2de9 01       		.uleb128 0x1
 10786 2dea 53       		.byte	0x53
 10787 2deb 05       		.uleb128 0x5
 10788 2dec 03       		.byte	0x3
 10789 2ded D0000000 		.4byte	.LC8
 10790 2df1 00       		.byte	0
 10791 2df2 2C       		.uleb128 0x2c
 10792 2df3 38000000 		.4byte	.LVL565
 10793 2df7 B6360000 		.4byte	0x36b6
 10794 2dfb 2C       		.uleb128 0x2c
 10795 2dfc 3C000000 		.4byte	.LVL566
 10796 2e00 C1360000 		.4byte	0x36c1
 10797 2e04 2C       		.uleb128 0x2c
 10798 2e05 40000000 		.4byte	.LVL567
 10799 2e09 CC360000 		.4byte	0x36cc
 10800 2e0d 2C       		.uleb128 0x2c
 10801 2e0e 44000000 		.4byte	.LVL568
 10802 2e12 D7360000 		.4byte	0x36d7
 10803 2e16 2C       		.uleb128 0x2c
 10804 2e17 48000000 		.4byte	.LVL569
 10805 2e1b E2360000 		.4byte	0x36e2
 10806 2e1f 26       		.uleb128 0x26
 10807 2e20 50000000 		.4byte	.LVL570
ARM GAS  C:\Users\d3bug\AppData\Local\Temp\ccFiAZjI.s 			page 239


 10808 2e24 94360000 		.4byte	0x3694
 10809 2e28 332E0000 		.4byte	0x2e33
 10810 2e2c 27       		.uleb128 0x27
 10811 2e2d 01       		.uleb128 0x1
 10812 2e2e 51       		.byte	0x51
 10813 2e2f 02       		.uleb128 0x2
 10814 2e30 08       		.byte	0x8
 10815 2e31 44       		.byte	0x44
 10816 2e32 00       		.byte	0
 10817 2e33 26       		.uleb128 0x26
 10818 2e34 58000000 		.4byte	.LVL571
 10819 2e38 FF240000 		.4byte	0x24ff
 10820 2e3c 4D2E0000 		.4byte	0x2e4d
 10821 2e40 27       		.uleb128 0x27
 10822 2e41 01       		.uleb128 0x1
 10823 2e42 50       		.byte	0x50
 10824 2e43 02       		.uleb128 0x2
 10825 2e44 74       		.byte	0x74
 10826 2e45 00       		.sleb128 0
 10827 2e46 27       		.uleb128 0x27
 10828 2e47 01       		.uleb128 0x1
 10829 2e48 51       		.byte	0x51
 10830 2e49 02       		.uleb128 0x2
 10831 2e4a 74       		.byte	0x74
 10832 2e4b 00       		.sleb128 0
 10833 2e4c 00       		.byte	0
 10834 2e4d 26       		.uleb128 0x26
 10835 2e4e 66000000 		.4byte	.LVL572
 10836 2e52 FF240000 		.4byte	0x24ff
 10837 2e56 672E0000 		.4byte	0x2e67
 10838 2e5a 27       		.uleb128 0x27
 10839 2e5b 01       		.uleb128 0x1
 10840 2e5c 50       		.byte	0x50
 10841 2e5d 02       		.uleb128 0x2
 10842 2e5e 74       		.byte	0x74
 10843 2e5f 00       		.sleb128 0
 10844 2e60 27       		.uleb128 0x27
 10845 2e61 01       		.uleb128 0x1
 10846 2e62 51       		.byte	0x51
 10847 2e63 02       		.uleb128 0x2
 10848 2e64 74       		.byte	0x74
 10849 2e65 00       		.sleb128 0
 10850 2e66 00       		.byte	0
 10851 2e67 26       		.uleb128 0x26
 10852 2e68 70000000 		.4byte	.LVL573
 10853 2e6c 2C2C0000 		.4byte	0x2c2c
 10854 2e70 7B2E0000 		.4byte	0x2e7b
 10855 2e74 27       		.uleb128 0x27
 10856 2e75 01       		.uleb128 0x1
 10857 2e76 51       		.byte	0x51
 10858 2e77 02       		.uleb128 0x2
 10859 2e78 77       		.byte	0x77
 10860 2e79 00       		.sleb128 0
 10861 2e7a 00       		.byte	0
 10862 2e7b 26       		.uleb128 0x26
 10863 2e7c 78000000 		.4byte	.LVL574
 10864 2e80 FF240000 		.4byte	0x24ff
ARM GAS  C:\Users\d3bug\AppData\Local\Temp\ccFiAZjI.s 			page 240


 10865 2e84 952E0000 		.4byte	0x2e95
 10866 2e88 27       		.uleb128 0x27
 10867 2e89 01       		.uleb128 0x1
 10868 2e8a 50       		.byte	0x50
 10869 2e8b 02       		.uleb128 0x2
 10870 2e8c 74       		.byte	0x74
 10871 2e8d 00       		.sleb128 0
 10872 2e8e 27       		.uleb128 0x27
 10873 2e8f 01       		.uleb128 0x1
 10874 2e90 51       		.byte	0x51
 10875 2e91 02       		.uleb128 0x2
 10876 2e92 74       		.byte	0x74
 10877 2e93 00       		.sleb128 0
 10878 2e94 00       		.byte	0
 10879 2e95 26       		.uleb128 0x26
 10880 2e96 82000000 		.4byte	.LVL575
 10881 2e9a 2C2C0000 		.4byte	0x2c2c
 10882 2e9e A92E0000 		.4byte	0x2ea9
 10883 2ea2 27       		.uleb128 0x27
 10884 2ea3 01       		.uleb128 0x1
 10885 2ea4 51       		.byte	0x51
 10886 2ea5 02       		.uleb128 0x2
 10887 2ea6 77       		.byte	0x77
 10888 2ea7 00       		.sleb128 0
 10889 2ea8 00       		.byte	0
 10890 2ea9 2C       		.uleb128 0x2c
 10891 2eaa 88000000 		.4byte	.LVL576
 10892 2eae 86160000 		.4byte	0x1686
 10893 2eb2 2C       		.uleb128 0x2c
 10894 2eb3 8C000000 		.4byte	.LVL577
 10895 2eb7 ED360000 		.4byte	0x36ed
 10896 2ebb 28       		.uleb128 0x28
 10897 2ebc 98000000 		.4byte	.LVL578
 10898 2ec0 7E360000 		.4byte	0x367e
 10899 2ec4 27       		.uleb128 0x27
 10900 2ec5 01       		.uleb128 0x1
 10901 2ec6 50       		.byte	0x50
 10902 2ec7 01       		.uleb128 0x1
 10903 2ec8 31       		.byte	0x31
 10904 2ec9 27       		.uleb128 0x27
 10905 2eca 01       		.uleb128 0x1
 10906 2ecb 51       		.byte	0x51
 10907 2ecc 02       		.uleb128 0x2
 10908 2ecd 76       		.byte	0x76
 10909 2ece 00       		.sleb128 0
 10910 2ecf 27       		.uleb128 0x27
 10911 2ed0 01       		.uleb128 0x1
 10912 2ed1 52       		.byte	0x52
 10913 2ed2 02       		.uleb128 0x2
 10914 2ed3 08       		.byte	0x8
 10915 2ed4 73       		.byte	0x73
 10916 2ed5 27       		.uleb128 0x27
 10917 2ed6 01       		.uleb128 0x1
 10918 2ed7 53       		.byte	0x53
 10919 2ed8 05       		.uleb128 0x5
 10920 2ed9 03       		.byte	0x3
 10921 2eda E0000000 		.4byte	.LC9
ARM GAS  C:\Users\d3bug\AppData\Local\Temp\ccFiAZjI.s 			page 241


 10922 2ede 00       		.byte	0
 10923 2edf 00       		.byte	0
 10924 2ee0 29       		.uleb128 0x29
 10925 2ee1 BC080000 		.4byte	.LASF312
 10926 2ee5 01       		.byte	0x1
 10927 2ee6 0404     		.2byte	0x404
 10928 2ee8 00000000 		.4byte	.LFB32
 10929 2eec 44000000 		.4byte	.LFE32-.LFB32
 10930 2ef0 01       		.uleb128 0x1
 10931 2ef1 9C       		.byte	0x9c
 10932 2ef2 732F0000 		.4byte	0x2f73
 10933 2ef6 23       		.uleb128 0x23
 10934 2ef7 6F626A00 		.ascii	"obj\000"
 10935 2efb 01       		.byte	0x1
 10936 2efc 0404     		.2byte	0x404
 10937 2efe BC0D0000 		.4byte	0xdbc
 10938 2f02 F7130000 		.4byte	.LLST118
 10939 2f06 23       		.uleb128 0x23
 10940 2f07 656E00   		.ascii	"en\000"
 10941 2f0a 01       		.byte	0x1
 10942 2f0b 0404     		.2byte	0x404
 10943 2f0d 1C060000 		.4byte	0x61c
 10944 2f11 15140000 		.4byte	.LLST119
 10945 2f15 25       		.uleb128 0x25
 10946 2f16 70617200 		.ascii	"par\000"
 10947 2f1a 01       		.byte	0x1
 10948 2f1b 0C04     		.2byte	0x40c
 10949 2f1d BC0D0000 		.4byte	0xdbc
 10950 2f21 36140000 		.4byte	.LLST120
 10951 2f25 26       		.uleb128 0x26
 10952 2f26 14000000 		.4byte	.LVL580
 10953 2f2a 86160000 		.4byte	0x1686
 10954 2f2e 392F0000 		.4byte	0x2f39
 10955 2f32 27       		.uleb128 0x27
 10956 2f33 01       		.uleb128 0x1
 10957 2f34 50       		.byte	0x50
 10958 2f35 02       		.uleb128 0x2
 10959 2f36 74       		.byte	0x74
 10960 2f37 00       		.sleb128 0
 10961 2f38 00       		.byte	0
 10962 2f39 26       		.uleb128 0x26
 10963 2f3a 34000000 		.4byte	.LVL581
 10964 2f3e 86160000 		.4byte	0x1686
 10965 2f42 4D2F0000 		.4byte	0x2f4d
 10966 2f46 27       		.uleb128 0x27
 10967 2f47 01       		.uleb128 0x1
 10968 2f48 50       		.byte	0x50
 10969 2f49 02       		.uleb128 0x2
 10970 2f4a 74       		.byte	0x74
 10971 2f4b 00       		.sleb128 0
 10972 2f4c 00       		.byte	0
 10973 2f4d 26       		.uleb128 0x26
 10974 2f4e 3A000000 		.4byte	.LVL582
 10975 2f52 F3100000 		.4byte	0x10f3
 10976 2f56 612F0000 		.4byte	0x2f61
 10977 2f5a 27       		.uleb128 0x27
 10978 2f5b 01       		.uleb128 0x1
ARM GAS  C:\Users\d3bug\AppData\Local\Temp\ccFiAZjI.s 			page 242


 10979 2f5c 50       		.byte	0x50
 10980 2f5d 02       		.uleb128 0x2
 10981 2f5e 74       		.byte	0x74
 10982 2f5f 00       		.sleb128 0
 10983 2f60 00       		.byte	0
 10984 2f61 37       		.uleb128 0x37
 10985 2f62 42000000 		.4byte	.LVL583
 10986 2f66 27       		.uleb128 0x27
 10987 2f67 01       		.uleb128 0x1
 10988 2f68 51       		.byte	0x51
 10989 2f69 01       		.uleb128 0x1
 10990 2f6a 31       		.byte	0x31
 10991 2f6b 27       		.uleb128 0x27
 10992 2f6c 01       		.uleb128 0x1
 10993 2f6d 52       		.byte	0x52
 10994 2f6e 02       		.uleb128 0x2
 10995 2f6f 74       		.byte	0x74
 10996 2f70 00       		.sleb128 0
 10997 2f71 00       		.byte	0
 10998 2f72 00       		.byte	0
 10999 2f73 29       		.uleb128 0x29
 11000 2f74 DC020000 		.4byte	.LASF313
 11001 2f78 01       		.byte	0x1
 11002 2f79 5504     		.2byte	0x455
 11003 2f7b 00000000 		.4byte	.LFB39
 11004 2f7f 0C000000 		.4byte	.LFE39-.LFB39
 11005 2f83 01       		.uleb128 0x1
 11006 2f84 9C       		.byte	0x9c
 11007 2f85 BB2F0000 		.4byte	0x2fbb
 11008 2f89 23       		.uleb128 0x23
 11009 2f8a 6F626A00 		.ascii	"obj\000"
 11010 2f8e 01       		.byte	0x1
 11011 2f8f 5504     		.2byte	0x455
 11012 2f91 BC0D0000 		.4byte	0xdbc
 11013 2f95 49140000 		.4byte	.LLST121
 11014 2f99 24       		.uleb128 0x24
 11015 2f9a BB140000 		.4byte	.LASF109
 11016 2f9e 01       		.byte	0x1
 11017 2f9f 5504     		.2byte	0x455
 11018 2fa1 7C010000 		.4byte	0x17c
 11019 2fa5 6A140000 		.4byte	.LLST122
 11020 2fa9 28       		.uleb128 0x28
 11021 2faa 0A000000 		.4byte	.LVL585
 11022 2fae 86160000 		.4byte	0x1686
 11023 2fb2 27       		.uleb128 0x27
 11024 2fb3 01       		.uleb128 0x1
 11025 2fb4 50       		.byte	0x50
 11026 2fb5 03       		.uleb128 0x3
 11027 2fb6 F3       		.byte	0xf3
 11028 2fb7 01       		.uleb128 0x1
 11029 2fb8 50       		.byte	0x50
 11030 2fb9 00       		.byte	0
 11031 2fba 00       		.byte	0
 11032 2fbb 29       		.uleb128 0x29
 11033 2fbc D3010000 		.4byte	.LASF314
 11034 2fc0 01       		.byte	0x1
 11035 2fc1 9A04     		.2byte	0x49a
ARM GAS  C:\Users\d3bug\AppData\Local\Temp\ccFiAZjI.s 			page 243


 11036 2fc3 00000000 		.4byte	.LFB45
 11037 2fc7 16000000 		.4byte	.LFE45-.LFB45
 11038 2fcb 01       		.uleb128 0x1
 11039 2fcc 9C       		.byte	0x9c
 11040 2fcd 0C300000 		.4byte	0x300c
 11041 2fd1 23       		.uleb128 0x23
 11042 2fd2 6F626A00 		.ascii	"obj\000"
 11043 2fd6 01       		.byte	0x1
 11044 2fd7 9A04     		.2byte	0x49a
 11045 2fd9 BC0D0000 		.4byte	0xdbc
 11046 2fdd 8B140000 		.4byte	.LLST123
 11047 2fe1 30       		.uleb128 0x30
 11048 2fe2 0E000000 		.4byte	.LVL587
 11049 2fe6 FB2F0000 		.4byte	0x2ffb
 11050 2fea 27       		.uleb128 0x27
 11051 2feb 01       		.uleb128 0x1
 11052 2fec 50       		.byte	0x50
 11053 2fed 02       		.uleb128 0x2
 11054 2fee 74       		.byte	0x74
 11055 2fef 00       		.sleb128 0
 11056 2ff0 27       		.uleb128 0x27
 11057 2ff1 01       		.uleb128 0x1
 11058 2ff2 51       		.byte	0x51
 11059 2ff3 01       		.uleb128 0x1
 11060 2ff4 34       		.byte	0x34
 11061 2ff5 27       		.uleb128 0x27
 11062 2ff6 01       		.uleb128 0x1
 11063 2ff7 52       		.byte	0x52
 11064 2ff8 01       		.uleb128 0x1
 11065 2ff9 30       		.byte	0x30
 11066 2ffa 00       		.byte	0
 11067 2ffb 28       		.uleb128 0x28
 11068 2ffc 14000000 		.4byte	.LVL588
 11069 3000 86160000 		.4byte	0x1686
 11070 3004 27       		.uleb128 0x27
 11071 3005 01       		.uleb128 0x1
 11072 3006 50       		.byte	0x50
 11073 3007 02       		.uleb128 0x2
 11074 3008 74       		.byte	0x74
 11075 3009 00       		.sleb128 0
 11076 300a 00       		.byte	0
 11077 300b 00       		.byte	0
 11078 300c 2B       		.uleb128 0x2b
 11079 300d A2020000 		.4byte	.LASF315
 11080 3011 01       		.byte	0x1
 11081 3012 2306     		.2byte	0x623
 11082 3014 1C060000 		.4byte	0x61c
 11083 3018 00000000 		.4byte	.LFB65
 11084 301c 0A000000 		.4byte	.LFE65-.LFB65
 11085 3020 01       		.uleb128 0x1
 11086 3021 9C       		.byte	0x9c
 11087 3022 37300000 		.4byte	0x3037
 11088 3026 23       		.uleb128 0x23
 11089 3027 6F626A00 		.ascii	"obj\000"
 11090 302b 01       		.byte	0x1
 11091 302c 2306     		.2byte	0x623
 11092 302e 1E110000 		.4byte	0x111e
ARM GAS  C:\Users\d3bug\AppData\Local\Temp\ccFiAZjI.s 			page 244


 11093 3032 A9140000 		.4byte	.LLST124
 11094 3036 00       		.byte	0
 11095 3037 2B       		.uleb128 0x2b
 11096 3038 C0050000 		.4byte	.LASF316
 11097 303c 01       		.byte	0x1
 11098 303d 2D06     		.2byte	0x62d
 11099 303f 1C060000 		.4byte	0x61c
 11100 3043 00000000 		.4byte	.LFB66
 11101 3047 0A000000 		.4byte	.LFE66-.LFB66
 11102 304b 01       		.uleb128 0x1
 11103 304c 9C       		.byte	0x9c
 11104 304d 62300000 		.4byte	0x3062
 11105 3051 23       		.uleb128 0x23
 11106 3052 6F626A00 		.ascii	"obj\000"
 11107 3056 01       		.byte	0x1
 11108 3057 2D06     		.2byte	0x62d
 11109 3059 1E110000 		.4byte	0x111e
 11110 305d CA140000 		.4byte	.LLST125
 11111 3061 00       		.byte	0
 11112 3062 2B       		.uleb128 0x2b
 11113 3063 AC000000 		.4byte	.LASF317
 11114 3067 01       		.byte	0x1
 11115 3068 3706     		.2byte	0x637
 11116 306a 1C060000 		.4byte	0x61c
 11117 306e 00000000 		.4byte	.LFB67
 11118 3072 0A000000 		.4byte	.LFE67-.LFB67
 11119 3076 01       		.uleb128 0x1
 11120 3077 9C       		.byte	0x9c
 11121 3078 8D300000 		.4byte	0x308d
 11122 307c 23       		.uleb128 0x23
 11123 307d 6F626A00 		.ascii	"obj\000"
 11124 3081 01       		.byte	0x1
 11125 3082 3706     		.2byte	0x637
 11126 3084 1E110000 		.4byte	0x111e
 11127 3088 EB140000 		.4byte	.LLST126
 11128 308c 00       		.byte	0
 11129 308d 2B       		.uleb128 0x2b
 11130 308e 6C090000 		.4byte	.LASF318
 11131 3092 01       		.byte	0x1
 11132 3093 4106     		.2byte	0x641
 11133 3095 1C060000 		.4byte	0x61c
 11134 3099 00000000 		.4byte	.LFB68
 11135 309d 0A000000 		.4byte	.LFE68-.LFB68
 11136 30a1 01       		.uleb128 0x1
 11137 30a2 9C       		.byte	0x9c
 11138 30a3 B8300000 		.4byte	0x30b8
 11139 30a7 23       		.uleb128 0x23
 11140 30a8 6F626A00 		.ascii	"obj\000"
 11141 30ac 01       		.byte	0x1
 11142 30ad 4106     		.2byte	0x641
 11143 30af 1E110000 		.4byte	0x111e
 11144 30b3 0C150000 		.4byte	.LLST127
 11145 30b7 00       		.byte	0
 11146 30b8 2B       		.uleb128 0x2b
 11147 30b9 F7110000 		.4byte	.LASF319
 11148 30bd 01       		.byte	0x1
 11149 30be 4B06     		.2byte	0x64b
ARM GAS  C:\Users\d3bug\AppData\Local\Temp\ccFiAZjI.s 			page 245


 11150 30c0 1C060000 		.4byte	0x61c
 11151 30c4 00000000 		.4byte	.LFB69
 11152 30c8 0A000000 		.4byte	.LFE69-.LFB69
 11153 30cc 01       		.uleb128 0x1
 11154 30cd 9C       		.byte	0x9c
 11155 30ce E3300000 		.4byte	0x30e3
 11156 30d2 23       		.uleb128 0x23
 11157 30d3 6F626A00 		.ascii	"obj\000"
 11158 30d7 01       		.byte	0x1
 11159 30d8 4B06     		.2byte	0x64b
 11160 30da 1E110000 		.4byte	0x111e
 11161 30de 2D150000 		.4byte	.LLST128
 11162 30e2 00       		.byte	0
 11163 30e3 2B       		.uleb128 0x2b
 11164 30e4 33000000 		.4byte	.LASF320
 11165 30e8 01       		.byte	0x1
 11166 30e9 5506     		.2byte	0x655
 11167 30eb 7C010000 		.4byte	0x17c
 11168 30ef 00000000 		.4byte	.LFB70
 11169 30f3 0A000000 		.4byte	.LFE70-.LFB70
 11170 30f7 01       		.uleb128 0x1
 11171 30f8 9C       		.byte	0x9c
 11172 30f9 0E310000 		.4byte	0x310e
 11173 30fd 23       		.uleb128 0x23
 11174 30fe 6F626A00 		.ascii	"obj\000"
 11175 3102 01       		.byte	0x1
 11176 3103 5506     		.2byte	0x655
 11177 3105 1E110000 		.4byte	0x111e
 11178 3109 4E150000 		.4byte	.LLST129
 11179 310d 00       		.byte	0
 11180 310e 2B       		.uleb128 0x2b
 11181 310f 8C110000 		.4byte	.LASF321
 11182 3113 01       		.byte	0x1
 11183 3114 5F06     		.2byte	0x65f
 11184 3116 7C010000 		.4byte	0x17c
 11185 311a 00000000 		.4byte	.LFB71
 11186 311e 20000000 		.4byte	.LFE71-.LFB71
 11187 3122 01       		.uleb128 0x1
 11188 3123 9C       		.byte	0x9c
 11189 3124 52310000 		.4byte	0x3152
 11190 3128 23       		.uleb128 0x23
 11191 3129 6F626A00 		.ascii	"obj\000"
 11192 312d 01       		.byte	0x1
 11193 312e 5F06     		.2byte	0x65f
 11194 3130 1E110000 		.4byte	0x111e
 11195 3134 6F150000 		.4byte	.LLST130
 11196 3138 2F       		.uleb128 0x2f
 11197 3139 480A0000 		.4byte	.LASF261
 11198 313d 01       		.byte	0x1
 11199 313e 6106     		.2byte	0x661
 11200 3140 1E110000 		.4byte	0x111e
 11201 3144 90150000 		.4byte	.LLST131
 11202 3148 2C       		.uleb128 0x2c
 11203 3149 18000000 		.4byte	.LVL606
 11204 314d F3100000 		.4byte	0x10f3
 11205 3151 00       		.byte	0
 11206 3152 41       		.uleb128 0x41
ARM GAS  C:\Users\d3bug\AppData\Local\Temp\ccFiAZjI.s 			page 246


 11207 3153 23040000 		.4byte	.LASF327
 11208 3157 01       		.byte	0x1
 11209 3158 FF06     		.2byte	0x6ff
 11210 315a 1C060000 		.4byte	0x61c
 11211 315e 00000000 		.4byte	.LFB80
 11212 3162 9E000000 		.4byte	.LFE80-.LFB80
 11213 3166 01       		.uleb128 0x1
 11214 3167 9C       		.byte	0x9c
 11215 3168 A3320000 		.4byte	0x32a3
 11216 316c 23       		.uleb128 0x23
 11217 316d 6F626A00 		.ascii	"obj\000"
 11218 3171 01       		.byte	0x1
 11219 3172 FF06     		.2byte	0x6ff
 11220 3174 BC0D0000 		.4byte	0xdbc
 11221 3178 B9150000 		.4byte	.LLST132
 11222 317c 24       		.uleb128 0x24
 11223 317d 67140000 		.4byte	.LASF322
 11224 3181 01       		.byte	0x1
 11225 3182 FF06     		.2byte	0x6ff
 11226 3184 3B070000 		.4byte	0x73b
 11227 3188 03160000 		.4byte	.LLST133
 11228 318c 24       		.uleb128 0x24
 11229 318d 01110000 		.4byte	.LASF323
 11230 3191 01       		.byte	0x1
 11231 3192 FF06     		.2byte	0x6ff
 11232 3194 E7050000 		.4byte	0x5e7
 11233 3198 4D160000 		.4byte	.LLST134
 11234 319c 35       		.uleb128 0x35
 11235 319d 0C000000 		.4byte	.LBB31
 11236 31a1 68000000 		.4byte	.LBE31-.LBB31
 11237 31a5 4F320000 		.4byte	0x324f
 11238 31a9 2F       		.uleb128 0x2f
 11239 31aa 530C0000 		.4byte	.LASF308
 11240 31ae 01       		.byte	0x1
 11241 31af 0507     		.2byte	0x705
 11242 31b1 2D090000 		.4byte	0x92d
 11243 31b5 A0160000 		.4byte	.LLST135
 11244 31b9 25       		.uleb128 0x25
 11245 31ba 7200     		.ascii	"r\000"
 11246 31bc 01       		.byte	0x1
 11247 31bd 0807     		.2byte	0x708
 11248 31bf B4000000 		.4byte	0xb4
 11249 31c3 B3160000 		.4byte	.LLST136
 11250 31c7 33       		.uleb128 0x33
 11251 31c8 EF070000 		.4byte	.LASF324
 11252 31cc 01       		.byte	0x1
 11253 31cd 0C07     		.2byte	0x70c
 11254 31cf 0A020000 		.4byte	0x20a
 11255 31d3 02       		.uleb128 0x2
 11256 31d4 91       		.byte	0x91
 11257 31d5 60       		.sleb128 -32
 11258 31d6 26       		.uleb128 0x26
 11259 31d7 10000000 		.4byte	.LVL609
 11260 31db 08160000 		.4byte	0x1608
 11261 31df EA310000 		.4byte	0x31ea
 11262 31e3 27       		.uleb128 0x27
 11263 31e4 01       		.uleb128 0x1
ARM GAS  C:\Users\d3bug\AppData\Local\Temp\ccFiAZjI.s 			page 247


 11264 31e5 50       		.byte	0x50
 11265 31e6 02       		.uleb128 0x2
 11266 31e7 74       		.byte	0x74
 11267 31e8 00       		.sleb128 0
 11268 31e9 00       		.byte	0
 11269 31ea 26       		.uleb128 0x26
 11270 31eb 2A000000 		.4byte	.LVL612
 11271 31ef 1E140000 		.4byte	0x141e
 11272 31f3 04320000 		.4byte	0x3204
 11273 31f7 27       		.uleb128 0x27
 11274 31f8 01       		.uleb128 0x1
 11275 31f9 50       		.byte	0x50
 11276 31fa 02       		.uleb128 0x2
 11277 31fb 74       		.byte	0x74
 11278 31fc 00       		.sleb128 0
 11279 31fd 27       		.uleb128 0x27
 11280 31fe 01       		.uleb128 0x1
 11281 31ff 51       		.byte	0x51
 11282 3200 02       		.uleb128 0x2
 11283 3201 7D       		.byte	0x7d
 11284 3202 00       		.sleb128 0
 11285 3203 00       		.byte	0
 11286 3204 26       		.uleb128 0x26
 11287 3205 46000000 		.4byte	.LVL613
 11288 3209 F8360000 		.4byte	0x36f8
 11289 320d 1E320000 		.4byte	0x321e
 11290 3211 27       		.uleb128 0x27
 11291 3212 01       		.uleb128 0x1
 11292 3213 50       		.byte	0x50
 11293 3214 02       		.uleb128 0x2
 11294 3215 75       		.byte	0x75
 11295 3216 00       		.sleb128 0
 11296 3217 27       		.uleb128 0x27
 11297 3218 01       		.uleb128 0x1
 11298 3219 51       		.byte	0x51
 11299 321a 02       		.uleb128 0x2
 11300 321b 7D       		.byte	0x7d
 11301 321c 00       		.sleb128 0
 11302 321d 00       		.byte	0
 11303 321e 26       		.uleb128 0x26
 11304 321f 50000000 		.4byte	.LVL614
 11305 3223 1E140000 		.4byte	0x141e
 11306 3227 38320000 		.4byte	0x3238
 11307 322b 27       		.uleb128 0x27
 11308 322c 01       		.uleb128 0x1
 11309 322d 50       		.byte	0x50
 11310 322e 02       		.uleb128 0x2
 11311 322f 74       		.byte	0x74
 11312 3230 00       		.sleb128 0
 11313 3231 27       		.uleb128 0x27
 11314 3232 01       		.uleb128 0x1
 11315 3233 51       		.byte	0x51
 11316 3234 02       		.uleb128 0x2
 11317 3235 7D       		.byte	0x7d
 11318 3236 00       		.sleb128 0
 11319 3237 00       		.byte	0
 11320 3238 28       		.uleb128 0x28
ARM GAS  C:\Users\d3bug\AppData\Local\Temp\ccFiAZjI.s 			page 248


 11321 3239 6C000000 		.4byte	.LVL616
 11322 323d F8360000 		.4byte	0x36f8
 11323 3241 27       		.uleb128 0x27
 11324 3242 01       		.uleb128 0x1
 11325 3243 50       		.byte	0x50
 11326 3244 02       		.uleb128 0x2
 11327 3245 75       		.byte	0x75
 11328 3246 00       		.sleb128 0
 11329 3247 27       		.uleb128 0x27
 11330 3248 01       		.uleb128 0x1
 11331 3249 51       		.byte	0x51
 11332 324a 02       		.uleb128 0x2
 11333 324b 7D       		.byte	0x7d
 11334 324c 00       		.sleb128 0
 11335 324d 00       		.byte	0
 11336 324e 00       		.byte	0
 11337 324f 34       		.uleb128 0x34
 11338 3250 76000000 		.4byte	.LBB32
 11339 3254 1C000000 		.4byte	.LBE32-.LBB32
 11340 3258 2F       		.uleb128 0x2f
 11341 3259 530C0000 		.4byte	.LASF308
 11342 325d 01       		.byte	0x1
 11343 325e 1B07     		.2byte	0x71b
 11344 3260 2D090000 		.4byte	0x92d
 11345 3264 C6160000 		.4byte	.LLST137
 11346 3268 2C       		.uleb128 0x2c
 11347 3269 7A000000 		.4byte	.LVL618
 11348 326d 08160000 		.4byte	0x1608
 11349 3271 26       		.uleb128 0x26
 11350 3272 86000000 		.4byte	.LVL621
 11351 3276 0E310000 		.4byte	0x310e
 11352 327a 85320000 		.4byte	0x3285
 11353 327e 27       		.uleb128 0x27
 11354 327f 01       		.uleb128 0x1
 11355 3280 50       		.byte	0x50
 11356 3281 02       		.uleb128 0x2
 11357 3282 74       		.byte	0x74
 11358 3283 00       		.sleb128 0
 11359 3284 00       		.byte	0
 11360 3285 28       		.uleb128 0x28
 11361 3286 92000000 		.4byte	.LVL622
 11362 328a 03370000 		.4byte	0x3703
 11363 328e 27       		.uleb128 0x27
 11364 328f 01       		.uleb128 0x1
 11365 3290 50       		.byte	0x50
 11366 3291 02       		.uleb128 0x2
 11367 3292 76       		.byte	0x76
 11368 3293 00       		.sleb128 0
 11369 3294 27       		.uleb128 0x27
 11370 3295 01       		.uleb128 0x1
 11371 3296 51       		.byte	0x51
 11372 3297 02       		.uleb128 0x2
 11373 3298 75       		.byte	0x75
 11374 3299 00       		.sleb128 0
 11375 329a 27       		.uleb128 0x27
 11376 329b 01       		.uleb128 0x1
 11377 329c 52       		.byte	0x52
ARM GAS  C:\Users\d3bug\AppData\Local\Temp\ccFiAZjI.s 			page 249


 11378 329d 02       		.uleb128 0x2
 11379 329e 77       		.byte	0x77
 11380 329f 00       		.sleb128 0
 11381 32a0 00       		.byte	0
 11382 32a1 00       		.byte	0
 11383 32a2 00       		.byte	0
 11384 32a3 2B       		.uleb128 0x2b
 11385 32a4 A9080000 		.4byte	.LASF325
 11386 32a8 01       		.byte	0x1
 11387 32a9 7006     		.2byte	0x670
 11388 32ab 9E000000 		.4byte	0x9e
 11389 32af 00000000 		.4byte	.LFB72
 11390 32b3 06000000 		.4byte	.LFE72-.LFB72
 11391 32b7 01       		.uleb128 0x1
 11392 32b8 9C       		.byte	0x9c
 11393 32b9 CE320000 		.4byte	0x32ce
 11394 32bd 23       		.uleb128 0x23
 11395 32be 6F626A00 		.ascii	"obj\000"
 11396 32c2 01       		.byte	0x1
 11397 32c3 7006     		.2byte	0x670
 11398 32c5 1E110000 		.4byte	0x111e
 11399 32c9 E4160000 		.4byte	.LLST138
 11400 32cd 00       		.byte	0
 11401 32ce 2B       		.uleb128 0x2b
 11402 32cf 68010000 		.4byte	.LASF326
 11403 32d3 01       		.byte	0x1
 11404 32d4 7B06     		.2byte	0x67b
 11405 32d6 1C060000 		.4byte	0x61c
 11406 32da 00000000 		.4byte	.LFB73
 11407 32de 0E000000 		.4byte	.LFE73-.LFB73
 11408 32e2 01       		.uleb128 0x1
 11409 32e3 9C       		.byte	0x9c
 11410 32e4 07330000 		.4byte	0x3307
 11411 32e8 23       		.uleb128 0x23
 11412 32e9 6F626A00 		.ascii	"obj\000"
 11413 32ed 01       		.byte	0x1
 11414 32ee 7B06     		.2byte	0x67b
 11415 32f0 1E110000 		.4byte	0x111e
 11416 32f4 05170000 		.4byte	.LLST139
 11417 32f8 2D       		.uleb128 0x2d
 11418 32f9 D10B0000 		.4byte	.LASF234
 11419 32fd 01       		.byte	0x1
 11420 32fe 7B06     		.2byte	0x67b
 11421 3300 9E000000 		.4byte	0x9e
 11422 3304 01       		.uleb128 0x1
 11423 3305 51       		.byte	0x51
 11424 3306 00       		.byte	0
 11425 3307 41       		.uleb128 0x41
 11426 3308 010F0000 		.4byte	.LASF328
 11427 330c 01       		.byte	0x1
 11428 330d 2907     		.2byte	0x729
 11429 330f 5F070000 		.4byte	0x75f
 11430 3313 00000000 		.4byte	.LFB81
 11431 3317 78000000 		.4byte	.LFE81-.LFB81
 11432 331b 01       		.uleb128 0x1
 11433 331c 9C       		.byte	0x9c
 11434 331d F6330000 		.4byte	0x33f6
ARM GAS  C:\Users\d3bug\AppData\Local\Temp\ccFiAZjI.s 			page 250


 11435 3321 23       		.uleb128 0x23
 11436 3322 6F626A00 		.ascii	"obj\000"
 11437 3326 01       		.byte	0x1
 11438 3327 2907     		.2byte	0x729
 11439 3329 BC0D0000 		.4byte	0xdbc
 11440 332d 26170000 		.4byte	.LLST140
 11441 3331 24       		.uleb128 0x24
 11442 3332 4A010000 		.4byte	.LASF329
 11443 3336 01       		.byte	0x1
 11444 3337 2907     		.2byte	0x729
 11445 3339 F5070000 		.4byte	0x7f5
 11446 333d 52170000 		.4byte	.LLST141
 11447 3341 24       		.uleb128 0x24
 11448 3342 D3080000 		.4byte	.LASF330
 11449 3346 01       		.byte	0x1
 11450 3347 2907     		.2byte	0x729
 11451 3349 8E010000 		.4byte	0x18e
 11452 334d 73170000 		.4byte	.LLST142
 11453 3351 25       		.uleb128 0x25
 11454 3352 72657300 		.ascii	"res\000"
 11455 3356 01       		.byte	0x1
 11456 3357 2D07     		.2byte	0x72d
 11457 3359 5F070000 		.4byte	0x75f
 11458 335d 9F170000 		.4byte	.LLST143
 11459 3361 2F       		.uleb128 0x2f
 11460 3362 530C0000 		.4byte	.LASF308
 11461 3366 01       		.byte	0x1
 11462 3367 2F07     		.2byte	0x72f
 11463 3369 2D090000 		.4byte	0x92d
 11464 336d BE170000 		.4byte	.LLST144
 11465 3371 2F       		.uleb128 0x2f
 11466 3372 12020000 		.4byte	.LASF331
 11467 3376 01       		.byte	0x1
 11468 3377 3107     		.2byte	0x731
 11469 3379 66120000 		.4byte	0x1266
 11470 337d DC170000 		.4byte	.LLST145
 11471 3381 35       		.uleb128 0x35
 11472 3382 60000000 		.4byte	.LBB33
 11473 3386 04000000 		.4byte	.LBE33-.LBB33
 11474 338a 9F330000 		.4byte	0x339f
 11475 338e 25       		.uleb128 0x25
 11476 338f 62756600 		.ascii	"buf\000"
 11477 3393 01       		.byte	0x1
 11478 3394 4007     		.2byte	0x740
 11479 3396 F6330000 		.4byte	0x33f6
 11480 339a EF170000 		.4byte	.LLST146
 11481 339e 00       		.byte	0
 11482 339f 26       		.uleb128 0x26
 11483 33a0 0C000000 		.4byte	.LVL631
 11484 33a4 08160000 		.4byte	0x1608
 11485 33a8 B3330000 		.4byte	0x33b3
 11486 33ac 27       		.uleb128 0x27
 11487 33ad 01       		.uleb128 0x1
 11488 33ae 50       		.byte	0x50
 11489 33af 02       		.uleb128 0x2
 11490 33b0 75       		.byte	0x75
 11491 33b1 00       		.sleb128 0
ARM GAS  C:\Users\d3bug\AppData\Local\Temp\ccFiAZjI.s 			page 251


 11492 33b2 00       		.byte	0
 11493 33b3 2C       		.uleb128 0x2c
 11494 33b4 12000000 		.4byte	.LVL633
 11495 33b8 0E370000 		.4byte	0x370e
 11496 33bc 30       		.uleb128 0x30
 11497 33bd 26000000 		.4byte	.LVL634
 11498 33c1 CC330000 		.4byte	0x33cc
 11499 33c5 27       		.uleb128 0x27
 11500 33c6 01       		.uleb128 0x1
 11501 33c7 51       		.byte	0x51
 11502 33c8 02       		.uleb128 0x2
 11503 33c9 74       		.byte	0x74
 11504 33ca 00       		.sleb128 0
 11505 33cb 00       		.byte	0
 11506 33cc 26       		.uleb128 0x26
 11507 33cd 32000000 		.4byte	.LVL635
 11508 33d1 CE320000 		.4byte	0x32ce
 11509 33d5 E5330000 		.4byte	0x33e5
 11510 33d9 27       		.uleb128 0x27
 11511 33da 01       		.uleb128 0x1
 11512 33db 50       		.byte	0x50
 11513 33dc 02       		.uleb128 0x2
 11514 33dd 75       		.byte	0x75
 11515 33de 00       		.sleb128 0
 11516 33df 27       		.uleb128 0x27
 11517 33e0 01       		.uleb128 0x1
 11518 33e1 51       		.byte	0x51
 11519 33e2 01       		.uleb128 0x1
 11520 33e3 31       		.byte	0x31
 11521 33e4 00       		.byte	0
 11522 33e5 28       		.uleb128 0x28
 11523 33e6 58000000 		.4byte	.LVL638
 11524 33ea BB2F0000 		.4byte	0x2fbb
 11525 33ee 27       		.uleb128 0x27
 11526 33ef 01       		.uleb128 0x1
 11527 33f0 50       		.byte	0x50
 11528 33f1 02       		.uleb128 0x2
 11529 33f2 75       		.byte	0x75
 11530 33f3 00       		.sleb128 0
 11531 33f4 00       		.byte	0
 11532 33f5 00       		.byte	0
 11533 33f6 0B       		.uleb128 0xb
 11534 33f7 04       		.byte	0x4
 11535 33f8 9A090000 		.4byte	0x99a
 11536 33fc 2B       		.uleb128 0x2b
 11537 33fd 760D0000 		.4byte	.LASF332
 11538 3401 01       		.byte	0x1
 11539 3402 8506     		.2byte	0x685
 11540 3404 00080000 		.4byte	0x800
 11541 3408 00000000 		.4byte	.LFB74
 11542 340c 04000000 		.4byte	.LFE74-.LFB74
 11543 3410 01       		.uleb128 0x1
 11544 3411 9C       		.byte	0x9c
 11545 3412 27340000 		.4byte	0x3427
 11546 3416 23       		.uleb128 0x23
 11547 3417 6F626A00 		.ascii	"obj\000"
 11548 341b 01       		.byte	0x1
ARM GAS  C:\Users\d3bug\AppData\Local\Temp\ccFiAZjI.s 			page 252


 11549 341c 8506     		.2byte	0x685
 11550 341e 1E110000 		.4byte	0x111e
 11551 3422 02180000 		.4byte	.LLST147
 11552 3426 00       		.byte	0
 11553 3427 2B       		.uleb128 0x2b
 11554 3428 92080000 		.4byte	.LASF333
 11555 342c 01       		.byte	0x1
 11556 342d 8F06     		.2byte	0x68f
 11557 342f F2050000 		.4byte	0x5f2
 11558 3433 00000000 		.4byte	.LFB75
 11559 3437 04000000 		.4byte	.LFE75-.LFB75
 11560 343b 01       		.uleb128 0x1
 11561 343c 9C       		.byte	0x9c
 11562 343d 52340000 		.4byte	0x3452
 11563 3441 23       		.uleb128 0x23
 11564 3442 6F626A00 		.ascii	"obj\000"
 11565 3446 01       		.byte	0x1
 11566 3447 8F06     		.2byte	0x68f
 11567 3449 1E110000 		.4byte	0x111e
 11568 344d 23180000 		.4byte	.LLST148
 11569 3451 00       		.byte	0
 11570 3452 2B       		.uleb128 0x2b
 11571 3453 AC050000 		.4byte	.LASF334
 11572 3457 01       		.byte	0x1
 11573 3458 9E06     		.2byte	0x69e
 11574 345a 8E010000 		.4byte	0x18e
 11575 345e 00000000 		.4byte	.LFB76
 11576 3462 04000000 		.4byte	.LFE76-.LFB76
 11577 3466 01       		.uleb128 0x1
 11578 3467 9C       		.byte	0x9c
 11579 3468 7D340000 		.4byte	0x347d
 11580 346c 23       		.uleb128 0x23
 11581 346d 6F626A00 		.ascii	"obj\000"
 11582 3471 01       		.byte	0x1
 11583 3472 9E06     		.2byte	0x69e
 11584 3474 1E110000 		.4byte	0x111e
 11585 3478 44180000 		.4byte	.LLST149
 11586 347c 00       		.byte	0
 11587 347d 29       		.uleb128 0x29
 11588 347e 4F000000 		.4byte	.LASF335
 11589 3482 01       		.byte	0x1
 11590 3483 A906     		.2byte	0x6a9
 11591 3485 00000000 		.4byte	.LFB77
 11592 3489 66000000 		.4byte	.LFE77-.LFB77
 11593 348d 01       		.uleb128 0x1
 11594 348e 9C       		.byte	0x9c
 11595 348f 36350000 		.4byte	0x3536
 11596 3493 23       		.uleb128 0x23
 11597 3494 6F626A00 		.ascii	"obj\000"
 11598 3498 01       		.byte	0x1
 11599 3499 A906     		.2byte	0x6a9
 11600 349b BC0D0000 		.4byte	0xdbc
 11601 349f 65180000 		.4byte	.LLST150
 11602 34a3 23       		.uleb128 0x23
 11603 34a4 62756600 		.ascii	"buf\000"
 11604 34a8 01       		.byte	0x1
 11605 34a9 A906     		.2byte	0x6a9
ARM GAS  C:\Users\d3bug\AppData\Local\Temp\ccFiAZjI.s 			page 253


 11606 34ab F6330000 		.4byte	0x33f6
 11607 34af 83180000 		.4byte	.LLST151
 11608 34b3 38       		.uleb128 0x38
 11609 34b4 746D7000 		.ascii	"tmp\000"
 11610 34b8 01       		.byte	0x1
 11611 34b9 AB06     		.2byte	0x6ab
 11612 34bb 9A090000 		.4byte	0x99a
 11613 34bf 02       		.uleb128 0x2
 11614 34c0 91       		.byte	0x91
 11615 34c1 50       		.sleb128 -48
 11616 34c2 25       		.uleb128 0x25
 11617 34c3 636E7400 		.ascii	"cnt\000"
 11618 34c7 01       		.byte	0x1
 11619 34c8 B206     		.2byte	0x6b2
 11620 34ca 9E000000 		.4byte	0x9e
 11621 34ce A1180000 		.4byte	.LLST152
 11622 34d2 25       		.uleb128 0x25
 11623 34d3 6900     		.ascii	"i\000"
 11624 34d5 01       		.byte	0x1
 11625 34d6 B906     		.2byte	0x6b9
 11626 34d8 9E000000 		.4byte	0x9e
 11627 34dc CB180000 		.4byte	.LLST153
 11628 34e0 26       		.uleb128 0x26
 11629 34e1 14000000 		.4byte	.LVL655
 11630 34e5 19370000 		.4byte	0x3719
 11631 34e9 FF340000 		.4byte	0x34ff
 11632 34ed 27       		.uleb128 0x27
 11633 34ee 01       		.uleb128 0x1
 11634 34ef 50       		.byte	0x50
 11635 34f0 02       		.uleb128 0x2
 11636 34f1 74       		.byte	0x74
 11637 34f2 00       		.sleb128 0
 11638 34f3 27       		.uleb128 0x27
 11639 34f4 01       		.uleb128 0x1
 11640 34f5 51       		.byte	0x51
 11641 34f6 01       		.uleb128 0x1
 11642 34f7 30       		.byte	0x30
 11643 34f8 27       		.uleb128 0x27
 11644 34f9 01       		.uleb128 0x1
 11645 34fa 52       		.byte	0x52
 11646 34fb 02       		.uleb128 0x2
 11647 34fc 76       		.byte	0x76
 11648 34fd 00       		.sleb128 0
 11649 34fe 00       		.byte	0
 11650 34ff 26       		.uleb128 0x26
 11651 3500 1E000000 		.4byte	.LVL656
 11652 3504 19370000 		.4byte	0x3719
 11653 3508 1E350000 		.4byte	0x351e
 11654 350c 27       		.uleb128 0x27
 11655 350d 01       		.uleb128 0x1
 11656 350e 50       		.byte	0x50
 11657 350f 02       		.uleb128 0x2
 11658 3510 7D       		.byte	0x7d
 11659 3511 00       		.sleb128 0
 11660 3512 27       		.uleb128 0x27
 11661 3513 01       		.uleb128 0x1
 11662 3514 51       		.byte	0x51
ARM GAS  C:\Users\d3bug\AppData\Local\Temp\ccFiAZjI.s 			page 254


 11663 3515 01       		.uleb128 0x1
 11664 3516 30       		.byte	0x30
 11665 3517 27       		.uleb128 0x27
 11666 3518 01       		.uleb128 0x1
 11667 3519 52       		.byte	0x52
 11668 351a 02       		.uleb128 0x2
 11669 351b 76       		.byte	0x76
 11670 351c 00       		.sleb128 0
 11671 351d 00       		.byte	0
 11672 351e 37       		.uleb128 0x37
 11673 351f 28000000 		.4byte	.LVL657
 11674 3523 27       		.uleb128 0x27
 11675 3524 01       		.uleb128 0x1
 11676 3525 50       		.byte	0x50
 11677 3526 02       		.uleb128 0x2
 11678 3527 75       		.byte	0x75
 11679 3528 00       		.sleb128 0
 11680 3529 27       		.uleb128 0x27
 11681 352a 01       		.uleb128 0x1
 11682 352b 51       		.byte	0x51
 11683 352c 01       		.uleb128 0x1
 11684 352d 36       		.byte	0x36
 11685 352e 27       		.uleb128 0x27
 11686 352f 01       		.uleb128 0x1
 11687 3530 52       		.byte	0x52
 11688 3531 02       		.uleb128 0x2
 11689 3532 7D       		.byte	0x7d
 11690 3533 00       		.sleb128 0
 11691 3534 00       		.byte	0
 11692 3535 00       		.byte	0
 11693 3536 2B       		.uleb128 0x2b
 11694 3537 2A140000 		.4byte	.LASF336
 11695 353b 01       		.byte	0x1
 11696 353c C506     		.2byte	0x6c5
 11697 353e BF000000 		.4byte	0xbf
 11698 3542 00000000 		.4byte	.LFB78
 11699 3546 04000000 		.4byte	.LFE78-.LFB78
 11700 354a 01       		.uleb128 0x1
 11701 354b 9C       		.byte	0x9c
 11702 354c 61350000 		.4byte	0x3561
 11703 3550 23       		.uleb128 0x23
 11704 3551 6F626A00 		.ascii	"obj\000"
 11705 3555 01       		.byte	0x1
 11706 3556 C506     		.2byte	0x6c5
 11707 3558 1E110000 		.4byte	0x111e
 11708 355c F4180000 		.4byte	.LLST154
 11709 3560 00       		.byte	0
 11710 3561 2B       		.uleb128 0x2b
 11711 3562 2B010000 		.4byte	.LASF337
 11712 3566 01       		.byte	0x1
 11713 3567 D106     		.2byte	0x6d1
 11714 3569 8E010000 		.4byte	0x18e
 11715 356d 00000000 		.4byte	.LFB79
 11716 3571 04000000 		.4byte	.LFE79-.LFB79
 11717 3575 01       		.uleb128 0x1
 11718 3576 9C       		.byte	0x9c
 11719 3577 8C350000 		.4byte	0x358c
ARM GAS  C:\Users\d3bug\AppData\Local\Temp\ccFiAZjI.s 			page 255


 11720 357b 23       		.uleb128 0x23
 11721 357c 6F626A00 		.ascii	"obj\000"
 11722 3580 01       		.byte	0x1
 11723 3581 D106     		.2byte	0x6d1
 11724 3583 1E110000 		.4byte	0x111e
 11725 3587 15190000 		.4byte	.LLST155
 11726 358b 00       		.byte	0
 11727 358c 42       		.uleb128 0x42
 11728 358d 9D060000 		.4byte	.LASF338
 11729 3591 07       		.byte	0x7
 11730 3592 B0       		.byte	0xb0
 11731 3593 74050000 		.4byte	0x574
 11732 3597 42       		.uleb128 0x42
 11733 3598 E6130000 		.4byte	.LASF339
 11734 359c 07       		.byte	0x7
 11735 359d B2       		.byte	0xb2
 11736 359e 74050000 		.4byte	0x574
 11737 35a2 42       		.uleb128 0x42
 11738 35a3 280B0000 		.4byte	.LASF340
 11739 35a7 07       		.byte	0x7
 11740 35a8 B4       		.byte	0xb4
 11741 35a9 74050000 		.4byte	0x574
 11742 35ad 42       		.uleb128 0x42
 11743 35ae 4B060000 		.4byte	.LASF341
 11744 35b2 07       		.byte	0x7
 11745 35b3 B5       		.byte	0xb5
 11746 35b4 74050000 		.4byte	0x574
 11747 35b8 42       		.uleb128 0x42
 11748 35b9 B5110000 		.4byte	.LASF342
 11749 35bd 0C       		.byte	0xc
 11750 35be 38       		.byte	0x38
 11751 35bf BD050000 		.4byte	0x5bd
 11752 35c3 42       		.uleb128 0x42
 11753 35c4 AA0A0000 		.4byte	.LASF343
 11754 35c8 0C       		.byte	0xc
 11755 35c9 38       		.byte	0x38
 11756 35ca 8E010000 		.4byte	0x18e
 11757 35ce 42       		.uleb128 0x42
 11758 35cf 450D0000 		.4byte	.LASF344
 11759 35d3 0C       		.byte	0xc
 11760 35d4 38       		.byte	0x38
 11761 35d5 8E010000 		.4byte	0x18e
 11762 35d9 42       		.uleb128 0x42
 11763 35da 4B0E0000 		.4byte	.LASF345
 11764 35de 0C       		.byte	0xc
 11765 35df 38       		.byte	0x38
 11766 35e0 8E010000 		.4byte	0x18e
 11767 35e4 42       		.uleb128 0x42
 11768 35e5 960C0000 		.4byte	.LASF346
 11769 35e9 0C       		.byte	0xc
 11770 35ea 38       		.byte	0x38
 11771 35eb 8E010000 		.4byte	0x18e
 11772 35ef 42       		.uleb128 0x42
 11773 35f0 D60B0000 		.4byte	.LASF347
 11774 35f4 0C       		.byte	0xc
 11775 35f5 38       		.byte	0x38
 11776 35f6 8E010000 		.4byte	0x18e
ARM GAS  C:\Users\d3bug\AppData\Local\Temp\ccFiAZjI.s 			page 256


 11777 35fa 42       		.uleb128 0x42
 11778 35fb 01080000 		.4byte	.LASF348
 11779 35ff 0C       		.byte	0xc
 11780 3600 38       		.byte	0x38
 11781 3601 8E010000 		.4byte	0x18e
 11782 3605 43       		.uleb128 0x43
 11783 3606 C0130000 		.4byte	.LASF349
 11784 360a C0130000 		.4byte	.LASF349
 11785 360e 08       		.byte	0x8
 11786 360f 64       		.byte	0x64
 11787 3610 43       		.uleb128 0x43
 11788 3611 A90E0000 		.4byte	.LASF350
 11789 3615 A90E0000 		.4byte	.LASF350
 11790 3619 08       		.byte	0x8
 11791 361a 73       		.byte	0x73
 11792 361b 43       		.uleb128 0x43
 11793 361c 97120000 		.4byte	.LASF351
 11794 3620 97120000 		.4byte	.LASF351
 11795 3624 0D       		.byte	0xd
 11796 3625 57       		.byte	0x57
 11797 3626 43       		.uleb128 0x43
 11798 3627 400B0000 		.4byte	.LASF352
 11799 362b 400B0000 		.4byte	.LASF352
 11800 362f 0A       		.byte	0xa
 11801 3630 94       		.byte	0x94
 11802 3631 43       		.uleb128 0x43
 11803 3632 F00B0000 		.4byte	.LASF353
 11804 3636 F00B0000 		.4byte	.LASF353
 11805 363a 0E       		.byte	0xe
 11806 363b 37       		.byte	0x37
 11807 363c 43       		.uleb128 0x43
 11808 363d 5F120000 		.4byte	.LASF354
 11809 3641 5F120000 		.4byte	.LASF354
 11810 3645 08       		.byte	0x8
 11811 3646 4F       		.byte	0x4f
 11812 3647 43       		.uleb128 0x43
 11813 3648 87000000 		.4byte	.LASF355
 11814 364c 87000000 		.4byte	.LASF355
 11815 3650 0D       		.byte	0xd
 11816 3651 4E       		.byte	0x4e
 11817 3652 43       		.uleb128 0x43
 11818 3653 42090000 		.4byte	.LASF356
 11819 3657 42090000 		.4byte	.LASF356
 11820 365b 08       		.byte	0x8
 11821 365c 6B       		.byte	0x6b
 11822 365d 43       		.uleb128 0x43
 11823 365e 50120000 		.4byte	.LASF357
 11824 3662 50120000 		.4byte	.LASF357
 11825 3666 08       		.byte	0x8
 11826 3667 7B       		.byte	0x7b
 11827 3668 43       		.uleb128 0x43
 11828 3669 14030000 		.4byte	.LASF358
 11829 366d 14030000 		.4byte	.LASF358
 11830 3671 02       		.byte	0x2
 11831 3672 7E       		.byte	0x7e
 11832 3673 43       		.uleb128 0x43
 11833 3674 38130000 		.4byte	.LASF359
ARM GAS  C:\Users\d3bug\AppData\Local\Temp\ccFiAZjI.s 			page 257


 11834 3678 38130000 		.4byte	.LASF359
 11835 367c 0F       		.byte	0xf
 11836 367d 3C       		.byte	0x3c
 11837 367e 43       		.uleb128 0x43
 11838 367f B0120000 		.4byte	.LASF360
 11839 3683 B0120000 		.4byte	.LASF360
 11840 3687 10       		.byte	0x10
 11841 3688 3D       		.byte	0x3d
 11842 3689 43       		.uleb128 0x43
 11843 368a 07010000 		.4byte	.LASF361
 11844 368e 07010000 		.4byte	.LASF361
 11845 3692 08       		.byte	0x8
 11846 3693 38       		.byte	0x38
 11847 3694 43       		.uleb128 0x43
 11848 3695 BB100000 		.4byte	.LASF362
 11849 3699 BB100000 		.4byte	.LASF362
 11850 369d 08       		.byte	0x8
 11851 369e 31       		.byte	0x31
 11852 369f 44       		.uleb128 0x44
 11853 36a0 A6140000 		.4byte	.LASF363
 11854 36a4 A6140000 		.4byte	.LASF363
 11855 36a8 0B       		.byte	0xb
 11856 36a9 3501     		.2byte	0x135
 11857 36ab 43       		.uleb128 0x43
 11858 36ac 22070000 		.4byte	.LASF364
 11859 36b0 22070000 		.4byte	.LASF364
 11860 36b4 08       		.byte	0x8
 11861 36b5 5D       		.byte	0x5d
 11862 36b6 43       		.uleb128 0x43
 11863 36b7 BC000000 		.4byte	.LASF365
 11864 36bb BC000000 		.4byte	.LASF365
 11865 36bf 0D       		.byte	0xd
 11866 36c0 41       		.byte	0x41
 11867 36c1 43       		.uleb128 0x43
 11868 36c2 1C0F0000 		.4byte	.LASF366
 11869 36c6 1C0F0000 		.4byte	.LASF366
 11870 36ca 11       		.byte	0x11
 11871 36cb 48       		.byte	0x48
 11872 36cc 43       		.uleb128 0x43
 11873 36cd 95020000 		.4byte	.LASF367
 11874 36d1 95020000 		.4byte	.LASF367
 11875 36d5 06       		.byte	0x6
 11876 36d6 48       		.byte	0x48
 11877 36d7 43       		.uleb128 0x43
 11878 36d8 06040000 		.4byte	.LASF368
 11879 36dc 06040000 		.4byte	.LASF368
 11880 36e0 07       		.byte	0x7
 11881 36e1 90       		.byte	0x90
 11882 36e2 43       		.uleb128 0x43
 11883 36e3 CF020000 		.4byte	.LASF369
 11884 36e7 CF020000 		.4byte	.LASF369
 11885 36eb 0F       		.byte	0xf
 11886 36ec 2E       		.byte	0x2e
 11887 36ed 43       		.uleb128 0x43
 11888 36ee E1070000 		.4byte	.LASF370
 11889 36f2 E1070000 		.4byte	.LASF370
 11890 36f6 0E       		.byte	0xe
ARM GAS  C:\Users\d3bug\AppData\Local\Temp\ccFiAZjI.s 			page 258


 11891 36f7 23       		.byte	0x23
 11892 36f8 43       		.uleb128 0x43
 11893 36f9 61040000 		.4byte	.LASF371
 11894 36fd 61040000 		.4byte	.LASF371
 11895 3701 02       		.byte	0x2
 11896 3702 9E       		.byte	0x9e
 11897 3703 43       		.uleb128 0x43
 11898 3704 1A0D0000 		.4byte	.LASF372
 11899 3708 1A0D0000 		.4byte	.LASF372
 11900 370c 12       		.byte	0x12
 11901 370d 25       		.byte	0x25
 11902 370e 43       		.uleb128 0x43
 11903 370f C3060000 		.4byte	.LASF373
 11904 3713 C3060000 		.4byte	.LASF373
 11905 3717 0E       		.byte	0xe
 11906 3718 29       		.byte	0x29
 11907 3719 45       		.uleb128 0x45
 11908 371a A20E0000 		.4byte	.LASF379
 11909 371e A20E0000 		.4byte	.LASF379
 11910 3722 00       		.byte	0
 11911              		.section	.debug_abbrev,"",%progbits
 11912              	.Ldebug_abbrev0:
 11913 0000 01       		.uleb128 0x1
 11914 0001 11       		.uleb128 0x11
 11915 0002 01       		.byte	0x1
 11916 0003 25       		.uleb128 0x25
 11917 0004 0E       		.uleb128 0xe
 11918 0005 13       		.uleb128 0x13
 11919 0006 0B       		.uleb128 0xb
 11920 0007 03       		.uleb128 0x3
 11921 0008 0E       		.uleb128 0xe
 11922 0009 1B       		.uleb128 0x1b
 11923 000a 0E       		.uleb128 0xe
 11924 000b 55       		.uleb128 0x55
 11925 000c 17       		.uleb128 0x17
 11926 000d 11       		.uleb128 0x11
 11927 000e 01       		.uleb128 0x1
 11928 000f 10       		.uleb128 0x10
 11929 0010 17       		.uleb128 0x17
 11930 0011 00       		.byte	0
 11931 0012 00       		.byte	0
 11932 0013 02       		.uleb128 0x2
 11933 0014 24       		.uleb128 0x24
 11934 0015 00       		.byte	0
 11935 0016 0B       		.uleb128 0xb
 11936 0017 0B       		.uleb128 0xb
 11937 0018 3E       		.uleb128 0x3e
 11938 0019 0B       		.uleb128 0xb
 11939 001a 03       		.uleb128 0x3
 11940 001b 08       		.uleb128 0x8
 11941 001c 00       		.byte	0
 11942 001d 00       		.byte	0
 11943 001e 03       		.uleb128 0x3
 11944 001f 24       		.uleb128 0x24
 11945 0020 00       		.byte	0
 11946 0021 0B       		.uleb128 0xb
 11947 0022 0B       		.uleb128 0xb
ARM GAS  C:\Users\d3bug\AppData\Local\Temp\ccFiAZjI.s 			page 259


 11948 0023 3E       		.uleb128 0x3e
 11949 0024 0B       		.uleb128 0xb
 11950 0025 03       		.uleb128 0x3
 11951 0026 0E       		.uleb128 0xe
 11952 0027 00       		.byte	0
 11953 0028 00       		.byte	0
 11954 0029 04       		.uleb128 0x4
 11955 002a 16       		.uleb128 0x16
 11956 002b 00       		.byte	0
 11957 002c 03       		.uleb128 0x3
 11958 002d 0E       		.uleb128 0xe
 11959 002e 3A       		.uleb128 0x3a
 11960 002f 0B       		.uleb128 0xb
 11961 0030 3B       		.uleb128 0x3b
 11962 0031 0B       		.uleb128 0xb
 11963 0032 49       		.uleb128 0x49
 11964 0033 13       		.uleb128 0x13
 11965 0034 00       		.byte	0
 11966 0035 00       		.byte	0
 11967 0036 05       		.uleb128 0x5
 11968 0037 04       		.uleb128 0x4
 11969 0038 01       		.byte	0x1
 11970 0039 0B       		.uleb128 0xb
 11971 003a 0B       		.uleb128 0xb
 11972 003b 49       		.uleb128 0x49
 11973 003c 13       		.uleb128 0x13
 11974 003d 3A       		.uleb128 0x3a
 11975 003e 0B       		.uleb128 0xb
 11976 003f 3B       		.uleb128 0x3b
 11977 0040 0B       		.uleb128 0xb
 11978 0041 01       		.uleb128 0x1
 11979 0042 13       		.uleb128 0x13
 11980 0043 00       		.byte	0
 11981 0044 00       		.byte	0
 11982 0045 06       		.uleb128 0x6
 11983 0046 28       		.uleb128 0x28
 11984 0047 00       		.byte	0
 11985 0048 03       		.uleb128 0x3
 11986 0049 0E       		.uleb128 0xe
 11987 004a 1C       		.uleb128 0x1c
 11988 004b 0B       		.uleb128 0xb
 11989 004c 00       		.byte	0
 11990 004d 00       		.byte	0
 11991 004e 07       		.uleb128 0x7
 11992 004f 17       		.uleb128 0x17
 11993 0050 01       		.byte	0x1
 11994 0051 0B       		.uleb128 0xb
 11995 0052 0B       		.uleb128 0xb
 11996 0053 3A       		.uleb128 0x3a
 11997 0054 0B       		.uleb128 0xb
 11998 0055 3B       		.uleb128 0x3b
 11999 0056 0B       		.uleb128 0xb
 12000 0057 01       		.uleb128 0x1
 12001 0058 13       		.uleb128 0x13
 12002 0059 00       		.byte	0
 12003 005a 00       		.byte	0
 12004 005b 08       		.uleb128 0x8
ARM GAS  C:\Users\d3bug\AppData\Local\Temp\ccFiAZjI.s 			page 260


 12005 005c 0D       		.uleb128 0xd
 12006 005d 00       		.byte	0
 12007 005e 03       		.uleb128 0x3
 12008 005f 0E       		.uleb128 0xe
 12009 0060 3A       		.uleb128 0x3a
 12010 0061 0B       		.uleb128 0xb
 12011 0062 3B       		.uleb128 0x3b
 12012 0063 0B       		.uleb128 0xb
 12013 0064 49       		.uleb128 0x49
 12014 0065 13       		.uleb128 0x13
 12015 0066 0B       		.uleb128 0xb
 12016 0067 0B       		.uleb128 0xb
 12017 0068 0D       		.uleb128 0xd
 12018 0069 0B       		.uleb128 0xb
 12019 006a 0C       		.uleb128 0xc
 12020 006b 0B       		.uleb128 0xb
 12021 006c 00       		.byte	0
 12022 006d 00       		.byte	0
 12023 006e 09       		.uleb128 0x9
 12024 006f 0D       		.uleb128 0xd
 12025 0070 00       		.byte	0
 12026 0071 03       		.uleb128 0x3
 12027 0072 08       		.uleb128 0x8
 12028 0073 3A       		.uleb128 0x3a
 12029 0074 0B       		.uleb128 0xb
 12030 0075 3B       		.uleb128 0x3b
 12031 0076 0B       		.uleb128 0xb
 12032 0077 49       		.uleb128 0x49
 12033 0078 13       		.uleb128 0x13
 12034 0079 0B       		.uleb128 0xb
 12035 007a 0B       		.uleb128 0xb
 12036 007b 0D       		.uleb128 0xd
 12037 007c 0B       		.uleb128 0xb
 12038 007d 0C       		.uleb128 0xc
 12039 007e 0B       		.uleb128 0xb
 12040 007f 00       		.byte	0
 12041 0080 00       		.byte	0
 12042 0081 0A       		.uleb128 0xa
 12043 0082 0F       		.uleb128 0xf
 12044 0083 00       		.byte	0
 12045 0084 0B       		.uleb128 0xb
 12046 0085 0B       		.uleb128 0xb
 12047 0086 00       		.byte	0
 12048 0087 00       		.byte	0
 12049 0088 0B       		.uleb128 0xb
 12050 0089 0F       		.uleb128 0xf
 12051 008a 00       		.byte	0
 12052 008b 0B       		.uleb128 0xb
 12053 008c 0B       		.uleb128 0xb
 12054 008d 49       		.uleb128 0x49
 12055 008e 13       		.uleb128 0x13
 12056 008f 00       		.byte	0
 12057 0090 00       		.byte	0
 12058 0091 0C       		.uleb128 0xc
 12059 0092 26       		.uleb128 0x26
 12060 0093 00       		.byte	0
 12061 0094 49       		.uleb128 0x49
ARM GAS  C:\Users\d3bug\AppData\Local\Temp\ccFiAZjI.s 			page 261


 12062 0095 13       		.uleb128 0x13
 12063 0096 00       		.byte	0
 12064 0097 00       		.byte	0
 12065 0098 0D       		.uleb128 0xd
 12066 0099 13       		.uleb128 0x13
 12067 009a 01       		.byte	0x1
 12068 009b 0B       		.uleb128 0xb
 12069 009c 0B       		.uleb128 0xb
 12070 009d 3A       		.uleb128 0x3a
 12071 009e 0B       		.uleb128 0xb
 12072 009f 3B       		.uleb128 0x3b
 12073 00a0 0B       		.uleb128 0xb
 12074 00a1 01       		.uleb128 0x1
 12075 00a2 13       		.uleb128 0x13
 12076 00a3 00       		.byte	0
 12077 00a4 00       		.byte	0
 12078 00a5 0E       		.uleb128 0xe
 12079 00a6 0D       		.uleb128 0xd
 12080 00a7 00       		.byte	0
 12081 00a8 03       		.uleb128 0x3
 12082 00a9 08       		.uleb128 0x8
 12083 00aa 3A       		.uleb128 0x3a
 12084 00ab 0B       		.uleb128 0xb
 12085 00ac 3B       		.uleb128 0x3b
 12086 00ad 0B       		.uleb128 0xb
 12087 00ae 49       		.uleb128 0x49
 12088 00af 13       		.uleb128 0x13
 12089 00b0 38       		.uleb128 0x38
 12090 00b1 0B       		.uleb128 0xb
 12091 00b2 00       		.byte	0
 12092 00b3 00       		.byte	0
 12093 00b4 0F       		.uleb128 0xf
 12094 00b5 0D       		.uleb128 0xd
 12095 00b6 00       		.byte	0
 12096 00b7 03       		.uleb128 0x3
 12097 00b8 0E       		.uleb128 0xe
 12098 00b9 3A       		.uleb128 0x3a
 12099 00ba 0B       		.uleb128 0xb
 12100 00bb 3B       		.uleb128 0x3b
 12101 00bc 0B       		.uleb128 0xb
 12102 00bd 49       		.uleb128 0x49
 12103 00be 13       		.uleb128 0x13
 12104 00bf 0B       		.uleb128 0xb
 12105 00c0 0B       		.uleb128 0xb
 12106 00c1 0D       		.uleb128 0xd
 12107 00c2 0B       		.uleb128 0xb
 12108 00c3 0C       		.uleb128 0xc
 12109 00c4 0B       		.uleb128 0xb
 12110 00c5 38       		.uleb128 0x38
 12111 00c6 0B       		.uleb128 0xb
 12112 00c7 00       		.byte	0
 12113 00c8 00       		.byte	0
 12114 00c9 10       		.uleb128 0x10
 12115 00ca 13       		.uleb128 0x13
 12116 00cb 01       		.byte	0x1
 12117 00cc 03       		.uleb128 0x3
 12118 00cd 0E       		.uleb128 0xe
ARM GAS  C:\Users\d3bug\AppData\Local\Temp\ccFiAZjI.s 			page 262


 12119 00ce 0B       		.uleb128 0xb
 12120 00cf 0B       		.uleb128 0xb
 12121 00d0 3A       		.uleb128 0x3a
 12122 00d1 0B       		.uleb128 0xb
 12123 00d2 3B       		.uleb128 0x3b
 12124 00d3 0B       		.uleb128 0xb
 12125 00d4 01       		.uleb128 0x1
 12126 00d5 13       		.uleb128 0x13
 12127 00d6 00       		.byte	0
 12128 00d7 00       		.byte	0
 12129 00d8 11       		.uleb128 0x11
 12130 00d9 0D       		.uleb128 0xd
 12131 00da 00       		.byte	0
 12132 00db 03       		.uleb128 0x3
 12133 00dc 0E       		.uleb128 0xe
 12134 00dd 3A       		.uleb128 0x3a
 12135 00de 0B       		.uleb128 0xb
 12136 00df 3B       		.uleb128 0x3b
 12137 00e0 0B       		.uleb128 0xb
 12138 00e1 49       		.uleb128 0x49
 12139 00e2 13       		.uleb128 0x13
 12140 00e3 38       		.uleb128 0x38
 12141 00e4 0B       		.uleb128 0xb
 12142 00e5 00       		.byte	0
 12143 00e6 00       		.byte	0
 12144 00e7 12       		.uleb128 0x12
 12145 00e8 0D       		.uleb128 0xd
 12146 00e9 00       		.byte	0
 12147 00ea 03       		.uleb128 0x3
 12148 00eb 08       		.uleb128 0x8
 12149 00ec 3A       		.uleb128 0x3a
 12150 00ed 0B       		.uleb128 0xb
 12151 00ee 3B       		.uleb128 0x3b
 12152 00ef 0B       		.uleb128 0xb
 12153 00f0 49       		.uleb128 0x49
 12154 00f1 13       		.uleb128 0x13
 12155 00f2 0B       		.uleb128 0xb
 12156 00f3 0B       		.uleb128 0xb
 12157 00f4 0D       		.uleb128 0xd
 12158 00f5 0B       		.uleb128 0xb
 12159 00f6 0C       		.uleb128 0xc
 12160 00f7 0B       		.uleb128 0xb
 12161 00f8 38       		.uleb128 0x38
 12162 00f9 0B       		.uleb128 0xb
 12163 00fa 00       		.byte	0
 12164 00fb 00       		.byte	0
 12165 00fc 13       		.uleb128 0x13
 12166 00fd 15       		.uleb128 0x15
 12167 00fe 01       		.byte	0x1
 12168 00ff 27       		.uleb128 0x27
 12169 0100 19       		.uleb128 0x19
 12170 0101 49       		.uleb128 0x49
 12171 0102 13       		.uleb128 0x13
 12172 0103 01       		.uleb128 0x1
 12173 0104 13       		.uleb128 0x13
 12174 0105 00       		.byte	0
 12175 0106 00       		.byte	0
ARM GAS  C:\Users\d3bug\AppData\Local\Temp\ccFiAZjI.s 			page 263


 12176 0107 14       		.uleb128 0x14
 12177 0108 05       		.uleb128 0x5
 12178 0109 00       		.byte	0
 12179 010a 49       		.uleb128 0x49
 12180 010b 13       		.uleb128 0x13
 12181 010c 00       		.byte	0
 12182 010d 00       		.byte	0
 12183 010e 15       		.uleb128 0x15
 12184 010f 01       		.uleb128 0x1
 12185 0110 01       		.byte	0x1
 12186 0111 49       		.uleb128 0x49
 12187 0112 13       		.uleb128 0x13
 12188 0113 01       		.uleb128 0x1
 12189 0114 13       		.uleb128 0x13
 12190 0115 00       		.byte	0
 12191 0116 00       		.byte	0
 12192 0117 16       		.uleb128 0x16
 12193 0118 21       		.uleb128 0x21
 12194 0119 00       		.byte	0
 12195 011a 49       		.uleb128 0x49
 12196 011b 13       		.uleb128 0x13
 12197 011c 2F       		.uleb128 0x2f
 12198 011d 0B       		.uleb128 0xb
 12199 011e 00       		.byte	0
 12200 011f 00       		.byte	0
 12201 0120 17       		.uleb128 0x17
 12202 0121 0D       		.uleb128 0xd
 12203 0122 00       		.byte	0
 12204 0123 03       		.uleb128 0x3
 12205 0124 0E       		.uleb128 0xe
 12206 0125 3A       		.uleb128 0x3a
 12207 0126 0B       		.uleb128 0xb
 12208 0127 3B       		.uleb128 0x3b
 12209 0128 0B       		.uleb128 0xb
 12210 0129 49       		.uleb128 0x49
 12211 012a 13       		.uleb128 0x13
 12212 012b 00       		.byte	0
 12213 012c 00       		.byte	0
 12214 012d 18       		.uleb128 0x18
 12215 012e 0D       		.uleb128 0xd
 12216 012f 00       		.byte	0
 12217 0130 03       		.uleb128 0x3
 12218 0131 08       		.uleb128 0x8
 12219 0132 3A       		.uleb128 0x3a
 12220 0133 0B       		.uleb128 0xb
 12221 0134 3B       		.uleb128 0x3b
 12222 0135 0B       		.uleb128 0xb
 12223 0136 49       		.uleb128 0x49
 12224 0137 13       		.uleb128 0x13
 12225 0138 00       		.byte	0
 12226 0139 00       		.byte	0
 12227 013a 19       		.uleb128 0x19
 12228 013b 0D       		.uleb128 0xd
 12229 013c 00       		.byte	0
 12230 013d 49       		.uleb128 0x49
 12231 013e 13       		.uleb128 0x13
 12232 013f 38       		.uleb128 0x38
ARM GAS  C:\Users\d3bug\AppData\Local\Temp\ccFiAZjI.s 			page 264


 12233 0140 0B       		.uleb128 0xb
 12234 0141 00       		.byte	0
 12235 0142 00       		.byte	0
 12236 0143 1A       		.uleb128 0x1a
 12237 0144 0D       		.uleb128 0xd
 12238 0145 00       		.byte	0
 12239 0146 49       		.uleb128 0x49
 12240 0147 13       		.uleb128 0x13
 12241 0148 00       		.byte	0
 12242 0149 00       		.byte	0
 12243 014a 1B       		.uleb128 0x1b
 12244 014b 15       		.uleb128 0x15
 12245 014c 01       		.byte	0x1
 12246 014d 27       		.uleb128 0x27
 12247 014e 19       		.uleb128 0x19
 12248 014f 01       		.uleb128 0x1
 12249 0150 13       		.uleb128 0x13
 12250 0151 00       		.byte	0
 12251 0152 00       		.byte	0
 12252 0153 1C       		.uleb128 0x1c
 12253 0154 13       		.uleb128 0x13
 12254 0155 00       		.byte	0
 12255 0156 03       		.uleb128 0x3
 12256 0157 0E       		.uleb128 0xe
 12257 0158 3C       		.uleb128 0x3c
 12258 0159 19       		.uleb128 0x19
 12259 015a 00       		.byte	0
 12260 015b 00       		.byte	0
 12261 015c 1D       		.uleb128 0x1d
 12262 015d 16       		.uleb128 0x16
 12263 015e 00       		.byte	0
 12264 015f 03       		.uleb128 0x3
 12265 0160 0E       		.uleb128 0xe
 12266 0161 3A       		.uleb128 0x3a
 12267 0162 0B       		.uleb128 0xb
 12268 0163 3B       		.uleb128 0x3b
 12269 0164 05       		.uleb128 0x5
 12270 0165 49       		.uleb128 0x49
 12271 0166 13       		.uleb128 0x13
 12272 0167 00       		.byte	0
 12273 0168 00       		.byte	0
 12274 0169 1E       		.uleb128 0x1e
 12275 016a 2E       		.uleb128 0x2e
 12276 016b 01       		.byte	0x1
 12277 016c 03       		.uleb128 0x3
 12278 016d 0E       		.uleb128 0xe
 12279 016e 3A       		.uleb128 0x3a
 12280 016f 0B       		.uleb128 0xb
 12281 0170 3B       		.uleb128 0x3b
 12282 0171 0B       		.uleb128 0xb
 12283 0172 27       		.uleb128 0x27
 12284 0173 19       		.uleb128 0x19
 12285 0174 20       		.uleb128 0x20
 12286 0175 0B       		.uleb128 0xb
 12287 0176 01       		.uleb128 0x1
 12288 0177 13       		.uleb128 0x13
 12289 0178 00       		.byte	0
ARM GAS  C:\Users\d3bug\AppData\Local\Temp\ccFiAZjI.s 			page 265


 12290 0179 00       		.byte	0
 12291 017a 1F       		.uleb128 0x1f
 12292 017b 05       		.uleb128 0x5
 12293 017c 00       		.byte	0
 12294 017d 03       		.uleb128 0x3
 12295 017e 0E       		.uleb128 0xe
 12296 017f 3A       		.uleb128 0x3a
 12297 0180 0B       		.uleb128 0xb
 12298 0181 3B       		.uleb128 0x3b
 12299 0182 0B       		.uleb128 0xb
 12300 0183 49       		.uleb128 0x49
 12301 0184 13       		.uleb128 0x13
 12302 0185 00       		.byte	0
 12303 0186 00       		.byte	0
 12304 0187 20       		.uleb128 0x20
 12305 0188 05       		.uleb128 0x5
 12306 0189 00       		.byte	0
 12307 018a 03       		.uleb128 0x3
 12308 018b 08       		.uleb128 0x8
 12309 018c 3A       		.uleb128 0x3a
 12310 018d 0B       		.uleb128 0xb
 12311 018e 3B       		.uleb128 0x3b
 12312 018f 0B       		.uleb128 0xb
 12313 0190 49       		.uleb128 0x49
 12314 0191 13       		.uleb128 0x13
 12315 0192 00       		.byte	0
 12316 0193 00       		.byte	0
 12317 0194 21       		.uleb128 0x21
 12318 0195 2E       		.uleb128 0x2e
 12319 0196 01       		.byte	0x1
 12320 0197 03       		.uleb128 0x3
 12321 0198 0E       		.uleb128 0xe
 12322 0199 3A       		.uleb128 0x3a
 12323 019a 0B       		.uleb128 0xb
 12324 019b 3B       		.uleb128 0x3b
 12325 019c 0B       		.uleb128 0xb
 12326 019d 27       		.uleb128 0x27
 12327 019e 19       		.uleb128 0x19
 12328 019f 49       		.uleb128 0x49
 12329 01a0 13       		.uleb128 0x13
 12330 01a1 20       		.uleb128 0x20
 12331 01a2 0B       		.uleb128 0xb
 12332 01a3 01       		.uleb128 0x1
 12333 01a4 13       		.uleb128 0x13
 12334 01a5 00       		.byte	0
 12335 01a6 00       		.byte	0
 12336 01a7 22       		.uleb128 0x22
 12337 01a8 2E       		.uleb128 0x2e
 12338 01a9 01       		.byte	0x1
 12339 01aa 03       		.uleb128 0x3
 12340 01ab 0E       		.uleb128 0xe
 12341 01ac 3A       		.uleb128 0x3a
 12342 01ad 0B       		.uleb128 0xb
 12343 01ae 3B       		.uleb128 0x3b
 12344 01af 05       		.uleb128 0x5
 12345 01b0 27       		.uleb128 0x27
 12346 01b1 19       		.uleb128 0x19
ARM GAS  C:\Users\d3bug\AppData\Local\Temp\ccFiAZjI.s 			page 266


 12347 01b2 11       		.uleb128 0x11
 12348 01b3 01       		.uleb128 0x1
 12349 01b4 12       		.uleb128 0x12
 12350 01b5 06       		.uleb128 0x6
 12351 01b6 40       		.uleb128 0x40
 12352 01b7 18       		.uleb128 0x18
 12353 01b8 9742     		.uleb128 0x2117
 12354 01ba 19       		.uleb128 0x19
 12355 01bb 01       		.uleb128 0x1
 12356 01bc 13       		.uleb128 0x13
 12357 01bd 00       		.byte	0
 12358 01be 00       		.byte	0
 12359 01bf 23       		.uleb128 0x23
 12360 01c0 05       		.uleb128 0x5
 12361 01c1 00       		.byte	0
 12362 01c2 03       		.uleb128 0x3
 12363 01c3 08       		.uleb128 0x8
 12364 01c4 3A       		.uleb128 0x3a
 12365 01c5 0B       		.uleb128 0xb
 12366 01c6 3B       		.uleb128 0x3b
 12367 01c7 05       		.uleb128 0x5
 12368 01c8 49       		.uleb128 0x49
 12369 01c9 13       		.uleb128 0x13
 12370 01ca 02       		.uleb128 0x2
 12371 01cb 17       		.uleb128 0x17
 12372 01cc 00       		.byte	0
 12373 01cd 00       		.byte	0
 12374 01ce 24       		.uleb128 0x24
 12375 01cf 05       		.uleb128 0x5
 12376 01d0 00       		.byte	0
 12377 01d1 03       		.uleb128 0x3
 12378 01d2 0E       		.uleb128 0xe
 12379 01d3 3A       		.uleb128 0x3a
 12380 01d4 0B       		.uleb128 0xb
 12381 01d5 3B       		.uleb128 0x3b
 12382 01d6 05       		.uleb128 0x5
 12383 01d7 49       		.uleb128 0x49
 12384 01d8 13       		.uleb128 0x13
 12385 01d9 02       		.uleb128 0x2
 12386 01da 17       		.uleb128 0x17
 12387 01db 00       		.byte	0
 12388 01dc 00       		.byte	0
 12389 01dd 25       		.uleb128 0x25
 12390 01de 34       		.uleb128 0x34
 12391 01df 00       		.byte	0
 12392 01e0 03       		.uleb128 0x3
 12393 01e1 08       		.uleb128 0x8
 12394 01e2 3A       		.uleb128 0x3a
 12395 01e3 0B       		.uleb128 0xb
 12396 01e4 3B       		.uleb128 0x3b
 12397 01e5 05       		.uleb128 0x5
 12398 01e6 49       		.uleb128 0x49
 12399 01e7 13       		.uleb128 0x13
 12400 01e8 02       		.uleb128 0x2
 12401 01e9 17       		.uleb128 0x17
 12402 01ea 00       		.byte	0
 12403 01eb 00       		.byte	0
ARM GAS  C:\Users\d3bug\AppData\Local\Temp\ccFiAZjI.s 			page 267


 12404 01ec 26       		.uleb128 0x26
 12405 01ed 898201   		.uleb128 0x4109
 12406 01f0 01       		.byte	0x1
 12407 01f1 11       		.uleb128 0x11
 12408 01f2 01       		.uleb128 0x1
 12409 01f3 31       		.uleb128 0x31
 12410 01f4 13       		.uleb128 0x13
 12411 01f5 01       		.uleb128 0x1
 12412 01f6 13       		.uleb128 0x13
 12413 01f7 00       		.byte	0
 12414 01f8 00       		.byte	0
 12415 01f9 27       		.uleb128 0x27
 12416 01fa 8A8201   		.uleb128 0x410a
 12417 01fd 00       		.byte	0
 12418 01fe 02       		.uleb128 0x2
 12419 01ff 18       		.uleb128 0x18
 12420 0200 9142     		.uleb128 0x2111
 12421 0202 18       		.uleb128 0x18
 12422 0203 00       		.byte	0
 12423 0204 00       		.byte	0
 12424 0205 28       		.uleb128 0x28
 12425 0206 898201   		.uleb128 0x4109
 12426 0209 01       		.byte	0x1
 12427 020a 11       		.uleb128 0x11
 12428 020b 01       		.uleb128 0x1
 12429 020c 31       		.uleb128 0x31
 12430 020d 13       		.uleb128 0x13
 12431 020e 00       		.byte	0
 12432 020f 00       		.byte	0
 12433 0210 29       		.uleb128 0x29
 12434 0211 2E       		.uleb128 0x2e
 12435 0212 01       		.byte	0x1
 12436 0213 3F       		.uleb128 0x3f
 12437 0214 19       		.uleb128 0x19
 12438 0215 03       		.uleb128 0x3
 12439 0216 0E       		.uleb128 0xe
 12440 0217 3A       		.uleb128 0x3a
 12441 0218 0B       		.uleb128 0xb
 12442 0219 3B       		.uleb128 0x3b
 12443 021a 05       		.uleb128 0x5
 12444 021b 27       		.uleb128 0x27
 12445 021c 19       		.uleb128 0x19
 12446 021d 11       		.uleb128 0x11
 12447 021e 01       		.uleb128 0x1
 12448 021f 12       		.uleb128 0x12
 12449 0220 06       		.uleb128 0x6
 12450 0221 40       		.uleb128 0x40
 12451 0222 18       		.uleb128 0x18
 12452 0223 9742     		.uleb128 0x2117
 12453 0225 19       		.uleb128 0x19
 12454 0226 01       		.uleb128 0x1
 12455 0227 13       		.uleb128 0x13
 12456 0228 00       		.byte	0
 12457 0229 00       		.byte	0
 12458 022a 2A       		.uleb128 0x2a
 12459 022b 05       		.uleb128 0x5
 12460 022c 00       		.byte	0
ARM GAS  C:\Users\d3bug\AppData\Local\Temp\ccFiAZjI.s 			page 268


 12461 022d 03       		.uleb128 0x3
 12462 022e 08       		.uleb128 0x8
 12463 022f 3A       		.uleb128 0x3a
 12464 0230 0B       		.uleb128 0xb
 12465 0231 3B       		.uleb128 0x3b
 12466 0232 05       		.uleb128 0x5
 12467 0233 49       		.uleb128 0x49
 12468 0234 13       		.uleb128 0x13
 12469 0235 02       		.uleb128 0x2
 12470 0236 18       		.uleb128 0x18
 12471 0237 00       		.byte	0
 12472 0238 00       		.byte	0
 12473 0239 2B       		.uleb128 0x2b
 12474 023a 2E       		.uleb128 0x2e
 12475 023b 01       		.byte	0x1
 12476 023c 3F       		.uleb128 0x3f
 12477 023d 19       		.uleb128 0x19
 12478 023e 03       		.uleb128 0x3
 12479 023f 0E       		.uleb128 0xe
 12480 0240 3A       		.uleb128 0x3a
 12481 0241 0B       		.uleb128 0xb
 12482 0242 3B       		.uleb128 0x3b
 12483 0243 05       		.uleb128 0x5
 12484 0244 27       		.uleb128 0x27
 12485 0245 19       		.uleb128 0x19
 12486 0246 49       		.uleb128 0x49
 12487 0247 13       		.uleb128 0x13
 12488 0248 11       		.uleb128 0x11
 12489 0249 01       		.uleb128 0x1
 12490 024a 12       		.uleb128 0x12
 12491 024b 06       		.uleb128 0x6
 12492 024c 40       		.uleb128 0x40
 12493 024d 18       		.uleb128 0x18
 12494 024e 9742     		.uleb128 0x2117
 12495 0250 19       		.uleb128 0x19
 12496 0251 01       		.uleb128 0x1
 12497 0252 13       		.uleb128 0x13
 12498 0253 00       		.byte	0
 12499 0254 00       		.byte	0
 12500 0255 2C       		.uleb128 0x2c
 12501 0256 898201   		.uleb128 0x4109
 12502 0259 00       		.byte	0
 12503 025a 11       		.uleb128 0x11
 12504 025b 01       		.uleb128 0x1
 12505 025c 31       		.uleb128 0x31
 12506 025d 13       		.uleb128 0x13
 12507 025e 00       		.byte	0
 12508 025f 00       		.byte	0
 12509 0260 2D       		.uleb128 0x2d
 12510 0261 05       		.uleb128 0x5
 12511 0262 00       		.byte	0
 12512 0263 03       		.uleb128 0x3
 12513 0264 0E       		.uleb128 0xe
 12514 0265 3A       		.uleb128 0x3a
 12515 0266 0B       		.uleb128 0xb
 12516 0267 3B       		.uleb128 0x3b
 12517 0268 05       		.uleb128 0x5
ARM GAS  C:\Users\d3bug\AppData\Local\Temp\ccFiAZjI.s 			page 269


 12518 0269 49       		.uleb128 0x49
 12519 026a 13       		.uleb128 0x13
 12520 026b 02       		.uleb128 0x2
 12521 026c 18       		.uleb128 0x18
 12522 026d 00       		.byte	0
 12523 026e 00       		.byte	0
 12524 026f 2E       		.uleb128 0x2e
 12525 0270 2E       		.uleb128 0x2e
 12526 0271 00       		.byte	0
 12527 0272 3F       		.uleb128 0x3f
 12528 0273 19       		.uleb128 0x19
 12529 0274 03       		.uleb128 0x3
 12530 0275 0E       		.uleb128 0xe
 12531 0276 3A       		.uleb128 0x3a
 12532 0277 0B       		.uleb128 0xb
 12533 0278 3B       		.uleb128 0x3b
 12534 0279 05       		.uleb128 0x5
 12535 027a 27       		.uleb128 0x27
 12536 027b 19       		.uleb128 0x19
 12537 027c 49       		.uleb128 0x49
 12538 027d 13       		.uleb128 0x13
 12539 027e 11       		.uleb128 0x11
 12540 027f 01       		.uleb128 0x1
 12541 0280 12       		.uleb128 0x12
 12542 0281 06       		.uleb128 0x6
 12543 0282 40       		.uleb128 0x40
 12544 0283 18       		.uleb128 0x18
 12545 0284 9742     		.uleb128 0x2117
 12546 0286 19       		.uleb128 0x19
 12547 0287 00       		.byte	0
 12548 0288 00       		.byte	0
 12549 0289 2F       		.uleb128 0x2f
 12550 028a 34       		.uleb128 0x34
 12551 028b 00       		.byte	0
 12552 028c 03       		.uleb128 0x3
 12553 028d 0E       		.uleb128 0xe
 12554 028e 3A       		.uleb128 0x3a
 12555 028f 0B       		.uleb128 0xb
 12556 0290 3B       		.uleb128 0x3b
 12557 0291 05       		.uleb128 0x5
 12558 0292 49       		.uleb128 0x49
 12559 0293 13       		.uleb128 0x13
 12560 0294 02       		.uleb128 0x2
 12561 0295 17       		.uleb128 0x17
 12562 0296 00       		.byte	0
 12563 0297 00       		.byte	0
 12564 0298 30       		.uleb128 0x30
 12565 0299 898201   		.uleb128 0x4109
 12566 029c 01       		.byte	0x1
 12567 029d 11       		.uleb128 0x11
 12568 029e 01       		.uleb128 0x1
 12569 029f 01       		.uleb128 0x1
 12570 02a0 13       		.uleb128 0x13
 12571 02a1 00       		.byte	0
 12572 02a2 00       		.byte	0
 12573 02a3 31       		.uleb128 0x31
 12574 02a4 1D       		.uleb128 0x1d
ARM GAS  C:\Users\d3bug\AppData\Local\Temp\ccFiAZjI.s 			page 270


 12575 02a5 01       		.byte	0x1
 12576 02a6 31       		.uleb128 0x31
 12577 02a7 13       		.uleb128 0x13
 12578 02a8 11       		.uleb128 0x11
 12579 02a9 01       		.uleb128 0x1
 12580 02aa 12       		.uleb128 0x12
 12581 02ab 06       		.uleb128 0x6
 12582 02ac 58       		.uleb128 0x58
 12583 02ad 0B       		.uleb128 0xb
 12584 02ae 59       		.uleb128 0x59
 12585 02af 05       		.uleb128 0x5
 12586 02b0 00       		.byte	0
 12587 02b1 00       		.byte	0
 12588 02b2 32       		.uleb128 0x32
 12589 02b3 05       		.uleb128 0x5
 12590 02b4 00       		.byte	0
 12591 02b5 31       		.uleb128 0x31
 12592 02b6 13       		.uleb128 0x13
 12593 02b7 02       		.uleb128 0x2
 12594 02b8 17       		.uleb128 0x17
 12595 02b9 00       		.byte	0
 12596 02ba 00       		.byte	0
 12597 02bb 33       		.uleb128 0x33
 12598 02bc 34       		.uleb128 0x34
 12599 02bd 00       		.byte	0
 12600 02be 03       		.uleb128 0x3
 12601 02bf 0E       		.uleb128 0xe
 12602 02c0 3A       		.uleb128 0x3a
 12603 02c1 0B       		.uleb128 0xb
 12604 02c2 3B       		.uleb128 0x3b
 12605 02c3 05       		.uleb128 0x5
 12606 02c4 49       		.uleb128 0x49
 12607 02c5 13       		.uleb128 0x13
 12608 02c6 02       		.uleb128 0x2
 12609 02c7 18       		.uleb128 0x18
 12610 02c8 00       		.byte	0
 12611 02c9 00       		.byte	0
 12612 02ca 34       		.uleb128 0x34
 12613 02cb 0B       		.uleb128 0xb
 12614 02cc 01       		.byte	0x1
 12615 02cd 11       		.uleb128 0x11
 12616 02ce 01       		.uleb128 0x1
 12617 02cf 12       		.uleb128 0x12
 12618 02d0 06       		.uleb128 0x6
 12619 02d1 00       		.byte	0
 12620 02d2 00       		.byte	0
 12621 02d3 35       		.uleb128 0x35
 12622 02d4 0B       		.uleb128 0xb
 12623 02d5 01       		.byte	0x1
 12624 02d6 11       		.uleb128 0x11
 12625 02d7 01       		.uleb128 0x1
 12626 02d8 12       		.uleb128 0x12
 12627 02d9 06       		.uleb128 0x6
 12628 02da 01       		.uleb128 0x1
 12629 02db 13       		.uleb128 0x13
 12630 02dc 00       		.byte	0
 12631 02dd 00       		.byte	0
ARM GAS  C:\Users\d3bug\AppData\Local\Temp\ccFiAZjI.s 			page 271


 12632 02de 36       		.uleb128 0x36
 12633 02df 1D       		.uleb128 0x1d
 12634 02e0 01       		.byte	0x1
 12635 02e1 31       		.uleb128 0x31
 12636 02e2 13       		.uleb128 0x13
 12637 02e3 11       		.uleb128 0x11
 12638 02e4 01       		.uleb128 0x1
 12639 02e5 12       		.uleb128 0x12
 12640 02e6 06       		.uleb128 0x6
 12641 02e7 58       		.uleb128 0x58
 12642 02e8 0B       		.uleb128 0xb
 12643 02e9 59       		.uleb128 0x59
 12644 02ea 05       		.uleb128 0x5
 12645 02eb 01       		.uleb128 0x1
 12646 02ec 13       		.uleb128 0x13
 12647 02ed 00       		.byte	0
 12648 02ee 00       		.byte	0
 12649 02ef 37       		.uleb128 0x37
 12650 02f0 898201   		.uleb128 0x4109
 12651 02f3 01       		.byte	0x1
 12652 02f4 11       		.uleb128 0x11
 12653 02f5 01       		.uleb128 0x1
 12654 02f6 00       		.byte	0
 12655 02f7 00       		.byte	0
 12656 02f8 38       		.uleb128 0x38
 12657 02f9 34       		.uleb128 0x34
 12658 02fa 00       		.byte	0
 12659 02fb 03       		.uleb128 0x3
 12660 02fc 08       		.uleb128 0x8
 12661 02fd 3A       		.uleb128 0x3a
 12662 02fe 0B       		.uleb128 0xb
 12663 02ff 3B       		.uleb128 0x3b
 12664 0300 05       		.uleb128 0x5
 12665 0301 49       		.uleb128 0x49
 12666 0302 13       		.uleb128 0x13
 12667 0303 02       		.uleb128 0x2
 12668 0304 18       		.uleb128 0x18
 12669 0305 00       		.byte	0
 12670 0306 00       		.byte	0
 12671 0307 39       		.uleb128 0x39
 12672 0308 34       		.uleb128 0x34
 12673 0309 00       		.byte	0
 12674 030a 03       		.uleb128 0x3
 12675 030b 0E       		.uleb128 0xe
 12676 030c 3A       		.uleb128 0x3a
 12677 030d 0B       		.uleb128 0xb
 12678 030e 3B       		.uleb128 0x3b
 12679 030f 05       		.uleb128 0x5
 12680 0310 49       		.uleb128 0x49
 12681 0311 13       		.uleb128 0x13
 12682 0312 00       		.byte	0
 12683 0313 00       		.byte	0
 12684 0314 3A       		.uleb128 0x3a
 12685 0315 2E       		.uleb128 0x2e
 12686 0316 01       		.byte	0x1
 12687 0317 3F       		.uleb128 0x3f
 12688 0318 19       		.uleb128 0x19
ARM GAS  C:\Users\d3bug\AppData\Local\Temp\ccFiAZjI.s 			page 272


 12689 0319 03       		.uleb128 0x3
 12690 031a 0E       		.uleb128 0xe
 12691 031b 3A       		.uleb128 0x3a
 12692 031c 0B       		.uleb128 0xb
 12693 031d 3B       		.uleb128 0x3b
 12694 031e 0B       		.uleb128 0xb
 12695 031f 27       		.uleb128 0x27
 12696 0320 19       		.uleb128 0x19
 12697 0321 49       		.uleb128 0x49
 12698 0322 13       		.uleb128 0x13
 12699 0323 11       		.uleb128 0x11
 12700 0324 01       		.uleb128 0x1
 12701 0325 12       		.uleb128 0x12
 12702 0326 06       		.uleb128 0x6
 12703 0327 40       		.uleb128 0x40
 12704 0328 18       		.uleb128 0x18
 12705 0329 9742     		.uleb128 0x2117
 12706 032b 19       		.uleb128 0x19
 12707 032c 01       		.uleb128 0x1
 12708 032d 13       		.uleb128 0x13
 12709 032e 00       		.byte	0
 12710 032f 00       		.byte	0
 12711 0330 3B       		.uleb128 0x3b
 12712 0331 05       		.uleb128 0x5
 12713 0332 00       		.byte	0
 12714 0333 03       		.uleb128 0x3
 12715 0334 0E       		.uleb128 0xe
 12716 0335 3A       		.uleb128 0x3a
 12717 0336 0B       		.uleb128 0xb
 12718 0337 3B       		.uleb128 0x3b
 12719 0338 0B       		.uleb128 0xb
 12720 0339 49       		.uleb128 0x49
 12721 033a 13       		.uleb128 0x13
 12722 033b 02       		.uleb128 0x2
 12723 033c 17       		.uleb128 0x17
 12724 033d 00       		.byte	0
 12725 033e 00       		.byte	0
 12726 033f 3C       		.uleb128 0x3c
 12727 0340 34       		.uleb128 0x34
 12728 0341 00       		.byte	0
 12729 0342 03       		.uleb128 0x3
 12730 0343 0E       		.uleb128 0xe
 12731 0344 3A       		.uleb128 0x3a
 12732 0345 0B       		.uleb128 0xb
 12733 0346 3B       		.uleb128 0x3b
 12734 0347 0B       		.uleb128 0xb
 12735 0348 49       		.uleb128 0x49
 12736 0349 13       		.uleb128 0x13
 12737 034a 02       		.uleb128 0x2
 12738 034b 17       		.uleb128 0x17
 12739 034c 00       		.byte	0
 12740 034d 00       		.byte	0
 12741 034e 3D       		.uleb128 0x3d
 12742 034f 0B       		.uleb128 0xb
 12743 0350 01       		.byte	0x1
 12744 0351 55       		.uleb128 0x55
 12745 0352 17       		.uleb128 0x17
ARM GAS  C:\Users\d3bug\AppData\Local\Temp\ccFiAZjI.s 			page 273


 12746 0353 01       		.uleb128 0x1
 12747 0354 13       		.uleb128 0x13
 12748 0355 00       		.byte	0
 12749 0356 00       		.byte	0
 12750 0357 3E       		.uleb128 0x3e
 12751 0358 34       		.uleb128 0x34
 12752 0359 00       		.byte	0
 12753 035a 03       		.uleb128 0x3
 12754 035b 08       		.uleb128 0x8
 12755 035c 3A       		.uleb128 0x3a
 12756 035d 0B       		.uleb128 0xb
 12757 035e 3B       		.uleb128 0x3b
 12758 035f 0B       		.uleb128 0xb
 12759 0360 49       		.uleb128 0x49
 12760 0361 13       		.uleb128 0x13
 12761 0362 02       		.uleb128 0x2
 12762 0363 17       		.uleb128 0x17
 12763 0364 00       		.byte	0
 12764 0365 00       		.byte	0
 12765 0366 3F       		.uleb128 0x3f
 12766 0367 898201   		.uleb128 0x4109
 12767 036a 01       		.byte	0x1
 12768 036b 11       		.uleb128 0x11
 12769 036c 01       		.uleb128 0x1
 12770 036d 9342     		.uleb128 0x2113
 12771 036f 18       		.uleb128 0x18
 12772 0370 01       		.uleb128 0x1
 12773 0371 13       		.uleb128 0x13
 12774 0372 00       		.byte	0
 12775 0373 00       		.byte	0
 12776 0374 40       		.uleb128 0x40
 12777 0375 2E       		.uleb128 0x2e
 12778 0376 01       		.byte	0x1
 12779 0377 3F       		.uleb128 0x3f
 12780 0378 19       		.uleb128 0x19
 12781 0379 03       		.uleb128 0x3
 12782 037a 0E       		.uleb128 0xe
 12783 037b 3A       		.uleb128 0x3a
 12784 037c 0B       		.uleb128 0xb
 12785 037d 3B       		.uleb128 0x3b
 12786 037e 0B       		.uleb128 0xb
 12787 037f 27       		.uleb128 0x27
 12788 0380 19       		.uleb128 0x19
 12789 0381 11       		.uleb128 0x11
 12790 0382 01       		.uleb128 0x1
 12791 0383 12       		.uleb128 0x12
 12792 0384 06       		.uleb128 0x6
 12793 0385 40       		.uleb128 0x40
 12794 0386 18       		.uleb128 0x18
 12795 0387 9742     		.uleb128 0x2117
 12796 0389 19       		.uleb128 0x19
 12797 038a 01       		.uleb128 0x1
 12798 038b 13       		.uleb128 0x13
 12799 038c 00       		.byte	0
 12800 038d 00       		.byte	0
 12801 038e 41       		.uleb128 0x41
 12802 038f 2E       		.uleb128 0x2e
ARM GAS  C:\Users\d3bug\AppData\Local\Temp\ccFiAZjI.s 			page 274


 12803 0390 01       		.byte	0x1
 12804 0391 03       		.uleb128 0x3
 12805 0392 0E       		.uleb128 0xe
 12806 0393 3A       		.uleb128 0x3a
 12807 0394 0B       		.uleb128 0xb
 12808 0395 3B       		.uleb128 0x3b
 12809 0396 05       		.uleb128 0x5
 12810 0397 27       		.uleb128 0x27
 12811 0398 19       		.uleb128 0x19
 12812 0399 49       		.uleb128 0x49
 12813 039a 13       		.uleb128 0x13
 12814 039b 11       		.uleb128 0x11
 12815 039c 01       		.uleb128 0x1
 12816 039d 12       		.uleb128 0x12
 12817 039e 06       		.uleb128 0x6
 12818 039f 40       		.uleb128 0x40
 12819 03a0 18       		.uleb128 0x18
 12820 03a1 9742     		.uleb128 0x2117
 12821 03a3 19       		.uleb128 0x19
 12822 03a4 01       		.uleb128 0x1
 12823 03a5 13       		.uleb128 0x13
 12824 03a6 00       		.byte	0
 12825 03a7 00       		.byte	0
 12826 03a8 42       		.uleb128 0x42
 12827 03a9 34       		.uleb128 0x34
 12828 03aa 00       		.byte	0
 12829 03ab 03       		.uleb128 0x3
 12830 03ac 0E       		.uleb128 0xe
 12831 03ad 3A       		.uleb128 0x3a
 12832 03ae 0B       		.uleb128 0xb
 12833 03af 3B       		.uleb128 0x3b
 12834 03b0 0B       		.uleb128 0xb
 12835 03b1 49       		.uleb128 0x49
 12836 03b2 13       		.uleb128 0x13
 12837 03b3 3F       		.uleb128 0x3f
 12838 03b4 19       		.uleb128 0x19
 12839 03b5 3C       		.uleb128 0x3c
 12840 03b6 19       		.uleb128 0x19
 12841 03b7 00       		.byte	0
 12842 03b8 00       		.byte	0
 12843 03b9 43       		.uleb128 0x43
 12844 03ba 2E       		.uleb128 0x2e
 12845 03bb 00       		.byte	0
 12846 03bc 3F       		.uleb128 0x3f
 12847 03bd 19       		.uleb128 0x19
 12848 03be 3C       		.uleb128 0x3c
 12849 03bf 19       		.uleb128 0x19
 12850 03c0 6E       		.uleb128 0x6e
 12851 03c1 0E       		.uleb128 0xe
 12852 03c2 03       		.uleb128 0x3
 12853 03c3 0E       		.uleb128 0xe
 12854 03c4 3A       		.uleb128 0x3a
 12855 03c5 0B       		.uleb128 0xb
 12856 03c6 3B       		.uleb128 0x3b
 12857 03c7 0B       		.uleb128 0xb
 12858 03c8 00       		.byte	0
 12859 03c9 00       		.byte	0
ARM GAS  C:\Users\d3bug\AppData\Local\Temp\ccFiAZjI.s 			page 275


 12860 03ca 44       		.uleb128 0x44
 12861 03cb 2E       		.uleb128 0x2e
 12862 03cc 00       		.byte	0
 12863 03cd 3F       		.uleb128 0x3f
 12864 03ce 19       		.uleb128 0x19
 12865 03cf 3C       		.uleb128 0x3c
 12866 03d0 19       		.uleb128 0x19
 12867 03d1 6E       		.uleb128 0x6e
 12868 03d2 0E       		.uleb128 0xe
 12869 03d3 03       		.uleb128 0x3
 12870 03d4 0E       		.uleb128 0xe
 12871 03d5 3A       		.uleb128 0x3a
 12872 03d6 0B       		.uleb128 0xb
 12873 03d7 3B       		.uleb128 0x3b
 12874 03d8 05       		.uleb128 0x5
 12875 03d9 00       		.byte	0
 12876 03da 00       		.byte	0
 12877 03db 45       		.uleb128 0x45
 12878 03dc 2E       		.uleb128 0x2e
 12879 03dd 00       		.byte	0
 12880 03de 3F       		.uleb128 0x3f
 12881 03df 19       		.uleb128 0x19
 12882 03e0 3C       		.uleb128 0x3c
 12883 03e1 19       		.uleb128 0x19
 12884 03e2 6E       		.uleb128 0x6e
 12885 03e3 0E       		.uleb128 0xe
 12886 03e4 03       		.uleb128 0x3
 12887 03e5 0E       		.uleb128 0xe
 12888 03e6 00       		.byte	0
 12889 03e7 00       		.byte	0
 12890 03e8 00       		.byte	0
 12891              		.section	.debug_loc,"",%progbits
 12892              	.Ldebug_loc0:
 12893              	.LLST0:
 12894 0000 00000000 		.4byte	.LVL0
 12895 0004 0A000000 		.4byte	.LVL1
 12896 0008 0100     		.2byte	0x1
 12897 000a 50       		.byte	0x50
 12898 000b 0A000000 		.4byte	.LVL1
 12899 000f 0D000000 		.4byte	.LVL2-1
 12900 0013 0300     		.2byte	0x3
 12901 0015 70       		.byte	0x70
 12902 0016 7C       		.sleb128 -4
 12903 0017 9F       		.byte	0x9f
 12904 0018 0D000000 		.4byte	.LVL2-1
 12905 001c 48000000 		.4byte	.LFE82
 12906 0020 0300     		.2byte	0x3
 12907 0022 77       		.byte	0x77
 12908 0023 7C       		.sleb128 -4
 12909 0024 9F       		.byte	0x9f
 12910 0025 00000000 		.4byte	0
 12911 0029 00000000 		.4byte	0
 12912              	.LLST1:
 12913 002d 00000000 		.4byte	.LVL0
 12914 0031 0D000000 		.4byte	.LVL2-1
 12915 0035 0100     		.2byte	0x1
 12916 0037 51       		.byte	0x51
ARM GAS  C:\Users\d3bug\AppData\Local\Temp\ccFiAZjI.s 			page 276


 12917 0038 0D000000 		.4byte	.LVL2-1
 12918 003c 48000000 		.4byte	.LFE82
 12919 0040 0400     		.2byte	0x4
 12920 0042 F3       		.byte	0xf3
 12921 0043 01       		.uleb128 0x1
 12922 0044 51       		.byte	0x51
 12923 0045 9F       		.byte	0x9f
 12924 0046 00000000 		.4byte	0
 12925 004a 00000000 		.4byte	0
 12926              	.LLST2:
 12927 004e 00000000 		.4byte	.LVL0
 12928 0052 0D000000 		.4byte	.LVL2-1
 12929 0056 0100     		.2byte	0x1
 12930 0058 52       		.byte	0x52
 12931 0059 0D000000 		.4byte	.LVL2-1
 12932 005d 48000000 		.4byte	.LFE82
 12933 0061 0400     		.2byte	0x4
 12934 0063 F3       		.byte	0xf3
 12935 0064 01       		.uleb128 0x1
 12936 0065 52       		.byte	0x52
 12937 0066 9F       		.byte	0x9f
 12938 0067 00000000 		.4byte	0
 12939 006b 00000000 		.4byte	0
 12940              	.LLST3:
 12941 006f 10000000 		.4byte	.LVL3
 12942 0073 34000000 		.4byte	.LVL4
 12943 0077 0100     		.2byte	0x1
 12944 0079 50       		.byte	0x50
 12945 007a 34000000 		.4byte	.LVL4
 12946 007e 42000000 		.4byte	.LVL7
 12947 0082 0100     		.2byte	0x1
 12948 0084 54       		.byte	0x54
 12949 0085 42000000 		.4byte	.LVL7
 12950 0089 48000000 		.4byte	.LFE82
 12951 008d 0100     		.2byte	0x1
 12952 008f 50       		.byte	0x50
 12953 0090 00000000 		.4byte	0
 12954 0094 00000000 		.4byte	0
 12955              	.LLST4:
 12956 0098 00000000 		.4byte	.LVL11
 12957 009c 0D000000 		.4byte	.LVL13-1
 12958 00a0 0100     		.2byte	0x1
 12959 00a2 50       		.byte	0x50
 12960 00a3 0D000000 		.4byte	.LVL13-1
 12961 00a7 1C000000 		.4byte	.LFE35
 12962 00ab 0100     		.2byte	0x1
 12963 00ad 54       		.byte	0x54
 12964 00ae 00000000 		.4byte	0
 12965 00b2 00000000 		.4byte	0
 12966              	.LLST5:
 12967 00b6 00000000 		.4byte	.LVL11
 12968 00ba 0A000000 		.4byte	.LVL12
 12969 00be 0100     		.2byte	0x1
 12970 00c0 51       		.byte	0x51
 12971 00c1 0A000000 		.4byte	.LVL12
 12972 00c5 1C000000 		.4byte	.LFE35
 12973 00c9 0400     		.2byte	0x4
ARM GAS  C:\Users\d3bug\AppData\Local\Temp\ccFiAZjI.s 			page 277


 12974 00cb F3       		.byte	0xf3
 12975 00cc 01       		.uleb128 0x1
 12976 00cd 51       		.byte	0x51
 12977 00ce 9F       		.byte	0x9f
 12978 00cf 00000000 		.4byte	0
 12979 00d3 00000000 		.4byte	0
 12980              	.LLST6:
 12981 00d7 00000000 		.4byte	.LVL17
 12982 00db 06000000 		.4byte	.LVL18
 12983 00df 0100     		.2byte	0x1
 12984 00e1 51       		.byte	0x51
 12985 00e2 06000000 		.4byte	.LVL18
 12986 00e6 0C000000 		.4byte	.LFE40
 12987 00ea 0400     		.2byte	0x4
 12988 00ec F3       		.byte	0xf3
 12989 00ed 01       		.uleb128 0x1
 12990 00ee 51       		.byte	0x51
 12991 00ef 9F       		.byte	0x9f
 12992 00f0 00000000 		.4byte	0
 12993 00f4 00000000 		.4byte	0
 12994              	.LLST7:
 12995 00f8 00000000 		.4byte	.LVL19
 12996 00fc 00000000 		.4byte	.LVL19
 12997 0100 0100     		.2byte	0x1
 12998 0102 51       		.byte	0x51
 12999 0103 00000000 		.4byte	.LVL19
 13000 0107 08000000 		.4byte	.LVL20
 13001 010b 0400     		.2byte	0x4
 13002 010d 71       		.byte	0x71
 13003 010e 00       		.sleb128 0
 13004 010f 20       		.byte	0x20
 13005 0110 9F       		.byte	0x9f
 13006 0111 00000000 		.4byte	0
 13007 0115 00000000 		.4byte	0
 13008              	.LLST8:
 13009 0119 00000000 		.4byte	.LVL23
 13010 011d 06000000 		.4byte	.LVL24
 13011 0121 0100     		.2byte	0x1
 13012 0123 50       		.byte	0x50
 13013 0124 06000000 		.4byte	.LVL24
 13014 0128 0E000000 		.4byte	.LFE44
 13015 012c 0100     		.2byte	0x1
 13016 012e 54       		.byte	0x54
 13017 012f 00000000 		.4byte	0
 13018 0133 00000000 		.4byte	0
 13019              	.LLST9:
 13020 0137 00000000 		.4byte	.LVL23
 13021 013b 09000000 		.4byte	.LVL25-1
 13022 013f 0100     		.2byte	0x1
 13023 0141 51       		.byte	0x51
 13024 0142 09000000 		.4byte	.LVL25-1
 13025 0146 0E000000 		.4byte	.LFE44
 13026 014a 0400     		.2byte	0x4
 13027 014c F3       		.byte	0xf3
 13028 014d 01       		.uleb128 0x1
 13029 014e 51       		.byte	0x51
 13030 014f 9F       		.byte	0x9f
ARM GAS  C:\Users\d3bug\AppData\Local\Temp\ccFiAZjI.s 			page 278


 13031 0150 00000000 		.4byte	0
 13032 0154 00000000 		.4byte	0
 13033              	.LLST10:
 13034 0158 00000000 		.4byte	.LVL28
 13035 015c 02000000 		.4byte	.LVL29
 13036 0160 0100     		.2byte	0x1
 13037 0162 50       		.byte	0x50
 13038 0163 02000000 		.4byte	.LVL29
 13039 0167 04000000 		.4byte	.LFE52
 13040 016b 0400     		.2byte	0x4
 13041 016d F3       		.byte	0xf3
 13042 016e 01       		.uleb128 0x1
 13043 016f 50       		.byte	0x50
 13044 0170 9F       		.byte	0x9f
 13045 0171 00000000 		.4byte	0
 13046 0175 00000000 		.4byte	0
 13047              	.LLST11:
 13048 0179 00000000 		.4byte	.LVL30
 13049 017d 08000000 		.4byte	.LVL31
 13050 0181 0100     		.2byte	0x1
 13051 0183 50       		.byte	0x50
 13052 0184 08000000 		.4byte	.LVL31
 13053 0188 76000000 		.4byte	.LFE85
 13054 018c 0100     		.2byte	0x1
 13055 018e 55       		.byte	0x55
 13056 018f 00000000 		.4byte	0
 13057 0193 00000000 		.4byte	0
 13058              	.LLST12:
 13059 0197 0E000000 		.4byte	.LVL33
 13060 019b 10000000 		.4byte	.LVL34
 13061 019f 0100     		.2byte	0x1
 13062 01a1 50       		.byte	0x50
 13063 01a2 10000000 		.4byte	.LVL34
 13064 01a6 20000000 		.4byte	.LVL38
 13065 01aa 0100     		.2byte	0x1
 13066 01ac 54       		.byte	0x54
 13067 01ad 20000000 		.4byte	.LVL38
 13068 01b1 22000000 		.4byte	.LVL39
 13069 01b5 0100     		.2byte	0x1
 13070 01b7 56       		.byte	0x56
 13071 01b8 22000000 		.4byte	.LVL39
 13072 01bc 2E000000 		.4byte	.LVL41
 13073 01c0 0100     		.2byte	0x1
 13074 01c2 54       		.byte	0x54
 13075 01c3 00000000 		.4byte	0
 13076 01c7 00000000 		.4byte	0
 13077              	.LLST13:
 13078 01cb 1A000000 		.4byte	.LVL36
 13079 01cf 1C000000 		.4byte	.LVL37
 13080 01d3 0100     		.2byte	0x1
 13081 01d5 50       		.byte	0x50
 13082 01d6 1C000000 		.4byte	.LVL37
 13083 01da 22000000 		.4byte	.LVL39
 13084 01de 0100     		.2byte	0x1
 13085 01e0 56       		.byte	0x56
 13086 01e1 00000000 		.4byte	0
 13087 01e5 00000000 		.4byte	0
ARM GAS  C:\Users\d3bug\AppData\Local\Temp\ccFiAZjI.s 			page 279


 13088              	.LLST14:
 13089 01e9 2E000000 		.4byte	.LVL41
 13090 01ed 3E000000 		.4byte	.LVL42
 13091 01f1 0100     		.2byte	0x1
 13092 01f3 50       		.byte	0x50
 13093 01f4 3E000000 		.4byte	.LVL42
 13094 01f8 4A000000 		.4byte	.LVL45
 13095 01fc 0100     		.2byte	0x1
 13096 01fe 54       		.byte	0x54
 13097 01ff 4A000000 		.4byte	.LVL45
 13098 0203 50000000 		.4byte	.LVL46
 13099 0207 0100     		.2byte	0x1
 13100 0209 50       		.byte	0x50
 13101 020a 50000000 		.4byte	.LVL46
 13102 020e 76000000 		.4byte	.LFE85
 13103 0212 0100     		.2byte	0x1
 13104 0214 54       		.byte	0x54
 13105 0215 00000000 		.4byte	0
 13106 0219 00000000 		.4byte	0
 13107              	.LLST15:
 13108 021d 54000000 		.4byte	.LVL47
 13109 0221 58000000 		.4byte	.LVL48
 13110 0225 0100     		.2byte	0x1
 13111 0227 50       		.byte	0x50
 13112 0228 58000000 		.4byte	.LVL48
 13113 022c 5B000000 		.4byte	.LVL49-1
 13114 0230 0300     		.2byte	0x3
 13115 0232 70       		.byte	0x70
 13116 0233 7C       		.sleb128 -4
 13117 0234 9F       		.byte	0x9f
 13118 0235 00000000 		.4byte	0
 13119 0239 00000000 		.4byte	0
 13120              	.LLST16:
 13121 023d 00000000 		.4byte	.LVL53
 13122 0241 06000000 		.4byte	.LVL55
 13123 0245 0100     		.2byte	0x1
 13124 0247 50       		.byte	0x50
 13125 0248 06000000 		.4byte	.LVL55
 13126 024c 18000000 		.4byte	.LFE51
 13127 0250 0400     		.2byte	0x4
 13128 0252 F3       		.byte	0xf3
 13129 0253 01       		.uleb128 0x1
 13130 0254 50       		.byte	0x50
 13131 0255 9F       		.byte	0x9f
 13132 0256 00000000 		.4byte	0
 13133 025a 00000000 		.4byte	0
 13134              	.LLST17:
 13135 025e 04000000 		.4byte	.LVL54
 13136 0262 0D000000 		.4byte	.LVL57-1
 13137 0266 0100     		.2byte	0x1
 13138 0268 50       		.byte	0x50
 13139 0269 0D000000 		.4byte	.LVL57-1
 13140 026d 0E000000 		.4byte	.LVL57
 13141 0271 0100     		.2byte	0x1
 13142 0273 54       		.byte	0x54
 13143 0274 0E000000 		.4byte	.LVL57
 13144 0278 16000000 		.4byte	.LVL58
ARM GAS  C:\Users\d3bug\AppData\Local\Temp\ccFiAZjI.s 			page 280


 13145 027c 0100     		.2byte	0x1
 13146 027e 50       		.byte	0x50
 13147 027f 16000000 		.4byte	.LVL58
 13148 0283 18000000 		.4byte	.LFE51
 13149 0287 0100     		.2byte	0x1
 13150 0289 53       		.byte	0x53
 13151 028a 00000000 		.4byte	0
 13152 028e 00000000 		.4byte	0
 13153              	.LLST18:
 13154 0292 06000000 		.4byte	.LVL55
 13155 0296 08000000 		.4byte	.LVL56
 13156 029a 0100     		.2byte	0x1
 13157 029c 54       		.byte	0x54
 13158 029d 08000000 		.4byte	.LVL56
 13159 02a1 0D000000 		.4byte	.LVL57-1
 13160 02a5 0100     		.2byte	0x1
 13161 02a7 50       		.byte	0x50
 13162 02a8 0D000000 		.4byte	.LVL57-1
 13163 02ac 18000000 		.4byte	.LFE51
 13164 02b0 0100     		.2byte	0x1
 13165 02b2 54       		.byte	0x54
 13166 02b3 00000000 		.4byte	0
 13167 02b7 00000000 		.4byte	0
 13168              	.LLST19:
 13169 02bb 00000000 		.4byte	.LVL59
 13170 02bf 06000000 		.4byte	.LVL61
 13171 02c3 0100     		.2byte	0x1
 13172 02c5 50       		.byte	0x50
 13173 02c6 06000000 		.4byte	.LVL61
 13174 02ca 09000000 		.4byte	.LVL62-1
 13175 02ce 0300     		.2byte	0x3
 13176 02d0 70       		.byte	0x70
 13177 02d1 7C       		.sleb128 -4
 13178 02d2 9F       		.byte	0x9f
 13179 02d3 09000000 		.4byte	.LVL62-1
 13180 02d7 0C000000 		.4byte	.LVL63
 13181 02db 0400     		.2byte	0x4
 13182 02dd F3       		.byte	0xf3
 13183 02de 01       		.uleb128 0x1
 13184 02df 50       		.byte	0x50
 13185 02e0 9F       		.byte	0x9f
 13186 02e1 0C000000 		.4byte	.LVL63
 13187 02e5 0E000000 		.4byte	.LVL64
 13188 02e9 0100     		.2byte	0x1
 13189 02eb 50       		.byte	0x50
 13190 02ec 0E000000 		.4byte	.LVL64
 13191 02f0 11000000 		.4byte	.LVL65-1
 13192 02f4 0300     		.2byte	0x3
 13193 02f6 70       		.byte	0x70
 13194 02f7 7C       		.sleb128 -4
 13195 02f8 9F       		.byte	0x9f
 13196 02f9 11000000 		.4byte	.LVL65-1
 13197 02fd 14000000 		.4byte	.LFE53
 13198 0301 0400     		.2byte	0x4
 13199 0303 F3       		.byte	0xf3
 13200 0304 01       		.uleb128 0x1
 13201 0305 50       		.byte	0x50
ARM GAS  C:\Users\d3bug\AppData\Local\Temp\ccFiAZjI.s 			page 281


 13202 0306 9F       		.byte	0x9f
 13203 0307 00000000 		.4byte	0
 13204 030b 00000000 		.4byte	0
 13205              	.LLST20:
 13206 030f 00000000 		.4byte	.LVL59
 13207 0313 09000000 		.4byte	.LVL62-1
 13208 0317 0100     		.2byte	0x1
 13209 0319 51       		.byte	0x51
 13210 031a 09000000 		.4byte	.LVL62-1
 13211 031e 0C000000 		.4byte	.LVL63
 13212 0322 0400     		.2byte	0x4
 13213 0324 F3       		.byte	0xf3
 13214 0325 01       		.uleb128 0x1
 13215 0326 51       		.byte	0x51
 13216 0327 9F       		.byte	0x9f
 13217 0328 0C000000 		.4byte	.LVL63
 13218 032c 11000000 		.4byte	.LVL65-1
 13219 0330 0100     		.2byte	0x1
 13220 0332 51       		.byte	0x51
 13221 0333 11000000 		.4byte	.LVL65-1
 13222 0337 14000000 		.4byte	.LFE53
 13223 033b 0400     		.2byte	0x4
 13224 033d F3       		.byte	0xf3
 13225 033e 01       		.uleb128 0x1
 13226 033f 51       		.byte	0x51
 13227 0340 9F       		.byte	0x9f
 13228 0341 00000000 		.4byte	0
 13229 0345 00000000 		.4byte	0
 13230              	.LLST21:
 13231 0349 02000000 		.4byte	.LVL60
 13232 034d 0A000000 		.4byte	.LVL62
 13233 0351 0200     		.2byte	0x2
 13234 0353 30       		.byte	0x30
 13235 0354 9F       		.byte	0x9f
 13236 0355 0A000000 		.4byte	.LVL62
 13237 0359 0C000000 		.4byte	.LVL63
 13238 035d 0100     		.2byte	0x1
 13239 035f 50       		.byte	0x50
 13240 0360 0C000000 		.4byte	.LVL63
 13241 0364 12000000 		.4byte	.LVL65
 13242 0368 0200     		.2byte	0x2
 13243 036a 30       		.byte	0x30
 13244 036b 9F       		.byte	0x9f
 13245 036c 12000000 		.4byte	.LVL65
 13246 0370 14000000 		.4byte	.LFE53
 13247 0374 0100     		.2byte	0x1
 13248 0376 50       		.byte	0x50
 13249 0377 00000000 		.4byte	0
 13250 037b 00000000 		.4byte	0
 13251              	.LLST22:
 13252 037f 00000000 		.4byte	.LVL66
 13253 0383 06000000 		.4byte	.LVL68
 13254 0387 0100     		.2byte	0x1
 13255 0389 50       		.byte	0x50
 13256 038a 06000000 		.4byte	.LVL68
 13257 038e 09000000 		.4byte	.LVL69-1
 13258 0392 0300     		.2byte	0x3
ARM GAS  C:\Users\d3bug\AppData\Local\Temp\ccFiAZjI.s 			page 282


 13259 0394 70       		.byte	0x70
 13260 0395 7C       		.sleb128 -4
 13261 0396 9F       		.byte	0x9f
 13262 0397 09000000 		.4byte	.LVL69-1
 13263 039b 0C000000 		.4byte	.LVL70
 13264 039f 0400     		.2byte	0x4
 13265 03a1 F3       		.byte	0xf3
 13266 03a2 01       		.uleb128 0x1
 13267 03a3 50       		.byte	0x50
 13268 03a4 9F       		.byte	0x9f
 13269 03a5 0C000000 		.4byte	.LVL70
 13270 03a9 0E000000 		.4byte	.LVL71
 13271 03ad 0100     		.2byte	0x1
 13272 03af 50       		.byte	0x50
 13273 03b0 0E000000 		.4byte	.LVL71
 13274 03b4 11000000 		.4byte	.LVL72-1
 13275 03b8 0300     		.2byte	0x3
 13276 03ba 70       		.byte	0x70
 13277 03bb 7C       		.sleb128 -4
 13278 03bc 9F       		.byte	0x9f
 13279 03bd 11000000 		.4byte	.LVL72-1
 13280 03c1 14000000 		.4byte	.LFE54
 13281 03c5 0400     		.2byte	0x4
 13282 03c7 F3       		.byte	0xf3
 13283 03c8 01       		.uleb128 0x1
 13284 03c9 50       		.byte	0x50
 13285 03ca 9F       		.byte	0x9f
 13286 03cb 00000000 		.4byte	0
 13287 03cf 00000000 		.4byte	0
 13288              	.LLST23:
 13289 03d3 00000000 		.4byte	.LVL66
 13290 03d7 09000000 		.4byte	.LVL69-1
 13291 03db 0100     		.2byte	0x1
 13292 03dd 51       		.byte	0x51
 13293 03de 09000000 		.4byte	.LVL69-1
 13294 03e2 0C000000 		.4byte	.LVL70
 13295 03e6 0400     		.2byte	0x4
 13296 03e8 F3       		.byte	0xf3
 13297 03e9 01       		.uleb128 0x1
 13298 03ea 51       		.byte	0x51
 13299 03eb 9F       		.byte	0x9f
 13300 03ec 0C000000 		.4byte	.LVL70
 13301 03f0 11000000 		.4byte	.LVL72-1
 13302 03f4 0100     		.2byte	0x1
 13303 03f6 51       		.byte	0x51
 13304 03f7 11000000 		.4byte	.LVL72-1
 13305 03fb 14000000 		.4byte	.LFE54
 13306 03ff 0400     		.2byte	0x4
 13307 0401 F3       		.byte	0xf3
 13308 0402 01       		.uleb128 0x1
 13309 0403 51       		.byte	0x51
 13310 0404 9F       		.byte	0x9f
 13311 0405 00000000 		.4byte	0
 13312 0409 00000000 		.4byte	0
 13313              	.LLST24:
 13314 040d 02000000 		.4byte	.LVL67
 13315 0411 0A000000 		.4byte	.LVL69
ARM GAS  C:\Users\d3bug\AppData\Local\Temp\ccFiAZjI.s 			page 283


 13316 0415 0200     		.2byte	0x2
 13317 0417 30       		.byte	0x30
 13318 0418 9F       		.byte	0x9f
 13319 0419 0A000000 		.4byte	.LVL69
 13320 041d 0C000000 		.4byte	.LVL70
 13321 0421 0100     		.2byte	0x1
 13322 0423 50       		.byte	0x50
 13323 0424 0C000000 		.4byte	.LVL70
 13324 0428 12000000 		.4byte	.LVL72
 13325 042c 0200     		.2byte	0x2
 13326 042e 30       		.byte	0x30
 13327 042f 9F       		.byte	0x9f
 13328 0430 12000000 		.4byte	.LVL72
 13329 0434 14000000 		.4byte	.LFE54
 13330 0438 0100     		.2byte	0x1
 13331 043a 50       		.byte	0x50
 13332 043b 00000000 		.4byte	0
 13333 043f 00000000 		.4byte	0
 13334              	.LLST25:
 13335 0443 00000000 		.4byte	.LVL73
 13336 0447 06000000 		.4byte	.LVL75
 13337 044b 0100     		.2byte	0x1
 13338 044d 50       		.byte	0x50
 13339 044e 06000000 		.4byte	.LVL75
 13340 0452 09000000 		.4byte	.LVL76-1
 13341 0456 0300     		.2byte	0x3
 13342 0458 70       		.byte	0x70
 13343 0459 7C       		.sleb128 -4
 13344 045a 9F       		.byte	0x9f
 13345 045b 09000000 		.4byte	.LVL76-1
 13346 045f 22000000 		.4byte	.LFE55
 13347 0463 0300     		.2byte	0x3
 13348 0465 75       		.byte	0x75
 13349 0466 7C       		.sleb128 -4
 13350 0467 9F       		.byte	0x9f
 13351 0468 00000000 		.4byte	0
 13352 046c 00000000 		.4byte	0
 13353              	.LLST26:
 13354 0470 0A000000 		.4byte	.LVL76
 13355 0474 16000000 		.4byte	.LVL80
 13356 0478 0100     		.2byte	0x1
 13357 047a 50       		.byte	0x50
 13358 047b 16000000 		.4byte	.LVL80
 13359 047f 19000000 		.4byte	.LVL81-1
 13360 0483 0100     		.2byte	0x1
 13361 0485 51       		.byte	0x51
 13362 0486 1A000000 		.4byte	.LVL81
 13363 048a 20000000 		.4byte	.LVL82
 13364 048e 0100     		.2byte	0x1
 13365 0490 50       		.byte	0x50
 13366 0491 00000000 		.4byte	0
 13367 0495 00000000 		.4byte	0
 13368              	.LLST27:
 13369 0499 02000000 		.4byte	.LVL74
 13370 049d 0E000000 		.4byte	.LVL77
 13371 04a1 0200     		.2byte	0x2
 13372 04a3 30       		.byte	0x30
ARM GAS  C:\Users\d3bug\AppData\Local\Temp\ccFiAZjI.s 			page 284


 13373 04a4 9F       		.byte	0x9f
 13374 04a5 0E000000 		.4byte	.LVL77
 13375 04a9 10000000 		.4byte	.LVL78
 13376 04ad 0100     		.2byte	0x1
 13377 04af 54       		.byte	0x54
 13378 04b0 12000000 		.4byte	.LVL79
 13379 04b4 22000000 		.4byte	.LFE55
 13380 04b8 0100     		.2byte	0x1
 13381 04ba 54       		.byte	0x54
 13382 04bb 00000000 		.4byte	0
 13383 04bf 00000000 		.4byte	0
 13384              	.LLST28:
 13385 04c3 00000000 		.4byte	.LVL83
 13386 04c7 04000000 		.4byte	.LVL84
 13387 04cb 0100     		.2byte	0x1
 13388 04cd 50       		.byte	0x50
 13389 04ce 04000000 		.4byte	.LVL84
 13390 04d2 0C000000 		.4byte	.LFE56
 13391 04d6 0300     		.2byte	0x3
 13392 04d8 70       		.byte	0x70
 13393 04d9 70       		.sleb128 -16
 13394 04da 9F       		.byte	0x9f
 13395 04db 00000000 		.4byte	0
 13396 04df 00000000 		.4byte	0
 13397              	.LLST29:
 13398 04e3 00000000 		.4byte	.LVL83
 13399 04e7 04000000 		.4byte	.LVL84
 13400 04eb 0100     		.2byte	0x1
 13401 04ed 50       		.byte	0x50
 13402 04ee 04000000 		.4byte	.LVL84
 13403 04f2 0A000000 		.4byte	.LVL85
 13404 04f6 0300     		.2byte	0x3
 13405 04f8 70       		.byte	0x70
 13406 04f9 70       		.sleb128 -16
 13407 04fa 9F       		.byte	0x9f
 13408 04fb 00000000 		.4byte	0
 13409 04ff 00000000 		.4byte	0
 13410              	.LLST30:
 13411 0503 00000000 		.4byte	.LVL83
 13412 0507 0A000000 		.4byte	.LVL85
 13413 050b 0100     		.2byte	0x1
 13414 050d 51       		.byte	0x51
 13415 050e 00000000 		.4byte	0
 13416 0512 00000000 		.4byte	0
 13417              	.LLST31:
 13418 0516 00000000 		.4byte	.LVL86
 13419 051a 07000000 		.4byte	.LVL87-1
 13420 051e 0100     		.2byte	0x1
 13421 0520 50       		.byte	0x50
 13422 0521 07000000 		.4byte	.LVL87-1
 13423 0525 16000000 		.4byte	.LFE57
 13424 0529 0100     		.2byte	0x1
 13425 052b 54       		.byte	0x54
 13426 052c 00000000 		.4byte	0
 13427 0530 00000000 		.4byte	0
 13428              	.LLST32:
 13429 0534 08000000 		.4byte	.LVL87
ARM GAS  C:\Users\d3bug\AppData\Local\Temp\ccFiAZjI.s 			page 285


 13430 0538 10000000 		.4byte	.LVL88
 13431 053c 0100     		.2byte	0x1
 13432 053e 50       		.byte	0x50
 13433 053f 00000000 		.4byte	0
 13434 0543 00000000 		.4byte	0
 13435              	.LLST33:
 13436 0547 00000000 		.4byte	.LVL90
 13437 054b 07000000 		.4byte	.LVL91-1
 13438 054f 0100     		.2byte	0x1
 13439 0551 50       		.byte	0x50
 13440 0552 07000000 		.4byte	.LVL91-1
 13441 0556 16000000 		.4byte	.LFE58
 13442 055a 0100     		.2byte	0x1
 13443 055c 54       		.byte	0x54
 13444 055d 00000000 		.4byte	0
 13445 0561 00000000 		.4byte	0
 13446              	.LLST34:
 13447 0565 08000000 		.4byte	.LVL91
 13448 0569 10000000 		.4byte	.LVL92
 13449 056d 0100     		.2byte	0x1
 13450 056f 50       		.byte	0x50
 13451 0570 00000000 		.4byte	0
 13452 0574 00000000 		.4byte	0
 13453              	.LLST35:
 13454 0578 00000000 		.4byte	.LVL94
 13455 057c 08000000 		.4byte	.LVL95
 13456 0580 0100     		.2byte	0x1
 13457 0582 50       		.byte	0x50
 13458 0583 08000000 		.4byte	.LVL95
 13459 0587 10000000 		.4byte	.LFE59
 13460 058b 0400     		.2byte	0x4
 13461 058d F3       		.byte	0xf3
 13462 058e 01       		.uleb128 0x1
 13463 058f 50       		.byte	0x50
 13464 0590 9F       		.byte	0x9f
 13465 0591 00000000 		.4byte	0
 13466 0595 00000000 		.4byte	0
 13467              	.LLST36:
 13468 0599 00000000 		.4byte	.LVL94
 13469 059d 08000000 		.4byte	.LVL95
 13470 05a1 0300     		.2byte	0x3
 13471 05a3 70       		.byte	0x70
 13472 05a4 10       		.sleb128 16
 13473 05a5 9F       		.byte	0x9f
 13474 05a6 08000000 		.4byte	.LVL95
 13475 05aa 0C000000 		.4byte	.LVL96
 13476 05ae 0600     		.2byte	0x6
 13477 05b0 F3       		.byte	0xf3
 13478 05b1 01       		.uleb128 0x1
 13479 05b2 50       		.byte	0x50
 13480 05b3 23       		.byte	0x23
 13481 05b4 10       		.uleb128 0x10
 13482 05b5 9F       		.byte	0x9f
 13483 05b6 00000000 		.4byte	0
 13484 05ba 00000000 		.4byte	0
 13485              	.LLST37:
 13486 05be 00000000 		.4byte	.LVL97
ARM GAS  C:\Users\d3bug\AppData\Local\Temp\ccFiAZjI.s 			page 286


 13487 05c2 08000000 		.4byte	.LVL98
 13488 05c6 0100     		.2byte	0x1
 13489 05c8 50       		.byte	0x50
 13490 05c9 08000000 		.4byte	.LVL98
 13491 05cd 10000000 		.4byte	.LFE60
 13492 05d1 0400     		.2byte	0x4
 13493 05d3 F3       		.byte	0xf3
 13494 05d4 01       		.uleb128 0x1
 13495 05d5 50       		.byte	0x50
 13496 05d6 9F       		.byte	0x9f
 13497 05d7 00000000 		.4byte	0
 13498 05db 00000000 		.4byte	0
 13499              	.LLST38:
 13500 05df 00000000 		.4byte	.LVL97
 13501 05e3 08000000 		.4byte	.LVL98
 13502 05e7 0300     		.2byte	0x3
 13503 05e9 70       		.byte	0x70
 13504 05ea 10       		.sleb128 16
 13505 05eb 9F       		.byte	0x9f
 13506 05ec 08000000 		.4byte	.LVL98
 13507 05f0 0C000000 		.4byte	.LVL99
 13508 05f4 0600     		.2byte	0x6
 13509 05f6 F3       		.byte	0xf3
 13510 05f7 01       		.uleb128 0x1
 13511 05f8 50       		.byte	0x50
 13512 05f9 23       		.byte	0x23
 13513 05fa 10       		.uleb128 0x10
 13514 05fb 9F       		.byte	0x9f
 13515 05fc 00000000 		.4byte	0
 13516 0600 00000000 		.4byte	0
 13517              	.LLST39:
 13518 0604 00000000 		.4byte	.LVL100
 13519 0608 04000000 		.4byte	.LVL101
 13520 060c 0100     		.2byte	0x1
 13521 060e 50       		.byte	0x50
 13522 060f 04000000 		.4byte	.LVL101
 13523 0613 06000000 		.4byte	.LFE61
 13524 0617 0400     		.2byte	0x4
 13525 0619 F3       		.byte	0xf3
 13526 061a 01       		.uleb128 0x1
 13527 061b 50       		.byte	0x50
 13528 061c 9F       		.byte	0x9f
 13529 061d 00000000 		.4byte	0
 13530 0621 00000000 		.4byte	0
 13531              	.LLST40:
 13532 0625 00000000 		.4byte	.LVL102
 13533 0629 04000000 		.4byte	.LVL103
 13534 062d 0100     		.2byte	0x1
 13535 062f 50       		.byte	0x50
 13536 0630 04000000 		.4byte	.LVL103
 13537 0634 0A000000 		.4byte	.LFE62
 13538 0638 0400     		.2byte	0x4
 13539 063a F3       		.byte	0xf3
 13540 063b 01       		.uleb128 0x1
 13541 063c 50       		.byte	0x50
 13542 063d 9F       		.byte	0x9f
 13543 063e 00000000 		.4byte	0
ARM GAS  C:\Users\d3bug\AppData\Local\Temp\ccFiAZjI.s 			page 287


 13544 0642 00000000 		.4byte	0
 13545              	.LLST41:
 13546 0646 00000000 		.4byte	.LVL104
 13547 064a 08000000 		.4byte	.LVL107
 13548 064e 0100     		.2byte	0x1
 13549 0650 50       		.byte	0x50
 13550 0651 08000000 		.4byte	.LVL107
 13551 0655 2C000000 		.4byte	.LFE63
 13552 0659 0400     		.2byte	0x4
 13553 065b F3       		.byte	0xf3
 13554 065c 01       		.uleb128 0x1
 13555 065d 50       		.byte	0x50
 13556 065e 9F       		.byte	0x9f
 13557 065f 00000000 		.4byte	0
 13558 0663 00000000 		.4byte	0
 13559              	.LLST42:
 13560 0667 06000000 		.4byte	.LVL106
 13561 066b 1E000000 		.4byte	.LVL109
 13562 066f 0100     		.2byte	0x1
 13563 0671 53       		.byte	0x53
 13564 0672 00000000 		.4byte	0
 13565 0676 00000000 		.4byte	0
 13566              	.LLST43:
 13567 067a 00000000 		.4byte	.LVL111
 13568 067e 04000000 		.4byte	.LVL112
 13569 0682 0100     		.2byte	0x1
 13570 0684 50       		.byte	0x50
 13571 0685 04000000 		.4byte	.LVL112
 13572 0689 0A000000 		.4byte	.LFE64
 13573 068d 0400     		.2byte	0x4
 13574 068f F3       		.byte	0xf3
 13575 0690 01       		.uleb128 0x1
 13576 0691 50       		.byte	0x50
 13577 0692 9F       		.byte	0x9f
 13578 0693 00000000 		.4byte	0
 13579 0697 00000000 		.4byte	0
 13580              	.LLST44:
 13581 069b 00000000 		.4byte	.LVL113
 13582 069f 09000000 		.4byte	.LVL114-1
 13583 06a3 0100     		.2byte	0x1
 13584 06a5 50       		.byte	0x50
 13585 06a6 09000000 		.4byte	.LVL114-1
 13586 06aa 40000000 		.4byte	.LVL123
 13587 06ae 0100     		.2byte	0x1
 13588 06b0 55       		.byte	0x55
 13589 06b1 40000000 		.4byte	.LVL123
 13590 06b5 A2000000 		.4byte	.LFE16
 13591 06b9 0400     		.2byte	0x4
 13592 06bb F3       		.byte	0xf3
 13593 06bc 01       		.uleb128 0x1
 13594 06bd 50       		.byte	0x50
 13595 06be 9F       		.byte	0x9f
 13596 06bf 00000000 		.4byte	0
 13597 06c3 00000000 		.4byte	0
 13598              	.LLST45:
 13599 06c7 16000000 		.4byte	.LVL116
 13600 06cb 19000000 		.4byte	.LVL117-1
ARM GAS  C:\Users\d3bug\AppData\Local\Temp\ccFiAZjI.s 			page 288


 13601 06cf 0100     		.2byte	0x1
 13602 06d1 50       		.byte	0x50
 13603 06d2 19000000 		.4byte	.LVL117-1
 13604 06d6 36000000 		.4byte	.LVL121
 13605 06da 0100     		.2byte	0x1
 13606 06dc 54       		.byte	0x54
 13607 06dd 00000000 		.4byte	0
 13608 06e1 00000000 		.4byte	0
 13609              	.LLST46:
 13610 06e5 36000000 		.4byte	.LVL121
 13611 06e9 40000000 		.4byte	.LVL123
 13612 06ed 0100     		.2byte	0x1
 13613 06ef 50       		.byte	0x50
 13614 06f0 40000000 		.4byte	.LVL123
 13615 06f4 9E000000 		.4byte	.LVL134
 13616 06f8 0100     		.2byte	0x1
 13617 06fa 54       		.byte	0x54
 13618 06fb 00000000 		.4byte	0
 13619 06ff 00000000 		.4byte	0
 13620              	.LLST47:
 13621 0703 36000000 		.4byte	.LVL121
 13622 0707 72000000 		.4byte	.LVL127
 13623 070b 0200     		.2byte	0x2
 13624 070d 31       		.byte	0x31
 13625 070e 9F       		.byte	0x9f
 13626 070f 72000000 		.4byte	.LVL127
 13627 0713 7E000000 		.4byte	.LVL128
 13628 0717 0100     		.2byte	0x1
 13629 0719 55       		.byte	0x55
 13630 071a 7E000000 		.4byte	.LVL128
 13631 071e 84000000 		.4byte	.LVL129
 13632 0722 0100     		.2byte	0x1
 13633 0724 50       		.byte	0x50
 13634 0725 92000000 		.4byte	.LVL132
 13635 0729 9E000000 		.4byte	.LVL134
 13636 072d 0100     		.2byte	0x1
 13637 072f 55       		.byte	0x55
 13638 0730 00000000 		.4byte	0
 13639 0734 00000000 		.4byte	0
 13640              	.LLST48:
 13641 0738 3A000000 		.4byte	.LVL122
 13642 073c 6A000000 		.4byte	.LVL125
 13643 0740 0100     		.2byte	0x1
 13644 0742 53       		.byte	0x53
 13645 0743 6A000000 		.4byte	.LVL125
 13646 0747 70000000 		.4byte	.LVL126
 13647 074b 0200     		.2byte	0x2
 13648 074d 75       		.byte	0x75
 13649 074e 20       		.sleb128 32
 13650 074f 70000000 		.4byte	.LVL126
 13651 0753 72000000 		.4byte	.LVL127
 13652 0757 0500     		.2byte	0x5
 13653 0759 F3       		.byte	0xf3
 13654 075a 01       		.uleb128 0x1
 13655 075b 50       		.byte	0x50
 13656 075c 23       		.byte	0x23
 13657 075d 30       		.uleb128 0x30
ARM GAS  C:\Users\d3bug\AppData\Local\Temp\ccFiAZjI.s 			page 289


 13658 075e 00000000 		.4byte	0
 13659 0762 00000000 		.4byte	0
 13660              	.LLST49:
 13661 0766 3A000000 		.4byte	.LVL122
 13662 076a 40000000 		.4byte	.LVL123
 13663 076e 0100     		.2byte	0x1
 13664 0770 55       		.byte	0x55
 13665 0771 40000000 		.4byte	.LVL123
 13666 0775 44000000 		.4byte	.LVL124
 13667 0779 0300     		.2byte	0x3
 13668 077b 75       		.byte	0x75
 13669 077c 70       		.sleb128 -16
 13670 077d 9F       		.byte	0x9f
 13671 077e 00000000 		.4byte	0
 13672 0782 00000000 		.4byte	0
 13673              	.LLST50:
 13674 0786 3A000000 		.4byte	.LVL122
 13675 078a 44000000 		.4byte	.LVL124
 13676 078e 0100     		.2byte	0x1
 13677 0790 5D       		.byte	0x5d
 13678 0791 00000000 		.4byte	0
 13679 0795 00000000 		.4byte	0
 13680              	.LLST51:
 13681 0799 00000000 		.4byte	.LVL135
 13682 079d 07000000 		.4byte	.LVL136-1
 13683 07a1 0100     		.2byte	0x1
 13684 07a3 50       		.byte	0x50
 13685 07a4 07000000 		.4byte	.LVL136-1
 13686 07a8 96000000 		.4byte	.LVL162
 13687 07ac 0100     		.2byte	0x1
 13688 07ae 55       		.byte	0x55
 13689 07af 96000000 		.4byte	.LVL162
 13690 07b3 9C000000 		.4byte	.LFE14
 13691 07b7 0400     		.2byte	0x4
 13692 07b9 F3       		.byte	0xf3
 13693 07ba 01       		.uleb128 0x1
 13694 07bb 50       		.byte	0x50
 13695 07bc 9F       		.byte	0x9f
 13696 07bd 00000000 		.4byte	0
 13697 07c1 00000000 		.4byte	0
 13698              	.LLST52:
 13699 07c5 12000000 		.4byte	.LVL138
 13700 07c9 14000000 		.4byte	.LVL139
 13701 07cd 0100     		.2byte	0x1
 13702 07cf 50       		.byte	0x50
 13703 07d0 14000000 		.4byte	.LVL139
 13704 07d4 24000000 		.4byte	.LVL143
 13705 07d8 0100     		.2byte	0x1
 13706 07da 54       		.byte	0x54
 13707 07db 24000000 		.4byte	.LVL143
 13708 07df 26000000 		.4byte	.LVL144
 13709 07e3 0100     		.2byte	0x1
 13710 07e5 56       		.byte	0x56
 13711 07e6 26000000 		.4byte	.LVL144
 13712 07ea 4E000000 		.4byte	.LVL152
 13713 07ee 0100     		.2byte	0x1
 13714 07f0 54       		.byte	0x54
ARM GAS  C:\Users\d3bug\AppData\Local\Temp\ccFiAZjI.s 			page 290


 13715 07f1 00000000 		.4byte	0
 13716 07f5 00000000 		.4byte	0
 13717              	.LLST53:
 13718 07f9 1E000000 		.4byte	.LVL141
 13719 07fd 20000000 		.4byte	.LVL142
 13720 0801 0100     		.2byte	0x1
 13721 0803 50       		.byte	0x50
 13722 0804 20000000 		.4byte	.LVL142
 13723 0808 26000000 		.4byte	.LVL144
 13724 080c 0100     		.2byte	0x1
 13725 080e 56       		.byte	0x56
 13726 080f 00000000 		.4byte	0
 13727 0813 00000000 		.4byte	0
 13728              	.LLST54:
 13729 0817 30000000 		.4byte	.LVL145
 13730 081b 38000000 		.4byte	.LVL146
 13731 081f 0100     		.2byte	0x1
 13732 0821 50       		.byte	0x50
 13733 0822 38000000 		.4byte	.LVL146
 13734 0826 3E000000 		.4byte	.LVL148
 13735 082a 0100     		.2byte	0x1
 13736 082c 56       		.byte	0x56
 13737 082d 3E000000 		.4byte	.LVL148
 13738 0831 42000000 		.4byte	.LVL149
 13739 0835 0100     		.2byte	0x1
 13740 0837 50       		.byte	0x50
 13741 0838 42000000 		.4byte	.LVL149
 13742 083c 96000000 		.4byte	.LVL162
 13743 0840 0100     		.2byte	0x1
 13744 0842 56       		.byte	0x56
 13745 0843 00000000 		.4byte	0
 13746 0847 00000000 		.4byte	0
 13747              	.LLST55:
 13748 084b 4E000000 		.4byte	.LVL152
 13749 084f 5E000000 		.4byte	.LVL153
 13750 0853 0100     		.2byte	0x1
 13751 0855 50       		.byte	0x50
 13752 0856 5E000000 		.4byte	.LVL153
 13753 085a 6A000000 		.4byte	.LVL156
 13754 085e 0100     		.2byte	0x1
 13755 0860 54       		.byte	0x54
 13756 0861 6A000000 		.4byte	.LVL156
 13757 0865 76000000 		.4byte	.LVL157
 13758 0869 0100     		.2byte	0x1
 13759 086b 50       		.byte	0x50
 13760 086c 76000000 		.4byte	.LVL157
 13761 0870 96000000 		.4byte	.LVL162
 13762 0874 0100     		.2byte	0x1
 13763 0876 54       		.byte	0x54
 13764 0877 00000000 		.4byte	0
 13765 087b 00000000 		.4byte	0
 13766              	.LLST56:
 13767 087f 00000000 		.4byte	.LVL163
 13768 0883 09000000 		.4byte	.LVL164-1
 13769 0887 0100     		.2byte	0x1
 13770 0889 50       		.byte	0x50
 13771 088a 09000000 		.4byte	.LVL164-1
ARM GAS  C:\Users\d3bug\AppData\Local\Temp\ccFiAZjI.s 			page 291


 13772 088e 26000000 		.4byte	.LFE15
 13773 0892 0100     		.2byte	0x1
 13774 0894 56       		.byte	0x56
 13775 0895 00000000 		.4byte	0
 13776 0899 00000000 		.4byte	0
 13777              	.LLST57:
 13778 089d 0C000000 		.4byte	.LVL165
 13779 08a1 0E000000 		.4byte	.LVL166
 13780 08a5 0100     		.2byte	0x1
 13781 08a7 50       		.byte	0x50
 13782 08a8 0E000000 		.4byte	.LVL166
 13783 08ac 1E000000 		.4byte	.LVL170
 13784 08b0 0100     		.2byte	0x1
 13785 08b2 54       		.byte	0x54
 13786 08b3 1E000000 		.4byte	.LVL170
 13787 08b7 20000000 		.4byte	.LVL171
 13788 08bb 0100     		.2byte	0x1
 13789 08bd 55       		.byte	0x55
 13790 08be 20000000 		.4byte	.LVL171
 13791 08c2 26000000 		.4byte	.LFE15
 13792 08c6 0100     		.2byte	0x1
 13793 08c8 54       		.byte	0x54
 13794 08c9 00000000 		.4byte	0
 13795 08cd 00000000 		.4byte	0
 13796              	.LLST58:
 13797 08d1 18000000 		.4byte	.LVL168
 13798 08d5 1A000000 		.4byte	.LVL169
 13799 08d9 0100     		.2byte	0x1
 13800 08db 50       		.byte	0x50
 13801 08dc 1A000000 		.4byte	.LVL169
 13802 08e0 20000000 		.4byte	.LVL171
 13803 08e4 0100     		.2byte	0x1
 13804 08e6 55       		.byte	0x55
 13805 08e7 00000000 		.4byte	0
 13806 08eb 00000000 		.4byte	0
 13807              	.LLST59:
 13808 08ef 00000000 		.4byte	.LVL172
 13809 08f3 09000000 		.4byte	.LVL173-1
 13810 08f7 0100     		.2byte	0x1
 13811 08f9 50       		.byte	0x50
 13812 08fa 09000000 		.4byte	.LVL173-1
 13813 08fe 10000000 		.4byte	.LFE17
 13814 0902 0400     		.2byte	0x4
 13815 0904 F3       		.byte	0xf3
 13816 0905 01       		.uleb128 0x1
 13817 0906 50       		.byte	0x50
 13818 0907 9F       		.byte	0x9f
 13819 0908 00000000 		.4byte	0
 13820 090c 00000000 		.4byte	0
 13821              	.LLST60:
 13822 0910 00000000 		.4byte	.LVL174
 13823 0914 41000000 		.4byte	.LVL181-1
 13824 0918 0100     		.2byte	0x1
 13825 091a 50       		.byte	0x50
 13826 091b 41000000 		.4byte	.LVL181-1
 13827 091f 86000000 		.4byte	.LVL186
 13828 0923 0100     		.2byte	0x1
ARM GAS  C:\Users\d3bug\AppData\Local\Temp\ccFiAZjI.s 			page 292


 13829 0925 55       		.byte	0x55
 13830 0926 86000000 		.4byte	.LVL186
 13831 092a 8C000000 		.4byte	.LFE19
 13832 092e 0400     		.2byte	0x4
 13833 0930 F3       		.byte	0xf3
 13834 0931 01       		.uleb128 0x1
 13835 0932 50       		.byte	0x50
 13836 0933 9F       		.byte	0x9f
 13837 0934 00000000 		.4byte	0
 13838 0938 00000000 		.4byte	0
 13839              	.LLST61:
 13840 093c 00000000 		.4byte	.LVL174
 13841 0940 0E000000 		.4byte	.LVL176
 13842 0944 0100     		.2byte	0x1
 13843 0946 51       		.byte	0x51
 13844 0947 0E000000 		.4byte	.LVL176
 13845 094b 10000000 		.4byte	.LVL177
 13846 094f 0400     		.2byte	0x4
 13847 0951 F3       		.byte	0xf3
 13848 0952 01       		.uleb128 0x1
 13849 0953 51       		.byte	0x51
 13850 0954 9F       		.byte	0x9f
 13851 0955 10000000 		.4byte	.LVL177
 13852 0959 41000000 		.4byte	.LVL181-1
 13853 095d 0100     		.2byte	0x1
 13854 095f 51       		.byte	0x51
 13855 0960 00000000 		.4byte	0
 13856 0964 00000000 		.4byte	0
 13857              	.LLST62:
 13858 0968 00000000 		.4byte	.LVL174
 13859 096c 16000000 		.4byte	.LVL178
 13860 0970 0100     		.2byte	0x1
 13861 0972 52       		.byte	0x52
 13862 0973 16000000 		.4byte	.LVL178
 13863 0977 18000000 		.4byte	.LVL179
 13864 097b 0400     		.2byte	0x4
 13865 097d F3       		.byte	0xf3
 13866 097e 01       		.uleb128 0x1
 13867 097f 52       		.byte	0x52
 13868 0980 9F       		.byte	0x9f
 13869 0981 18000000 		.4byte	.LVL179
 13870 0985 2A000000 		.4byte	.LVL180
 13871 0989 0100     		.2byte	0x1
 13872 098b 54       		.byte	0x54
 13873 098c 00000000 		.4byte	0
 13874 0990 00000000 		.4byte	0
 13875              	.LLST63:
 13876 0994 00000000 		.4byte	.LVL187
 13877 0998 09000000 		.4byte	.LVL188-1
 13878 099c 0100     		.2byte	0x1
 13879 099e 50       		.byte	0x50
 13880 099f 09000000 		.4byte	.LVL188-1
 13881 09a3 16000000 		.4byte	.LFE20
 13882 09a7 0100     		.2byte	0x1
 13883 09a9 54       		.byte	0x54
 13884 09aa 00000000 		.4byte	0
 13885 09ae 00000000 		.4byte	0
ARM GAS  C:\Users\d3bug\AppData\Local\Temp\ccFiAZjI.s 			page 293


 13886              	.LLST64:
 13887 09b2 00000000 		.4byte	.LVL187
 13888 09b6 09000000 		.4byte	.LVL188-1
 13889 09ba 0100     		.2byte	0x1
 13890 09bc 51       		.byte	0x51
 13891 09bd 09000000 		.4byte	.LVL188-1
 13892 09c1 16000000 		.4byte	.LFE20
 13893 09c5 0400     		.2byte	0x4
 13894 09c7 F3       		.byte	0xf3
 13895 09c8 01       		.uleb128 0x1
 13896 09c9 51       		.byte	0x51
 13897 09ca 9F       		.byte	0x9f
 13898 09cb 00000000 		.4byte	0
 13899 09cf 00000000 		.4byte	0
 13900              	.LLST65:
 13901 09d3 00000000 		.4byte	.LVL190
 13902 09d7 09000000 		.4byte	.LVL191-1
 13903 09db 0100     		.2byte	0x1
 13904 09dd 50       		.byte	0x50
 13905 09de 09000000 		.4byte	.LVL191-1
 13906 09e2 16000000 		.4byte	.LFE21
 13907 09e6 0100     		.2byte	0x1
 13908 09e8 54       		.byte	0x54
 13909 09e9 00000000 		.4byte	0
 13910 09ed 00000000 		.4byte	0
 13911              	.LLST66:
 13912 09f1 00000000 		.4byte	.LVL190
 13913 09f5 09000000 		.4byte	.LVL191-1
 13914 09f9 0100     		.2byte	0x1
 13915 09fb 51       		.byte	0x51
 13916 09fc 09000000 		.4byte	.LVL191-1
 13917 0a00 16000000 		.4byte	.LFE21
 13918 0a04 0400     		.2byte	0x4
 13919 0a06 F3       		.byte	0xf3
 13920 0a07 01       		.uleb128 0x1
 13921 0a08 51       		.byte	0x51
 13922 0a09 9F       		.byte	0x9f
 13923 0a0a 00000000 		.4byte	0
 13924 0a0e 00000000 		.4byte	0
 13925              	.LLST67:
 13926 0a12 00000000 		.4byte	.LVL193
 13927 0a16 13000000 		.4byte	.LVL194-1
 13928 0a1a 0100     		.2byte	0x1
 13929 0a1c 50       		.byte	0x50
 13930 0a1d 13000000 		.4byte	.LVL194-1
 13931 0a21 38030000 		.4byte	.LFE25
 13932 0a25 0100     		.2byte	0x1
 13933 0a27 56       		.byte	0x56
 13934 0a28 00000000 		.4byte	0
 13935 0a2c 00000000 		.4byte	0
 13936              	.LLST68:
 13937 0a30 00000000 		.4byte	.LVL193
 13938 0a34 13000000 		.4byte	.LVL194-1
 13939 0a38 0100     		.2byte	0x1
 13940 0a3a 51       		.byte	0x51
 13941 0a3b 13000000 		.4byte	.LVL194-1
 13942 0a3f 38030000 		.4byte	.LFE25
ARM GAS  C:\Users\d3bug\AppData\Local\Temp\ccFiAZjI.s 			page 294


 13943 0a43 0100     		.2byte	0x1
 13944 0a45 57       		.byte	0x57
 13945 0a46 00000000 		.4byte	0
 13946 0a4a 00000000 		.4byte	0
 13947              	.LLST69:
 13948 0a4e 00000000 		.4byte	.LVL193
 13949 0a52 13000000 		.4byte	.LVL194-1
 13950 0a56 0100     		.2byte	0x1
 13951 0a58 52       		.byte	0x52
 13952 0a59 13000000 		.4byte	.LVL194-1
 13953 0a5d 38030000 		.4byte	.LFE25
 13954 0a61 0400     		.2byte	0x4
 13955 0a63 F3       		.byte	0xf3
 13956 0a64 01       		.uleb128 0x1
 13957 0a65 52       		.byte	0x52
 13958 0a66 9F       		.byte	0x9f
 13959 0a67 00000000 		.4byte	0
 13960 0a6b 00000000 		.4byte	0
 13961              	.LLST70:
 13962 0a6f 00000000 		.4byte	.LVL193
 13963 0a73 13000000 		.4byte	.LVL194-1
 13964 0a77 0100     		.2byte	0x1
 13965 0a79 53       		.byte	0x53
 13966 0a7a 13000000 		.4byte	.LVL194-1
 13967 0a7e 38030000 		.4byte	.LFE25
 13968 0a82 0400     		.2byte	0x4
 13969 0a84 F3       		.byte	0xf3
 13970 0a85 01       		.uleb128 0x1
 13971 0a86 53       		.byte	0x53
 13972 0a87 9F       		.byte	0x9f
 13973 0a88 00000000 		.4byte	0
 13974 0a8c 00000000 		.4byte	0
 13975              	.LLST71:
 13976 0a90 16000000 		.4byte	.LVL195
 13977 0a94 66000000 		.4byte	.LVL201
 13978 0a98 0100     		.2byte	0x1
 13979 0a9a 55       		.byte	0x55
 13980 0a9b 7C000000 		.4byte	.LVL203
 13981 0a9f A4000000 		.4byte	.LVL209
 13982 0aa3 0100     		.2byte	0x1
 13983 0aa5 55       		.byte	0x55
 13984 0aa6 BA000000 		.4byte	.LVL211
 13985 0aaa C6000000 		.4byte	.LVL214
 13986 0aae 0100     		.2byte	0x1
 13987 0ab0 55       		.byte	0x55
 13988 0ab1 D0000000 		.4byte	.LVL216
 13989 0ab5 D4000000 		.4byte	.LVL217
 13990 0ab9 0100     		.2byte	0x1
 13991 0abb 55       		.byte	0x55
 13992 0abc D4000000 		.4byte	.LVL217
 13993 0ac0 EA000000 		.4byte	.LVL222
 13994 0ac4 0200     		.2byte	0x2
 13995 0ac6 30       		.byte	0x30
 13996 0ac7 9F       		.byte	0x9f
 13997 0ac8 EA000000 		.4byte	.LVL222
 13998 0acc F2000000 		.4byte	.LVL224
 13999 0ad0 0100     		.2byte	0x1
ARM GAS  C:\Users\d3bug\AppData\Local\Temp\ccFiAZjI.s 			page 295


 14000 0ad2 55       		.byte	0x55
 14001 0ad3 08010000 		.4byte	.LVL226
 14002 0ad7 24010000 		.4byte	.LVL232
 14003 0adb 0100     		.2byte	0x1
 14004 0add 55       		.byte	0x55
 14005 0ade 2E010000 		.4byte	.LVL234
 14006 0ae2 42010000 		.4byte	.LVL239
 14007 0ae6 0100     		.2byte	0x1
 14008 0ae8 55       		.byte	0x55
 14009 0ae9 42010000 		.4byte	.LVL239
 14010 0aed 64010000 		.4byte	.LVL244
 14011 0af1 0200     		.2byte	0x2
 14012 0af3 30       		.byte	0x30
 14013 0af4 9F       		.byte	0x9f
 14014 0af5 64010000 		.4byte	.LVL244
 14015 0af9 6C010000 		.4byte	.LVL246
 14016 0afd 0100     		.2byte	0x1
 14017 0aff 55       		.byte	0x55
 14018 0b00 76010000 		.4byte	.LVL248
 14019 0b04 96010000 		.4byte	.LVL253
 14020 0b08 0100     		.2byte	0x1
 14021 0b0a 55       		.byte	0x55
 14022 0b0b 96010000 		.4byte	.LVL253
 14023 0b0f A4010000 		.4byte	.LVL256
 14024 0b13 0200     		.2byte	0x2
 14025 0b15 30       		.byte	0x30
 14026 0b16 9F       		.byte	0x9f
 14027 0b17 A4010000 		.4byte	.LVL256
 14028 0b1b AC010000 		.4byte	.LVL258
 14029 0b1f 0100     		.2byte	0x1
 14030 0b21 55       		.byte	0x55
 14031 0b22 C2010000 		.4byte	.LVL260
 14032 0b26 D6010000 		.4byte	.LVL264
 14033 0b2a 0100     		.2byte	0x1
 14034 0b2c 55       		.byte	0x55
 14035 0b2d E0010000 		.4byte	.LVL266
 14036 0b31 EC010000 		.4byte	.LVL269
 14037 0b35 0100     		.2byte	0x1
 14038 0b37 55       		.byte	0x55
 14039 0b38 EC010000 		.4byte	.LVL269
 14040 0b3c F8010000 		.4byte	.LVL272
 14041 0b40 0200     		.2byte	0x2
 14042 0b42 30       		.byte	0x30
 14043 0b43 9F       		.byte	0x9f
 14044 0b44 F8010000 		.4byte	.LVL272
 14045 0b48 00020000 		.4byte	.LVL274
 14046 0b4c 0100     		.2byte	0x1
 14047 0b4e 55       		.byte	0x55
 14048 0b4f 16020000 		.4byte	.LVL276
 14049 0b53 28020000 		.4byte	.LVL280
 14050 0b57 0100     		.2byte	0x1
 14051 0b59 55       		.byte	0x55
 14052 0b5a 32020000 		.4byte	.LVL282
 14053 0b5e 0E030000 		.4byte	.LVL325
 14054 0b62 0100     		.2byte	0x1
 14055 0b64 55       		.byte	0x55
 14056 0b65 0E030000 		.4byte	.LVL325
ARM GAS  C:\Users\d3bug\AppData\Local\Temp\ccFiAZjI.s 			page 296


 14057 0b69 19030000 		.4byte	.LVL327-1
 14058 0b6d 0100     		.2byte	0x1
 14059 0b6f 51       		.byte	0x51
 14060 0b70 00000000 		.4byte	0
 14061 0b74 00000000 		.4byte	0
 14062              	.LLST72:
 14063 0b78 1E000000 		.4byte	.LVL197
 14064 0b7c 84000000 		.4byte	.LVL205
 14065 0b80 0100     		.2byte	0x1
 14066 0b82 54       		.byte	0x54
 14067 0b83 9A000000 		.4byte	.LVL207
 14068 0b87 BA000000 		.4byte	.LVL211
 14069 0b8b 0100     		.2byte	0x1
 14070 0b8d 54       		.byte	0x54
 14071 0b8e BA000000 		.4byte	.LVL211
 14072 0b92 BE000000 		.4byte	.LVL212
 14073 0b96 0200     		.2byte	0x2
 14074 0b98 30       		.byte	0x30
 14075 0b99 9F       		.byte	0x9f
 14076 0b9a BE000000 		.4byte	.LVL212
 14077 0b9e D0000000 		.4byte	.LVL216
 14078 0ba2 0100     		.2byte	0x1
 14079 0ba4 54       		.byte	0x54
 14080 0ba5 D0000000 		.4byte	.LVL216
 14081 0ba9 D4000000 		.4byte	.LVL217
 14082 0bad 0200     		.2byte	0x2
 14083 0baf 30       		.byte	0x30
 14084 0bb0 9F       		.byte	0x9f
 14085 0bb1 D4000000 		.4byte	.LVL217
 14086 0bb5 DC000000 		.4byte	.LVL219
 14087 0bb9 0100     		.2byte	0x1
 14088 0bbb 54       		.byte	0x54
 14089 0bbc E6000000 		.4byte	.LVL221
 14090 0bc0 10010000 		.4byte	.LVL228
 14091 0bc4 0100     		.2byte	0x1
 14092 0bc6 54       		.byte	0x54
 14093 0bc7 1A010000 		.4byte	.LVL230
 14094 0bcb 36010000 		.4byte	.LVL236
 14095 0bcf 0100     		.2byte	0x1
 14096 0bd1 54       		.byte	0x54
 14097 0bd2 40010000 		.4byte	.LVL238
 14098 0bd6 4A010000 		.4byte	.LVL241
 14099 0bda 0100     		.2byte	0x1
 14100 0bdc 54       		.byte	0x54
 14101 0bdd 60010000 		.4byte	.LVL243
 14102 0be1 7E010000 		.4byte	.LVL250
 14103 0be5 0100     		.2byte	0x1
 14104 0be7 54       		.byte	0x54
 14105 0be8 94010000 		.4byte	.LVL252
 14106 0bec 46020000 		.4byte	.LVL286
 14107 0bf0 0100     		.2byte	0x1
 14108 0bf2 54       		.byte	0x54
 14109 0bf3 46020000 		.4byte	.LVL286
 14110 0bf7 4A020000 		.4byte	.LVL287
 14111 0bfb 0200     		.2byte	0x2
 14112 0bfd 30       		.byte	0x30
 14113 0bfe 9F       		.byte	0x9f
ARM GAS  C:\Users\d3bug\AppData\Local\Temp\ccFiAZjI.s 			page 297


 14114 0bff 4A020000 		.4byte	.LVL287
 14115 0c03 5C020000 		.4byte	.LVL291
 14116 0c07 0100     		.2byte	0x1
 14117 0c09 54       		.byte	0x54
 14118 0c0a 72020000 		.4byte	.LVL293
 14119 0c0e 86020000 		.4byte	.LVL297
 14120 0c12 0100     		.2byte	0x1
 14121 0c14 54       		.byte	0x54
 14122 0c15 90020000 		.4byte	.LVL299
 14123 0c19 9A020000 		.4byte	.LVL301
 14124 0c1d 0100     		.2byte	0x1
 14125 0c1f 54       		.byte	0x54
 14126 0c20 9A020000 		.4byte	.LVL301
 14127 0c24 9E020000 		.4byte	.LVL302
 14128 0c28 0200     		.2byte	0x2
 14129 0c2a 30       		.byte	0x30
 14130 0c2b 9F       		.byte	0x9f
 14131 0c2c 9E020000 		.4byte	.LVL302
 14132 0c30 AE020000 		.4byte	.LVL306
 14133 0c34 0100     		.2byte	0x1
 14134 0c36 54       		.byte	0x54
 14135 0c37 C4020000 		.4byte	.LVL308
 14136 0c3b D6020000 		.4byte	.LVL312
 14137 0c3f 0100     		.2byte	0x1
 14138 0c41 54       		.byte	0x54
 14139 0c42 E0020000 		.4byte	.LVL314
 14140 0c46 E4020000 		.4byte	.LVL315
 14141 0c4a 0100     		.2byte	0x1
 14142 0c4c 54       		.byte	0x54
 14143 0c4d E6020000 		.4byte	.LVL316
 14144 0c51 10030000 		.4byte	.LVL326
 14145 0c55 0100     		.2byte	0x1
 14146 0c57 54       		.byte	0x54
 14147 0c58 10030000 		.4byte	.LVL326
 14148 0c5c 19030000 		.4byte	.LVL327-1
 14149 0c60 0100     		.2byte	0x1
 14150 0c62 52       		.byte	0x52
 14151 0c63 00000000 		.4byte	0
 14152 0c67 00000000 		.4byte	0
 14153              	.LLST73:
 14154 0c6b EC020000 		.4byte	.LVL317
 14155 0c6f 00030000 		.4byte	.LVL322
 14156 0c73 0100     		.2byte	0x1
 14157 0c75 50       		.byte	0x50
 14158 0c76 00000000 		.4byte	0
 14159 0c7a 00000000 		.4byte	0
 14160              	.LLST74:
 14161 0c7e F0020000 		.4byte	.LVL318
 14162 0c82 19030000 		.4byte	.LVL327-1
 14163 0c86 0100     		.2byte	0x1
 14164 0c88 5E       		.byte	0x5e
 14165 0c89 00000000 		.4byte	0
 14166 0c8d 00000000 		.4byte	0
 14167              	.LLST75:
 14168 0c91 F4020000 		.4byte	.LVL319
 14169 0c95 19030000 		.4byte	.LVL327-1
 14170 0c99 0100     		.2byte	0x1
ARM GAS  C:\Users\d3bug\AppData\Local\Temp\ccFiAZjI.s 			page 298


 14171 0c9b 53       		.byte	0x53
 14172 0c9c 00000000 		.4byte	0
 14173 0ca0 00000000 		.4byte	0
 14174              	.LLST76:
 14175 0ca4 F8020000 		.4byte	.LVL320
 14176 0ca8 0E030000 		.4byte	.LVL325
 14177 0cac 0100     		.2byte	0x1
 14178 0cae 51       		.byte	0x51
 14179 0caf 00000000 		.4byte	0
 14180 0cb3 00000000 		.4byte	0
 14181              	.LLST77:
 14182 0cb7 FC020000 		.4byte	.LVL321
 14183 0cbb 10030000 		.4byte	.LVL326
 14184 0cbf 0100     		.2byte	0x1
 14185 0cc1 52       		.byte	0x52
 14186 0cc2 00000000 		.4byte	0
 14187 0cc6 00000000 		.4byte	0
 14188              	.LLST78:
 14189 0cca 00000000 		.4byte	.LVL328
 14190 0cce 15000000 		.4byte	.LVL329-1
 14191 0cd2 0100     		.2byte	0x1
 14192 0cd4 50       		.byte	0x50
 14193 0cd5 15000000 		.4byte	.LVL329-1
 14194 0cd9 C4020000 		.4byte	.LFE26
 14195 0cdd 0100     		.2byte	0x1
 14196 0cdf 54       		.byte	0x54
 14197 0ce0 00000000 		.4byte	0
 14198 0ce4 00000000 		.4byte	0
 14199              	.LLST79:
 14200 0ce8 00000000 		.4byte	.LVL328
 14201 0cec 15000000 		.4byte	.LVL329-1
 14202 0cf0 0100     		.2byte	0x1
 14203 0cf2 51       		.byte	0x51
 14204 0cf3 15000000 		.4byte	.LVL329-1
 14205 0cf7 C4020000 		.4byte	.LFE26
 14206 0cfb 0100     		.2byte	0x1
 14207 0cfd 57       		.byte	0x57
 14208 0cfe 00000000 		.4byte	0
 14209 0d02 00000000 		.4byte	0
 14210              	.LLST80:
 14211 0d06 00000000 		.4byte	.LVL328
 14212 0d0a 15000000 		.4byte	.LVL329-1
 14213 0d0e 0100     		.2byte	0x1
 14214 0d10 52       		.byte	0x52
 14215 0d11 15000000 		.4byte	.LVL329-1
 14216 0d15 C4020000 		.4byte	.LFE26
 14217 0d19 0400     		.2byte	0x4
 14218 0d1b F3       		.byte	0xf3
 14219 0d1c 01       		.uleb128 0x1
 14220 0d1d 52       		.byte	0x52
 14221 0d1e 9F       		.byte	0x9f
 14222 0d1f 00000000 		.4byte	0
 14223 0d23 00000000 		.4byte	0
 14224              	.LLST81:
 14225 0d27 00000000 		.4byte	.LVL328
 14226 0d2b 15000000 		.4byte	.LVL329-1
 14227 0d2f 0100     		.2byte	0x1
ARM GAS  C:\Users\d3bug\AppData\Local\Temp\ccFiAZjI.s 			page 299


 14228 0d31 53       		.byte	0x53
 14229 0d32 15000000 		.4byte	.LVL329-1
 14230 0d36 C4020000 		.4byte	.LFE26
 14231 0d3a 0400     		.2byte	0x4
 14232 0d3c F3       		.byte	0xf3
 14233 0d3d 01       		.uleb128 0x1
 14234 0d3e 53       		.byte	0x53
 14235 0d3f 9F       		.byte	0x9f
 14236 0d40 00000000 		.4byte	0
 14237 0d44 00000000 		.4byte	0
 14238              	.LLST82:
 14239 0d48 18000000 		.4byte	.LVL330
 14240 0d4c 8C000000 		.4byte	.LVL340
 14241 0d50 0100     		.2byte	0x1
 14242 0d52 55       		.byte	0x55
 14243 0d53 8E000000 		.4byte	.LVL341
 14244 0d57 A6000000 		.4byte	.LVL345
 14245 0d5b 0100     		.2byte	0x1
 14246 0d5d 55       		.byte	0x55
 14247 0d5e A8000000 		.4byte	.LVL346
 14248 0d62 BE000000 		.4byte	.LVL350
 14249 0d66 0100     		.2byte	0x1
 14250 0d68 55       		.byte	0x55
 14251 0d69 C0000000 		.4byte	.LVL351
 14252 0d6d E0000000 		.4byte	.LVL358
 14253 0d71 0100     		.2byte	0x1
 14254 0d73 55       		.byte	0x55
 14255 0d74 E2000000 		.4byte	.LVL359
 14256 0d78 FE000000 		.4byte	.LVL363
 14257 0d7c 0100     		.2byte	0x1
 14258 0d7e 55       		.byte	0x55
 14259 0d7f 00010000 		.4byte	.LVL364
 14260 0d83 2C010000 		.4byte	.LVL371
 14261 0d87 0100     		.2byte	0x1
 14262 0d89 55       		.byte	0x55
 14263 0d8a 2E010000 		.4byte	.LVL372
 14264 0d8e 66010000 		.4byte	.LVL381
 14265 0d92 0100     		.2byte	0x1
 14266 0d94 55       		.byte	0x55
 14267 0d95 68010000 		.4byte	.LVL382
 14268 0d99 7E010000 		.4byte	.LVL386
 14269 0d9d 0100     		.2byte	0x1
 14270 0d9f 55       		.byte	0x55
 14271 0da0 80010000 		.4byte	.LVL387
 14272 0da4 A0010000 		.4byte	.LVL394
 14273 0da8 0100     		.2byte	0x1
 14274 0daa 55       		.byte	0x55
 14275 0dab A2010000 		.4byte	.LVL395
 14276 0daf BE010000 		.4byte	.LVL399
 14277 0db3 0100     		.2byte	0x1
 14278 0db5 55       		.byte	0x55
 14279 0db6 C0010000 		.4byte	.LVL400
 14280 0dba EC010000 		.4byte	.LVL407
 14281 0dbe 0100     		.2byte	0x1
 14282 0dc0 55       		.byte	0x55
 14283 0dc1 EE010000 		.4byte	.LVL408
 14284 0dc5 FA010000 		.4byte	.LVL411
ARM GAS  C:\Users\d3bug\AppData\Local\Temp\ccFiAZjI.s 			page 300


 14285 0dc9 0100     		.2byte	0x1
 14286 0dcb 55       		.byte	0x55
 14287 0dcc FC010000 		.4byte	.LVL412
 14288 0dd0 14020000 		.4byte	.LVL416
 14289 0dd4 0100     		.2byte	0x1
 14290 0dd6 55       		.byte	0x55
 14291 0dd7 16020000 		.4byte	.LVL417
 14292 0ddb 98020000 		.4byte	.LVL441
 14293 0ddf 0100     		.2byte	0x1
 14294 0de1 55       		.byte	0x55
 14295 0de2 98020000 		.4byte	.LVL441
 14296 0de6 A3020000 		.4byte	.LVL443-1
 14297 0dea 0100     		.2byte	0x1
 14298 0dec 51       		.byte	0x51
 14299 0ded 00000000 		.4byte	0
 14300 0df1 00000000 		.4byte	0
 14301              	.LLST83:
 14302 0df5 20000000 		.4byte	.LVL332
 14303 0df9 9E000000 		.4byte	.LVL343
 14304 0dfd 0100     		.2byte	0x1
 14305 0dff 56       		.byte	0x56
 14306 0e00 A0000000 		.4byte	.LVL344
 14307 0e04 AC000000 		.4byte	.LVL347
 14308 0e08 0100     		.2byte	0x1
 14309 0e0a 56       		.byte	0x56
 14310 0e0b AE000000 		.4byte	.LVL348
 14311 0e0f C4000000 		.4byte	.LVL352
 14312 0e13 0100     		.2byte	0x1
 14313 0e15 56       		.byte	0x56
 14314 0e16 C6000000 		.4byte	.LVL353
 14315 0e1a D8000000 		.4byte	.LVL356
 14316 0e1e 0100     		.2byte	0x1
 14317 0e20 56       		.byte	0x56
 14318 0e21 DA000000 		.4byte	.LVL357
 14319 0e25 3E010000 		.4byte	.LVL374
 14320 0e29 0100     		.2byte	0x1
 14321 0e2b 56       		.byte	0x56
 14322 0e2c 40010000 		.4byte	.LVL375
 14323 0e30 5E010000 		.4byte	.LVL379
 14324 0e34 0100     		.2byte	0x1
 14325 0e36 56       		.byte	0x56
 14326 0e37 60010000 		.4byte	.LVL380
 14327 0e3b 6C010000 		.4byte	.LVL383
 14328 0e3f 0100     		.2byte	0x1
 14329 0e41 56       		.byte	0x56
 14330 0e42 6E010000 		.4byte	.LVL384
 14331 0e46 84010000 		.4byte	.LVL388
 14332 0e4a 0100     		.2byte	0x1
 14333 0e4c 56       		.byte	0x56
 14334 0e4d 86010000 		.4byte	.LVL389
 14335 0e51 98010000 		.4byte	.LVL392
 14336 0e55 0100     		.2byte	0x1
 14337 0e57 56       		.byte	0x56
 14338 0e58 9A010000 		.4byte	.LVL393
 14339 0e5c F2010000 		.4byte	.LVL409
 14340 0e60 0100     		.2byte	0x1
 14341 0e62 56       		.byte	0x56
ARM GAS  C:\Users\d3bug\AppData\Local\Temp\ccFiAZjI.s 			page 301


 14342 0e63 F4010000 		.4byte	.LVL410
 14343 0e67 0C020000 		.4byte	.LVL414
 14344 0e6b 0100     		.2byte	0x1
 14345 0e6d 56       		.byte	0x56
 14346 0e6e 0E020000 		.4byte	.LVL415
 14347 0e72 34020000 		.4byte	.LVL422
 14348 0e76 0100     		.2byte	0x1
 14349 0e78 56       		.byte	0x56
 14350 0e79 36020000 		.4byte	.LVL423
 14351 0e7d 54020000 		.4byte	.LVL427
 14352 0e81 0100     		.2byte	0x1
 14353 0e83 56       		.byte	0x56
 14354 0e84 56020000 		.4byte	.LVL428
 14355 0e88 9A020000 		.4byte	.LVL442
 14356 0e8c 0100     		.2byte	0x1
 14357 0e8e 56       		.byte	0x56
 14358 0e8f 9A020000 		.4byte	.LVL442
 14359 0e93 A3020000 		.4byte	.LVL443-1
 14360 0e97 0100     		.2byte	0x1
 14361 0e99 52       		.byte	0x52
 14362 0e9a 00000000 		.4byte	0
 14363 0e9e 00000000 		.4byte	0
 14364              	.LLST84:
 14365 0ea2 76020000 		.4byte	.LVL433
 14366 0ea6 8A020000 		.4byte	.LVL438
 14367 0eaa 0100     		.2byte	0x1
 14368 0eac 50       		.byte	0x50
 14369 0ead 00000000 		.4byte	0
 14370 0eb1 00000000 		.4byte	0
 14371              	.LLST85:
 14372 0eb5 7A020000 		.4byte	.LVL434
 14373 0eb9 A3020000 		.4byte	.LVL443-1
 14374 0ebd 0100     		.2byte	0x1
 14375 0ebf 5E       		.byte	0x5e
 14376 0ec0 00000000 		.4byte	0
 14377 0ec4 00000000 		.4byte	0
 14378              	.LLST86:
 14379 0ec8 7E020000 		.4byte	.LVL435
 14380 0ecc A3020000 		.4byte	.LVL443-1
 14381 0ed0 0100     		.2byte	0x1
 14382 0ed2 53       		.byte	0x53
 14383 0ed3 00000000 		.4byte	0
 14384 0ed7 00000000 		.4byte	0
 14385              	.LLST87:
 14386 0edb 82020000 		.4byte	.LVL436
 14387 0edf 98020000 		.4byte	.LVL441
 14388 0ee3 0100     		.2byte	0x1
 14389 0ee5 51       		.byte	0x51
 14390 0ee6 00000000 		.4byte	0
 14391 0eea 00000000 		.4byte	0
 14392              	.LLST88:
 14393 0eee 86020000 		.4byte	.LVL437
 14394 0ef2 9A020000 		.4byte	.LVL442
 14395 0ef6 0100     		.2byte	0x1
 14396 0ef8 52       		.byte	0x52
 14397 0ef9 00000000 		.4byte	0
 14398 0efd 00000000 		.4byte	0
ARM GAS  C:\Users\d3bug\AppData\Local\Temp\ccFiAZjI.s 			page 302


 14399              	.LLST89:
 14400 0f01 00000000 		.4byte	.LVL444
 14401 0f05 21000000 		.4byte	.LVL445-1
 14402 0f09 0100     		.2byte	0x1
 14403 0f0b 50       		.byte	0x50
 14404 0f0c 21000000 		.4byte	.LVL445-1
 14405 0f10 24000000 		.4byte	.LVL446
 14406 0f14 0400     		.2byte	0x4
 14407 0f16 F3       		.byte	0xf3
 14408 0f17 01       		.uleb128 0x1
 14409 0f18 50       		.byte	0x50
 14410 0f19 9F       		.byte	0x9f
 14411 0f1a 24000000 		.4byte	.LVL446
 14412 0f1e 37000000 		.4byte	.LVL447-1
 14413 0f22 0100     		.2byte	0x1
 14414 0f24 50       		.byte	0x50
 14415 0f25 37000000 		.4byte	.LVL447-1
 14416 0f29 3E000000 		.4byte	.LFE27
 14417 0f2d 0400     		.2byte	0x4
 14418 0f2f F3       		.byte	0xf3
 14419 0f30 01       		.uleb128 0x1
 14420 0f31 50       		.byte	0x50
 14421 0f32 9F       		.byte	0x9f
 14422 0f33 00000000 		.4byte	0
 14423 0f37 00000000 		.4byte	0
 14424              	.LLST90:
 14425 0f3b 00000000 		.4byte	.LVL448
 14426 0f3f 13000000 		.4byte	.LVL451-1
 14427 0f43 0100     		.2byte	0x1
 14428 0f45 50       		.byte	0x50
 14429 0f46 13000000 		.4byte	.LVL451-1
 14430 0f4a B2000000 		.4byte	.LVL463
 14431 0f4e 0100     		.2byte	0x1
 14432 0f50 56       		.byte	0x56
 14433 0f51 B2000000 		.4byte	.LVL463
 14434 0f55 BA000000 		.4byte	.LVL465
 14435 0f59 0100     		.2byte	0x1
 14436 0f5b 50       		.byte	0x50
 14437 0f5c BA000000 		.4byte	.LVL465
 14438 0f60 82020000 		.4byte	.LVL491
 14439 0f64 0100     		.2byte	0x1
 14440 0f66 56       		.byte	0x56
 14441 0f67 82020000 		.4byte	.LVL491
 14442 0f6b B0020000 		.4byte	.LFE13
 14443 0f6f 0400     		.2byte	0x4
 14444 0f71 F3       		.byte	0xf3
 14445 0f72 01       		.uleb128 0x1
 14446 0f73 50       		.byte	0x50
 14447 0f74 9F       		.byte	0x9f
 14448 0f75 00000000 		.4byte	0
 14449 0f79 00000000 		.4byte	0
 14450              	.LLST91:
 14451 0f7d 00000000 		.4byte	.LVL448
 14452 0f81 10000000 		.4byte	.LVL450
 14453 0f85 0100     		.2byte	0x1
 14454 0f87 51       		.byte	0x51
 14455 0f88 10000000 		.4byte	.LVL450
ARM GAS  C:\Users\d3bug\AppData\Local\Temp\ccFiAZjI.s 			page 303


 14456 0f8c B2000000 		.4byte	.LVL463
 14457 0f90 0100     		.2byte	0x1
 14458 0f92 55       		.byte	0x55
 14459 0f93 B2000000 		.4byte	.LVL463
 14460 0f97 B8000000 		.4byte	.LVL464
 14461 0f9b 0100     		.2byte	0x1
 14462 0f9d 51       		.byte	0x51
 14463 0f9e B8000000 		.4byte	.LVL464
 14464 0fa2 82020000 		.4byte	.LVL491
 14465 0fa6 0100     		.2byte	0x1
 14466 0fa8 55       		.byte	0x55
 14467 0fa9 82020000 		.4byte	.LVL491
 14468 0fad B0020000 		.4byte	.LFE13
 14469 0fb1 0400     		.2byte	0x4
 14470 0fb3 F3       		.byte	0xf3
 14471 0fb4 01       		.uleb128 0x1
 14472 0fb5 51       		.byte	0x51
 14473 0fb6 9F       		.byte	0x9f
 14474 0fb7 00000000 		.4byte	0
 14475 0fbb 00000000 		.4byte	0
 14476              	.LLST92:
 14477 0fbf 04000000 		.4byte	.LVL449
 14478 0fc3 1A000000 		.4byte	.LVL452
 14479 0fc7 0200     		.2byte	0x2
 14480 0fc9 30       		.byte	0x30
 14481 0fca 9F       		.byte	0x9f
 14482 0fcb 1A000000 		.4byte	.LVL452
 14483 0fcf 26000000 		.4byte	.LVL453
 14484 0fd3 0100     		.2byte	0x1
 14485 0fd5 50       		.byte	0x50
 14486 0fd6 26000000 		.4byte	.LVL453
 14487 0fda 2C000000 		.4byte	.LVL455
 14488 0fde 0100     		.2byte	0x1
 14489 0fe0 54       		.byte	0x54
 14490 0fe1 2C000000 		.4byte	.LVL455
 14491 0fe5 38000000 		.4byte	.LVL456
 14492 0fe9 0100     		.2byte	0x1
 14493 0feb 50       		.byte	0x50
 14494 0fec 38000000 		.4byte	.LVL456
 14495 0ff0 B2000000 		.4byte	.LVL463
 14496 0ff4 0100     		.2byte	0x1
 14497 0ff6 54       		.byte	0x54
 14498 0ff7 B2000000 		.4byte	.LVL463
 14499 0ffb C4000000 		.4byte	.LVL467
 14500 0fff 0200     		.2byte	0x2
 14501 1001 30       		.byte	0x30
 14502 1002 9F       		.byte	0x9f
 14503 1003 C4000000 		.4byte	.LVL467
 14504 1007 D0000000 		.4byte	.LVL468
 14505 100b 0100     		.2byte	0x1
 14506 100d 50       		.byte	0x50
 14507 100e D0000000 		.4byte	.LVL468
 14508 1012 D6000000 		.4byte	.LVL470
 14509 1016 0100     		.2byte	0x1
 14510 1018 54       		.byte	0x54
 14511 1019 D6000000 		.4byte	.LVL470
 14512 101d E0000000 		.4byte	.LVL471
ARM GAS  C:\Users\d3bug\AppData\Local\Temp\ccFiAZjI.s 			page 304


 14513 1021 0100     		.2byte	0x1
 14514 1023 50       		.byte	0x50
 14515 1024 E0000000 		.4byte	.LVL471
 14516 1028 76020000 		.4byte	.LVL486
 14517 102c 0100     		.2byte	0x1
 14518 102e 54       		.byte	0x54
 14519 102f 76020000 		.4byte	.LVL486
 14520 1033 78020000 		.4byte	.LVL487
 14521 1037 0100     		.2byte	0x1
 14522 1039 50       		.byte	0x50
 14523 103a 78020000 		.4byte	.LVL487
 14524 103e 7A020000 		.4byte	.LVL488
 14525 1042 0100     		.2byte	0x1
 14526 1044 54       		.byte	0x54
 14527 1045 7A020000 		.4byte	.LVL488
 14528 1049 7C020000 		.4byte	.LVL489
 14529 104d 0100     		.2byte	0x1
 14530 104f 50       		.byte	0x50
 14531 1050 7C020000 		.4byte	.LVL489
 14532 1054 82020000 		.4byte	.LVL491
 14533 1058 0100     		.2byte	0x1
 14534 105a 54       		.byte	0x54
 14535 105b 82020000 		.4byte	.LVL491
 14536 105f B0020000 		.4byte	.LFE13
 14537 1063 0100     		.2byte	0x1
 14538 1065 50       		.byte	0x50
 14539 1066 00000000 		.4byte	0
 14540 106a 00000000 		.4byte	0
 14541              	.LLST93:
 14542 106e 66000000 		.4byte	.LVL458
 14543 1072 76000000 		.4byte	.LVL459
 14544 1076 0100     		.2byte	0x1
 14545 1078 50       		.byte	0x50
 14546 1079 00000000 		.4byte	0
 14547 107d 00000000 		.4byte	0
 14548              	.LLST94:
 14549 1081 20010000 		.4byte	.LVL473
 14550 1085 30010000 		.4byte	.LVL474
 14551 1089 0100     		.2byte	0x1
 14552 108b 50       		.byte	0x50
 14553 108c 00000000 		.4byte	0
 14554 1090 00000000 		.4byte	0
 14555              	.LLST95:
 14556 1094 68010000 		.4byte	.LVL477
 14557 1098 6C010000 		.4byte	.LVL478
 14558 109c 0100     		.2byte	0x1
 14559 109e 53       		.byte	0x53
 14560 109f 6C010000 		.4byte	.LVL478
 14561 10a3 72010000 		.4byte	.LVL479
 14562 10a7 0100     		.2byte	0x1
 14563 10a9 55       		.byte	0x55
 14564 10aa 00000000 		.4byte	0
 14565 10ae 00000000 		.4byte	0
 14566              	.LLST96:
 14567 10b2 68010000 		.4byte	.LVL477
 14568 10b6 72010000 		.4byte	.LVL479
 14569 10ba 0300     		.2byte	0x3
ARM GAS  C:\Users\d3bug\AppData\Local\Temp\ccFiAZjI.s 			page 305


 14570 10bc 74       		.byte	0x74
 14571 10bd 10       		.sleb128 16
 14572 10be 9F       		.byte	0x9f
 14573 10bf 00000000 		.4byte	0
 14574 10c3 00000000 		.4byte	0
 14575              	.LLST97:
 14576 10c7 00000000 		.4byte	.LVL492
 14577 10cb 12000000 		.4byte	.LVL494
 14578 10cf 0100     		.2byte	0x1
 14579 10d1 50       		.byte	0x50
 14580 10d2 12000000 		.4byte	.LVL494
 14581 10d6 1A000000 		.4byte	.LVL496
 14582 10da 0400     		.2byte	0x4
 14583 10dc F3       		.byte	0xf3
 14584 10dd 01       		.uleb128 0x1
 14585 10de 50       		.byte	0x50
 14586 10df 9F       		.byte	0x9f
 14587 10e0 1A000000 		.4byte	.LVL496
 14588 10e4 2A000000 		.4byte	.LVL498
 14589 10e8 0100     		.2byte	0x1
 14590 10ea 50       		.byte	0x50
 14591 10eb 2A000000 		.4byte	.LVL498
 14592 10ef 32000000 		.4byte	.LVL500
 14593 10f3 0100     		.2byte	0x1
 14594 10f5 54       		.byte	0x54
 14595 10f6 32000000 		.4byte	.LVL500
 14596 10fa 35000000 		.4byte	.LVL501-1
 14597 10fe 0100     		.2byte	0x1
 14598 1100 50       		.byte	0x50
 14599 1101 35000000 		.4byte	.LVL501-1
 14600 1105 7C000000 		.4byte	.LVL510
 14601 1109 0100     		.2byte	0x1
 14602 110b 54       		.byte	0x54
 14603 110c 7C000000 		.4byte	.LVL510
 14604 1110 88000000 		.4byte	.LFE18
 14605 1114 0400     		.2byte	0x4
 14606 1116 F3       		.byte	0xf3
 14607 1117 01       		.uleb128 0x1
 14608 1118 50       		.byte	0x50
 14609 1119 9F       		.byte	0x9f
 14610 111a 00000000 		.4byte	0
 14611 111e 00000000 		.4byte	0
 14612              	.LLST98:
 14613 1122 00000000 		.4byte	.LVL492
 14614 1126 10000000 		.4byte	.LVL493
 14615 112a 0100     		.2byte	0x1
 14616 112c 51       		.byte	0x51
 14617 112d 10000000 		.4byte	.LVL493
 14618 1131 1A000000 		.4byte	.LVL496
 14619 1135 0400     		.2byte	0x4
 14620 1137 F3       		.byte	0xf3
 14621 1138 01       		.uleb128 0x1
 14622 1139 51       		.byte	0x51
 14623 113a 9F       		.byte	0x9f
 14624 113b 1A000000 		.4byte	.LVL496
 14625 113f 28000000 		.4byte	.LVL497
 14626 1143 0100     		.2byte	0x1
ARM GAS  C:\Users\d3bug\AppData\Local\Temp\ccFiAZjI.s 			page 306


 14627 1145 51       		.byte	0x51
 14628 1146 28000000 		.4byte	.LVL497
 14629 114a 32000000 		.4byte	.LVL500
 14630 114e 0100     		.2byte	0x1
 14631 1150 55       		.byte	0x55
 14632 1151 32000000 		.4byte	.LVL500
 14633 1155 35000000 		.4byte	.LVL501-1
 14634 1159 0100     		.2byte	0x1
 14635 115b 51       		.byte	0x51
 14636 115c 35000000 		.4byte	.LVL501-1
 14637 1160 7C000000 		.4byte	.LVL510
 14638 1164 0100     		.2byte	0x1
 14639 1166 55       		.byte	0x55
 14640 1167 7C000000 		.4byte	.LVL510
 14641 116b 88000000 		.4byte	.LFE18
 14642 116f 0400     		.2byte	0x4
 14643 1171 F3       		.byte	0xf3
 14644 1172 01       		.uleb128 0x1
 14645 1173 51       		.byte	0x51
 14646 1174 9F       		.byte	0x9f
 14647 1175 00000000 		.4byte	0
 14648 1179 00000000 		.4byte	0
 14649              	.LLST99:
 14650 117d 48000000 		.4byte	.LVL504
 14651 1181 7C000000 		.4byte	.LVL510
 14652 1185 0100     		.2byte	0x1
 14653 1187 56       		.byte	0x56
 14654 1188 00000000 		.4byte	0
 14655 118c 00000000 		.4byte	0
 14656              	.LLST100:
 14657 1190 00000000 		.4byte	.LVL511
 14658 1194 0D000000 		.4byte	.LVL512-1
 14659 1198 0100     		.2byte	0x1
 14660 119a 50       		.byte	0x50
 14661 119b 0D000000 		.4byte	.LVL512-1
 14662 119f 72000000 		.4byte	.LFE22
 14663 11a3 0100     		.2byte	0x1
 14664 11a5 54       		.byte	0x54
 14665 11a6 00000000 		.4byte	0
 14666 11aa 00000000 		.4byte	0
 14667              	.LLST101:
 14668 11ae 00000000 		.4byte	.LVL511
 14669 11b2 0D000000 		.4byte	.LVL512-1
 14670 11b6 0100     		.2byte	0x1
 14671 11b8 51       		.byte	0x51
 14672 11b9 0D000000 		.4byte	.LVL512-1
 14673 11bd 72000000 		.4byte	.LFE22
 14674 11c1 0400     		.2byte	0x4
 14675 11c3 F3       		.byte	0xf3
 14676 11c4 01       		.uleb128 0x1
 14677 11c5 51       		.byte	0x51
 14678 11c6 9F       		.byte	0x9f
 14679 11c7 00000000 		.4byte	0
 14680 11cb 00000000 		.4byte	0
 14681              	.LLST102:
 14682 11cf 00000000 		.4byte	.LVL511
 14683 11d3 0D000000 		.4byte	.LVL512-1
ARM GAS  C:\Users\d3bug\AppData\Local\Temp\ccFiAZjI.s 			page 307


 14684 11d7 0100     		.2byte	0x1
 14685 11d9 52       		.byte	0x52
 14686 11da 0D000000 		.4byte	.LVL512-1
 14687 11de 72000000 		.4byte	.LFE22
 14688 11e2 0400     		.2byte	0x4
 14689 11e4 F3       		.byte	0xf3
 14690 11e5 01       		.uleb128 0x1
 14691 11e6 52       		.byte	0x52
 14692 11e7 9F       		.byte	0x9f
 14693 11e8 00000000 		.4byte	0
 14694 11ec 00000000 		.4byte	0
 14695              	.LLST103:
 14696 11f0 4E000000 		.4byte	.LVL517
 14697 11f4 57000000 		.4byte	.LVL518-1
 14698 11f8 0100     		.2byte	0x1
 14699 11fa 50       		.byte	0x50
 14700 11fb 00000000 		.4byte	0
 14701 11ff 00000000 		.4byte	0
 14702              	.LLST104:
 14703 1203 00000000 		.4byte	.LVL521
 14704 1207 09000000 		.4byte	.LVL522-1
 14705 120b 0100     		.2byte	0x1
 14706 120d 50       		.byte	0x50
 14707 120e 09000000 		.4byte	.LVL522-1
 14708 1212 16000000 		.4byte	.LFE23
 14709 1216 0100     		.2byte	0x1
 14710 1218 54       		.byte	0x54
 14711 1219 00000000 		.4byte	0
 14712 121d 00000000 		.4byte	0
 14713              	.LLST105:
 14714 1221 00000000 		.4byte	.LVL521
 14715 1225 09000000 		.4byte	.LVL522-1
 14716 1229 0100     		.2byte	0x1
 14717 122b 51       		.byte	0x51
 14718 122c 09000000 		.4byte	.LVL522-1
 14719 1230 16000000 		.4byte	.LFE23
 14720 1234 0400     		.2byte	0x4
 14721 1236 F3       		.byte	0xf3
 14722 1237 01       		.uleb128 0x1
 14723 1238 51       		.byte	0x51
 14724 1239 9F       		.byte	0x9f
 14725 123a 00000000 		.4byte	0
 14726 123e 00000000 		.4byte	0
 14727              	.LLST106:
 14728 1242 00000000 		.4byte	.LVL524
 14729 1246 09000000 		.4byte	.LVL525-1
 14730 124a 0100     		.2byte	0x1
 14731 124c 50       		.byte	0x50
 14732 124d 09000000 		.4byte	.LVL525-1
 14733 1251 16000000 		.4byte	.LFE24
 14734 1255 0100     		.2byte	0x1
 14735 1257 54       		.byte	0x54
 14736 1258 00000000 		.4byte	0
 14737 125c 00000000 		.4byte	0
 14738              	.LLST107:
 14739 1260 00000000 		.4byte	.LVL524
 14740 1264 09000000 		.4byte	.LVL525-1
ARM GAS  C:\Users\d3bug\AppData\Local\Temp\ccFiAZjI.s 			page 308


 14741 1268 0100     		.2byte	0x1
 14742 126a 51       		.byte	0x51
 14743 126b 09000000 		.4byte	.LVL525-1
 14744 126f 16000000 		.4byte	.LFE24
 14745 1273 0400     		.2byte	0x4
 14746 1275 F3       		.byte	0xf3
 14747 1276 01       		.uleb128 0x1
 14748 1277 51       		.byte	0x51
 14749 1278 9F       		.byte	0x9f
 14750 1279 00000000 		.4byte	0
 14751 127d 00000000 		.4byte	0
 14752              	.LLST108:
 14753 1281 00000000 		.4byte	.LVL527
 14754 1285 07000000 		.4byte	.LVL528-1
 14755 1289 0100     		.2byte	0x1
 14756 128b 50       		.byte	0x50
 14757 128c 07000000 		.4byte	.LVL528-1
 14758 1290 1A000000 		.4byte	.LFE30
 14759 1294 0100     		.2byte	0x1
 14760 1296 54       		.byte	0x54
 14761 1297 00000000 		.4byte	0
 14762 129b 00000000 		.4byte	0
 14763              	.LLST109:
 14764 129f 00000000 		.4byte	.LVL531
 14765 12a3 09000000 		.4byte	.LVL532-1
 14766 12a7 0100     		.2byte	0x1
 14767 12a9 50       		.byte	0x50
 14768 12aa 09000000 		.4byte	.LVL532-1
 14769 12ae 3E000000 		.4byte	.LFE84
 14770 12b2 0100     		.2byte	0x1
 14771 12b4 55       		.byte	0x55
 14772 12b5 00000000 		.4byte	0
 14773 12b9 00000000 		.4byte	0
 14774              	.LLST110:
 14775 12bd 0C000000 		.4byte	.LVL533
 14776 12c1 17000000 		.4byte	.LVL534-1
 14777 12c5 0100     		.2byte	0x1
 14778 12c7 50       		.byte	0x50
 14779 12c8 17000000 		.4byte	.LVL534-1
 14780 12cc 20000000 		.4byte	.LVL536
 14781 12d0 0100     		.2byte	0x1
 14782 12d2 54       		.byte	0x54
 14783 12d3 20000000 		.4byte	.LVL536
 14784 12d7 2A000000 		.4byte	.LVL537
 14785 12db 0100     		.2byte	0x1
 14786 12dd 50       		.byte	0x50
 14787 12de 2A000000 		.4byte	.LVL537
 14788 12e2 38000000 		.4byte	.LVL540
 14789 12e6 0100     		.2byte	0x1
 14790 12e8 54       		.byte	0x54
 14791 12e9 38000000 		.4byte	.LVL540
 14792 12ed 3E000000 		.4byte	.LFE84
 14793 12f1 0100     		.2byte	0x1
 14794 12f3 50       		.byte	0x50
 14795 12f4 00000000 		.4byte	0
 14796 12f8 00000000 		.4byte	0
 14797              	.LLST111:
ARM GAS  C:\Users\d3bug\AppData\Local\Temp\ccFiAZjI.s 			page 309


 14798 12fc 00000000 		.4byte	.LVL541
 14799 1300 09000000 		.4byte	.LVL542-1
 14800 1304 0100     		.2byte	0x1
 14801 1306 50       		.byte	0x50
 14802 1307 09000000 		.4byte	.LVL542-1
 14803 130b 12000000 		.4byte	.LFE29
 14804 130f 0100     		.2byte	0x1
 14805 1311 54       		.byte	0x54
 14806 1312 00000000 		.4byte	0
 14807 1316 00000000 		.4byte	0
 14808              	.LLST112:
 14809 131a 00000000 		.4byte	.LVL541
 14810 131e 09000000 		.4byte	.LVL542-1
 14811 1322 0100     		.2byte	0x1
 14812 1324 51       		.byte	0x51
 14813 1325 09000000 		.4byte	.LVL542-1
 14814 1329 12000000 		.4byte	.LFE29
 14815 132d 0400     		.2byte	0x4
 14816 132f F3       		.byte	0xf3
 14817 1330 01       		.uleb128 0x1
 14818 1331 51       		.byte	0x51
 14819 1332 9F       		.byte	0x9f
 14820 1333 00000000 		.4byte	0
 14821 1337 00000000 		.4byte	0
 14822              	.LLST113:
 14823 133b 00000000 		.4byte	.LVL544
 14824 133f 08000000 		.4byte	.LVL545
 14825 1343 0100     		.2byte	0x1
 14826 1345 50       		.byte	0x50
 14827 1346 08000000 		.4byte	.LVL545
 14828 134a 3C000000 		.4byte	.LFE83
 14829 134e 0100     		.2byte	0x1
 14830 1350 55       		.byte	0x55
 14831 1351 00000000 		.4byte	0
 14832 1355 00000000 		.4byte	0
 14833              	.LLST114:
 14834 1359 00000000 		.4byte	.LVL544
 14835 135d 0B000000 		.4byte	.LVL546-1
 14836 1361 0100     		.2byte	0x1
 14837 1363 51       		.byte	0x51
 14838 1364 0B000000 		.4byte	.LVL546-1
 14839 1368 3C000000 		.4byte	.LFE83
 14840 136c 0300     		.2byte	0x3
 14841 136e 76       		.byte	0x76
 14842 136f 7C       		.sleb128 -4
 14843 1370 9F       		.byte	0x9f
 14844 1371 00000000 		.4byte	0
 14845 1375 00000000 		.4byte	0
 14846              	.LLST115:
 14847 1379 0E000000 		.4byte	.LVL547
 14848 137d 1A000000 		.4byte	.LVL548
 14849 1381 0100     		.2byte	0x1
 14850 1383 50       		.byte	0x50
 14851 1384 1A000000 		.4byte	.LVL548
 14852 1388 36000000 		.4byte	.LVL553
 14853 138c 0100     		.2byte	0x1
 14854 138e 54       		.byte	0x54
ARM GAS  C:\Users\d3bug\AppData\Local\Temp\ccFiAZjI.s 			page 310


 14855 138f 36000000 		.4byte	.LVL553
 14856 1393 3C000000 		.4byte	.LFE83
 14857 1397 0100     		.2byte	0x1
 14858 1399 50       		.byte	0x50
 14859 139a 00000000 		.4byte	0
 14860 139e 00000000 		.4byte	0
 14861              	.LLST116:
 14862 13a2 00000000 		.4byte	.LVL554
 14863 13a6 06000000 		.4byte	.LVL555
 14864 13aa 0100     		.2byte	0x1
 14865 13ac 50       		.byte	0x50
 14866 13ad 06000000 		.4byte	.LVL555
 14867 13b1 34000000 		.4byte	.LVL563
 14868 13b5 0100     		.2byte	0x1
 14869 13b7 55       		.byte	0x55
 14870 13b8 34000000 		.4byte	.LVL563
 14871 13bc 38000000 		.4byte	.LFE31
 14872 13c0 0400     		.2byte	0x4
 14873 13c2 F3       		.byte	0xf3
 14874 13c3 01       		.uleb128 0x1
 14875 13c4 50       		.byte	0x50
 14876 13c5 9F       		.byte	0x9f
 14877 13c6 00000000 		.4byte	0
 14878 13ca 00000000 		.4byte	0
 14879              	.LLST117:
 14880 13ce 0C000000 		.4byte	.LVL557
 14881 13d2 18000000 		.4byte	.LVL558
 14882 13d6 0100     		.2byte	0x1
 14883 13d8 50       		.byte	0x50
 14884 13d9 18000000 		.4byte	.LVL558
 14885 13dd 2E000000 		.4byte	.LVL562
 14886 13e1 0100     		.2byte	0x1
 14887 13e3 54       		.byte	0x54
 14888 13e4 2E000000 		.4byte	.LVL562
 14889 13e8 38000000 		.4byte	.LFE31
 14890 13ec 0100     		.2byte	0x1
 14891 13ee 50       		.byte	0x50
 14892 13ef 00000000 		.4byte	0
 14893 13f3 00000000 		.4byte	0
 14894              	.LLST118:
 14895 13f7 00000000 		.4byte	.LVL579
 14896 13fb 13000000 		.4byte	.LVL580-1
 14897 13ff 0100     		.2byte	0x1
 14898 1401 50       		.byte	0x50
 14899 1402 13000000 		.4byte	.LVL580-1
 14900 1406 44000000 		.4byte	.LFE32
 14901 140a 0100     		.2byte	0x1
 14902 140c 54       		.byte	0x54
 14903 140d 00000000 		.4byte	0
 14904 1411 00000000 		.4byte	0
 14905              	.LLST119:
 14906 1415 00000000 		.4byte	.LVL579
 14907 1419 13000000 		.4byte	.LVL580-1
 14908 141d 0100     		.2byte	0x1
 14909 141f 51       		.byte	0x51
 14910 1420 13000000 		.4byte	.LVL580-1
 14911 1424 44000000 		.4byte	.LFE32
ARM GAS  C:\Users\d3bug\AppData\Local\Temp\ccFiAZjI.s 			page 311


 14912 1428 0400     		.2byte	0x4
 14913 142a F3       		.byte	0xf3
 14914 142b 01       		.uleb128 0x1
 14915 142c 51       		.byte	0x51
 14916 142d 9F       		.byte	0x9f
 14917 142e 00000000 		.4byte	0
 14918 1432 00000000 		.4byte	0
 14919              	.LLST120:
 14920 1436 3A000000 		.4byte	.LVL582
 14921 143a 41000000 		.4byte	.LVL583-1
 14922 143e 0100     		.2byte	0x1
 14923 1440 50       		.byte	0x50
 14924 1441 00000000 		.4byte	0
 14925 1445 00000000 		.4byte	0
 14926              	.LLST121:
 14927 1449 00000000 		.4byte	.LVL584
 14928 144d 09000000 		.4byte	.LVL585-1
 14929 1451 0100     		.2byte	0x1
 14930 1453 50       		.byte	0x50
 14931 1454 09000000 		.4byte	.LVL585-1
 14932 1458 0C000000 		.4byte	.LFE39
 14933 145c 0400     		.2byte	0x4
 14934 145e F3       		.byte	0xf3
 14935 145f 01       		.uleb128 0x1
 14936 1460 50       		.byte	0x50
 14937 1461 9F       		.byte	0x9f
 14938 1462 00000000 		.4byte	0
 14939 1466 00000000 		.4byte	0
 14940              	.LLST122:
 14941 146a 00000000 		.4byte	.LVL584
 14942 146e 09000000 		.4byte	.LVL585-1
 14943 1472 0100     		.2byte	0x1
 14944 1474 51       		.byte	0x51
 14945 1475 09000000 		.4byte	.LVL585-1
 14946 1479 0C000000 		.4byte	.LFE39
 14947 147d 0400     		.2byte	0x4
 14948 147f F3       		.byte	0xf3
 14949 1480 01       		.uleb128 0x1
 14950 1481 51       		.byte	0x51
 14951 1482 9F       		.byte	0x9f
 14952 1483 00000000 		.4byte	0
 14953 1487 00000000 		.4byte	0
 14954              	.LLST123:
 14955 148b 00000000 		.4byte	.LVL586
 14956 148f 0D000000 		.4byte	.LVL587-1
 14957 1493 0100     		.2byte	0x1
 14958 1495 50       		.byte	0x50
 14959 1496 0D000000 		.4byte	.LVL587-1
 14960 149a 16000000 		.4byte	.LFE45
 14961 149e 0100     		.2byte	0x1
 14962 14a0 54       		.byte	0x54
 14963 14a1 00000000 		.4byte	0
 14964 14a5 00000000 		.4byte	0
 14965              	.LLST124:
 14966 14a9 00000000 		.4byte	.LVL589
 14967 14ad 04000000 		.4byte	.LVL590
 14968 14b1 0100     		.2byte	0x1
ARM GAS  C:\Users\d3bug\AppData\Local\Temp\ccFiAZjI.s 			page 312


 14969 14b3 50       		.byte	0x50
 14970 14b4 04000000 		.4byte	.LVL590
 14971 14b8 0A000000 		.4byte	.LFE65
 14972 14bc 0400     		.2byte	0x4
 14973 14be F3       		.byte	0xf3
 14974 14bf 01       		.uleb128 0x1
 14975 14c0 50       		.byte	0x50
 14976 14c1 9F       		.byte	0x9f
 14977 14c2 00000000 		.4byte	0
 14978 14c6 00000000 		.4byte	0
 14979              	.LLST125:
 14980 14ca 00000000 		.4byte	.LVL591
 14981 14ce 04000000 		.4byte	.LVL592
 14982 14d2 0100     		.2byte	0x1
 14983 14d4 50       		.byte	0x50
 14984 14d5 04000000 		.4byte	.LVL592
 14985 14d9 0A000000 		.4byte	.LFE66
 14986 14dd 0400     		.2byte	0x4
 14987 14df F3       		.byte	0xf3
 14988 14e0 01       		.uleb128 0x1
 14989 14e1 50       		.byte	0x50
 14990 14e2 9F       		.byte	0x9f
 14991 14e3 00000000 		.4byte	0
 14992 14e7 00000000 		.4byte	0
 14993              	.LLST126:
 14994 14eb 00000000 		.4byte	.LVL593
 14995 14ef 04000000 		.4byte	.LVL594
 14996 14f3 0100     		.2byte	0x1
 14997 14f5 50       		.byte	0x50
 14998 14f6 04000000 		.4byte	.LVL594
 14999 14fa 0A000000 		.4byte	.LFE67
 15000 14fe 0400     		.2byte	0x4
 15001 1500 F3       		.byte	0xf3
 15002 1501 01       		.uleb128 0x1
 15003 1502 50       		.byte	0x50
 15004 1503 9F       		.byte	0x9f
 15005 1504 00000000 		.4byte	0
 15006 1508 00000000 		.4byte	0
 15007              	.LLST127:
 15008 150c 00000000 		.4byte	.LVL595
 15009 1510 04000000 		.4byte	.LVL596
 15010 1514 0100     		.2byte	0x1
 15011 1516 50       		.byte	0x50
 15012 1517 04000000 		.4byte	.LVL596
 15013 151b 0A000000 		.4byte	.LFE68
 15014 151f 0400     		.2byte	0x4
 15015 1521 F3       		.byte	0xf3
 15016 1522 01       		.uleb128 0x1
 15017 1523 50       		.byte	0x50
 15018 1524 9F       		.byte	0x9f
 15019 1525 00000000 		.4byte	0
 15020 1529 00000000 		.4byte	0
 15021              	.LLST128:
 15022 152d 00000000 		.4byte	.LVL597
 15023 1531 04000000 		.4byte	.LVL598
 15024 1535 0100     		.2byte	0x1
 15025 1537 50       		.byte	0x50
ARM GAS  C:\Users\d3bug\AppData\Local\Temp\ccFiAZjI.s 			page 313


 15026 1538 04000000 		.4byte	.LVL598
 15027 153c 0A000000 		.4byte	.LFE69
 15028 1540 0400     		.2byte	0x4
 15029 1542 F3       		.byte	0xf3
 15030 1543 01       		.uleb128 0x1
 15031 1544 50       		.byte	0x50
 15032 1545 9F       		.byte	0x9f
 15033 1546 00000000 		.4byte	0
 15034 154a 00000000 		.4byte	0
 15035              	.LLST129:
 15036 154e 00000000 		.4byte	.LVL599
 15037 1552 04000000 		.4byte	.LVL600
 15038 1556 0100     		.2byte	0x1
 15039 1558 50       		.byte	0x50
 15040 1559 04000000 		.4byte	.LVL600
 15041 155d 0A000000 		.4byte	.LFE70
 15042 1561 0400     		.2byte	0x4
 15043 1563 F3       		.byte	0xf3
 15044 1564 01       		.uleb128 0x1
 15045 1565 50       		.byte	0x50
 15046 1566 9F       		.byte	0x9f
 15047 1567 00000000 		.4byte	0
 15048 156b 00000000 		.4byte	0
 15049              	.LLST130:
 15050 156f 00000000 		.4byte	.LVL601
 15051 1573 04000000 		.4byte	.LVL603
 15052 1577 0100     		.2byte	0x1
 15053 1579 50       		.byte	0x50
 15054 157a 04000000 		.4byte	.LVL603
 15055 157e 20000000 		.4byte	.LFE71
 15056 1582 0400     		.2byte	0x4
 15057 1584 F3       		.byte	0xf3
 15058 1585 01       		.uleb128 0x1
 15059 1586 50       		.byte	0x50
 15060 1587 9F       		.byte	0x9f
 15061 1588 00000000 		.4byte	0
 15062 158c 00000000 		.4byte	0
 15063              	.LLST131:
 15064 1590 02000000 		.4byte	.LVL602
 15065 1594 12000000 		.4byte	.LVL604
 15066 1598 0100     		.2byte	0x1
 15067 159a 50       		.byte	0x50
 15068 159b 14000000 		.4byte	.LVL605
 15069 159f 17000000 		.4byte	.LVL606-1
 15070 15a3 0100     		.2byte	0x1
 15071 15a5 50       		.byte	0x50
 15072 15a6 18000000 		.4byte	.LVL606
 15073 15aa 1E000000 		.4byte	.LVL607
 15074 15ae 0100     		.2byte	0x1
 15075 15b0 50       		.byte	0x50
 15076 15b1 00000000 		.4byte	0
 15077 15b5 00000000 		.4byte	0
 15078              	.LLST132:
 15079 15b9 00000000 		.4byte	.LVL608
 15080 15bd 0F000000 		.4byte	.LVL609-1
 15081 15c1 0100     		.2byte	0x1
 15082 15c3 50       		.byte	0x50
ARM GAS  C:\Users\d3bug\AppData\Local\Temp\ccFiAZjI.s 			page 314


 15083 15c4 0F000000 		.4byte	.LVL609-1
 15084 15c8 74000000 		.4byte	.LVL617
 15085 15cc 0100     		.2byte	0x1
 15086 15ce 54       		.byte	0x54
 15087 15cf 74000000 		.4byte	.LVL617
 15088 15d3 79000000 		.4byte	.LVL618-1
 15089 15d7 0100     		.2byte	0x1
 15090 15d9 50       		.byte	0x50
 15091 15da 79000000 		.4byte	.LVL618-1
 15092 15de 96000000 		.4byte	.LVL623
 15093 15e2 0100     		.2byte	0x1
 15094 15e4 54       		.byte	0x54
 15095 15e5 96000000 		.4byte	.LVL623
 15096 15e9 98000000 		.4byte	.LVL624
 15097 15ed 0100     		.2byte	0x1
 15098 15ef 50       		.byte	0x50
 15099 15f0 98000000 		.4byte	.LVL624
 15100 15f4 9E000000 		.4byte	.LFE80
 15101 15f8 0100     		.2byte	0x1
 15102 15fa 54       		.byte	0x54
 15103 15fb 00000000 		.4byte	0
 15104 15ff 00000000 		.4byte	0
 15105              	.LLST133:
 15106 1603 00000000 		.4byte	.LVL608
 15107 1607 0F000000 		.4byte	.LVL609-1
 15108 160b 0100     		.2byte	0x1
 15109 160d 51       		.byte	0x51
 15110 160e 0F000000 		.4byte	.LVL609-1
 15111 1612 74000000 		.4byte	.LVL617
 15112 1616 0100     		.2byte	0x1
 15113 1618 55       		.byte	0x55
 15114 1619 74000000 		.4byte	.LVL617
 15115 161d 79000000 		.4byte	.LVL618-1
 15116 1621 0100     		.2byte	0x1
 15117 1623 51       		.byte	0x51
 15118 1624 79000000 		.4byte	.LVL618-1
 15119 1628 96000000 		.4byte	.LVL623
 15120 162c 0100     		.2byte	0x1
 15121 162e 55       		.byte	0x55
 15122 162f 96000000 		.4byte	.LVL623
 15123 1633 98000000 		.4byte	.LVL624
 15124 1637 0100     		.2byte	0x1
 15125 1639 51       		.byte	0x51
 15126 163a 98000000 		.4byte	.LVL624
 15127 163e 9E000000 		.4byte	.LFE80
 15128 1642 0100     		.2byte	0x1
 15129 1644 55       		.byte	0x55
 15130 1645 00000000 		.4byte	0
 15131 1649 00000000 		.4byte	0
 15132              	.LLST134:
 15133 164d 00000000 		.4byte	.LVL608
 15134 1651 0F000000 		.4byte	.LVL609-1
 15135 1655 0100     		.2byte	0x1
 15136 1657 52       		.byte	0x52
 15137 1658 0F000000 		.4byte	.LVL609-1
 15138 165c 74000000 		.4byte	.LVL617
 15139 1660 0400     		.2byte	0x4
ARM GAS  C:\Users\d3bug\AppData\Local\Temp\ccFiAZjI.s 			page 315


 15140 1662 F3       		.byte	0xf3
 15141 1663 01       		.uleb128 0x1
 15142 1664 52       		.byte	0x52
 15143 1665 9F       		.byte	0x9f
 15144 1666 74000000 		.4byte	.LVL617
 15145 166a 79000000 		.4byte	.LVL618-1
 15146 166e 0100     		.2byte	0x1
 15147 1670 52       		.byte	0x52
 15148 1671 79000000 		.4byte	.LVL618-1
 15149 1675 96000000 		.4byte	.LVL623
 15150 1679 0400     		.2byte	0x4
 15151 167b F3       		.byte	0xf3
 15152 167c 01       		.uleb128 0x1
 15153 167d 52       		.byte	0x52
 15154 167e 9F       		.byte	0x9f
 15155 167f 96000000 		.4byte	.LVL623
 15156 1683 98000000 		.4byte	.LVL624
 15157 1687 0100     		.2byte	0x1
 15158 1689 52       		.byte	0x52
 15159 168a 98000000 		.4byte	.LVL624
 15160 168e 9E000000 		.4byte	.LFE80
 15161 1692 0400     		.2byte	0x4
 15162 1694 F3       		.byte	0xf3
 15163 1695 01       		.uleb128 0x1
 15164 1696 52       		.byte	0x52
 15165 1697 9F       		.byte	0x9f
 15166 1698 00000000 		.4byte	0
 15167 169c 00000000 		.4byte	0
 15168              	.LLST135:
 15169 16a0 10000000 		.4byte	.LVL609
 15170 16a4 26000000 		.4byte	.LVL611
 15171 16a8 0100     		.2byte	0x1
 15172 16aa 50       		.byte	0x50
 15173 16ab 00000000 		.4byte	0
 15174 16af 00000000 		.4byte	0
 15175              	.LLST136:
 15176 16b3 1A000000 		.4byte	.LVL610
 15177 16b7 60000000 		.4byte	.LVL615
 15178 16bb 0100     		.2byte	0x1
 15179 16bd 56       		.byte	0x56
 15180 16be 00000000 		.4byte	0
 15181 16c2 00000000 		.4byte	0
 15182              	.LLST137:
 15183 16c6 7C000000 		.4byte	.LVL619
 15184 16ca 82000000 		.4byte	.LVL620
 15185 16ce 0100     		.2byte	0x1
 15186 16d0 50       		.byte	0x50
 15187 16d1 82000000 		.4byte	.LVL620
 15188 16d5 96000000 		.4byte	.LVL623
 15189 16d9 0100     		.2byte	0x1
 15190 16db 57       		.byte	0x57
 15191 16dc 00000000 		.4byte	0
 15192 16e0 00000000 		.4byte	0
 15193              	.LLST138:
 15194 16e4 00000000 		.4byte	.LVL625
 15195 16e8 04000000 		.4byte	.LVL626
 15196 16ec 0100     		.2byte	0x1
ARM GAS  C:\Users\d3bug\AppData\Local\Temp\ccFiAZjI.s 			page 316


 15197 16ee 50       		.byte	0x50
 15198 16ef 04000000 		.4byte	.LVL626
 15199 16f3 06000000 		.4byte	.LFE72
 15200 16f7 0400     		.2byte	0x4
 15201 16f9 F3       		.byte	0xf3
 15202 16fa 01       		.uleb128 0x1
 15203 16fb 50       		.byte	0x50
 15204 16fc 9F       		.byte	0x9f
 15205 16fd 00000000 		.4byte	0
 15206 1701 00000000 		.4byte	0
 15207              	.LLST139:
 15208 1705 00000000 		.4byte	.LVL627
 15209 1709 0A000000 		.4byte	.LVL628
 15210 170d 0100     		.2byte	0x1
 15211 170f 50       		.byte	0x50
 15212 1710 0A000000 		.4byte	.LVL628
 15213 1714 0E000000 		.4byte	.LFE73
 15214 1718 0400     		.2byte	0x4
 15215 171a F3       		.byte	0xf3
 15216 171b 01       		.uleb128 0x1
 15217 171c 50       		.byte	0x50
 15218 171d 9F       		.byte	0x9f
 15219 171e 00000000 		.4byte	0
 15220 1722 00000000 		.4byte	0
 15221              	.LLST140:
 15222 1726 00000000 		.4byte	.LVL629
 15223 172a 0B000000 		.4byte	.LVL631-1
 15224 172e 0100     		.2byte	0x1
 15225 1730 50       		.byte	0x50
 15226 1731 0B000000 		.4byte	.LVL631-1
 15227 1735 74000000 		.4byte	.LVL645
 15228 1739 0100     		.2byte	0x1
 15229 173b 55       		.byte	0x55
 15230 173c 74000000 		.4byte	.LVL645
 15231 1740 78000000 		.4byte	.LFE81
 15232 1744 0400     		.2byte	0x4
 15233 1746 F3       		.byte	0xf3
 15234 1747 01       		.uleb128 0x1
 15235 1748 50       		.byte	0x50
 15236 1749 9F       		.byte	0x9f
 15237 174a 00000000 		.4byte	0
 15238 174e 00000000 		.4byte	0
 15239              	.LLST141:
 15240 1752 00000000 		.4byte	.LVL629
 15241 1756 0B000000 		.4byte	.LVL631-1
 15242 175a 0100     		.2byte	0x1
 15243 175c 51       		.byte	0x51
 15244 175d 0B000000 		.4byte	.LVL631-1
 15245 1761 78000000 		.4byte	.LFE81
 15246 1765 0400     		.2byte	0x4
 15247 1767 F3       		.byte	0xf3
 15248 1768 01       		.uleb128 0x1
 15249 1769 51       		.byte	0x51
 15250 176a 9F       		.byte	0x9f
 15251 176b 00000000 		.4byte	0
 15252 176f 00000000 		.4byte	0
 15253              	.LLST142:
ARM GAS  C:\Users\d3bug\AppData\Local\Temp\ccFiAZjI.s 			page 317


 15254 1773 00000000 		.4byte	.LVL629
 15255 1777 0B000000 		.4byte	.LVL631-1
 15256 177b 0100     		.2byte	0x1
 15257 177d 52       		.byte	0x52
 15258 177e 0B000000 		.4byte	.LVL631-1
 15259 1782 74000000 		.4byte	.LVL645
 15260 1786 0100     		.2byte	0x1
 15261 1788 57       		.byte	0x57
 15262 1789 74000000 		.4byte	.LVL645
 15263 178d 78000000 		.4byte	.LFE81
 15264 1791 0400     		.2byte	0x4
 15265 1793 F3       		.byte	0xf3
 15266 1794 01       		.uleb128 0x1
 15267 1795 52       		.byte	0x52
 15268 1796 9F       		.byte	0x9f
 15269 1797 00000000 		.4byte	0
 15270 179b 00000000 		.4byte	0
 15271              	.LLST143:
 15272 179f 08000000 		.4byte	.LVL630
 15273 17a3 72000000 		.4byte	.LVL644
 15274 17a7 0200     		.2byte	0x2
 15275 17a9 31       		.byte	0x31
 15276 17aa 9F       		.byte	0x9f
 15277 17ab 72000000 		.4byte	.LVL644
 15278 17af 78000000 		.4byte	.LFE81
 15279 17b3 0100     		.2byte	0x1
 15280 17b5 50       		.byte	0x50
 15281 17b6 00000000 		.4byte	0
 15282 17ba 00000000 		.4byte	0
 15283              	.LLST144:
 15284 17be 0E000000 		.4byte	.LVL632
 15285 17c2 11000000 		.4byte	.LVL633-1
 15286 17c6 0100     		.2byte	0x1
 15287 17c8 50       		.byte	0x50
 15288 17c9 11000000 		.4byte	.LVL633-1
 15289 17cd 74000000 		.4byte	.LVL645
 15290 17d1 0100     		.2byte	0x1
 15291 17d3 56       		.byte	0x56
 15292 17d4 00000000 		.4byte	0
 15293 17d8 00000000 		.4byte	0
 15294              	.LLST145:
 15295 17dc 12000000 		.4byte	.LVL633
 15296 17e0 25000000 		.4byte	.LVL634-1
 15297 17e4 0100     		.2byte	0x1
 15298 17e6 50       		.byte	0x50
 15299 17e7 00000000 		.4byte	0
 15300 17eb 00000000 		.4byte	0
 15301              	.LLST146:
 15302 17ef 60000000 		.4byte	.LVL640
 15303 17f3 68000000 		.4byte	.LVL641
 15304 17f7 0100     		.2byte	0x1
 15305 17f9 57       		.byte	0x57
 15306 17fa 00000000 		.4byte	0
 15307 17fe 00000000 		.4byte	0
 15308              	.LLST147:
 15309 1802 00000000 		.4byte	.LVL646
 15310 1806 02000000 		.4byte	.LVL647
ARM GAS  C:\Users\d3bug\AppData\Local\Temp\ccFiAZjI.s 			page 318


 15311 180a 0100     		.2byte	0x1
 15312 180c 50       		.byte	0x50
 15313 180d 02000000 		.4byte	.LVL647
 15314 1811 04000000 		.4byte	.LFE74
 15315 1815 0400     		.2byte	0x4
 15316 1817 F3       		.byte	0xf3
 15317 1818 01       		.uleb128 0x1
 15318 1819 50       		.byte	0x50
 15319 181a 9F       		.byte	0x9f
 15320 181b 00000000 		.4byte	0
 15321 181f 00000000 		.4byte	0
 15322              	.LLST148:
 15323 1823 00000000 		.4byte	.LVL648
 15324 1827 02000000 		.4byte	.LVL649
 15325 182b 0100     		.2byte	0x1
 15326 182d 50       		.byte	0x50
 15327 182e 02000000 		.4byte	.LVL649
 15328 1832 04000000 		.4byte	.LFE75
 15329 1836 0400     		.2byte	0x4
 15330 1838 F3       		.byte	0xf3
 15331 1839 01       		.uleb128 0x1
 15332 183a 50       		.byte	0x50
 15333 183b 9F       		.byte	0x9f
 15334 183c 00000000 		.4byte	0
 15335 1840 00000000 		.4byte	0
 15336              	.LLST149:
 15337 1844 00000000 		.4byte	.LVL650
 15338 1848 02000000 		.4byte	.LVL651
 15339 184c 0100     		.2byte	0x1
 15340 184e 50       		.byte	0x50
 15341 184f 02000000 		.4byte	.LVL651
 15342 1853 04000000 		.4byte	.LFE76
 15343 1857 0400     		.2byte	0x4
 15344 1859 F3       		.byte	0xf3
 15345 185a 01       		.uleb128 0x1
 15346 185b 50       		.byte	0x50
 15347 185c 9F       		.byte	0x9f
 15348 185d 00000000 		.4byte	0
 15349 1861 00000000 		.4byte	0
 15350              	.LLST150:
 15351 1865 00000000 		.4byte	.LVL652
 15352 1869 10000000 		.4byte	.LVL654
 15353 186d 0100     		.2byte	0x1
 15354 186f 50       		.byte	0x50
 15355 1870 10000000 		.4byte	.LVL654
 15356 1874 66000000 		.4byte	.LFE77
 15357 1878 0100     		.2byte	0x1
 15358 187a 55       		.byte	0x55
 15359 187b 00000000 		.4byte	0
 15360 187f 00000000 		.4byte	0
 15361              	.LLST151:
 15362 1883 00000000 		.4byte	.LVL652
 15363 1887 0E000000 		.4byte	.LVL653
 15364 188b 0100     		.2byte	0x1
 15365 188d 51       		.byte	0x51
 15366 188e 0E000000 		.4byte	.LVL653
 15367 1892 66000000 		.4byte	.LFE77
ARM GAS  C:\Users\d3bug\AppData\Local\Temp\ccFiAZjI.s 			page 319


 15368 1896 0100     		.2byte	0x1
 15369 1898 54       		.byte	0x54
 15370 1899 00000000 		.4byte	0
 15371 189d 00000000 		.4byte	0
 15372              	.LLST152:
 15373 18a1 28000000 		.4byte	.LVL657
 15374 18a5 2C000000 		.4byte	.LVL658
 15375 18a9 0200     		.2byte	0x2
 15376 18ab 30       		.byte	0x30
 15377 18ac 9F       		.byte	0x9f
 15378 18ad 2C000000 		.4byte	.LVL658
 15379 18b1 3A000000 		.4byte	.LVL659
 15380 18b5 0100     		.2byte	0x1
 15381 18b7 52       		.byte	0x52
 15382 18b8 3C000000 		.4byte	.LVL660
 15383 18bc 66000000 		.4byte	.LFE77
 15384 18c0 0100     		.2byte	0x1
 15385 18c2 52       		.byte	0x52
 15386 18c3 00000000 		.4byte	0
 15387 18c7 00000000 		.4byte	0
 15388              	.LLST153:
 15389 18cb 44000000 		.4byte	.LVL661
 15390 18cf 58000000 		.4byte	.LVL662
 15391 18d3 0100     		.2byte	0x1
 15392 18d5 53       		.byte	0x53
 15393 18d6 5A000000 		.4byte	.LVL663
 15394 18da 5C000000 		.4byte	.LVL664
 15395 18de 0100     		.2byte	0x1
 15396 18e0 53       		.byte	0x53
 15397 18e1 5E000000 		.4byte	.LVL665
 15398 18e5 66000000 		.4byte	.LFE77
 15399 18e9 0100     		.2byte	0x1
 15400 18eb 53       		.byte	0x53
 15401 18ec 00000000 		.4byte	0
 15402 18f0 00000000 		.4byte	0
 15403              	.LLST154:
 15404 18f4 00000000 		.4byte	.LVL666
 15405 18f8 02000000 		.4byte	.LVL667
 15406 18fc 0100     		.2byte	0x1
 15407 18fe 50       		.byte	0x50
 15408 18ff 02000000 		.4byte	.LVL667
 15409 1903 04000000 		.4byte	.LFE78
 15410 1907 0400     		.2byte	0x4
 15411 1909 F3       		.byte	0xf3
 15412 190a 01       		.uleb128 0x1
 15413 190b 50       		.byte	0x50
 15414 190c 9F       		.byte	0x9f
 15415 190d 00000000 		.4byte	0
 15416 1911 00000000 		.4byte	0
 15417              	.LLST155:
 15418 1915 00000000 		.4byte	.LVL668
 15419 1919 02000000 		.4byte	.LVL669
 15420 191d 0100     		.2byte	0x1
 15421 191f 50       		.byte	0x50
 15422 1920 02000000 		.4byte	.LVL669
 15423 1924 04000000 		.4byte	.LFE79
 15424 1928 0400     		.2byte	0x4
ARM GAS  C:\Users\d3bug\AppData\Local\Temp\ccFiAZjI.s 			page 320


 15425 192a F3       		.byte	0xf3
 15426 192b 01       		.uleb128 0x1
 15427 192c 50       		.byte	0x50
 15428 192d 9F       		.byte	0x9f
 15429 192e 00000000 		.4byte	0
 15430 1932 00000000 		.4byte	0
 15431              		.section	.debug_aranges,"",%progbits
 15432 0000 64020000 		.4byte	0x264
 15433 0004 0200     		.2byte	0x2
 15434 0006 00000000 		.4byte	.Ldebug_info0
 15435 000a 04       		.byte	0x4
 15436 000b 00       		.byte	0
 15437 000c 0000     		.2byte	0
 15438 000e 0000     		.2byte	0
 15439 0010 00000000 		.4byte	.LFB82
 15440 0014 48000000 		.4byte	.LFE82-.LFB82
 15441 0018 00000000 		.4byte	.LFB28
 15442 001c 0E000000 		.4byte	.LFE28-.LFB28
 15443 0020 00000000 		.4byte	.LFB33
 15444 0024 0E000000 		.4byte	.LFE33-.LFB33
 15445 0028 00000000 		.4byte	.LFB34
 15446 002c 0E000000 		.4byte	.LFE34-.LFB34
 15447 0030 00000000 		.4byte	.LFB35
 15448 0034 1C000000 		.4byte	.LFE35-.LFB35
 15449 0038 00000000 		.4byte	.LFB36
 15450 003c 0E000000 		.4byte	.LFE36-.LFB36
 15451 0040 00000000 		.4byte	.LFB37
 15452 0044 0E000000 		.4byte	.LFE37-.LFB37
 15453 0048 00000000 		.4byte	.LFB38
 15454 004c 0E000000 		.4byte	.LFE38-.LFB38
 15455 0050 00000000 		.4byte	.LFB40
 15456 0054 0C000000 		.4byte	.LFE40-.LFB40
 15457 0058 00000000 		.4byte	.LFB41
 15458 005c 0E000000 		.4byte	.LFE41-.LFB41
 15459 0060 00000000 		.4byte	.LFB42
 15460 0064 04000000 		.4byte	.LFE42-.LFB42
 15461 0068 00000000 		.4byte	.LFB43
 15462 006c 04000000 		.4byte	.LFE43-.LFB43
 15463 0070 00000000 		.4byte	.LFB44
 15464 0074 0E000000 		.4byte	.LFE44-.LFB44
 15465 0078 00000000 		.4byte	.LFB46
 15466 007c 04000000 		.4byte	.LFE46-.LFB46
 15467 0080 00000000 		.4byte	.LFB47
 15468 0084 04000000 		.4byte	.LFE47-.LFB47
 15469 0088 00000000 		.4byte	.LFB48
 15470 008c 0C000000 		.4byte	.LFE48-.LFB48
 15471 0090 00000000 		.4byte	.LFB49
 15472 0094 0C000000 		.4byte	.LFE49-.LFB49
 15473 0098 00000000 		.4byte	.LFB50
 15474 009c 0C000000 		.4byte	.LFE50-.LFB50
 15475 00a0 00000000 		.4byte	.LFB52
 15476 00a4 04000000 		.4byte	.LFE52-.LFB52
 15477 00a8 00000000 		.4byte	.LFB85
 15478 00ac 76000000 		.4byte	.LFE85-.LFB85
 15479 00b0 00000000 		.4byte	.LFB51
 15480 00b4 18000000 		.4byte	.LFE51-.LFB51
 15481 00b8 00000000 		.4byte	.LFB53
ARM GAS  C:\Users\d3bug\AppData\Local\Temp\ccFiAZjI.s 			page 321


 15482 00bc 14000000 		.4byte	.LFE53-.LFB53
 15483 00c0 00000000 		.4byte	.LFB54
 15484 00c4 14000000 		.4byte	.LFE54-.LFB54
 15485 00c8 00000000 		.4byte	.LFB55
 15486 00cc 22000000 		.4byte	.LFE55-.LFB55
 15487 00d0 00000000 		.4byte	.LFB56
 15488 00d4 0C000000 		.4byte	.LFE56-.LFB56
 15489 00d8 00000000 		.4byte	.LFB57
 15490 00dc 16000000 		.4byte	.LFE57-.LFB57
 15491 00e0 00000000 		.4byte	.LFB58
 15492 00e4 16000000 		.4byte	.LFE58-.LFB58
 15493 00e8 00000000 		.4byte	.LFB59
 15494 00ec 10000000 		.4byte	.LFE59-.LFB59
 15495 00f0 00000000 		.4byte	.LFB60
 15496 00f4 10000000 		.4byte	.LFE60-.LFB60
 15497 00f8 00000000 		.4byte	.LFB61
 15498 00fc 06000000 		.4byte	.LFE61-.LFB61
 15499 0100 00000000 		.4byte	.LFB62
 15500 0104 0A000000 		.4byte	.LFE62-.LFB62
 15501 0108 00000000 		.4byte	.LFB63
 15502 010c 2C000000 		.4byte	.LFE63-.LFB63
 15503 0110 00000000 		.4byte	.LFB64
 15504 0114 0A000000 		.4byte	.LFE64-.LFB64
 15505 0118 00000000 		.4byte	.LFB16
 15506 011c A2000000 		.4byte	.LFE16-.LFB16
 15507 0120 00000000 		.4byte	.LFB14
 15508 0124 9C000000 		.4byte	.LFE14-.LFB14
 15509 0128 00000000 		.4byte	.LFB15
 15510 012c 26000000 		.4byte	.LFE15-.LFB15
 15511 0130 00000000 		.4byte	.LFB17
 15512 0134 10000000 		.4byte	.LFE17-.LFB17
 15513 0138 00000000 		.4byte	.LFB19
 15514 013c 8C000000 		.4byte	.LFE19-.LFB19
 15515 0140 00000000 		.4byte	.LFB20
 15516 0144 16000000 		.4byte	.LFE20-.LFB20
 15517 0148 00000000 		.4byte	.LFB21
 15518 014c 16000000 		.4byte	.LFE21-.LFB21
 15519 0150 00000000 		.4byte	.LFB25
 15520 0154 38030000 		.4byte	.LFE25-.LFB25
 15521 0158 00000000 		.4byte	.LFB26
 15522 015c C4020000 		.4byte	.LFE26-.LFB26
 15523 0160 00000000 		.4byte	.LFB27
 15524 0164 3E000000 		.4byte	.LFE27-.LFB27
 15525 0168 00000000 		.4byte	.LFB13
 15526 016c B0020000 		.4byte	.LFE13-.LFB13
 15527 0170 00000000 		.4byte	.LFB18
 15528 0174 88000000 		.4byte	.LFE18-.LFB18
 15529 0178 00000000 		.4byte	.LFB22
 15530 017c 72000000 		.4byte	.LFE22-.LFB22
 15531 0180 00000000 		.4byte	.LFB23
 15532 0184 16000000 		.4byte	.LFE23-.LFB23
 15533 0188 00000000 		.4byte	.LFB24
 15534 018c 16000000 		.4byte	.LFE24-.LFB24
 15535 0190 00000000 		.4byte	.LFB30
 15536 0194 1A000000 		.4byte	.LFE30-.LFB30
 15537 0198 00000000 		.4byte	.LFB84
 15538 019c 3E000000 		.4byte	.LFE84-.LFB84
ARM GAS  C:\Users\d3bug\AppData\Local\Temp\ccFiAZjI.s 			page 322


 15539 01a0 00000000 		.4byte	.LFB29
 15540 01a4 12000000 		.4byte	.LFE29-.LFB29
 15541 01a8 00000000 		.4byte	.LFB83
 15542 01ac 3C000000 		.4byte	.LFE83-.LFB83
 15543 01b0 00000000 		.4byte	.LFB31
 15544 01b4 38000000 		.4byte	.LFE31-.LFB31
 15545 01b8 00000000 		.4byte	.LFB12
 15546 01bc C8000000 		.4byte	.LFE12-.LFB12
 15547 01c0 00000000 		.4byte	.LFB32
 15548 01c4 44000000 		.4byte	.LFE32-.LFB32
 15549 01c8 00000000 		.4byte	.LFB39
 15550 01cc 0C000000 		.4byte	.LFE39-.LFB39
 15551 01d0 00000000 		.4byte	.LFB45
 15552 01d4 16000000 		.4byte	.LFE45-.LFB45
 15553 01d8 00000000 		.4byte	.LFB65
 15554 01dc 0A000000 		.4byte	.LFE65-.LFB65
 15555 01e0 00000000 		.4byte	.LFB66
 15556 01e4 0A000000 		.4byte	.LFE66-.LFB66
 15557 01e8 00000000 		.4byte	.LFB67
 15558 01ec 0A000000 		.4byte	.LFE67-.LFB67
 15559 01f0 00000000 		.4byte	.LFB68
 15560 01f4 0A000000 		.4byte	.LFE68-.LFB68
 15561 01f8 00000000 		.4byte	.LFB69
 15562 01fc 0A000000 		.4byte	.LFE69-.LFB69
 15563 0200 00000000 		.4byte	.LFB70
 15564 0204 0A000000 		.4byte	.LFE70-.LFB70
 15565 0208 00000000 		.4byte	.LFB71
 15566 020c 20000000 		.4byte	.LFE71-.LFB71
 15567 0210 00000000 		.4byte	.LFB80
 15568 0214 9E000000 		.4byte	.LFE80-.LFB80
 15569 0218 00000000 		.4byte	.LFB72
 15570 021c 06000000 		.4byte	.LFE72-.LFB72
 15571 0220 00000000 		.4byte	.LFB73
 15572 0224 0E000000 		.4byte	.LFE73-.LFB73
 15573 0228 00000000 		.4byte	.LFB81
 15574 022c 78000000 		.4byte	.LFE81-.LFB81
 15575 0230 00000000 		.4byte	.LFB74
 15576 0234 04000000 		.4byte	.LFE74-.LFB74
 15577 0238 00000000 		.4byte	.LFB75
 15578 023c 04000000 		.4byte	.LFE75-.LFB75
 15579 0240 00000000 		.4byte	.LFB76
 15580 0244 04000000 		.4byte	.LFE76-.LFB76
 15581 0248 00000000 		.4byte	.LFB77
 15582 024c 66000000 		.4byte	.LFE77-.LFB77
 15583 0250 00000000 		.4byte	.LFB78
 15584 0254 04000000 		.4byte	.LFE78-.LFB78
 15585 0258 00000000 		.4byte	.LFB79
 15586 025c 04000000 		.4byte	.LFE79-.LFB79
 15587 0260 00000000 		.4byte	0
 15588 0264 00000000 		.4byte	0
 15589              		.section	.debug_ranges,"",%progbits
 15590              	.Ldebug_ranges0:
 15591 0000 0A000000 		.4byte	.LBB25
 15592 0004 B0000000 		.4byte	.LBE25
 15593 0008 76020000 		.4byte	.LBB29
 15594 000c 7A020000 		.4byte	.LBE29
 15595 0010 00000000 		.4byte	0
ARM GAS  C:\Users\d3bug\AppData\Local\Temp\ccFiAZjI.s 			page 323


 15596 0014 00000000 		.4byte	0
 15597 0018 B2000000 		.4byte	.LBB26
 15598 001c 62010000 		.4byte	.LBE26
 15599 0020 7A020000 		.4byte	.LBB30
 15600 0024 7E020000 		.4byte	.LBE30
 15601 0028 00000000 		.4byte	0
 15602 002c 00000000 		.4byte	0
 15603 0030 00000000 		.4byte	.LFB82
 15604 0034 48000000 		.4byte	.LFE82
 15605 0038 00000000 		.4byte	.LFB28
 15606 003c 0E000000 		.4byte	.LFE28
 15607 0040 00000000 		.4byte	.LFB33
 15608 0044 0E000000 		.4byte	.LFE33
 15609 0048 00000000 		.4byte	.LFB34
 15610 004c 0E000000 		.4byte	.LFE34
 15611 0050 00000000 		.4byte	.LFB35
 15612 0054 1C000000 		.4byte	.LFE35
 15613 0058 00000000 		.4byte	.LFB36
 15614 005c 0E000000 		.4byte	.LFE36
 15615 0060 00000000 		.4byte	.LFB37
 15616 0064 0E000000 		.4byte	.LFE37
 15617 0068 00000000 		.4byte	.LFB38
 15618 006c 0E000000 		.4byte	.LFE38
 15619 0070 00000000 		.4byte	.LFB40
 15620 0074 0C000000 		.4byte	.LFE40
 15621 0078 00000000 		.4byte	.LFB41
 15622 007c 0E000000 		.4byte	.LFE41
 15623 0080 00000000 		.4byte	.LFB42
 15624 0084 04000000 		.4byte	.LFE42
 15625 0088 00000000 		.4byte	.LFB43
 15626 008c 04000000 		.4byte	.LFE43
 15627 0090 00000000 		.4byte	.LFB44
 15628 0094 0E000000 		.4byte	.LFE44
 15629 0098 00000000 		.4byte	.LFB46
 15630 009c 04000000 		.4byte	.LFE46
 15631 00a0 00000000 		.4byte	.LFB47
 15632 00a4 04000000 		.4byte	.LFE47
 15633 00a8 00000000 		.4byte	.LFB48
 15634 00ac 0C000000 		.4byte	.LFE48
 15635 00b0 00000000 		.4byte	.LFB49
 15636 00b4 0C000000 		.4byte	.LFE49
 15637 00b8 00000000 		.4byte	.LFB50
 15638 00bc 0C000000 		.4byte	.LFE50
 15639 00c0 00000000 		.4byte	.LFB52
 15640 00c4 04000000 		.4byte	.LFE52
 15641 00c8 00000000 		.4byte	.LFB85
 15642 00cc 76000000 		.4byte	.LFE85
 15643 00d0 00000000 		.4byte	.LFB51
 15644 00d4 18000000 		.4byte	.LFE51
 15645 00d8 00000000 		.4byte	.LFB53
 15646 00dc 14000000 		.4byte	.LFE53
 15647 00e0 00000000 		.4byte	.LFB54
 15648 00e4 14000000 		.4byte	.LFE54
 15649 00e8 00000000 		.4byte	.LFB55
 15650 00ec 22000000 		.4byte	.LFE55
 15651 00f0 00000000 		.4byte	.LFB56
 15652 00f4 0C000000 		.4byte	.LFE56
ARM GAS  C:\Users\d3bug\AppData\Local\Temp\ccFiAZjI.s 			page 324


 15653 00f8 00000000 		.4byte	.LFB57
 15654 00fc 16000000 		.4byte	.LFE57
 15655 0100 00000000 		.4byte	.LFB58
 15656 0104 16000000 		.4byte	.LFE58
 15657 0108 00000000 		.4byte	.LFB59
 15658 010c 10000000 		.4byte	.LFE59
 15659 0110 00000000 		.4byte	.LFB60
 15660 0114 10000000 		.4byte	.LFE60
 15661 0118 00000000 		.4byte	.LFB61
 15662 011c 06000000 		.4byte	.LFE61
 15663 0120 00000000 		.4byte	.LFB62
 15664 0124 0A000000 		.4byte	.LFE62
 15665 0128 00000000 		.4byte	.LFB63
 15666 012c 2C000000 		.4byte	.LFE63
 15667 0130 00000000 		.4byte	.LFB64
 15668 0134 0A000000 		.4byte	.LFE64
 15669 0138 00000000 		.4byte	.LFB16
 15670 013c A2000000 		.4byte	.LFE16
 15671 0140 00000000 		.4byte	.LFB14
 15672 0144 9C000000 		.4byte	.LFE14
 15673 0148 00000000 		.4byte	.LFB15
 15674 014c 26000000 		.4byte	.LFE15
 15675 0150 00000000 		.4byte	.LFB17
 15676 0154 10000000 		.4byte	.LFE17
 15677 0158 00000000 		.4byte	.LFB19
 15678 015c 8C000000 		.4byte	.LFE19
 15679 0160 00000000 		.4byte	.LFB20
 15680 0164 16000000 		.4byte	.LFE20
 15681 0168 00000000 		.4byte	.LFB21
 15682 016c 16000000 		.4byte	.LFE21
 15683 0170 00000000 		.4byte	.LFB25
 15684 0174 38030000 		.4byte	.LFE25
 15685 0178 00000000 		.4byte	.LFB26
 15686 017c C4020000 		.4byte	.LFE26
 15687 0180 00000000 		.4byte	.LFB27
 15688 0184 3E000000 		.4byte	.LFE27
 15689 0188 00000000 		.4byte	.LFB13
 15690 018c B0020000 		.4byte	.LFE13
 15691 0190 00000000 		.4byte	.LFB18
 15692 0194 88000000 		.4byte	.LFE18
 15693 0198 00000000 		.4byte	.LFB22
 15694 019c 72000000 		.4byte	.LFE22
 15695 01a0 00000000 		.4byte	.LFB23
 15696 01a4 16000000 		.4byte	.LFE23
 15697 01a8 00000000 		.4byte	.LFB24
 15698 01ac 16000000 		.4byte	.LFE24
 15699 01b0 00000000 		.4byte	.LFB30
 15700 01b4 1A000000 		.4byte	.LFE30
 15701 01b8 00000000 		.4byte	.LFB84
 15702 01bc 3E000000 		.4byte	.LFE84
 15703 01c0 00000000 		.4byte	.LFB29
 15704 01c4 12000000 		.4byte	.LFE29
 15705 01c8 00000000 		.4byte	.LFB83
 15706 01cc 3C000000 		.4byte	.LFE83
 15707 01d0 00000000 		.4byte	.LFB31
 15708 01d4 38000000 		.4byte	.LFE31
 15709 01d8 00000000 		.4byte	.LFB12
ARM GAS  C:\Users\d3bug\AppData\Local\Temp\ccFiAZjI.s 			page 325


 15710 01dc C8000000 		.4byte	.LFE12
 15711 01e0 00000000 		.4byte	.LFB32
 15712 01e4 44000000 		.4byte	.LFE32
 15713 01e8 00000000 		.4byte	.LFB39
 15714 01ec 0C000000 		.4byte	.LFE39
 15715 01f0 00000000 		.4byte	.LFB45
 15716 01f4 16000000 		.4byte	.LFE45
 15717 01f8 00000000 		.4byte	.LFB65
 15718 01fc 0A000000 		.4byte	.LFE65
 15719 0200 00000000 		.4byte	.LFB66
 15720 0204 0A000000 		.4byte	.LFE66
 15721 0208 00000000 		.4byte	.LFB67
 15722 020c 0A000000 		.4byte	.LFE67
 15723 0210 00000000 		.4byte	.LFB68
 15724 0214 0A000000 		.4byte	.LFE68
 15725 0218 00000000 		.4byte	.LFB69
 15726 021c 0A000000 		.4byte	.LFE69
 15727 0220 00000000 		.4byte	.LFB70
 15728 0224 0A000000 		.4byte	.LFE70
 15729 0228 00000000 		.4byte	.LFB71
 15730 022c 20000000 		.4byte	.LFE71
 15731 0230 00000000 		.4byte	.LFB80
 15732 0234 9E000000 		.4byte	.LFE80
 15733 0238 00000000 		.4byte	.LFB72
 15734 023c 06000000 		.4byte	.LFE72
 15735 0240 00000000 		.4byte	.LFB73
 15736 0244 0E000000 		.4byte	.LFE73
 15737 0248 00000000 		.4byte	.LFB81
 15738 024c 78000000 		.4byte	.LFE81
 15739 0250 00000000 		.4byte	.LFB74
 15740 0254 04000000 		.4byte	.LFE74
 15741 0258 00000000 		.4byte	.LFB75
 15742 025c 04000000 		.4byte	.LFE75
 15743 0260 00000000 		.4byte	.LFB76
 15744 0264 04000000 		.4byte	.LFE76
 15745 0268 00000000 		.4byte	.LFB77
 15746 026c 66000000 		.4byte	.LFE77
 15747 0270 00000000 		.4byte	.LFB78
 15748 0274 04000000 		.4byte	.LFE78
 15749 0278 00000000 		.4byte	.LFB79
 15750 027c 04000000 		.4byte	.LFE79
 15751 0280 00000000 		.4byte	0
 15752 0284 00000000 		.4byte	0
 15753              		.section	.debug_line,"",%progbits
 15754              	.Ldebug_line0:
 15755 0000 E00A0000 		.section	.debug_str,"MS",%progbits,1
 15755      02006302 
 15755      00000201 
 15755      FB0E0D00 
 15755      01010101 
 15756              	.LASF82:
 15757 0000 6C765F6C 		.ascii	"lv_ll_node_t\000"
 15757      6C5F6E6F 
 15757      64655F74 
 15757      00
 15758              	.LASF45:
 15759 000d 756E6963 		.ascii	"unicode_first\000"
ARM GAS  C:\Users\d3bug\AppData\Local\Temp\ccFiAZjI.s 			page 326


 15759      6F64655F 
 15759      66697273 
 15759      7400
 15760              	.LASF37:
 15761 001b 73697A65 		.ascii	"sizetype\000"
 15761      74797065 
 15761      00
 15762              	.LASF112:
 15763 0024 66726565 		.ascii	"free_num\000"
 15763      5F6E756D 
 15763      00
 15764              	.LASF253:
 15765 002d 6368696C 		.ascii	"child\000"
 15765      6400
 15766              	.LASF320:
 15767 0033 6C765F6F 		.ascii	"lv_obj_get_opa_scale_enable\000"
 15767      626A5F67 
 15767      65745F6F 
 15767      70615F73 
 15767      63616C65 
 15768              	.LASF335:
 15769 004f 6C765F6F 		.ascii	"lv_obj_get_type\000"
 15769      626A5F67 
 15769      65745F74 
 15769      79706500 
 15770              	.LASF85:
 15771 005f 7461696C 		.ascii	"tail\000"
 15771      00
 15772              	.LASF172:
 15773 0064 4C565F50 		.ascii	"LV_PROTECT_POS\000"
 15773      524F5445 
 15773      43545F50 
 15773      4F5300
 15774              	.LASF119:
 15775 0073 4C565F53 		.ascii	"LV_SIGNAL_STYLE_CHG\000"
 15775      49474E41 
 15775      4C5F5354 
 15775      594C455F 
 15775      43484700 
 15776              	.LASF355:
 15777 0087 6C765F6D 		.ascii	"lv_mem_free\000"
 15777      656D5F66 
 15777      72656500 
 15778              	.LASF36:
 15779 0093 6C765F6F 		.ascii	"lv_opa_t\000"
 15779      70615F74 
 15779      00
 15780              	.LASF311:
 15781 009c 6C765F69 		.ascii	"lv_init\000"
 15781      6E697400 
 15782              	.LASF74:
 15783 00a4 696E7465 		.ascii	"intense\000"
 15783      6E736500 
 15784              	.LASF317:
 15785 00ac 6C765F6F 		.ascii	"lv_obj_get_drag\000"
 15785      626A5F67 
 15785      65745F64 
ARM GAS  C:\Users\d3bug\AppData\Local\Temp\ccFiAZjI.s 			page 327


 15785      72616700 
 15786              	.LASF365:
 15787 00bc 6C765F6D 		.ascii	"lv_mem_init\000"
 15787      656D5F69 
 15787      6E697400 
 15788              	.LASF40:
 15789 00c8 6C765F70 		.ascii	"lv_point_t\000"
 15789      6F696E74 
 15789      5F7400
 15790              	.LASF128:
 15791 00d3 4C565F53 		.ascii	"LV_SIGNAL_LONG_PRESS\000"
 15791      49474E41 
 15791      4C5F4C4F 
 15791      4E475F50 
 15791      52455353 
 15792              	.LASF66:
 15793 00e8 72616469 		.ascii	"radius\000"
 15793      757300
 15794              	.LASF167:
 15795 00ef 6C765F72 		.ascii	"lv_reailgn_t\000"
 15795      6561696C 
 15795      676E5F74 
 15795      00
 15796              	.LASF160:
 15797 00fc 6C765F61 		.ascii	"lv_align_t\000"
 15797      6C69676E 
 15797      5F7400
 15798              	.LASF361:
 15799 0107 6C765F6C 		.ascii	"lv_ll_ins_head\000"
 15799      6C5F696E 
 15799      735F6865 
 15799      616400
 15800              	.LASF130:
 15801 0116 4C565F53 		.ascii	"LV_SIGNAL_DRAG_BEGIN\000"
 15801      49474E41 
 15801      4C5F4452 
 15801      41475F42 
 15801      4547494E 
 15802              	.LASF337:
 15803 012b 6C765F6F 		.ascii	"lv_obj_get_free_ptr\000"
 15803      626A5F67 
 15803      65745F66 
 15803      7265655F 
 15803      70747200 
 15804              	.LASF273:
 15805 013f 61726561 		.ascii	"area_trunc\000"
 15805      5F747275 
 15805      6E6300
 15806              	.LASF329:
 15807 014a 7369676E 		.ascii	"sign\000"
 15807      00
 15808              	.LASF182:
 15809 014f 73746174 		.ascii	"state\000"
 15809      6500
 15810              	.LASF291:
 15811 0155 6C765F6F 		.ascii	"lv_obj_align_origo\000"
 15811      626A5F61 
ARM GAS  C:\Users\d3bug\AppData\Local\Temp\ccFiAZjI.s 			page 328


 15811      6C69676E 
 15811      5F6F7269 
 15811      676F00
 15812              	.LASF326:
 15813 0168 6C765F6F 		.ascii	"lv_obj_is_protected\000"
 15813      626A5F69 
 15813      735F7072 
 15813      6F746563 
 15813      74656400 
 15814              	.LASF113:
 15815 017c 4C565F52 		.ascii	"LV_RES_INV\000"
 15815      45535F49 
 15815      4E5600
 15816              	.LASF158:
 15817 0187 4C565F41 		.ascii	"LV_ALIGN_OUT_RIGHT_MID\000"
 15817      4C49474E 
 15817      5F4F5554 
 15817      5F524947 
 15817      48545F4D 
 15818              	.LASF124:
 15819 019e 4C565F53 		.ascii	"LV_SIGNAL_PRESSED\000"
 15819      49474E41 
 15819      4C5F5052 
 15819      45535345 
 15819      4400
 15820              	.LASF264:
 15821 01b0 6C765F6F 		.ascii	"lv_obj_get_width\000"
 15821      626A5F67 
 15821      65745F77 
 15821      69647468 
 15821      00
 15822              	.LASF62:
 15823 01c1 74797065 		.ascii	"type\000"
 15823      00
 15824              	.LASF47:
 15825 01c6 676C7970 		.ascii	"glyph_bitmap\000"
 15825      685F6269 
 15825      746D6170 
 15825      00
 15826              	.LASF314:
 15827 01d3 6C765F6F 		.ascii	"lv_obj_refresh_ext_size\000"
 15827      626A5F72 
 15827      65667265 
 15827      73685F65 
 15827      78745F73 
 15828              	.LASF251:
 15829 01eb 6163745F 		.ascii	"act_p\000"
 15829      7000
 15830              	.LASF230:
 15831 01f1 6C765F6F 		.ascii	"lv_obj_set_drag_throw\000"
 15831      626A5F73 
 15831      65745F64 
 15831      7261675F 
 15831      7468726F 
 15832              	.LASF215:
 15833 0207 7072696D 		.ascii	"prim\000"
 15833      00
ARM GAS  C:\Users\d3bug\AppData\Local\Temp\ccFiAZjI.s 			page 329


 15834              	.LASF179:
 15835 020c 706F696E 		.ascii	"point\000"
 15835      7400
 15836              	.LASF331:
 15837 0212 696E6465 		.ascii	"indev_act\000"
 15837      765F6163 
 15837      7400
 15838              	.LASF5:
 15839 021c 5F5F7569 		.ascii	"__uint8_t\000"
 15839      6E74385F 
 15839      7400
 15840              	.LASF298:
 15841 0226 6C765F6F 		.ascii	"lv_obj_set_parent\000"
 15841      626A5F73 
 15841      65745F70 
 15841      6172656E 
 15841      7400
 15842              	.LASF254:
 15843 0238 72657375 		.ascii	"result\000"
 15843      6C7400
 15844              	.LASF299:
 15845 023f 64696666 		.ascii	"diff\000"
 15845      00
 15846              	.LASF205:
 15847 0244 5F6C765F 		.ascii	"_lv_indev_t\000"
 15847      696E6465 
 15847      765F7400 
 15848              	.LASF106:
 15849 0250 68696464 		.ascii	"hidden\000"
 15849      656E00
 15850              	.LASF209:
 15851 0257 6C617374 		.ascii	"last_activity_time\000"
 15851      5F616374 
 15851      69766974 
 15851      795F7469 
 15851      6D6500
 15852              	.LASF123:
 15853 026a 5F4C565F 		.ascii	"_LV_SIGNAL_FEEDBACK_SECTION_START\000"
 15853      5349474E 
 15853      414C5F46 
 15853      45454442 
 15853      41434B5F 
 15854              	.LASF10:
 15855 028c 6C6F6E67 		.ascii	"long int\000"
 15855      20696E74 
 15855      00
 15856              	.LASF367:
 15857 0295 6C765F66 		.ascii	"lv_font_init\000"
 15857      6F6E745F 
 15857      696E6974 
 15857      00
 15858              	.LASF315:
 15859 02a2 6C765F6F 		.ascii	"lv_obj_get_click\000"
 15859      626A5F67 
 15859      65745F63 
 15859      6C69636B 
 15859      00
ARM GAS  C:\Users\d3bug\AppData\Local\Temp\ccFiAZjI.s 			page 330


 15860              	.LASF195:
 15861 02b3 6C617374 		.ascii	"last_state\000"
 15861      5F737461 
 15861      746500
 15862              	.LASF138:
 15863 02be 6C765F73 		.ascii	"lv_signal_func_t\000"
 15863      69676E61 
 15863      6C5F6675 
 15863      6E635F74 
 15863      00
 15864              	.LASF369:
 15865 02cf 6C765F72 		.ascii	"lv_refr_init\000"
 15865      6566725F 
 15865      696E6974 
 15865      00
 15866              	.LASF313:
 15867 02dc 6C765F6F 		.ascii	"lv_obj_set_opa_scale\000"
 15867      626A5F73 
 15867      65745F6F 
 15867      70615F73 
 15867      63616C65 
 15868              	.LASF144:
 15869 02f1 4C565F41 		.ascii	"LV_ALIGN_IN_BOTTOM_MID\000"
 15869      4C49474E 
 15869      5F494E5F 
 15869      424F5454 
 15869      4F4D5F4D 
 15870              	.LASF296:
 15871 0308 636F7079 		.ascii	"copy\000"
 15871      00
 15872              	.LASF221:
 15873 030d 61726561 		.ascii	"area_p\000"
 15873      5F7000
 15874              	.LASF358:
 15875 0314 6C765F61 		.ascii	"lv_area_intersect\000"
 15875      7265615F 
 15875      696E7465 
 15875      72736563 
 15875      7400
 15876              	.LASF250:
 15877 0326 6C765F6F 		.ascii	"lv_obj_get_screen\000"
 15877      626A5F67 
 15877      65745F73 
 15877      63726565 
 15877      6E00
 15878              	.LASF374:
 15879 0338 474E5520 		.ascii	"GNU C11 5.4.1 20160609 (release) [ARM/embedded-5-br"
 15879      43313120 
 15879      352E342E 
 15879      31203230 
 15879      31363036 
 15880 036b 616E6368 		.ascii	"anch revision 237715] -mcpu=cortex-m3 -mthumb -g -O"
 15880      20726576 
 15880      6973696F 
 15880      6E203233 
 15880      37373135 
 15881 039e 67202D66 		.ascii	"g -ffunction-sections -ffat-lto-objects\000"
ARM GAS  C:\Users\d3bug\AppData\Local\Temp\ccFiAZjI.s 			page 331


 15881      66756E63 
 15881      74696F6E 
 15881      2D736563 
 15881      74696F6E 
 15882              	.LASF84:
 15883 03c6 68656164 		.ascii	"head\000"
 15883      00
 15884              	.LASF190:
 15885 03cb 6163745F 		.ascii	"act_obj\000"
 15885      6F626A00 
 15886              	.LASF43:
 15887 03d3 676C7970 		.ascii	"glyph_index\000"
 15887      685F696E 
 15887      64657800 
 15888              	.LASF260:
 15889 03df 72656C5F 		.ascii	"rel_x\000"
 15889      7800
 15890              	.LASF263:
 15891 03e5 72656C5F 		.ascii	"rel_y\000"
 15891      7900
 15892              	.LASF238:
 15893 03eb 6C765F6F 		.ascii	"lv_obj_set_free_num\000"
 15893      626A5F73 
 15893      65745F66 
 15893      7265655F 
 15893      6E756D00 
 15894              	.LASF248:
 15895 03ff 695F6E65 		.ascii	"i_next\000"
 15895      787400
 15896              	.LASF368:
 15897 0406 6C765F73 		.ascii	"lv_style_init\000"
 15897      74796C65 
 15897      5F696E69 
 15897      7400
 15898              	.LASF294:
 15899 0414 6C765F6F 		.ascii	"lv_obj_realign\000"
 15899      626A5F72 
 15899      65616C69 
 15899      676E00
 15900              	.LASF327:
 15901 0423 6C765F6F 		.ascii	"lv_obj_design\000"
 15901      626A5F64 
 15901      65736967 
 15901      6E00
 15902              	.LASF224:
 15903 0431 785F6469 		.ascii	"x_diff\000"
 15903      666600
 15904              	.LASF235:
 15905 0438 6C765F6F 		.ascii	"lv_obj_clear_protect\000"
 15905      626A5F63 
 15905      6C656172 
 15905      5F70726F 
 15905      74656374 
 15906              	.LASF3:
 15907 044d 7369676E 		.ascii	"signed char\000"
 15907      65642063 
 15907      68617200 
ARM GAS  C:\Users\d3bug\AppData\Local\Temp\ccFiAZjI.s 			page 332


 15908              	.LASF14:
 15909 0459 75696E74 		.ascii	"uint8_t\000"
 15909      385F7400 
 15910              	.LASF371:
 15911 0461 6C765F61 		.ascii	"lv_area_is_in\000"
 15911      7265615F 
 15911      69735F69 
 15911      6E00
 15912              	.LASF228:
 15913 046f 6C765F6F 		.ascii	"lv_obj_set_top\000"
 15913      626A5F73 
 15913      65745F74 
 15913      6F7000
 15914              	.LASF31:
 15915 047e 626C7565 		.ascii	"blue\000"
 15915      00
 15916              	.LASF129:
 15917 0483 4C565F53 		.ascii	"LV_SIGNAL_LONG_PRESS_REP\000"
 15917      49474E41 
 15917      4C5F4C4F 
 15917      4E475F50 
 15917      52455353 
 15918              	.LASF213:
 15919 049c 62746E5F 		.ascii	"btn_points\000"
 15919      706F696E 
 15919      747300
 15920              	.LASF184:
 15921 04a7 72656164 		.ascii	"read\000"
 15921      00
 15922              	.LASF4:
 15923 04ac 756E7369 		.ascii	"unsigned char\000"
 15923      676E6564 
 15923      20636861 
 15923      7200
 15924              	.LASF268:
 15925 04ba 6C765F6F 		.ascii	"lv_obj_get_style\000"
 15925      626A5F67 
 15925      65745F73 
 15925      74796C65 
 15925      00
 15926              	.LASF255:
 15927 04cb 6C765F6F 		.ascii	"lv_obj_get_child_back\000"
 15927      626A5F67 
 15927      65745F63 
 15927      68696C64 
 15927      5F626163 
 15928              	.LASF171:
 15929 04e1 4C565F50 		.ascii	"LV_PROTECT_PARENT\000"
 15929      524F5445 
 15929      43545F50 
 15929      4152454E 
 15929      5400
 15930              	.LASF136:
 15931 04f3 4C565F53 		.ascii	"LV_SIGNAL_GET_EDITABLE\000"
 15931      49474E41 
 15931      4C5F4745 
 15931      545F4544 
ARM GAS  C:\Users\d3bug\AppData\Local\Temp\ccFiAZjI.s 			page 333


 15931      49544142 
 15932              	.LASF102:
 15933 050a 636C6963 		.ascii	"click\000"
 15933      6B00
 15934              	.LASF244:
 15935 0510 6C765F6F 		.ascii	"lv_obj_allocate_ext_attr\000"
 15935      626A5F61 
 15935      6C6C6F63 
 15935      6174655F 
 15935      6578745F 
 15936              	.LASF92:
 15937 0529 5F426F6F 		.ascii	"_Bool\000"
 15937      6C00
 15938              	.LASF232:
 15939 052f 6C765F6F 		.ascii	"lv_obj_set_opa_scale_enable\000"
 15939      626A5F73 
 15939      65745F6F 
 15939      70615F73 
 15939      63616C65 
 15940              	.LASF38:
 15941 054b 63686172 		.ascii	"char\000"
 15941      00
 15942              	.LASF378:
 15943 0550 6C765F61 		.ascii	"lv_area_copy\000"
 15943      7265615F 
 15943      636F7079 
 15943      00
 15944              	.LASF304:
 15945 055d 6C765F6F 		.ascii	"lv_obj_set_height\000"
 15945      626A5F73 
 15945      65745F68 
 15945      65696768 
 15945      7400
 15946              	.LASF88:
 15947 056f 4C565F44 		.ascii	"LV_DESIGN_DRAW_POST\000"
 15947      45534947 
 15947      4E5F4452 
 15947      41575F50 
 15947      4F535400 
 15948              	.LASF77:
 15949 0583 626F6479 		.ascii	"body\000"
 15949      00
 15950              	.LASF163:
 15951 0588 796F6673 		.ascii	"yofs\000"
 15951      00
 15952              	.LASF282:
 15953 058d 6C765F6F 		.ascii	"lv_obj_align\000"
 15953      626A5F61 
 15953      6C69676E 
 15953      00
 15954              	.LASF206:
 15955 059a 64726976 		.ascii	"driver\000"
 15955      657200
 15956              	.LASF8:
 15957 05a1 5F5F7569 		.ascii	"__uint16_t\000"
 15957      6E743136 
 15957      5F7400
ARM GAS  C:\Users\d3bug\AppData\Local\Temp\ccFiAZjI.s 			page 334


 15958              	.LASF334:
 15959 05ac 6C765F6F 		.ascii	"lv_obj_get_ext_attr\000"
 15959      626A5F67 
 15959      65745F65 
 15959      78745F61 
 15959      74747200 
 15960              	.LASF316:
 15961 05c0 6C765F6F 		.ascii	"lv_obj_get_top\000"
 15961      626A5F67 
 15961      65745F74 
 15961      6F7000
 15962              	.LASF155:
 15963 05cf 4C565F41 		.ascii	"LV_ALIGN_OUT_LEFT_MID\000"
 15963      4C49474E 
 15963      5F4F5554 
 15963      5F4C4546 
 15963      545F4D49 
 15964              	.LASF89:
 15965 05e5 4C565F44 		.ascii	"LV_DESIGN_COVER_CHK\000"
 15965      45534947 
 15965      4E5F434F 
 15965      5645525F 
 15965      43484B00 
 15966              	.LASF52:
 15967 05f9 6E657874 		.ascii	"next_page\000"
 15967      5F706167 
 15967      6500
 15968              	.LASF207:
 15969 0603 70726F63 		.ascii	"proc\000"
 15969      00
 15970              	.LASF295:
 15971 0608 6C765F6F 		.ascii	"lv_obj_create\000"
 15971      626A5F63 
 15971      72656174 
 15971      6500
 15972              	.LASF237:
 15973 0616 6C765F6F 		.ascii	"lv_obj_set_design_func\000"
 15973      626A5F73 
 15973      65745F64 
 15973      65736967 
 15973      6E5F6675 
 15974              	.LASF54:
 15975 062d 6D6F6E6F 		.ascii	"monospace\000"
 15975      73706163 
 15975      6500
 15976              	.LASF177:
 15977 0637 6C765F68 		.ascii	"lv_hal_indev_type_t\000"
 15977      616C5F69 
 15977      6E646576 
 15977      5F747970 
 15977      655F7400 
 15978              	.LASF341:
 15979 064b 6C765F73 		.ascii	"lv_style_plain_color\000"
 15979      74796C65 
 15979      5F706C61 
 15979      696E5F63 
 15979      6F6C6F72 
ARM GAS  C:\Users\d3bug\AppData\Local\Temp\ccFiAZjI.s 			page 335


 15980              	.LASF229:
 15981 0660 6C765F6F 		.ascii	"lv_obj_set_drag\000"
 15981      626A5F73 
 15981      65745F64 
 15981      72616700 
 15982              	.LASF133:
 15983 0670 4C565F53 		.ascii	"LV_SIGNAL_DEFOCUS\000"
 15983      49474E41 
 15983      4C5F4445 
 15983      464F4355 
 15983      5300
 15984              	.LASF309:
 15985 0682 7265706F 		.ascii	"report_style_mod_core\000"
 15985      72745F73 
 15985      74796C65 
 15985      5F6D6F64 
 15985      5F636F72 
 15986              	.LASF78:
 15987 0698 74657874 		.ascii	"text\000"
 15987      00
 15988              	.LASF338:
 15989 069d 6C765F73 		.ascii	"lv_style_scr\000"
 15989      74796C65 
 15989      5F736372 
 15989      00
 15990              	.LASF79:
 15991 06aa 696D6167 		.ascii	"image\000"
 15991      6500
 15992              	.LASF75:
 15993 06b0 726F756E 		.ascii	"rounded\000"
 15993      64656400 
 15994              	.LASF104:
 15995 06b8 64726167 		.ascii	"drag_throw\000"
 15995      5F746872 
 15995      6F7700
 15996              	.LASF373:
 15997 06c3 6C765F69 		.ascii	"lv_indev_get_act\000"
 15997      6E646576 
 15997      5F676574 
 15997      5F616374 
 15997      00
 15998              	.LASF178:
 15999 06d4 6C765F69 		.ascii	"lv_indev_state_t\000"
 15999      6E646576 
 15999      5F737461 
 15999      74655F74 
 15999      00
 16000              	.LASF242:
 16001 06e5 6C765F6C 		.ascii	"lv_layer_top\000"
 16001      61796572 
 16001      5F746F70 
 16001      00
 16002              	.LASF41:
 16003 06f2 6C765F61 		.ascii	"lv_area_t\000"
 16003      7265615F 
 16003      7400
 16004              	.LASF266:
ARM GAS  C:\Users\d3bug\AppData\Local\Temp\ccFiAZjI.s 			page 336


 16005 06fc 6C765F6F 		.ascii	"lv_obj_get_ext_size\000"
 16005      626A5F67 
 16005      65745F65 
 16005      78745F73 
 16005      697A6500 
 16006              	.LASF173:
 16007 0710 4C565F50 		.ascii	"LV_PROTECT_FOLLOW\000"
 16007      524F5445 
 16007      43545F46 
 16007      4F4C4C4F 
 16007      5700
 16008              	.LASF364:
 16009 0722 6C765F6C 		.ascii	"lv_ll_chg_list\000"
 16009      6C5F6368 
 16009      675F6C69 
 16009      737400
 16010              	.LASF246:
 16011 0731 72656672 		.ascii	"refresh_childen_position\000"
 16011      6573685F 
 16011      6368696C 
 16011      64656E5F 
 16011      706F7369 
 16012              	.LASF301:
 16013 074a 6F6C645F 		.ascii	"old_par\000"
 16013      70617200 
 16014              	.LASF42:
 16015 0752 775F7078 		.ascii	"w_px\000"
 16015      00
 16016              	.LASF219:
 16017 0757 6C765F74 		.ascii	"lv_theme_t\000"
 16017      68656D65 
 16017      5F7400
 16018              	.LASF194:
 16019 0762 77616974 		.ascii	"wait_unil_release\000"
 16019      5F756E69 
 16019      6C5F7265 
 16019      6C656173 
 16019      6500
 16020              	.LASF111:
 16021 0774 7265616C 		.ascii	"realign\000"
 16021      69676E00 
 16022              	.LASF293:
 16023 077c 6F626A5F 		.ascii	"obj_h_half\000"
 16023      685F6861 
 16023      6C6600
 16024              	.LASF214:
 16025 0787 6C765F69 		.ascii	"lv_indev_t\000"
 16025      6E646576 
 16025      5F7400
 16026              	.LASF145:
 16027 0792 4C565F41 		.ascii	"LV_ALIGN_IN_BOTTOM_RIGHT\000"
 16027      4C49474E 
 16027      5F494E5F 
 16027      424F5454 
 16027      4F4D5F52 
 16028              	.LASF101:
 16029 07ab 66726565 		.ascii	"free_ptr\000"
ARM GAS  C:\Users\d3bug\AppData\Local\Temp\ccFiAZjI.s 			page 337


 16029      5F707472 
 16029      00
 16030              	.LASF153:
 16031 07b4 4C565F41 		.ascii	"LV_ALIGN_OUT_BOTTOM_RIGHT\000"
 16031      4C49474E 
 16031      5F4F5554 
 16031      5F424F54 
 16031      544F4D5F 
 16032              	.LASF122:
 16033 07ce 4C565F53 		.ascii	"LV_SIGNAL_GET_TYPE\000"
 16033      49474E41 
 16033      4C5F4745 
 16033      545F5459 
 16033      504500
 16034              	.LASF370:
 16035 07e1 6C765F69 		.ascii	"lv_indev_init\000"
 16035      6E646576 
 16035      5F696E69 
 16035      7400
 16036              	.LASF324:
 16037 07ef 61726561 		.ascii	"area_tmp\000"
 16037      5F746D70 
 16037      00
 16038              	.LASF196:
 16039 07f8 6C617374 		.ascii	"last_key\000"
 16039      5F6B6579 
 16039      00
 16040              	.LASF348:
 16041 0801 5F6C765F 		.ascii	"_lv_disp_list\000"
 16041      64697370 
 16041      5F6C6973 
 16041      7400
 16042              	.LASF81:
 16043 080f 6C765F73 		.ascii	"lv_style_t\000"
 16043      74796C65 
 16043      5F7400
 16044              	.LASF63:
 16045 081a 696E6E65 		.ascii	"inner\000"
 16045      7200
 16046              	.LASF279:
 16047 0820 6C765F6F 		.ascii	"lv_obj_set_pos\000"
 16047      626A5F73 
 16047      65745F70 
 16047      6F7300
 16048              	.LASF202:
 16049 082f 64697361 		.ascii	"disabled\000"
 16049      626C6564 
 16049      00
 16050              	.LASF375:
 16051 0838 2E2E5C6C 		.ascii	"..\\lvgl\\lv_core\\lv_obj.c\000"
 16051      76676C5C 
 16051      6C765F63 
 16051      6F72655C 
 16051      6C765F6F 
 16052              	.LASF152:
 16053 0851 4C565F41 		.ascii	"LV_ALIGN_OUT_BOTTOM_MID\000"
 16053      4C49474E 
ARM GAS  C:\Users\d3bug\AppData\Local\Temp\ccFiAZjI.s 			page 338


 16053      5F4F5554 
 16053      5F424F54 
 16053      544F4D5F 
 16054              	.LASF12:
 16055 0869 6C6F6E67 		.ascii	"long unsigned int\000"
 16055      20756E73 
 16055      69676E65 
 16055      6420696E 
 16055      7400
 16056              	.LASF91:
 16057 087b 6C765F64 		.ascii	"lv_design_func_t\000"
 16057      65736967 
 16057      6E5F6675 
 16057      6E635F74 
 16057      00
 16058              	.LASF70:
 16059 088c 656D7074 		.ascii	"empty\000"
 16059      7900
 16060              	.LASF333:
 16061 0892 6C765F6F 		.ascii	"lv_obj_get_design_func\000"
 16061      626A5F67 
 16061      65745F64 
 16061      65736967 
 16061      6E5F6675 
 16062              	.LASF325:
 16063 08a9 6C765F6F 		.ascii	"lv_obj_get_protect\000"
 16063      626A5F67 
 16063      65745F70 
 16063      726F7465 
 16063      637400
 16064              	.LASF312:
 16065 08bc 6C765F6F 		.ascii	"lv_obj_set_hidden\000"
 16065      626A5F73 
 16065      65745F68 
 16065      69646465 
 16065      6E00
 16066              	.LASF216:
 16067 08ce 68696E74 		.ascii	"hint\000"
 16067      00
 16068              	.LASF330:
 16069 08d3 70617261 		.ascii	"param\000"
 16069      6D00
 16070              	.LASF252:
 16071 08d9 6C765F6F 		.ascii	"lv_obj_get_child\000"
 16071      626A5F67 
 16071      65745F63 
 16071      68696C64 
 16071      00
 16072              	.LASF98:
 16073 08ea 64657369 		.ascii	"design_func\000"
 16073      676E5F66 
 16073      756E6300 
 16074              	.LASF269:
 16075 08f6 7374796C 		.ascii	"style_act\000"
 16075      655F6163 
 16075      7400
 16076              	.LASF80:
ARM GAS  C:\Users\d3bug\AppData\Local\Temp\ccFiAZjI.s 			page 339


 16077 0900 6C696E65 		.ascii	"line\000"
 16077      00
 16078              	.LASF132:
 16079 0905 4C565F53 		.ascii	"LV_SIGNAL_FOCUS\000"
 16079      49474E41 
 16079      4C5F464F 
 16079      43555300 
 16080              	.LASF19:
 16081 0915 4C565F4F 		.ascii	"LV_OPA_0\000"
 16081      50415F30 
 16081      00
 16082              	.LASF55:
 16083 091e 676C7970 		.ascii	"glyph_cnt\000"
 16083      685F636E 
 16083      7400
 16084              	.LASF51:
 16085 0928 6765745F 		.ascii	"get_width\000"
 16085      77696474 
 16085      6800
 16086              	.LASF212:
 16087 0932 67726F75 		.ascii	"group\000"
 16087      7000
 16088              	.LASF186:
 16089 0938 6163745F 		.ascii	"act_point\000"
 16089      706F696E 
 16089      7400
 16090              	.LASF356:
 16091 0942 6C765F6C 		.ascii	"lv_ll_get_tail\000"
 16091      6C5F6765 
 16091      745F7461 
 16091      696C00
 16092              	.LASF191:
 16093 0951 6C617374 		.ascii	"last_obj\000"
 16093      5F6F626A 
 16093      00
 16094              	.LASF53:
 16095 095a 685F7078 		.ascii	"h_px\000"
 16095      00
 16096              	.LASF243:
 16097 095f 6C765F6C 		.ascii	"lv_layer_sys\000"
 16097      61796572 
 16097      5F737973 
 16097      00
 16098              	.LASF318:
 16099 096c 6C765F6F 		.ascii	"lv_obj_get_drag_throw\000"
 16099      626A5F67 
 16099      65745F64 
 16099      7261675F 
 16099      7468726F 
 16100              	.LASF151:
 16101 0982 4C565F41 		.ascii	"LV_ALIGN_OUT_BOTTOM_LEFT\000"
 16101      4C49474E 
 16101      5F4F5554 
 16101      5F424F54 
 16101      544F4D5F 
 16102              	.LASF11:
 16103 099b 5F5F7569 		.ascii	"__uint32_t\000"
ARM GAS  C:\Users\d3bug\AppData\Local\Temp\ccFiAZjI.s 			page 340


 16103      6E743332 
 16103      5F7400
 16104              	.LASF100:
 16105 09a6 7374796C 		.ascii	"style_p\000"
 16105      655F7000 
 16106              	.LASF1:
 16107 09ae 6C6F6E67 		.ascii	"long long int\000"
 16107      206C6F6E 
 16107      6720696E 
 16107      7400
 16108              	.LASF156:
 16109 09bc 4C565F41 		.ascii	"LV_ALIGN_OUT_LEFT_BOTTOM\000"
 16109      4C49474E 
 16109      5F4F5554 
 16109      5F4C4546 
 16109      545F424F 
 16110              	.LASF60:
 16111 09d5 77696474 		.ascii	"width\000"
 16111      6800
 16112              	.LASF142:
 16113 09db 4C565F41 		.ascii	"LV_ALIGN_IN_TOP_RIGHT\000"
 16113      4C49474E 
 16113      5F494E5F 
 16113      544F505F 
 16113      52494748 
 16114              	.LASF95:
 16115 09f1 6368696C 		.ascii	"child_ll\000"
 16115      645F6C6C 
 16115      00
 16116              	.LASF258:
 16117 09fa 636F7264 		.ascii	"cords_p\000"
 16117      735F7000 
 16118              	.LASF108:
 16119 0a02 70726F74 		.ascii	"protect\000"
 16119      65637400 
 16120              	.LASF305:
 16121 0a0a 6C765F6F 		.ascii	"lv_obj_refresh_style\000"
 16121      626A5F72 
 16121      65667265 
 16121      73685F73 
 16121      74796C65 
 16122              	.LASF34:
 16123 0a1f 6C765F63 		.ascii	"lv_color1_t\000"
 16123      6F6C6F72 
 16123      315F7400 
 16124              	.LASF187:
 16125 0a2b 6C617374 		.ascii	"last_point\000"
 16125      5F706F69 
 16125      6E7400
 16126              	.LASF116:
 16127 0a36 4C565F53 		.ascii	"LV_SIGNAL_CLEANUP\000"
 16127      49474E41 
 16127      4C5F434C 
 16127      45414E55 
 16127      5000
 16128              	.LASF261:
 16129 0a48 70617265 		.ascii	"parent\000"
ARM GAS  C:\Users\d3bug\AppData\Local\Temp\ccFiAZjI.s 			page 341


 16129      6E7400
 16130              	.LASF164:
 16131 0a4f 616C6967 		.ascii	"align\000"
 16131      6E00
 16132              	.LASF18:
 16133 0a55 4C565F4F 		.ascii	"LV_OPA_TRANSP\000"
 16133      50415F54 
 16133      52414E53 
 16133      5000
 16134              	.LASF143:
 16135 0a63 4C565F41 		.ascii	"LV_ALIGN_IN_BOTTOM_LEFT\000"
 16135      4C49474E 
 16135      5F494E5F 
 16135      424F5454 
 16135      4F4D5F4C 
 16136              	.LASF256:
 16137 0a7b 6C765F6F 		.ascii	"lv_obj_count_children\000"
 16137      626A5F63 
 16137      6F756E74 
 16137      5F636869 
 16137      6C647265 
 16138              	.LASF76:
 16139 0a91 676C6173 		.ascii	"glass\000"
 16139      7300
 16140              	.LASF134:
 16141 0a97 4C565F53 		.ascii	"LV_SIGNAL_CONTROLL\000"
 16141      49474E41 
 16141      4C5F434F 
 16141      4E54524F 
 16141      4C4C00
 16142              	.LASF343:
 16143 0aaa 5F6C765F 		.ascii	"_lv_def_scr\000"
 16143      6465665F 
 16143      73637200 
 16144              	.LASF0:
 16145 0ab6 756E7369 		.ascii	"unsigned int\000"
 16145      676E6564 
 16145      20696E74 
 16145      00
 16146              	.LASF117:
 16147 0ac3 4C565F53 		.ascii	"LV_SIGNAL_CHILD_CHG\000"
 16147      49474E41 
 16147      4C5F4348 
 16147      494C445F 
 16147      43484700 
 16148              	.LASF239:
 16149 0ad7 6C765F6F 		.ascii	"lv_obj_set_free_ptr\000"
 16149      626A5F73 
 16149      65745F66 
 16149      7265655F 
 16149      70747200 
 16150              	.LASF236:
 16151 0aeb 6C765F6F 		.ascii	"lv_obj_set_signal_func\000"
 16151      626A5F73 
 16151      65745F73 
 16151      69676E61 
 16151      6C5F6675 
ARM GAS  C:\Users\d3bug\AppData\Local\Temp\ccFiAZjI.s 			page 342


 16152              	.LASF180:
 16153 0b02 656E635F 		.ascii	"enc_diff\000"
 16153      64696666 
 16153      00
 16154              	.LASF139:
 16155 0b0b 4C565F41 		.ascii	"LV_ALIGN_CENTER\000"
 16155      4C49474E 
 16155      5F43454E 
 16155      54455200 
 16156              	.LASF165:
 16157 0b1b 6175746F 		.ascii	"auto_realign\000"
 16157      5F726561 
 16157      6C69676E 
 16157      00
 16158              	.LASF340:
 16159 0b28 6C765F73 		.ascii	"lv_style_plain\000"
 16159      74796C65 
 16159      5F706C61 
 16159      696E00
 16160              	.LASF274:
 16161 0b37 756E696F 		.ascii	"union_ok\000"
 16161      6E5F6F6B 
 16161      00
 16162              	.LASF352:
 16163 0b40 6C765F69 		.ascii	"lv_indev_next\000"
 16163      6E646576 
 16163      5F6E6578 
 16163      7400
 16164              	.LASF49:
 16165 0b4e 756E6963 		.ascii	"unicode_list\000"
 16165      6F64655F 
 16165      6C697374 
 16165      00
 16166              	.LASF87:
 16167 0b5b 4C565F44 		.ascii	"LV_DESIGN_DRAW_MAIN\000"
 16167      45534947 
 16167      4E5F4452 
 16167      41575F4D 
 16167      41494E00 
 16168              	.LASF44:
 16169 0b6f 6C765F66 		.ascii	"lv_font_glyph_dsc_t\000"
 16169      6F6E745F 
 16169      676C7970 
 16169      685F6473 
 16169      635F7400 
 16170              	.LASF65:
 16171 0b83 67726164 		.ascii	"grad_color\000"
 16171      5F636F6C 
 16171      6F7200
 16172              	.LASF121:
 16173 0b8e 4C565F53 		.ascii	"LV_SIGNAL_LANG_CHG\000"
 16173      49474E41 
 16173      4C5F4C41 
 16173      4E475F43 
 16173      484700
 16174              	.LASF245:
 16175 0ba1 6C765F6F 		.ascii	"lv_obj_get_parent\000"
ARM GAS  C:\Users\d3bug\AppData\Local\Temp\ccFiAZjI.s 			page 343


 16175      626A5F67 
 16175      65745F70 
 16175      6172656E 
 16175      7400
 16176              	.LASF125:
 16177 0bb3 4C565F53 		.ascii	"LV_SIGNAL_PRESSING\000"
 16177      49474E41 
 16177      4C5F5052 
 16177      45535349 
 16177      4E4700
 16178              	.LASF29:
 16179 0bc6 4C565F4F 		.ascii	"LV_OPA_100\000"
 16179      50415F31 
 16179      303000
 16180              	.LASF234:
 16181 0bd1 70726F74 		.ascii	"prot\000"
 16181      00
 16182              	.LASF347:
 16183 0bd6 5F6C765F 		.ascii	"_lv_indev_list\000"
 16183      696E6465 
 16183      765F6C69 
 16183      737400
 16184              	.LASF292:
 16185 0be5 6F626A5F 		.ascii	"obj_w_half\000"
 16185      775F6861 
 16185      6C6600
 16186              	.LASF353:
 16187 0bf0 6C765F69 		.ascii	"lv_indev_reset\000"
 16187      6E646576 
 16187      5F726573 
 16187      657400
 16188              	.LASF267:
 16189 0bff 6C765F6F 		.ascii	"lv_obj_get_auto_realign\000"
 16189      626A5F67 
 16189      65745F61 
 16189      75746F5F 
 16189      7265616C 
 16190              	.LASF115:
 16191 0c17 6C765F72 		.ascii	"lv_res_t\000"
 16191      65735F74 
 16191      00
 16192              	.LASF262:
 16193 0c20 6C765F6F 		.ascii	"lv_obj_get_y\000"
 16193      626A5F67 
 16193      65745F79 
 16193      00
 16194              	.LASF159:
 16195 0c2d 4C565F41 		.ascii	"LV_ALIGN_OUT_RIGHT_BOTTOM\000"
 16195      4C49474E 
 16195      5F4F5554 
 16195      5F524947 
 16195      48545F42 
 16196              	.LASF2:
 16197 0c47 6C6F6E67 		.ascii	"long double\000"
 16197      20646F75 
 16197      626C6500 
 16198              	.LASF308:
ARM GAS  C:\Users\d3bug\AppData\Local\Temp\ccFiAZjI.s 			page 344


 16199 0c53 7374796C 		.ascii	"style\000"
 16199      6500
 16200              	.LASF188:
 16201 0c59 76656374 		.ascii	"vect\000"
 16201      00
 16202              	.LASF99:
 16203 0c5e 6578745F 		.ascii	"ext_attr\000"
 16203      61747472 
 16203      00
 16204              	.LASF189:
 16205 0c67 64726167 		.ascii	"drag_sum\000"
 16205      5F73756D 
 16205      00
 16206              	.LASF169:
 16207 0c70 4C565F50 		.ascii	"LV_PROTECT_NONE\000"
 16207      524F5445 
 16207      43545F4E 
 16207      4F4E4500 
 16208              	.LASF148:
 16209 0c80 4C565F41 		.ascii	"LV_ALIGN_OUT_TOP_LEFT\000"
 16209      4C49474E 
 16209      5F4F5554 
 16209      5F544F50 
 16209      5F4C4546 
 16210              	.LASF346:
 16211 0c96 5F6C765F 		.ascii	"_lv_sys_layer\000"
 16211      7379735F 
 16211      6C617965 
 16211      7200
 16212              	.LASF198:
 16213 0ca4 70725F74 		.ascii	"pr_timestamp\000"
 16213      696D6573 
 16213      74616D70 
 16213      00
 16214              	.LASF90:
 16215 0cb1 6C765F64 		.ascii	"lv_design_mode_t\000"
 16215      65736967 
 16215      6E5F6D6F 
 16215      64655F74 
 16215      00
 16216              	.LASF30:
 16217 0cc2 4C565F4F 		.ascii	"LV_OPA_COVER\000"
 16217      50415F43 
 16217      4F564552 
 16217      00
 16218              	.LASF277:
 16219 0ccf 6368696C 		.ascii	"child_next\000"
 16219      645F6E65 
 16219      787400
 16220              	.LASF126:
 16221 0cda 4C565F53 		.ascii	"LV_SIGNAL_PRESS_LOST\000"
 16221      49474E41 
 16221      4C5F5052 
 16221      4553535F 
 16221      4C4F5354 
 16222              	.LASF310:
 16223 0cef 6C765F6F 		.ascii	"lv_obj_report_style_mod\000"
ARM GAS  C:\Users\d3bug\AppData\Local\Temp\ccFiAZjI.s 			page 345


 16223      626A5F72 
 16223      65706F72 
 16223      745F7374 
 16223      796C655F 
 16224              	.LASF131:
 16225 0d07 4C565F53 		.ascii	"LV_SIGNAL_DRAG_END\000"
 16225      49474E41 
 16225      4C5F4452 
 16225      41475F45 
 16225      4E4400
 16226              	.LASF372:
 16227 0d1a 6C765F64 		.ascii	"lv_draw_rect\000"
 16227      7261775F 
 16227      72656374 
 16227      00
 16228              	.LASF127:
 16229 0d27 4C565F53 		.ascii	"LV_SIGNAL_RELEASED\000"
 16229      49474E41 
 16229      4C5F5245 
 16229      4C454153 
 16229      454400
 16230              	.LASF64:
 16231 0d3a 6D61696E 		.ascii	"main_color\000"
 16231      5F636F6C 
 16231      6F7200
 16232              	.LASF344:
 16233 0d45 5F6C765F 		.ascii	"_lv_act_scr\000"
 16233      6163745F 
 16233      73637200 
 16234              	.LASF141:
 16235 0d51 4C565F41 		.ascii	"LV_ALIGN_IN_TOP_MID\000"
 16235      4C49474E 
 16235      5F494E5F 
 16235      544F505F 
 16235      4D494400 
 16236              	.LASF197:
 16237 0d65 5F6C765F 		.ascii	"_lv_indev_proc_t\000"
 16237      696E6465 
 16237      765F7072 
 16237      6F635F74 
 16237      00
 16238              	.LASF332:
 16239 0d76 6C765F6F 		.ascii	"lv_obj_get_signal_func\000"
 16239      626A5F67 
 16239      65745F73 
 16239      69676E61 
 16239      6C5F6675 
 16240              	.LASF137:
 16241 0d8d 6C765F73 		.ascii	"lv_signal_t\000"
 16241      69676E61 
 16241      6C5F7400 
 16242              	.LASF13:
 16243 0d99 6C6F6E67 		.ascii	"long long unsigned int\000"
 16243      206C6F6E 
 16243      6720756E 
 16243      7369676E 
 16243      65642069 
ARM GAS  C:\Users\d3bug\AppData\Local\Temp\ccFiAZjI.s 			page 346


 16244              	.LASF97:
 16245 0db0 7369676E 		.ascii	"signal_func\000"
 16245      616C5F66 
 16245      756E6300 
 16246              	.LASF289:
 16247 0dbc 7061725F 		.ascii	"par_abs_x\000"
 16247      6162735F 
 16247      7800
 16248              	.LASF290:
 16249 0dc6 7061725F 		.ascii	"par_abs_y\000"
 16249      6162735F 
 16249      7900
 16250              	.LASF175:
 16251 0dd0 4C565F50 		.ascii	"LV_PROTECT_CLICK_FOCUS\000"
 16251      524F5445 
 16251      43545F43 
 16251      4C49434B 
 16251      5F464F43 
 16252              	.LASF157:
 16253 0de7 4C565F41 		.ascii	"LV_ALIGN_OUT_RIGHT_TOP\000"
 16253      4C49474E 
 16253      5F4F5554 
 16253      5F524947 
 16253      48545F54 
 16254              	.LASF16:
 16255 0dfe 75696E74 		.ascii	"uint16_t\000"
 16255      31365F74 
 16255      00
 16256              	.LASF114:
 16257 0e07 4C565F52 		.ascii	"LV_RES_OK\000"
 16257      45535F4F 
 16257      4B00
 16258              	.LASF285:
 16259 0e11 6E65775F 		.ascii	"new_x\000"
 16259      7800
 16260              	.LASF286:
 16261 0e17 6E65775F 		.ascii	"new_y\000"
 16261      7900
 16262              	.LASF240:
 16263 0e1d 66726565 		.ascii	"free_p\000"
 16263      5F7000
 16264              	.LASF35:
 16265 0e24 6C765F63 		.ascii	"lv_color_t\000"
 16265      6F6C6F72 
 16265      5F7400
 16266              	.LASF225:
 16267 0e2f 795F6469 		.ascii	"y_diff\000"
 16267      666600
 16268              	.LASF201:
 16269 0e36 72657365 		.ascii	"reset_query\000"
 16269      745F7175 
 16269      65727900 
 16270              	.LASF110:
 16271 0e42 6578745F 		.ascii	"ext_size\000"
 16271      73697A65 
 16271      00
 16272              	.LASF345:
ARM GAS  C:\Users\d3bug\AppData\Local\Temp\ccFiAZjI.s 			page 347


 16273 0e4b 5F6C765F 		.ascii	"_lv_top_layer\000"
 16273      746F705F 
 16273      6C617965 
 16273      7200
 16274              	.LASF300:
 16275 0e59 6F6C645F 		.ascii	"old_pos\000"
 16275      706F7300 
 16276              	.LASF223:
 16277 0e61 6C765F61 		.ascii	"lv_area_get_height\000"
 16277      7265615F 
 16277      6765745F 
 16277      68656967 
 16277      687400
 16278              	.LASF227:
 16279 0e74 6C765F6F 		.ascii	"lv_obj_set_click\000"
 16279      626A5F73 
 16279      65745F63 
 16279      6C69636B 
 16279      00
 16280              	.LASF50:
 16281 0e85 6765745F 		.ascii	"get_bitmap\000"
 16281      6269746D 
 16281      617000
 16282              	.LASF20:
 16283 0e90 4C565F4F 		.ascii	"LV_OPA_10\000"
 16283      50415F31 
 16283      3000
 16284              	.LASF297:
 16285 0e9a 6E65775F 		.ascii	"new_obj\000"
 16285      6F626A00 
 16286              	.LASF379:
 16287 0ea2 6D656D73 		.ascii	"memset\000"
 16287      657400
 16288              	.LASF350:
 16289 0ea9 6C765F6C 		.ascii	"lv_ll_get_next\000"
 16289      6C5F6765 
 16289      745F6E65 
 16289      787400
 16290              	.LASF303:
 16291 0eb8 6C765F6F 		.ascii	"lv_obj_set_width\000"
 16291      626A5F73 
 16291      65745F77 
 16291      69647468 
 16291      00
 16292              	.LASF233:
 16293 0ec9 6C765F6F 		.ascii	"lv_obj_set_protect\000"
 16293      626A5F73 
 16293      65745F70 
 16293      726F7465 
 16293      637400
 16294              	.LASF6:
 16295 0edc 5F5F696E 		.ascii	"__int16_t\000"
 16295      7431365F 
 16295      7400
 16296              	.LASF199:
 16297 0ee6 6C6F6E67 		.ascii	"longpr_rep_timestamp\000"
 16297      70725F72 
ARM GAS  C:\Users\d3bug\AppData\Local\Temp\ccFiAZjI.s 			page 348


 16297      65705F74 
 16297      696D6573 
 16297      74616D70 
 16298              	.LASF217:
 16299 0efb 70616E65 		.ascii	"panel\000"
 16299      6C00
 16300              	.LASF328:
 16301 0f01 6C765F6F 		.ascii	"lv_obj_signal\000"
 16301      626A5F73 
 16301      69676E61 
 16301      6C00
 16302              	.LASF193:
 16303 0f0f 64726167 		.ascii	"drag_in_prog\000"
 16303      5F696E5F 
 16303      70726F67 
 16303      00
 16304              	.LASF366:
 16305 0f1c 6C765F74 		.ascii	"lv_task_init\000"
 16305      61736B5F 
 16305      696E6974 
 16305      00
 16306              	.LASF231:
 16307 0f29 6C765F6F 		.ascii	"lv_obj_set_drag_parent\000"
 16307      626A5F73 
 16307      65745F64 
 16307      7261675F 
 16307      70617265 
 16308              	.LASF220:
 16309 0f40 64657374 		.ascii	"dest\000"
 16309      00
 16310              	.LASF265:
 16311 0f45 6C765F6F 		.ascii	"lv_obj_get_height\000"
 16311      626A5F67 
 16311      65745F68 
 16311      65696768 
 16311      7400
 16312              	.LASF33:
 16313 0f57 66756C6C 		.ascii	"full\000"
 16313      00
 16314              	.LASF147:
 16315 0f5c 4C565F41 		.ascii	"LV_ALIGN_IN_RIGHT_MID\000"
 16315      4C49474E 
 16315      5F494E5F 
 16315      52494748 
 16315      545F4D49 
 16316              	.LASF21:
 16317 0f72 4C565F4F 		.ascii	"LV_OPA_20\000"
 16317      50415F32 
 16317      3000
 16318              	.LASF59:
 16319 0f7c 636F6C6F 		.ascii	"color\000"
 16319      7200
 16320              	.LASF278:
 16321 0f82 6C765F73 		.ascii	"lv_scr_load\000"
 16321      63725F6C 
 16321      6F616400 
 16322              	.LASF120:
ARM GAS  C:\Users\d3bug\AppData\Local\Temp\ccFiAZjI.s 			page 349


 16323 0f8e 4C565F53 		.ascii	"LV_SIGNAL_REFR_EXT_SIZE\000"
 16323      49474E41 
 16323      4C5F5245 
 16323      46525F45 
 16323      58545F53 
 16324              	.LASF73:
 16325 0fa6 6C696E65 		.ascii	"line_space\000"
 16325      5F737061 
 16325      636500
 16326              	.LASF162:
 16327 0fb1 786F6673 		.ascii	"xofs\000"
 16327      00
 16328              	.LASF259:
 16329 0fb6 6C765F6F 		.ascii	"lv_obj_get_x\000"
 16329      626A5F67 
 16329      65745F78 
 16329      00
 16330              	.LASF168:
 16331 0fc3 6C765F6F 		.ascii	"lv_obj_t\000"
 16331      626A5F74 
 16331      00
 16332              	.LASF58:
 16333 0fcc 6C765F73 		.ascii	"lv_shadow_type_t\000"
 16333      6861646F 
 16333      775F7479 
 16333      70655F74 
 16333      00
 16334              	.LASF103:
 16335 0fdd 64726167 		.ascii	"drag\000"
 16335      00
 16336              	.LASF284:
 16337 0fe2 795F6D6F 		.ascii	"y_mod\000"
 16337      6400
 16338              	.LASF94:
 16339 0fe8 5F6C765F 		.ascii	"_lv_obj_t\000"
 16339      6F626A5F 
 16339      7400
 16340              	.LASF140:
 16341 0ff2 4C565F41 		.ascii	"LV_ALIGN_IN_TOP_LEFT\000"
 16341      4C49474E 
 16341      5F494E5F 
 16341      544F505F 
 16341      4C454654 
 16342              	.LASF71:
 16343 1007 666F6E74 		.ascii	"font\000"
 16343      00
 16344              	.LASF72:
 16345 100c 6C657474 		.ascii	"letter_space\000"
 16345      65725F73 
 16345      70616365 
 16345      00
 16346              	.LASF22:
 16347 1019 4C565F4F 		.ascii	"LV_OPA_30\000"
 16347      50415F33 
 16347      3000
 16348              	.LASF376:
 16349 1023 433A5C55 		.ascii	"C:\\Users\\d3bug\\Documents\\Creator\\lvgl_ssd1306\\"
ARM GAS  C:\Users\d3bug\AppData\Local\Temp\ccFiAZjI.s 			page 350


 16349      73657273 
 16349      5C643362 
 16349      75675C44 
 16349      6F63756D 
 16350 1051 68656C6C 		.ascii	"hello_world_label.cydsn\000"
 16350      6F5F776F 
 16350      726C645F 
 16350      6C616265 
 16350      6C2E6379 
 16351              	.LASF170:
 16352 1069 4C565F50 		.ascii	"LV_PROTECT_CHILD_CHG\000"
 16352      524F5445 
 16352      43545F43 
 16352      48494C44 
 16352      5F434847 
 16353              	.LASF174:
 16354 107e 4C565F50 		.ascii	"LV_PROTECT_PRESS_LOST\000"
 16354      524F5445 
 16354      43545F50 
 16354      52455353 
 16354      5F4C4F53 
 16355              	.LASF48:
 16356 1094 676C7970 		.ascii	"glyph_dsc\000"
 16356      685F6473 
 16356      6300
 16357              	.LASF226:
 16358 109e 6C765F6F 		.ascii	"lv_obj_set_auto_realign\000"
 16358      626A5F73 
 16358      65745F61 
 16358      75746F5F 
 16358      7265616C 
 16359              	.LASF161:
 16360 10b6 62617365 		.ascii	"base\000"
 16360      00
 16361              	.LASF362:
 16362 10bb 6C765F6C 		.ascii	"lv_ll_init\000"
 16362      6C5F696E 
 16362      697400
 16363              	.LASF7:
 16364 10c6 73686F72 		.ascii	"short int\000"
 16364      7420696E 
 16364      7400
 16365              	.LASF135:
 16366 10d0 5F4C565F 		.ascii	"_LV_SIGNAL_FEEDBACK_SECTION_END\000"
 16366      5349474E 
 16366      414C5F46 
 16366      45454442 
 16366      41434B5F 
 16367              	.LASF86:
 16368 10f0 6C765F6C 		.ascii	"lv_ll_t\000"
 16368      6C5F7400 
 16369              	.LASF208:
 16370 10f8 66656564 		.ascii	"feedback\000"
 16370      6261636B 
 16370      00
 16371              	.LASF323:
 16372 1101 6D6F6465 		.ascii	"mode\000"
ARM GAS  C:\Users\d3bug\AppData\Local\Temp\ccFiAZjI.s 			page 351


 16372      00
 16373              	.LASF192:
 16374 1106 64726167 		.ascii	"drag_range_out\000"
 16374      5F72616E 
 16374      67655F6F 
 16374      757400
 16375              	.LASF150:
 16376 1115 4C565F41 		.ascii	"LV_ALIGN_OUT_TOP_RIGHT\000"
 16376      4C49474E 
 16376      5F4F5554 
 16376      5F544F50 
 16376      5F524947 
 16377              	.LASF23:
 16378 112c 4C565F4F 		.ascii	"LV_OPA_40\000"
 16378      50415F34 
 16378      3000
 16379              	.LASF15:
 16380 1136 696E7431 		.ascii	"int16_t\000"
 16380      365F7400 
 16381              	.LASF118:
 16382 113e 4C565F53 		.ascii	"LV_SIGNAL_CORD_CHG\000"
 16382      49474E41 
 16382      4C5F434F 
 16382      52445F43 
 16382      484700
 16383              	.LASF96:
 16384 1151 636F6F72 		.ascii	"coords\000"
 16384      647300
 16385              	.LASF241:
 16386 1158 6C765F73 		.ascii	"lv_scr_act\000"
 16386      63725F61 
 16386      637400
 16387              	.LASF249:
 16388 1163 696E6465 		.ascii	"indev\000"
 16388      7600
 16389              	.LASF107:
 16390 1169 6F70615F 		.ascii	"opa_scale_en\000"
 16390      7363616C 
 16390      655F656E 
 16390      00
 16391              	.LASF287:
 16392 1176 62617365 		.ascii	"base_abs_x\000"
 16392      5F616273 
 16392      5F7800
 16393              	.LASF288:
 16394 1181 62617365 		.ascii	"base_abs_y\000"
 16394      5F616273 
 16394      5F7900
 16395              	.LASF321:
 16396 118c 6C765F6F 		.ascii	"lv_obj_get_opa_scale\000"
 16396      626A5F67 
 16396      65745F6F 
 16396      70615F73 
 16396      63616C65 
 16397              	.LASF204:
 16398 11a1 6C765F69 		.ascii	"lv_indev_feedback_t\000"
 16398      6E646576 
ARM GAS  C:\Users\d3bug\AppData\Local\Temp\ccFiAZjI.s 			page 352


 16398      5F666565 
 16398      64626163 
 16398      6B5F7400 
 16399              	.LASF342:
 16400 11b5 5F6C765F 		.ascii	"_lv_scr_ll\000"
 16400      7363725F 
 16400      6C6C00
 16401              	.LASF68:
 16402 11c0 73686164 		.ascii	"shadow\000"
 16402      6F7700
 16403              	.LASF203:
 16404 11c7 6C765F69 		.ascii	"lv_indev_proc_t\000"
 16404      6E646576 
 16404      5F70726F 
 16404      635F7400 
 16405              	.LASF24:
 16406 11d7 4C565F4F 		.ascii	"LV_OPA_50\000"
 16406      50415F35 
 16406      3000
 16407              	.LASF306:
 16408 11e1 72656672 		.ascii	"refresh_childen_style\000"
 16408      6573685F 
 16408      6368696C 
 16408      64656E5F 
 16408      7374796C 
 16409              	.LASF319:
 16410 11f7 6C765F6F 		.ascii	"lv_obj_get_drag_parent\000"
 16410      626A5F67 
 16410      65745F64 
 16410      7261675F 
 16410      70617265 
 16411              	.LASF222:
 16412 120e 6C765F61 		.ascii	"lv_area_get_width\000"
 16412      7265615F 
 16412      6765745F 
 16412      77696474 
 16412      6800
 16413              	.LASF146:
 16414 1220 4C565F41 		.ascii	"LV_ALIGN_IN_LEFT_MID\000"
 16414      4C49474E 
 16414      5F494E5F 
 16414      4C454654 
 16414      5F4D4944 
 16415              	.LASF105:
 16416 1235 64726167 		.ascii	"drag_parent\000"
 16416      5F706172 
 16416      656E7400 
 16417              	.LASF185:
 16418 1241 6C765F69 		.ascii	"lv_indev_drv_t\000"
 16418      6E646576 
 16418      5F647276 
 16418      5F7400
 16419              	.LASF357:
 16420 1250 6C765F6C 		.ascii	"lv_ll_get_prev\000"
 16420      6C5F6765 
 16420      745F7072 
 16420      657600
ARM GAS  C:\Users\d3bug\AppData\Local\Temp\ccFiAZjI.s 			page 353


 16421              	.LASF354:
 16422 125f 6C765F6C 		.ascii	"lv_ll_rem\000"
 16422      6C5F7265 
 16422      6D00
 16423              	.LASF149:
 16424 1269 4C565F41 		.ascii	"LV_ALIGN_OUT_TOP_MID\000"
 16424      4C49474E 
 16424      5F4F5554 
 16424      5F544F50 
 16424      5F4D4944 
 16425              	.LASF307:
 16426 127e 6C765F6F 		.ascii	"lv_obj_set_style\000"
 16426      626A5F73 
 16426      65745F73 
 16426      74796C65 
 16426      00
 16427              	.LASF69:
 16428 128f 70616464 		.ascii	"padding\000"
 16428      696E6700 
 16429              	.LASF351:
 16430 1297 6C765F6D 		.ascii	"lv_mem_realloc\000"
 16430      656D5F72 
 16430      65616C6C 
 16430      6F6300
 16431              	.LASF25:
 16432 12a6 4C565F4F 		.ascii	"LV_OPA_60\000"
 16432      50415F36 
 16432      3000
 16433              	.LASF360:
 16434 12b0 6C765F6C 		.ascii	"lv_log_add\000"
 16434      6F675F61 
 16434      646400
 16435              	.LASF17:
 16436 12bb 75696E74 		.ascii	"uint32_t\000"
 16436      33325F74 
 16436      00
 16437              	.LASF302:
 16438 12c4 6C765F6F 		.ascii	"lv_obj_set_size\000"
 16438      626A5F73 
 16438      65745F73 
 16438      697A6500 
 16439              	.LASF271:
 16440 12d4 6C765F6F 		.ascii	"lv_obj_invalidate\000"
 16440      626A5F69 
 16440      6E76616C 
 16440      69646174 
 16440      6500
 16441              	.LASF270:
 16442 12e6 6C765F6F 		.ascii	"lv_obj_get_hidden\000"
 16442      626A5F67 
 16442      65745F68 
 16442      69646465 
 16442      6E00
 16443              	.LASF154:
 16444 12f8 4C565F41 		.ascii	"LV_ALIGN_OUT_LEFT_TOP\000"
 16444      4C49474E 
 16444      5F4F5554 
ARM GAS  C:\Users\d3bug\AppData\Local\Temp\ccFiAZjI.s 			page 354


 16444      5F4C4546 
 16444      545F544F 
 16445              	.LASF247:
 16446 130e 64656C65 		.ascii	"delete_children\000"
 16446      74655F63 
 16446      68696C64 
 16446      72656E00 
 16447              	.LASF280:
 16448 131e 6C765F6F 		.ascii	"lv_obj_set_x\000"
 16448      626A5F73 
 16448      65745F78 
 16448      00
 16449              	.LASF281:
 16450 132b 6C765F6F 		.ascii	"lv_obj_set_y\000"
 16450      626A5F73 
 16450      65745F79 
 16450      00
 16451              	.LASF359:
 16452 1338 6C765F69 		.ascii	"lv_inv_area\000"
 16452      6E765F61 
 16452      72656100 
 16453              	.LASF32:
 16454 1344 67726565 		.ascii	"green\000"
 16454      6E00
 16455              	.LASF56:
 16456 134a 6C765F66 		.ascii	"lv_font_t\000"
 16456      6F6E745F 
 16456      7400
 16457              	.LASF257:
 16458 1354 6C765F6F 		.ascii	"lv_obj_get_coords\000"
 16458      626A5F67 
 16458      65745F63 
 16458      6F6F7264 
 16458      7300
 16459              	.LASF275:
 16460 1366 6C765F6F 		.ascii	"lv_obj_del\000"
 16460      626A5F64 
 16460      656C00
 16461              	.LASF26:
 16462 1371 4C565F4F 		.ascii	"LV_OPA_70\000"
 16462      50415F37 
 16462      3000
 16463              	.LASF9:
 16464 137b 73686F72 		.ascii	"short unsigned int\000"
 16464      7420756E 
 16464      7369676E 
 16464      65642069 
 16464      6E7400
 16465              	.LASF39:
 16466 138e 6C765F63 		.ascii	"lv_coord_t\000"
 16466      6F6F7264 
 16466      5F7400
 16467              	.LASF183:
 16468 1399 6C765F69 		.ascii	"lv_indev_data_t\000"
 16468      6E646576 
 16468      5F646174 
 16468      615F7400 
ARM GAS  C:\Users\d3bug\AppData\Local\Temp\ccFiAZjI.s 			page 355


 16469              	.LASF181:
 16470 13a9 75736572 		.ascii	"user_data\000"
 16470      5F646174 
 16470      6100
 16471              	.LASF283:
 16472 13b3 785F6D6F 		.ascii	"x_mod\000"
 16472      6400
 16473              	.LASF67:
 16474 13b9 626F7264 		.ascii	"border\000"
 16474      657200
 16475              	.LASF349:
 16476 13c0 6C765F6C 		.ascii	"lv_ll_get_head\000"
 16476      6C5F6765 
 16476      745F6865 
 16476      616400
 16477              	.LASF218:
 16478 13cf 6C616265 		.ascii	"label\000"
 16478      6C00
 16479              	.LASF57:
 16480 13d5 6C765F62 		.ascii	"lv_border_part_t\000"
 16480      6F726465 
 16480      725F7061 
 16480      72745F74 
 16480      00
 16481              	.LASF339:
 16482 13e6 6C765F73 		.ascii	"lv_style_transp_fit\000"
 16482      74796C65 
 16482      5F747261 
 16482      6E73705F 
 16482      66697400 
 16483              	.LASF200:
 16484 13fa 6C6F6E67 		.ascii	"long_pr_sent\000"
 16484      5F70725F 
 16484      73656E74 
 16484      00
 16485              	.LASF27:
 16486 1407 4C565F4F 		.ascii	"LV_OPA_80\000"
 16486      50415F38 
 16486      3000
 16487              	.LASF276:
 16488 1411 6C765F6F 		.ascii	"lv_obj_clean\000"
 16488      626A5F63 
 16488      6C65616E 
 16488      00
 16489              	.LASF166:
 16490 141e 6F726967 		.ascii	"origo_align\000"
 16490      6F5F616C 
 16490      69676E00 
 16491              	.LASF336:
 16492 142a 6C765F6F 		.ascii	"lv_obj_get_free_num\000"
 16492      626A5F67 
 16492      65745F66 
 16492      7265655F 
 16492      6E756D00 
 16493              	.LASF210:
 16494 143e 6E657874 		.ascii	"next\000"
 16494      00
ARM GAS  C:\Users\d3bug\AppData\Local\Temp\ccFiAZjI.s 			page 356


 16495              	.LASF93:
 16496 1443 5F6C765F 		.ascii	"_lv_font_struct\000"
 16496      666F6E74 
 16496      5F737472 
 16496      75637400 
 16497              	.LASF272:
 16498 1453 6F626A5F 		.ascii	"obj_scr\000"
 16498      73637200 
 16499              	.LASF61:
 16500 145b 70617274 		.ascii	"part\000"
 16500      00
 16501              	.LASF83:
 16502 1460 6E5F7369 		.ascii	"n_size\000"
 16502      7A6500
 16503              	.LASF322:
 16504 1467 6D61736B 		.ascii	"mask_p\000"
 16504      5F7000
 16505              	.LASF211:
 16506 146e 63757273 		.ascii	"cursor\000"
 16506      6F7200
 16507              	.LASF176:
 16508 1475 6C765F6F 		.ascii	"lv_obj_type_t\000"
 16508      626A5F74 
 16508      7970655F 
 16508      7400
 16509              	.LASF377:
 16510 1483 5F6C765F 		.ascii	"_lv_group_t\000"
 16510      67726F75 
 16510      705F7400 
 16511              	.LASF46:
 16512 148f 756E6963 		.ascii	"unicode_last\000"
 16512      6F64655F 
 16512      6C617374 
 16512      00
 16513              	.LASF28:
 16514 149c 4C565F4F 		.ascii	"LV_OPA_90\000"
 16514      50415F39 
 16514      3000
 16515              	.LASF363:
 16516 14a6 6C765F74 		.ascii	"lv_theme_get_current\000"
 16516      68656D65 
 16516      5F676574 
 16516      5F637572 
 16516      72656E74 
 16517              	.LASF109:
 16518 14bb 6F70615F 		.ascii	"opa_scale\000"
 16518      7363616C 
 16518      6500
 16519              		.ident	"GCC: (GNU Tools for ARM Embedded Processors) 5.4.1 20160609 (release) [ARM/embedded-5-bran
