ARM GAS  C:\Users\d3bug\AppData\Local\Temp\ccH2B58W.s 			page 1


   1              		.syntax unified
   2              		.cpu cortex-m3
   3              		.fpu softvfp
   4              		.eabi_attribute 20, 1
   5              		.eabi_attribute 21, 1
   6              		.eabi_attribute 23, 3
   7              		.eabi_attribute 24, 1
   8              		.eabi_attribute 25, 1
   9              		.eabi_attribute 26, 1
  10              		.eabi_attribute 30, 1
  11              		.eabi_attribute 34, 1
  12              		.eabi_attribute 18, 4
  13              		.thumb
  14              		.syntax unified
  15              		.file	"lv_refr.c"
  16              		.text
  17              	.Ltext0:
  18              		.cfi_sections	.debug_frame
  19              		.section	.text.lv_refr_join_area,"ax",%progbits
  20              		.align	2
  21              		.thumb
  22              		.thumb_func
  23              		.type	lv_refr_join_area, %function
  24              	lv_refr_join_area:
  25              	.LFB20:
  26              		.file 1 "..\\lvgl\\lv_core\\lv_refr.c"
   1:..\lvgl\lv_core/lv_refr.c **** /**
   2:..\lvgl\lv_core/lv_refr.c ****  * @file lv_refr.c
   3:..\lvgl\lv_core/lv_refr.c ****  *
   4:..\lvgl\lv_core/lv_refr.c ****  */
   5:..\lvgl\lv_core/lv_refr.c **** 
   6:..\lvgl\lv_core/lv_refr.c **** /*********************
   7:..\lvgl\lv_core/lv_refr.c ****  *      INCLUDES
   8:..\lvgl\lv_core/lv_refr.c ****  *********************/
   9:..\lvgl\lv_core/lv_refr.c **** #include <stddef.h>
  10:..\lvgl\lv_core/lv_refr.c **** #include "lv_refr.h"
  11:..\lvgl\lv_core/lv_refr.c **** #include "lv_vdb.h"
  12:..\lvgl\lv_core/lv_refr.c **** #include "../lv_hal/lv_hal_tick.h"
  13:..\lvgl\lv_core/lv_refr.c **** #include "../lv_hal/lv_hal_disp.h"
  14:..\lvgl\lv_core/lv_refr.c **** #include "../lv_misc/lv_task.h"
  15:..\lvgl\lv_core/lv_refr.c **** #include "../lv_misc/lv_mem.h"
  16:..\lvgl\lv_core/lv_refr.c **** 
  17:..\lvgl\lv_core/lv_refr.c **** /*********************
  18:..\lvgl\lv_core/lv_refr.c ****  *      DEFINES
  19:..\lvgl\lv_core/lv_refr.c ****  *********************/
  20:..\lvgl\lv_core/lv_refr.c **** #ifndef LV_INV_FIFO_SIZE
  21:..\lvgl\lv_core/lv_refr.c **** #define LV_INV_FIFO_SIZE    32    /*The average count of objects on a screen */
  22:..\lvgl\lv_core/lv_refr.c **** #endif
  23:..\lvgl\lv_core/lv_refr.c **** 
  24:..\lvgl\lv_core/lv_refr.c **** /**********************
  25:..\lvgl\lv_core/lv_refr.c ****  *      TYPEDEFS
  26:..\lvgl\lv_core/lv_refr.c ****  **********************/
  27:..\lvgl\lv_core/lv_refr.c **** typedef struct {
  28:..\lvgl\lv_core/lv_refr.c ****     lv_area_t area;
  29:..\lvgl\lv_core/lv_refr.c ****     uint8_t joined;
  30:..\lvgl\lv_core/lv_refr.c **** } lv_join_t;
  31:..\lvgl\lv_core/lv_refr.c **** 
ARM GAS  C:\Users\d3bug\AppData\Local\Temp\ccH2B58W.s 			page 2


  32:..\lvgl\lv_core/lv_refr.c **** /**********************
  33:..\lvgl\lv_core/lv_refr.c ****  *  STATIC PROTOTYPES
  34:..\lvgl\lv_core/lv_refr.c ****  **********************/
  35:..\lvgl\lv_core/lv_refr.c **** static void lv_refr_task(void * param);
  36:..\lvgl\lv_core/lv_refr.c **** static void lv_refr_join_area(void);
  37:..\lvgl\lv_core/lv_refr.c **** static void lv_refr_areas(void);
  38:..\lvgl\lv_core/lv_refr.c **** #if LV_VDB_SIZE == 0
  39:..\lvgl\lv_core/lv_refr.c **** static void lv_refr_area_no_vdb(const lv_area_t * area_p);
  40:..\lvgl\lv_core/lv_refr.c **** #else
  41:..\lvgl\lv_core/lv_refr.c **** static void lv_refr_area_with_vdb(const lv_area_t * area_p);
  42:..\lvgl\lv_core/lv_refr.c **** static void lv_refr_area_part_vdb(const lv_area_t * area_p);
  43:..\lvgl\lv_core/lv_refr.c **** #endif
  44:..\lvgl\lv_core/lv_refr.c **** static lv_obj_t * lv_refr_get_top_obj(const lv_area_t * area_p, lv_obj_t * obj);
  45:..\lvgl\lv_core/lv_refr.c **** static void lv_refr_obj_and_children(lv_obj_t * top_p, const lv_area_t * mask_p);
  46:..\lvgl\lv_core/lv_refr.c **** static void lv_refr_obj(lv_obj_t * obj, const lv_area_t * mask_ori_p);
  47:..\lvgl\lv_core/lv_refr.c **** 
  48:..\lvgl\lv_core/lv_refr.c **** /**********************
  49:..\lvgl\lv_core/lv_refr.c ****  *  STATIC VARIABLES
  50:..\lvgl\lv_core/lv_refr.c ****  **********************/
  51:..\lvgl\lv_core/lv_refr.c **** static lv_join_t inv_buf[LV_INV_FIFO_SIZE];
  52:..\lvgl\lv_core/lv_refr.c **** static uint16_t inv_buf_p;
  53:..\lvgl\lv_core/lv_refr.c **** static void (*monitor_cb)(uint32_t, uint32_t); /*Monitor the rendering time*/
  54:..\lvgl\lv_core/lv_refr.c **** static void (*round_cb)(lv_area_t *);          /*If set then called to modify invalidated areas for
  55:..\lvgl\lv_core/lv_refr.c **** static uint32_t px_num;
  56:..\lvgl\lv_core/lv_refr.c **** 
  57:..\lvgl\lv_core/lv_refr.c **** /**********************
  58:..\lvgl\lv_core/lv_refr.c ****  *      MACROS
  59:..\lvgl\lv_core/lv_refr.c ****  **********************/
  60:..\lvgl\lv_core/lv_refr.c **** 
  61:..\lvgl\lv_core/lv_refr.c **** /**********************
  62:..\lvgl\lv_core/lv_refr.c ****  *   GLOBAL FUNCTIONS
  63:..\lvgl\lv_core/lv_refr.c ****  **********************/
  64:..\lvgl\lv_core/lv_refr.c **** 
  65:..\lvgl\lv_core/lv_refr.c **** /**
  66:..\lvgl\lv_core/lv_refr.c ****  * Initialize the screen refresh subsystem
  67:..\lvgl\lv_core/lv_refr.c ****  */
  68:..\lvgl\lv_core/lv_refr.c **** void lv_refr_init(void)
  69:..\lvgl\lv_core/lv_refr.c **** {
  70:..\lvgl\lv_core/lv_refr.c ****     inv_buf_p = 0;
  71:..\lvgl\lv_core/lv_refr.c ****     memset(inv_buf, 0, sizeof(inv_buf));
  72:..\lvgl\lv_core/lv_refr.c **** 
  73:..\lvgl\lv_core/lv_refr.c ****     lv_task_t * task;
  74:..\lvgl\lv_core/lv_refr.c ****     task = lv_task_create(lv_refr_task, LV_REFR_PERIOD, LV_TASK_PRIO_MID, NULL);
  75:..\lvgl\lv_core/lv_refr.c ****     lv_task_ready(task);        /*Be sure the screen will be refreshed immediately on start up*/
  76:..\lvgl\lv_core/lv_refr.c **** }
  77:..\lvgl\lv_core/lv_refr.c **** 
  78:..\lvgl\lv_core/lv_refr.c **** /**
  79:..\lvgl\lv_core/lv_refr.c ****  * Redraw the invalidated areas now.
  80:..\lvgl\lv_core/lv_refr.c ****  * Normally the redrawing is periodically executed in `lv_task_handler` but a long blocking process
  81:..\lvgl\lv_core/lv_refr.c ****  * prevent the call of `lv_task_handler`. In this case if the the GUI is updated in the process (e.
  82:..\lvgl\lv_core/lv_refr.c ****  * this function can be called when the screen should be updated.
  83:..\lvgl\lv_core/lv_refr.c ****  */
  84:..\lvgl\lv_core/lv_refr.c **** void lv_refr_now(void)
  85:..\lvgl\lv_core/lv_refr.c **** {
  86:..\lvgl\lv_core/lv_refr.c ****     lv_refr_task(NULL);
  87:..\lvgl\lv_core/lv_refr.c **** }
  88:..\lvgl\lv_core/lv_refr.c **** 
ARM GAS  C:\Users\d3bug\AppData\Local\Temp\ccH2B58W.s 			page 3


  89:..\lvgl\lv_core/lv_refr.c **** 
  90:..\lvgl\lv_core/lv_refr.c **** /**
  91:..\lvgl\lv_core/lv_refr.c ****  * Invalidate an area
  92:..\lvgl\lv_core/lv_refr.c ****  * @param area_p pointer to area which should be invalidated
  93:..\lvgl\lv_core/lv_refr.c ****  */
  94:..\lvgl\lv_core/lv_refr.c **** void lv_inv_area(const lv_area_t * area_p)
  95:..\lvgl\lv_core/lv_refr.c **** {
  96:..\lvgl\lv_core/lv_refr.c ****     /*Clear the invalidate buffer if the parameter is NULL*/
  97:..\lvgl\lv_core/lv_refr.c ****     if(area_p == NULL) {
  98:..\lvgl\lv_core/lv_refr.c ****         inv_buf_p = 0;
  99:..\lvgl\lv_core/lv_refr.c ****         return;
 100:..\lvgl\lv_core/lv_refr.c ****     }
 101:..\lvgl\lv_core/lv_refr.c **** 
 102:..\lvgl\lv_core/lv_refr.c ****     lv_area_t scr_area;
 103:..\lvgl\lv_core/lv_refr.c ****     scr_area.x1 = 0;
 104:..\lvgl\lv_core/lv_refr.c ****     scr_area.y1 = 0;
 105:..\lvgl\lv_core/lv_refr.c ****     scr_area.x2 = LV_HOR_RES - 1;
 106:..\lvgl\lv_core/lv_refr.c ****     scr_area.y2 = LV_VER_RES - 1;
 107:..\lvgl\lv_core/lv_refr.c **** 
 108:..\lvgl\lv_core/lv_refr.c ****     lv_area_t com_area;
 109:..\lvgl\lv_core/lv_refr.c ****     bool suc;
 110:..\lvgl\lv_core/lv_refr.c **** 
 111:..\lvgl\lv_core/lv_refr.c ****     suc = lv_area_intersect(&com_area, area_p, &scr_area);
 112:..\lvgl\lv_core/lv_refr.c **** 
 113:..\lvgl\lv_core/lv_refr.c ****     /*The area is truncated to the screen*/
 114:..\lvgl\lv_core/lv_refr.c ****     if(suc != false) {
 115:..\lvgl\lv_core/lv_refr.c ****         if(round_cb) round_cb(&com_area);
 116:..\lvgl\lv_core/lv_refr.c **** 
 117:..\lvgl\lv_core/lv_refr.c ****         /*Save only if this area is not in one of the saved areas*/
 118:..\lvgl\lv_core/lv_refr.c ****         uint16_t i;
 119:..\lvgl\lv_core/lv_refr.c ****         for(i = 0; i < inv_buf_p; i++) {
 120:..\lvgl\lv_core/lv_refr.c ****             if(lv_area_is_in(&com_area, &inv_buf[i].area) != false) return;
 121:..\lvgl\lv_core/lv_refr.c ****         }
 122:..\lvgl\lv_core/lv_refr.c **** 
 123:..\lvgl\lv_core/lv_refr.c ****         /*Save the area*/
 124:..\lvgl\lv_core/lv_refr.c ****         if(inv_buf_p < LV_INV_FIFO_SIZE) {
 125:..\lvgl\lv_core/lv_refr.c ****             lv_area_copy(&inv_buf[inv_buf_p].area, &com_area);
 126:..\lvgl\lv_core/lv_refr.c ****         } else {/*If no place for the area add the screen*/
 127:..\lvgl\lv_core/lv_refr.c ****             inv_buf_p = 0;
 128:..\lvgl\lv_core/lv_refr.c ****             lv_area_copy(&inv_buf[inv_buf_p].area, &scr_area);
 129:..\lvgl\lv_core/lv_refr.c ****         }
 130:..\lvgl\lv_core/lv_refr.c ****         inv_buf_p ++;
 131:..\lvgl\lv_core/lv_refr.c ****     }
 132:..\lvgl\lv_core/lv_refr.c **** }
 133:..\lvgl\lv_core/lv_refr.c **** 
 134:..\lvgl\lv_core/lv_refr.c **** /**
 135:..\lvgl\lv_core/lv_refr.c ****  * Set a function to call after every refresh to announce the refresh time and the number of refres
 136:..\lvgl\lv_core/lv_refr.c ****  * @param cb pointer to a callback function (void my_refr_cb(uint32_t time_ms, uint32_t px_num))
 137:..\lvgl\lv_core/lv_refr.c ****  *           time_ms: refresh time in [ms]
 138:..\lvgl\lv_core/lv_refr.c ****  *           px_num: not the drawn pixels but the number of affected pixels of the screen
 139:..\lvgl\lv_core/lv_refr.c ****  *                   (more pixels are drawn because of overlapping objects)
 140:..\lvgl\lv_core/lv_refr.c ****  */
 141:..\lvgl\lv_core/lv_refr.c **** void lv_refr_set_monitor_cb(void (*cb)(uint32_t, uint32_t))
 142:..\lvgl\lv_core/lv_refr.c **** {
 143:..\lvgl\lv_core/lv_refr.c ****     monitor_cb = cb;
 144:..\lvgl\lv_core/lv_refr.c **** }
 145:..\lvgl\lv_core/lv_refr.c **** 
ARM GAS  C:\Users\d3bug\AppData\Local\Temp\ccH2B58W.s 			page 4


 146:..\lvgl\lv_core/lv_refr.c **** /**
 147:..\lvgl\lv_core/lv_refr.c ****  * Called when an area is invalidated to modify the coordinates of the area.
 148:..\lvgl\lv_core/lv_refr.c ****  * Special display controllers may require special coordinate rounding
 149:..\lvgl\lv_core/lv_refr.c ****  * @param cb pointer to the a function which will modify the area
 150:..\lvgl\lv_core/lv_refr.c ****  */
 151:..\lvgl\lv_core/lv_refr.c **** void lv_refr_set_round_cb(void(*cb)(lv_area_t *))
 152:..\lvgl\lv_core/lv_refr.c **** {
 153:..\lvgl\lv_core/lv_refr.c ****     round_cb = cb;
 154:..\lvgl\lv_core/lv_refr.c **** }
 155:..\lvgl\lv_core/lv_refr.c **** 
 156:..\lvgl\lv_core/lv_refr.c **** /**
 157:..\lvgl\lv_core/lv_refr.c ****  * Get the number of areas in the buffer
 158:..\lvgl\lv_core/lv_refr.c ****  * @return number of invalid areas
 159:..\lvgl\lv_core/lv_refr.c ****  */
 160:..\lvgl\lv_core/lv_refr.c **** uint16_t lv_refr_get_buf_size(void)
 161:..\lvgl\lv_core/lv_refr.c **** {
 162:..\lvgl\lv_core/lv_refr.c ****     return inv_buf_p;
 163:..\lvgl\lv_core/lv_refr.c **** }
 164:..\lvgl\lv_core/lv_refr.c **** 
 165:..\lvgl\lv_core/lv_refr.c **** /**
 166:..\lvgl\lv_core/lv_refr.c ****  * Pop (delete) the last 'num' invalidated areas from the buffer
 167:..\lvgl\lv_core/lv_refr.c ****  * @param num number of areas to delete
 168:..\lvgl\lv_core/lv_refr.c ****  */
 169:..\lvgl\lv_core/lv_refr.c **** void lv_refr_pop_from_buf(uint16_t num)
 170:..\lvgl\lv_core/lv_refr.c **** {
 171:..\lvgl\lv_core/lv_refr.c ****     if(inv_buf_p < num) inv_buf_p = 0;
 172:..\lvgl\lv_core/lv_refr.c ****     else inv_buf_p -= num;
 173:..\lvgl\lv_core/lv_refr.c **** }
 174:..\lvgl\lv_core/lv_refr.c **** 
 175:..\lvgl\lv_core/lv_refr.c **** /**********************
 176:..\lvgl\lv_core/lv_refr.c ****  *   STATIC FUNCTIONS
 177:..\lvgl\lv_core/lv_refr.c ****  **********************/
 178:..\lvgl\lv_core/lv_refr.c **** 
 179:..\lvgl\lv_core/lv_refr.c **** /**
 180:..\lvgl\lv_core/lv_refr.c ****  * Called periodically to handle the refreshing
 181:..\lvgl\lv_core/lv_refr.c ****  * @param param unused
 182:..\lvgl\lv_core/lv_refr.c ****  */
 183:..\lvgl\lv_core/lv_refr.c **** static void lv_refr_task(void * param)
 184:..\lvgl\lv_core/lv_refr.c **** {
 185:..\lvgl\lv_core/lv_refr.c ****     (void)param;
 186:..\lvgl\lv_core/lv_refr.c **** 
 187:..\lvgl\lv_core/lv_refr.c ****     LV_LOG_TRACE("display refresh task started");
 188:..\lvgl\lv_core/lv_refr.c **** 
 189:..\lvgl\lv_core/lv_refr.c ****     uint32_t start = lv_tick_get();
 190:..\lvgl\lv_core/lv_refr.c **** 
 191:..\lvgl\lv_core/lv_refr.c ****     if(lv_disp_get_active() == NULL) {
 192:..\lvgl\lv_core/lv_refr.c ****         LV_LOG_TRACE("No display is registered");
 193:..\lvgl\lv_core/lv_refr.c ****         return;
 194:..\lvgl\lv_core/lv_refr.c ****     }
 195:..\lvgl\lv_core/lv_refr.c **** 
 196:..\lvgl\lv_core/lv_refr.c ****     lv_refr_join_area();
 197:..\lvgl\lv_core/lv_refr.c **** 
 198:..\lvgl\lv_core/lv_refr.c ****     lv_refr_areas();
 199:..\lvgl\lv_core/lv_refr.c **** 
 200:..\lvgl\lv_core/lv_refr.c ****     /*If refresh happened ...*/
 201:..\lvgl\lv_core/lv_refr.c ****     if(inv_buf_p != 0) {
 202:..\lvgl\lv_core/lv_refr.c **** 
ARM GAS  C:\Users\d3bug\AppData\Local\Temp\ccH2B58W.s 			page 5


 203:..\lvgl\lv_core/lv_refr.c ****         /*In true double buffered mode copy the refreshed areas to the new VDB to keep it up to dat
 204:..\lvgl\lv_core/lv_refr.c **** #if LV_VDB_TRUE_DOUBLE_BUFFERED
 205:..\lvgl\lv_core/lv_refr.c ****         lv_vdb_t * vdb_p = lv_vdb_get();
 206:..\lvgl\lv_core/lv_refr.c ****         vdb_p->area.x1 = 0;
 207:..\lvgl\lv_core/lv_refr.c ****         vdb_p->area.x2 = LV_HOR_RES-1;
 208:..\lvgl\lv_core/lv_refr.c ****         vdb_p->area.y1 = 0;
 209:..\lvgl\lv_core/lv_refr.c ****         vdb_p->area.y2 = LV_VER_RES - 1;
 210:..\lvgl\lv_core/lv_refr.c **** 
 211:..\lvgl\lv_core/lv_refr.c ****         /*Flush the content of the VDB*/
 212:..\lvgl\lv_core/lv_refr.c ****         lv_vdb_flush();
 213:..\lvgl\lv_core/lv_refr.c **** 
 214:..\lvgl\lv_core/lv_refr.c ****         /* With true double buffering the flushing should be only the address change of the current
 215:..\lvgl\lv_core/lv_refr.c ****          * Wait until the address change is ready and copy the active content to the other frame bu
 216:..\lvgl\lv_core/lv_refr.c ****          * The changes will be written to the new VDB.*/
 217:..\lvgl\lv_core/lv_refr.c ****         lv_vdb_t * vdb_act = lv_vdb_get_active();
 218:..\lvgl\lv_core/lv_refr.c ****         lv_vdb_t * vdb_ina = lv_vdb_get_inactive();
 219:..\lvgl\lv_core/lv_refr.c **** 
 220:..\lvgl\lv_core/lv_refr.c ****         uint8_t * buf_act = (uint8_t *) vdb_act->buf;
 221:..\lvgl\lv_core/lv_refr.c ****         uint8_t * buf_ina = (uint8_t *) vdb_ina->buf;
 222:..\lvgl\lv_core/lv_refr.c **** 
 223:..\lvgl\lv_core/lv_refr.c ****         uint16_t a;
 224:..\lvgl\lv_core/lv_refr.c ****         for(a = 0; a < inv_buf_p; a++) {
 225:..\lvgl\lv_core/lv_refr.c ****             if(inv_buf[a].joined == 0) {
 226:..\lvgl\lv_core/lv_refr.c ****                 lv_coord_t y;
 227:..\lvgl\lv_core/lv_refr.c ****                 uint32_t start_offs = ((LV_HOR_RES * inv_buf[a].area.y1 + inv_buf[a].area.x1) * LV_
 228:..\lvgl\lv_core/lv_refr.c ****                 uint32_t line_length = (lv_area_get_width(&inv_buf[a].area) * LV_VDB_PX_BPP) >> 3;
 229:..\lvgl\lv_core/lv_refr.c **** 
 230:..\lvgl\lv_core/lv_refr.c ****                 for(y = inv_buf[a].area.y1; y <= inv_buf[a].area.y2; y++) {
 231:..\lvgl\lv_core/lv_refr.c ****                     memcpy(buf_act + start_offs, buf_ina + start_offs, line_length);
 232:..\lvgl\lv_core/lv_refr.c ****                     start_offs += (LV_HOR_RES * LV_VDB_PX_BPP) >> 3;
 233:..\lvgl\lv_core/lv_refr.c ****                 }
 234:..\lvgl\lv_core/lv_refr.c ****             }
 235:..\lvgl\lv_core/lv_refr.c ****         }
 236:..\lvgl\lv_core/lv_refr.c **** 
 237:..\lvgl\lv_core/lv_refr.c **** #endif
 238:..\lvgl\lv_core/lv_refr.c **** 
 239:..\lvgl\lv_core/lv_refr.c ****         /*Clean up*/
 240:..\lvgl\lv_core/lv_refr.c ****         memset(inv_buf, 0, sizeof(inv_buf));
 241:..\lvgl\lv_core/lv_refr.c ****         inv_buf_p = 0;
 242:..\lvgl\lv_core/lv_refr.c **** 
 243:..\lvgl\lv_core/lv_refr.c ****         /*Call monitor cb if present*/
 244:..\lvgl\lv_core/lv_refr.c ****         if(monitor_cb != NULL) {
 245:..\lvgl\lv_core/lv_refr.c ****             monitor_cb(lv_tick_elaps(start), px_num);
 246:..\lvgl\lv_core/lv_refr.c ****         }
 247:..\lvgl\lv_core/lv_refr.c ****     }
 248:..\lvgl\lv_core/lv_refr.c **** 
 249:..\lvgl\lv_core/lv_refr.c ****     LV_LOG_TRACE("display refresh task finished");
 250:..\lvgl\lv_core/lv_refr.c **** }
 251:..\lvgl\lv_core/lv_refr.c **** 
 252:..\lvgl\lv_core/lv_refr.c **** 
 253:..\lvgl\lv_core/lv_refr.c **** /**
 254:..\lvgl\lv_core/lv_refr.c ****  * Join the areas which has got common parts
 255:..\lvgl\lv_core/lv_refr.c ****  */
 256:..\lvgl\lv_core/lv_refr.c **** static void lv_refr_join_area(void)
 257:..\lvgl\lv_core/lv_refr.c **** {
  27              		.loc 1 257 0
  28              		.cfi_startproc
ARM GAS  C:\Users\d3bug\AppData\Local\Temp\ccH2B58W.s 			page 6


  29              		@ args = 0, pretend = 0, frame = 8
  30              		@ frame_needed = 0, uses_anonymous_args = 0
  31 0000 2DE9F04F 		push	{r4, r5, r6, r7, r8, r9, r10, fp, lr}
  32              		.cfi_def_cfa_offset 36
  33              		.cfi_offset 4, -36
  34              		.cfi_offset 5, -32
  35              		.cfi_offset 6, -28
  36              		.cfi_offset 7, -24
  37              		.cfi_offset 8, -20
  38              		.cfi_offset 9, -16
  39              		.cfi_offset 10, -12
  40              		.cfi_offset 11, -8
  41              		.cfi_offset 14, -4
  42 0004 83B0     		sub	sp, sp, #12
  43              		.cfi_def_cfa_offset 48
  44              	.LVL0:
 258:..\lvgl\lv_core/lv_refr.c ****     uint32_t join_from;
 259:..\lvgl\lv_core/lv_refr.c ****     uint32_t join_in;
 260:..\lvgl\lv_core/lv_refr.c ****     lv_area_t joined_area;
 261:..\lvgl\lv_core/lv_refr.c ****     for(join_in = 0; join_in < inv_buf_p; join_in++) {
  45              		.loc 1 261 0
  46 0006 0025     		movs	r5, #0
  47 0008 42E0     		b	.L2
  48              	.LVL1:
  49              	.L7:
 262:..\lvgl\lv_core/lv_refr.c ****         if(inv_buf[join_in].joined != 0) continue;
  50              		.loc 1 262 0
  51 000a 05EB8502 		add	r2, r5, r5, lsl #2
  52 000e 5300     		lsls	r3, r2, #1
  53 0010 234A     		ldr	r2, .L9
  54 0012 1344     		add	r3, r3, r2
  55 0014 1B7A     		ldrb	r3, [r3, #8]	@ zero_extendqisi2
  56 0016 D3BB     		cbnz	r3, .L3
  57 0018 0024     		movs	r4, #0
  58 001a 33E0     		b	.L4
  59              	.LVL2:
  60              	.L6:
 263:..\lvgl\lv_core/lv_refr.c **** 
 264:..\lvgl\lv_core/lv_refr.c ****         /*Check all areas to join them in 'join_in'*/
 265:..\lvgl\lv_core/lv_refr.c ****         for(join_from = 0; join_from < inv_buf_p; join_from++) {
 266:..\lvgl\lv_core/lv_refr.c ****             /*Handle only unjoined areas and ignore itself*/
 267:..\lvgl\lv_core/lv_refr.c ****             if(inv_buf[join_from].joined != 0 || join_in == join_from) {
  61              		.loc 1 267 0
  62 001c 04EB8402 		add	r2, r4, r4, lsl #2
  63 0020 5300     		lsls	r3, r2, #1
  64 0022 1F4A     		ldr	r2, .L9
  65 0024 1344     		add	r3, r3, r2
  66 0026 1B7A     		ldrb	r3, [r3, #8]	@ zero_extendqisi2
  67 0028 5BBB     		cbnz	r3, .L5
  68              		.loc 1 267 0 is_stmt 0 discriminator 1
  69 002a AC42     		cmp	r4, r5
  70 002c 29D0     		beq	.L5
 268:..\lvgl\lv_core/lv_refr.c ****                 continue;
 269:..\lvgl\lv_core/lv_refr.c ****             }
 270:..\lvgl\lv_core/lv_refr.c **** 
 271:..\lvgl\lv_core/lv_refr.c ****             /*Check if the areas are on each other*/
 272:..\lvgl\lv_core/lv_refr.c ****             if(lv_area_is_on(&inv_buf[join_in].area,
ARM GAS  C:\Users\d3bug\AppData\Local\Temp\ccH2B58W.s 			page 7


  71              		.loc 1 272 0 is_stmt 1
  72 002e 9046     		mov	r8, r2
  73 0030 05EB8503 		add	r3, r5, r5, lsl #2
  74 0034 5F00     		lsls	r7, r3, #1
  75 0036 02EB0709 		add	r9, r2, r7
 273:..\lvgl\lv_core/lv_refr.c ****                              &inv_buf[join_from].area) == false) {
  76              		.loc 1 273 0
  77 003a 04EB8403 		add	r3, r4, r4, lsl #2
  78 003e 5900     		lsls	r1, r3, #1
  79 0040 5618     		adds	r6, r2, r1
 272:..\lvgl\lv_core/lv_refr.c ****                              &inv_buf[join_from].area) == false) {
  80              		.loc 1 272 0
  81 0042 3146     		mov	r1, r6
  82 0044 4846     		mov	r0, r9
  83 0046 FFF7FEFF 		bl	lv_area_is_on
  84              	.LVL3:
  85 004a D0B1     		cbz	r0, .L5
 274:..\lvgl\lv_core/lv_refr.c ****                 continue;
 275:..\lvgl\lv_core/lv_refr.c ****             }
 276:..\lvgl\lv_core/lv_refr.c **** 
 277:..\lvgl\lv_core/lv_refr.c ****             lv_area_join(&joined_area, &inv_buf[join_in].area,
  86              		.loc 1 277 0
  87 004c 3246     		mov	r2, r6
  88 004e 4946     		mov	r1, r9
  89 0050 6846     		mov	r0, sp
  90 0052 FFF7FEFF 		bl	lv_area_join
  91              	.LVL4:
 278:..\lvgl\lv_core/lv_refr.c ****                          &inv_buf[join_from].area);
 279:..\lvgl\lv_core/lv_refr.c **** 
 280:..\lvgl\lv_core/lv_refr.c ****             /*Join two area only if the joined area size is smaller*/
 281:..\lvgl\lv_core/lv_refr.c ****             if(lv_area_get_size(&joined_area) <
  92              		.loc 1 281 0
  93 0056 6846     		mov	r0, sp
  94 0058 FFF7FEFF 		bl	lv_area_get_size
  95              	.LVL5:
  96 005c 8346     		mov	fp, r0
 282:..\lvgl\lv_core/lv_refr.c ****                     (lv_area_get_size(&inv_buf[join_in].area) + lv_area_get_size(&inv_buf[join_from
  97              		.loc 1 282 0
  98 005e 4846     		mov	r0, r9
  99 0060 FFF7FEFF 		bl	lv_area_get_size
 100              	.LVL6:
 101 0064 8246     		mov	r10, r0
 102 0066 3046     		mov	r0, r6
 103 0068 FFF7FEFF 		bl	lv_area_get_size
 104              	.LVL7:
 105 006c 5044     		add	r0, r0, r10
 281:..\lvgl\lv_core/lv_refr.c ****                     (lv_area_get_size(&inv_buf[join_in].area) + lv_area_get_size(&inv_buf[join_from
 106              		.loc 1 281 0
 107 006e 8345     		cmp	fp, r0
 108 0070 07D2     		bcs	.L5
 109              	.LVL8:
 110              	.LBB18:
 111              	.LBB19:
 112              		.file 2 "..\\lvgl\\lv_core\\../lv_misc/lv_area.h"
   1:..\lvgl\lv_core\../lv_misc/lv_area.h **** /**
   2:..\lvgl\lv_core\../lv_misc/lv_area.h ****  * @file lv_area.h
   3:..\lvgl\lv_core\../lv_misc/lv_area.h ****  *
ARM GAS  C:\Users\d3bug\AppData\Local\Temp\ccH2B58W.s 			page 8


   4:..\lvgl\lv_core\../lv_misc/lv_area.h ****  */
   5:..\lvgl\lv_core\../lv_misc/lv_area.h **** 
   6:..\lvgl\lv_core\../lv_misc/lv_area.h **** #ifndef LV_AREA_H
   7:..\lvgl\lv_core\../lv_misc/lv_area.h **** #define LV_AREA_H
   8:..\lvgl\lv_core\../lv_misc/lv_area.h **** 
   9:..\lvgl\lv_core\../lv_misc/lv_area.h **** #ifdef __cplusplus
  10:..\lvgl\lv_core\../lv_misc/lv_area.h **** extern "C" {
  11:..\lvgl\lv_core\../lv_misc/lv_area.h **** #endif
  12:..\lvgl\lv_core\../lv_misc/lv_area.h **** 
  13:..\lvgl\lv_core\../lv_misc/lv_area.h **** 
  14:..\lvgl\lv_core\../lv_misc/lv_area.h **** /*********************
  15:..\lvgl\lv_core\../lv_misc/lv_area.h ****  *      INCLUDES
  16:..\lvgl\lv_core\../lv_misc/lv_area.h ****  *********************/
  17:..\lvgl\lv_core\../lv_misc/lv_area.h **** #include <string.h>
  18:..\lvgl\lv_core\../lv_misc/lv_area.h **** #include <stdbool.h>
  19:..\lvgl\lv_core\../lv_misc/lv_area.h **** #include <stdint.h>
  20:..\lvgl\lv_core\../lv_misc/lv_area.h **** 
  21:..\lvgl\lv_core\../lv_misc/lv_area.h **** /*********************
  22:..\lvgl\lv_core\../lv_misc/lv_area.h ****  *      DEFINES
  23:..\lvgl\lv_core\../lv_misc/lv_area.h ****  *********************/
  24:..\lvgl\lv_core\../lv_misc/lv_area.h **** #define LV_COORD_MAX     (16383)    /*To avoid overflow don't let the max [-32,32k] range */
  25:..\lvgl\lv_core\../lv_misc/lv_area.h **** #define LV_COORD_MIN     (-16384)
  26:..\lvgl\lv_core\../lv_misc/lv_area.h **** 
  27:..\lvgl\lv_core\../lv_misc/lv_area.h **** /**********************
  28:..\lvgl\lv_core\../lv_misc/lv_area.h ****  *      TYPEDEFS
  29:..\lvgl\lv_core\../lv_misc/lv_area.h ****  **********************/
  30:..\lvgl\lv_core\../lv_misc/lv_area.h **** typedef int16_t lv_coord_t;
  31:..\lvgl\lv_core\../lv_misc/lv_area.h **** 
  32:..\lvgl\lv_core\../lv_misc/lv_area.h **** typedef struct
  33:..\lvgl\lv_core\../lv_misc/lv_area.h **** {
  34:..\lvgl\lv_core\../lv_misc/lv_area.h ****     lv_coord_t x;
  35:..\lvgl\lv_core\../lv_misc/lv_area.h ****     lv_coord_t y;
  36:..\lvgl\lv_core\../lv_misc/lv_area.h **** } lv_point_t;
  37:..\lvgl\lv_core\../lv_misc/lv_area.h **** 
  38:..\lvgl\lv_core\../lv_misc/lv_area.h **** typedef struct
  39:..\lvgl\lv_core\../lv_misc/lv_area.h **** {
  40:..\lvgl\lv_core\../lv_misc/lv_area.h ****     lv_coord_t x1;
  41:..\lvgl\lv_core\../lv_misc/lv_area.h ****     lv_coord_t y1;
  42:..\lvgl\lv_core\../lv_misc/lv_area.h ****     lv_coord_t x2;
  43:..\lvgl\lv_core\../lv_misc/lv_area.h ****     lv_coord_t y2;
  44:..\lvgl\lv_core\../lv_misc/lv_area.h **** } lv_area_t;
  45:..\lvgl\lv_core\../lv_misc/lv_area.h **** 
  46:..\lvgl\lv_core\../lv_misc/lv_area.h **** /**********************
  47:..\lvgl\lv_core\../lv_misc/lv_area.h ****  * GLOBAL PROTOTYPES
  48:..\lvgl\lv_core\../lv_misc/lv_area.h ****  **********************/
  49:..\lvgl\lv_core\../lv_misc/lv_area.h **** 
  50:..\lvgl\lv_core\../lv_misc/lv_area.h **** /**
  51:..\lvgl\lv_core\../lv_misc/lv_area.h ****  * Initialize an area
  52:..\lvgl\lv_core\../lv_misc/lv_area.h ****  * @param area_p pointer to an area
  53:..\lvgl\lv_core\../lv_misc/lv_area.h ****  * @param x1 left coordinate of the area
  54:..\lvgl\lv_core\../lv_misc/lv_area.h ****  * @param y1 top coordinate of the area
  55:..\lvgl\lv_core\../lv_misc/lv_area.h ****  * @param x2 right coordinate of the area
  56:..\lvgl\lv_core\../lv_misc/lv_area.h ****  * @param y2 bottom coordinate of the area
  57:..\lvgl\lv_core\../lv_misc/lv_area.h ****  */
  58:..\lvgl\lv_core\../lv_misc/lv_area.h **** void lv_area_set(lv_area_t * area_p, lv_coord_t x1, lv_coord_t y1, lv_coord_t x2, lv_coord_t y2);
  59:..\lvgl\lv_core\../lv_misc/lv_area.h **** 
  60:..\lvgl\lv_core\../lv_misc/lv_area.h **** /**
ARM GAS  C:\Users\d3bug\AppData\Local\Temp\ccH2B58W.s 			page 9


  61:..\lvgl\lv_core\../lv_misc/lv_area.h ****  * Copy an area
  62:..\lvgl\lv_core\../lv_misc/lv_area.h ****  * @param dest pointer to the destination area
  63:..\lvgl\lv_core\../lv_misc/lv_area.h ****  * @param src pointer to the source area
  64:..\lvgl\lv_core\../lv_misc/lv_area.h ****  */
  65:..\lvgl\lv_core\../lv_misc/lv_area.h **** inline static void lv_area_copy(lv_area_t * dest, const lv_area_t * src)
  66:..\lvgl\lv_core\../lv_misc/lv_area.h **** {
  67:..\lvgl\lv_core\../lv_misc/lv_area.h ****     memcpy(dest, src, sizeof(lv_area_t));
 113              		.loc 2 67 0
 114 0072 6B46     		mov	r3, sp
 115 0074 03CB     		ldmia	r3!, {r0, r1}
 116 0076 48F80700 		str	r0, [r8, r7]	@ unaligned
 117 007a C9F80410 		str	r1, [r9, #4]	@ unaligned
 118              	.LVL9:
 119              	.LBE19:
 120              	.LBE18:
 283:..\lvgl\lv_core/lv_refr.c ****                 lv_area_copy(&inv_buf[join_in].area, &joined_area);
 284:..\lvgl\lv_core/lv_refr.c **** 
 285:..\lvgl\lv_core/lv_refr.c ****                 /*Mark 'join_form' is joined into 'join_in'*/
 286:..\lvgl\lv_core/lv_refr.c ****                 inv_buf[join_from].joined = 1;
 121              		.loc 1 286 0
 122 007e 0122     		movs	r2, #1
 123 0080 3272     		strb	r2, [r6, #8]
 124              	.L5:
 265:..\lvgl\lv_core/lv_refr.c ****             /*Handle only unjoined areas and ignore itself*/
 125              		.loc 1 265 0 discriminator 2
 126 0082 0134     		adds	r4, r4, #1
 127              	.LVL10:
 128              	.L4:
 265:..\lvgl\lv_core/lv_refr.c ****             /*Handle only unjoined areas and ignore itself*/
 129              		.loc 1 265 0 is_stmt 0 discriminator 1
 130 0084 064B     		ldr	r3, .L9
 131 0086 B3F84031 		ldrh	r3, [r3, #320]
 132 008a 9C42     		cmp	r4, r3
 133 008c C6D3     		bcc	.L6
 134              	.LVL11:
 135              	.L3:
 261:..\lvgl\lv_core/lv_refr.c ****         if(inv_buf[join_in].joined != 0) continue;
 136              		.loc 1 261 0 is_stmt 1 discriminator 2
 137 008e 0135     		adds	r5, r5, #1
 138              	.LVL12:
 139              	.L2:
 261:..\lvgl\lv_core/lv_refr.c ****         if(inv_buf[join_in].joined != 0) continue;
 140              		.loc 1 261 0 is_stmt 0 discriminator 1
 141 0090 034B     		ldr	r3, .L9
 142 0092 B3F84031 		ldrh	r3, [r3, #320]
 143 0096 9D42     		cmp	r5, r3
 144 0098 B7D3     		bcc	.L7
 287:..\lvgl\lv_core/lv_refr.c ****             }
 288:..\lvgl\lv_core/lv_refr.c ****         }
 289:..\lvgl\lv_core/lv_refr.c ****     }
 290:..\lvgl\lv_core/lv_refr.c **** }
 145              		.loc 1 290 0 is_stmt 1
 146 009a 03B0     		add	sp, sp, #12
 147              		.cfi_def_cfa_offset 36
 148              		@ sp needed
 149 009c BDE8F08F 		pop	{r4, r5, r6, r7, r8, r9, r10, fp, pc}
 150              	.LVL13:
ARM GAS  C:\Users\d3bug\AppData\Local\Temp\ccH2B58W.s 			page 10


 151              	.L10:
 152              		.align	2
 153              	.L9:
 154 00a0 00000000 		.word	.LANCHOR0
 155              		.cfi_endproc
 156              	.LFE20:
 157              		.size	lv_refr_join_area, .-lv_refr_join_area
 158              		.section	.text.lv_refr_get_top_obj,"ax",%progbits
 159              		.align	2
 160              		.thumb
 161              		.thumb_func
 162              		.type	lv_refr_get_top_obj, %function
 163              	lv_refr_get_top_obj:
 164              	.LFB24:
 291:..\lvgl\lv_core/lv_refr.c **** 
 292:..\lvgl\lv_core/lv_refr.c **** /**
 293:..\lvgl\lv_core/lv_refr.c ****  * Refresh the joined areas
 294:..\lvgl\lv_core/lv_refr.c ****  */
 295:..\lvgl\lv_core/lv_refr.c **** static void lv_refr_areas(void)
 296:..\lvgl\lv_core/lv_refr.c **** {
 297:..\lvgl\lv_core/lv_refr.c ****     px_num = 0;
 298:..\lvgl\lv_core/lv_refr.c ****     uint32_t i;
 299:..\lvgl\lv_core/lv_refr.c **** 
 300:..\lvgl\lv_core/lv_refr.c ****     for(i = 0; i < inv_buf_p; i++) {
 301:..\lvgl\lv_core/lv_refr.c ****         /*Refresh the unjoined areas*/
 302:..\lvgl\lv_core/lv_refr.c ****         if(inv_buf[i].joined == 0) {
 303:..\lvgl\lv_core/lv_refr.c ****             /*If there is no VDB do simple drawing*/
 304:..\lvgl\lv_core/lv_refr.c **** #if LV_VDB_SIZE == 0
 305:..\lvgl\lv_core/lv_refr.c ****             lv_refr_area_no_vdb(&inv_buf[i].area);
 306:..\lvgl\lv_core/lv_refr.c **** #else
 307:..\lvgl\lv_core/lv_refr.c ****             /*If VDB is used...*/
 308:..\lvgl\lv_core/lv_refr.c ****             lv_refr_area_with_vdb(&inv_buf[i].area);
 309:..\lvgl\lv_core/lv_refr.c **** #endif
 310:..\lvgl\lv_core/lv_refr.c ****             if(monitor_cb != NULL) px_num += lv_area_get_size(&inv_buf[i].area);
 311:..\lvgl\lv_core/lv_refr.c ****         }
 312:..\lvgl\lv_core/lv_refr.c ****     }
 313:..\lvgl\lv_core/lv_refr.c **** 
 314:..\lvgl\lv_core/lv_refr.c **** }
 315:..\lvgl\lv_core/lv_refr.c **** 
 316:..\lvgl\lv_core/lv_refr.c **** #if LV_VDB_SIZE == 0
 317:..\lvgl\lv_core/lv_refr.c **** /**
 318:..\lvgl\lv_core/lv_refr.c ****  * Refresh an area if there is no Virtual Display Buffer
 319:..\lvgl\lv_core/lv_refr.c ****  * @param area_p pointer to an area to refresh
 320:..\lvgl\lv_core/lv_refr.c ****  */
 321:..\lvgl\lv_core/lv_refr.c **** static void lv_refr_area_no_vdb(const lv_area_t * area_p)
 322:..\lvgl\lv_core/lv_refr.c **** {
 323:..\lvgl\lv_core/lv_refr.c ****     lv_obj_t * top_p;
 324:..\lvgl\lv_core/lv_refr.c **** 
 325:..\lvgl\lv_core/lv_refr.c ****     /*Get top object which is not covered by others*/
 326:..\lvgl\lv_core/lv_refr.c ****     top_p = lv_refr_get_top_obj(area_p, lv_scr_act());
 327:..\lvgl\lv_core/lv_refr.c **** 
 328:..\lvgl\lv_core/lv_refr.c ****     /*Do the refreshing*/
 329:..\lvgl\lv_core/lv_refr.c ****     lv_refr_obj_and_children(top_p, area_p);
 330:..\lvgl\lv_core/lv_refr.c **** 
 331:..\lvgl\lv_core/lv_refr.c ****     /*Also refresh top and sys layer unconditionally*/
 332:..\lvgl\lv_core/lv_refr.c ****     lv_refr_obj_and_children(lv_layer_top(), area_p);
 333:..\lvgl\lv_core/lv_refr.c ****     lv_refr_obj_and_children(lv_layer_sys(), area_p);
ARM GAS  C:\Users\d3bug\AppData\Local\Temp\ccH2B58W.s 			page 11


 334:..\lvgl\lv_core/lv_refr.c **** }
 335:..\lvgl\lv_core/lv_refr.c **** 
 336:..\lvgl\lv_core/lv_refr.c **** #else
 337:..\lvgl\lv_core/lv_refr.c **** 
 338:..\lvgl\lv_core/lv_refr.c **** /**
 339:..\lvgl\lv_core/lv_refr.c ****  * Refresh an area if there is Virtual Display Buffer
 340:..\lvgl\lv_core/lv_refr.c ****  * @param area_p  pointer to an area to refresh
 341:..\lvgl\lv_core/lv_refr.c ****  */
 342:..\lvgl\lv_core/lv_refr.c **** static void lv_refr_area_with_vdb(const lv_area_t * area_p)
 343:..\lvgl\lv_core/lv_refr.c **** {
 344:..\lvgl\lv_core/lv_refr.c **** 
 345:..\lvgl\lv_core/lv_refr.c **** #if LV_VDB_TRUE_DOUBLE_BUFFERED == 0
 346:..\lvgl\lv_core/lv_refr.c ****     /*Calculate the max row num*/
 347:..\lvgl\lv_core/lv_refr.c ****     lv_coord_t w = lv_area_get_width(area_p);
 348:..\lvgl\lv_core/lv_refr.c ****     lv_coord_t h = lv_area_get_height(area_p);
 349:..\lvgl\lv_core/lv_refr.c ****     lv_coord_t y2 = area_p->y2 >= LV_VER_RES ? y2 = LV_VER_RES - 1 : area_p->y2;
 350:..\lvgl\lv_core/lv_refr.c **** 
 351:..\lvgl\lv_core/lv_refr.c ****     int32_t max_row = (uint32_t) LV_VDB_SIZE / w;
 352:..\lvgl\lv_core/lv_refr.c **** 
 353:..\lvgl\lv_core/lv_refr.c ****     if(max_row > h) max_row = h;
 354:..\lvgl\lv_core/lv_refr.c **** 
 355:..\lvgl\lv_core/lv_refr.c **** 
 356:..\lvgl\lv_core/lv_refr.c ****     /*Round down the lines of VDB if rounding is added*/
 357:..\lvgl\lv_core/lv_refr.c ****     if(round_cb) {
 358:..\lvgl\lv_core/lv_refr.c ****         lv_area_t tmp;
 359:..\lvgl\lv_core/lv_refr.c ****         tmp.x1 = 0;
 360:..\lvgl\lv_core/lv_refr.c ****         tmp.x2 = 0;
 361:..\lvgl\lv_core/lv_refr.c ****         tmp.y1 = 0;
 362:..\lvgl\lv_core/lv_refr.c ****         tmp.y2 = max_row;
 363:..\lvgl\lv_core/lv_refr.c **** 
 364:..\lvgl\lv_core/lv_refr.c ****         lv_coord_t y_tmp = max_row;
 365:..\lvgl\lv_core/lv_refr.c ****         do {
 366:..\lvgl\lv_core/lv_refr.c ****             tmp.y2 = y_tmp;
 367:..\lvgl\lv_core/lv_refr.c ****             round_cb(&tmp);
 368:..\lvgl\lv_core/lv_refr.c ****             y_tmp --;       /*Decrement the number of line until it is rounded to a smaller (or equ
 369:..\lvgl\lv_core/lv_refr.c ****         } while(lv_area_get_height(&tmp) > max_row && y_tmp != 0);
 370:..\lvgl\lv_core/lv_refr.c **** 
 371:..\lvgl\lv_core/lv_refr.c ****         if(y_tmp == 0) {
 372:..\lvgl\lv_core/lv_refr.c ****             LV_LOG_WARN("Can't set VDB height using the round function. (Wrong round_cb or to small
 373:..\lvgl\lv_core/lv_refr.c ****             return;
 374:..\lvgl\lv_core/lv_refr.c ****         } else {
 375:..\lvgl\lv_core/lv_refr.c ****             max_row = tmp.y2 + 1;
 376:..\lvgl\lv_core/lv_refr.c ****         }
 377:..\lvgl\lv_core/lv_refr.c ****     }
 378:..\lvgl\lv_core/lv_refr.c **** 
 379:..\lvgl\lv_core/lv_refr.c ****     /*Always use the full row*/
 380:..\lvgl\lv_core/lv_refr.c ****     lv_coord_t row;
 381:..\lvgl\lv_core/lv_refr.c ****     lv_coord_t row_last = 0;
 382:..\lvgl\lv_core/lv_refr.c ****     for(row = area_p->y1; row  + max_row - 1 <= y2; row += max_row)  {
 383:..\lvgl\lv_core/lv_refr.c ****         lv_vdb_t * vdb_p = lv_vdb_get();
 384:..\lvgl\lv_core/lv_refr.c ****         if(!vdb_p) {
 385:..\lvgl\lv_core/lv_refr.c ****             LV_LOG_WARN("Invalid VDB pointer");
 386:..\lvgl\lv_core/lv_refr.c ****             return;
 387:..\lvgl\lv_core/lv_refr.c ****         }
 388:..\lvgl\lv_core/lv_refr.c **** 
 389:..\lvgl\lv_core/lv_refr.c ****         /*Calc. the next y coordinates of VDB*/
 390:..\lvgl\lv_core/lv_refr.c ****         vdb_p->area.x1 = area_p->x1;
ARM GAS  C:\Users\d3bug\AppData\Local\Temp\ccH2B58W.s 			page 12


 391:..\lvgl\lv_core/lv_refr.c ****         vdb_p->area.x2 = area_p->x2;
 392:..\lvgl\lv_core/lv_refr.c ****         vdb_p->area.y1 = row;
 393:..\lvgl\lv_core/lv_refr.c ****         vdb_p->area.y2 = row + max_row - 1;
 394:..\lvgl\lv_core/lv_refr.c ****         if(vdb_p->area.y2 > y2) vdb_p->area.y2 = y2;
 395:..\lvgl\lv_core/lv_refr.c ****         row_last = vdb_p->area.y2;
 396:..\lvgl\lv_core/lv_refr.c ****         lv_refr_area_part_vdb(area_p);
 397:..\lvgl\lv_core/lv_refr.c ****     }
 398:..\lvgl\lv_core/lv_refr.c **** 
 399:..\lvgl\lv_core/lv_refr.c ****     /*If the last y coordinates are not handled yet ...*/
 400:..\lvgl\lv_core/lv_refr.c ****     if(y2 != row_last) {
 401:..\lvgl\lv_core/lv_refr.c ****         lv_vdb_t * vdb_p = lv_vdb_get();
 402:..\lvgl\lv_core/lv_refr.c ****         if(!vdb_p) {
 403:..\lvgl\lv_core/lv_refr.c ****             LV_LOG_WARN("Invalid VDB pointer");
 404:..\lvgl\lv_core/lv_refr.c ****             return;
 405:..\lvgl\lv_core/lv_refr.c ****         }
 406:..\lvgl\lv_core/lv_refr.c **** 
 407:..\lvgl\lv_core/lv_refr.c ****         /*Calc. the next y coordinates of VDB*/
 408:..\lvgl\lv_core/lv_refr.c ****         vdb_p->area.x1 = area_p->x1;
 409:..\lvgl\lv_core/lv_refr.c ****         vdb_p->area.x2 = area_p->x2;
 410:..\lvgl\lv_core/lv_refr.c ****         vdb_p->area.y1 = row;
 411:..\lvgl\lv_core/lv_refr.c ****         vdb_p->area.y2 = y2;
 412:..\lvgl\lv_core/lv_refr.c **** 
 413:..\lvgl\lv_core/lv_refr.c ****         /*Refresh this part too*/
 414:..\lvgl\lv_core/lv_refr.c ****         lv_refr_area_part_vdb(area_p);
 415:..\lvgl\lv_core/lv_refr.c ****     }
 416:..\lvgl\lv_core/lv_refr.c **** #else
 417:..\lvgl\lv_core/lv_refr.c ****     lv_vdb_t * vdb_p = lv_vdb_get();
 418:..\lvgl\lv_core/lv_refr.c ****     vdb_p->area.x1 = 0;
 419:..\lvgl\lv_core/lv_refr.c ****     vdb_p->area.x2 = LV_HOR_RES-1;
 420:..\lvgl\lv_core/lv_refr.c ****     vdb_p->area.y1 = 0;
 421:..\lvgl\lv_core/lv_refr.c ****     vdb_p->area.y2 = LV_VER_RES - 1;
 422:..\lvgl\lv_core/lv_refr.c ****     lv_refr_area_part_vdb(area_p);
 423:..\lvgl\lv_core/lv_refr.c **** #endif
 424:..\lvgl\lv_core/lv_refr.c **** }
 425:..\lvgl\lv_core/lv_refr.c **** 
 426:..\lvgl\lv_core/lv_refr.c **** /**
 427:..\lvgl\lv_core/lv_refr.c ****  * Refresh a part of an area which is on the actual Virtual Display Buffer
 428:..\lvgl\lv_core/lv_refr.c ****  * @param area_p pointer to an area to refresh
 429:..\lvgl\lv_core/lv_refr.c ****  */
 430:..\lvgl\lv_core/lv_refr.c **** static void lv_refr_area_part_vdb(const lv_area_t * area_p)
 431:..\lvgl\lv_core/lv_refr.c **** {
 432:..\lvgl\lv_core/lv_refr.c ****     lv_vdb_t * vdb_p = lv_vdb_get();
 433:..\lvgl\lv_core/lv_refr.c ****     if(!vdb_p) {
 434:..\lvgl\lv_core/lv_refr.c ****         LV_LOG_WARN("Invalid VDB pointer");
 435:..\lvgl\lv_core/lv_refr.c ****         return;
 436:..\lvgl\lv_core/lv_refr.c ****     }
 437:..\lvgl\lv_core/lv_refr.c ****     lv_obj_t * top_p;
 438:..\lvgl\lv_core/lv_refr.c **** 
 439:..\lvgl\lv_core/lv_refr.c ****     /*Get the new mask from the original area and the act. VDB
 440:..\lvgl\lv_core/lv_refr.c ****      It will be a part of 'area_p'*/
 441:..\lvgl\lv_core/lv_refr.c ****     lv_area_t start_mask;
 442:..\lvgl\lv_core/lv_refr.c ****     lv_area_intersect(&start_mask, area_p, &vdb_p->area);
 443:..\lvgl\lv_core/lv_refr.c **** 
 444:..\lvgl\lv_core/lv_refr.c ****     /*Get the most top object which is not covered by others*/
 445:..\lvgl\lv_core/lv_refr.c ****     top_p = lv_refr_get_top_obj(&start_mask, lv_scr_act());
 446:..\lvgl\lv_core/lv_refr.c **** 
 447:..\lvgl\lv_core/lv_refr.c ****     /*Do the refreshing from the top object*/
ARM GAS  C:\Users\d3bug\AppData\Local\Temp\ccH2B58W.s 			page 13


 448:..\lvgl\lv_core/lv_refr.c ****     lv_refr_obj_and_children(top_p, &start_mask);
 449:..\lvgl\lv_core/lv_refr.c **** 
 450:..\lvgl\lv_core/lv_refr.c ****     /*Also refresh top and sys layer unconditionally*/
 451:..\lvgl\lv_core/lv_refr.c ****     lv_refr_obj_and_children(lv_layer_top(), &start_mask);
 452:..\lvgl\lv_core/lv_refr.c ****     lv_refr_obj_and_children(lv_layer_sys(), &start_mask);
 453:..\lvgl\lv_core/lv_refr.c **** 
 454:..\lvgl\lv_core/lv_refr.c ****     /* In true double buffered mode flush only once when all areas were rendered.
 455:..\lvgl\lv_core/lv_refr.c ****      * In normal mode flush after every area */
 456:..\lvgl\lv_core/lv_refr.c **** #if LV_VDB_TRUE_DOUBLE_BUFFERED == 0
 457:..\lvgl\lv_core/lv_refr.c ****     /*Flush the content of the VDB*/
 458:..\lvgl\lv_core/lv_refr.c ****     lv_vdb_flush();
 459:..\lvgl\lv_core/lv_refr.c **** #endif
 460:..\lvgl\lv_core/lv_refr.c **** }
 461:..\lvgl\lv_core/lv_refr.c **** 
 462:..\lvgl\lv_core/lv_refr.c **** #endif /*LV_VDB_SIZE == 0*/
 463:..\lvgl\lv_core/lv_refr.c **** 
 464:..\lvgl\lv_core/lv_refr.c **** /**
 465:..\lvgl\lv_core/lv_refr.c ****  * Search the most top object which fully covers an area
 466:..\lvgl\lv_core/lv_refr.c ****  * @param area_p pointer to an area
 467:..\lvgl\lv_core/lv_refr.c ****  * @param obj the first object to start the searching (typically a screen)
 468:..\lvgl\lv_core/lv_refr.c ****  * @return
 469:..\lvgl\lv_core/lv_refr.c ****  */
 470:..\lvgl\lv_core/lv_refr.c **** static lv_obj_t * lv_refr_get_top_obj(const lv_area_t * area_p, lv_obj_t * obj)
 471:..\lvgl\lv_core/lv_refr.c **** {
 165              		.loc 1 471 0
 166              		.cfi_startproc
 167              		@ args = 0, pretend = 0, frame = 0
 168              		@ frame_needed = 0, uses_anonymous_args = 0
 169              	.LVL14:
 170 0000 2DE9F041 		push	{r4, r5, r6, r7, r8, lr}
 171              		.cfi_def_cfa_offset 24
 172              		.cfi_offset 4, -24
 173              		.cfi_offset 5, -20
 174              		.cfi_offset 6, -16
 175              		.cfi_offset 7, -12
 176              		.cfi_offset 8, -8
 177              		.cfi_offset 14, -4
 178 0004 0746     		mov	r7, r0
 179 0006 8846     		mov	r8, r1
 180              	.LVL15:
 472:..\lvgl\lv_core/lv_refr.c ****     lv_obj_t * i;
 473:..\lvgl\lv_core/lv_refr.c ****     lv_obj_t * found_p = NULL;
 474:..\lvgl\lv_core/lv_refr.c **** 
 475:..\lvgl\lv_core/lv_refr.c ****     /*If this object is fully cover the draw area check the children too */
 476:..\lvgl\lv_core/lv_refr.c ****     if(lv_area_is_in(area_p, &obj->coords) && obj->hidden == 0) {
 181              		.loc 1 476 0
 182 0008 1031     		adds	r1, r1, #16
 183              	.LVL16:
 184 000a FFF7FEFF 		bl	lv_area_is_in
 185              	.LVL17:
 186 000e 68B3     		cbz	r0, .L16
 187              		.loc 1 476 0 is_stmt 0 discriminator 1
 188 0010 98F82C30 		ldrb	r3, [r8, #44]	@ zero_extendqisi2
 189 0014 13F0100F 		tst	r3, #16
 190 0018 2AD1     		bne	.L17
 477:..\lvgl\lv_core/lv_refr.c ****         LL_READ(obj->child_ll, i)        {
 191              		.loc 1 477 0 is_stmt 1
ARM GAS  C:\Users\d3bug\AppData\Local\Temp\ccH2B58W.s 			page 14


 192 001a 08F10406 		add	r6, r8, #4
 193 001e 3046     		mov	r0, r6
 194 0020 FFF7FEFF 		bl	lv_ll_get_head
 195              	.LVL18:
 196 0024 0446     		mov	r4, r0
 197              	.LVL19:
 473:..\lvgl\lv_core/lv_refr.c **** 
 198              		.loc 1 473 0
 199 0026 0025     		movs	r5, #0
 200              		.loc 1 477 0
 201 0028 0AE0     		b	.L13
 202              	.LVL20:
 203              	.L15:
 478:..\lvgl\lv_core/lv_refr.c ****             found_p = lv_refr_get_top_obj(area_p, i);
 204              		.loc 1 478 0
 205 002a 2146     		mov	r1, r4
 206 002c 3846     		mov	r0, r7
 207              	.LVL21:
 208 002e FFF7E7FF 		bl	lv_refr_get_top_obj
 209              	.LVL22:
 479:..\lvgl\lv_core/lv_refr.c **** 
 480:..\lvgl\lv_core/lv_refr.c ****             /*If a children is ok then break*/
 481:..\lvgl\lv_core/lv_refr.c ****             if(found_p != NULL) {
 210              		.loc 1 481 0
 211 0032 0546     		mov	r5, r0
 212 0034 30B9     		cbnz	r0, .L14
 477:..\lvgl\lv_core/lv_refr.c ****             found_p = lv_refr_get_top_obj(area_p, i);
 213              		.loc 1 477 0 discriminator 2
 214 0036 2146     		mov	r1, r4
 215 0038 3046     		mov	r0, r6
 216              	.LVL23:
 217 003a FFF7FEFF 		bl	lv_ll_get_next
 218              	.LVL24:
 219 003e 0446     		mov	r4, r0
 220              	.LVL25:
 221              	.L13:
 477:..\lvgl\lv_core/lv_refr.c ****             found_p = lv_refr_get_top_obj(area_p, i);
 222              		.loc 1 477 0 is_stmt 0 discriminator 1
 223 0040 002C     		cmp	r4, #0
 224 0042 F2D1     		bne	.L15
 225              	.LVL26:
 226              	.L14:
 482:..\lvgl\lv_core/lv_refr.c ****                 break;
 483:..\lvgl\lv_core/lv_refr.c ****             }
 484:..\lvgl\lv_core/lv_refr.c ****         }
 485:..\lvgl\lv_core/lv_refr.c **** 
 486:..\lvgl\lv_core/lv_refr.c ****         /*If no better children check this object*/
 487:..\lvgl\lv_core/lv_refr.c ****         if(found_p == NULL) {
 227              		.loc 1 487 0 is_stmt 1
 228 0044 BDB9     		cbnz	r5, .L12
 229              	.LBB20:
 488:..\lvgl\lv_core/lv_refr.c ****             lv_style_t * style = lv_obj_get_style(obj);
 230              		.loc 1 488 0
 231 0046 4046     		mov	r0, r8
 232 0048 FFF7FEFF 		bl	lv_obj_get_style
 233              	.LVL27:
 489:..\lvgl\lv_core/lv_refr.c ****             if(style->body.opa == LV_OPA_COVER &&
ARM GAS  C:\Users\d3bug\AppData\Local\Temp\ccH2B58W.s 			page 15


 234              		.loc 1 489 0
 235 004c 8379     		ldrb	r3, [r0, #6]	@ zero_extendqisi2
 236 004e FF2B     		cmp	r3, #255
 237 0050 11D1     		bne	.L12
 490:..\lvgl\lv_core/lv_refr.c ****                     obj->design_func(obj, area_p, LV_DESIGN_COVER_CHK) != false &&
 238              		.loc 1 490 0 discriminator 1
 239 0052 D8F81C30 		ldr	r3, [r8, #28]
 240 0056 0222     		movs	r2, #2
 241 0058 3946     		mov	r1, r7
 242 005a 4046     		mov	r0, r8
 243              	.LVL28:
 244 005c 9847     		blx	r3
 245              	.LVL29:
 489:..\lvgl\lv_core/lv_refr.c ****             if(style->body.opa == LV_OPA_COVER &&
 246              		.loc 1 489 0 discriminator 1
 247 005e 50B1     		cbz	r0, .L12
 491:..\lvgl\lv_core/lv_refr.c ****                     lv_obj_get_opa_scale(obj) == LV_OPA_COVER) {
 248              		.loc 1 491 0
 249 0060 4046     		mov	r0, r8
 250 0062 FFF7FEFF 		bl	lv_obj_get_opa_scale
 251              	.LVL30:
 490:..\lvgl\lv_core/lv_refr.c ****                     obj->design_func(obj, area_p, LV_DESIGN_COVER_CHK) != false &&
 252              		.loc 1 490 0
 253 0066 FF28     		cmp	r0, #255
 254 0068 05D1     		bne	.L12
 255 006a 03E0     		b	.L18
 256              	.LVL31:
 257              	.L16:
 258              	.LBE20:
 473:..\lvgl\lv_core/lv_refr.c **** 
 259              		.loc 1 473 0
 260 006c 0025     		movs	r5, #0
 261 006e 02E0     		b	.L12
 262              	.L17:
 263 0070 0025     		movs	r5, #0
 264 0072 00E0     		b	.L12
 265              	.LVL32:
 266              	.L18:
 267              	.LBB21:
 492:..\lvgl\lv_core/lv_refr.c ****                 found_p = obj;
 268              		.loc 1 492 0
 269 0074 4546     		mov	r5, r8
 270              	.LVL33:
 271              	.L12:
 272              	.LBE21:
 493:..\lvgl\lv_core/lv_refr.c ****             }
 494:..\lvgl\lv_core/lv_refr.c ****         }
 495:..\lvgl\lv_core/lv_refr.c ****     }
 496:..\lvgl\lv_core/lv_refr.c **** 
 497:..\lvgl\lv_core/lv_refr.c ****     return found_p;
 498:..\lvgl\lv_core/lv_refr.c **** }
 273              		.loc 1 498 0
 274 0076 2846     		mov	r0, r5
 275 0078 BDE8F081 		pop	{r4, r5, r6, r7, r8, pc}
 276              		.cfi_endproc
 277              	.LFE24:
 278              		.size	lv_refr_get_top_obj, .-lv_refr_get_top_obj
ARM GAS  C:\Users\d3bug\AppData\Local\Temp\ccH2B58W.s 			page 16


 279              		.section	.text.lv_refr_obj,"ax",%progbits
 280              		.align	2
 281              		.thumb
 282              		.thumb_func
 283              		.type	lv_refr_obj, %function
 284              	lv_refr_obj:
 285              	.LFB26:
 499:..\lvgl\lv_core/lv_refr.c **** 
 500:..\lvgl\lv_core/lv_refr.c **** /**
 501:..\lvgl\lv_core/lv_refr.c ****  * Make the refreshing from an object. Draw all its children and the youngers too.
 502:..\lvgl\lv_core/lv_refr.c ****  * @param top_p pointer to an objects. Start the drawing from it.
 503:..\lvgl\lv_core/lv_refr.c ****  * @param mask_p pointer to an area, the objects will be drawn only here
 504:..\lvgl\lv_core/lv_refr.c ****  */
 505:..\lvgl\lv_core/lv_refr.c **** static void lv_refr_obj_and_children(lv_obj_t * top_p, const lv_area_t * mask_p)
 506:..\lvgl\lv_core/lv_refr.c **** {
 507:..\lvgl\lv_core/lv_refr.c ****     /* Normally always will be a top_obj (at least the screen)
 508:..\lvgl\lv_core/lv_refr.c ****      * but in special cases (e.g. if the screen has alpha) it won't.
 509:..\lvgl\lv_core/lv_refr.c ****      * In this case use the screen directly */
 510:..\lvgl\lv_core/lv_refr.c ****     if(top_p == NULL) top_p = lv_scr_act();
 511:..\lvgl\lv_core/lv_refr.c **** 
 512:..\lvgl\lv_core/lv_refr.c ****     /*Refresh the top object and its children*/
 513:..\lvgl\lv_core/lv_refr.c ****     lv_refr_obj(top_p, mask_p);
 514:..\lvgl\lv_core/lv_refr.c **** 
 515:..\lvgl\lv_core/lv_refr.c ****     /*Draw the 'younger' sibling objects because they can be on top_obj */
 516:..\lvgl\lv_core/lv_refr.c ****     lv_obj_t * par;
 517:..\lvgl\lv_core/lv_refr.c ****     lv_obj_t * i;
 518:..\lvgl\lv_core/lv_refr.c ****     lv_obj_t * border_p = top_p;
 519:..\lvgl\lv_core/lv_refr.c **** 
 520:..\lvgl\lv_core/lv_refr.c ****     par = lv_obj_get_parent(top_p);
 521:..\lvgl\lv_core/lv_refr.c **** 
 522:..\lvgl\lv_core/lv_refr.c ****     /*Do until not reach the screen*/
 523:..\lvgl\lv_core/lv_refr.c ****     while(par != NULL) {
 524:..\lvgl\lv_core/lv_refr.c ****         /*object before border_p has to be redrawn*/
 525:..\lvgl\lv_core/lv_refr.c ****         i = lv_ll_get_prev(&(par->child_ll), border_p);
 526:..\lvgl\lv_core/lv_refr.c **** 
 527:..\lvgl\lv_core/lv_refr.c ****         while(i != NULL) {
 528:..\lvgl\lv_core/lv_refr.c ****             /*Refresh the objects*/
 529:..\lvgl\lv_core/lv_refr.c ****             lv_refr_obj(i, mask_p);
 530:..\lvgl\lv_core/lv_refr.c ****             i = lv_ll_get_prev(&(par->child_ll), i);
 531:..\lvgl\lv_core/lv_refr.c ****         }
 532:..\lvgl\lv_core/lv_refr.c **** 
 533:..\lvgl\lv_core/lv_refr.c ****         /*The new border will be there last parents,
 534:..\lvgl\lv_core/lv_refr.c ****          *so the 'younger' brothers of parent will be refreshed*/
 535:..\lvgl\lv_core/lv_refr.c ****         border_p = par;
 536:..\lvgl\lv_core/lv_refr.c ****         /*Go a level deeper*/
 537:..\lvgl\lv_core/lv_refr.c ****         par = lv_obj_get_parent(par);
 538:..\lvgl\lv_core/lv_refr.c ****     }
 539:..\lvgl\lv_core/lv_refr.c **** 
 540:..\lvgl\lv_core/lv_refr.c ****     /*Call the post draw design function of the parents of the to object*/
 541:..\lvgl\lv_core/lv_refr.c ****     par = lv_obj_get_parent(top_p);
 542:..\lvgl\lv_core/lv_refr.c ****     while(par != NULL) {
 543:..\lvgl\lv_core/lv_refr.c ****         par->design_func(par, mask_p, LV_DESIGN_DRAW_POST);
 544:..\lvgl\lv_core/lv_refr.c ****         par = lv_obj_get_parent(par);
 545:..\lvgl\lv_core/lv_refr.c ****     }
 546:..\lvgl\lv_core/lv_refr.c **** }
 547:..\lvgl\lv_core/lv_refr.c **** 
 548:..\lvgl\lv_core/lv_refr.c **** /**
ARM GAS  C:\Users\d3bug\AppData\Local\Temp\ccH2B58W.s 			page 17


 549:..\lvgl\lv_core/lv_refr.c ****  * Refresh an object an all of its children. (Called recursively)
 550:..\lvgl\lv_core/lv_refr.c ****  * @param obj pointer to an object to refresh
 551:..\lvgl\lv_core/lv_refr.c ****  * @param mask_ori_p pointer to an area, the objects will be drawn only here
 552:..\lvgl\lv_core/lv_refr.c ****  */
 553:..\lvgl\lv_core/lv_refr.c **** static void lv_refr_obj(lv_obj_t * obj, const lv_area_t * mask_ori_p)
 554:..\lvgl\lv_core/lv_refr.c **** {
 286              		.loc 1 554 0
 287              		.cfi_startproc
 288              		@ args = 0, pretend = 0, frame = 40
 289              		@ frame_needed = 0, uses_anonymous_args = 0
 290              	.LVL34:
 555:..\lvgl\lv_core/lv_refr.c ****     /*Do not refresh hidden objects*/
 556:..\lvgl\lv_core/lv_refr.c ****     if(obj->hidden != 0) return;
 291              		.loc 1 556 0
 292 0000 90F82C30 		ldrb	r3, [r0, #44]	@ zero_extendqisi2
 293 0004 13F0100F 		tst	r3, #16
 294 0008 6AD1     		bne	.L29
 554:..\lvgl\lv_core/lv_refr.c ****     /*Do not refresh hidden objects*/
 295              		.loc 1 554 0
 296 000a 70B5     		push	{r4, r5, r6, lr}
 297              		.cfi_def_cfa_offset 16
 298              		.cfi_offset 4, -16
 299              		.cfi_offset 5, -12
 300              		.cfi_offset 6, -8
 301              		.cfi_offset 14, -4
 302 000c 8AB0     		sub	sp, sp, #40
 303              		.cfi_def_cfa_offset 56
 304 000e 0E46     		mov	r6, r1
 305 0010 0446     		mov	r4, r0
 557:..\lvgl\lv_core/lv_refr.c **** 
 558:..\lvgl\lv_core/lv_refr.c ****     bool union_ok;  /* Store the return value of area_union */
 559:..\lvgl\lv_core/lv_refr.c ****     /* Truncate the original mask to the coordinates of the parent
 560:..\lvgl\lv_core/lv_refr.c ****      * because the parent and its children are visible only here */
 561:..\lvgl\lv_core/lv_refr.c ****     lv_area_t obj_mask;
 562:..\lvgl\lv_core/lv_refr.c ****     lv_area_t obj_ext_mask;
 563:..\lvgl\lv_core/lv_refr.c ****     lv_area_t obj_area;
 564:..\lvgl\lv_core/lv_refr.c ****     lv_coord_t ext_size = obj->ext_size;
 306              		.loc 1 564 0
 307 0012 B0F93050 		ldrsh	r5, [r0, #48]
 308              	.LVL35:
 565:..\lvgl\lv_core/lv_refr.c ****     lv_obj_get_coords(obj, &obj_area);
 309              		.loc 1 565 0
 310 0016 04A9     		add	r1, sp, #16
 311              	.LVL36:
 312 0018 FFF7FEFF 		bl	lv_obj_get_coords
 313              	.LVL37:
 566:..\lvgl\lv_core/lv_refr.c ****     obj_area.x1 -= ext_size;
 314              		.loc 1 566 0
 315 001c ABB2     		uxth	r3, r5
 316 001e BDF81020 		ldrh	r2, [sp, #16]
 317 0022 D21A     		subs	r2, r2, r3
 318 0024 ADF81020 		strh	r2, [sp, #16]	@ movhi
 567:..\lvgl\lv_core/lv_refr.c ****     obj_area.y1 -= ext_size;
 319              		.loc 1 567 0
 320 0028 BDF81220 		ldrh	r2, [sp, #18]
 321 002c D21A     		subs	r2, r2, r3
 322 002e ADF81220 		strh	r2, [sp, #18]	@ movhi
ARM GAS  C:\Users\d3bug\AppData\Local\Temp\ccH2B58W.s 			page 18


 568:..\lvgl\lv_core/lv_refr.c ****     obj_area.x2 += ext_size;
 323              		.loc 1 568 0
 324 0032 BDF81420 		ldrh	r2, [sp, #20]
 325 0036 1A44     		add	r2, r2, r3
 326 0038 ADF81420 		strh	r2, [sp, #20]	@ movhi
 569:..\lvgl\lv_core/lv_refr.c ****     obj_area.y2 += ext_size;
 327              		.loc 1 569 0
 328 003c BDF81620 		ldrh	r2, [sp, #22]
 329 0040 1344     		add	r3, r3, r2
 330 0042 ADF81630 		strh	r3, [sp, #22]	@ movhi
 570:..\lvgl\lv_core/lv_refr.c ****     union_ok = lv_area_intersect(&obj_ext_mask, mask_ori_p, &obj_area);
 331              		.loc 1 570 0
 332 0046 04AA     		add	r2, sp, #16
 333 0048 3146     		mov	r1, r6
 334 004a 06A8     		add	r0, sp, #24
 335 004c FFF7FEFF 		bl	lv_area_intersect
 336              	.LVL38:
 571:..\lvgl\lv_core/lv_refr.c **** 
 572:..\lvgl\lv_core/lv_refr.c ****     /*Draw the parent and its children only if they ore on 'mask_parent'*/
 573:..\lvgl\lv_core/lv_refr.c ****     if(union_ok != false) {
 337              		.loc 1 573 0
 338 0050 0028     		cmp	r0, #0
 339 0052 43D0     		beq	.L20
 574:..\lvgl\lv_core/lv_refr.c **** 
 575:..\lvgl\lv_core/lv_refr.c ****         /* Redraw the object */
 576:..\lvgl\lv_core/lv_refr.c ****         obj->design_func(obj, &obj_ext_mask, LV_DESIGN_DRAW_MAIN);
 340              		.loc 1 576 0
 341 0054 E369     		ldr	r3, [r4, #28]
 342 0056 0022     		movs	r2, #0
 343 0058 06A9     		add	r1, sp, #24
 344 005a 2046     		mov	r0, r4
 345              	.LVL39:
 346 005c 9847     		blx	r3
 347              	.LVL40:
 577:..\lvgl\lv_core/lv_refr.c ****         //usleep(5 * 1000);  /*DEBUG: Wait after every object draw to see the order of drawing*/
 578:..\lvgl\lv_core/lv_refr.c **** 
 579:..\lvgl\lv_core/lv_refr.c **** 
 580:..\lvgl\lv_core/lv_refr.c ****         /*Create a new 'obj_mask' without 'ext_size' because the children can't be visible there*/
 581:..\lvgl\lv_core/lv_refr.c ****         lv_obj_get_coords(obj, &obj_area);
 348              		.loc 1 581 0
 349 005e 04A9     		add	r1, sp, #16
 350 0060 2046     		mov	r0, r4
 351 0062 FFF7FEFF 		bl	lv_obj_get_coords
 352              	.LVL41:
 582:..\lvgl\lv_core/lv_refr.c ****         union_ok = lv_area_intersect(&obj_mask, mask_ori_p, &obj_area);
 353              		.loc 1 582 0
 354 0066 04AA     		add	r2, sp, #16
 355 0068 3146     		mov	r1, r6
 356 006a 08A8     		add	r0, sp, #32
 357 006c FFF7FEFF 		bl	lv_area_intersect
 358              	.LVL42:
 583:..\lvgl\lv_core/lv_refr.c ****         if(union_ok != false) {
 359              		.loc 1 583 0
 360 0070 78B3     		cbz	r0, .L23
 361              	.LBB22:
 584:..\lvgl\lv_core/lv_refr.c ****             lv_area_t mask_child; /*Mask from obj and its child*/
 585:..\lvgl\lv_core/lv_refr.c ****             lv_obj_t * child_p;
ARM GAS  C:\Users\d3bug\AppData\Local\Temp\ccH2B58W.s 			page 19


 586:..\lvgl\lv_core/lv_refr.c ****             lv_area_t child_area;
 587:..\lvgl\lv_core/lv_refr.c ****             LL_READ_BACK(obj->child_ll, child_p) {
 362              		.loc 1 587 0
 363 0072 261D     		adds	r6, r4, #4
 364              	.LVL43:
 365 0074 3046     		mov	r0, r6
 366              	.LVL44:
 367 0076 FFF7FEFF 		bl	lv_ll_get_tail
 368              	.LVL45:
 369 007a 0546     		mov	r5, r0
 370              	.LVL46:
 371 007c 27E0     		b	.L24
 372              	.L26:
 588:..\lvgl\lv_core/lv_refr.c ****                 lv_obj_get_coords(child_p, &child_area);
 373              		.loc 1 588 0
 374 007e 02A9     		add	r1, sp, #8
 375 0080 2846     		mov	r0, r5
 376              	.LVL47:
 377 0082 FFF7FEFF 		bl	lv_obj_get_coords
 378              	.LVL48:
 589:..\lvgl\lv_core/lv_refr.c ****                 ext_size = child_p->ext_size;
 590:..\lvgl\lv_core/lv_refr.c ****                 child_area.x1 -= ext_size;
 379              		.loc 1 590 0
 380 0086 2B8E     		ldrh	r3, [r5, #48]
 381 0088 BDF80820 		ldrh	r2, [sp, #8]
 382 008c D21A     		subs	r2, r2, r3
 383 008e ADF80820 		strh	r2, [sp, #8]	@ movhi
 591:..\lvgl\lv_core/lv_refr.c ****                 child_area.y1 -= ext_size;
 384              		.loc 1 591 0
 385 0092 BDF80A20 		ldrh	r2, [sp, #10]
 386 0096 D21A     		subs	r2, r2, r3
 387 0098 ADF80A20 		strh	r2, [sp, #10]	@ movhi
 592:..\lvgl\lv_core/lv_refr.c ****                 child_area.x2 += ext_size;
 388              		.loc 1 592 0
 389 009c BDF80C20 		ldrh	r2, [sp, #12]
 390 00a0 1A44     		add	r2, r2, r3
 391 00a2 ADF80C20 		strh	r2, [sp, #12]	@ movhi
 593:..\lvgl\lv_core/lv_refr.c ****                 child_area.y2 += ext_size;
 392              		.loc 1 593 0
 393 00a6 BDF80E20 		ldrh	r2, [sp, #14]
 394 00aa 1344     		add	r3, r3, r2
 395 00ac ADF80E30 		strh	r3, [sp, #14]	@ movhi
 594:..\lvgl\lv_core/lv_refr.c ****                 /* Get the union (common parts) of original mask (from obj)
 595:..\lvgl\lv_core/lv_refr.c ****                  * and its child */
 596:..\lvgl\lv_core/lv_refr.c ****                 union_ok = lv_area_intersect(&mask_child, &obj_mask, &child_area);
 396              		.loc 1 596 0
 397 00b0 02AA     		add	r2, sp, #8
 398 00b2 08A9     		add	r1, sp, #32
 399 00b4 6846     		mov	r0, sp
 400 00b6 FFF7FEFF 		bl	lv_area_intersect
 401              	.LVL49:
 597:..\lvgl\lv_core/lv_refr.c **** 
 598:..\lvgl\lv_core/lv_refr.c ****                 /*If the parent and the child has common area then refresh the child */
 599:..\lvgl\lv_core/lv_refr.c ****                 if(union_ok) {
 402              		.loc 1 599 0
 403 00ba 18B1     		cbz	r0, .L25
 600:..\lvgl\lv_core/lv_refr.c ****                     /*Refresh the next children*/
ARM GAS  C:\Users\d3bug\AppData\Local\Temp\ccH2B58W.s 			page 20


 601:..\lvgl\lv_core/lv_refr.c ****                     lv_refr_obj(child_p, &mask_child);
 404              		.loc 1 601 0
 405 00bc 6946     		mov	r1, sp
 406 00be 2846     		mov	r0, r5
 407              	.LVL50:
 408 00c0 FFF79EFF 		bl	lv_refr_obj
 409              	.LVL51:
 410              	.L25:
 587:..\lvgl\lv_core/lv_refr.c ****                 lv_obj_get_coords(child_p, &child_area);
 411              		.loc 1 587 0 discriminator 2
 412 00c4 2946     		mov	r1, r5
 413 00c6 3046     		mov	r0, r6
 414 00c8 FFF7FEFF 		bl	lv_ll_get_prev
 415              	.LVL52:
 416 00cc 0546     		mov	r5, r0
 417              	.LVL53:
 418              	.L24:
 587:..\lvgl\lv_core/lv_refr.c ****                 lv_obj_get_coords(child_p, &child_area);
 419              		.loc 1 587 0 is_stmt 0 discriminator 1
 420 00ce 002D     		cmp	r5, #0
 421 00d0 D5D1     		bne	.L26
 422              	.LVL54:
 423              	.L23:
 424              	.LBE22:
 602:..\lvgl\lv_core/lv_refr.c ****                 }
 603:..\lvgl\lv_core/lv_refr.c ****             }
 604:..\lvgl\lv_core/lv_refr.c ****         }
 605:..\lvgl\lv_core/lv_refr.c **** 
 606:..\lvgl\lv_core/lv_refr.c ****         /* If all the children are redrawn make 'post draw' design */
 607:..\lvgl\lv_core/lv_refr.c ****         obj->design_func(obj, &obj_ext_mask, LV_DESIGN_DRAW_POST);
 425              		.loc 1 607 0 is_stmt 1
 426 00d2 E369     		ldr	r3, [r4, #28]
 427 00d4 0122     		movs	r2, #1
 428 00d6 06A9     		add	r1, sp, #24
 429 00d8 2046     		mov	r0, r4
 430 00da 9847     		blx	r3
 431              	.LVL55:
 432              	.L20:
 608:..\lvgl\lv_core/lv_refr.c **** 
 609:..\lvgl\lv_core/lv_refr.c ****     }
 610:..\lvgl\lv_core/lv_refr.c **** }
 433              		.loc 1 610 0
 434 00dc 0AB0     		add	sp, sp, #40
 435              		.cfi_def_cfa_offset 16
 436              		@ sp needed
 437 00de 70BD     		pop	{r4, r5, r6, pc}
 438              	.LVL56:
 439              	.L29:
 440              		.cfi_def_cfa_offset 0
 441              		.cfi_restore 4
 442              		.cfi_restore 5
 443              		.cfi_restore 6
 444              		.cfi_restore 14
 445 00e0 7047     		bx	lr
 446              		.cfi_endproc
 447              	.LFE26:
 448              		.size	lv_refr_obj, .-lv_refr_obj
ARM GAS  C:\Users\d3bug\AppData\Local\Temp\ccH2B58W.s 			page 21


 449 00e2 00BF     		.section	.text.lv_refr_obj_and_children,"ax",%progbits
 450              		.align	2
 451              		.thumb
 452              		.thumb_func
 453              		.type	lv_refr_obj_and_children, %function
 454              	lv_refr_obj_and_children:
 455              	.LFB25:
 506:..\lvgl\lv_core/lv_refr.c ****     /* Normally always will be a top_obj (at least the screen)
 456              		.loc 1 506 0
 457              		.cfi_startproc
 458              		@ args = 0, pretend = 0, frame = 0
 459              		@ frame_needed = 0, uses_anonymous_args = 0
 460              	.LVL57:
 461 0000 2DE9F041 		push	{r4, r5, r6, r7, r8, lr}
 462              		.cfi_def_cfa_offset 24
 463              		.cfi_offset 4, -24
 464              		.cfi_offset 5, -20
 465              		.cfi_offset 6, -16
 466              		.cfi_offset 7, -12
 467              		.cfi_offset 8, -8
 468              		.cfi_offset 14, -4
 469 0004 0E46     		mov	r6, r1
 510:..\lvgl\lv_core/lv_refr.c **** 
 470              		.loc 1 510 0
 471 0006 8046     		mov	r8, r0
 472 0008 10B9     		cbnz	r0, .L31
 510:..\lvgl\lv_core/lv_refr.c **** 
 473              		.loc 1 510 0 is_stmt 0 discriminator 1
 474 000a FFF7FEFF 		bl	lv_scr_act
 475              	.LVL58:
 476 000e 8046     		mov	r8, r0
 477              	.LVL59:
 478              	.L31:
 513:..\lvgl\lv_core/lv_refr.c **** 
 479              		.loc 1 513 0 is_stmt 1
 480 0010 3146     		mov	r1, r6
 481 0012 4046     		mov	r0, r8
 482 0014 FFF7FEFF 		bl	lv_refr_obj
 483              	.LVL60:
 520:..\lvgl\lv_core/lv_refr.c **** 
 484              		.loc 1 520 0
 485 0018 4046     		mov	r0, r8
 486 001a FFF7FEFF 		bl	lv_obj_get_parent
 487              	.LVL61:
 488 001e 0746     		mov	r7, r0
 489              	.LVL62:
 518:..\lvgl\lv_core/lv_refr.c **** 
 490              		.loc 1 518 0
 491 0020 4146     		mov	r1, r8
 523:..\lvgl\lv_core/lv_refr.c ****         /*object before border_p has to be redrawn*/
 492              		.loc 1 523 0
 493 0022 15E0     		b	.L32
 494              	.LVL63:
 495              	.L35:
 525:..\lvgl\lv_core/lv_refr.c **** 
 496              		.loc 1 525 0
 497 0024 3D1D     		adds	r5, r7, #4
ARM GAS  C:\Users\d3bug\AppData\Local\Temp\ccH2B58W.s 			page 22


 498 0026 2846     		mov	r0, r5
 499              	.LVL64:
 500 0028 FFF7FEFF 		bl	lv_ll_get_prev
 501              	.LVL65:
 502 002c 0446     		mov	r4, r0
 503              	.LVL66:
 527:..\lvgl\lv_core/lv_refr.c ****             /*Refresh the objects*/
 504              		.loc 1 527 0
 505 002e 08E0     		b	.L33
 506              	.L34:
 529:..\lvgl\lv_core/lv_refr.c ****             i = lv_ll_get_prev(&(par->child_ll), i);
 507              		.loc 1 529 0
 508 0030 3146     		mov	r1, r6
 509 0032 2046     		mov	r0, r4
 510              	.LVL67:
 511 0034 FFF7FEFF 		bl	lv_refr_obj
 512              	.LVL68:
 530:..\lvgl\lv_core/lv_refr.c ****         }
 513              		.loc 1 530 0
 514 0038 2146     		mov	r1, r4
 515 003a 2846     		mov	r0, r5
 516 003c FFF7FEFF 		bl	lv_ll_get_prev
 517              	.LVL69:
 518 0040 0446     		mov	r4, r0
 519              	.LVL70:
 520              	.L33:
 527:..\lvgl\lv_core/lv_refr.c ****             /*Refresh the objects*/
 521              		.loc 1 527 0
 522 0042 002C     		cmp	r4, #0
 523 0044 F4D1     		bne	.L34
 524              	.LVL71:
 537:..\lvgl\lv_core/lv_refr.c ****     }
 525              		.loc 1 537 0
 526 0046 3846     		mov	r0, r7
 527              	.LVL72:
 528 0048 FFF7FEFF 		bl	lv_obj_get_parent
 529              	.LVL73:
 535:..\lvgl\lv_core/lv_refr.c ****         /*Go a level deeper*/
 530              		.loc 1 535 0
 531 004c 3946     		mov	r1, r7
 537:..\lvgl\lv_core/lv_refr.c ****     }
 532              		.loc 1 537 0
 533 004e 0746     		mov	r7, r0
 534              	.LVL74:
 535              	.L32:
 523:..\lvgl\lv_core/lv_refr.c ****         /*object before border_p has to be redrawn*/
 536              		.loc 1 523 0
 537 0050 002F     		cmp	r7, #0
 538 0052 E7D1     		bne	.L35
 541:..\lvgl\lv_core/lv_refr.c ****     while(par != NULL) {
 539              		.loc 1 541 0
 540 0054 4046     		mov	r0, r8
 541              	.LVL75:
 542 0056 FFF7FEFF 		bl	lv_obj_get_parent
 543              	.LVL76:
 544 005a 0446     		mov	r4, r0
 545              	.LVL77:
ARM GAS  C:\Users\d3bug\AppData\Local\Temp\ccH2B58W.s 			page 23


 542:..\lvgl\lv_core/lv_refr.c ****         par->design_func(par, mask_p, LV_DESIGN_DRAW_POST);
 546              		.loc 1 542 0
 547 005c 08E0     		b	.L36
 548              	.L37:
 543:..\lvgl\lv_core/lv_refr.c ****         par = lv_obj_get_parent(par);
 549              		.loc 1 543 0
 550 005e E369     		ldr	r3, [r4, #28]
 551 0060 0122     		movs	r2, #1
 552 0062 3146     		mov	r1, r6
 553 0064 2046     		mov	r0, r4
 554              	.LVL78:
 555 0066 9847     		blx	r3
 556              	.LVL79:
 544:..\lvgl\lv_core/lv_refr.c ****     }
 557              		.loc 1 544 0
 558 0068 2046     		mov	r0, r4
 559 006a FFF7FEFF 		bl	lv_obj_get_parent
 560              	.LVL80:
 561 006e 0446     		mov	r4, r0
 562              	.LVL81:
 563              	.L36:
 542:..\lvgl\lv_core/lv_refr.c ****         par->design_func(par, mask_p, LV_DESIGN_DRAW_POST);
 564              		.loc 1 542 0
 565 0070 002C     		cmp	r4, #0
 566 0072 F4D1     		bne	.L37
 546:..\lvgl\lv_core/lv_refr.c **** 
 567              		.loc 1 546 0
 568 0074 BDE8F081 		pop	{r4, r5, r6, r7, r8, pc}
 569              		.cfi_endproc
 570              	.LFE25:
 571              		.size	lv_refr_obj_and_children, .-lv_refr_obj_and_children
 572              		.section	.text.lv_refr_area_part_vdb,"ax",%progbits
 573              		.align	2
 574              		.thumb
 575              		.thumb_func
 576              		.type	lv_refr_area_part_vdb, %function
 577              	lv_refr_area_part_vdb:
 578              	.LFB23:
 431:..\lvgl\lv_core/lv_refr.c ****     lv_vdb_t * vdb_p = lv_vdb_get();
 579              		.loc 1 431 0
 580              		.cfi_startproc
 581              		@ args = 0, pretend = 0, frame = 8
 582              		@ frame_needed = 0, uses_anonymous_args = 0
 583              	.LVL82:
 584 0000 10B5     		push	{r4, lr}
 585              		.cfi_def_cfa_offset 8
 586              		.cfi_offset 4, -8
 587              		.cfi_offset 14, -4
 588 0002 82B0     		sub	sp, sp, #8
 589              		.cfi_def_cfa_offset 16
 590 0004 0446     		mov	r4, r0
 432:..\lvgl\lv_core/lv_refr.c ****     if(!vdb_p) {
 591              		.loc 1 432 0
 592 0006 FFF7FEFF 		bl	lv_vdb_get
 593              	.LVL83:
 433:..\lvgl\lv_core/lv_refr.c ****         LV_LOG_WARN("Invalid VDB pointer");
 594              		.loc 1 433 0
ARM GAS  C:\Users\d3bug\AppData\Local\Temp\ccH2B58W.s 			page 24


 595 000a 38B9     		cbnz	r0, .L40
 434:..\lvgl\lv_core/lv_refr.c ****         return;
 596              		.loc 1 434 0
 597 000c 114B     		ldr	r3, .L43
 598 000e 4FF4D972 		mov	r2, #434
 599 0012 1149     		ldr	r1, .L43+4
 600 0014 0220     		movs	r0, #2
 601              	.LVL84:
 602 0016 FFF7FEFF 		bl	lv_log_add
 603              	.LVL85:
 604 001a 19E0     		b	.L39
 605              	.LVL86:
 606              	.L40:
 607 001c 0246     		mov	r2, r0
 442:..\lvgl\lv_core/lv_refr.c **** 
 608              		.loc 1 442 0
 609 001e 2146     		mov	r1, r4
 610 0020 6846     		mov	r0, sp
 611              	.LVL87:
 612 0022 FFF7FEFF 		bl	lv_area_intersect
 613              	.LVL88:
 445:..\lvgl\lv_core/lv_refr.c **** 
 614              		.loc 1 445 0
 615 0026 FFF7FEFF 		bl	lv_scr_act
 616              	.LVL89:
 617 002a 0146     		mov	r1, r0
 618 002c 6846     		mov	r0, sp
 619 002e FFF7FEFF 		bl	lv_refr_get_top_obj
 620              	.LVL90:
 448:..\lvgl\lv_core/lv_refr.c **** 
 621              		.loc 1 448 0
 622 0032 6946     		mov	r1, sp
 623 0034 FFF7FEFF 		bl	lv_refr_obj_and_children
 624              	.LVL91:
 451:..\lvgl\lv_core/lv_refr.c ****     lv_refr_obj_and_children(lv_layer_sys(), &start_mask);
 625              		.loc 1 451 0
 626 0038 FFF7FEFF 		bl	lv_layer_top
 627              	.LVL92:
 628 003c 6946     		mov	r1, sp
 629 003e FFF7FEFF 		bl	lv_refr_obj_and_children
 630              	.LVL93:
 452:..\lvgl\lv_core/lv_refr.c **** 
 631              		.loc 1 452 0
 632 0042 FFF7FEFF 		bl	lv_layer_sys
 633              	.LVL94:
 634 0046 6946     		mov	r1, sp
 635 0048 FFF7FEFF 		bl	lv_refr_obj_and_children
 636              	.LVL95:
 458:..\lvgl\lv_core/lv_refr.c **** #endif
 637              		.loc 1 458 0
 638 004c FFF7FEFF 		bl	lv_vdb_flush
 639              	.LVL96:
 640              	.L39:
 460:..\lvgl\lv_core/lv_refr.c **** 
 641              		.loc 1 460 0
 642 0050 02B0     		add	sp, sp, #8
 643              		.cfi_def_cfa_offset 8
ARM GAS  C:\Users\d3bug\AppData\Local\Temp\ccH2B58W.s 			page 25


 644              		@ sp needed
 645 0052 10BD     		pop	{r4, pc}
 646              	.LVL97:
 647              	.L44:
 648              		.align	2
 649              	.L43:
 650 0054 00000000 		.word	.LC0
 651 0058 14000000 		.word	.LC1
 652              		.cfi_endproc
 653              	.LFE23:
 654              		.size	lv_refr_area_part_vdb, .-lv_refr_area_part_vdb
 655              		.section	.text.lv_refr_area_with_vdb,"ax",%progbits
 656              		.align	2
 657              		.thumb
 658              		.thumb_func
 659              		.type	lv_refr_area_with_vdb, %function
 660              	lv_refr_area_with_vdb:
 661              	.LFB22:
 343:..\lvgl\lv_core/lv_refr.c **** 
 662              		.loc 1 343 0
 663              		.cfi_startproc
 664              		@ args = 0, pretend = 0, frame = 8
 665              		@ frame_needed = 0, uses_anonymous_args = 0
 666              	.LVL98:
 667 0000 2DE9F041 		push	{r4, r5, r6, r7, r8, lr}
 668              		.cfi_def_cfa_offset 24
 669              		.cfi_offset 4, -24
 670              		.cfi_offset 5, -20
 671              		.cfi_offset 6, -16
 672              		.cfi_offset 7, -12
 673              		.cfi_offset 8, -8
 674              		.cfi_offset 14, -4
 675 0004 82B0     		sub	sp, sp, #8
 676              		.cfi_def_cfa_offset 32
 677 0006 0546     		mov	r5, r0
 678              	.LVL99:
 679              	.LBB23:
 680              	.LBB24:
  68:..\lvgl\lv_core\../lv_misc/lv_area.h **** }
  69:..\lvgl\lv_core\../lv_misc/lv_area.h **** 
  70:..\lvgl\lv_core\../lv_misc/lv_area.h **** /**
  71:..\lvgl\lv_core\../lv_misc/lv_area.h ****  * Get the width of an area
  72:..\lvgl\lv_core\../lv_misc/lv_area.h ****  * @param area_p pointer to an area
  73:..\lvgl\lv_core\../lv_misc/lv_area.h ****  * @return the width of the area (if x1 == x2 -> width = 1)
  74:..\lvgl\lv_core\../lv_misc/lv_area.h ****  */
  75:..\lvgl\lv_core\../lv_misc/lv_area.h **** static inline lv_coord_t lv_area_get_width(const lv_area_t * area_p)
  76:..\lvgl\lv_core\../lv_misc/lv_area.h **** {
  77:..\lvgl\lv_core\../lv_misc/lv_area.h ****     return area_p->x2 - area_p->x1 + 1;
 681              		.loc 2 77 0
 682 0008 B0F90430 		ldrsh	r3, [r0, #4]
 683 000c B0F90020 		ldrsh	r2, [r0]
 684 0010 9A1A     		subs	r2, r3, r2
 685 0012 0132     		adds	r2, r2, #1
 686 0014 12B2     		sxth	r2, r2
 687              	.LVL100:
 688              	.LBE24:
 689              	.LBE23:
ARM GAS  C:\Users\d3bug\AppData\Local\Temp\ccH2B58W.s 			page 26


 690              	.LBB25:
 691              	.LBB26:
  78:..\lvgl\lv_core\../lv_misc/lv_area.h **** }
  79:..\lvgl\lv_core\../lv_misc/lv_area.h **** 
  80:..\lvgl\lv_core\../lv_misc/lv_area.h **** /**
  81:..\lvgl\lv_core\../lv_misc/lv_area.h ****  * Get the height of an area
  82:..\lvgl\lv_core\../lv_misc/lv_area.h ****  * @param area_p pointer to an area
  83:..\lvgl\lv_core\../lv_misc/lv_area.h ****  * @return the height of the area (if y1 == y2 -> height = 1)
  84:..\lvgl\lv_core\../lv_misc/lv_area.h ****  */
  85:..\lvgl\lv_core\../lv_misc/lv_area.h **** static inline lv_coord_t lv_area_get_height(const lv_area_t * area_p)
  86:..\lvgl\lv_core\../lv_misc/lv_area.h **** {
  87:..\lvgl\lv_core\../lv_misc/lv_area.h ****     return area_p->y2 - area_p->y1 + 1;
 692              		.loc 2 87 0
 693 0016 B0F90670 		ldrsh	r7, [r0, #6]
 694 001a B0F90230 		ldrsh	r3, [r0, #2]
 695 001e FB1A     		subs	r3, r7, r3
 696 0020 0133     		adds	r3, r3, #1
 697 0022 1BB2     		sxth	r3, r3
 698              	.LVL101:
 699              	.LBE26:
 700              	.LBE25:
 349:..\lvgl\lv_core/lv_refr.c **** 
 701              		.loc 1 349 0
 702 0024 3F2F     		cmp	r7, #63
 703 0026 00DD     		ble	.L46
 704 0028 3F27     		movs	r7, #63
 705              	.L46:
 706              	.LVL102:
 351:..\lvgl\lv_core/lv_refr.c **** 
 707              		.loc 1 351 0 discriminator 4
 708 002a 40F23331 		movw	r1, #819
 709 002e B1FBF2F2 		udiv	r2, r1, r2
 710              	.LVL103:
 353:..\lvgl\lv_core/lv_refr.c **** 
 711              		.loc 1 353 0 discriminator 4
 712 0032 1E46     		mov	r6, r3
 713 0034 9A42     		cmp	r2, r3
 714 0036 00DC     		bgt	.L47
 351:..\lvgl\lv_core/lv_refr.c **** 
 715              		.loc 1 351 0
 716 0038 1646     		mov	r6, r2
 717              	.L47:
 718              	.LVL104:
 357:..\lvgl\lv_core/lv_refr.c ****         lv_area_t tmp;
 719              		.loc 1 357 0
 720 003a 374B     		ldr	r3, .L59
 721 003c D3F84431 		ldr	r3, [r3, #324]
 722 0040 2BB3     		cbz	r3, .L48
 723              	.LBB27:
 359:..\lvgl\lv_core/lv_refr.c ****         tmp.x2 = 0;
 724              		.loc 1 359 0
 725 0042 0023     		movs	r3, #0
 726 0044 ADF80030 		strh	r3, [sp]	@ movhi
 360:..\lvgl\lv_core/lv_refr.c ****         tmp.y1 = 0;
 727              		.loc 1 360 0
 728 0048 ADF80430 		strh	r3, [sp, #4]	@ movhi
 361:..\lvgl\lv_core/lv_refr.c ****         tmp.y2 = max_row;
ARM GAS  C:\Users\d3bug\AppData\Local\Temp\ccH2B58W.s 			page 27


 729              		.loc 1 361 0
 730 004c ADF80230 		strh	r3, [sp, #2]	@ movhi
 362:..\lvgl\lv_core/lv_refr.c **** 
 731              		.loc 1 362 0
 732 0050 34B2     		sxth	r4, r6
 733              	.LVL105:
 734              	.L50:
 366:..\lvgl\lv_core/lv_refr.c ****             round_cb(&tmp);
 735              		.loc 1 366 0 discriminator 2
 736 0052 ADF80640 		strh	r4, [sp, #6]	@ movhi
 367:..\lvgl\lv_core/lv_refr.c ****             y_tmp --;       /*Decrement the number of line until it is rounded to a smaller (or equ
 737              		.loc 1 367 0 discriminator 2
 738 0056 304B     		ldr	r3, .L59
 739 0058 D3F84431 		ldr	r3, [r3, #324]
 740 005c 6846     		mov	r0, sp
 741 005e 9847     		blx	r3
 742              	.LVL106:
 368:..\lvgl\lv_core/lv_refr.c ****         } while(lv_area_get_height(&tmp) > max_row && y_tmp != 0);
 743              		.loc 1 368 0 discriminator 2
 744 0060 013C     		subs	r4, r4, #1
 745              	.LVL107:
 746 0062 24B2     		sxth	r4, r4
 747              	.LVL108:
 748              	.LBB28:
 749              	.LBB29:
 750              		.loc 2 87 0 discriminator 2
 751 0064 BDF90620 		ldrsh	r2, [sp, #6]
 752 0068 BDF90230 		ldrsh	r3, [sp, #2]
 753 006c D31A     		subs	r3, r2, r3
 754 006e 0133     		adds	r3, r3, #1
 755 0070 1BB2     		sxth	r3, r3
 756              	.LVL109:
 757              	.LBE29:
 758              	.LBE28:
 369:..\lvgl\lv_core/lv_refr.c **** 
 759              		.loc 1 369 0 discriminator 2
 760 0072 9E42     		cmp	r6, r3
 761 0074 01DA     		bge	.L49
 369:..\lvgl\lv_core/lv_refr.c **** 
 762              		.loc 1 369 0 is_stmt 0 discriminator 1
 763 0076 002C     		cmp	r4, #0
 764 0078 EBD1     		bne	.L50
 765              	.L49:
 371:..\lvgl\lv_core/lv_refr.c ****             LV_LOG_WARN("Can't set VDB height using the round function. (Wrong round_cb or to small
 766              		.loc 1 371 0 is_stmt 1
 767 007a 3CB9     		cbnz	r4, .L51
 372:..\lvgl\lv_core/lv_refr.c ****             return;
 768              		.loc 1 372 0
 769 007c 274B     		ldr	r3, .L59+4
 770 007e 4FF4BA72 		mov	r2, #372
 771 0082 2749     		ldr	r1, .L59+8
 772 0084 0220     		movs	r0, #2
 773 0086 FFF7FEFF 		bl	lv_log_add
 774              	.LVL110:
 775 008a 42E0     		b	.L45
 776              	.L51:
 375:..\lvgl\lv_core/lv_refr.c ****         }
ARM GAS  C:\Users\d3bug\AppData\Local\Temp\ccH2B58W.s 			page 28


 777              		.loc 1 375 0
 778 008c 561C     		adds	r6, r2, #1
 779              	.LVL111:
 780              	.L48:
 781              	.LBE27:
 382:..\lvgl\lv_core/lv_refr.c ****         lv_vdb_t * vdb_p = lv_vdb_get();
 782              		.loc 1 382 0
 783 008e B5F90240 		ldrsh	r4, [r5, #2]
 784              	.LVL112:
 381:..\lvgl\lv_core/lv_refr.c ****     for(row = area_p->y1; row  + max_row - 1 <= y2; row += max_row)  {
 785              		.loc 1 381 0
 786 0092 4FF00008 		mov	r8, #0
 382:..\lvgl\lv_core/lv_refr.c ****         lv_vdb_t * vdb_p = lv_vdb_get();
 787              		.loc 1 382 0
 788 0096 20E0     		b	.L53
 789              	.LVL113:
 790              	.L56:
 791              	.LBB30:
 383:..\lvgl\lv_core/lv_refr.c ****         if(!vdb_p) {
 792              		.loc 1 383 0
 793 0098 FFF7FEFF 		bl	lv_vdb_get
 794              	.LVL114:
 384:..\lvgl\lv_core/lv_refr.c ****             LV_LOG_WARN("Invalid VDB pointer");
 795              		.loc 1 384 0
 796 009c 0346     		mov	r3, r0
 797 009e 38B9     		cbnz	r0, .L54
 385:..\lvgl\lv_core/lv_refr.c ****             return;
 798              		.loc 1 385 0
 799 00a0 204B     		ldr	r3, .L59+12
 800 00a2 40F28112 		movw	r2, #385
 801 00a6 1E49     		ldr	r1, .L59+8
 802 00a8 0220     		movs	r0, #2
 803              	.LVL115:
 804 00aa FFF7FEFF 		bl	lv_log_add
 805              	.LVL116:
 386:..\lvgl\lv_core/lv_refr.c ****         }
 806              		.loc 1 386 0
 807 00ae 30E0     		b	.L45
 808              	.LVL117:
 809              	.L54:
 390:..\lvgl\lv_core/lv_refr.c ****         vdb_p->area.x2 = area_p->x2;
 810              		.loc 1 390 0
 811 00b0 B5F90020 		ldrsh	r2, [r5]
 812 00b4 0280     		strh	r2, [r0]	@ movhi
 391:..\lvgl\lv_core/lv_refr.c ****         vdb_p->area.y1 = row;
 813              		.loc 1 391 0
 814 00b6 B5F90420 		ldrsh	r2, [r5, #4]
 815 00ba 8280     		strh	r2, [r0, #4]	@ movhi
 392:..\lvgl\lv_core/lv_refr.c ****         vdb_p->area.y2 = row + max_row - 1;
 816              		.loc 1 392 0
 817 00bc 4480     		strh	r4, [r0, #2]	@ movhi
 393:..\lvgl\lv_core/lv_refr.c ****         if(vdb_p->area.y2 > y2) vdb_p->area.y2 = y2;
 818              		.loc 1 393 0
 819 00be 3444     		add	r4, r4, r6
 820              	.LVL118:
 821 00c0 A4B2     		uxth	r4, r4
 822 00c2 621E     		subs	r2, r4, #1
ARM GAS  C:\Users\d3bug\AppData\Local\Temp\ccH2B58W.s 			page 29


 823 00c4 12B2     		sxth	r2, r2
 824 00c6 C280     		strh	r2, [r0, #6]	@ movhi
 394:..\lvgl\lv_core/lv_refr.c ****         row_last = vdb_p->area.y2;
 825              		.loc 1 394 0
 826 00c8 9742     		cmp	r7, r2
 827 00ca 00DA     		bge	.L55
 394:..\lvgl\lv_core/lv_refr.c ****         row_last = vdb_p->area.y2;
 828              		.loc 1 394 0 is_stmt 0 discriminator 1
 829 00cc C780     		strh	r7, [r0, #6]	@ movhi
 830              	.L55:
 395:..\lvgl\lv_core/lv_refr.c ****         lv_refr_area_part_vdb(area_p);
 831              		.loc 1 395 0 is_stmt 1 discriminator 2
 832 00ce B3F90680 		ldrsh	r8, [r3, #6]
 833              	.LVL119:
 396:..\lvgl\lv_core/lv_refr.c ****     }
 834              		.loc 1 396 0 discriminator 2
 835 00d2 2846     		mov	r0, r5
 836              	.LVL120:
 837 00d4 FFF7FEFF 		bl	lv_refr_area_part_vdb
 838              	.LVL121:
 839              	.LBE30:
 382:..\lvgl\lv_core/lv_refr.c ****         lv_vdb_t * vdb_p = lv_vdb_get();
 840              		.loc 1 382 0 discriminator 2
 841 00d8 24B2     		sxth	r4, r4
 842              	.LVL122:
 843              	.L53:
 382:..\lvgl\lv_core/lv_refr.c ****         lv_vdb_t * vdb_p = lv_vdb_get();
 844              		.loc 1 382 0 is_stmt 0 discriminator 1
 845 00da A319     		adds	r3, r4, r6
 846 00dc 013B     		subs	r3, r3, #1
 847 00de BB42     		cmp	r3, r7
 848 00e0 DADD     		ble	.L56
 400:..\lvgl\lv_core/lv_refr.c ****         lv_vdb_t * vdb_p = lv_vdb_get();
 849              		.loc 1 400 0 is_stmt 1
 850 00e2 B845     		cmp	r8, r7
 851 00e4 15D0     		beq	.L45
 852              	.LBB31:
 401:..\lvgl\lv_core/lv_refr.c ****         if(!vdb_p) {
 853              		.loc 1 401 0
 854 00e6 FFF7FEFF 		bl	lv_vdb_get
 855              	.LVL123:
 402:..\lvgl\lv_core/lv_refr.c ****             LV_LOG_WARN("Invalid VDB pointer");
 856              		.loc 1 402 0
 857 00ea 38B9     		cbnz	r0, .L57
 403:..\lvgl\lv_core/lv_refr.c ****             return;
 858              		.loc 1 403 0
 859 00ec 0D4B     		ldr	r3, .L59+12
 860 00ee 40F29312 		movw	r2, #403
 861 00f2 0B49     		ldr	r1, .L59+8
 862 00f4 0220     		movs	r0, #2
 863              	.LVL124:
 864 00f6 FFF7FEFF 		bl	lv_log_add
 865              	.LVL125:
 404:..\lvgl\lv_core/lv_refr.c ****         }
 866              		.loc 1 404 0
 867 00fa 0AE0     		b	.L45
 868              	.LVL126:
ARM GAS  C:\Users\d3bug\AppData\Local\Temp\ccH2B58W.s 			page 30


 869              	.L57:
 408:..\lvgl\lv_core/lv_refr.c ****         vdb_p->area.x2 = area_p->x2;
 870              		.loc 1 408 0
 871 00fc B5F90020 		ldrsh	r2, [r5]
 872 0100 0280     		strh	r2, [r0]	@ movhi
 409:..\lvgl\lv_core/lv_refr.c ****         vdb_p->area.y1 = row;
 873              		.loc 1 409 0
 874 0102 B5F90420 		ldrsh	r2, [r5, #4]
 875 0106 8280     		strh	r2, [r0, #4]	@ movhi
 410:..\lvgl\lv_core/lv_refr.c ****         vdb_p->area.y2 = y2;
 876              		.loc 1 410 0
 877 0108 4480     		strh	r4, [r0, #2]	@ movhi
 411:..\lvgl\lv_core/lv_refr.c **** 
 878              		.loc 1 411 0
 879 010a C780     		strh	r7, [r0, #6]	@ movhi
 414:..\lvgl\lv_core/lv_refr.c ****     }
 880              		.loc 1 414 0
 881 010c 2846     		mov	r0, r5
 882              	.LVL127:
 883 010e FFF7FEFF 		bl	lv_refr_area_part_vdb
 884              	.LVL128:
 885              	.L45:
 886              	.LBE31:
 424:..\lvgl\lv_core/lv_refr.c **** 
 887              		.loc 1 424 0
 888 0112 02B0     		add	sp, sp, #8
 889              		.cfi_def_cfa_offset 24
 890              		@ sp needed
 891 0114 BDE8F081 		pop	{r4, r5, r6, r7, r8, pc}
 892              	.LVL129:
 893              	.L60:
 894              		.align	2
 895              	.L59:
 896 0118 00000000 		.word	.LANCHOR0
 897 011c 30000000 		.word	.LC2
 898 0120 14000000 		.word	.LC1
 899 0124 00000000 		.word	.LC0
 900              		.cfi_endproc
 901              	.LFE22:
 902              		.size	lv_refr_area_with_vdb, .-lv_refr_area_with_vdb
 903              		.section	.text.lv_refr_areas,"ax",%progbits
 904              		.align	2
 905              		.thumb
 906              		.thumb_func
 907              		.type	lv_refr_areas, %function
 908              	lv_refr_areas:
 909              	.LFB21:
 296:..\lvgl\lv_core/lv_refr.c ****     px_num = 0;
 910              		.loc 1 296 0
 911              		.cfi_startproc
 912              		@ args = 0, pretend = 0, frame = 0
 913              		@ frame_needed = 0, uses_anonymous_args = 0
 914 0000 70B5     		push	{r4, r5, r6, lr}
 915              		.cfi_def_cfa_offset 16
 916              		.cfi_offset 4, -16
 917              		.cfi_offset 5, -12
 918              		.cfi_offset 6, -8
ARM GAS  C:\Users\d3bug\AppData\Local\Temp\ccH2B58W.s 			page 31


 919              		.cfi_offset 14, -4
 297:..\lvgl\lv_core/lv_refr.c ****     uint32_t i;
 920              		.loc 1 297 0
 921 0002 0024     		movs	r4, #0
 922 0004 124B     		ldr	r3, .L66
 923 0006 C3F84841 		str	r4, [r3, #328]
 924              	.LVL130:
 300:..\lvgl\lv_core/lv_refr.c ****         /*Refresh the unjoined areas*/
 925              		.loc 1 300 0
 926 000a 1AE0     		b	.L62
 927              	.LVL131:
 928              	.L64:
 302:..\lvgl\lv_core/lv_refr.c ****             /*If there is no VDB do simple drawing*/
 929              		.loc 1 302 0
 930 000c 04EB8402 		add	r2, r4, r4, lsl #2
 931 0010 5300     		lsls	r3, r2, #1
 932 0012 0F4A     		ldr	r2, .L66
 933 0014 1344     		add	r3, r3, r2
 934 0016 1B7A     		ldrb	r3, [r3, #8]	@ zero_extendqisi2
 935 0018 93B9     		cbnz	r3, .L63
 308:..\lvgl\lv_core/lv_refr.c **** #endif
 936              		.loc 1 308 0
 937 001a 1646     		mov	r6, r2
 938 001c 04EB8403 		add	r3, r4, r4, lsl #2
 939 0020 5800     		lsls	r0, r3, #1
 940 0022 1518     		adds	r5, r2, r0
 941 0024 2846     		mov	r0, r5
 942 0026 FFF7FEFF 		bl	lv_refr_area_with_vdb
 943              	.LVL132:
 310:..\lvgl\lv_core/lv_refr.c ****         }
 944              		.loc 1 310 0
 945 002a D6F84C31 		ldr	r3, [r6, #332]
 946 002e 3BB1     		cbz	r3, .L63
 310:..\lvgl\lv_core/lv_refr.c ****         }
 947              		.loc 1 310 0 is_stmt 0 discriminator 1
 948 0030 2846     		mov	r0, r5
 949 0032 FFF7FEFF 		bl	lv_area_get_size
 950              	.LVL133:
 951 0036 D6F84831 		ldr	r3, [r6, #328]
 952 003a 1844     		add	r0, r0, r3
 953 003c C6F84801 		str	r0, [r6, #328]
 954              	.L63:
 300:..\lvgl\lv_core/lv_refr.c ****         /*Refresh the unjoined areas*/
 955              		.loc 1 300 0 is_stmt 1 discriminator 2
 956 0040 0134     		adds	r4, r4, #1
 957              	.LVL134:
 958              	.L62:
 300:..\lvgl\lv_core/lv_refr.c ****         /*Refresh the unjoined areas*/
 959              		.loc 1 300 0 is_stmt 0 discriminator 1
 960 0042 034B     		ldr	r3, .L66
 961 0044 B3F84031 		ldrh	r3, [r3, #320]
 962 0048 9C42     		cmp	r4, r3
 963 004a DFD3     		bcc	.L64
 314:..\lvgl\lv_core/lv_refr.c **** 
 964              		.loc 1 314 0 is_stmt 1
 965 004c 70BD     		pop	{r4, r5, r6, pc}
 966              	.LVL135:
ARM GAS  C:\Users\d3bug\AppData\Local\Temp\ccH2B58W.s 			page 32


 967              	.L67:
 968 004e 00BF     		.align	2
 969              	.L66:
 970 0050 00000000 		.word	.LANCHOR0
 971              		.cfi_endproc
 972              	.LFE21:
 973              		.size	lv_refr_areas, .-lv_refr_areas
 974              		.section	.text.lv_refr_task,"ax",%progbits
 975              		.align	2
 976              		.thumb
 977              		.thumb_func
 978              		.type	lv_refr_task, %function
 979              	lv_refr_task:
 980              	.LFB19:
 184:..\lvgl\lv_core/lv_refr.c ****     (void)param;
 981              		.loc 1 184 0
 982              		.cfi_startproc
 983              		@ args = 0, pretend = 0, frame = 0
 984              		@ frame_needed = 0, uses_anonymous_args = 0
 985              	.LVL136:
 986 0000 38B5     		push	{r3, r4, r5, lr}
 987              		.cfi_def_cfa_offset 16
 988              		.cfi_offset 3, -16
 989              		.cfi_offset 4, -12
 990              		.cfi_offset 5, -8
 991              		.cfi_offset 14, -4
 187:..\lvgl\lv_core/lv_refr.c **** 
 992              		.loc 1 187 0
 993 0002 1A4B     		ldr	r3, .L73
 994 0004 BB22     		movs	r2, #187
 995 0006 1A49     		ldr	r1, .L73+4
 996 0008 0020     		movs	r0, #0
 997              	.LVL137:
 998 000a FFF7FEFF 		bl	lv_log_add
 999              	.LVL138:
 189:..\lvgl\lv_core/lv_refr.c **** 
 1000              		.loc 1 189 0
 1001 000e FFF7FEFF 		bl	lv_tick_get
 1002              	.LVL139:
 1003 0012 0446     		mov	r4, r0
 1004              	.LVL140:
 191:..\lvgl\lv_core/lv_refr.c ****         LV_LOG_TRACE("No display is registered");
 1005              		.loc 1 191 0
 1006 0014 FFF7FEFF 		bl	lv_disp_get_active
 1007              	.LVL141:
 1008 0018 28B9     		cbnz	r0, .L69
 192:..\lvgl\lv_core/lv_refr.c ****         return;
 1009              		.loc 1 192 0
 1010 001a 164B     		ldr	r3, .L73+8
 1011 001c C022     		movs	r2, #192
 1012 001e 1449     		ldr	r1, .L73+4
 1013 0020 FFF7FEFF 		bl	lv_log_add
 1014              	.LVL142:
 193:..\lvgl\lv_core/lv_refr.c ****     }
 1015              		.loc 1 193 0
 1016 0024 38BD     		pop	{r3, r4, r5, pc}
 1017              	.LVL143:
ARM GAS  C:\Users\d3bug\AppData\Local\Temp\ccH2B58W.s 			page 33


 1018              	.L69:
 196:..\lvgl\lv_core/lv_refr.c **** 
 1019              		.loc 1 196 0
 1020 0026 FFF7FEFF 		bl	lv_refr_join_area
 1021              	.LVL144:
 198:..\lvgl\lv_core/lv_refr.c **** 
 1022              		.loc 1 198 0
 1023 002a FFF7FEFF 		bl	lv_refr_areas
 1024              	.LVL145:
 201:..\lvgl\lv_core/lv_refr.c **** 
 1025              		.loc 1 201 0
 1026 002e 124B     		ldr	r3, .L73+12
 1027 0030 B3F84031 		ldrh	r3, [r3, #320]
 1028 0034 9BB1     		cbz	r3, .L71
 240:..\lvgl\lv_core/lv_refr.c ****         inv_buf_p = 0;
 1029              		.loc 1 240 0
 1030 0036 104D     		ldr	r5, .L73+12
 1031 0038 4FF4A072 		mov	r2, #320
 1032 003c 0021     		movs	r1, #0
 1033 003e 2846     		mov	r0, r5
 1034 0040 FFF7FEFF 		bl	memset
 1035              	.LVL146:
 241:..\lvgl\lv_core/lv_refr.c **** 
 1036              		.loc 1 241 0
 1037 0044 0023     		movs	r3, #0
 1038 0046 A5F84031 		strh	r3, [r5, #320]	@ movhi
 244:..\lvgl\lv_core/lv_refr.c ****             monitor_cb(lv_tick_elaps(start), px_num);
 1039              		.loc 1 244 0
 1040 004a D5F84C51 		ldr	r5, [r5, #332]
 1041 004e 35B1     		cbz	r5, .L71
 245:..\lvgl\lv_core/lv_refr.c ****         }
 1042              		.loc 1 245 0
 1043 0050 2046     		mov	r0, r4
 1044 0052 FFF7FEFF 		bl	lv_tick_elaps
 1045              	.LVL147:
 1046 0056 084B     		ldr	r3, .L73+12
 1047 0058 D3F84811 		ldr	r1, [r3, #328]
 1048 005c A847     		blx	r5
 1049              	.LVL148:
 1050              	.L71:
 249:..\lvgl\lv_core/lv_refr.c **** }
 1051              		.loc 1 249 0
 1052 005e 074B     		ldr	r3, .L73+16
 1053 0060 F922     		movs	r2, #249
 1054 0062 0349     		ldr	r1, .L73+4
 1055 0064 0020     		movs	r0, #0
 1056 0066 FFF7FEFF 		bl	lv_log_add
 1057              	.LVL149:
 1058 006a 38BD     		pop	{r3, r4, r5, pc}
 1059              	.LVL150:
 1060              	.L74:
 1061              		.align	2
 1062              	.L73:
 1063 006c 80000000 		.word	.LC3
 1064 0070 14000000 		.word	.LC1
 1065 0074 A0000000 		.word	.LC4
 1066 0078 00000000 		.word	.LANCHOR0
ARM GAS  C:\Users\d3bug\AppData\Local\Temp\ccH2B58W.s 			page 34


 1067 007c BC000000 		.word	.LC5
 1068              		.cfi_endproc
 1069              	.LFE19:
 1070              		.size	lv_refr_task, .-lv_refr_task
 1071              		.section	.text.lv_refr_init,"ax",%progbits
 1072              		.align	2
 1073              		.global	lv_refr_init
 1074              		.thumb
 1075              		.thumb_func
 1076              		.type	lv_refr_init, %function
 1077              	lv_refr_init:
 1078              	.LFB12:
  69:..\lvgl\lv_core/lv_refr.c ****     inv_buf_p = 0;
 1079              		.loc 1 69 0
 1080              		.cfi_startproc
 1081              		@ args = 0, pretend = 0, frame = 0
 1082              		@ frame_needed = 0, uses_anonymous_args = 0
 1083 0000 10B5     		push	{r4, lr}
 1084              		.cfi_def_cfa_offset 8
 1085              		.cfi_offset 4, -8
 1086              		.cfi_offset 14, -4
  70:..\lvgl\lv_core/lv_refr.c ****     memset(inv_buf, 0, sizeof(inv_buf));
 1087              		.loc 1 70 0
 1088 0002 0948     		ldr	r0, .L77
 1089 0004 0024     		movs	r4, #0
 1090 0006 A0F84041 		strh	r4, [r0, #320]	@ movhi
  71:..\lvgl\lv_core/lv_refr.c **** 
 1091              		.loc 1 71 0
 1092 000a 4FF4A072 		mov	r2, #320
 1093 000e 2146     		mov	r1, r4
 1094 0010 FFF7FEFF 		bl	memset
 1095              	.LVL151:
  74:..\lvgl\lv_core/lv_refr.c ****     lv_task_ready(task);        /*Be sure the screen will be refreshed immediately on start up*/
 1096              		.loc 1 74 0
 1097 0014 2346     		mov	r3, r4
 1098 0016 0322     		movs	r2, #3
 1099 0018 1E21     		movs	r1, #30
 1100 001a 0448     		ldr	r0, .L77+4
 1101 001c FFF7FEFF 		bl	lv_task_create
 1102              	.LVL152:
  75:..\lvgl\lv_core/lv_refr.c **** }
 1103              		.loc 1 75 0
 1104 0020 FFF7FEFF 		bl	lv_task_ready
 1105              	.LVL153:
 1106 0024 10BD     		pop	{r4, pc}
 1107              	.L78:
 1108 0026 00BF     		.align	2
 1109              	.L77:
 1110 0028 00000000 		.word	.LANCHOR0
 1111 002c 00000000 		.word	lv_refr_task
 1112              		.cfi_endproc
 1113              	.LFE12:
 1114              		.size	lv_refr_init, .-lv_refr_init
 1115              		.section	.text.lv_refr_now,"ax",%progbits
 1116              		.align	2
 1117              		.global	lv_refr_now
 1118              		.thumb
ARM GAS  C:\Users\d3bug\AppData\Local\Temp\ccH2B58W.s 			page 35


 1119              		.thumb_func
 1120              		.type	lv_refr_now, %function
 1121              	lv_refr_now:
 1122              	.LFB13:
  85:..\lvgl\lv_core/lv_refr.c ****     lv_refr_task(NULL);
 1123              		.loc 1 85 0
 1124              		.cfi_startproc
 1125              		@ args = 0, pretend = 0, frame = 0
 1126              		@ frame_needed = 0, uses_anonymous_args = 0
 1127 0000 08B5     		push	{r3, lr}
 1128              		.cfi_def_cfa_offset 8
 1129              		.cfi_offset 3, -8
 1130              		.cfi_offset 14, -4
  86:..\lvgl\lv_core/lv_refr.c **** }
 1131              		.loc 1 86 0
 1132 0002 0020     		movs	r0, #0
 1133 0004 FFF7FEFF 		bl	lv_refr_task
 1134              	.LVL154:
 1135 0008 08BD     		pop	{r3, pc}
 1136              		.cfi_endproc
 1137              	.LFE13:
 1138              		.size	lv_refr_now, .-lv_refr_now
 1139 000a 00BF     		.section	.text.lv_inv_area,"ax",%progbits
 1140              		.align	2
 1141              		.global	lv_inv_area
 1142              		.thumb
 1143              		.thumb_func
 1144              		.type	lv_inv_area, %function
 1145              	lv_inv_area:
 1146              	.LFB14:
  95:..\lvgl\lv_core/lv_refr.c ****     /*Clear the invalidate buffer if the parameter is NULL*/
 1147              		.loc 1 95 0
 1148              		.cfi_startproc
 1149              		@ args = 0, pretend = 0, frame = 16
 1150              		@ frame_needed = 0, uses_anonymous_args = 0
 1151              	.LVL155:
  97:..\lvgl\lv_core/lv_refr.c ****         inv_buf_p = 0;
 1152              		.loc 1 97 0
 1153 0000 20B9     		cbnz	r0, .L82
  98:..\lvgl\lv_core/lv_refr.c ****         return;
 1154              		.loc 1 98 0
 1155 0002 0022     		movs	r2, #0
 1156 0004 254B     		ldr	r3, .L92
 1157 0006 A3F84021 		strh	r2, [r3, #320]	@ movhi
 1158 000a 7047     		bx	lr
 1159              	.L82:
  95:..\lvgl\lv_core/lv_refr.c ****     /*Clear the invalidate buffer if the parameter is NULL*/
 1160              		.loc 1 95 0
 1161 000c 30B5     		push	{r4, r5, lr}
 1162              		.cfi_def_cfa_offset 12
 1163              		.cfi_offset 4, -12
 1164              		.cfi_offset 5, -8
 1165              		.cfi_offset 14, -4
 1166 000e 85B0     		sub	sp, sp, #20
 1167              		.cfi_def_cfa_offset 32
 1168 0010 0146     		mov	r1, r0
 103:..\lvgl\lv_core/lv_refr.c ****     scr_area.y1 = 0;
ARM GAS  C:\Users\d3bug\AppData\Local\Temp\ccH2B58W.s 			page 36


 1169              		.loc 1 103 0
 1170 0012 0023     		movs	r3, #0
 1171 0014 ADF80830 		strh	r3, [sp, #8]	@ movhi
 104:..\lvgl\lv_core/lv_refr.c ****     scr_area.x2 = LV_HOR_RES - 1;
 1172              		.loc 1 104 0
 1173 0018 ADF80A30 		strh	r3, [sp, #10]	@ movhi
 105:..\lvgl\lv_core/lv_refr.c ****     scr_area.y2 = LV_VER_RES - 1;
 1174              		.loc 1 105 0
 1175 001c 7F23     		movs	r3, #127
 1176 001e ADF80C30 		strh	r3, [sp, #12]	@ movhi
 106:..\lvgl\lv_core/lv_refr.c **** 
 1177              		.loc 1 106 0
 1178 0022 3F23     		movs	r3, #63
 1179 0024 ADF80E30 		strh	r3, [sp, #14]	@ movhi
 111:..\lvgl\lv_core/lv_refr.c **** 
 1180              		.loc 1 111 0
 1181 0028 02AA     		add	r2, sp, #8
 1182 002a 6846     		mov	r0, sp
 1183              	.LVL156:
 1184 002c FFF7FEFF 		bl	lv_area_intersect
 1185              	.LVL157:
 114:..\lvgl\lv_core/lv_refr.c ****         if(round_cb) round_cb(&com_area);
 1186              		.loc 1 114 0
 1187 0030 90B3     		cbz	r0, .L81
 1188              	.LBB32:
 115:..\lvgl\lv_core/lv_refr.c **** 
 1189              		.loc 1 115 0
 1190 0032 1A4B     		ldr	r3, .L92
 1191 0034 D3F84431 		ldr	r3, [r3, #324]
 1192 0038 0BB1     		cbz	r3, .L85
 115:..\lvgl\lv_core/lv_refr.c **** 
 1193              		.loc 1 115 0 is_stmt 0 discriminator 1
 1194 003a 6846     		mov	r0, sp
 1195              	.LVL158:
 1196 003c 9847     		blx	r3
 1197              	.LVL159:
 1198              	.L85:
 1199              	.LBE32:
  95:..\lvgl\lv_core/lv_refr.c ****     /*Clear the invalidate buffer if the parameter is NULL*/
 1200              		.loc 1 95 0 is_stmt 1 discriminator 1
 1201 003e 0024     		movs	r4, #0
 1202 0040 0AE0     		b	.L86
 1203              	.LVL160:
 1204              	.L87:
 1205              	.LBB37:
 120:..\lvgl\lv_core/lv_refr.c ****         }
 1206              		.loc 1 120 0
 1207 0042 04EB8402 		add	r2, r4, r4, lsl #2
 1208 0046 5300     		lsls	r3, r2, #1
 1209 0048 1449     		ldr	r1, .L92
 1210 004a 1944     		add	r1, r1, r3
 1211 004c 6846     		mov	r0, sp
 1212 004e FFF7FEFF 		bl	lv_area_is_in
 1213              	.LVL161:
 1214 0052 08BB     		cbnz	r0, .L81
 119:..\lvgl\lv_core/lv_refr.c ****             if(lv_area_is_in(&com_area, &inv_buf[i].area) != false) return;
 1215              		.loc 1 119 0 discriminator 2
ARM GAS  C:\Users\d3bug\AppData\Local\Temp\ccH2B58W.s 			page 37


 1216 0054 0134     		adds	r4, r4, #1
 1217              	.LVL162:
 1218 0056 A4B2     		uxth	r4, r4
 1219              	.LVL163:
 1220              	.L86:
 119:..\lvgl\lv_core/lv_refr.c ****             if(lv_area_is_in(&com_area, &inv_buf[i].area) != false) return;
 1221              		.loc 1 119 0 is_stmt 0 discriminator 1
 1222 0058 104B     		ldr	r3, .L92
 1223 005a B3F84031 		ldrh	r3, [r3, #320]
 1224 005e 9C42     		cmp	r4, r3
 1225 0060 EFD3     		bcc	.L87
 124:..\lvgl\lv_core/lv_refr.c ****             lv_area_copy(&inv_buf[inv_buf_p].area, &com_area);
 1226              		.loc 1 124 0 is_stmt 1
 1227 0062 1F2B     		cmp	r3, #31
 1228 0064 09D8     		bhi	.L88
 125:..\lvgl\lv_core/lv_refr.c ****         } else {/*If no place for the area add the screen*/
 1229              		.loc 1 125 0
 1230 0066 0D4C     		ldr	r4, .L92
 1231              	.LVL164:
 1232 0068 03EB8303 		add	r3, r3, r3, lsl #2
 1233 006c 5A00     		lsls	r2, r3, #1
 1234 006e A518     		adds	r5, r4, r2
 1235              	.LVL165:
 1236              	.LBB33:
 1237              	.LBB34:
  67:..\lvgl\lv_core\../lv_misc/lv_area.h **** }
 1238              		.loc 2 67 0
 1239 0070 6B46     		mov	r3, sp
 1240 0072 03CB     		ldmia	r3!, {r0, r1}
 1241 0074 A050     		str	r0, [r4, r2]	@ unaligned
 1242 0076 6960     		str	r1, [r5, #4]	@ unaligned
 1243 0078 08E0     		b	.L89
 1244              	.LVL166:
 1245              	.L88:
 1246              	.LBE34:
 1247              	.LBE33:
 127:..\lvgl\lv_core/lv_refr.c ****             lv_area_copy(&inv_buf[inv_buf_p].area, &scr_area);
 1248              		.loc 1 127 0
 1249 007a 084B     		ldr	r3, .L92
 1250 007c 0022     		movs	r2, #0
 1251 007e A3F84021 		strh	r2, [r3, #320]	@ movhi
 1252              	.LVL167:
 1253              	.LBB35:
 1254              	.LBB36:
  67:..\lvgl\lv_core\../lv_misc/lv_area.h **** }
 1255              		.loc 2 67 0
 1256 0082 04AA     		add	r2, sp, #16
 1257 0084 12E90300 		ldmdb	r2, {r0, r1}
 1258 0088 83E80300 		stmia	r3, {r0, r1}
 1259              	.LVL168:
 1260              	.L89:
 1261              	.LBE36:
 1262              	.LBE35:
 130:..\lvgl\lv_core/lv_refr.c ****     }
 1263              		.loc 1 130 0
 1264 008c 034A     		ldr	r2, .L92
 1265 008e B2F84031 		ldrh	r3, [r2, #320]
ARM GAS  C:\Users\d3bug\AppData\Local\Temp\ccH2B58W.s 			page 38


 1266 0092 0133     		adds	r3, r3, #1
 1267 0094 A2F84031 		strh	r3, [r2, #320]	@ movhi
 1268              	.L81:
 1269              	.LBE37:
 132:..\lvgl\lv_core/lv_refr.c **** 
 1270              		.loc 1 132 0
 1271 0098 05B0     		add	sp, sp, #20
 1272              		.cfi_def_cfa_offset 12
 1273              		@ sp needed
 1274 009a 30BD     		pop	{r4, r5, pc}
 1275              	.L93:
 1276              		.align	2
 1277              	.L92:
 1278 009c 00000000 		.word	.LANCHOR0
 1279              		.cfi_endproc
 1280              	.LFE14:
 1281              		.size	lv_inv_area, .-lv_inv_area
 1282              		.section	.text.lv_refr_set_monitor_cb,"ax",%progbits
 1283              		.align	2
 1284              		.global	lv_refr_set_monitor_cb
 1285              		.thumb
 1286              		.thumb_func
 1287              		.type	lv_refr_set_monitor_cb, %function
 1288              	lv_refr_set_monitor_cb:
 1289              	.LFB15:
 142:..\lvgl\lv_core/lv_refr.c ****     monitor_cb = cb;
 1290              		.loc 1 142 0
 1291              		.cfi_startproc
 1292              		@ args = 0, pretend = 0, frame = 0
 1293              		@ frame_needed = 0, uses_anonymous_args = 0
 1294              		@ link register save eliminated.
 1295              	.LVL169:
 143:..\lvgl\lv_core/lv_refr.c **** }
 1296              		.loc 1 143 0
 1297 0000 014B     		ldr	r3, .L95
 1298 0002 C3F84C01 		str	r0, [r3, #332]
 1299 0006 7047     		bx	lr
 1300              	.L96:
 1301              		.align	2
 1302              	.L95:
 1303 0008 00000000 		.word	.LANCHOR0
 1304              		.cfi_endproc
 1305              	.LFE15:
 1306              		.size	lv_refr_set_monitor_cb, .-lv_refr_set_monitor_cb
 1307              		.section	.text.lv_refr_set_round_cb,"ax",%progbits
 1308              		.align	2
 1309              		.global	lv_refr_set_round_cb
 1310              		.thumb
 1311              		.thumb_func
 1312              		.type	lv_refr_set_round_cb, %function
 1313              	lv_refr_set_round_cb:
 1314              	.LFB16:
 152:..\lvgl\lv_core/lv_refr.c ****     round_cb = cb;
 1315              		.loc 1 152 0
 1316              		.cfi_startproc
 1317              		@ args = 0, pretend = 0, frame = 0
 1318              		@ frame_needed = 0, uses_anonymous_args = 0
ARM GAS  C:\Users\d3bug\AppData\Local\Temp\ccH2B58W.s 			page 39


 1319              		@ link register save eliminated.
 1320              	.LVL170:
 153:..\lvgl\lv_core/lv_refr.c **** }
 1321              		.loc 1 153 0
 1322 0000 014B     		ldr	r3, .L98
 1323 0002 C3F84401 		str	r0, [r3, #324]
 1324 0006 7047     		bx	lr
 1325              	.L99:
 1326              		.align	2
 1327              	.L98:
 1328 0008 00000000 		.word	.LANCHOR0
 1329              		.cfi_endproc
 1330              	.LFE16:
 1331              		.size	lv_refr_set_round_cb, .-lv_refr_set_round_cb
 1332              		.section	.text.lv_refr_get_buf_size,"ax",%progbits
 1333              		.align	2
 1334              		.global	lv_refr_get_buf_size
 1335              		.thumb
 1336              		.thumb_func
 1337              		.type	lv_refr_get_buf_size, %function
 1338              	lv_refr_get_buf_size:
 1339              	.LFB17:
 161:..\lvgl\lv_core/lv_refr.c ****     return inv_buf_p;
 1340              		.loc 1 161 0
 1341              		.cfi_startproc
 1342              		@ args = 0, pretend = 0, frame = 0
 1343              		@ frame_needed = 0, uses_anonymous_args = 0
 1344              		@ link register save eliminated.
 163:..\lvgl\lv_core/lv_refr.c **** 
 1345              		.loc 1 163 0
 1346 0000 014B     		ldr	r3, .L101
 1347 0002 B3F84001 		ldrh	r0, [r3, #320]
 1348 0006 7047     		bx	lr
 1349              	.L102:
 1350              		.align	2
 1351              	.L101:
 1352 0008 00000000 		.word	.LANCHOR0
 1353              		.cfi_endproc
 1354              	.LFE17:
 1355              		.size	lv_refr_get_buf_size, .-lv_refr_get_buf_size
 1356              		.section	.text.lv_refr_pop_from_buf,"ax",%progbits
 1357              		.align	2
 1358              		.global	lv_refr_pop_from_buf
 1359              		.thumb
 1360              		.thumb_func
 1361              		.type	lv_refr_pop_from_buf, %function
 1362              	lv_refr_pop_from_buf:
 1363              	.LFB18:
 170:..\lvgl\lv_core/lv_refr.c ****     if(inv_buf_p < num) inv_buf_p = 0;
 1364              		.loc 1 170 0
 1365              		.cfi_startproc
 1366              		@ args = 0, pretend = 0, frame = 0
 1367              		@ frame_needed = 0, uses_anonymous_args = 0
 1368              		@ link register save eliminated.
 1369              	.LVL171:
 171:..\lvgl\lv_core/lv_refr.c ****     else inv_buf_p -= num;
 1370              		.loc 1 171 0
ARM GAS  C:\Users\d3bug\AppData\Local\Temp\ccH2B58W.s 			page 40


 1371 0000 074B     		ldr	r3, .L106
 1372 0002 B3F84031 		ldrh	r3, [r3, #320]
 1373 0006 8342     		cmp	r3, r0
 1374 0008 04D2     		bcs	.L104
 171:..\lvgl\lv_core/lv_refr.c ****     else inv_buf_p -= num;
 1375              		.loc 1 171 0 is_stmt 0 discriminator 1
 1376 000a 0022     		movs	r2, #0
 1377 000c 044B     		ldr	r3, .L106
 1378 000e A3F84021 		strh	r2, [r3, #320]	@ movhi
 1379 0012 7047     		bx	lr
 1380              	.L104:
 172:..\lvgl\lv_core/lv_refr.c **** }
 1381              		.loc 1 172 0 is_stmt 1
 1382 0014 1B1A     		subs	r3, r3, r0
 1383 0016 024A     		ldr	r2, .L106
 1384 0018 A2F84031 		strh	r3, [r2, #320]	@ movhi
 1385 001c 7047     		bx	lr
 1386              	.L107:
 1387 001e 00BF     		.align	2
 1388              	.L106:
 1389 0020 00000000 		.word	.LANCHOR0
 1390              		.cfi_endproc
 1391              	.LFE18:
 1392              		.size	lv_refr_pop_from_buf, .-lv_refr_pop_from_buf
 1393              		.section	.rodata.str1.4,"aMS",%progbits,1
 1394              		.align	2
 1395              	.LC0:
 1396 0000 496E7661 		.ascii	"Invalid VDB pointer\000"
 1396      6C696420 
 1396      56444220 
 1396      706F696E 
 1396      74657200 
 1397              	.LC1:
 1398 0014 2E2E5C6C 		.ascii	"..\\lvgl\\lv_core\\lv_refr.c\000"
 1398      76676C5C 
 1398      6C765F63 
 1398      6F72655C 
 1398      6C765F72 
 1399 002e 0000     		.space	2
 1400              	.LC2:
 1401 0030 43616E27 		.ascii	"Can't set VDB height using the round function. (Wro"
 1401      74207365 
 1401      74205644 
 1401      42206865 
 1401      69676874 
 1402 0063 6E672072 		.ascii	"ng round_cb or to small VDB)\000"
 1402      6F756E64 
 1402      5F636220 
 1402      6F722074 
 1402      6F20736D 
 1403              	.LC3:
 1404 0080 64697370 		.ascii	"display refresh task started\000"
 1404      6C617920 
 1404      72656672 
 1404      65736820 
 1404      7461736B 
 1405 009d 000000   		.space	3
ARM GAS  C:\Users\d3bug\AppData\Local\Temp\ccH2B58W.s 			page 41


 1406              	.LC4:
 1407 00a0 4E6F2064 		.ascii	"No display is registered\000"
 1407      6973706C 
 1407      61792069 
 1407      73207265 
 1407      67697374 
 1408 00b9 000000   		.space	3
 1409              	.LC5:
 1410 00bc 64697370 		.ascii	"display refresh task finished\000"
 1410      6C617920 
 1410      72656672 
 1410      65736820 
 1410      7461736B 
 1411              		.bss
 1412              		.align	2
 1413              		.set	.LANCHOR0,. + 0
 1414              		.type	inv_buf, %object
 1415              		.size	inv_buf, 320
 1416              	inv_buf:
 1417 0000 00000000 		.space	320
 1417      00000000 
 1417      00000000 
 1417      00000000 
 1417      00000000 
 1418              		.type	inv_buf_p, %object
 1419              		.size	inv_buf_p, 2
 1420              	inv_buf_p:
 1421 0140 0000     		.space	2
 1422 0142 0000     		.space	2
 1423              		.type	round_cb, %object
 1424              		.size	round_cb, 4
 1425              	round_cb:
 1426 0144 00000000 		.space	4
 1427              		.type	px_num, %object
 1428              		.size	px_num, 4
 1429              	px_num:
 1430 0148 00000000 		.space	4
 1431              		.type	monitor_cb, %object
 1432              		.size	monitor_cb, 4
 1433              	monitor_cb:
 1434 014c 00000000 		.space	4
 1435              		.text
 1436              	.Letext0:
 1437              		.file 3 "c:\\program files (x86)\\cypress\\psoc creator\\4.2\\psoc creator\\import\\gnu\\arm\\5.4.
 1438              		.file 4 "c:\\program files (x86)\\cypress\\psoc creator\\4.2\\psoc creator\\import\\gnu\\arm\\5.4.
 1439              		.file 5 "..\\lvgl\\lv_core\\../lv_misc/lv_color.h"
 1440              		.file 6 "..\\lvgl\\lv_core\\../lv_misc/lv_font.h"
 1441              		.file 7 "..\\lvgl\\lv_core\\lv_style.h"
 1442              		.file 8 "..\\lvgl\\lv_core\\../lv_misc/lv_ll.h"
 1443              		.file 9 "..\\lvgl\\lv_core\\lv_obj.h"
 1444              		.file 10 "..\\lvgl\\lv_core\\lv_vdb.h"
 1445              		.file 11 "..\\lvgl\\lv_core\\../lv_misc/lv_task.h"
 1446              		.file 12 "..\\lvgl\\lv_core\\../lv_misc/lv_log.h"
 1447              		.file 13 "..\\lvgl\\lv_core\\../lv_hal/lv_hal_tick.h"
 1448              		.file 14 "..\\lvgl\\lv_core\\../lv_hal/lv_hal_disp.h"