ARM GAS  C:\Users\d3bug\AppData\Local\Temp\cczXaDld.s 			page 1


   1              		.syntax unified
   2              		.cpu cortex-m3
   3              		.fpu softvfp
   4              		.eabi_attribute 20, 1
   5              		.eabi_attribute 21, 1
   6              		.eabi_attribute 23, 3
   7              		.eabi_attribute 24, 1
   8              		.eabi_attribute 25, 1
   9              		.eabi_attribute 26, 1
  10              		.eabi_attribute 30, 1
  11              		.eabi_attribute 34, 1
  12              		.eabi_attribute 18, 4
  13              		.thumb
  14              		.syntax unified
  15              		.file	"lv_style.c"
  16              		.text
  17              	.Ltext0:
  18              		.cfi_sections	.debug_frame
  19              		.section	.text.lv_style_init,"ax",%progbits
  20              		.align	2
  21              		.global	lv_style_init
  22              		.thumb
  23              		.thumb_func
  24              		.type	lv_style_init, %function
  25              	lv_style_init:
  26              	.LFB12:
  27              		.file 1 "..\\lvgl\\lv_core\\lv_style.c"
   1:..\lvgl\lv_core/lv_style.c **** /**
   2:..\lvgl\lv_core/lv_style.c ****  * @file lv_style.c
   3:..\lvgl\lv_core/lv_style.c ****  *
   4:..\lvgl\lv_core/lv_style.c ****  */
   5:..\lvgl\lv_core/lv_style.c **** 
   6:..\lvgl\lv_core/lv_style.c **** /*********************
   7:..\lvgl\lv_core/lv_style.c ****  *      INCLUDES
   8:..\lvgl\lv_core/lv_style.c ****  *********************/
   9:..\lvgl\lv_core/lv_style.c **** #include "lv_obj.h"
  10:..\lvgl\lv_core/lv_style.c **** #include "../lv_misc/lv_mem.h"
  11:..\lvgl\lv_core/lv_style.c **** 
  12:..\lvgl\lv_core/lv_style.c **** /*********************
  13:..\lvgl\lv_core/lv_style.c ****  *      DEFINES
  14:..\lvgl\lv_core/lv_style.c ****  *********************/
  15:..\lvgl\lv_core/lv_style.c **** #define STYLE_MIX_MAX       256
  16:..\lvgl\lv_core/lv_style.c **** #define STYLE_MIX_SHIFT     8      /*log2(STYLE_MIX_MAX)*/
  17:..\lvgl\lv_core/lv_style.c **** 
  18:..\lvgl\lv_core/lv_style.c **** #define VAL_PROP(v1, v2, r)   v1 + (((v2-v1) * r) >> STYLE_MIX_SHIFT)
  19:..\lvgl\lv_core/lv_style.c **** #define STYLE_ATTR_MIX(attr, r)   if(start->attr != end->attr) {res->attr = VAL_PROP(start->attr, e
  20:..\lvgl\lv_core/lv_style.c **** 
  21:..\lvgl\lv_core/lv_style.c **** 
  22:..\lvgl\lv_core/lv_style.c **** /**********************
  23:..\lvgl\lv_core/lv_style.c ****  *      TYPEDEFS
  24:..\lvgl\lv_core/lv_style.c ****  **********************/
  25:..\lvgl\lv_core/lv_style.c **** #if USE_LV_ANIMATION
  26:..\lvgl\lv_core/lv_style.c **** typedef struct {
  27:..\lvgl\lv_core/lv_style.c ****     lv_style_t style_start;   /*Save not only pointers because can be same as 'style_anim' then it 
  28:..\lvgl\lv_core/lv_style.c ****     lv_style_t style_end;
  29:..\lvgl\lv_core/lv_style.c ****     lv_style_t * style_anim;
  30:..\lvgl\lv_core/lv_style.c ****     void (*end_cb)(void *);
ARM GAS  C:\Users\d3bug\AppData\Local\Temp\cczXaDld.s 			page 2


  31:..\lvgl\lv_core/lv_style.c **** } lv_style_anim_dsc_t;
  32:..\lvgl\lv_core/lv_style.c **** #endif
  33:..\lvgl\lv_core/lv_style.c **** 
  34:..\lvgl\lv_core/lv_style.c **** /**********************
  35:..\lvgl\lv_core/lv_style.c ****  *  STATIC PROTOTYPES
  36:..\lvgl\lv_core/lv_style.c ****  **********************/
  37:..\lvgl\lv_core/lv_style.c **** #if USE_LV_ANIMATION
  38:..\lvgl\lv_core/lv_style.c **** static void style_animator(lv_style_anim_dsc_t * dsc, int32_t val);
  39:..\lvgl\lv_core/lv_style.c **** static void style_animation_common_end_cb(void * ptr);
  40:..\lvgl\lv_core/lv_style.c **** #endif
  41:..\lvgl\lv_core/lv_style.c **** 
  42:..\lvgl\lv_core/lv_style.c **** /**********************
  43:..\lvgl\lv_core/lv_style.c ****  *  STATIC VARIABLES
  44:..\lvgl\lv_core/lv_style.c ****  **********************/
  45:..\lvgl\lv_core/lv_style.c **** lv_style_t lv_style_scr;
  46:..\lvgl\lv_core/lv_style.c **** lv_style_t lv_style_transp;
  47:..\lvgl\lv_core/lv_style.c **** lv_style_t lv_style_transp_fit;
  48:..\lvgl\lv_core/lv_style.c **** lv_style_t lv_style_transp_tight;
  49:..\lvgl\lv_core/lv_style.c **** lv_style_t lv_style_plain;
  50:..\lvgl\lv_core/lv_style.c **** lv_style_t lv_style_plain_color;
  51:..\lvgl\lv_core/lv_style.c **** lv_style_t lv_style_pretty;
  52:..\lvgl\lv_core/lv_style.c **** lv_style_t lv_style_pretty_color;
  53:..\lvgl\lv_core/lv_style.c **** lv_style_t lv_style_btn_rel;
  54:..\lvgl\lv_core/lv_style.c **** lv_style_t lv_style_btn_pr;
  55:..\lvgl\lv_core/lv_style.c **** lv_style_t lv_style_btn_tgl_rel;
  56:..\lvgl\lv_core/lv_style.c **** lv_style_t lv_style_btn_tgl_pr;
  57:..\lvgl\lv_core/lv_style.c **** lv_style_t lv_style_btn_ina;
  58:..\lvgl\lv_core/lv_style.c **** 
  59:..\lvgl\lv_core/lv_style.c **** /**********************
  60:..\lvgl\lv_core/lv_style.c ****  *      MACROS
  61:..\lvgl\lv_core/lv_style.c ****  **********************/
  62:..\lvgl\lv_core/lv_style.c **** 
  63:..\lvgl\lv_core/lv_style.c **** /**********************
  64:..\lvgl\lv_core/lv_style.c ****  *   GLOBAL FUNCTIONS
  65:..\lvgl\lv_core/lv_style.c ****  **********************/
  66:..\lvgl\lv_core/lv_style.c **** 
  67:..\lvgl\lv_core/lv_style.c **** /**
  68:..\lvgl\lv_core/lv_style.c ****  *  Init the basic styles
  69:..\lvgl\lv_core/lv_style.c ****  */
  70:..\lvgl\lv_core/lv_style.c **** void lv_style_init(void)
  71:..\lvgl\lv_core/lv_style.c **** {
  28              		.loc 1 71 0
  29              		.cfi_startproc
  30              		@ args = 0, pretend = 0, frame = 0
  31              		@ frame_needed = 0, uses_anonymous_args = 0
  32 0000 2DE9F04F 		push	{r4, r5, r6, r7, r8, r9, r10, fp, lr}
  33              		.cfi_def_cfa_offset 36
  34              		.cfi_offset 4, -36
  35              		.cfi_offset 5, -32
  36              		.cfi_offset 6, -28
  37              		.cfi_offset 7, -24
  38              		.cfi_offset 8, -20
  39              		.cfi_offset 9, -16
  40              		.cfi_offset 10, -12
  41              		.cfi_offset 11, -8
  42              		.cfi_offset 14, -4
  72:..\lvgl\lv_core/lv_style.c ****     /* Not White/Black/Gray colors are created by HSV model with
ARM GAS  C:\Users\d3bug\AppData\Local\Temp\cczXaDld.s 			page 3


  73:..\lvgl\lv_core/lv_style.c ****      * HUE = 210*/
  74:..\lvgl\lv_core/lv_style.c **** 
  75:..\lvgl\lv_core/lv_style.c ****     /*Screen style*/
  76:..\lvgl\lv_core/lv_style.c ****     lv_style_scr.glass = 0;
  43              		.loc 1 76 0
  44 0004 DB4B     		ldr	r3, .L3
  45 0006 1A78     		ldrb	r2, [r3]	@ zero_extendqisi2
  46 0008 6FF30002 		bfc	r2, #0, #1
  47 000c 1A70     		strb	r2, [r3]
  77:..\lvgl\lv_core/lv_style.c ****     lv_style_scr.body.opa = LV_OPA_COVER;
  48              		.loc 1 77 0
  49 000e FF22     		movs	r2, #255
  50 0010 9A71     		strb	r2, [r3, #6]
  78:..\lvgl\lv_core/lv_style.c ****     lv_style_scr.body.main_color = LV_COLOR_WHITE;
  51              		.loc 1 78 0
  52 0012 9978     		ldrb	r1, [r3, #2]	@ zero_extendqisi2
  53 0014 41F00101 		orr	r1, r1, #1
  54 0018 9970     		strb	r1, [r3, #2]
  79:..\lvgl\lv_core/lv_style.c ****     lv_style_scr.body.grad_color = LV_COLOR_WHITE;
  55              		.loc 1 79 0
  56 001a D978     		ldrb	r1, [r3, #3]	@ zero_extendqisi2
  57 001c 41F00101 		orr	r1, r1, #1
  58 0020 D970     		strb	r1, [r3, #3]
  80:..\lvgl\lv_core/lv_style.c ****     lv_style_scr.body.radius = 0;
  59              		.loc 1 80 0
  60 0022 0026     		movs	r6, #0
  61 0024 9E80     		strh	r6, [r3, #4]	@ movhi
  81:..\lvgl\lv_core/lv_style.c ****     lv_style_scr.body.padding.ver = LV_DPI / 12;
  62              		.loc 1 81 0
  63 0026 0821     		movs	r1, #8
  64 0028 9982     		strh	r1, [r3, #20]	@ movhi
  82:..\lvgl\lv_core/lv_style.c ****     lv_style_scr.body.padding.hor = LV_DPI / 12;
  65              		.loc 1 82 0
  66 002a D982     		strh	r1, [r3, #22]	@ movhi
  83:..\lvgl\lv_core/lv_style.c ****     lv_style_scr.body.padding.inner = LV_DPI / 12;
  67              		.loc 1 83 0
  68 002c 1983     		strh	r1, [r3, #24]	@ movhi
  84:..\lvgl\lv_core/lv_style.c **** 
  85:..\lvgl\lv_core/lv_style.c ****     lv_style_scr.body.border.color = LV_COLOR_BLACK;
  69              		.loc 1 85 0
  70 002e 197A     		ldrb	r1, [r3, #8]	@ zero_extendqisi2
  71 0030 66F30001 		bfi	r1, r6, #0, #1
  72 0034 1972     		strb	r1, [r3, #8]
  86:..\lvgl\lv_core/lv_style.c ****     lv_style_scr.body.border.opa = LV_OPA_COVER;
  73              		.loc 1 86 0
  74 0036 5A73     		strb	r2, [r3, #13]
  87:..\lvgl\lv_core/lv_style.c ****     lv_style_scr.body.border.width = 0;
  75              		.loc 1 87 0
  76 0038 5E81     		strh	r6, [r3, #10]	@ movhi
  88:..\lvgl\lv_core/lv_style.c ****     lv_style_scr.body.border.part = LV_BORDER_FULL;
  77              		.loc 1 88 0
  78 003a 0F21     		movs	r1, #15
  79 003c 1973     		strb	r1, [r3, #12]
  89:..\lvgl\lv_core/lv_style.c **** 
  90:..\lvgl\lv_core/lv_style.c ****     lv_style_scr.body.shadow.color = LV_COLOR_GRAY;
  80              		.loc 1 90 0
  81 003e 997B     		ldrb	r1, [r3, #14]	@ zero_extendqisi2
ARM GAS  C:\Users\d3bug\AppData\Local\Temp\cczXaDld.s 			page 4


  82 0040 41F00101 		orr	r1, r1, #1
  83 0044 9973     		strb	r1, [r3, #14]
  91:..\lvgl\lv_core/lv_style.c ****     lv_style_scr.body.shadow.type = LV_SHADOW_FULL;
  84              		.loc 1 91 0
  85 0046 0121     		movs	r1, #1
  86 0048 9974     		strb	r1, [r3, #18]
  92:..\lvgl\lv_core/lv_style.c ****     lv_style_scr.body.shadow.width = 0;
  87              		.loc 1 92 0
  88 004a 1E82     		strh	r6, [r3, #16]	@ movhi
  93:..\lvgl\lv_core/lv_style.c **** 
  94:..\lvgl\lv_core/lv_style.c ****     lv_style_scr.text.opa = LV_OPA_COVER;
  89              		.loc 1 94 0
  90 004c 83F82820 		strb	r2, [r3, #40]
  95:..\lvgl\lv_core/lv_style.c ****     lv_style_scr.text.color = LV_COLOR_MAKE(0x30, 0x30, 0x30);
  91              		.loc 1 95 0
  92 0050 197F     		ldrb	r1, [r3, #28]	@ zero_extendqisi2
  93 0052 66F30001 		bfi	r1, r6, #0, #1
  94 0056 1977     		strb	r1, [r3, #28]
  96:..\lvgl\lv_core/lv_style.c ****     lv_style_scr.text.font = LV_FONT_DEFAULT;
  95              		.loc 1 96 0
  96 0058 C749     		ldr	r1, .L3+4
  97 005a 1962     		str	r1, [r3, #32]
  97:..\lvgl\lv_core/lv_style.c ****     lv_style_scr.text.letter_space = 2;
  98              		.loc 1 97 0
  99 005c 4FF0020E 		mov	lr, #2
 100 0060 A3F824E0 		strh	lr, [r3, #36]	@ movhi
  98:..\lvgl\lv_core/lv_style.c ****     lv_style_scr.text.line_space = 2;
 101              		.loc 1 98 0
 102 0064 A3F826E0 		strh	lr, [r3, #38]	@ movhi
  99:..\lvgl\lv_core/lv_style.c **** 
 100:..\lvgl\lv_core/lv_style.c ****     lv_style_scr.image.opa = LV_OPA_COVER;
 103              		.loc 1 100 0
 104 0068 83F82E20 		strb	r2, [r3, #46]
 101:..\lvgl\lv_core/lv_style.c ****     lv_style_scr.image.color = LV_COLOR_MAKE(0x20, 0x20, 0x20);
 105              		.loc 1 101 0
 106 006c 93F82C10 		ldrb	r1, [r3, #44]	@ zero_extendqisi2
 107 0070 66F30001 		bfi	r1, r6, #0, #1
 108 0074 83F82C10 		strb	r1, [r3, #44]
 102:..\lvgl\lv_core/lv_style.c ****     lv_style_scr.image.intense = LV_OPA_TRANSP;
 109              		.loc 1 102 0
 110 0078 83F82D60 		strb	r6, [r3, #45]
 103:..\lvgl\lv_core/lv_style.c **** 
 104:..\lvgl\lv_core/lv_style.c ****     lv_style_scr.line.opa = LV_OPA_COVER;
 111              		.loc 1 104 0
 112 007c 83F83420 		strb	r2, [r3, #52]
 105:..\lvgl\lv_core/lv_style.c ****     lv_style_scr.line.color = LV_COLOR_MAKE(0x20, 0x20, 0x20);
 113              		.loc 1 105 0
 114 0080 93F83020 		ldrb	r2, [r3, #48]	@ zero_extendqisi2
 115 0084 66F30002 		bfi	r2, r6, #0, #1
 116 0088 83F83020 		strb	r2, [r3, #48]
 106:..\lvgl\lv_core/lv_style.c ****     lv_style_scr.line.width = 2;
 117              		.loc 1 106 0
 118 008c A3F832E0 		strh	lr, [r3, #50]	@ movhi
 107:..\lvgl\lv_core/lv_style.c ****     lv_style_scr.line.rounded = 0;
 119              		.loc 1 107 0
 120 0090 93F83520 		ldrb	r2, [r3, #53]	@ zero_extendqisi2
 121 0094 66F30002 		bfi	r2, r6, #0, #1
ARM GAS  C:\Users\d3bug\AppData\Local\Temp\cczXaDld.s 			page 5


 122 0098 83F83520 		strb	r2, [r3, #53]
 108:..\lvgl\lv_core/lv_style.c **** 
 109:..\lvgl\lv_core/lv_style.c ****     /*Plain style (by default near the same as the screen style)*/
 110:..\lvgl\lv_core/lv_style.c ****     memcpy(&lv_style_plain, &lv_style_scr, sizeof(lv_style_t));
 123              		.loc 1 110 0
 124 009c B74F     		ldr	r7, .L3+8
 125 009e 3D46     		mov	r5, r7
 126 00a0 1C46     		mov	r4, r3
 127 00a2 0FCC     		ldmia	r4!, {r0, r1, r2, r3}
 128 00a4 0FC5     		stmia	r5!, {r0, r1, r2, r3}
 129 00a6 0FCC     		ldmia	r4!, {r0, r1, r2, r3}
 130 00a8 0FC5     		stmia	r5!, {r0, r1, r2, r3}
 131 00aa 0FCC     		ldmia	r4!, {r0, r1, r2, r3}
 132 00ac 0FC5     		stmia	r5!, {r0, r1, r2, r3}
 133 00ae 94E80300 		ldmia	r4, {r0, r1}
 134 00b2 85E80300 		stmia	r5, {r0, r1}
 111:..\lvgl\lv_core/lv_style.c **** 
 112:..\lvgl\lv_core/lv_style.c ****     /*Plain color style*/
 113:..\lvgl\lv_core/lv_style.c ****     memcpy(&lv_style_plain_color, &lv_style_plain, sizeof(lv_style_t));
 135              		.loc 1 113 0
 136 00b6 DFF8D882 		ldr	r8, .L3+28
 137 00ba 4446     		mov	r4, r8
 138 00bc BC46     		mov	ip, r7
 139 00be BCE80F00 		ldmia	ip!, {r0, r1, r2, r3}
 140 00c2 0FC4     		stmia	r4!, {r0, r1, r2, r3}
 141 00c4 BCE80F00 		ldmia	ip!, {r0, r1, r2, r3}
 142 00c8 0FC4     		stmia	r4!, {r0, r1, r2, r3}
 143 00ca BCE80F00 		ldmia	ip!, {r0, r1, r2, r3}
 144 00ce 0FC4     		stmia	r4!, {r0, r1, r2, r3}
 145 00d0 95E80300 		ldmia	r5, {r0, r1}
 146 00d4 84E80300 		stmia	r4, {r0, r1}
 114:..\lvgl\lv_core/lv_style.c ****     lv_style_plain_color.text.color = LV_COLOR_MAKE(0xf0, 0xf0, 0xf0);
 147              		.loc 1 114 0
 148 00d8 98F81C30 		ldrb	r3, [r8, #28]	@ zero_extendqisi2
 149 00dc 43F00103 		orr	r3, r3, #1
 150 00e0 88F81C30 		strb	r3, [r8, #28]
 115:..\lvgl\lv_core/lv_style.c ****     lv_style_plain_color.image.color = LV_COLOR_MAKE(0xf0, 0xf0, 0xf0);
 151              		.loc 1 115 0
 152 00e4 98F82C30 		ldrb	r3, [r8, #44]	@ zero_extendqisi2
 153 00e8 43F00103 		orr	r3, r3, #1
 154 00ec 88F82C30 		strb	r3, [r8, #44]
 116:..\lvgl\lv_core/lv_style.c ****     lv_style_plain_color.line.color = LV_COLOR_MAKE(0xf0, 0xf0, 0xf0);
 155              		.loc 1 116 0
 156 00f0 98F83030 		ldrb	r3, [r8, #48]	@ zero_extendqisi2
 157 00f4 43F00103 		orr	r3, r3, #1
 158 00f8 88F83030 		strb	r3, [r8, #48]
 117:..\lvgl\lv_core/lv_style.c ****     lv_style_plain_color.body.main_color = LV_COLOR_MAKE(0x55, 0x96, 0xd8);
 159              		.loc 1 117 0
 160 00fc 98F80230 		ldrb	r3, [r8, #2]	@ zero_extendqisi2
 161 0100 43F00103 		orr	r3, r3, #1
 162 0104 88F80230 		strb	r3, [r8, #2]
 118:..\lvgl\lv_core/lv_style.c ****     lv_style_plain_color.body.grad_color = lv_style_plain_color.body.main_color;
 163              		.loc 1 118 0
 164 0108 88F80330 		strb	r3, [r8, #3]
 119:..\lvgl\lv_core/lv_style.c **** 
 120:..\lvgl\lv_core/lv_style.c ****     /*Pretty style */
 121:..\lvgl\lv_core/lv_style.c ****     memcpy(&lv_style_pretty, &lv_style_plain, sizeof(lv_style_t));
ARM GAS  C:\Users\d3bug\AppData\Local\Temp\cczXaDld.s 			page 6


 165              		.loc 1 121 0
 166 010c 9C4C     		ldr	r4, .L3+12
 167 010e A046     		mov	r8, r4
 168 0110 BC46     		mov	ip, r7
 169 0112 BCE80F00 		ldmia	ip!, {r0, r1, r2, r3}
 170 0116 A8E80F00 		stmia	r8!, {r0, r1, r2, r3}
 171 011a BCE80F00 		ldmia	ip!, {r0, r1, r2, r3}
 172 011e A8E80F00 		stmia	r8!, {r0, r1, r2, r3}
 173 0122 BCE80F00 		ldmia	ip!, {r0, r1, r2, r3}
 174 0126 A8E80F00 		stmia	r8!, {r0, r1, r2, r3}
 175 012a 95E80300 		ldmia	r5, {r0, r1}
 176 012e 88E80300 		stmia	r8, {r0, r1}
 122:..\lvgl\lv_core/lv_style.c ****     lv_style_pretty.text.color = LV_COLOR_MAKE(0x20, 0x20, 0x20);
 177              		.loc 1 122 0
 178 0132 237F     		ldrb	r3, [r4, #28]	@ zero_extendqisi2
 179 0134 66F30003 		bfi	r3, r6, #0, #1
 180 0138 2377     		strb	r3, [r4, #28]
 123:..\lvgl\lv_core/lv_style.c ****     lv_style_pretty.image.color = LV_COLOR_MAKE(0x20, 0x20, 0x20);
 181              		.loc 1 123 0
 182 013a 94F82C30 		ldrb	r3, [r4, #44]	@ zero_extendqisi2
 183 013e 66F30003 		bfi	r3, r6, #0, #1
 184 0142 84F82C30 		strb	r3, [r4, #44]
 124:..\lvgl\lv_core/lv_style.c ****     lv_style_pretty.line.color = LV_COLOR_MAKE(0x20, 0x20, 0x20);
 185              		.loc 1 124 0
 186 0146 94F83030 		ldrb	r3, [r4, #48]	@ zero_extendqisi2
 187 014a 66F30003 		bfi	r3, r6, #0, #1
 188 014e 84F83030 		strb	r3, [r4, #48]
 125:..\lvgl\lv_core/lv_style.c ****     lv_style_pretty.body.main_color = LV_COLOR_WHITE;
 189              		.loc 1 125 0
 190 0152 A378     		ldrb	r3, [r4, #2]	@ zero_extendqisi2
 191 0154 43F00103 		orr	r3, r3, #1
 192 0158 A370     		strb	r3, [r4, #2]
 126:..\lvgl\lv_core/lv_style.c ****     lv_style_pretty.body.grad_color = LV_COLOR_SILVER;
 193              		.loc 1 126 0
 194 015a E378     		ldrb	r3, [r4, #3]	@ zero_extendqisi2
 195 015c 43F00103 		orr	r3, r3, #1
 196 0160 E370     		strb	r3, [r4, #3]
 127:..\lvgl\lv_core/lv_style.c ****     lv_style_pretty.body.radius = LV_DPI / 15;
 197              		.loc 1 127 0
 198 0162 4FF0060C 		mov	ip, #6
 199 0166 A4F804C0 		strh	ip, [r4, #4]	@ movhi
 128:..\lvgl\lv_core/lv_style.c ****     lv_style_pretty.body.border.color = LV_COLOR_MAKE(0x40, 0x40, 0x40);
 200              		.loc 1 128 0
 201 016a 237A     		ldrb	r3, [r4, #8]	@ zero_extendqisi2
 202 016c 66F30003 		bfi	r3, r6, #0, #1
 203 0170 2372     		strb	r3, [r4, #8]
 129:..\lvgl\lv_core/lv_style.c ****     lv_style_pretty.body.border.width = LV_DPI / 50 >= 1 ? LV_DPI / 50  : 1;
 204              		.loc 1 129 0
 205 0172 A4F80AE0 		strh	lr, [r4, #10]	@ movhi
 130:..\lvgl\lv_core/lv_style.c ****     lv_style_pretty.body.border.opa = LV_OPA_30;
 206              		.loc 1 130 0
 207 0176 4C23     		movs	r3, #76
 208 0178 6373     		strb	r3, [r4, #13]
 131:..\lvgl\lv_core/lv_style.c **** 
 132:..\lvgl\lv_core/lv_style.c ****     /*Pretty color style*/
 133:..\lvgl\lv_core/lv_style.c ****     memcpy(&lv_style_pretty_color, &lv_style_pretty, sizeof(lv_style_t));
 209              		.loc 1 133 0
ARM GAS  C:\Users\d3bug\AppData\Local\Temp\cczXaDld.s 			page 7


 210 017a DFF818A2 		ldr	r10, .L3+32
 211 017e D146     		mov	r9, r10
 212 0180 0FCC     		ldmia	r4!, {r0, r1, r2, r3}
 213 0182 A9E80F00 		stmia	r9!, {r0, r1, r2, r3}
 214 0186 0FCC     		ldmia	r4!, {r0, r1, r2, r3}
 215 0188 A9E80F00 		stmia	r9!, {r0, r1, r2, r3}
 216 018c 0FCC     		ldmia	r4!, {r0, r1, r2, r3}
 217 018e A9E80F00 		stmia	r9!, {r0, r1, r2, r3}
 218 0192 98E80300 		ldmia	r8, {r0, r1}
 219 0196 89E80300 		stmia	r9, {r0, r1}
 134:..\lvgl\lv_core/lv_style.c ****     lv_style_pretty_color.text.color = LV_COLOR_MAKE(0xe0, 0xe0, 0xe0);
 220              		.loc 1 134 0
 221 019a 9AF81C30 		ldrb	r3, [r10, #28]	@ zero_extendqisi2
 222 019e 43F00103 		orr	r3, r3, #1
 223 01a2 8AF81C30 		strb	r3, [r10, #28]
 135:..\lvgl\lv_core/lv_style.c ****     lv_style_pretty_color.image.color = LV_COLOR_MAKE(0xe0, 0xe0, 0xe0);
 224              		.loc 1 135 0
 225 01a6 9AF82C30 		ldrb	r3, [r10, #44]	@ zero_extendqisi2
 226 01aa 43F00103 		orr	r3, r3, #1
 227 01ae 8AF82C30 		strb	r3, [r10, #44]
 136:..\lvgl\lv_core/lv_style.c ****     lv_style_pretty_color.line.color = LV_COLOR_MAKE(0xc0, 0xc0, 0xc0);
 228              		.loc 1 136 0
 229 01b2 9AF83030 		ldrb	r3, [r10, #48]	@ zero_extendqisi2
 230 01b6 43F00103 		orr	r3, r3, #1
 231 01ba 8AF83030 		strb	r3, [r10, #48]
 137:..\lvgl\lv_core/lv_style.c ****     lv_style_pretty_color.body.main_color = LV_COLOR_MAKE(0x6b, 0x9a, 0xc7);
 232              		.loc 1 137 0
 233 01be 9AF80230 		ldrb	r3, [r10, #2]	@ zero_extendqisi2
 234 01c2 43F00103 		orr	r3, r3, #1
 235 01c6 8AF80230 		strb	r3, [r10, #2]
 138:..\lvgl\lv_core/lv_style.c ****     lv_style_pretty_color.body.grad_color = LV_COLOR_MAKE(0x2b, 0x59, 0x8b);
 236              		.loc 1 138 0
 237 01ca 9AF80330 		ldrb	r3, [r10, #3]	@ zero_extendqisi2
 238 01ce 43F00103 		orr	r3, r3, #1
 239 01d2 8AF80330 		strb	r3, [r10, #3]
 139:..\lvgl\lv_core/lv_style.c ****     lv_style_pretty_color.body.border.color = LV_COLOR_MAKE(0x15, 0x2c, 0x42);
 240              		.loc 1 139 0
 241 01d6 9AF80830 		ldrb	r3, [r10, #8]	@ zero_extendqisi2
 242 01da 66F30003 		bfi	r3, r6, #0, #1
 243 01de 8AF80830 		strb	r3, [r10, #8]
 140:..\lvgl\lv_core/lv_style.c **** 
 141:..\lvgl\lv_core/lv_style.c ****     /*Transparent style*/
 142:..\lvgl\lv_core/lv_style.c ****     memcpy(&lv_style_transp, &lv_style_plain, sizeof(lv_style_t));
 244              		.loc 1 142 0
 245 01e2 684C     		ldr	r4, .L3+16
 246 01e4 A246     		mov	r10, r4
 247 01e6 B846     		mov	r8, r7
 248 01e8 B8E80F00 		ldmia	r8!, {r0, r1, r2, r3}
 249 01ec AAE80F00 		stmia	r10!, {r0, r1, r2, r3}
 250 01f0 B8E80F00 		ldmia	r8!, {r0, r1, r2, r3}
 251 01f4 AAE80F00 		stmia	r10!, {r0, r1, r2, r3}
 252 01f8 B8E80F00 		ldmia	r8!, {r0, r1, r2, r3}
 253 01fc AAE80F00 		stmia	r10!, {r0, r1, r2, r3}
 254 0200 95E80300 		ldmia	r5, {r0, r1}
 255 0204 8AE80300 		stmia	r10, {r0, r1}
 143:..\lvgl\lv_core/lv_style.c ****     lv_style_transp.body.empty = 1;
 256              		.loc 1 143 0
ARM GAS  C:\Users\d3bug\AppData\Local\Temp\cczXaDld.s 			page 8


 257 0208 A37E     		ldrb	r3, [r4, #26]	@ zero_extendqisi2
 258 020a 43F00103 		orr	r3, r3, #1
 259 020e A376     		strb	r3, [r4, #26]
 144:..\lvgl\lv_core/lv_style.c ****     lv_style_transp.glass = 1;
 260              		.loc 1 144 0
 261 0210 2378     		ldrb	r3, [r4]	@ zero_extendqisi2
 262 0212 43F00103 		orr	r3, r3, #1
 263 0216 2370     		strb	r3, [r4]
 145:..\lvgl\lv_core/lv_style.c ****     lv_style_transp.body.border.width = 0;
 264              		.loc 1 145 0
 265 0218 6681     		strh	r6, [r4, #10]	@ movhi
 146:..\lvgl\lv_core/lv_style.c **** 
 147:..\lvgl\lv_core/lv_style.c ****     /*Transparent fitting size*/
 148:..\lvgl\lv_core/lv_style.c ****     memcpy(&lv_style_transp_fit, &lv_style_transp, sizeof(lv_style_t));
 266              		.loc 1 148 0
 267 021a DFF87C81 		ldr	r8, .L3+36
 268 021e C146     		mov	r9, r8
 269 0220 0FCC     		ldmia	r4!, {r0, r1, r2, r3}
 270 0222 A9E80F00 		stmia	r9!, {r0, r1, r2, r3}
 271 0226 0FCC     		ldmia	r4!, {r0, r1, r2, r3}
 272 0228 A9E80F00 		stmia	r9!, {r0, r1, r2, r3}
 273 022c 0FCC     		ldmia	r4!, {r0, r1, r2, r3}
 274 022e A9E80F00 		stmia	r9!, {r0, r1, r2, r3}
 275 0232 9AE80300 		ldmia	r10, {r0, r1}
 276 0236 89E80300 		stmia	r9, {r0, r1}
 149:..\lvgl\lv_core/lv_style.c ****     lv_style_transp_fit.body.padding.hor = 0;
 277              		.loc 1 149 0
 278 023a A8F81660 		strh	r6, [r8, #22]	@ movhi
 150:..\lvgl\lv_core/lv_style.c ****     lv_style_transp_fit.body.padding.ver = 0;
 279              		.loc 1 150 0
 280 023e A8F81460 		strh	r6, [r8, #20]	@ movhi
 151:..\lvgl\lv_core/lv_style.c **** 
 152:..\lvgl\lv_core/lv_style.c ****     /*Transparent tight style*/
 153:..\lvgl\lv_core/lv_style.c ****     memcpy(&lv_style_transp_tight, &lv_style_transp_fit, sizeof(lv_style_t));
 281              		.loc 1 153 0
 282 0242 DFF858B1 		ldr	fp, .L3+40
 283 0246 DA46     		mov	r10, fp
 284 0248 4446     		mov	r4, r8
 285 024a 0FCC     		ldmia	r4!, {r0, r1, r2, r3}
 286 024c AAE80F00 		stmia	r10!, {r0, r1, r2, r3}
 287 0250 0FCC     		ldmia	r4!, {r0, r1, r2, r3}
 288 0252 AAE80F00 		stmia	r10!, {r0, r1, r2, r3}
 289 0256 0FCC     		ldmia	r4!, {r0, r1, r2, r3}
 290 0258 AAE80F00 		stmia	r10!, {r0, r1, r2, r3}
 291 025c 99E80300 		ldmia	r9, {r0, r1}
 292 0260 8AE80300 		stmia	r10, {r0, r1}
 154:..\lvgl\lv_core/lv_style.c ****     lv_style_transp_tight.body.padding.inner = 0;
 293              		.loc 1 154 0
 294 0264 ABF81860 		strh	r6, [fp, #24]	@ movhi
 155:..\lvgl\lv_core/lv_style.c **** 
 156:..\lvgl\lv_core/lv_style.c ****     /*Button released style*/
 157:..\lvgl\lv_core/lv_style.c ****     memcpy(&lv_style_btn_rel, &lv_style_plain, sizeof(lv_style_t));
 295              		.loc 1 157 0
 296 0268 474C     		ldr	r4, .L3+20
 297 026a A046     		mov	r8, r4
 298 026c 0FCF     		ldmia	r7!, {r0, r1, r2, r3}
 299 026e A8E80F00 		stmia	r8!, {r0, r1, r2, r3}
ARM GAS  C:\Users\d3bug\AppData\Local\Temp\cczXaDld.s 			page 9


 300 0272 0FCF     		ldmia	r7!, {r0, r1, r2, r3}
 301 0274 A8E80F00 		stmia	r8!, {r0, r1, r2, r3}
 302 0278 0FCF     		ldmia	r7!, {r0, r1, r2, r3}
 303 027a A8E80F00 		stmia	r8!, {r0, r1, r2, r3}
 304 027e 95E80300 		ldmia	r5, {r0, r1}
 305 0282 88E80300 		stmia	r8, {r0, r1}
 158:..\lvgl\lv_core/lv_style.c ****     lv_style_btn_rel.body.main_color = LV_COLOR_MAKE(0x76, 0xa2, 0xd0);
 306              		.loc 1 158 0
 307 0286 A378     		ldrb	r3, [r4, #2]	@ zero_extendqisi2
 308 0288 43F00103 		orr	r3, r3, #1
 309 028c A370     		strb	r3, [r4, #2]
 159:..\lvgl\lv_core/lv_style.c ****     lv_style_btn_rel.body.grad_color = LV_COLOR_MAKE(0x19, 0x3a, 0x5d);
 310              		.loc 1 159 0
 311 028e E378     		ldrb	r3, [r4, #3]	@ zero_extendqisi2
 312 0290 66F30003 		bfi	r3, r6, #0, #1
 313 0294 E370     		strb	r3, [r4, #3]
 160:..\lvgl\lv_core/lv_style.c ****     lv_style_btn_rel.body.radius = LV_DPI / 15;
 314              		.loc 1 160 0
 315 0296 A4F804C0 		strh	ip, [r4, #4]	@ movhi
 161:..\lvgl\lv_core/lv_style.c ****     lv_style_btn_rel.body.padding.hor = LV_DPI / 4;
 316              		.loc 1 161 0
 317 029a 1923     		movs	r3, #25
 318 029c E382     		strh	r3, [r4, #22]	@ movhi
 162:..\lvgl\lv_core/lv_style.c ****     lv_style_btn_rel.body.padding.ver = LV_DPI / 6;
 319              		.loc 1 162 0
 320 029e 1023     		movs	r3, #16
 321 02a0 A382     		strh	r3, [r4, #20]	@ movhi
 163:..\lvgl\lv_core/lv_style.c ****     lv_style_btn_rel.body.padding.inner = LV_DPI / 10;
 322              		.loc 1 163 0
 323 02a2 0A23     		movs	r3, #10
 324 02a4 2383     		strh	r3, [r4, #24]	@ movhi
 164:..\lvgl\lv_core/lv_style.c ****     lv_style_btn_rel.body.border.color = LV_COLOR_MAKE(0x0b, 0x19, 0x28);
 325              		.loc 1 164 0
 326 02a6 237A     		ldrb	r3, [r4, #8]	@ zero_extendqisi2
 327 02a8 66F30003 		bfi	r3, r6, #0, #1
 328 02ac 2372     		strb	r3, [r4, #8]
 165:..\lvgl\lv_core/lv_style.c ****     lv_style_btn_rel.body.border.width = LV_DPI / 50 >= 1 ? LV_DPI / 50  : 1;
 329              		.loc 1 165 0
 330 02ae A4F80AE0 		strh	lr, [r4, #10]	@ movhi
 166:..\lvgl\lv_core/lv_style.c ****     lv_style_btn_rel.body.border.opa = LV_OPA_70;
 331              		.loc 1 166 0
 332 02b2 B223     		movs	r3, #178
 333 02b4 6373     		strb	r3, [r4, #13]
 167:..\lvgl\lv_core/lv_style.c ****     lv_style_btn_rel.body.shadow.color = LV_COLOR_GRAY;
 334              		.loc 1 167 0
 335 02b6 A37B     		ldrb	r3, [r4, #14]	@ zero_extendqisi2
 336 02b8 43F00103 		orr	r3, r3, #1
 337 02bc A373     		strb	r3, [r4, #14]
 168:..\lvgl\lv_core/lv_style.c ****     lv_style_btn_rel.body.shadow.width = 0;
 338              		.loc 1 168 0
 339 02be 2682     		strh	r6, [r4, #16]	@ movhi
 169:..\lvgl\lv_core/lv_style.c ****     lv_style_btn_rel.text.color = LV_COLOR_MAKE(0xff, 0xff, 0xff);
 340              		.loc 1 169 0
 341 02c0 237F     		ldrb	r3, [r4, #28]	@ zero_extendqisi2
 342 02c2 43F00103 		orr	r3, r3, #1
 343 02c6 2377     		strb	r3, [r4, #28]
 170:..\lvgl\lv_core/lv_style.c ****     lv_style_btn_rel.image.color = LV_COLOR_MAKE(0xff, 0xff, 0xff);
ARM GAS  C:\Users\d3bug\AppData\Local\Temp\cczXaDld.s 			page 10


 344              		.loc 1 170 0
 345 02c8 94F82C30 		ldrb	r3, [r4, #44]	@ zero_extendqisi2
 346 02cc 43F00103 		orr	r3, r3, #1
 347 02d0 84F82C30 		strb	r3, [r4, #44]
 171:..\lvgl\lv_core/lv_style.c **** 
 172:..\lvgl\lv_core/lv_style.c ****     /*Button pressed style*/
 173:..\lvgl\lv_core/lv_style.c ****     memcpy(&lv_style_btn_pr, &lv_style_btn_rel, sizeof(lv_style_t));
 348              		.loc 1 173 0
 349 02d4 DFF8C8E0 		ldr	lr, .L3+44
 350 02d8 7546     		mov	r5, lr
 351 02da 2746     		mov	r7, r4
 352 02dc 0FCF     		ldmia	r7!, {r0, r1, r2, r3}
 353 02de 0FC5     		stmia	r5!, {r0, r1, r2, r3}
 354 02e0 0FCF     		ldmia	r7!, {r0, r1, r2, r3}
 355 02e2 0FC5     		stmia	r5!, {r0, r1, r2, r3}
 356 02e4 0FCF     		ldmia	r7!, {r0, r1, r2, r3}
 357 02e6 0FC5     		stmia	r5!, {r0, r1, r2, r3}
 358 02e8 97E80300 		ldmia	r7, {r0, r1}
 359 02ec 85E80300 		stmia	r5, {r0, r1}
 174:..\lvgl\lv_core/lv_style.c ****     lv_style_btn_pr.body.main_color = LV_COLOR_MAKE(0x33, 0x62, 0x94);
 360              		.loc 1 174 0
 361 02f0 9EF80230 		ldrb	r3, [lr, #2]	@ zero_extendqisi2
 362 02f4 43F00103 		orr	r3, r3, #1
 363 02f8 8EF80230 		strb	r3, [lr, #2]
 175:..\lvgl\lv_core/lv_style.c ****     lv_style_btn_pr.body.grad_color = LV_COLOR_MAKE(0x10, 0x26, 0x3c);
 364              		.loc 1 175 0
 365 02fc 9EF80330 		ldrb	r3, [lr, #3]	@ zero_extendqisi2
 366 0300 66F30003 		bfi	r3, r6, #0, #1
 367 0304 8EF80330 		strb	r3, [lr, #3]
 176:..\lvgl\lv_core/lv_style.c ****     lv_style_btn_pr.text.color = LV_COLOR_MAKE(0xa4, 0xb5, 0xc6);
 368              		.loc 1 176 0
 369 0308 9EF81C30 		ldrb	r3, [lr, #28]	@ zero_extendqisi2
 370 030c 43F00103 		orr	r3, r3, #1
 371 0310 8EF81C30 		strb	r3, [lr, #28]
 177:..\lvgl\lv_core/lv_style.c ****     lv_style_btn_pr.image.color = LV_COLOR_MAKE(0xa4, 0xb5, 0xc6);
 372              		.loc 1 177 0
 373 0314 9EF82C30 		ldrb	r3, [lr, #44]	@ zero_extendqisi2
 374 0318 43F00103 		orr	r3, r3, #1
 375 031c 8EF82C30 		strb	r3, [lr, #44]
 178:..\lvgl\lv_core/lv_style.c ****     lv_style_btn_pr.line.color = LV_COLOR_MAKE(0xa4, 0xb5, 0xc6);
 376              		.loc 1 178 0
 377 0320 9EF83030 		ldrb	r3, [lr, #48]	@ zero_extendqisi2
 378 0324 43F00103 		orr	r3, r3, #1
 379 0328 8EF83030 		strb	r3, [lr, #48]
 179:..\lvgl\lv_core/lv_style.c **** 
 180:..\lvgl\lv_core/lv_style.c ****     /*Button toggle released style*/
 181:..\lvgl\lv_core/lv_style.c ****     memcpy(&lv_style_btn_tgl_rel, &lv_style_btn_rel, sizeof(lv_style_t));
 380              		.loc 1 181 0
 381 032c 174D     		ldr	r5, .L3+24
 382 032e 2F46     		mov	r7, r5
 383 0330 A646     		mov	lr, r4
 384 0332 BEE80F00 		ldmia	lr!, {r0, r1, r2, r3}
 385 0336 0FC7     		stmia	r7!, {r0, r1, r2, r3}
 386 0338 BEE80F00 		ldmia	lr!, {r0, r1, r2, r3}
 387 033c 0FC7     		stmia	r7!, {r0, r1, r2, r3}
 388 033e BEE80F00 		ldmia	lr!, {r0, r1, r2, r3}
 389 0342 0FC7     		stmia	r7!, {r0, r1, r2, r3}
ARM GAS  C:\Users\d3bug\AppData\Local\Temp\cczXaDld.s 			page 11


 390 0344 9EE80300 		ldmia	lr, {r0, r1}
 391 0348 87E80300 		stmia	r7, {r0, r1}
 182:..\lvgl\lv_core/lv_style.c ****     lv_style_btn_tgl_rel.body.main_color = LV_COLOR_MAKE(0x0a, 0x11, 0x22);
 392              		.loc 1 182 0
 393 034c AB78     		ldrb	r3, [r5, #2]	@ zero_extendqisi2
 394 034e 66F30003 		bfi	r3, r6, #0, #1
 395 0352 AB70     		strb	r3, [r5, #2]
 183:..\lvgl\lv_core/lv_style.c ****     lv_style_btn_tgl_rel.body.grad_color = LV_COLOR_MAKE(0x37, 0x62, 0x90);
 396              		.loc 1 183 0
 397 0354 EB78     		ldrb	r3, [r5, #3]	@ zero_extendqisi2
 398 0356 43F00103 		orr	r3, r3, #1
 399 035a EB70     		strb	r3, [r5, #3]
 184:..\lvgl\lv_core/lv_style.c ****     lv_style_btn_tgl_rel.body.border.color = LV_COLOR_MAKE(0x01, 0x07, 0x0d);
 400              		.loc 1 184 0
 401 035c 2B7A     		ldrb	r3, [r5, #8]	@ zero_extendqisi2
 402 035e 66F30003 		bfi	r3, r6, #0, #1
 403 0362 2B72     		strb	r3, [r5, #8]
 185:..\lvgl\lv_core/lv_style.c ****     lv_style_btn_tgl_rel.text.color = LV_COLOR_MAKE(0xc8, 0xdd, 0xf4);
 404              		.loc 1 185 0
 405 0364 2B7F     		ldrb	r3, [r5, #28]	@ zero_extendqisi2
 406 0366 43F00103 		orr	r3, r3, #1
 407 036a 2B77     		strb	r3, [r5, #28]
 186:..\lvgl\lv_core/lv_style.c ****     lv_style_btn_tgl_rel.image.color = LV_COLOR_MAKE(0xc8, 0xdd, 0xf4);
 408              		.loc 1 186 0
 409 036c 95F82C30 		ldrb	r3, [r5, #44]	@ zero_extendqisi2
 410 0370 18E0     		b	.L4
 411              	.L5:
 412 0372 00BF     		.align	2
 413              	.L3:
 414 0374 00000000 		.word	lv_style_scr
 415 0378 00000000 		.word	lv_font_monospace_8
 416 037c 00000000 		.word	lv_style_plain
 417 0380 00000000 		.word	lv_style_pretty
 418 0384 00000000 		.word	lv_style_transp
 419 0388 00000000 		.word	lv_style_btn_rel
 420 038c 00000000 		.word	lv_style_btn_tgl_rel
 421 0390 00000000 		.word	lv_style_plain_color
 422 0394 00000000 		.word	lv_style_pretty_color
 423 0398 00000000 		.word	lv_style_transp_fit
 424 039c 00000000 		.word	lv_style_transp_tight
 425 03a0 00000000 		.word	lv_style_btn_pr
 426              	.L4:
 427 03a4 43F00103 		orr	r3, r3, #1
 428 03a8 85F82C30 		strb	r3, [r5, #44]
 187:..\lvgl\lv_core/lv_style.c ****     lv_style_btn_tgl_rel.line.color = LV_COLOR_MAKE(0xc8, 0xdd, 0xf4);
 429              		.loc 1 187 0
 430 03ac 95F83030 		ldrb	r3, [r5, #48]	@ zero_extendqisi2
 431 03b0 43F00103 		orr	r3, r3, #1
 432 03b4 85F83030 		strb	r3, [r5, #48]
 188:..\lvgl\lv_core/lv_style.c **** 
 189:..\lvgl\lv_core/lv_style.c ****     /*Button toggle pressed style*/
 190:..\lvgl\lv_core/lv_style.c ****     memcpy(&lv_style_btn_tgl_pr, &lv_style_btn_tgl_rel, sizeof(lv_style_t));
 433              		.loc 1 190 0
 434 03b8 DFF8B0C0 		ldr	ip, .L6+4
 435 03bc E646     		mov	lr, ip
 436 03be 0FCD     		ldmia	r5!, {r0, r1, r2, r3}
 437 03c0 AEE80F00 		stmia	lr!, {r0, r1, r2, r3}
ARM GAS  C:\Users\d3bug\AppData\Local\Temp\cczXaDld.s 			page 12


 438 03c4 0FCD     		ldmia	r5!, {r0, r1, r2, r3}
 439 03c6 AEE80F00 		stmia	lr!, {r0, r1, r2, r3}
 440 03ca 0FCD     		ldmia	r5!, {r0, r1, r2, r3}
 441 03cc AEE80F00 		stmia	lr!, {r0, r1, r2, r3}
 442 03d0 97E80300 		ldmia	r7, {r0, r1}
 443 03d4 8EE80300 		stmia	lr, {r0, r1}
 191:..\lvgl\lv_core/lv_style.c ****     lv_style_btn_tgl_pr.body.main_color = LV_COLOR_MAKE(0x02, 0x14, 0x27);
 444              		.loc 1 191 0
 445 03d8 9CF80230 		ldrb	r3, [ip, #2]	@ zero_extendqisi2
 446 03dc 66F30003 		bfi	r3, r6, #0, #1
 447 03e0 8CF80230 		strb	r3, [ip, #2]
 192:..\lvgl\lv_core/lv_style.c ****     lv_style_btn_tgl_pr.body.grad_color = LV_COLOR_MAKE(0x2b, 0x4c, 0x70);
 448              		.loc 1 192 0
 449 03e4 9CF80330 		ldrb	r3, [ip, #3]	@ zero_extendqisi2
 450 03e8 66F30003 		bfi	r3, r6, #0, #1
 451 03ec 8CF80330 		strb	r3, [ip, #3]
 193:..\lvgl\lv_core/lv_style.c ****     lv_style_btn_tgl_pr.text.color = LV_COLOR_MAKE(0xa4, 0xb5, 0xc6);
 452              		.loc 1 193 0
 453 03f0 9CF81C30 		ldrb	r3, [ip, #28]	@ zero_extendqisi2
 454 03f4 43F00103 		orr	r3, r3, #1
 455 03f8 8CF81C30 		strb	r3, [ip, #28]
 194:..\lvgl\lv_core/lv_style.c ****     lv_style_btn_tgl_pr.image.color = LV_COLOR_MAKE(0xa4, 0xb5, 0xc6);
 456              		.loc 1 194 0
 457 03fc 9CF82C30 		ldrb	r3, [ip, #44]	@ zero_extendqisi2
 458 0400 43F00103 		orr	r3, r3, #1
 459 0404 8CF82C30 		strb	r3, [ip, #44]
 195:..\lvgl\lv_core/lv_style.c ****     lv_style_btn_tgl_pr.line.color = LV_COLOR_MAKE(0xa4, 0xb5, 0xc6);
 460              		.loc 1 195 0
 461 0408 9CF83030 		ldrb	r3, [ip, #48]	@ zero_extendqisi2
 462 040c 43F00103 		orr	r3, r3, #1
 463 0410 8CF83030 		strb	r3, [ip, #48]
 196:..\lvgl\lv_core/lv_style.c **** 
 197:..\lvgl\lv_core/lv_style.c ****     /*Button inactive style*/
 198:..\lvgl\lv_core/lv_style.c ****     memcpy(&lv_style_btn_ina, &lv_style_btn_rel, sizeof(lv_style_t));
 464              		.loc 1 198 0
 465 0414 144F     		ldr	r7, .L6
 466 0416 3D46     		mov	r5, r7
 467 0418 0FCC     		ldmia	r4!, {r0, r1, r2, r3}
 468 041a 0FC5     		stmia	r5!, {r0, r1, r2, r3}
 469 041c 0FCC     		ldmia	r4!, {r0, r1, r2, r3}
 470 041e 0FC5     		stmia	r5!, {r0, r1, r2, r3}
 471 0420 0FCC     		ldmia	r4!, {r0, r1, r2, r3}
 472 0422 0FC5     		stmia	r5!, {r0, r1, r2, r3}
 473 0424 94E80300 		ldmia	r4, {r0, r1}
 474 0428 85E80300 		stmia	r5, {r0, r1}
 199:..\lvgl\lv_core/lv_style.c ****     lv_style_btn_ina.body.main_color = LV_COLOR_MAKE(0xd8, 0xd8, 0xd8);
 475              		.loc 1 199 0
 476 042c BB78     		ldrb	r3, [r7, #2]	@ zero_extendqisi2
 477 042e 43F00103 		orr	r3, r3, #1
 478 0432 BB70     		strb	r3, [r7, #2]
 200:..\lvgl\lv_core/lv_style.c ****     lv_style_btn_ina.body.grad_color = LV_COLOR_MAKE(0xd8, 0xd8, 0xd8);
 479              		.loc 1 200 0
 480 0434 FB78     		ldrb	r3, [r7, #3]	@ zero_extendqisi2
 481 0436 43F00103 		orr	r3, r3, #1
 482 043a FB70     		strb	r3, [r7, #3]
 201:..\lvgl\lv_core/lv_style.c ****     lv_style_btn_ina.body.border.color = LV_COLOR_MAKE(0x90, 0x90, 0x90);
 483              		.loc 1 201 0
ARM GAS  C:\Users\d3bug\AppData\Local\Temp\cczXaDld.s 			page 13


 484 043c 3B7A     		ldrb	r3, [r7, #8]	@ zero_extendqisi2
 485 043e 43F00103 		orr	r3, r3, #1
 486 0442 3B72     		strb	r3, [r7, #8]
 202:..\lvgl\lv_core/lv_style.c ****     lv_style_btn_ina.text.color = LV_COLOR_MAKE(0x70, 0x70, 0x70);
 487              		.loc 1 202 0
 488 0444 3B7F     		ldrb	r3, [r7, #28]	@ zero_extendqisi2
 489 0446 66F30003 		bfi	r3, r6, #0, #1
 490 044a 3B77     		strb	r3, [r7, #28]
 203:..\lvgl\lv_core/lv_style.c ****     lv_style_btn_ina.image.color = LV_COLOR_MAKE(0x70, 0x70, 0x70);
 491              		.loc 1 203 0
 492 044c 97F82C30 		ldrb	r3, [r7, #44]	@ zero_extendqisi2
 493 0450 66F30003 		bfi	r3, r6, #0, #1
 494 0454 87F82C30 		strb	r3, [r7, #44]
 204:..\lvgl\lv_core/lv_style.c ****     lv_style_btn_ina.line.color = LV_COLOR_MAKE(0x70, 0x70, 0x70);
 495              		.loc 1 204 0
 496 0458 97F83030 		ldrb	r3, [r7, #48]	@ zero_extendqisi2
 497 045c 66F30003 		bfi	r3, r6, #0, #1
 498 0460 87F83030 		strb	r3, [r7, #48]
 499 0464 BDE8F08F 		pop	{r4, r5, r6, r7, r8, r9, r10, fp, pc}
 500              	.L7:
 501              		.align	2
 502              	.L6:
 503 0468 00000000 		.word	lv_style_btn_ina
 504 046c 00000000 		.word	lv_style_btn_tgl_pr
 505              		.cfi_endproc
 506              	.LFE12:
 507              		.size	lv_style_init, .-lv_style_init
 508              		.section	.text.lv_style_copy,"ax",%progbits
 509              		.align	2
 510              		.global	lv_style_copy
 511              		.thumb
 512              		.thumb_func
 513              		.type	lv_style_copy, %function
 514              	lv_style_copy:
 515              	.LFB13:
 205:..\lvgl\lv_core/lv_style.c **** }
 206:..\lvgl\lv_core/lv_style.c **** 
 207:..\lvgl\lv_core/lv_style.c **** 
 208:..\lvgl\lv_core/lv_style.c **** /**
 209:..\lvgl\lv_core/lv_style.c ****  * Copy a style to an other
 210:..\lvgl\lv_core/lv_style.c ****  * @param dest pointer to the destination style
 211:..\lvgl\lv_core/lv_style.c ****  * @param src pointer to the source style
 212:..\lvgl\lv_core/lv_style.c ****  */
 213:..\lvgl\lv_core/lv_style.c **** void lv_style_copy(lv_style_t * dest, const lv_style_t * src)
 214:..\lvgl\lv_core/lv_style.c **** {
 516              		.loc 1 214 0
 517              		.cfi_startproc
 518              		@ args = 0, pretend = 0, frame = 0
 519              		@ frame_needed = 0, uses_anonymous_args = 0
 520              		@ link register save eliminated.
 521              	.LVL0:
 522 0000 70B4     		push	{r4, r5, r6}
 523              		.cfi_def_cfa_offset 12
 524              		.cfi_offset 4, -12
 525              		.cfi_offset 5, -8
 526              		.cfi_offset 6, -4
 215:..\lvgl\lv_core/lv_style.c ****     memcpy(dest, src, sizeof(lv_style_t));
ARM GAS  C:\Users\d3bug\AppData\Local\Temp\cczXaDld.s 			page 14


 527              		.loc 1 215 0
 528 0002 01F13003 		add	r3, r1, #48
 529              	.LVL1:
 530              	.L9:
 531 0006 0E68     		ldr	r6, [r1]	@ unaligned
 532 0008 4D68     		ldr	r5, [r1, #4]	@ unaligned
 533 000a 8C68     		ldr	r4, [r1, #8]	@ unaligned
 534 000c CA68     		ldr	r2, [r1, #12]	@ unaligned
 535 000e 0660     		str	r6, [r0]	@ unaligned
 536 0010 4560     		str	r5, [r0, #4]	@ unaligned
 537 0012 8460     		str	r4, [r0, #8]	@ unaligned
 538 0014 C260     		str	r2, [r0, #12]	@ unaligned
 539 0016 1031     		adds	r1, r1, #16
 540 0018 1030     		adds	r0, r0, #16
 541 001a 9942     		cmp	r1, r3
 542 001c F3D1     		bne	.L9
 543 001e 0A68     		ldr	r2, [r1]	@ unaligned
 544 0020 4B68     		ldr	r3, [r1, #4]	@ unaligned
 545              	.LVL2:
 546 0022 0260     		str	r2, [r0]	@ unaligned
 547 0024 4360     		str	r3, [r0, #4]	@ unaligned
 216:..\lvgl\lv_core/lv_style.c **** }
 548              		.loc 1 216 0
 549 0026 70BC     		pop	{r4, r5, r6}
 550              		.cfi_restore 6
 551              		.cfi_restore 5
 552              		.cfi_restore 4
 553              		.cfi_def_cfa_offset 0
 554 0028 7047     		bx	lr
 555              		.cfi_endproc
 556              	.LFE13:
 557              		.size	lv_style_copy, .-lv_style_copy
 558 002a 00BF     		.section	.text.lv_style_mix,"ax",%progbits
 559              		.align	2
 560              		.global	lv_style_mix
 561              		.thumb
 562              		.thumb_func
 563              		.type	lv_style_mix, %function
 564              	lv_style_mix:
 565              	.LFB14:
 217:..\lvgl\lv_core/lv_style.c **** 
 218:..\lvgl\lv_core/lv_style.c **** 
 219:..\lvgl\lv_core/lv_style.c **** /**
 220:..\lvgl\lv_core/lv_style.c ****  * Mix two styles according to a given ratio
 221:..\lvgl\lv_core/lv_style.c ****  * @param start start style
 222:..\lvgl\lv_core/lv_style.c ****  * @param end end style
 223:..\lvgl\lv_core/lv_style.c ****  * @param res store the result style here
 224:..\lvgl\lv_core/lv_style.c ****  * @param ratio the ratio of mix [0..256]; 0: `start` style; 256: `end` style
 225:..\lvgl\lv_core/lv_style.c ****  */
 226:..\lvgl\lv_core/lv_style.c **** void lv_style_mix(const lv_style_t * start, const lv_style_t * end, lv_style_t * res, uint16_t rati
 227:..\lvgl\lv_core/lv_style.c **** {
 566              		.loc 1 227 0
 567              		.cfi_startproc
 568              		@ args = 0, pretend = 0, frame = 0
 569              		@ frame_needed = 0, uses_anonymous_args = 0
 570              		@ link register save eliminated.
 571              	.LVL3:
ARM GAS  C:\Users\d3bug\AppData\Local\Temp\cczXaDld.s 			page 15


 572 0000 70B4     		push	{r4, r5, r6}
 573              		.cfi_def_cfa_offset 12
 574              		.cfi_offset 4, -12
 575              		.cfi_offset 5, -8
 576              		.cfi_offset 6, -4
 228:..\lvgl\lv_core/lv_style.c ****     STYLE_ATTR_MIX(body.opa, ratio);
 577              		.loc 1 228 0
 578 0002 8579     		ldrb	r5, [r0, #6]	@ zero_extendqisi2
 579 0004 8C79     		ldrb	r4, [r1, #6]	@ zero_extendqisi2
 580 0006 A542     		cmp	r5, r4
 581 0008 06D0     		beq	.L12
 582              		.loc 1 228 0 is_stmt 0 discriminator 1
 583 000a 641B     		subs	r4, r4, r5
 584 000c 04FB03F4 		mul	r4, r4, r3
 585 0010 05EB2424 		add	r4, r5, r4, asr #8
 586 0014 9471     		strb	r4, [r2, #6]
 587 0016 00E0     		b	.L13
 588              	.L12:
 589              		.loc 1 228 0 discriminator 2
 590 0018 9571     		strb	r5, [r2, #6]
 591              	.L13:
 229:..\lvgl\lv_core/lv_style.c ****     STYLE_ATTR_MIX(body.radius, ratio);
 592              		.loc 1 229 0 is_stmt 1
 593 001a B0F90450 		ldrsh	r5, [r0, #4]
 594 001e B1F90440 		ldrsh	r4, [r1, #4]
 595 0022 A542     		cmp	r5, r4
 596 0024 06D0     		beq	.L14
 597              		.loc 1 229 0 is_stmt 0 discriminator 1
 598 0026 641B     		subs	r4, r4, r5
 599 0028 04FB03F4 		mul	r4, r4, r3
 600 002c 05EB2424 		add	r4, r5, r4, asr #8
 601 0030 9480     		strh	r4, [r2, #4]	@ movhi
 602 0032 00E0     		b	.L15
 603              	.L14:
 604              		.loc 1 229 0 discriminator 2
 605 0034 9580     		strh	r5, [r2, #4]	@ movhi
 606              	.L15:
 230:..\lvgl\lv_core/lv_style.c ****     STYLE_ATTR_MIX(body.border.width, ratio);
 607              		.loc 1 230 0 is_stmt 1
 608 0036 B0F90A50 		ldrsh	r5, [r0, #10]
 609 003a B1F90A40 		ldrsh	r4, [r1, #10]
 610 003e A542     		cmp	r5, r4
 611 0040 06D0     		beq	.L16
 612              		.loc 1 230 0 is_stmt 0 discriminator 1
 613 0042 641B     		subs	r4, r4, r5
 614 0044 04FB03F4 		mul	r4, r4, r3
 615 0048 05EB2424 		add	r4, r5, r4, asr #8
 616 004c 5481     		strh	r4, [r2, #10]	@ movhi
 617 004e 00E0     		b	.L17
 618              	.L16:
 619              		.loc 1 230 0 discriminator 2
 620 0050 5581     		strh	r5, [r2, #10]	@ movhi
 621              	.L17:
 231:..\lvgl\lv_core/lv_style.c ****     STYLE_ATTR_MIX(body.border.opa, ratio);
 622              		.loc 1 231 0 is_stmt 1
 623 0052 457B     		ldrb	r5, [r0, #13]	@ zero_extendqisi2
 624 0054 4C7B     		ldrb	r4, [r1, #13]	@ zero_extendqisi2
ARM GAS  C:\Users\d3bug\AppData\Local\Temp\cczXaDld.s 			page 16


 625 0056 A542     		cmp	r5, r4
 626 0058 06D0     		beq	.L18
 627              		.loc 1 231 0 is_stmt 0 discriminator 1
 628 005a 641B     		subs	r4, r4, r5
 629 005c 04FB03F4 		mul	r4, r4, r3
 630 0060 05EB2424 		add	r4, r5, r4, asr #8
 631 0064 5473     		strb	r4, [r2, #13]
 632 0066 00E0     		b	.L19
 633              	.L18:
 634              		.loc 1 231 0 discriminator 2
 635 0068 5573     		strb	r5, [r2, #13]
 636              	.L19:
 232:..\lvgl\lv_core/lv_style.c ****     STYLE_ATTR_MIX(body.shadow.width, ratio);
 637              		.loc 1 232 0 is_stmt 1
 638 006a B0F91050 		ldrsh	r5, [r0, #16]
 639 006e B1F91040 		ldrsh	r4, [r1, #16]
 640 0072 A542     		cmp	r5, r4
 641 0074 06D0     		beq	.L20
 642              		.loc 1 232 0 is_stmt 0 discriminator 1
 643 0076 641B     		subs	r4, r4, r5
 644 0078 04FB03F4 		mul	r4, r4, r3
 645 007c 05EB2424 		add	r4, r5, r4, asr #8
 646 0080 1482     		strh	r4, [r2, #16]	@ movhi
 647 0082 00E0     		b	.L21
 648              	.L20:
 649              		.loc 1 232 0 discriminator 2
 650 0084 1582     		strh	r5, [r2, #16]	@ movhi
 651              	.L21:
 233:..\lvgl\lv_core/lv_style.c ****     STYLE_ATTR_MIX(body.padding.hor, ratio);
 652              		.loc 1 233 0 is_stmt 1
 653 0086 B0F91650 		ldrsh	r5, [r0, #22]
 654 008a B1F91640 		ldrsh	r4, [r1, #22]
 655 008e A542     		cmp	r5, r4
 656 0090 06D0     		beq	.L22
 657              		.loc 1 233 0 is_stmt 0 discriminator 1
 658 0092 641B     		subs	r4, r4, r5
 659 0094 04FB03F4 		mul	r4, r4, r3
 660 0098 05EB2424 		add	r4, r5, r4, asr #8
 661 009c D482     		strh	r4, [r2, #22]	@ movhi
 662 009e 00E0     		b	.L23
 663              	.L22:
 664              		.loc 1 233 0 discriminator 2
 665 00a0 D582     		strh	r5, [r2, #22]	@ movhi
 666              	.L23:
 234:..\lvgl\lv_core/lv_style.c ****     STYLE_ATTR_MIX(body.padding.ver, ratio);
 667              		.loc 1 234 0 is_stmt 1
 668 00a2 B0F91450 		ldrsh	r5, [r0, #20]
 669 00a6 B1F91440 		ldrsh	r4, [r1, #20]
 670 00aa A542     		cmp	r5, r4
 671 00ac 06D0     		beq	.L24
 672              		.loc 1 234 0 is_stmt 0 discriminator 1
 673 00ae 641B     		subs	r4, r4, r5
 674 00b0 04FB03F4 		mul	r4, r4, r3
 675 00b4 05EB2424 		add	r4, r5, r4, asr #8
 676 00b8 9482     		strh	r4, [r2, #20]	@ movhi
 677 00ba 00E0     		b	.L25
 678              	.L24:
ARM GAS  C:\Users\d3bug\AppData\Local\Temp\cczXaDld.s 			page 17


 679              		.loc 1 234 0 discriminator 2
 680 00bc 9582     		strh	r5, [r2, #20]	@ movhi
 681              	.L25:
 235:..\lvgl\lv_core/lv_style.c ****     STYLE_ATTR_MIX(body.padding.inner, ratio);
 682              		.loc 1 235 0 is_stmt 1
 683 00be B0F91850 		ldrsh	r5, [r0, #24]
 684 00c2 B1F91840 		ldrsh	r4, [r1, #24]
 685 00c6 A542     		cmp	r5, r4
 686 00c8 06D0     		beq	.L26
 687              		.loc 1 235 0 is_stmt 0 discriminator 1
 688 00ca 641B     		subs	r4, r4, r5
 689 00cc 04FB03F4 		mul	r4, r4, r3
 690 00d0 05EB2424 		add	r4, r5, r4, asr #8
 691 00d4 1483     		strh	r4, [r2, #24]	@ movhi
 692 00d6 00E0     		b	.L27
 693              	.L26:
 694              		.loc 1 235 0 discriminator 2
 695 00d8 1583     		strh	r5, [r2, #24]	@ movhi
 696              	.L27:
 236:..\lvgl\lv_core/lv_style.c ****     STYLE_ATTR_MIX(text.line_space, ratio);
 697              		.loc 1 236 0 is_stmt 1
 698 00da B0F92650 		ldrsh	r5, [r0, #38]
 699 00de B1F92640 		ldrsh	r4, [r1, #38]
 700 00e2 A542     		cmp	r5, r4
 701 00e4 06D0     		beq	.L28
 702              		.loc 1 236 0 is_stmt 0 discriminator 1
 703 00e6 641B     		subs	r4, r4, r5
 704 00e8 04FB03F4 		mul	r4, r4, r3
 705 00ec 05EB2424 		add	r4, r5, r4, asr #8
 706 00f0 D484     		strh	r4, [r2, #38]	@ movhi
 707 00f2 00E0     		b	.L29
 708              	.L28:
 709              		.loc 1 236 0 discriminator 2
 710 00f4 D584     		strh	r5, [r2, #38]	@ movhi
 711              	.L29:
 237:..\lvgl\lv_core/lv_style.c ****     STYLE_ATTR_MIX(text.letter_space, ratio);
 712              		.loc 1 237 0 is_stmt 1
 713 00f6 B0F92450 		ldrsh	r5, [r0, #36]
 714 00fa B1F92440 		ldrsh	r4, [r1, #36]
 715 00fe A542     		cmp	r5, r4
 716 0100 06D0     		beq	.L30
 717              		.loc 1 237 0 is_stmt 0 discriminator 1
 718 0102 641B     		subs	r4, r4, r5
 719 0104 04FB03F4 		mul	r4, r4, r3
 720 0108 05EB2424 		add	r4, r5, r4, asr #8
 721 010c 9484     		strh	r4, [r2, #36]	@ movhi
 722 010e 00E0     		b	.L31
 723              	.L30:
 724              		.loc 1 237 0 discriminator 2
 725 0110 9584     		strh	r5, [r2, #36]	@ movhi
 726              	.L31:
 238:..\lvgl\lv_core/lv_style.c ****     STYLE_ATTR_MIX(text.opa, ratio);
 727              		.loc 1 238 0 is_stmt 1
 728 0112 90F82850 		ldrb	r5, [r0, #40]	@ zero_extendqisi2
 729 0116 91F82840 		ldrb	r4, [r1, #40]	@ zero_extendqisi2
 730 011a A542     		cmp	r5, r4
 731 011c 07D0     		beq	.L32
ARM GAS  C:\Users\d3bug\AppData\Local\Temp\cczXaDld.s 			page 18


 732              		.loc 1 238 0 is_stmt 0 discriminator 1
 733 011e 641B     		subs	r4, r4, r5
 734 0120 04FB03F4 		mul	r4, r4, r3
 735 0124 05EB2424 		add	r4, r5, r4, asr #8
 736 0128 82F82840 		strb	r4, [r2, #40]
 737 012c 01E0     		b	.L33
 738              	.L32:
 739              		.loc 1 238 0 discriminator 2
 740 012e 82F82850 		strb	r5, [r2, #40]
 741              	.L33:
 239:..\lvgl\lv_core/lv_style.c ****     STYLE_ATTR_MIX(line.width, ratio);
 742              		.loc 1 239 0 is_stmt 1
 743 0132 B0F93250 		ldrsh	r5, [r0, #50]
 744 0136 B1F93240 		ldrsh	r4, [r1, #50]
 745 013a A542     		cmp	r5, r4
 746 013c 06D0     		beq	.L34
 747              		.loc 1 239 0 is_stmt 0 discriminator 1
 748 013e 641B     		subs	r4, r4, r5
 749 0140 04FB03F4 		mul	r4, r4, r3
 750 0144 05EB2424 		add	r4, r5, r4, asr #8
 751 0148 5486     		strh	r4, [r2, #50]	@ movhi
 752 014a 00E0     		b	.L35
 753              	.L34:
 754              		.loc 1 239 0 discriminator 2
 755 014c 5586     		strh	r5, [r2, #50]	@ movhi
 756              	.L35:
 240:..\lvgl\lv_core/lv_style.c ****     STYLE_ATTR_MIX(line.opa, ratio);
 757              		.loc 1 240 0 is_stmt 1
 758 014e 90F83450 		ldrb	r5, [r0, #52]	@ zero_extendqisi2
 759 0152 91F83440 		ldrb	r4, [r1, #52]	@ zero_extendqisi2
 760 0156 A542     		cmp	r5, r4
 761 0158 07D0     		beq	.L36
 762              		.loc 1 240 0 is_stmt 0 discriminator 1
 763 015a 641B     		subs	r4, r4, r5
 764 015c 04FB03F4 		mul	r4, r4, r3
 765 0160 05EB2424 		add	r4, r5, r4, asr #8
 766 0164 82F83440 		strb	r4, [r2, #52]
 767 0168 01E0     		b	.L37
 768              	.L36:
 769              		.loc 1 240 0 discriminator 2
 770 016a 82F83450 		strb	r5, [r2, #52]
 771              	.L37:
 241:..\lvgl\lv_core/lv_style.c ****     STYLE_ATTR_MIX(image.intense, ratio);
 772              		.loc 1 241 0 is_stmt 1
 773 016e 90F82D50 		ldrb	r5, [r0, #45]	@ zero_extendqisi2
 774 0172 91F82D40 		ldrb	r4, [r1, #45]	@ zero_extendqisi2
 775 0176 A542     		cmp	r5, r4
 776 0178 07D0     		beq	.L38
 777              		.loc 1 241 0 is_stmt 0 discriminator 1
 778 017a 641B     		subs	r4, r4, r5
 779 017c 04FB03F4 		mul	r4, r4, r3
 780 0180 05EB2424 		add	r4, r5, r4, asr #8
 781 0184 82F82D40 		strb	r4, [r2, #45]
 782 0188 01E0     		b	.L39
 783              	.L38:
 784              		.loc 1 241 0 discriminator 2
 785 018a 82F82D50 		strb	r5, [r2, #45]
ARM GAS  C:\Users\d3bug\AppData\Local\Temp\cczXaDld.s 			page 19


 786              	.L39:
 242:..\lvgl\lv_core/lv_style.c ****     STYLE_ATTR_MIX(image.opa, ratio);
 787              		.loc 1 242 0 is_stmt 1
 788 018e 90F82E50 		ldrb	r5, [r0, #46]	@ zero_extendqisi2
 789 0192 91F82E40 		ldrb	r4, [r1, #46]	@ zero_extendqisi2
 790 0196 A542     		cmp	r5, r4
 791 0198 07D0     		beq	.L40
 792              		.loc 1 242 0 is_stmt 0 discriminator 1
 793 019a 641B     		subs	r4, r4, r5
 794 019c 04FB03F4 		mul	r4, r4, r3
 795 01a0 05EB2424 		add	r4, r5, r4, asr #8
 796 01a4 82F82E40 		strb	r4, [r2, #46]
 797 01a8 01E0     		b	.L41
 798              	.L40:
 799              		.loc 1 242 0 discriminator 2
 800 01aa 82F82E50 		strb	r5, [r2, #46]
 801              	.L41:
 243:..\lvgl\lv_core/lv_style.c **** 
 244:..\lvgl\lv_core/lv_style.c ****     lv_opa_t opa = ratio == STYLE_MIX_MAX ? LV_OPA_COVER : ratio;
 802              		.loc 1 244 0 is_stmt 1
 803 01ae B3F5807F 		cmp	r3, #256
 804 01b2 01D0     		beq	.L59
 805              		.loc 1 244 0 is_stmt 0 discriminator 1
 806 01b4 DCB2     		uxtb	r4, r3
 807 01b6 00E0     		b	.L42
 808              	.L59:
 809              		.loc 1 244 0
 810 01b8 FF24     		movs	r4, #255
 811              	.L42:
 812              	.LVL4:
 813 01ba 8E78     		ldrb	r6, [r1, #2]	@ zero_extendqisi2
 814 01bc 8578     		ldrb	r5, [r0, #2]	@ zero_extendqisi2
 815              	.LVL5:
 816              	.LBB16:
 817              	.LBB17:
 818              		.file 2 "..\\lvgl\\lv_core\\../lv_misc/lv_color.h"
   1:..\lvgl\lv_core\../lv_misc/lv_color.h **** /**
   2:..\lvgl\lv_core\../lv_misc/lv_color.h ****  * @file lv_color.h
   3:..\lvgl\lv_core\../lv_misc/lv_color.h ****  *
   4:..\lvgl\lv_core\../lv_misc/lv_color.h ****  */
   5:..\lvgl\lv_core\../lv_misc/lv_color.h **** 
   6:..\lvgl\lv_core\../lv_misc/lv_color.h **** #ifndef LV_COLOR_H
   7:..\lvgl\lv_core\../lv_misc/lv_color.h **** #define LV_COLOR_H
   8:..\lvgl\lv_core\../lv_misc/lv_color.h **** 
   9:..\lvgl\lv_core\../lv_misc/lv_color.h **** #ifdef __cplusplus
  10:..\lvgl\lv_core\../lv_misc/lv_color.h **** extern "C" {
  11:..\lvgl\lv_core\../lv_misc/lv_color.h **** #endif
  12:..\lvgl\lv_core\../lv_misc/lv_color.h **** 
  13:..\lvgl\lv_core\../lv_misc/lv_color.h **** /*********************
  14:..\lvgl\lv_core\../lv_misc/lv_color.h ****  *      INCLUDES
  15:..\lvgl\lv_core\../lv_misc/lv_color.h ****  *********************/
  16:..\lvgl\lv_core\../lv_misc/lv_color.h **** #ifdef LV_CONF_INCLUDE_SIMPLE
  17:..\lvgl\lv_core\../lv_misc/lv_color.h **** #include "lv_conf.h"
  18:..\lvgl\lv_core\../lv_misc/lv_color.h **** #else
  19:..\lvgl\lv_core\../lv_misc/lv_color.h **** #include "../../lv_conf.h"
  20:..\lvgl\lv_core\../lv_misc/lv_color.h **** #endif
  21:..\lvgl\lv_core\../lv_misc/lv_color.h **** 
ARM GAS  C:\Users\d3bug\AppData\Local\Temp\cczXaDld.s 			page 20


  22:..\lvgl\lv_core\../lv_misc/lv_color.h **** /*Error checking*/
  23:..\lvgl\lv_core\../lv_misc/lv_color.h **** #if LV_COLOR_DEPTH == 24
  24:..\lvgl\lv_core\../lv_misc/lv_color.h **** #error "LV_COLOR_DEPTH  24 is deprecated. Use LV_COLOR_DEPTH  32 instead (lv_conf.h)"
  25:..\lvgl\lv_core\../lv_misc/lv_color.h **** #endif
  26:..\lvgl\lv_core\../lv_misc/lv_color.h **** 
  27:..\lvgl\lv_core\../lv_misc/lv_color.h **** #if LV_COLOR_DEPTH != 32 && LV_COLOR_SCREEN_TRANSP != 0
  28:..\lvgl\lv_core\../lv_misc/lv_color.h **** #error "LV_COLOR_SCREEN_TRANSP requires LV_COLOR_DEPTH == 32. Set it in lv_conf.h"
  29:..\lvgl\lv_core\../lv_misc/lv_color.h **** #endif
  30:..\lvgl\lv_core\../lv_misc/lv_color.h **** 
  31:..\lvgl\lv_core\../lv_misc/lv_color.h **** #if LV_COLOR_DEPTH != 16 && LV_COLOR_16_SWAP != 0
  32:..\lvgl\lv_core\../lv_misc/lv_color.h **** #error "LV_COLOR_16_SWAP requires LV_COLOR_DEPTH == 16. Set it in lv_conf.h"
  33:..\lvgl\lv_core\../lv_misc/lv_color.h **** #endif
  34:..\lvgl\lv_core\../lv_misc/lv_color.h **** 
  35:..\lvgl\lv_core\../lv_misc/lv_color.h **** 
  36:..\lvgl\lv_core\../lv_misc/lv_color.h **** #include <stdint.h>
  37:..\lvgl\lv_core\../lv_misc/lv_color.h **** 
  38:..\lvgl\lv_core\../lv_misc/lv_color.h **** /*********************
  39:..\lvgl\lv_core\../lv_misc/lv_color.h ****  *      DEFINES
  40:..\lvgl\lv_core\../lv_misc/lv_color.h ****  *********************/
  41:..\lvgl\lv_core\../lv_misc/lv_color.h **** #define LV_COLOR_WHITE   LV_COLOR_MAKE(0xFF,0xFF,0xFF)
  42:..\lvgl\lv_core\../lv_misc/lv_color.h **** #define LV_COLOR_SILVER  LV_COLOR_MAKE(0xC0,0xC0,0xC0)
  43:..\lvgl\lv_core\../lv_misc/lv_color.h **** #define LV_COLOR_GRAY    LV_COLOR_MAKE(0x80,0x80,0x80)
  44:..\lvgl\lv_core\../lv_misc/lv_color.h **** #define LV_COLOR_BLACK   LV_COLOR_MAKE(0x00,0x00,0x00)
  45:..\lvgl\lv_core\../lv_misc/lv_color.h **** #define LV_COLOR_RED     LV_COLOR_MAKE(0xFF,0x00,0x00)
  46:..\lvgl\lv_core\../lv_misc/lv_color.h **** #define LV_COLOR_MAROON  LV_COLOR_MAKE(0x80,0x00,0x00)
  47:..\lvgl\lv_core\../lv_misc/lv_color.h **** #define LV_COLOR_YELLOW  LV_COLOR_MAKE(0xFF,0xFF,0x00)
  48:..\lvgl\lv_core\../lv_misc/lv_color.h **** #define LV_COLOR_OLIVE   LV_COLOR_MAKE(0x80,0x80,0x00)
  49:..\lvgl\lv_core\../lv_misc/lv_color.h **** #define LV_COLOR_LIME    LV_COLOR_MAKE(0x00,0xFF,0x00)
  50:..\lvgl\lv_core\../lv_misc/lv_color.h **** #define LV_COLOR_GREEN   LV_COLOR_MAKE(0x00,0x80,0x00)
  51:..\lvgl\lv_core\../lv_misc/lv_color.h **** #define LV_COLOR_CYAN    LV_COLOR_MAKE(0x00,0xFF,0xFF)
  52:..\lvgl\lv_core\../lv_misc/lv_color.h **** #define LV_COLOR_AQUA    LV_COLOR_CYAN
  53:..\lvgl\lv_core\../lv_misc/lv_color.h **** #define LV_COLOR_TEAL    LV_COLOR_MAKE(0x00,0x80,0x80)
  54:..\lvgl\lv_core\../lv_misc/lv_color.h **** #define LV_COLOR_BLUE    LV_COLOR_MAKE(0x00,0x00,0xFF)
  55:..\lvgl\lv_core\../lv_misc/lv_color.h **** #define LV_COLOR_NAVY    LV_COLOR_MAKE(0x00,0x00,0x80)
  56:..\lvgl\lv_core\../lv_misc/lv_color.h **** #define LV_COLOR_MAGENTA LV_COLOR_MAKE(0xFF,0x00,0xFF)
  57:..\lvgl\lv_core\../lv_misc/lv_color.h **** #define LV_COLOR_PURPLE  LV_COLOR_MAKE(0x80,0x00,0x80)
  58:..\lvgl\lv_core\../lv_misc/lv_color.h **** #define LV_COLOR_ORANGE  LV_COLOR_MAKE(0xFF,0xA5,0x00)
  59:..\lvgl\lv_core\../lv_misc/lv_color.h **** 
  60:..\lvgl\lv_core\../lv_misc/lv_color.h **** enum {
  61:..\lvgl\lv_core\../lv_misc/lv_color.h ****     LV_OPA_TRANSP =  0,
  62:..\lvgl\lv_core\../lv_misc/lv_color.h ****     LV_OPA_0      =  0,
  63:..\lvgl\lv_core\../lv_misc/lv_color.h ****     LV_OPA_10     =  25,
  64:..\lvgl\lv_core\../lv_misc/lv_color.h ****     LV_OPA_20     =  51,
  65:..\lvgl\lv_core\../lv_misc/lv_color.h ****     LV_OPA_30     =  76,
  66:..\lvgl\lv_core\../lv_misc/lv_color.h ****     LV_OPA_40     =  102,
  67:..\lvgl\lv_core\../lv_misc/lv_color.h ****     LV_OPA_50     =  127,
  68:..\lvgl\lv_core\../lv_misc/lv_color.h ****     LV_OPA_60     =  153,
  69:..\lvgl\lv_core\../lv_misc/lv_color.h ****     LV_OPA_70     =  178,
  70:..\lvgl\lv_core\../lv_misc/lv_color.h ****     LV_OPA_80     =  204,
  71:..\lvgl\lv_core\../lv_misc/lv_color.h ****     LV_OPA_90     =  229,
  72:..\lvgl\lv_core\../lv_misc/lv_color.h ****     LV_OPA_100    =  255,
  73:..\lvgl\lv_core\../lv_misc/lv_color.h ****     LV_OPA_COVER  =  255,
  74:..\lvgl\lv_core\../lv_misc/lv_color.h **** };
  75:..\lvgl\lv_core\../lv_misc/lv_color.h **** 
  76:..\lvgl\lv_core\../lv_misc/lv_color.h **** #define LV_OPA_MIN      16      /*Opacities below this will be transparent*/
  77:..\lvgl\lv_core\../lv_misc/lv_color.h **** #define LV_OPA_MAX      251     /*Opacities above this will fully cover*/
  78:..\lvgl\lv_core\../lv_misc/lv_color.h **** 
ARM GAS  C:\Users\d3bug\AppData\Local\Temp\cczXaDld.s 			page 21


  79:..\lvgl\lv_core\../lv_misc/lv_color.h **** #if LV_COLOR_DEPTH == 1
  80:..\lvgl\lv_core\../lv_misc/lv_color.h **** #define LV_COLOR_SIZE           8
  81:..\lvgl\lv_core\../lv_misc/lv_color.h **** #elif LV_COLOR_DEPTH == 8
  82:..\lvgl\lv_core\../lv_misc/lv_color.h **** #define LV_COLOR_SIZE           8
  83:..\lvgl\lv_core\../lv_misc/lv_color.h **** #elif LV_COLOR_DEPTH == 16
  84:..\lvgl\lv_core\../lv_misc/lv_color.h **** #define LV_COLOR_SIZE           16
  85:..\lvgl\lv_core\../lv_misc/lv_color.h **** #elif LV_COLOR_DEPTH == 32
  86:..\lvgl\lv_core\../lv_misc/lv_color.h **** #define LV_COLOR_SIZE           32
  87:..\lvgl\lv_core\../lv_misc/lv_color.h **** #else
  88:..\lvgl\lv_core\../lv_misc/lv_color.h **** #error "Invalid LV_COLOR_DEPTH in lv_conf.h! Set it to 1, 8, 16 or 32!"
  89:..\lvgl\lv_core\../lv_misc/lv_color.h **** #endif
  90:..\lvgl\lv_core\../lv_misc/lv_color.h **** 
  91:..\lvgl\lv_core\../lv_misc/lv_color.h **** /**********************
  92:..\lvgl\lv_core\../lv_misc/lv_color.h ****  *      TYPEDEFS
  93:..\lvgl\lv_core\../lv_misc/lv_color.h ****  **********************/
  94:..\lvgl\lv_core\../lv_misc/lv_color.h **** 
  95:..\lvgl\lv_core\../lv_misc/lv_color.h **** typedef union
  96:..\lvgl\lv_core\../lv_misc/lv_color.h **** {
  97:..\lvgl\lv_core\../lv_misc/lv_color.h ****     uint8_t blue  :1;
  98:..\lvgl\lv_core\../lv_misc/lv_color.h ****     uint8_t green :1;
  99:..\lvgl\lv_core\../lv_misc/lv_color.h ****     uint8_t red   :1;
 100:..\lvgl\lv_core\../lv_misc/lv_color.h ****     uint8_t full  :1;
 101:..\lvgl\lv_core\../lv_misc/lv_color.h **** } lv_color1_t;
 102:..\lvgl\lv_core\../lv_misc/lv_color.h **** 
 103:..\lvgl\lv_core\../lv_misc/lv_color.h **** typedef union
 104:..\lvgl\lv_core\../lv_misc/lv_color.h **** {
 105:..\lvgl\lv_core\../lv_misc/lv_color.h ****     struct
 106:..\lvgl\lv_core\../lv_misc/lv_color.h ****     {
 107:..\lvgl\lv_core\../lv_misc/lv_color.h ****         uint8_t blue  :2;
 108:..\lvgl\lv_core\../lv_misc/lv_color.h ****         uint8_t green :3;
 109:..\lvgl\lv_core\../lv_misc/lv_color.h ****         uint8_t red   :3;
 110:..\lvgl\lv_core\../lv_misc/lv_color.h ****     };
 111:..\lvgl\lv_core\../lv_misc/lv_color.h ****     uint8_t full;
 112:..\lvgl\lv_core\../lv_misc/lv_color.h **** } lv_color8_t;
 113:..\lvgl\lv_core\../lv_misc/lv_color.h **** 
 114:..\lvgl\lv_core\../lv_misc/lv_color.h **** typedef union
 115:..\lvgl\lv_core\../lv_misc/lv_color.h **** {
 116:..\lvgl\lv_core\../lv_misc/lv_color.h ****     struct
 117:..\lvgl\lv_core\../lv_misc/lv_color.h ****     {
 118:..\lvgl\lv_core\../lv_misc/lv_color.h **** #if LV_COLOR_16_SWAP == 0
 119:..\lvgl\lv_core\../lv_misc/lv_color.h ****         uint16_t blue  :5;
 120:..\lvgl\lv_core\../lv_misc/lv_color.h ****         uint16_t green :6;
 121:..\lvgl\lv_core\../lv_misc/lv_color.h ****         uint16_t red   :5;
 122:..\lvgl\lv_core\../lv_misc/lv_color.h **** #else
 123:..\lvgl\lv_core\../lv_misc/lv_color.h ****         uint16_t green_h :3;
 124:..\lvgl\lv_core\../lv_misc/lv_color.h ****         uint16_t red   :5;
 125:..\lvgl\lv_core\../lv_misc/lv_color.h ****         uint16_t blue  :5;
 126:..\lvgl\lv_core\../lv_misc/lv_color.h ****         uint16_t green_l :3;
 127:..\lvgl\lv_core\../lv_misc/lv_color.h **** #endif
 128:..\lvgl\lv_core\../lv_misc/lv_color.h ****     };
 129:..\lvgl\lv_core\../lv_misc/lv_color.h ****     uint16_t full;
 130:..\lvgl\lv_core\../lv_misc/lv_color.h **** } lv_color16_t;
 131:..\lvgl\lv_core\../lv_misc/lv_color.h **** 
 132:..\lvgl\lv_core\../lv_misc/lv_color.h **** typedef union
 133:..\lvgl\lv_core\../lv_misc/lv_color.h **** {
 134:..\lvgl\lv_core\../lv_misc/lv_color.h ****     struct
 135:..\lvgl\lv_core\../lv_misc/lv_color.h ****     {
ARM GAS  C:\Users\d3bug\AppData\Local\Temp\cczXaDld.s 			page 22


 136:..\lvgl\lv_core\../lv_misc/lv_color.h ****         uint8_t blue;
 137:..\lvgl\lv_core\../lv_misc/lv_color.h ****         uint8_t green;
 138:..\lvgl\lv_core\../lv_misc/lv_color.h ****         uint8_t red;
 139:..\lvgl\lv_core\../lv_misc/lv_color.h ****         uint8_t alpha;
 140:..\lvgl\lv_core\../lv_misc/lv_color.h ****     };
 141:..\lvgl\lv_core\../lv_misc/lv_color.h ****     uint32_t full;
 142:..\lvgl\lv_core\../lv_misc/lv_color.h **** } lv_color32_t;
 143:..\lvgl\lv_core\../lv_misc/lv_color.h **** 
 144:..\lvgl\lv_core\../lv_misc/lv_color.h **** #if LV_COLOR_DEPTH == 1
 145:..\lvgl\lv_core\../lv_misc/lv_color.h **** typedef uint8_t lv_color_int_t;
 146:..\lvgl\lv_core\../lv_misc/lv_color.h **** typedef lv_color1_t lv_color_t;
 147:..\lvgl\lv_core\../lv_misc/lv_color.h **** #elif LV_COLOR_DEPTH == 8
 148:..\lvgl\lv_core\../lv_misc/lv_color.h **** typedef uint8_t lv_color_int_t;
 149:..\lvgl\lv_core\../lv_misc/lv_color.h **** typedef lv_color8_t lv_color_t;
 150:..\lvgl\lv_core\../lv_misc/lv_color.h **** #elif LV_COLOR_DEPTH == 16
 151:..\lvgl\lv_core\../lv_misc/lv_color.h **** typedef uint16_t lv_color_int_t;
 152:..\lvgl\lv_core\../lv_misc/lv_color.h **** typedef lv_color16_t lv_color_t;
 153:..\lvgl\lv_core\../lv_misc/lv_color.h **** #elif LV_COLOR_DEPTH == 32
 154:..\lvgl\lv_core\../lv_misc/lv_color.h **** typedef uint32_t lv_color_int_t;
 155:..\lvgl\lv_core\../lv_misc/lv_color.h **** typedef lv_color32_t lv_color_t;
 156:..\lvgl\lv_core\../lv_misc/lv_color.h **** #else
 157:..\lvgl\lv_core\../lv_misc/lv_color.h **** #error "Invalid LV_COLOR_DEPTH in lv_conf.h! Set it to 1, 8, 16 or 32!"
 158:..\lvgl\lv_core\../lv_misc/lv_color.h **** #endif
 159:..\lvgl\lv_core\../lv_misc/lv_color.h **** 
 160:..\lvgl\lv_core\../lv_misc/lv_color.h **** typedef uint8_t lv_opa_t;
 161:..\lvgl\lv_core\../lv_misc/lv_color.h **** 
 162:..\lvgl\lv_core\../lv_misc/lv_color.h **** typedef struct
 163:..\lvgl\lv_core\../lv_misc/lv_color.h **** {
 164:..\lvgl\lv_core\../lv_misc/lv_color.h ****     uint16_t h;
 165:..\lvgl\lv_core\../lv_misc/lv_color.h ****     uint8_t s;
 166:..\lvgl\lv_core\../lv_misc/lv_color.h ****     uint8_t v;
 167:..\lvgl\lv_core\../lv_misc/lv_color.h **** } lv_color_hsv_t;
 168:..\lvgl\lv_core\../lv_misc/lv_color.h **** 
 169:..\lvgl\lv_core\../lv_misc/lv_color.h **** /**********************
 170:..\lvgl\lv_core\../lv_misc/lv_color.h ****  * GLOBAL PROTOTYPES
 171:..\lvgl\lv_core\../lv_misc/lv_color.h ****  **********************/
 172:..\lvgl\lv_core\../lv_misc/lv_color.h **** 
 173:..\lvgl\lv_core\../lv_misc/lv_color.h **** /*In color conversations:
 174:..\lvgl\lv_core\../lv_misc/lv_color.h ****  * - When converting to bigger color type the LSB weight of 1 LSB is calculated
 175:..\lvgl\lv_core\../lv_misc/lv_color.h ****  *   E.g. 16 bit Red has 5 bits
 176:..\lvgl\lv_core\../lv_misc/lv_color.h ****  *         8 bit Red has 2 bits
 177:..\lvgl\lv_core\../lv_misc/lv_color.h ****  *        ----------------------
 178:..\lvgl\lv_core\../lv_misc/lv_color.h ****  *        8 bit red LSB = (2^5 - 1) / (2^2 - 1) = 31 / 3 = 10
 179:..\lvgl\lv_core\../lv_misc/lv_color.h ****  *
 180:..\lvgl\lv_core\../lv_misc/lv_color.h ****  * - When calculating to smaller color type simply shift out the LSBs
 181:..\lvgl\lv_core\../lv_misc/lv_color.h ****  *   E.g.  8 bit Red has 2 bits
 182:..\lvgl\lv_core\../lv_misc/lv_color.h ****  *        16 bit Red has 5 bits
 183:..\lvgl\lv_core\../lv_misc/lv_color.h ****  *        ----------------------
 184:..\lvgl\lv_core\../lv_misc/lv_color.h ****  *         Shift right with 5 - 3 = 2
 185:..\lvgl\lv_core\../lv_misc/lv_color.h ****  */
 186:..\lvgl\lv_core\../lv_misc/lv_color.h **** 
 187:..\lvgl\lv_core\../lv_misc/lv_color.h **** static inline uint8_t lv_color_to1(lv_color_t color)
 188:..\lvgl\lv_core\../lv_misc/lv_color.h **** {
 189:..\lvgl\lv_core\../lv_misc/lv_color.h **** #if LV_COLOR_DEPTH == 1
 190:..\lvgl\lv_core\../lv_misc/lv_color.h ****     return color.full;
 191:..\lvgl\lv_core\../lv_misc/lv_color.h **** #elif LV_COLOR_DEPTH == 8
 192:..\lvgl\lv_core\../lv_misc/lv_color.h ****     if((color.red   & 0x4) ||
ARM GAS  C:\Users\d3bug\AppData\Local\Temp\cczXaDld.s 			page 23


 193:..\lvgl\lv_core\../lv_misc/lv_color.h ****             (color.green & 0x4) ||
 194:..\lvgl\lv_core\../lv_misc/lv_color.h ****             (color.blue  & 0x2)) {
 195:..\lvgl\lv_core\../lv_misc/lv_color.h ****         return 1;
 196:..\lvgl\lv_core\../lv_misc/lv_color.h ****     } else {
 197:..\lvgl\lv_core\../lv_misc/lv_color.h ****         return 0;
 198:..\lvgl\lv_core\../lv_misc/lv_color.h ****     }
 199:..\lvgl\lv_core\../lv_misc/lv_color.h **** #elif LV_COLOR_DEPTH == 16
 200:..\lvgl\lv_core\../lv_misc/lv_color.h **** #  if LV_COLOR_16_SWAP == 0
 201:..\lvgl\lv_core\../lv_misc/lv_color.h ****     if((color.red   & 0x10) ||
 202:..\lvgl\lv_core\../lv_misc/lv_color.h ****             (color.green & 0x20) ||
 203:..\lvgl\lv_core\../lv_misc/lv_color.h ****             (color.blue  & 0x10)) {
 204:..\lvgl\lv_core\../lv_misc/lv_color.h ****         return 1;
 205:..\lvgl\lv_core\../lv_misc/lv_color.h **** #  else
 206:..\lvgl\lv_core\../lv_misc/lv_color.h ****     if((color.red   & 0x10) ||
 207:..\lvgl\lv_core\../lv_misc/lv_color.h ****             (color.green_h & 0x20) ||
 208:..\lvgl\lv_core\../lv_misc/lv_color.h ****             (color.blue  & 0x10)) {
 209:..\lvgl\lv_core\../lv_misc/lv_color.h ****         return 1;
 210:..\lvgl\lv_core\../lv_misc/lv_color.h **** #  endif
 211:..\lvgl\lv_core\../lv_misc/lv_color.h ****     } else {
 212:..\lvgl\lv_core\../lv_misc/lv_color.h ****         return 0;
 213:..\lvgl\lv_core\../lv_misc/lv_color.h ****     }
 214:..\lvgl\lv_core\../lv_misc/lv_color.h **** #elif LV_COLOR_DEPTH == 32
 215:..\lvgl\lv_core\../lv_misc/lv_color.h ****     if((color.red   & 0x80) ||
 216:..\lvgl\lv_core\../lv_misc/lv_color.h ****             (color.green & 0x80) ||
 217:..\lvgl\lv_core\../lv_misc/lv_color.h ****             (color.blue  & 0x80)) {
 218:..\lvgl\lv_core\../lv_misc/lv_color.h ****         return 1;
 219:..\lvgl\lv_core\../lv_misc/lv_color.h ****     } else {
 220:..\lvgl\lv_core\../lv_misc/lv_color.h ****         return 0;
 221:..\lvgl\lv_core\../lv_misc/lv_color.h ****     }
 222:..\lvgl\lv_core\../lv_misc/lv_color.h **** #endif
 223:..\lvgl\lv_core\../lv_misc/lv_color.h **** }
 224:..\lvgl\lv_core\../lv_misc/lv_color.h **** 
 225:..\lvgl\lv_core\../lv_misc/lv_color.h **** static inline uint8_t lv_color_to8(lv_color_t color)
 226:..\lvgl\lv_core\../lv_misc/lv_color.h **** {
 227:..\lvgl\lv_core\../lv_misc/lv_color.h **** #if LV_COLOR_DEPTH == 1
 228:..\lvgl\lv_core\../lv_misc/lv_color.h ****     if(color.full == 0) return 0;
 229:..\lvgl\lv_core\../lv_misc/lv_color.h ****     else return 0xFF;
 230:..\lvgl\lv_core\../lv_misc/lv_color.h **** #elif LV_COLOR_DEPTH == 8
 231:..\lvgl\lv_core\../lv_misc/lv_color.h ****     return color.full;
 232:..\lvgl\lv_core\../lv_misc/lv_color.h **** #elif LV_COLOR_DEPTH == 16
 233:..\lvgl\lv_core\../lv_misc/lv_color.h **** 
 234:..\lvgl\lv_core\../lv_misc/lv_color.h **** #  if LV_COLOR_16_SWAP == 0
 235:..\lvgl\lv_core\../lv_misc/lv_color.h ****     lv_color8_t ret;
 236:..\lvgl\lv_core\../lv_misc/lv_color.h ****     ret.red = color.red >> 2;       /* 5 - 3  = 2*/
 237:..\lvgl\lv_core\../lv_misc/lv_color.h ****     ret.green = color.green >> 3;   /* 6 - 3  = 3*/
 238:..\lvgl\lv_core\../lv_misc/lv_color.h ****     ret.blue = color.blue >> 3;     /* 5 - 2  = 3*/
 239:..\lvgl\lv_core\../lv_misc/lv_color.h ****     return ret.full;
 240:..\lvgl\lv_core\../lv_misc/lv_color.h **** #  else
 241:..\lvgl\lv_core\../lv_misc/lv_color.h ****     lv_color8_t ret;
 242:..\lvgl\lv_core\../lv_misc/lv_color.h ****     ret.red = color.red >> 2;       /* 5 - 3  = 2*/
 243:..\lvgl\lv_core\../lv_misc/lv_color.h ****     ret.green = color.green_h;      /* 6 - 3  = 3*/
 244:..\lvgl\lv_core\../lv_misc/lv_color.h ****     ret.blue = color.blue >> 3;     /* 5 - 2  = 3*/
 245:..\lvgl\lv_core\../lv_misc/lv_color.h ****     return ret.full;
 246:..\lvgl\lv_core\../lv_misc/lv_color.h **** #  endif
 247:..\lvgl\lv_core\../lv_misc/lv_color.h **** #elif LV_COLOR_DEPTH == 32
 248:..\lvgl\lv_core\../lv_misc/lv_color.h ****     lv_color8_t ret;
 249:..\lvgl\lv_core\../lv_misc/lv_color.h ****     ret.red = color.red >> 5;       /* 8 - 3  = 5*/
ARM GAS  C:\Users\d3bug\AppData\Local\Temp\cczXaDld.s 			page 24


 250:..\lvgl\lv_core\../lv_misc/lv_color.h ****     ret.green = color.green >> 5;   /* 8 - 3  = 5*/
 251:..\lvgl\lv_core\../lv_misc/lv_color.h ****     ret.blue = color.blue >> 6;     /* 8 - 2  = 6*/
 252:..\lvgl\lv_core\../lv_misc/lv_color.h ****     return ret.full;
 253:..\lvgl\lv_core\../lv_misc/lv_color.h **** #endif
 254:..\lvgl\lv_core\../lv_misc/lv_color.h **** }
 255:..\lvgl\lv_core\../lv_misc/lv_color.h **** 
 256:..\lvgl\lv_core\../lv_misc/lv_color.h **** static inline uint16_t lv_color_to16(lv_color_t color)
 257:..\lvgl\lv_core\../lv_misc/lv_color.h **** {
 258:..\lvgl\lv_core\../lv_misc/lv_color.h **** #if LV_COLOR_DEPTH == 1
 259:..\lvgl\lv_core\../lv_misc/lv_color.h ****     if(color.full == 0) return 0;
 260:..\lvgl\lv_core\../lv_misc/lv_color.h ****     else return 0xFFFF;
 261:..\lvgl\lv_core\../lv_misc/lv_color.h **** #elif LV_COLOR_DEPTH == 8
 262:..\lvgl\lv_core\../lv_misc/lv_color.h ****     lv_color16_t ret;
 263:..\lvgl\lv_core\../lv_misc/lv_color.h **** #  if LV_COLOR_16_SWAP == 0
 264:..\lvgl\lv_core\../lv_misc/lv_color.h ****     ret.red = color.red * 4;       /*(2^5 - 1)/(2^3 - 1) = 31/7 = 4*/
 265:..\lvgl\lv_core\../lv_misc/lv_color.h ****     ret.green = color.green * 9;   /*(2^6 - 1)/(2^3 - 1) = 63/7 = 9*/
 266:..\lvgl\lv_core\../lv_misc/lv_color.h ****     ret.blue = color.blue * 10;    /*(2^5 - 1)/(2^2 - 1) = 31/3 = 10*/
 267:..\lvgl\lv_core\../lv_misc/lv_color.h **** #  else
 268:..\lvgl\lv_core\../lv_misc/lv_color.h ****     ret.red = color.red * 4;
 269:..\lvgl\lv_core\../lv_misc/lv_color.h ****     uint8_t g_tmp = color.green * 9;
 270:..\lvgl\lv_core\../lv_misc/lv_color.h ****     ret.green_h = (g_tmp & 0x1F) >> 3;
 271:..\lvgl\lv_core\../lv_misc/lv_color.h ****     ret.green_l = g_tmp & 0x07;
 272:..\lvgl\lv_core\../lv_misc/lv_color.h ****     ret.blue = color.blue * 10;
 273:..\lvgl\lv_core\../lv_misc/lv_color.h **** #  endif
 274:..\lvgl\lv_core\../lv_misc/lv_color.h ****     return ret.full;
 275:..\lvgl\lv_core\../lv_misc/lv_color.h **** #elif LV_COLOR_DEPTH == 16
 276:..\lvgl\lv_core\../lv_misc/lv_color.h ****     return color.full;
 277:..\lvgl\lv_core\../lv_misc/lv_color.h **** #elif LV_COLOR_DEPTH == 32
 278:..\lvgl\lv_core\../lv_misc/lv_color.h ****     lv_color16_t ret;
 279:..\lvgl\lv_core\../lv_misc/lv_color.h **** #  if LV_COLOR_16_SWAP == 0
 280:..\lvgl\lv_core\../lv_misc/lv_color.h ****     ret.red = color.red >> 3;       /* 8 - 5  = 3*/
 281:..\lvgl\lv_core\../lv_misc/lv_color.h ****     ret.green = color.green >> 2;   /* 8 - 6  = 2*/
 282:..\lvgl\lv_core\../lv_misc/lv_color.h ****     ret.blue = color.blue >> 3;     /* 8 - 5  = 3*/
 283:..\lvgl\lv_core\../lv_misc/lv_color.h **** #  else
 284:..\lvgl\lv_core\../lv_misc/lv_color.h ****     ret.red = color.red >> 3;
 285:..\lvgl\lv_core\../lv_misc/lv_color.h ****     ret.green_h = (color.green & 0xE0) >> 5;
 286:..\lvgl\lv_core\../lv_misc/lv_color.h ****     ret.green_l = (color.green & 0x1C) >> 2;
 287:..\lvgl\lv_core\../lv_misc/lv_color.h ****     ret.blue = color.blue >> 3;
 288:..\lvgl\lv_core\../lv_misc/lv_color.h **** #  endif
 289:..\lvgl\lv_core\../lv_misc/lv_color.h ****     return ret.full;
 290:..\lvgl\lv_core\../lv_misc/lv_color.h **** #endif
 291:..\lvgl\lv_core\../lv_misc/lv_color.h **** }
 292:..\lvgl\lv_core\../lv_misc/lv_color.h **** 
 293:..\lvgl\lv_core\../lv_misc/lv_color.h **** static inline uint32_t lv_color_to32(lv_color_t color)
 294:..\lvgl\lv_core\../lv_misc/lv_color.h **** {
 295:..\lvgl\lv_core\../lv_misc/lv_color.h **** #if LV_COLOR_DEPTH == 1
 296:..\lvgl\lv_core\../lv_misc/lv_color.h ****     if(color.full == 0) return 0;
 297:..\lvgl\lv_core\../lv_misc/lv_color.h ****     else return 0xFFFFFFFF;
 298:..\lvgl\lv_core\../lv_misc/lv_color.h **** #elif LV_COLOR_DEPTH == 8
 299:..\lvgl\lv_core\../lv_misc/lv_color.h ****     lv_color32_t ret;
 300:..\lvgl\lv_core\../lv_misc/lv_color.h ****     ret.red = color.red * 36;        /*(2^8 - 1)/(2^3 - 1) = 255/7 = 36*/
 301:..\lvgl\lv_core\../lv_misc/lv_color.h ****     ret.green = color.green * 36;    /*(2^8 - 1)/(2^3 - 1) = 255/7 = 36*/
 302:..\lvgl\lv_core\../lv_misc/lv_color.h ****     ret.blue = color.blue * 85;      /*(2^8 - 1)/(2^2 - 1) = 255/3 = 85*/
 303:..\lvgl\lv_core\../lv_misc/lv_color.h ****     ret.alpha = 0xFF;
 304:..\lvgl\lv_core\../lv_misc/lv_color.h ****     return ret.full;
 305:..\lvgl\lv_core\../lv_misc/lv_color.h **** #elif LV_COLOR_DEPTH == 16
 306:..\lvgl\lv_core\../lv_misc/lv_color.h **** #  if LV_COLOR_16_SWAP == 0
ARM GAS  C:\Users\d3bug\AppData\Local\Temp\cczXaDld.s 			page 25


 307:..\lvgl\lv_core\../lv_misc/lv_color.h ****     lv_color32_t ret;
 308:..\lvgl\lv_core\../lv_misc/lv_color.h ****     ret.red = color.red * 8;       /*(2^8 - 1)/(2^5 - 1) = 255/31 = 8*/
 309:..\lvgl\lv_core\../lv_misc/lv_color.h ****     ret.green = color.green * 4;   /*(2^8 - 1)/(2^6 - 1) = 255/63 = 4*/
 310:..\lvgl\lv_core\../lv_misc/lv_color.h ****     ret.blue = color.blue * 8;     /*(2^8 - 1)/(2^5 - 1) = 255/31 = 8*/
 311:..\lvgl\lv_core\../lv_misc/lv_color.h ****     ret.alpha = 0xFF;
 312:..\lvgl\lv_core\../lv_misc/lv_color.h ****     return ret.full;
 313:..\lvgl\lv_core\../lv_misc/lv_color.h **** #  else
 314:..\lvgl\lv_core\../lv_misc/lv_color.h ****     lv_color32_t ret;
 315:..\lvgl\lv_core\../lv_misc/lv_color.h ****     ret.red = color.red * 8;                                    /*(2^8 - 1)/(2^5 - 1) = 255/31 = 8*
 316:..\lvgl\lv_core\../lv_misc/lv_color.h ****     ret.green = ((color.green_h << 3) + color.green_l) * 4;     /*(2^8 - 1)/(2^6 - 1) = 255/63 = 4*
 317:..\lvgl\lv_core\../lv_misc/lv_color.h ****     ret.blue = color.blue * 8;                                   /*(2^8 - 1)/(2^5 - 1) = 255/31 = 8
 318:..\lvgl\lv_core\../lv_misc/lv_color.h ****     ret.alpha = 0xFF;
 319:..\lvgl\lv_core\../lv_misc/lv_color.h ****     return ret.full;
 320:..\lvgl\lv_core\../lv_misc/lv_color.h **** #  endif
 321:..\lvgl\lv_core\../lv_misc/lv_color.h **** #elif LV_COLOR_DEPTH == 32
 322:..\lvgl\lv_core\../lv_misc/lv_color.h ****     return color.full;
 323:..\lvgl\lv_core\../lv_misc/lv_color.h **** #endif
 324:..\lvgl\lv_core\../lv_misc/lv_color.h **** }
 325:..\lvgl\lv_core\../lv_misc/lv_color.h **** 
 326:..\lvgl\lv_core\../lv_misc/lv_color.h **** static inline lv_color_t lv_color_mix(lv_color_t c1, lv_color_t c2, uint8_t mix)
 327:..\lvgl\lv_core\../lv_misc/lv_color.h **** {
 328:..\lvgl\lv_core\../lv_misc/lv_color.h ****     lv_color_t ret;
 329:..\lvgl\lv_core\../lv_misc/lv_color.h **** #if LV_COLOR_DEPTH != 1
 330:..\lvgl\lv_core\../lv_misc/lv_color.h ****     /*LV_COLOR_DEPTH == 8, 16 or 32*/
 331:..\lvgl\lv_core\../lv_misc/lv_color.h ****     ret.red =   (uint16_t)((uint16_t) c1.red * mix + (c2.red * (255 - mix))) >> 8;
 332:..\lvgl\lv_core\../lv_misc/lv_color.h **** #  if LV_COLOR_DEPTH == 16 && LV_COLOR_16_SWAP
 333:..\lvgl\lv_core\../lv_misc/lv_color.h ****     /*If swapped Green is in 2 parts*/
 334:..\lvgl\lv_core\../lv_misc/lv_color.h ****     uint16_t g_1 = (c1.green_h << 3) + c1.green_l;
 335:..\lvgl\lv_core\../lv_misc/lv_color.h ****     uint16_t g_2 = (c2.green_h << 3) + c2.green_l;
 336:..\lvgl\lv_core\../lv_misc/lv_color.h ****     uint16_t g_out = (uint16_t)((uint16_t) g_1 * mix + (g_2 * (255 - mix))) >> 8;
 337:..\lvgl\lv_core\../lv_misc/lv_color.h ****     ret.green_h = g_out >> 3;
 338:..\lvgl\lv_core\../lv_misc/lv_color.h ****     ret.green_l = g_out & 0x7;
 339:..\lvgl\lv_core\../lv_misc/lv_color.h **** #  else
 340:..\lvgl\lv_core\../lv_misc/lv_color.h ****     ret.green = (uint16_t)((uint16_t) c1.green * mix + (c2.green * (255 - mix))) >> 8;
 341:..\lvgl\lv_core\../lv_misc/lv_color.h **** #  endif
 342:..\lvgl\lv_core\../lv_misc/lv_color.h ****     ret.blue =  (uint16_t)((uint16_t) c1.blue * mix + (c2.blue * (255 - mix))) >> 8;
 343:..\lvgl\lv_core\../lv_misc/lv_color.h **** # if LV_COLOR_DEPTH == 32
 344:..\lvgl\lv_core\../lv_misc/lv_color.h ****     ret.alpha = 0xFF;
 345:..\lvgl\lv_core\../lv_misc/lv_color.h **** # endif
 346:..\lvgl\lv_core\../lv_misc/lv_color.h **** #else
 347:..\lvgl\lv_core\../lv_misc/lv_color.h ****     /*LV_COLOR_DEPTH == 1*/
 348:..\lvgl\lv_core\../lv_misc/lv_color.h ****     ret.full = mix > LV_OPA_50 ? c1.full : c2.full;
 819              		.loc 2 348 0 is_stmt 1 discriminator 4
 820 01be 64B2     		sxtb	r4, r4
 821 01c0 002C     		cmp	r4, #0
 822 01c2 02DA     		bge	.L43
 823              		.loc 2 348 0 is_stmt 0
 824 01c4 06F00105 		and	r5, r6, #1
 825 01c8 01E0     		b	.L44
 826              	.L43:
 827 01ca 05F00105 		and	r5, r5, #1
 828              	.L44:
 829              	.LBE17:
 830              	.LBE16:
 245:..\lvgl\lv_core/lv_style.c **** 
 246:..\lvgl\lv_core/lv_style.c ****     res->body.main_color = lv_color_mix(end->body.main_color, start->body.main_color, opa);
 831              		.loc 1 246 0 is_stmt 1
ARM GAS  C:\Users\d3bug\AppData\Local\Temp\cczXaDld.s 			page 26


 832 01ce 9570     		strb	r5, [r2, #2]
 833 01d0 CE78     		ldrb	r6, [r1, #3]	@ zero_extendqisi2
 834 01d2 C578     		ldrb	r5, [r0, #3]	@ zero_extendqisi2
 835              	.LVL6:
 836              	.LBB18:
 837              	.LBB19:
 838              		.loc 2 348 0
 839 01d4 002C     		cmp	r4, #0
 840 01d6 02DA     		bge	.L45
 841 01d8 06F00105 		and	r5, r6, #1
 842 01dc 01E0     		b	.L46
 843              	.L45:
 844 01de 05F00105 		and	r5, r5, #1
 845              	.L46:
 846              	.LBE19:
 847              	.LBE18:
 247:..\lvgl\lv_core/lv_style.c ****     res->body.grad_color = lv_color_mix(end->body.grad_color, start->body.grad_color, opa);
 848              		.loc 1 247 0
 849 01e2 D570     		strb	r5, [r2, #3]
 850 01e4 0E7A     		ldrb	r6, [r1, #8]	@ zero_extendqisi2
 851 01e6 057A     		ldrb	r5, [r0, #8]	@ zero_extendqisi2
 852              	.LVL7:
 853              	.LBB20:
 854              	.LBB21:
 855              		.loc 2 348 0
 856 01e8 002C     		cmp	r4, #0
 857 01ea 02DA     		bge	.L47
 858 01ec 06F00105 		and	r5, r6, #1
 859 01f0 01E0     		b	.L48
 860              	.L47:
 861 01f2 05F00105 		and	r5, r5, #1
 862              	.L48:
 863              	.LBE21:
 864              	.LBE20:
 248:..\lvgl\lv_core/lv_style.c ****     res->body.border.color = lv_color_mix(end->body.border.color, start->body.border.color, opa);
 865              		.loc 1 248 0
 866 01f6 1572     		strb	r5, [r2, #8]
 867 01f8 8E7B     		ldrb	r6, [r1, #14]	@ zero_extendqisi2
 868 01fa 857B     		ldrb	r5, [r0, #14]	@ zero_extendqisi2
 869              	.LVL8:
 870              	.LBB22:
 871              	.LBB23:
 872              		.loc 2 348 0
 873 01fc 002C     		cmp	r4, #0
 874 01fe 02DA     		bge	.L49
 875 0200 06F00105 		and	r5, r6, #1
 876 0204 01E0     		b	.L50
 877              	.L49:
 878 0206 05F00105 		and	r5, r5, #1
 879              	.L50:
 880              	.LBE23:
 881              	.LBE22:
 249:..\lvgl\lv_core/lv_style.c ****     res->body.shadow.color = lv_color_mix(end->body.shadow.color, start->body.shadow.color, opa);
 882              		.loc 1 249 0
 883 020a 9573     		strb	r5, [r2, #14]
 884 020c 0E7F     		ldrb	r6, [r1, #28]	@ zero_extendqisi2
 885 020e 057F     		ldrb	r5, [r0, #28]	@ zero_extendqisi2
ARM GAS  C:\Users\d3bug\AppData\Local\Temp\cczXaDld.s 			page 27


 886              	.LVL9:
 887              	.LBB24:
 888              	.LBB25:
 889              		.loc 2 348 0
 890 0210 002C     		cmp	r4, #0
 891 0212 02DA     		bge	.L51
 892 0214 06F00105 		and	r5, r6, #1
 893 0218 01E0     		b	.L52
 894              	.L51:
 895 021a 05F00105 		and	r5, r5, #1
 896              	.L52:
 897              	.LBE25:
 898              	.LBE24:
 250:..\lvgl\lv_core/lv_style.c ****     res->text.color = lv_color_mix(end->text.color, start->text.color, opa);
 899              		.loc 1 250 0
 900 021e 1577     		strb	r5, [r2, #28]
 901 0220 91F82C60 		ldrb	r6, [r1, #44]	@ zero_extendqisi2
 902 0224 90F82C50 		ldrb	r5, [r0, #44]	@ zero_extendqisi2
 903              	.LVL10:
 904              	.LBB26:
 905              	.LBB27:
 906              		.loc 2 348 0
 907 0228 002C     		cmp	r4, #0
 908 022a 02DA     		bge	.L53
 909 022c 06F00105 		and	r5, r6, #1
 910 0230 01E0     		b	.L54
 911              	.L53:
 912 0232 05F00105 		and	r5, r5, #1
 913              	.L54:
 914              	.LBE27:
 915              	.LBE26:
 251:..\lvgl\lv_core/lv_style.c ****     res->image.color = lv_color_mix(end->image.color, start->image.color, opa);
 916              		.loc 1 251 0
 917 0236 82F82C50 		strb	r5, [r2, #44]
 918 023a 91F83060 		ldrb	r6, [r1, #48]	@ zero_extendqisi2
 919 023e 90F83050 		ldrb	r5, [r0, #48]	@ zero_extendqisi2
 920              	.LVL11:
 921              	.LBB28:
 922              	.LBB29:
 923              		.loc 2 348 0
 924 0242 002C     		cmp	r4, #0
 925 0244 02DA     		bge	.L55
 926 0246 06F00104 		and	r4, r6, #1
 927 024a 01E0     		b	.L56
 928              	.L55:
 929 024c 05F00104 		and	r4, r5, #1
 930              	.L56:
 931              	.LBE29:
 932              	.LBE28:
 252:..\lvgl\lv_core/lv_style.c ****     res->line.color = lv_color_mix(end->line.color, start->line.color, opa);
 933              		.loc 1 252 0
 934 0250 82F83040 		strb	r4, [r2, #48]
 253:..\lvgl\lv_core/lv_style.c **** 
 254:..\lvgl\lv_core/lv_style.c ****     if(ratio < (STYLE_MIX_MAX >> 1)) {
 935              		.loc 1 254 0
 936 0254 7F2B     		cmp	r3, #127
 937 0256 18D8     		bhi	.L57
ARM GAS  C:\Users\d3bug\AppData\Local\Temp\cczXaDld.s 			page 28


 255:..\lvgl\lv_core/lv_style.c ****         res->body.empty = start->body.empty;
 938              		.loc 1 255 0
 939 0258 817E     		ldrb	r1, [r0, #26]	@ zero_extendqisi2
 940              	.LVL12:
 941 025a 937E     		ldrb	r3, [r2, #26]	@ zero_extendqisi2
 942              	.LVL13:
 943 025c 61F30003 		bfi	r3, r1, #0, #1
 944 0260 9376     		strb	r3, [r2, #26]
 256:..\lvgl\lv_core/lv_style.c ****         res->body.border.part = start->body.border.part;
 945              		.loc 1 256 0
 946 0262 037B     		ldrb	r3, [r0, #12]	@ zero_extendqisi2
 947 0264 1373     		strb	r3, [r2, #12]
 257:..\lvgl\lv_core/lv_style.c ****         res->glass = start->glass;
 948              		.loc 1 257 0
 949 0266 0178     		ldrb	r1, [r0]	@ zero_extendqisi2
 950 0268 1378     		ldrb	r3, [r2]	@ zero_extendqisi2
 951 026a 61F30003 		bfi	r3, r1, #0, #1
 952 026e 1370     		strb	r3, [r2]
 258:..\lvgl\lv_core/lv_style.c ****         res->text.font = start->text.font;
 953              		.loc 1 258 0
 954 0270 036A     		ldr	r3, [r0, #32]
 955 0272 1362     		str	r3, [r2, #32]
 259:..\lvgl\lv_core/lv_style.c ****         res->body.shadow.type = start->body.shadow.type;
 956              		.loc 1 259 0
 957 0274 837C     		ldrb	r3, [r0, #18]	@ zero_extendqisi2
 958 0276 9374     		strb	r3, [r2, #18]
 260:..\lvgl\lv_core/lv_style.c ****         res->line.rounded = start->line.rounded;
 959              		.loc 1 260 0
 960 0278 90F83510 		ldrb	r1, [r0, #53]	@ zero_extendqisi2
 961 027c 92F83530 		ldrb	r3, [r2, #53]	@ zero_extendqisi2
 962 0280 61F30003 		bfi	r3, r1, #0, #1
 963 0284 82F83530 		strb	r3, [r2, #53]
 964 0288 17E0     		b	.L11
 965              	.LVL14:
 966              	.L57:
 261:..\lvgl\lv_core/lv_style.c ****     } else {
 262:..\lvgl\lv_core/lv_style.c ****         res->body.empty = end->body.empty;
 967              		.loc 1 262 0
 968 028a 887E     		ldrb	r0, [r1, #26]	@ zero_extendqisi2
 969              	.LVL15:
 970 028c 937E     		ldrb	r3, [r2, #26]	@ zero_extendqisi2
 971              	.LVL16:
 972 028e 60F30003 		bfi	r3, r0, #0, #1
 973 0292 9376     		strb	r3, [r2, #26]
 263:..\lvgl\lv_core/lv_style.c ****         res->body.border.part = end->body.border.part;
 974              		.loc 1 263 0
 975 0294 0B7B     		ldrb	r3, [r1, #12]	@ zero_extendqisi2
 976 0296 1373     		strb	r3, [r2, #12]
 264:..\lvgl\lv_core/lv_style.c ****         res->glass = end->glass;
 977              		.loc 1 264 0
 978 0298 0878     		ldrb	r0, [r1]	@ zero_extendqisi2
 979 029a 1378     		ldrb	r3, [r2]	@ zero_extendqisi2
 980 029c 60F30003 		bfi	r3, r0, #0, #1
 981 02a0 1370     		strb	r3, [r2]
 265:..\lvgl\lv_core/lv_style.c ****         res->text.font = end->text.font;
 982              		.loc 1 265 0
 983 02a2 0B6A     		ldr	r3, [r1, #32]
ARM GAS  C:\Users\d3bug\AppData\Local\Temp\cczXaDld.s 			page 29


 984 02a4 1362     		str	r3, [r2, #32]
 266:..\lvgl\lv_core/lv_style.c ****         res->body.shadow.type = end->body.shadow.type;
 985              		.loc 1 266 0
 986 02a6 8B7C     		ldrb	r3, [r1, #18]	@ zero_extendqisi2
 987 02a8 9374     		strb	r3, [r2, #18]
 267:..\lvgl\lv_core/lv_style.c ****         res->line.rounded = end->line.rounded;
 988              		.loc 1 267 0
 989 02aa 91F83510 		ldrb	r1, [r1, #53]	@ zero_extendqisi2
 990              	.LVL17:
 991 02ae 92F83530 		ldrb	r3, [r2, #53]	@ zero_extendqisi2
 992 02b2 61F30003 		bfi	r3, r1, #0, #1
 993 02b6 82F83530 		strb	r3, [r2, #53]
 994              	.L11:
 268:..\lvgl\lv_core/lv_style.c ****     }
 269:..\lvgl\lv_core/lv_style.c **** }
 995              		.loc 1 269 0
 996 02ba 70BC     		pop	{r4, r5, r6}
 997              		.cfi_restore 6
 998              		.cfi_restore 5
 999              		.cfi_restore 4
 1000              		.cfi_def_cfa_offset 0
 1001 02bc 7047     		bx	lr
 1002              		.cfi_endproc
 1003              	.LFE14:
 1004              		.size	lv_style_mix, .-lv_style_mix
 1005              		.comm	lv_style_btn_ina,56,4
 1006              		.comm	lv_style_btn_tgl_pr,56,4
 1007              		.comm	lv_style_btn_tgl_rel,56,4
 1008              		.comm	lv_style_btn_pr,56,4
 1009              		.comm	lv_style_btn_rel,56,4
 1010              		.comm	lv_style_pretty_color,56,4
 1011              		.comm	lv_style_pretty,56,4
 1012              		.comm	lv_style_plain_color,56,4
 1013              		.comm	lv_style_plain,56,4
 1014              		.comm	lv_style_transp_tight,56,4
 1015              		.comm	lv_style_transp_fit,56,4
 1016              		.comm	lv_style_transp,56,4
 1017              		.comm	lv_style_scr,56,4
 1018 02be 00BF     		.text
 1019              	.Letext0:
 1020              		.file 3 "c:\\program files (x86)\\cypress\\psoc creator\\4.2\\psoc creator\\import\\gnu\\arm\\5.4.
 1021              		.file 4 "c:\\program files (x86)\\cypress\\psoc creator\\4.2\\psoc creator\\import\\gnu\\arm\\5.4.
 1022              		.file 5 "..\\lvgl\\lv_core\\../lv_misc/lv_area.h"
 1023              		.file 6 "..\\lvgl\\lv_core\\../lv_misc/lv_font.h"
 1024              		.file 7 "..\\lvgl\\lv_core\\lv_style.h"
 1025              		.file 8 "..\\lvgl\\lv_core\\../lv_misc/../lv_fonts/lv_font_builtin.h"