ARM GAS  C:\Users\d3bug\AppData\Local\Temp\ccfzCIuT.s 			page 1


   1              		.syntax unified
   2              		.cpu cortex-m3
   3              		.fpu softvfp
   4              		.eabi_attribute 20, 1
   5              		.eabi_attribute 21, 1
   6              		.eabi_attribute 23, 3
   7              		.eabi_attribute 24, 1
   8              		.eabi_attribute 25, 1
   9              		.eabi_attribute 26, 1
  10              		.eabi_attribute 30, 1
  11              		.eabi_attribute 34, 1
  12              		.eabi_attribute 18, 4
  13              		.thumb
  14              		.syntax unified
  15              		.file	"lv_txt.c"
  16              		.text
  17              	.Ltext0:
  18              		.cfi_sections	.debug_frame
  19              		.section	.text.lv_txt_utf8_size,"ax",%progbits
  20              		.align	2
  21              		.thumb
  22              		.thumb_func
  23              		.type	lv_txt_utf8_size, %function
  24              	lv_txt_utf8_size:
  25              	.LFB10:
  26              		.file 1 "..\\lvgl\\lv_misc\\lv_txt.c"
   1:..\lvgl\lv_misc/lv_txt.c **** /**
   2:..\lvgl\lv_misc/lv_txt.c ****  * @file lv_text.c
   3:..\lvgl\lv_misc/lv_txt.c ****  *
   4:..\lvgl\lv_misc/lv_txt.c ****  */
   5:..\lvgl\lv_misc/lv_txt.c **** 
   6:..\lvgl\lv_misc/lv_txt.c **** /*********************
   7:..\lvgl\lv_misc/lv_txt.c ****  *      INCLUDES
   8:..\lvgl\lv_misc/lv_txt.c ****  *********************/
   9:..\lvgl\lv_misc/lv_txt.c **** #include "lv_txt.h"
  10:..\lvgl\lv_misc/lv_txt.c **** #include "lv_math.h"
  11:..\lvgl\lv_misc/lv_txt.c **** 
  12:..\lvgl\lv_misc/lv_txt.c **** /*********************
  13:..\lvgl\lv_misc/lv_txt.c ****  *      DEFINES
  14:..\lvgl\lv_misc/lv_txt.c ****  *********************/
  15:..\lvgl\lv_misc/lv_txt.c **** #define NO_BREAK_FOUND  UINT32_MAX
  16:..\lvgl\lv_misc/lv_txt.c **** 
  17:..\lvgl\lv_misc/lv_txt.c **** #ifndef LV_TXT_LINE_BREAK_LONG_LEN
  18:..\lvgl\lv_misc/lv_txt.c **** #define LV_TXT_LINE_BREAK_LONG_LEN 12 /* If a character is at least this long, will break wherever 
  19:..\lvgl\lv_misc/lv_txt.c **** #endif
  20:..\lvgl\lv_misc/lv_txt.c **** 
  21:..\lvgl\lv_misc/lv_txt.c **** #ifndef LV_TXT_LINE_BREAK_LONG_PRE_MIN_LEN
  22:..\lvgl\lv_misc/lv_txt.c **** #define LV_TXT_LINE_BREAK_LONG_PRE_MIN_LEN 3 /* Minimum number of characters of a word to put on a 
  23:..\lvgl\lv_misc/lv_txt.c **** #endif
  24:..\lvgl\lv_misc/lv_txt.c **** 
  25:..\lvgl\lv_misc/lv_txt.c **** #ifndef LV_TXT_LINE_BREAK_LONG_POST_MIN_LEN
  26:..\lvgl\lv_misc/lv_txt.c **** #define LV_TXT_LINE_BREAK_LONG_POST_MIN_LEN 1 /* Minimum number of characters of a word to put on a
  27:..\lvgl\lv_misc/lv_txt.c **** #endif
  28:..\lvgl\lv_misc/lv_txt.c **** 
  29:..\lvgl\lv_misc/lv_txt.c **** /**********************
  30:..\lvgl\lv_misc/lv_txt.c ****  *      TYPEDEFS
  31:..\lvgl\lv_misc/lv_txt.c ****  **********************/
ARM GAS  C:\Users\d3bug\AppData\Local\Temp\ccfzCIuT.s 			page 2


  32:..\lvgl\lv_misc/lv_txt.c **** 
  33:..\lvgl\lv_misc/lv_txt.c **** /**********************
  34:..\lvgl\lv_misc/lv_txt.c ****  *  STATIC PROTOTYPES
  35:..\lvgl\lv_misc/lv_txt.c ****  **********************/
  36:..\lvgl\lv_misc/lv_txt.c **** static bool is_break_char(uint32_t letter);
  37:..\lvgl\lv_misc/lv_txt.c **** 
  38:..\lvgl\lv_misc/lv_txt.c **** #if LV_TXT_UTF8
  39:..\lvgl\lv_misc/lv_txt.c **** static uint8_t lv_txt_utf8_size(const char * str);
  40:..\lvgl\lv_misc/lv_txt.c **** static uint32_t lv_txt_unicode_to_utf8(uint32_t letter_uni);
  41:..\lvgl\lv_misc/lv_txt.c **** static uint32_t lv_txt_utf8_conv_wc(uint32_t c);
  42:..\lvgl\lv_misc/lv_txt.c **** static uint32_t lv_txt_utf8_next(const char * txt, uint32_t * i);
  43:..\lvgl\lv_misc/lv_txt.c **** static uint32_t lv_txt_utf8_prev(const char * txt, uint32_t * i_start);
  44:..\lvgl\lv_misc/lv_txt.c **** static uint32_t lv_txt_utf8_get_byte_id(const char * txt, uint32_t utf8_id);
  45:..\lvgl\lv_misc/lv_txt.c **** static uint32_t lv_txt_utf8_get_char_id(const char * txt, uint32_t byte_id);
  46:..\lvgl\lv_misc/lv_txt.c **** static uint32_t lv_txt_utf8_get_length(const char * txt);
  47:..\lvgl\lv_misc/lv_txt.c **** #else
  48:..\lvgl\lv_misc/lv_txt.c **** static uint8_t lv_txt_ascii_size(const char * str);
  49:..\lvgl\lv_misc/lv_txt.c **** static uint32_t lv_txt_unicode_to_ascii(uint32_t letter_uni);
  50:..\lvgl\lv_misc/lv_txt.c **** static uint32_t lv_txt_ascii_conv_wc(uint32_t c);
  51:..\lvgl\lv_misc/lv_txt.c **** static uint32_t lv_txt_ascii_next(const char * txt, uint32_t * i);
  52:..\lvgl\lv_misc/lv_txt.c **** static uint32_t lv_txt_ascii_prev(const char * txt, uint32_t * i_start);
  53:..\lvgl\lv_misc/lv_txt.c **** static uint32_t lv_txt_ascii_get_byte_id(const char * txt, uint32_t utf8_id);
  54:..\lvgl\lv_misc/lv_txt.c **** static uint32_t lv_txt_ascii_get_char_id(const char * txt, uint32_t byte_id);
  55:..\lvgl\lv_misc/lv_txt.c **** static uint32_t lv_txt_ascii_get_length(const char * txt);
  56:..\lvgl\lv_misc/lv_txt.c **** #endif
  57:..\lvgl\lv_misc/lv_txt.c **** 
  58:..\lvgl\lv_misc/lv_txt.c **** /**********************
  59:..\lvgl\lv_misc/lv_txt.c ****  *  STATIC VARIABLES
  60:..\lvgl\lv_misc/lv_txt.c ****  **********************/
  61:..\lvgl\lv_misc/lv_txt.c **** 
  62:..\lvgl\lv_misc/lv_txt.c **** 
  63:..\lvgl\lv_misc/lv_txt.c **** /**********************
  64:..\lvgl\lv_misc/lv_txt.c ****  *  GLOBAL VARIABLES
  65:..\lvgl\lv_misc/lv_txt.c ****  **********************/
  66:..\lvgl\lv_misc/lv_txt.c **** #if LV_TXT_UTF8
  67:..\lvgl\lv_misc/lv_txt.c **** uint8_t (*lv_txt_encoded_size)(const char *) =                  lv_txt_utf8_size;
  68:..\lvgl\lv_misc/lv_txt.c **** uint32_t (*lv_txt_unicode_to_encoded)(uint32_t) =               lv_txt_unicode_to_utf8;
  69:..\lvgl\lv_misc/lv_txt.c **** uint32_t (*lv_txt_encoded_conv_wc)(uint32_t) =                  lv_txt_utf8_conv_wc;
  70:..\lvgl\lv_misc/lv_txt.c **** uint32_t (*lv_txt_encoded_next)(const char *, uint32_t *) =    lv_txt_utf8_next;
  71:..\lvgl\lv_misc/lv_txt.c **** uint32_t (*lv_txt_encoded_prev)(const char *, uint32_t *) =   lv_txt_utf8_prev;
  72:..\lvgl\lv_misc/lv_txt.c **** uint32_t (*lv_txt_encoded_get_byte_id)(const char *, uint32_t) = lv_txt_utf8_get_byte_id;
  73:..\lvgl\lv_misc/lv_txt.c **** uint32_t (*lv_encoded_get_char_id)(const char *, uint32_t) =   lv_txt_utf8_get_char_id;
  74:..\lvgl\lv_misc/lv_txt.c **** uint32_t (*lv_txt_get_encoded_length)(const char *) =          lv_txt_utf8_get_length;
  75:..\lvgl\lv_misc/lv_txt.c **** #else
  76:..\lvgl\lv_misc/lv_txt.c **** uint8_t (*lv_txt_encoded_size)(const char *) =                  lv_txt_ascii_size;
  77:..\lvgl\lv_misc/lv_txt.c **** uint32_t (*lv_txt_unicode_to_encoded)(uint32_t) =               lv_txt_unicode_to_ascii;
  78:..\lvgl\lv_misc/lv_txt.c **** uint32_t (*lv_txt_encoded_conv_wc)(uint32_t) =                  lv_txt_ascii_conv_wc;
  79:..\lvgl\lv_misc/lv_txt.c **** uint32_t (*lv_txt_encoded_next)(const char *, uint32_t *) =    lv_txt_ascii_next;
  80:..\lvgl\lv_misc/lv_txt.c **** uint32_t (*lv_txt_encoded_prev)(const char *, uint32_t *) =   lv_txt_ascii_prev;
  81:..\lvgl\lv_misc/lv_txt.c **** uint32_t (*lv_txt_encoded_get_byte_id)(const char *, uint32_t) = lv_txt_ascii_get_byte_id;
  82:..\lvgl\lv_misc/lv_txt.c **** uint32_t (*lv_encoded_get_char_id)(const char *, uint32_t) =   lv_txt_ascii_get_char_id;
  83:..\lvgl\lv_misc/lv_txt.c **** uint32_t (*lv_txt_get_encoded_length)(const char *) =          lv_txt_ascii_get_length;
  84:..\lvgl\lv_misc/lv_txt.c **** #endif
  85:..\lvgl\lv_misc/lv_txt.c **** /**********************
  86:..\lvgl\lv_misc/lv_txt.c ****  *      MACROS
  87:..\lvgl\lv_misc/lv_txt.c ****  **********************/
  88:..\lvgl\lv_misc/lv_txt.c **** 
ARM GAS  C:\Users\d3bug\AppData\Local\Temp\ccfzCIuT.s 			page 3


  89:..\lvgl\lv_misc/lv_txt.c **** /**********************
  90:..\lvgl\lv_misc/lv_txt.c ****  *   GLOBAL FUNCTIONS
  91:..\lvgl\lv_misc/lv_txt.c ****  **********************/
  92:..\lvgl\lv_misc/lv_txt.c **** 
  93:..\lvgl\lv_misc/lv_txt.c **** /**
  94:..\lvgl\lv_misc/lv_txt.c ****  * Get size of a text
  95:..\lvgl\lv_misc/lv_txt.c ****  * @param size_res pointer to a 'point_t' variable to store the result
  96:..\lvgl\lv_misc/lv_txt.c ****  * @param text pointer to a text
  97:..\lvgl\lv_misc/lv_txt.c ****  * @param font pinter to font of the text
  98:..\lvgl\lv_misc/lv_txt.c ****  * @param letter_space letter space of the text
  99:..\lvgl\lv_misc/lv_txt.c ****  * @param txt.line_space line space of the text
 100:..\lvgl\lv_misc/lv_txt.c ****  * @param flags settings for the text from 'txt_flag_t' enum
 101:..\lvgl\lv_misc/lv_txt.c ****  * @param max_width max with of the text (break the lines to fit this size) Set CORD_MAX to avoid l
 102:..\lvgl\lv_misc/lv_txt.c ****  */
 103:..\lvgl\lv_misc/lv_txt.c **** void lv_txt_get_size(lv_point_t * size_res, const char * text, const lv_font_t * font,
 104:..\lvgl\lv_misc/lv_txt.c ****                      lv_coord_t letter_space, lv_coord_t line_space, lv_coord_t max_width, lv_txt_f
 105:..\lvgl\lv_misc/lv_txt.c **** {
 106:..\lvgl\lv_misc/lv_txt.c ****     size_res->x = 0;
 107:..\lvgl\lv_misc/lv_txt.c ****     size_res->y = 0;
 108:..\lvgl\lv_misc/lv_txt.c **** 
 109:..\lvgl\lv_misc/lv_txt.c ****     if(text == NULL) return;
 110:..\lvgl\lv_misc/lv_txt.c ****     if(font == NULL) return;
 111:..\lvgl\lv_misc/lv_txt.c **** 
 112:..\lvgl\lv_misc/lv_txt.c ****     if(flag & LV_TXT_FLAG_EXPAND) max_width = LV_COORD_MAX;
 113:..\lvgl\lv_misc/lv_txt.c **** 
 114:..\lvgl\lv_misc/lv_txt.c ****     uint32_t line_start = 0;
 115:..\lvgl\lv_misc/lv_txt.c ****     uint32_t new_line_start = 0;
 116:..\lvgl\lv_misc/lv_txt.c ****     lv_coord_t act_line_length;
 117:..\lvgl\lv_misc/lv_txt.c ****     uint8_t letter_height = lv_font_get_height(font);
 118:..\lvgl\lv_misc/lv_txt.c **** 
 119:..\lvgl\lv_misc/lv_txt.c ****     /*Calc. the height and longest line*/
 120:..\lvgl\lv_misc/lv_txt.c ****     while(text[line_start] != '\0') {
 121:..\lvgl\lv_misc/lv_txt.c ****         new_line_start += lv_txt_get_next_line(&text[line_start], font, letter_space, max_width, fl
 122:..\lvgl\lv_misc/lv_txt.c ****         size_res->y += letter_height ;
 123:..\lvgl\lv_misc/lv_txt.c ****         size_res->y += line_space;
 124:..\lvgl\lv_misc/lv_txt.c **** 
 125:..\lvgl\lv_misc/lv_txt.c ****         /*Calculate the the longest line*/
 126:..\lvgl\lv_misc/lv_txt.c ****         act_line_length = lv_txt_get_width(&text[line_start], new_line_start - line_start,
 127:..\lvgl\lv_misc/lv_txt.c ****                                            font, letter_space, flag);
 128:..\lvgl\lv_misc/lv_txt.c **** 
 129:..\lvgl\lv_misc/lv_txt.c ****         size_res->x = LV_MATH_MAX(act_line_length, size_res->x);
 130:..\lvgl\lv_misc/lv_txt.c ****         line_start = new_line_start;
 131:..\lvgl\lv_misc/lv_txt.c ****     }
 132:..\lvgl\lv_misc/lv_txt.c **** 
 133:..\lvgl\lv_misc/lv_txt.c ****     /*Ma ke the text one line taller if the last character is '\n' or '\r'*/
 134:..\lvgl\lv_misc/lv_txt.c ****     if((line_start != 0) && (text[line_start - 1] == '\n' || text[line_start - 1] == '\r')) {
 135:..\lvgl\lv_misc/lv_txt.c ****         size_res->y += letter_height + line_space;
 136:..\lvgl\lv_misc/lv_txt.c ****     }
 137:..\lvgl\lv_misc/lv_txt.c **** 
 138:..\lvgl\lv_misc/lv_txt.c ****     /*Correction with the last line space or set the height manually if the text is empty*/
 139:..\lvgl\lv_misc/lv_txt.c ****     if(size_res->y == 0) size_res->y = letter_height;
 140:..\lvgl\lv_misc/lv_txt.c ****     else size_res->y -= line_space;
 141:..\lvgl\lv_misc/lv_txt.c **** 
 142:..\lvgl\lv_misc/lv_txt.c **** }
 143:..\lvgl\lv_misc/lv_txt.c **** 
 144:..\lvgl\lv_misc/lv_txt.c **** /**
 145:..\lvgl\lv_misc/lv_txt.c ****  * Get the next line of text. Check line length and break chars too.
ARM GAS  C:\Users\d3bug\AppData\Local\Temp\ccfzCIuT.s 			page 4


 146:..\lvgl\lv_misc/lv_txt.c ****  * @param txt a '\0' terminated string
 147:..\lvgl\lv_misc/lv_txt.c ****  * @param font pointer to a font
 148:..\lvgl\lv_misc/lv_txt.c ****  * @param letter_space letter space
 149:..\lvgl\lv_misc/lv_txt.c ****  * @param max_width max with of the text (break the lines to fit this size) Set CORD_MAX to avoid l
 150:..\lvgl\lv_misc/lv_txt.c ****  * @param flags settings for the text from 'txt_flag_type' enum
 151:..\lvgl\lv_misc/lv_txt.c ****  * @return the index of the first char of the new line (in byte index not letter index. With UTF-8 
 152:..\lvgl\lv_misc/lv_txt.c ****  */
 153:..\lvgl\lv_misc/lv_txt.c **** uint16_t lv_txt_get_next_line(const char * txt, const lv_font_t * font,
 154:..\lvgl\lv_misc/lv_txt.c ****                               lv_coord_t letter_space, lv_coord_t max_width, lv_txt_flag_t flag)
 155:..\lvgl\lv_misc/lv_txt.c **** {
 156:..\lvgl\lv_misc/lv_txt.c ****     if(txt == NULL) return 0;
 157:..\lvgl\lv_misc/lv_txt.c ****     if(font == NULL) return 0;
 158:..\lvgl\lv_misc/lv_txt.c **** 
 159:..\lvgl\lv_misc/lv_txt.c ****     if(flag & LV_TXT_FLAG_EXPAND) max_width = LV_COORD_MAX;
 160:..\lvgl\lv_misc/lv_txt.c **** 
 161:..\lvgl\lv_misc/lv_txt.c ****     uint32_t i = 0;
 162:..\lvgl\lv_misc/lv_txt.c ****     lv_coord_t cur_w = 0;
 163:..\lvgl\lv_misc/lv_txt.c ****     lv_coord_t w_at_last_break = 0;
 164:..\lvgl\lv_misc/lv_txt.c ****     uint32_t n_char_since_last_break = 0; /* Used count word length of long words */
 165:..\lvgl\lv_misc/lv_txt.c ****     uint32_t last_break = NO_BREAK_FOUND;
 166:..\lvgl\lv_misc/lv_txt.c ****     lv_txt_cmd_state_t cmd_state = LV_TXT_CMD_STATE_WAIT;
 167:..\lvgl\lv_misc/lv_txt.c ****     uint32_t letter = 0;
 168:..\lvgl\lv_misc/lv_txt.c **** 
 169:..\lvgl\lv_misc/lv_txt.c ****     while(txt[i] != '\0') {
 170:..\lvgl\lv_misc/lv_txt.c ****         lv_coord_t letter_width;
 171:..\lvgl\lv_misc/lv_txt.c ****         letter = lv_txt_encoded_next(txt, &i);
 172:..\lvgl\lv_misc/lv_txt.c **** 
 173:..\lvgl\lv_misc/lv_txt.c ****         /*Handle the recolor command*/
 174:..\lvgl\lv_misc/lv_txt.c ****         if((flag & LV_TXT_FLAG_RECOLOR) != 0) {
 175:..\lvgl\lv_misc/lv_txt.c ****             if(lv_txt_is_cmd(&cmd_state, letter) != false) {
 176:..\lvgl\lv_misc/lv_txt.c ****                 continue;   /*Skip the letter is it is part of a command*/
 177:..\lvgl\lv_misc/lv_txt.c ****             }
 178:..\lvgl\lv_misc/lv_txt.c ****         }
 179:..\lvgl\lv_misc/lv_txt.c **** 
 180:..\lvgl\lv_misc/lv_txt.c **** 
 181:..\lvgl\lv_misc/lv_txt.c ****         /*Check for new line chars*/
 182:..\lvgl\lv_misc/lv_txt.c ****         if(letter == '\n' || letter == '\r') {
 183:..\lvgl\lv_misc/lv_txt.c ****             uint32_t i_tmp = i;
 184:..\lvgl\lv_misc/lv_txt.c ****             uint32_t letter_next = lv_txt_encoded_next(txt, &i_tmp);
 185:..\lvgl\lv_misc/lv_txt.c ****             if(letter == '\r' &&  letter_next == '\n') i = i_tmp;
 186:..\lvgl\lv_misc/lv_txt.c **** 
 187:..\lvgl\lv_misc/lv_txt.c ****             return i;    /*Return with the first letter of the next line*/
 188:..\lvgl\lv_misc/lv_txt.c **** 
 189:..\lvgl\lv_misc/lv_txt.c ****         } else { /*Check the actual length*/
 190:..\lvgl\lv_misc/lv_txt.c ****             n_char_since_last_break++;
 191:..\lvgl\lv_misc/lv_txt.c ****             letter_width = lv_font_get_width(font, letter);
 192:..\lvgl\lv_misc/lv_txt.c ****             cur_w += letter_width; 
 193:..\lvgl\lv_misc/lv_txt.c **** 
 194:..\lvgl\lv_misc/lv_txt.c ****             /* Get the length of the current work and determine best place 
 195:..\lvgl\lv_misc/lv_txt.c ****              * to break the line. */
 196:..\lvgl\lv_misc/lv_txt.c ****             if(cur_w > max_width) {
 197:..\lvgl\lv_misc/lv_txt.c ****                 if( last_break != NO_BREAK_FOUND ) {
 198:..\lvgl\lv_misc/lv_txt.c ****                     /* Continue searching for next breakable character to see if the next word will
 199:..\lvgl\lv_misc/lv_txt.c ****                     uint32_t n_char_fit = n_char_since_last_break - 1;
 200:..\lvgl\lv_misc/lv_txt.c ****                     if(  n_char_since_last_break <= LV_TXT_LINE_BREAK_LONG_PRE_MIN_LEN ) {
 201:..\lvgl\lv_misc/lv_txt.c ****                         i = last_break;
 202:..\lvgl\lv_misc/lv_txt.c ****                     }
ARM GAS  C:\Users\d3bug\AppData\Local\Temp\ccfzCIuT.s 			page 5


 203:..\lvgl\lv_misc/lv_txt.c ****                     else {
 204:..\lvgl\lv_misc/lv_txt.c ****                         uint32_t i_tmp = i;
 205:..\lvgl\lv_misc/lv_txt.c ****                         cur_w -= w_at_last_break + letter_space; /*ignore the first letter_space af
 206:..\lvgl\lv_misc/lv_txt.c ****                         bool other = true;
 207:..\lvgl\lv_misc/lv_txt.c ****                         while(txt[i_tmp] != '\0') {
 208:..\lvgl\lv_misc/lv_txt.c ****                             letter = lv_txt_encoded_next(txt, &i_tmp);
 209:..\lvgl\lv_misc/lv_txt.c **** 
 210:..\lvgl\lv_misc/lv_txt.c ****                             /*Handle the recolor command*/
 211:..\lvgl\lv_misc/lv_txt.c ****                             if((flag & LV_TXT_FLAG_RECOLOR) != 0) {
 212:..\lvgl\lv_misc/lv_txt.c ****                                 if(lv_txt_is_cmd(&cmd_state, letter) != false) {
 213:..\lvgl\lv_misc/lv_txt.c ****                                     continue;   /*Skip the letter is it is part of a command*/
 214:..\lvgl\lv_misc/lv_txt.c ****                                 }
 215:..\lvgl\lv_misc/lv_txt.c ****                             }
 216:..\lvgl\lv_misc/lv_txt.c **** 
 217:..\lvgl\lv_misc/lv_txt.c ****                             /*Check for new line chars*/
 218:..\lvgl\lv_misc/lv_txt.c ****                             if(letter == '\n' || letter == '\r' || is_break_char(letter)) {
 219:..\lvgl\lv_misc/lv_txt.c ****                                 if(n_char_since_last_break >= LV_TXT_LINE_BREAK_LONG_LEN) {
 220:..\lvgl\lv_misc/lv_txt.c ****                                     /* Figure out the prettiest place to break */
 221:..\lvgl\lv_misc/lv_txt.c ****                                     uint32_t char_remain;
 222:..\lvgl\lv_misc/lv_txt.c ****                                     lv_txt_encoded_prev(txt, &i);
 223:..\lvgl\lv_misc/lv_txt.c ****                                     for(char_remain=n_char_since_last_break - n_char_fit;
 224:..\lvgl\lv_misc/lv_txt.c ****                                             char_remain < LV_TXT_LINE_BREAK_LONG_POST_MIN_LEN;
 225:..\lvgl\lv_misc/lv_txt.c ****                                             char_remain++) {
 226:..\lvgl\lv_misc/lv_txt.c ****                                         lv_txt_encoded_prev(txt, &i);
 227:..\lvgl\lv_misc/lv_txt.c ****                                     }
 228:..\lvgl\lv_misc/lv_txt.c ****                                 }
 229:..\lvgl\lv_misc/lv_txt.c ****                                 else{
 230:..\lvgl\lv_misc/lv_txt.c ****                                     i = last_break;
 231:..\lvgl\lv_misc/lv_txt.c ****                                 }
 232:..\lvgl\lv_misc/lv_txt.c ****                                 other = false;
 233:..\lvgl\lv_misc/lv_txt.c ****                                 break;
 234:..\lvgl\lv_misc/lv_txt.c ****                             } 
 235:..\lvgl\lv_misc/lv_txt.c ****                             n_char_since_last_break++;
 236:..\lvgl\lv_misc/lv_txt.c ****                             lv_coord_t letter_width2 = lv_font_get_width(font, letter);
 237:..\lvgl\lv_misc/lv_txt.c ****                             cur_w += letter_width2;
 238:..\lvgl\lv_misc/lv_txt.c ****                             if(cur_w > max_width) {
 239:..\lvgl\lv_misc/lv_txt.c ****                                 /* Current letter already exceeds, return previous */
 240:..\lvgl\lv_misc/lv_txt.c ****                                 lv_txt_encoded_prev(txt, &i);
 241:..\lvgl\lv_misc/lv_txt.c ****                                 other = false;
 242:..\lvgl\lv_misc/lv_txt.c ****                                 break;
 243:..\lvgl\lv_misc/lv_txt.c ****                             }
 244:..\lvgl\lv_misc/lv_txt.c ****                             if(letter_width2 > 0){
 245:..\lvgl\lv_misc/lv_txt.c ****                                 cur_w += letter_space;
 246:..\lvgl\lv_misc/lv_txt.c ****                             }
 247:..\lvgl\lv_misc/lv_txt.c ****                         }
 248:..\lvgl\lv_misc/lv_txt.c ****                         if( other ) {
 249:..\lvgl\lv_misc/lv_txt.c ****                             if(n_char_since_last_break >= LV_TXT_LINE_BREAK_LONG_LEN) {
 250:..\lvgl\lv_misc/lv_txt.c ****                                 /* Figure out the prettiest place to break */
 251:..\lvgl\lv_misc/lv_txt.c ****                                 uint32_t char_remain;
 252:..\lvgl\lv_misc/lv_txt.c ****                                 lv_txt_encoded_prev(txt, &i);
 253:..\lvgl\lv_misc/lv_txt.c ****                                 for(char_remain=n_char_since_last_break - n_char_fit;
 254:..\lvgl\lv_misc/lv_txt.c ****                                         char_remain < LV_TXT_LINE_BREAK_LONG_POST_MIN_LEN;
 255:..\lvgl\lv_misc/lv_txt.c ****                                         char_remain++){
 256:..\lvgl\lv_misc/lv_txt.c ****                                     lv_txt_encoded_prev(txt, &i);
 257:..\lvgl\lv_misc/lv_txt.c ****                                 }
 258:..\lvgl\lv_misc/lv_txt.c ****                             }
 259:..\lvgl\lv_misc/lv_txt.c ****                             else{
ARM GAS  C:\Users\d3bug\AppData\Local\Temp\ccfzCIuT.s 			page 6


 260:..\lvgl\lv_misc/lv_txt.c ****                                 i = last_break;
 261:..\lvgl\lv_misc/lv_txt.c ****                             }
 262:..\lvgl\lv_misc/lv_txt.c ****                         }
 263:..\lvgl\lv_misc/lv_txt.c ****                     }
 264:..\lvgl\lv_misc/lv_txt.c ****                 } else {
 265:..\lvgl\lv_misc/lv_txt.c ****                     /* Now this character is out of the area so it will be first character of the n
 266:..\lvgl\lv_misc/lv_txt.c ****                     /* But 'i' already points to the next character (because of lv_txt_utf8_next) s
 267:..\lvgl\lv_misc/lv_txt.c ****                     lv_txt_encoded_prev(txt, &i);
 268:..\lvgl\lv_misc/lv_txt.c ****                 }
 269:..\lvgl\lv_misc/lv_txt.c **** 
 270:..\lvgl\lv_misc/lv_txt.c ****                 /* Do not let to return without doing nothing.
 271:..\lvgl\lv_misc/lv_txt.c ****                  * Find at least one character (Avoid infinite loop )*/
 272:..\lvgl\lv_misc/lv_txt.c ****                 if(i == 0) lv_txt_encoded_next(txt, &i);
 273:..\lvgl\lv_misc/lv_txt.c **** 
 274:..\lvgl\lv_misc/lv_txt.c ****                 return i;
 275:..\lvgl\lv_misc/lv_txt.c ****             }
 276:..\lvgl\lv_misc/lv_txt.c ****             /*If this char still can fit to this line then check if
 277:..\lvgl\lv_misc/lv_txt.c ****              * txt can be broken here later */
 278:..\lvgl\lv_misc/lv_txt.c ****             else if(is_break_char(letter)) {
 279:..\lvgl\lv_misc/lv_txt.c ****                 last_break = i; /*Save the first char index  after break*/
 280:..\lvgl\lv_misc/lv_txt.c ****                 w_at_last_break = cur_w;
 281:..\lvgl\lv_misc/lv_txt.c ****                 if(letter_width > 0) {
 282:..\lvgl\lv_misc/lv_txt.c ****                     w_at_last_break += letter_space;
 283:..\lvgl\lv_misc/lv_txt.c ****                 }
 284:..\lvgl\lv_misc/lv_txt.c ****                 n_char_since_last_break = 0;
 285:..\lvgl\lv_misc/lv_txt.c ****             }
 286:..\lvgl\lv_misc/lv_txt.c ****         }
 287:..\lvgl\lv_misc/lv_txt.c **** 
 288:..\lvgl\lv_misc/lv_txt.c ****         if(letter_width > 0) {
 289:..\lvgl\lv_misc/lv_txt.c ****             cur_w += letter_space;
 290:..\lvgl\lv_misc/lv_txt.c ****         }
 291:..\lvgl\lv_misc/lv_txt.c ****     }
 292:..\lvgl\lv_misc/lv_txt.c **** 
 293:..\lvgl\lv_misc/lv_txt.c ****     return i;
 294:..\lvgl\lv_misc/lv_txt.c **** }
 295:..\lvgl\lv_misc/lv_txt.c **** 
 296:..\lvgl\lv_misc/lv_txt.c **** /**
 297:..\lvgl\lv_misc/lv_txt.c ****  * Give the length of a text with a given font
 298:..\lvgl\lv_misc/lv_txt.c ****  * @param txt a '\0' terminate string
 299:..\lvgl\lv_misc/lv_txt.c ****  * @param length length of 'txt' in byte count and not characters (Á is 1 character but 2 bytes in
 300:..\lvgl\lv_misc/lv_txt.c ****  * @param font pointer to a font
 301:..\lvgl\lv_misc/lv_txt.c ****  * @param letter_space letter space
 302:..\lvgl\lv_misc/lv_txt.c ****  * @param flags settings for the text from 'txt_flag_t' enum
 303:..\lvgl\lv_misc/lv_txt.c ****  * @return length of a char_num long text
 304:..\lvgl\lv_misc/lv_txt.c ****  */
 305:..\lvgl\lv_misc/lv_txt.c **** lv_coord_t lv_txt_get_width(const char * txt, uint16_t length,
 306:..\lvgl\lv_misc/lv_txt.c ****                             const lv_font_t * font, lv_coord_t letter_space, lv_txt_flag_t flag)
 307:..\lvgl\lv_misc/lv_txt.c **** {
 308:..\lvgl\lv_misc/lv_txt.c ****     if(txt == NULL) return 0;
 309:..\lvgl\lv_misc/lv_txt.c ****     if(font == NULL) return 0;
 310:..\lvgl\lv_misc/lv_txt.c **** 
 311:..\lvgl\lv_misc/lv_txt.c ****     uint32_t i = 0;
 312:..\lvgl\lv_misc/lv_txt.c ****     lv_coord_t width = 0;
 313:..\lvgl\lv_misc/lv_txt.c ****     lv_txt_cmd_state_t cmd_state = LV_TXT_CMD_STATE_WAIT;
 314:..\lvgl\lv_misc/lv_txt.c ****     uint32_t letter;
 315:..\lvgl\lv_misc/lv_txt.c **** 
 316:..\lvgl\lv_misc/lv_txt.c ****     if(length != 0) {
ARM GAS  C:\Users\d3bug\AppData\Local\Temp\ccfzCIuT.s 			page 7


 317:..\lvgl\lv_misc/lv_txt.c ****         while(i< length){
 318:..\lvgl\lv_misc/lv_txt.c ****             letter = lv_txt_encoded_next(txt, &i);
 319:..\lvgl\lv_misc/lv_txt.c ****             if((flag & LV_TXT_FLAG_RECOLOR) != 0) {
 320:..\lvgl\lv_misc/lv_txt.c ****                 if(lv_txt_is_cmd(&cmd_state, letter) != false) {
 321:..\lvgl\lv_misc/lv_txt.c ****                     continue;
 322:..\lvgl\lv_misc/lv_txt.c ****                 }
 323:..\lvgl\lv_misc/lv_txt.c ****             }
 324:..\lvgl\lv_misc/lv_txt.c **** 
 325:..\lvgl\lv_misc/lv_txt.c ****             lv_coord_t char_width = lv_font_get_width(font, letter);
 326:..\lvgl\lv_misc/lv_txt.c ****             if(char_width > 0){
 327:..\lvgl\lv_misc/lv_txt.c ****                 width += lv_font_get_width(font, letter);
 328:..\lvgl\lv_misc/lv_txt.c ****                 width += letter_space;
 329:..\lvgl\lv_misc/lv_txt.c ****             }
 330:..\lvgl\lv_misc/lv_txt.c ****         }
 331:..\lvgl\lv_misc/lv_txt.c **** 
 332:..\lvgl\lv_misc/lv_txt.c ****         if(width > 0) {
 333:..\lvgl\lv_misc/lv_txt.c ****             width -= letter_space;  /*Trim the last letter space. Important if the text is center a
 334:..\lvgl\lv_misc/lv_txt.c ****         }
 335:..\lvgl\lv_misc/lv_txt.c ****     }
 336:..\lvgl\lv_misc/lv_txt.c **** 
 337:..\lvgl\lv_misc/lv_txt.c ****     return width;
 338:..\lvgl\lv_misc/lv_txt.c **** }
 339:..\lvgl\lv_misc/lv_txt.c **** 
 340:..\lvgl\lv_misc/lv_txt.c **** /**
 341:..\lvgl\lv_misc/lv_txt.c ****  * Check next character in a string and decide if the character is part of the command or not
 342:..\lvgl\lv_misc/lv_txt.c ****  * @param state pointer to a txt_cmd_state_t variable which stores the current state of command pro
 343:..\lvgl\lv_misc/lv_txt.c ****  *             (Initied. to TXT_CMD_STATE_WAIT )
 344:..\lvgl\lv_misc/lv_txt.c ****  * @param c the current character
 345:..\lvgl\lv_misc/lv_txt.c ****  * @return true: the character is part of a command and should not be written,
 346:..\lvgl\lv_misc/lv_txt.c ****  *         false: the character should be written
 347:..\lvgl\lv_misc/lv_txt.c ****  */
 348:..\lvgl\lv_misc/lv_txt.c **** bool lv_txt_is_cmd(lv_txt_cmd_state_t * state, uint32_t c)
 349:..\lvgl\lv_misc/lv_txt.c **** {
 350:..\lvgl\lv_misc/lv_txt.c ****     bool ret = false;
 351:..\lvgl\lv_misc/lv_txt.c **** 
 352:..\lvgl\lv_misc/lv_txt.c ****     if(c == (uint32_t)LV_TXT_COLOR_CMD[0]) {
 353:..\lvgl\lv_misc/lv_txt.c ****         if(*state == LV_TXT_CMD_STATE_WAIT) { /*Start char*/
 354:..\lvgl\lv_misc/lv_txt.c ****             *state = LV_TXT_CMD_STATE_PAR;
 355:..\lvgl\lv_misc/lv_txt.c ****             ret = true;
 356:..\lvgl\lv_misc/lv_txt.c ****         } else if(*state == LV_TXT_CMD_STATE_PAR) { /*Other start char in parameter is escaped cmd.
 357:..\lvgl\lv_misc/lv_txt.c ****             *state = LV_TXT_CMD_STATE_WAIT;
 358:..\lvgl\lv_misc/lv_txt.c ****         } else if(*state == LV_TXT_CMD_STATE_IN) { /*Command end */
 359:..\lvgl\lv_misc/lv_txt.c ****             *state = LV_TXT_CMD_STATE_WAIT;
 360:..\lvgl\lv_misc/lv_txt.c ****             ret = true;
 361:..\lvgl\lv_misc/lv_txt.c ****         }
 362:..\lvgl\lv_misc/lv_txt.c ****     }
 363:..\lvgl\lv_misc/lv_txt.c **** 
 364:..\lvgl\lv_misc/lv_txt.c ****     /*Skip the color parameter and wait the space after it*/
 365:..\lvgl\lv_misc/lv_txt.c ****     if(*state == LV_TXT_CMD_STATE_PAR) {
 366:..\lvgl\lv_misc/lv_txt.c ****         if(c == ' ') {
 367:..\lvgl\lv_misc/lv_txt.c ****             *state = LV_TXT_CMD_STATE_IN; /*After the parameter the text is in the command*/
 368:..\lvgl\lv_misc/lv_txt.c ****         }
 369:..\lvgl\lv_misc/lv_txt.c ****         ret = true;
 370:..\lvgl\lv_misc/lv_txt.c ****     }
 371:..\lvgl\lv_misc/lv_txt.c **** 
 372:..\lvgl\lv_misc/lv_txt.c ****     return ret;
 373:..\lvgl\lv_misc/lv_txt.c **** }
ARM GAS  C:\Users\d3bug\AppData\Local\Temp\ccfzCIuT.s 			page 8


 374:..\lvgl\lv_misc/lv_txt.c **** 
 375:..\lvgl\lv_misc/lv_txt.c **** /**
 376:..\lvgl\lv_misc/lv_txt.c ****  * Insert a string into an other
 377:..\lvgl\lv_misc/lv_txt.c ****  * @param txt_buf the original text (must be big enough for the result text)
 378:..\lvgl\lv_misc/lv_txt.c ****  * @param pos position to insert. Expressed in character index and not byte index (Different in UTF
 379:..\lvgl\lv_misc/lv_txt.c ****  *            0: before the original text, 1: after the first char etc.
 380:..\lvgl\lv_misc/lv_txt.c ****  * @param ins_txt text to insert
 381:..\lvgl\lv_misc/lv_txt.c ****  */
 382:..\lvgl\lv_misc/lv_txt.c **** void lv_txt_ins(char * txt_buf, uint32_t pos, const char * ins_txt)
 383:..\lvgl\lv_misc/lv_txt.c **** {
 384:..\lvgl\lv_misc/lv_txt.c ****     uint32_t old_len = strlen(txt_buf);
 385:..\lvgl\lv_misc/lv_txt.c ****     uint32_t ins_len = strlen(ins_txt);
 386:..\lvgl\lv_misc/lv_txt.c ****     uint32_t new_len = ins_len + old_len;
 387:..\lvgl\lv_misc/lv_txt.c **** #if LV_TXT_UTF8 != 0
 388:..\lvgl\lv_misc/lv_txt.c ****     pos = lv_txt_encoded_get_byte_id(txt_buf, pos);   /*Convert to byte index instead of letter ind
 389:..\lvgl\lv_misc/lv_txt.c **** #endif
 390:..\lvgl\lv_misc/lv_txt.c ****     /*Copy the second part into the end to make place to text to insert*/
 391:..\lvgl\lv_misc/lv_txt.c ****     uint32_t i;
 392:..\lvgl\lv_misc/lv_txt.c ****     for(i = new_len; i >= pos + ins_len; i--) {
 393:..\lvgl\lv_misc/lv_txt.c ****         txt_buf[i] = txt_buf[i - ins_len];
 394:..\lvgl\lv_misc/lv_txt.c ****     }
 395:..\lvgl\lv_misc/lv_txt.c **** 
 396:..\lvgl\lv_misc/lv_txt.c ****     /* Copy the text into the new space*/
 397:..\lvgl\lv_misc/lv_txt.c ****     memcpy(txt_buf + pos, ins_txt, ins_len);
 398:..\lvgl\lv_misc/lv_txt.c **** }
 399:..\lvgl\lv_misc/lv_txt.c **** 
 400:..\lvgl\lv_misc/lv_txt.c **** /**
 401:..\lvgl\lv_misc/lv_txt.c ****  * Delete a part of a string
 402:..\lvgl\lv_misc/lv_txt.c ****  * @param txt string to modify
 403:..\lvgl\lv_misc/lv_txt.c ****  * @param pos position where to start the deleting (0: before the first char, 1: after the first ch
 404:..\lvgl\lv_misc/lv_txt.c ****  * @param len number of characters to delete
 405:..\lvgl\lv_misc/lv_txt.c ****  */
 406:..\lvgl\lv_misc/lv_txt.c **** void lv_txt_cut(char * txt, uint32_t pos, uint32_t len)
 407:..\lvgl\lv_misc/lv_txt.c **** {
 408:..\lvgl\lv_misc/lv_txt.c **** 
 409:..\lvgl\lv_misc/lv_txt.c ****     uint32_t old_len = strlen(txt);
 410:..\lvgl\lv_misc/lv_txt.c **** #if LV_TXT_UTF8 != 0
 411:..\lvgl\lv_misc/lv_txt.c ****     pos = lv_txt_encoded_get_byte_id(txt, pos);   /*Convert to byte index instead of letter index*/
 412:..\lvgl\lv_misc/lv_txt.c ****     len = lv_txt_encoded_get_byte_id(&txt[pos], len);
 413:..\lvgl\lv_misc/lv_txt.c **** #endif
 414:..\lvgl\lv_misc/lv_txt.c **** 
 415:..\lvgl\lv_misc/lv_txt.c ****     /*Copy the second part into the end to make place to text to insert*/
 416:..\lvgl\lv_misc/lv_txt.c ****     uint32_t i;
 417:..\lvgl\lv_misc/lv_txt.c ****     for(i = pos; i <= old_len - len; i++) {
 418:..\lvgl\lv_misc/lv_txt.c ****         txt[i] = txt[i + len];
 419:..\lvgl\lv_misc/lv_txt.c ****     }
 420:..\lvgl\lv_misc/lv_txt.c **** }
 421:..\lvgl\lv_misc/lv_txt.c **** 
 422:..\lvgl\lv_misc/lv_txt.c **** 
 423:..\lvgl\lv_misc/lv_txt.c **** /*******************************
 424:..\lvgl\lv_misc/lv_txt.c ****  *   UTF-8 ENCODER/DECOER
 425:..\lvgl\lv_misc/lv_txt.c ****  ******************************/
 426:..\lvgl\lv_misc/lv_txt.c **** 
 427:..\lvgl\lv_misc/lv_txt.c **** #if LV_TXT_UTF8
 428:..\lvgl\lv_misc/lv_txt.c **** 
 429:..\lvgl\lv_misc/lv_txt.c **** /**
 430:..\lvgl\lv_misc/lv_txt.c ****  * Give the size of an UTF-8 coded character
ARM GAS  C:\Users\d3bug\AppData\Local\Temp\ccfzCIuT.s 			page 9


 431:..\lvgl\lv_misc/lv_txt.c ****  * @param str pointer to a character in a string
 432:..\lvgl\lv_misc/lv_txt.c ****  * @return length of the UTF-8 character (1,2,3 or 4). O on invalid code
 433:..\lvgl\lv_misc/lv_txt.c ****  */
 434:..\lvgl\lv_misc/lv_txt.c **** static uint8_t lv_txt_utf8_size(const char * str)
 435:..\lvgl\lv_misc/lv_txt.c **** {
  27              		.loc 1 435 0
  28              		.cfi_startproc
  29              		@ args = 0, pretend = 0, frame = 0
  30              		@ frame_needed = 0, uses_anonymous_args = 0
  31              		@ link register save eliminated.
  32              	.LVL0:
 436:..\lvgl\lv_misc/lv_txt.c ****     if((str[0] & 0x80) == 0) return 1;
  33              		.loc 1 436 0
  34 0000 0378     		ldrb	r3, [r0]	@ zero_extendqisi2
  35 0002 13F0800F 		tst	r3, #128
  36 0006 0DD0     		beq	.L3
 437:..\lvgl\lv_misc/lv_txt.c ****     else if((str[0] & 0xE0) == 0xC0) return 2;
  37              		.loc 1 437 0
  38 0008 03F0E002 		and	r2, r3, #224
  39 000c C02A     		cmp	r2, #192
  40 000e 0BD0     		beq	.L4
 438:..\lvgl\lv_misc/lv_txt.c ****     else if((str[0] & 0xF0) == 0xE0) return 3;
  41              		.loc 1 438 0
  42 0010 03F0F002 		and	r2, r3, #240
  43 0014 E02A     		cmp	r2, #224
  44 0016 09D0     		beq	.L5
 439:..\lvgl\lv_misc/lv_txt.c ****     else if((str[0] & 0xF8) == 0xF0) return 4;
  45              		.loc 1 439 0
  46 0018 03F0F803 		and	r3, r3, #248
  47 001c F02B     		cmp	r3, #240
  48 001e 07D1     		bne	.L6
  49 0020 0420     		movs	r0, #4
  50              	.LVL1:
  51 0022 7047     		bx	lr
  52              	.LVL2:
  53              	.L3:
 436:..\lvgl\lv_misc/lv_txt.c ****     else if((str[0] & 0xE0) == 0xC0) return 2;
  54              		.loc 1 436 0
  55 0024 0120     		movs	r0, #1
  56              	.LVL3:
  57 0026 7047     		bx	lr
  58              	.LVL4:
  59              	.L4:
 437:..\lvgl\lv_misc/lv_txt.c ****     else if((str[0] & 0xF0) == 0xE0) return 3;
  60              		.loc 1 437 0
  61 0028 0220     		movs	r0, #2
  62              	.LVL5:
  63 002a 7047     		bx	lr
  64              	.LVL6:
  65              	.L5:
 438:..\lvgl\lv_misc/lv_txt.c ****     else if((str[0] & 0xF8) == 0xF0) return 4;
  66              		.loc 1 438 0
  67 002c 0320     		movs	r0, #3
  68              	.LVL7:
  69 002e 7047     		bx	lr
  70              	.LVL8:
  71              	.L6:
ARM GAS  C:\Users\d3bug\AppData\Local\Temp\ccfzCIuT.s 			page 10


 440:..\lvgl\lv_misc/lv_txt.c ****     return 0;
  72              		.loc 1 440 0
  73 0030 0020     		movs	r0, #0
  74              	.LVL9:
 441:..\lvgl\lv_misc/lv_txt.c **** }
  75              		.loc 1 441 0
  76 0032 7047     		bx	lr
  77              		.cfi_endproc
  78              	.LFE10:
  79              		.size	lv_txt_utf8_size, .-lv_txt_utf8_size
  80              		.section	.text.lv_txt_unicode_to_utf8,"ax",%progbits
  81              		.align	2
  82              		.thumb
  83              		.thumb_func
  84              		.type	lv_txt_unicode_to_utf8, %function
  85              	lv_txt_unicode_to_utf8:
  86              	.LFB11:
 442:..\lvgl\lv_misc/lv_txt.c **** 
 443:..\lvgl\lv_misc/lv_txt.c **** 
 444:..\lvgl\lv_misc/lv_txt.c **** /**
 445:..\lvgl\lv_misc/lv_txt.c ****  * Convert an Unicode letter to UTF-8.
 446:..\lvgl\lv_misc/lv_txt.c ****  * @param letter_uni an Unicode letter
 447:..\lvgl\lv_misc/lv_txt.c ****  * @return UTF-8 coded character in Little Endian to be compatible with C chars (e.g. 'Á', 'Ű')
 448:..\lvgl\lv_misc/lv_txt.c ****  */
 449:..\lvgl\lv_misc/lv_txt.c **** static uint32_t lv_txt_unicode_to_utf8(uint32_t letter_uni)
 450:..\lvgl\lv_misc/lv_txt.c **** {
  87              		.loc 1 450 0
  88              		.cfi_startproc
  89              		@ args = 0, pretend = 0, frame = 8
  90              		@ frame_needed = 0, uses_anonymous_args = 0
  91              		@ link register save eliminated.
  92              	.LVL10:
 451:..\lvgl\lv_misc/lv_txt.c ****     if(letter_uni < 128) return letter_uni;
  93              		.loc 1 451 0
  94 0000 7F28     		cmp	r0, #127
  95 0002 4BD9     		bls	.L15
 450:..\lvgl\lv_misc/lv_txt.c ****     if(letter_uni < 128) return letter_uni;
  96              		.loc 1 450 0
  97 0004 82B0     		sub	sp, sp, #8
  98              		.cfi_def_cfa_offset 8
 452:..\lvgl\lv_misc/lv_txt.c ****     uint8_t bytes[4];
 453:..\lvgl\lv_misc/lv_txt.c **** 
 454:..\lvgl\lv_misc/lv_txt.c ****     if(letter_uni < 0x0800) {
  99              		.loc 1 454 0
 100 0006 B0F5006F 		cmp	r0, #2048
 101 000a 11D2     		bcs	.L9
 455:..\lvgl\lv_misc/lv_txt.c ****         bytes[0] = ((letter_uni >> 6)  & 0x1F) | 0xC0;
 102              		.loc 1 455 0
 103 000c C0F38413 		ubfx	r3, r0, #6, #5
 104 0010 63F03F03 		orn	r3, r3, #63
 105 0014 8DF80430 		strb	r3, [sp, #4]
 456:..\lvgl\lv_misc/lv_txt.c ****         bytes[1] = ((letter_uni >> 0)  & 0x3F) | 0x80;
 106              		.loc 1 456 0
 107 0018 00F03F00 		and	r0, r0, #63
 108              	.LVL11:
 109 001c 60F07F00 		orn	r0, r0, #127
 110 0020 8DF80500 		strb	r0, [sp, #5]
ARM GAS  C:\Users\d3bug\AppData\Local\Temp\ccfzCIuT.s 			page 11


 457:..\lvgl\lv_misc/lv_txt.c ****         bytes[2] = 0;
 111              		.loc 1 457 0
 112 0024 0023     		movs	r3, #0
 113 0026 8DF80630 		strb	r3, [sp, #6]
 458:..\lvgl\lv_misc/lv_txt.c ****         bytes[3] = 0;
 114              		.loc 1 458 0
 115 002a 8DF80730 		strb	r3, [sp, #7]
 116 002e 33E0     		b	.L10
 117              	.LVL12:
 118              	.L9:
 459:..\lvgl\lv_misc/lv_txt.c ****     } else if(letter_uni < 0x010000) {
 119              		.loc 1 459 0
 120 0030 B0F5803F 		cmp	r0, #65536
 121 0034 15D2     		bcs	.L11
 460:..\lvgl\lv_misc/lv_txt.c ****         bytes[0] = ((letter_uni >> 12) & 0x0F) | 0xE0;
 122              		.loc 1 460 0
 123 0036 C0F30333 		ubfx	r3, r0, #12, #4
 124 003a 63F01F03 		orn	r3, r3, #31
 125 003e 8DF80430 		strb	r3, [sp, #4]
 461:..\lvgl\lv_misc/lv_txt.c ****         bytes[1] = ((letter_uni >> 6)  & 0x3F) | 0x80;
 126              		.loc 1 461 0
 127 0042 C0F38513 		ubfx	r3, r0, #6, #6
 128 0046 63F07F03 		orn	r3, r3, #127
 129 004a 8DF80530 		strb	r3, [sp, #5]
 462:..\lvgl\lv_misc/lv_txt.c ****         bytes[2] = ((letter_uni >> 0)  & 0x3F) | 0x80;
 130              		.loc 1 462 0
 131 004e 00F03F00 		and	r0, r0, #63
 132              	.LVL13:
 133 0052 60F07F00 		orn	r0, r0, #127
 134 0056 8DF80600 		strb	r0, [sp, #6]
 463:..\lvgl\lv_misc/lv_txt.c ****         bytes[3] = 0;
 135              		.loc 1 463 0
 136 005a 0023     		movs	r3, #0
 137 005c 8DF80730 		strb	r3, [sp, #7]
 138 0060 1AE0     		b	.L10
 139              	.LVL14:
 140              	.L11:
 464:..\lvgl\lv_misc/lv_txt.c ****     } else if(letter_uni < 0x110000) {
 141              		.loc 1 464 0
 142 0062 B0F5881F 		cmp	r0, #1114112
 143 0066 17D2     		bcs	.L10
 465:..\lvgl\lv_misc/lv_txt.c ****         bytes[0] = ((letter_uni >> 18) & 0x07) | 0xF0;
 144              		.loc 1 465 0
 145 0068 C0F38243 		ubfx	r3, r0, #18, #3
 146 006c 63F00F03 		orn	r3, r3, #15
 147 0070 8DF80430 		strb	r3, [sp, #4]
 466:..\lvgl\lv_misc/lv_txt.c ****         bytes[1] = ((letter_uni >> 12) & 0x3F) | 0x80;
 148              		.loc 1 466 0
 149 0074 C0F30533 		ubfx	r3, r0, #12, #6
 150 0078 63F07F03 		orn	r3, r3, #127
 151 007c 8DF80530 		strb	r3, [sp, #5]
 467:..\lvgl\lv_misc/lv_txt.c ****         bytes[2] = ((letter_uni >> 6)  & 0x3F) | 0x80;
 152              		.loc 1 467 0
 153 0080 C0F38513 		ubfx	r3, r0, #6, #6
 154 0084 63F07F03 		orn	r3, r3, #127
 155 0088 8DF80630 		strb	r3, [sp, #6]
 468:..\lvgl\lv_misc/lv_txt.c ****         bytes[3] = ((letter_uni >> 0)  & 0x3F) | 0x80;
ARM GAS  C:\Users\d3bug\AppData\Local\Temp\ccfzCIuT.s 			page 12


 156              		.loc 1 468 0
 157 008c 00F03F00 		and	r0, r0, #63
 158              	.LVL15:
 159 0090 60F07F00 		orn	r0, r0, #127
 160 0094 8DF80700 		strb	r0, [sp, #7]
 161              	.L10:
 162              	.LVL16:
 469:..\lvgl\lv_misc/lv_txt.c ****     }
 470:..\lvgl\lv_misc/lv_txt.c **** 
 471:..\lvgl\lv_misc/lv_txt.c ****     uint32_t * res_p = (uint32_t *)bytes;
 472:..\lvgl\lv_misc/lv_txt.c ****     return *res_p;
 163              		.loc 1 472 0
 164 0098 0198     		ldr	r0, [sp, #4]
 473:..\lvgl\lv_misc/lv_txt.c **** }
 165              		.loc 1 473 0
 166 009a 02B0     		add	sp, sp, #8
 167              		.cfi_def_cfa_offset 0
 168              	.LVL17:
 169              		@ sp needed
 170              	.LVL18:
 171              	.L15:
 172 009c 7047     		bx	lr
 173              		.cfi_endproc
 174              	.LFE11:
 175              		.size	lv_txt_unicode_to_utf8, .-lv_txt_unicode_to_utf8
 176 009e 00BF     		.section	.text.lv_txt_utf8_conv_wc,"ax",%progbits
 177              		.align	2
 178              		.thumb
 179              		.thumb_func
 180              		.type	lv_txt_utf8_conv_wc, %function
 181              	lv_txt_utf8_conv_wc:
 182              	.LFB12:
 474:..\lvgl\lv_misc/lv_txt.c **** 
 475:..\lvgl\lv_misc/lv_txt.c **** /**
 476:..\lvgl\lv_misc/lv_txt.c ****  * Convert a wide character, e.g. 'Á' little endian to be UTF-8 compatible
 477:..\lvgl\lv_misc/lv_txt.c ****  * @param c a wide character or a  Little endian number
 478:..\lvgl\lv_misc/lv_txt.c ****  * @return `c` in big endian
 479:..\lvgl\lv_misc/lv_txt.c ****  */
 480:..\lvgl\lv_misc/lv_txt.c **** static uint32_t lv_txt_utf8_conv_wc(uint32_t c)
 481:..\lvgl\lv_misc/lv_txt.c **** {
 183              		.loc 1 481 0
 184              		.cfi_startproc
 185              		@ args = 0, pretend = 0, frame = 16
 186              		@ frame_needed = 0, uses_anonymous_args = 0
 187              		@ link register save eliminated.
 188              	.LVL19:
 189 0000 84B0     		sub	sp, sp, #16
 190              		.cfi_def_cfa_offset 16
 482:..\lvgl\lv_misc/lv_txt.c ****     /*Swap the bytes (UTF-8 is big endian, but the MCUs are little endian)*/
 483:..\lvgl\lv_misc/lv_txt.c ****     if((c & 0x80) != 0) {
 191              		.loc 1 483 0
 192 0002 10F0800F 		tst	r0, #128
 193 0006 14D0     		beq	.L17
 194              	.LBB4:
 484:..\lvgl\lv_misc/lv_txt.c ****         uint32_t swapped;
 485:..\lvgl\lv_misc/lv_txt.c ****         uint8_t c8[4];
 486:..\lvgl\lv_misc/lv_txt.c ****         memcpy(c8, &c, 4);
ARM GAS  C:\Users\d3bug\AppData\Local\Temp\ccfzCIuT.s 			page 13


 487:..\lvgl\lv_misc/lv_txt.c ****         swapped = (c8[0] << 24) + (c8[1] << 16) + (c8[2] << 8) + (c8[3]);
 195              		.loc 1 487 0
 196 0008 C0F30723 		ubfx	r3, r0, #8, #8
 197 000c 1B04     		lsls	r3, r3, #16
 198 000e 03EB0063 		add	r3, r3, r0, lsl #24
 199 0012 C0F30742 		ubfx	r2, r0, #16, #8
 200 0016 03EB0223 		add	r3, r3, r2, lsl #8
 201 001a 03EB1060 		add	r0, r3, r0, lsr #24
 202              	.LVL20:
 488:..\lvgl\lv_misc/lv_txt.c ****         uint8_t i;
 489:..\lvgl\lv_misc/lv_txt.c ****         for(i = 0; i < 4; i++) {
 203              		.loc 1 489 0
 204 001e 0023     		movs	r3, #0
 205 0020 05E0     		b	.L18
 206              	.LVL21:
 207              	.L20:
 490:..\lvgl\lv_misc/lv_txt.c ****             if((swapped & 0xFF) == 0) swapped = (swapped >> 8); /*Ignore leading zeros (they were i
 208              		.loc 1 490 0
 209 0022 10F0FF0F 		tst	r0, #255
 210 0026 00D1     		bne	.L19
 211              		.loc 1 490 0 is_stmt 0 discriminator 1
 212 0028 000A     		lsrs	r0, r0, #8
 213              	.LVL22:
 214              	.L19:
 489:..\lvgl\lv_misc/lv_txt.c ****             if((swapped & 0xFF) == 0) swapped = (swapped >> 8); /*Ignore leading zeros (they were i
 215              		.loc 1 489 0 is_stmt 1 discriminator 2
 216 002a 0133     		adds	r3, r3, #1
 217              	.LVL23:
 218 002c DBB2     		uxtb	r3, r3
 219              	.LVL24:
 220              	.L18:
 489:..\lvgl\lv_misc/lv_txt.c ****             if((swapped & 0xFF) == 0) swapped = (swapped >> 8); /*Ignore leading zeros (they were i
 221              		.loc 1 489 0 is_stmt 0 discriminator 1
 222 002e 032B     		cmp	r3, #3
 223 0030 F7D9     		bls	.L20
 224              	.LVL25:
 225              	.L17:
 226              	.LBE4:
 491:..\lvgl\lv_misc/lv_txt.c ****         }
 492:..\lvgl\lv_misc/lv_txt.c ****         c = swapped;
 493:..\lvgl\lv_misc/lv_txt.c ****     }
 494:..\lvgl\lv_misc/lv_txt.c **** 
 495:..\lvgl\lv_misc/lv_txt.c ****     return c;
 496:..\lvgl\lv_misc/lv_txt.c **** }
 227              		.loc 1 496 0 is_stmt 1
 228 0032 04B0     		add	sp, sp, #16
 229              		.cfi_def_cfa_offset 0
 230              		@ sp needed
 231 0034 7047     		bx	lr
 232              		.cfi_endproc
 233              	.LFE12:
 234              		.size	lv_txt_utf8_conv_wc, .-lv_txt_utf8_conv_wc
 235 0036 00BF     		.section	.text.lv_txt_utf8_next,"ax",%progbits
 236              		.align	2
 237              		.thumb
 238              		.thumb_func
 239              		.type	lv_txt_utf8_next, %function
ARM GAS  C:\Users\d3bug\AppData\Local\Temp\ccfzCIuT.s 			page 14


 240              	lv_txt_utf8_next:
 241              	.LFB13:
 497:..\lvgl\lv_misc/lv_txt.c **** 
 498:..\lvgl\lv_misc/lv_txt.c **** /**
 499:..\lvgl\lv_misc/lv_txt.c ****  * Decode an UTF-8 character from a string.
 500:..\lvgl\lv_misc/lv_txt.c ****  * @param txt pointer to '\0' terminated string
 501:..\lvgl\lv_misc/lv_txt.c ****  * @param i start byte index in 'txt' where to start.
 502:..\lvgl\lv_misc/lv_txt.c ****  *          After call it will point to the next UTF-8 char in 'txt'.
 503:..\lvgl\lv_misc/lv_txt.c ****  *          NULL to use txt[0] as index
 504:..\lvgl\lv_misc/lv_txt.c ****  * @return the decoded Unicode character or 0 on invalid UTF-8 code
 505:..\lvgl\lv_misc/lv_txt.c ****  */
 506:..\lvgl\lv_misc/lv_txt.c **** static uint32_t lv_txt_utf8_next(const char * txt, uint32_t * i)
 507:..\lvgl\lv_misc/lv_txt.c **** {
 242              		.loc 1 507 0
 243              		.cfi_startproc
 244              		@ args = 0, pretend = 0, frame = 8
 245              		@ frame_needed = 0, uses_anonymous_args = 0
 246              		@ link register save eliminated.
 247              	.LVL26:
 248 0000 30B4     		push	{r4, r5}
 249              		.cfi_def_cfa_offset 8
 250              		.cfi_offset 4, -8
 251              		.cfi_offset 5, -4
 252 0002 82B0     		sub	sp, sp, #8
 253              		.cfi_def_cfa_offset 16
 254              	.LVL27:
 508:..\lvgl\lv_misc/lv_txt.c ****     /* Unicode to UTF-8
 509:..\lvgl\lv_misc/lv_txt.c ****      * 00000000 00000000 00000000 0xxxxxxx -> 0xxxxxxx
 510:..\lvgl\lv_misc/lv_txt.c ****      * 00000000 00000000 00000yyy yyxxxxxx -> 110yyyyy 10xxxxxx
 511:..\lvgl\lv_misc/lv_txt.c ****      * 00000000 00000000 zzzzyyyy yyxxxxxx -> 1110zzzz 10yyyyyy 10xxxxxx
 512:..\lvgl\lv_misc/lv_txt.c ****      * 00000000 000wwwzz zzzzyyyy yyxxxxxx -> 11110www 10zzzzzz 10yyyyyy 10xxxxxx
 513:..\lvgl\lv_misc/lv_txt.c ****      * */
 514:..\lvgl\lv_misc/lv_txt.c **** 
 515:..\lvgl\lv_misc/lv_txt.c ****     uint32_t result = 0;
 516:..\lvgl\lv_misc/lv_txt.c **** 
 517:..\lvgl\lv_misc/lv_txt.c ****     /*Dummy 'i' pointer is required*/
 518:..\lvgl\lv_misc/lv_txt.c ****     uint32_t i_tmp = 0;
 255              		.loc 1 518 0
 256 0004 0023     		movs	r3, #0
 257 0006 0193     		str	r3, [sp, #4]
 519:..\lvgl\lv_misc/lv_txt.c ****     if(i == NULL) i = &i_tmp;
 258              		.loc 1 519 0
 259 0008 0C46     		mov	r4, r1
 260 000a 01B9     		cbnz	r1, .L23
 261 000c 01AC     		add	r4, sp, #4
 262              	.L23:
 263              	.LVL28:
 520:..\lvgl\lv_misc/lv_txt.c **** 
 521:..\lvgl\lv_misc/lv_txt.c ****     /*Normal ASCII*/
 522:..\lvgl\lv_misc/lv_txt.c ****     if((txt[*i] & 0x80) == 0) {
 264              		.loc 1 522 0
 265 000e 2268     		ldr	r2, [r4]
 266 0010 835C     		ldrb	r3, [r0, r2]	@ zero_extendqisi2
 267 0012 13F0800F 		tst	r3, #128
 268 0016 03D1     		bne	.L24
 269              	.LVL29:
 523:..\lvgl\lv_misc/lv_txt.c ****         result = txt[*i];
ARM GAS  C:\Users\d3bug\AppData\Local\Temp\ccfzCIuT.s 			page 15


 524:..\lvgl\lv_misc/lv_txt.c ****         (*i)++;
 270              		.loc 1 524 0
 271 0018 0132     		adds	r2, r2, #1
 272 001a 2260     		str	r2, [r4]
 523:..\lvgl\lv_misc/lv_txt.c ****         result = txt[*i];
 273              		.loc 1 523 0
 274 001c 1846     		mov	r0, r3
 275              	.LVL30:
 276 001e 6AE0     		b	.L25
 277              	.LVL31:
 278              	.L24:
 525:..\lvgl\lv_misc/lv_txt.c ****     }
 526:..\lvgl\lv_misc/lv_txt.c ****     /*Real UTF-8 decode*/
 527:..\lvgl\lv_misc/lv_txt.c ****     else {
 528:..\lvgl\lv_misc/lv_txt.c ****         /*2 bytes UTF-8 code*/
 529:..\lvgl\lv_misc/lv_txt.c ****         if((txt[*i] & 0xE0) == 0xC0) {
 279              		.loc 1 529 0
 280 0020 03F0E001 		and	r1, r3, #224
 281 0024 C029     		cmp	r1, #192
 282 0026 0FD1     		bne	.L26
 530:..\lvgl\lv_misc/lv_txt.c ****             result = (uint32_t)(txt[*i] & 0x1F) << 6;
 283              		.loc 1 530 0
 284 0028 9B01     		lsls	r3, r3, #6
 285 002a 03F4F863 		and	r3, r3, #1984
 286              	.LVL32:
 531:..\lvgl\lv_misc/lv_txt.c ****             (*i)++;
 287              		.loc 1 531 0
 288 002e 0132     		adds	r2, r2, #1
 289 0030 2260     		str	r2, [r4]
 532:..\lvgl\lv_misc/lv_txt.c ****             if((txt[*i] & 0xC0) != 0x80) return 0;  /*Invalid UTF-8 code*/
 290              		.loc 1 532 0
 291 0032 805C     		ldrb	r0, [r0, r2]	@ zero_extendqisi2
 292              	.LVL33:
 293 0034 00F0C001 		and	r1, r0, #192
 294 0038 8029     		cmp	r1, #128
 295 003a 51D1     		bne	.L30
 533:..\lvgl\lv_misc/lv_txt.c ****             result += (txt[*i] & 0x3F);
 296              		.loc 1 533 0
 297 003c 00F03F00 		and	r0, r0, #63
 298              	.LVL34:
 534:..\lvgl\lv_misc/lv_txt.c ****             (*i)++;
 299              		.loc 1 534 0
 300 0040 0132     		adds	r2, r2, #1
 301 0042 2260     		str	r2, [r4]
 533:..\lvgl\lv_misc/lv_txt.c ****             result += (txt[*i] & 0x3F);
 302              		.loc 1 533 0
 303 0044 1844     		add	r0, r0, r3
 304              	.LVL35:
 305 0046 56E0     		b	.L25
 306              	.LVL36:
 307              	.L26:
 535:..\lvgl\lv_misc/lv_txt.c ****         }
 536:..\lvgl\lv_misc/lv_txt.c ****         /*3 bytes UTF-8 code*/
 537:..\lvgl\lv_misc/lv_txt.c ****         else if((txt[*i] & 0xF0) == 0xE0) {
 308              		.loc 1 537 0
 309 0048 03F0F001 		and	r1, r3, #240
 310 004c E029     		cmp	r1, #224
ARM GAS  C:\Users\d3bug\AppData\Local\Temp\ccfzCIuT.s 			page 16


 311 004e 19D1     		bne	.L27
 538:..\lvgl\lv_misc/lv_txt.c ****             result = (uint32_t)(txt[*i] & 0x0F) << 12;
 312              		.loc 1 538 0
 313 0050 1B03     		lsls	r3, r3, #12
 314 0052 9BB2     		uxth	r3, r3
 315              	.LVL37:
 539:..\lvgl\lv_misc/lv_txt.c ****             (*i)++;
 316              		.loc 1 539 0
 317 0054 0132     		adds	r2, r2, #1
 318 0056 2260     		str	r2, [r4]
 540:..\lvgl\lv_misc/lv_txt.c **** 
 541:..\lvgl\lv_misc/lv_txt.c ****             if((txt[*i] & 0xC0) != 0x80) return 0;  /*Invalid UTF-8 code*/
 319              		.loc 1 541 0
 320 0058 815C     		ldrb	r1, [r0, r2]	@ zero_extendqisi2
 321 005a 01F0C005 		and	r5, r1, #192
 322 005e 802D     		cmp	r5, #128
 323 0060 40D1     		bne	.L31
 542:..\lvgl\lv_misc/lv_txt.c ****             result += (uint32_t)(txt[*i] & 0x3F) << 6;
 324              		.loc 1 542 0
 325 0062 8901     		lsls	r1, r1, #6
 326 0064 01F47C61 		and	r1, r1, #4032
 327 0068 0B44     		add	r3, r3, r1
 328              	.LVL38:
 543:..\lvgl\lv_misc/lv_txt.c ****             (*i)++;
 329              		.loc 1 543 0
 330 006a 511C     		adds	r1, r2, #1
 331 006c 2160     		str	r1, [r4]
 544:..\lvgl\lv_misc/lv_txt.c **** 
 545:..\lvgl\lv_misc/lv_txt.c ****             if((txt[*i] & 0xC0) != 0x80) return 0;  /*Invalid UTF-8 code*/
 332              		.loc 1 545 0
 333 006e 425C     		ldrb	r2, [r0, r1]	@ zero_extendqisi2
 334 0070 02F0C000 		and	r0, r2, #192
 335              	.LVL39:
 336 0074 8028     		cmp	r0, #128
 337 0076 37D1     		bne	.L32
 546:..\lvgl\lv_misc/lv_txt.c ****             result += (txt[*i] & 0x3F);
 338              		.loc 1 546 0
 339 0078 02F03F02 		and	r2, r2, #63
 340              	.LVL40:
 547:..\lvgl\lv_misc/lv_txt.c ****             (*i)++;
 341              		.loc 1 547 0
 342 007c 0131     		adds	r1, r1, #1
 343 007e 2160     		str	r1, [r4]
 546:..\lvgl\lv_misc/lv_txt.c ****             result += (txt[*i] & 0x3F);
 344              		.loc 1 546 0
 345 0080 D018     		adds	r0, r2, r3
 346              	.LVL41:
 347 0082 38E0     		b	.L25
 348              	.LVL42:
 349              	.L27:
 548:..\lvgl\lv_misc/lv_txt.c ****         }
 549:..\lvgl\lv_misc/lv_txt.c ****         /*4 bytes UTF-8 code*/
 550:..\lvgl\lv_misc/lv_txt.c ****         else if((txt[*i] & 0xF8) == 0xF0) {
 350              		.loc 1 550 0
 351 0084 03F0F801 		and	r1, r3, #248
 352 0088 F029     		cmp	r1, #240
 353 008a 25D1     		bne	.L28
ARM GAS  C:\Users\d3bug\AppData\Local\Temp\ccfzCIuT.s 			page 17


 551:..\lvgl\lv_misc/lv_txt.c ****             result = (uint32_t)(txt[*i] & 0x07) << 18;
 354              		.loc 1 551 0
 355 008c 9B04     		lsls	r3, r3, #18
 356 008e 03F4E013 		and	r3, r3, #1835008
 357              	.LVL43:
 552:..\lvgl\lv_misc/lv_txt.c ****             (*i)++;
 358              		.loc 1 552 0
 359 0092 0132     		adds	r2, r2, #1
 360 0094 2260     		str	r2, [r4]
 553:..\lvgl\lv_misc/lv_txt.c **** 
 554:..\lvgl\lv_misc/lv_txt.c ****             if((txt[*i] & 0xC0) != 0x80) return 0;  /*Invalid UTF-8 code*/
 361              		.loc 1 554 0
 362 0096 815C     		ldrb	r1, [r0, r2]	@ zero_extendqisi2
 363 0098 01F0C005 		and	r5, r1, #192
 364 009c 802D     		cmp	r5, #128
 365 009e 25D1     		bne	.L33
 555:..\lvgl\lv_misc/lv_txt.c ****             result += (uint32_t)(txt[*i] & 0x3F) << 12;
 366              		.loc 1 555 0
 367 00a0 0903     		lsls	r1, r1, #12
 368 00a2 01F47C31 		and	r1, r1, #258048
 369 00a6 0B44     		add	r3, r3, r1
 370              	.LVL44:
 556:..\lvgl\lv_misc/lv_txt.c ****             (*i)++;
 371              		.loc 1 556 0
 372 00a8 511C     		adds	r1, r2, #1
 373 00aa 2160     		str	r1, [r4]
 557:..\lvgl\lv_misc/lv_txt.c **** 
 558:..\lvgl\lv_misc/lv_txt.c ****             if((txt[*i] & 0xC0) != 0x80) return 0;  /*Invalid UTF-8 code*/
 374              		.loc 1 558 0
 375 00ac 425C     		ldrb	r2, [r0, r1]	@ zero_extendqisi2
 376 00ae 02F0C005 		and	r5, r2, #192
 377 00b2 802D     		cmp	r5, #128
 378 00b4 1CD1     		bne	.L34
 559:..\lvgl\lv_misc/lv_txt.c ****             result += (uint32_t)(txt[*i] & 0x3F) << 6;
 379              		.loc 1 559 0
 380 00b6 9201     		lsls	r2, r2, #6
 381 00b8 02F47C62 		and	r2, r2, #4032
 382 00bc 1A44     		add	r2, r2, r3
 383              	.LVL45:
 560:..\lvgl\lv_misc/lv_txt.c ****             (*i)++;
 384              		.loc 1 560 0
 385 00be 0131     		adds	r1, r1, #1
 386 00c0 2160     		str	r1, [r4]
 561:..\lvgl\lv_misc/lv_txt.c **** 
 562:..\lvgl\lv_misc/lv_txt.c ****             if((txt[*i] & 0xC0) != 0x80) return 0;  /*Invalid UTF-8 code*/
 387              		.loc 1 562 0
 388 00c2 435C     		ldrb	r3, [r0, r1]	@ zero_extendqisi2
 389 00c4 03F0C000 		and	r0, r3, #192
 390              	.LVL46:
 391 00c8 8028     		cmp	r0, #128
 392 00ca 13D1     		bne	.L35
 563:..\lvgl\lv_misc/lv_txt.c ****             result += txt[*i] & 0x3F;
 393              		.loc 1 563 0
 394 00cc 03F03F03 		and	r3, r3, #63
 395              	.LVL47:
 564:..\lvgl\lv_misc/lv_txt.c ****             (*i)++;
 396              		.loc 1 564 0
ARM GAS  C:\Users\d3bug\AppData\Local\Temp\ccfzCIuT.s 			page 18


 397 00d0 0131     		adds	r1, r1, #1
 398 00d2 2160     		str	r1, [r4]
 563:..\lvgl\lv_misc/lv_txt.c ****             result += txt[*i] & 0x3F;
 399              		.loc 1 563 0
 400 00d4 9818     		adds	r0, r3, r2
 401              	.LVL48:
 402 00d6 0EE0     		b	.L25
 403              	.LVL49:
 404              	.L28:
 565:..\lvgl\lv_misc/lv_txt.c ****         } else {
 566:..\lvgl\lv_misc/lv_txt.c ****             (*i)++; /*Not UTF-8 char. Go the next.*/
 405              		.loc 1 566 0
 406 00d8 0132     		adds	r2, r2, #1
 407 00da 2260     		str	r2, [r4]
 515:..\lvgl\lv_misc/lv_txt.c **** 
 408              		.loc 1 515 0
 409 00dc 0020     		movs	r0, #0
 410              	.LVL50:
 411 00de 0AE0     		b	.L25
 412              	.LVL51:
 413              	.L30:
 532:..\lvgl\lv_misc/lv_txt.c ****             result += (txt[*i] & 0x3F);
 414              		.loc 1 532 0
 415 00e0 0020     		movs	r0, #0
 416 00e2 08E0     		b	.L25
 417              	.LVL52:
 418              	.L31:
 541:..\lvgl\lv_misc/lv_txt.c ****             result += (uint32_t)(txt[*i] & 0x3F) << 6;
 419              		.loc 1 541 0
 420 00e4 0020     		movs	r0, #0
 421              	.LVL53:
 422 00e6 06E0     		b	.L25
 423              	.L32:
 545:..\lvgl\lv_misc/lv_txt.c ****             result += (txt[*i] & 0x3F);
 424              		.loc 1 545 0
 425 00e8 0020     		movs	r0, #0
 426 00ea 04E0     		b	.L25
 427              	.LVL54:
 428              	.L33:
 554:..\lvgl\lv_misc/lv_txt.c ****             result += (uint32_t)(txt[*i] & 0x3F) << 12;
 429              		.loc 1 554 0
 430 00ec 0020     		movs	r0, #0
 431              	.LVL55:
 432 00ee 02E0     		b	.L25
 433              	.LVL56:
 434              	.L34:
 558:..\lvgl\lv_misc/lv_txt.c ****             result += (uint32_t)(txt[*i] & 0x3F) << 6;
 435              		.loc 1 558 0
 436 00f0 0020     		movs	r0, #0
 437              	.LVL57:
 438 00f2 00E0     		b	.L25
 439              	.LVL58:
 440              	.L35:
 562:..\lvgl\lv_misc/lv_txt.c ****             result += txt[*i] & 0x3F;
 441              		.loc 1 562 0
 442 00f4 0020     		movs	r0, #0
 443              	.LVL59:
ARM GAS  C:\Users\d3bug\AppData\Local\Temp\ccfzCIuT.s 			page 19


 444              	.L25:
 567:..\lvgl\lv_misc/lv_txt.c ****         }
 568:..\lvgl\lv_misc/lv_txt.c ****     }
 569:..\lvgl\lv_misc/lv_txt.c ****     return result;
 570:..\lvgl\lv_misc/lv_txt.c **** }
 445              		.loc 1 570 0
 446 00f6 02B0     		add	sp, sp, #8
 447              		.cfi_def_cfa_offset 8
 448              		@ sp needed
 449 00f8 30BC     		pop	{r4, r5}
 450              		.cfi_restore 5
 451              		.cfi_restore 4
 452              		.cfi_def_cfa_offset 0
 453              	.LVL60:
 454 00fa 7047     		bx	lr
 455              		.cfi_endproc
 456              	.LFE13:
 457              		.size	lv_txt_utf8_next, .-lv_txt_utf8_next
 458              		.section	.text.lv_txt_utf8_prev,"ax",%progbits
 459              		.align	2
 460              		.thumb
 461              		.thumb_func
 462              		.type	lv_txt_utf8_prev, %function
 463              	lv_txt_utf8_prev:
 464              	.LFB14:
 571:..\lvgl\lv_misc/lv_txt.c **** 
 572:..\lvgl\lv_misc/lv_txt.c **** /**
 573:..\lvgl\lv_misc/lv_txt.c ****  * Get previous UTF-8 character form a string.
 574:..\lvgl\lv_misc/lv_txt.c ****  * @param txt pointer to '\0' terminated string
 575:..\lvgl\lv_misc/lv_txt.c ****  * @param i start byte index in 'txt' where to start. After the call it will point to the previous 
 576:..\lvgl\lv_misc/lv_txt.c ****  * @return the decoded Unicode character or 0 on invalid UTF-8 code
 577:..\lvgl\lv_misc/lv_txt.c ****  */
 578:..\lvgl\lv_misc/lv_txt.c **** static uint32_t lv_txt_utf8_prev(const char * txt, uint32_t * i)
 579:..\lvgl\lv_misc/lv_txt.c **** {
 465              		.loc 1 579 0
 466              		.cfi_startproc
 467              		@ args = 0, pretend = 0, frame = 8
 468              		@ frame_needed = 0, uses_anonymous_args = 0
 469              	.LVL61:
 470 0000 70B5     		push	{r4, r5, r6, lr}
 471              		.cfi_def_cfa_offset 16
 472              		.cfi_offset 4, -16
 473              		.cfi_offset 5, -12
 474              		.cfi_offset 6, -8
 475              		.cfi_offset 14, -4
 476 0002 82B0     		sub	sp, sp, #8
 477              		.cfi_def_cfa_offset 24
 478 0004 0646     		mov	r6, r0
 479 0006 0D46     		mov	r5, r1
 480              	.LVL62:
 580:..\lvgl\lv_misc/lv_txt.c ****     uint8_t c_size;
 581:..\lvgl\lv_misc/lv_txt.c ****     uint8_t cnt = 0;
 582:..\lvgl\lv_misc/lv_txt.c **** 
 583:..\lvgl\lv_misc/lv_txt.c ****     /*Try to find a !0 long UTF-8 char by stepping one character back*/
 584:..\lvgl\lv_misc/lv_txt.c ****     (*i)--;
 481              		.loc 1 584 0
 482 0008 0B68     		ldr	r3, [r1]
ARM GAS  C:\Users\d3bug\AppData\Local\Temp\ccfzCIuT.s 			page 20


 483 000a 013B     		subs	r3, r3, #1
 484 000c 0B60     		str	r3, [r1]
 581:..\lvgl\lv_misc/lv_txt.c **** 
 485              		.loc 1 581 0
 486 000e 0024     		movs	r4, #0
 487              	.LVL63:
 488              	.L40:
 585:..\lvgl\lv_misc/lv_txt.c ****     do {
 586:..\lvgl\lv_misc/lv_txt.c ****         if(cnt >= 4) return 0;      /*No UTF-8 char found before the initial*/
 489              		.loc 1 586 0
 490 0010 032C     		cmp	r4, #3
 491 0012 17D8     		bhi	.L41
 587:..\lvgl\lv_misc/lv_txt.c **** 
 588:..\lvgl\lv_misc/lv_txt.c ****         c_size = lv_txt_encoded_size(&txt[*i]);
 492              		.loc 1 588 0
 493 0014 0D4B     		ldr	r3, .L43
 494 0016 1B68     		ldr	r3, [r3]
 495 0018 2868     		ldr	r0, [r5]
 496 001a 3044     		add	r0, r0, r6
 497 001c 9847     		blx	r3
 498              	.LVL64:
 589:..\lvgl\lv_misc/lv_txt.c ****         if(c_size == 0) {
 499              		.loc 1 589 0
 500 001e 0346     		mov	r3, r0
 501 0020 18B9     		cbnz	r0, .L39
 590:..\lvgl\lv_misc/lv_txt.c ****             if(*i != 0)(*i)--;
 502              		.loc 1 590 0
 503 0022 2868     		ldr	r0, [r5]
 504              	.LVL65:
 505 0024 78B1     		cbz	r0, .L38
 506              		.loc 1 590 0 is_stmt 0 discriminator 1
 507 0026 0138     		subs	r0, r0, #1
 508 0028 2860     		str	r0, [r5]
 509              	.L39:
 591:..\lvgl\lv_misc/lv_txt.c ****             else return 0;
 592:..\lvgl\lv_misc/lv_txt.c ****         }
 593:..\lvgl\lv_misc/lv_txt.c ****         cnt++;
 510              		.loc 1 593 0 is_stmt 1
 511 002a 0134     		adds	r4, r4, #1
 512              	.LVL66:
 513 002c E4B2     		uxtb	r4, r4
 514              	.LVL67:
 594:..\lvgl\lv_misc/lv_txt.c ****     } while(c_size == 0);
 515              		.loc 1 594 0
 516 002e 002B     		cmp	r3, #0
 517 0030 EED0     		beq	.L40
 595:..\lvgl\lv_misc/lv_txt.c **** 
 596:..\lvgl\lv_misc/lv_txt.c ****     uint32_t i_tmp = *i;
 518              		.loc 1 596 0
 519 0032 2B68     		ldr	r3, [r5]
 520 0034 02A9     		add	r1, sp, #8
 521 0036 41F8043D 		str	r3, [r1, #-4]!
 597:..\lvgl\lv_misc/lv_txt.c ****     uint32_t letter = lv_txt_encoded_next(txt, &i_tmp);   /*Character found, get it*/
 522              		.loc 1 597 0
 523 003a 044B     		ldr	r3, .L43
 524 003c 5B68     		ldr	r3, [r3, #4]
 525 003e 3046     		mov	r0, r6
ARM GAS  C:\Users\d3bug\AppData\Local\Temp\ccfzCIuT.s 			page 21


 526 0040 9847     		blx	r3
 527              	.LVL68:
 598:..\lvgl\lv_misc/lv_txt.c **** 
 599:..\lvgl\lv_misc/lv_txt.c ****     return letter;
 528              		.loc 1 599 0
 529 0042 00E0     		b	.L38
 530              	.L41:
 586:..\lvgl\lv_misc/lv_txt.c **** 
 531              		.loc 1 586 0
 532 0044 0020     		movs	r0, #0
 533              	.L38:
 600:..\lvgl\lv_misc/lv_txt.c **** 
 601:..\lvgl\lv_misc/lv_txt.c **** }
 534              		.loc 1 601 0
 535 0046 02B0     		add	sp, sp, #8
 536              		.cfi_def_cfa_offset 16
 537              		@ sp needed
 538 0048 70BD     		pop	{r4, r5, r6, pc}
 539              	.LVL69:
 540              	.L44:
 541 004a 00BF     		.align	2
 542              	.L43:
 543 004c 00000000 		.word	.LANCHOR0
 544              		.cfi_endproc
 545              	.LFE14:
 546              		.size	lv_txt_utf8_prev, .-lv_txt_utf8_prev
 547              		.section	.text.lv_txt_utf8_get_byte_id,"ax",%progbits
 548              		.align	2
 549              		.thumb
 550              		.thumb_func
 551              		.type	lv_txt_utf8_get_byte_id, %function
 552              	lv_txt_utf8_get_byte_id:
 553              	.LFB15:
 602:..\lvgl\lv_misc/lv_txt.c **** 
 603:..\lvgl\lv_misc/lv_txt.c **** /**
 604:..\lvgl\lv_misc/lv_txt.c ****  * Convert a character index (in an UTF-8 text) to byte index.
 605:..\lvgl\lv_misc/lv_txt.c ****  * E.g. in "AÁRT" index of 'R' is 2th char but start at byte 3 because 'Á' is 2 bytes long
 606:..\lvgl\lv_misc/lv_txt.c ****  * @param txt a '\0' terminated UTF-8 string
 607:..\lvgl\lv_misc/lv_txt.c ****  * @param utf8_id character index
 608:..\lvgl\lv_misc/lv_txt.c ****  * @return byte index of the 'utf8_id'th letter
 609:..\lvgl\lv_misc/lv_txt.c ****  */
 610:..\lvgl\lv_misc/lv_txt.c **** static uint32_t lv_txt_utf8_get_byte_id(const char * txt, uint32_t utf8_id)
 611:..\lvgl\lv_misc/lv_txt.c **** {
 554              		.loc 1 611 0
 555              		.cfi_startproc
 556              		@ args = 0, pretend = 0, frame = 0
 557              		@ frame_needed = 0, uses_anonymous_args = 0
 558              	.LVL70:
 559 0000 F8B5     		push	{r3, r4, r5, r6, r7, lr}
 560              		.cfi_def_cfa_offset 24
 561              		.cfi_offset 3, -24
 562              		.cfi_offset 4, -20
 563              		.cfi_offset 5, -16
 564              		.cfi_offset 6, -12
 565              		.cfi_offset 7, -8
 566              		.cfi_offset 14, -4
 567 0002 0746     		mov	r7, r0
ARM GAS  C:\Users\d3bug\AppData\Local\Temp\ccfzCIuT.s 			page 22


 568 0004 0E46     		mov	r6, r1
 569              	.LVL71:
 612:..\lvgl\lv_misc/lv_txt.c ****     uint32_t i;
 613:..\lvgl\lv_misc/lv_txt.c ****     uint32_t byte_cnt = 0;
 570              		.loc 1 613 0
 571 0006 0024     		movs	r4, #0
 614:..\lvgl\lv_misc/lv_txt.c ****     for(i = 0; i < utf8_id; i++) {
 572              		.loc 1 614 0
 573 0008 2546     		mov	r5, r4
 574 000a 05E0     		b	.L46
 575              	.LVL72:
 576              	.L47:
 615:..\lvgl\lv_misc/lv_txt.c ****         byte_cnt += lv_txt_encoded_size(&txt[byte_cnt]);
 577              		.loc 1 615 0 discriminator 3
 578 000c 044B     		ldr	r3, .L49
 579 000e 1B68     		ldr	r3, [r3]
 580 0010 3819     		adds	r0, r7, r4
 581 0012 9847     		blx	r3
 582              	.LVL73:
 583 0014 0444     		add	r4, r4, r0
 584              	.LVL74:
 614:..\lvgl\lv_misc/lv_txt.c ****     for(i = 0; i < utf8_id; i++) {
 585              		.loc 1 614 0 discriminator 3
 586 0016 0135     		adds	r5, r5, #1
 587              	.LVL75:
 588              	.L46:
 614:..\lvgl\lv_misc/lv_txt.c ****     for(i = 0; i < utf8_id; i++) {
 589              		.loc 1 614 0 is_stmt 0 discriminator 1
 590 0018 B542     		cmp	r5, r6
 591 001a F7D3     		bcc	.L47
 616:..\lvgl\lv_misc/lv_txt.c ****     }
 617:..\lvgl\lv_misc/lv_txt.c **** 
 618:..\lvgl\lv_misc/lv_txt.c ****     return byte_cnt;
 619:..\lvgl\lv_misc/lv_txt.c **** 
 620:..\lvgl\lv_misc/lv_txt.c **** }
 592              		.loc 1 620 0 is_stmt 1
 593 001c 2046     		mov	r0, r4
 594 001e F8BD     		pop	{r3, r4, r5, r6, r7, pc}
 595              	.LVL76:
 596              	.L50:
 597              		.align	2
 598              	.L49:
 599 0020 00000000 		.word	.LANCHOR0
 600              		.cfi_endproc
 601              	.LFE15:
 602              		.size	lv_txt_utf8_get_byte_id, .-lv_txt_utf8_get_byte_id
 603              		.section	.text.lv_txt_utf8_get_char_id,"ax",%progbits
 604              		.align	2
 605              		.thumb
 606              		.thumb_func
 607              		.type	lv_txt_utf8_get_char_id, %function
 608              	lv_txt_utf8_get_char_id:
 609              	.LFB16:
 621:..\lvgl\lv_misc/lv_txt.c **** 
 622:..\lvgl\lv_misc/lv_txt.c **** 
 623:..\lvgl\lv_misc/lv_txt.c **** /**
 624:..\lvgl\lv_misc/lv_txt.c ****  * Convert a byte index (in an UTF-8 text) to character index.
ARM GAS  C:\Users\d3bug\AppData\Local\Temp\ccfzCIuT.s 			page 23


 625:..\lvgl\lv_misc/lv_txt.c ****  * E.g. in "AÁRT" index of 'R' is 2th char but start at byte 3 because 'Á' is 2 bytes long
 626:..\lvgl\lv_misc/lv_txt.c ****  * @param txt a '\0' terminated UTF-8 string
 627:..\lvgl\lv_misc/lv_txt.c ****  * @param byte_id byte index
 628:..\lvgl\lv_misc/lv_txt.c ****  * @return character index of the letter at 'byte_id'th position
 629:..\lvgl\lv_misc/lv_txt.c ****  */
 630:..\lvgl\lv_misc/lv_txt.c **** static uint32_t lv_txt_utf8_get_char_id(const char * txt, uint32_t byte_id)
 631:..\lvgl\lv_misc/lv_txt.c **** {
 610              		.loc 1 631 0
 611              		.cfi_startproc
 612              		@ args = 0, pretend = 0, frame = 8
 613              		@ frame_needed = 0, uses_anonymous_args = 0
 614              	.LVL77:
 615 0000 70B5     		push	{r4, r5, r6, lr}
 616              		.cfi_def_cfa_offset 16
 617              		.cfi_offset 4, -16
 618              		.cfi_offset 5, -12
 619              		.cfi_offset 6, -8
 620              		.cfi_offset 14, -4
 621 0002 82B0     		sub	sp, sp, #8
 622              		.cfi_def_cfa_offset 24
 623 0004 0646     		mov	r6, r0
 624 0006 0D46     		mov	r5, r1
 632:..\lvgl\lv_misc/lv_txt.c ****     uint32_t i = 0;
 625              		.loc 1 632 0
 626 0008 0024     		movs	r4, #0
 627 000a 0194     		str	r4, [sp, #4]
 628              	.LVL78:
 633:..\lvgl\lv_misc/lv_txt.c ****     uint32_t char_cnt = 0;
 634:..\lvgl\lv_misc/lv_txt.c **** 
 635:..\lvgl\lv_misc/lv_txt.c ****     while(i < byte_id) {
 629              		.loc 1 635 0
 630 000c 05E0     		b	.L52
 631              	.LVL79:
 632              	.L53:
 636:..\lvgl\lv_misc/lv_txt.c ****         lv_txt_encoded_next(txt, &i); /*'i' points to the next letter so use the prev. value*/
 633              		.loc 1 636 0
 634 000e 064B     		ldr	r3, .L55
 635 0010 5B68     		ldr	r3, [r3, #4]
 636 0012 01A9     		add	r1, sp, #4
 637 0014 3046     		mov	r0, r6
 638 0016 9847     		blx	r3
 639              	.LVL80:
 637:..\lvgl\lv_misc/lv_txt.c ****         char_cnt++;
 640              		.loc 1 637 0
 641 0018 0134     		adds	r4, r4, #1
 642              	.LVL81:
 643              	.L52:
 635:..\lvgl\lv_misc/lv_txt.c ****         lv_txt_encoded_next(txt, &i); /*'i' points to the next letter so use the prev. value*/
 644              		.loc 1 635 0
 645 001a 019B     		ldr	r3, [sp, #4]
 646 001c AB42     		cmp	r3, r5
 647 001e F6D3     		bcc	.L53
 638:..\lvgl\lv_misc/lv_txt.c ****     }
 639:..\lvgl\lv_misc/lv_txt.c **** 
 640:..\lvgl\lv_misc/lv_txt.c ****     return char_cnt;
 641:..\lvgl\lv_misc/lv_txt.c **** }
 648              		.loc 1 641 0
ARM GAS  C:\Users\d3bug\AppData\Local\Temp\ccfzCIuT.s 			page 24


 649 0020 2046     		mov	r0, r4
 650 0022 02B0     		add	sp, sp, #8
 651              		.cfi_def_cfa_offset 16
 652              		@ sp needed
 653 0024 70BD     		pop	{r4, r5, r6, pc}
 654              	.LVL82:
 655              	.L56:
 656 0026 00BF     		.align	2
 657              	.L55:
 658 0028 00000000 		.word	.LANCHOR0
 659              		.cfi_endproc
 660              	.LFE16:
 661              		.size	lv_txt_utf8_get_char_id, .-lv_txt_utf8_get_char_id
 662              		.section	.text.lv_txt_utf8_get_length,"ax",%progbits
 663              		.align	2
 664              		.thumb
 665              		.thumb_func
 666              		.type	lv_txt_utf8_get_length, %function
 667              	lv_txt_utf8_get_length:
 668              	.LFB17:
 642:..\lvgl\lv_misc/lv_txt.c **** 
 643:..\lvgl\lv_misc/lv_txt.c **** /**
 644:..\lvgl\lv_misc/lv_txt.c ****  * Get the number of characters (and NOT bytes) in a string. Decode it with UTF-8 if enabled.
 645:..\lvgl\lv_misc/lv_txt.c ****  * E.g.: "ÁBC" is 3 characters (but 4 bytes)
 646:..\lvgl\lv_misc/lv_txt.c ****  * @param txt a '\0' terminated char string
 647:..\lvgl\lv_misc/lv_txt.c ****  * @return number of characters
 648:..\lvgl\lv_misc/lv_txt.c ****  */
 649:..\lvgl\lv_misc/lv_txt.c **** static uint32_t lv_txt_utf8_get_length(const char * txt)
 650:..\lvgl\lv_misc/lv_txt.c **** {
 669              		.loc 1 650 0
 670              		.cfi_startproc
 671              		@ args = 0, pretend = 0, frame = 8
 672              		@ frame_needed = 0, uses_anonymous_args = 0
 673              	.LVL83:
 674 0000 30B5     		push	{r4, r5, lr}
 675              		.cfi_def_cfa_offset 12
 676              		.cfi_offset 4, -12
 677              		.cfi_offset 5, -8
 678              		.cfi_offset 14, -4
 679 0002 83B0     		sub	sp, sp, #12
 680              		.cfi_def_cfa_offset 24
 681 0004 0546     		mov	r5, r0
 682              	.LVL84:
 651:..\lvgl\lv_misc/lv_txt.c **** #if LV_TXT_UTF8 == 0
 652:..\lvgl\lv_misc/lv_txt.c ****     return strlen(txt);
 653:..\lvgl\lv_misc/lv_txt.c **** #else
 654:..\lvgl\lv_misc/lv_txt.c ****     uint32_t len = 0;
 655:..\lvgl\lv_misc/lv_txt.c ****     uint32_t i = 0;
 683              		.loc 1 655 0
 684 0006 0024     		movs	r4, #0
 685 0008 0194     		str	r4, [sp, #4]
 656:..\lvgl\lv_misc/lv_txt.c **** 
 657:..\lvgl\lv_misc/lv_txt.c ****     while(txt[i] != '\0') {
 686              		.loc 1 657 0
 687 000a 05E0     		b	.L58
 688              	.LVL85:
 689              	.L59:
ARM GAS  C:\Users\d3bug\AppData\Local\Temp\ccfzCIuT.s 			page 25


 658:..\lvgl\lv_misc/lv_txt.c ****         lv_txt_encoded_next(txt, &i);
 690              		.loc 1 658 0
 691 000c 064B     		ldr	r3, .L61
 692 000e 5B68     		ldr	r3, [r3, #4]
 693 0010 01A9     		add	r1, sp, #4
 694 0012 2846     		mov	r0, r5
 695 0014 9847     		blx	r3
 696              	.LVL86:
 659:..\lvgl\lv_misc/lv_txt.c ****         len++;
 697              		.loc 1 659 0
 698 0016 0134     		adds	r4, r4, #1
 699              	.LVL87:
 700              	.L58:
 657:..\lvgl\lv_misc/lv_txt.c ****         lv_txt_encoded_next(txt, &i);
 701              		.loc 1 657 0
 702 0018 019B     		ldr	r3, [sp, #4]
 703 001a EB5C     		ldrb	r3, [r5, r3]	@ zero_extendqisi2
 704 001c 002B     		cmp	r3, #0
 705 001e F5D1     		bne	.L59
 660:..\lvgl\lv_misc/lv_txt.c ****     }
 661:..\lvgl\lv_misc/lv_txt.c **** 
 662:..\lvgl\lv_misc/lv_txt.c ****     return len;
 663:..\lvgl\lv_misc/lv_txt.c **** #endif
 664:..\lvgl\lv_misc/lv_txt.c **** }
 706              		.loc 1 664 0
 707 0020 2046     		mov	r0, r4
 708 0022 03B0     		add	sp, sp, #12
 709              		.cfi_def_cfa_offset 12
 710              		@ sp needed
 711 0024 30BD     		pop	{r4, r5, pc}
 712              	.LVL88:
 713              	.L62:
 714 0026 00BF     		.align	2
 715              	.L61:
 716 0028 00000000 		.word	.LANCHOR0
 717              		.cfi_endproc
 718              	.LFE17:
 719              		.size	lv_txt_utf8_get_length, .-lv_txt_utf8_get_length
 720              		.section	.text.is_break_char,"ax",%progbits
 721              		.align	2
 722              		.thumb
 723              		.thumb_func
 724              		.type	is_break_char, %function
 725              	is_break_char:
 726              	.LFB18:
 665:..\lvgl\lv_misc/lv_txt.c **** 
 666:..\lvgl\lv_misc/lv_txt.c **** #else
 667:..\lvgl\lv_misc/lv_txt.c **** /**
 668:..\lvgl\lv_misc/lv_txt.c ****  * Give the size of an UTF-8 coded character
 669:..\lvgl\lv_misc/lv_txt.c ****  * @param str pointer to a character in a string
 670:..\lvgl\lv_misc/lv_txt.c ****  * @return length of the UTF-8 character (1,2,3 or 4). O on invalid code
 671:..\lvgl\lv_misc/lv_txt.c ****  */
 672:..\lvgl\lv_misc/lv_txt.c **** static uint8_t lv_txt_ascii_size(const char * str)
 673:..\lvgl\lv_misc/lv_txt.c **** {
 674:..\lvgl\lv_misc/lv_txt.c ****     return 1;
 675:..\lvgl\lv_misc/lv_txt.c **** }
 676:..\lvgl\lv_misc/lv_txt.c **** 
ARM GAS  C:\Users\d3bug\AppData\Local\Temp\ccfzCIuT.s 			page 26


 677:..\lvgl\lv_misc/lv_txt.c **** 
 678:..\lvgl\lv_misc/lv_txt.c **** /**
 679:..\lvgl\lv_misc/lv_txt.c ****  * Convert an Unicode letter to UTF-8.
 680:..\lvgl\lv_misc/lv_txt.c ****  * @param letter_uni an Unicode letter
 681:..\lvgl\lv_misc/lv_txt.c ****  * @return UTF-8 coded character in Little Endian to be compatible with C chars (e.g. 'Á', 'Ű')
 682:..\lvgl\lv_misc/lv_txt.c ****  */
 683:..\lvgl\lv_misc/lv_txt.c **** static uint32_t lv_txt_unicode_to_ascii(uint32_t letter_uni)
 684:..\lvgl\lv_misc/lv_txt.c **** {
 685:..\lvgl\lv_misc/lv_txt.c ****     if(letter_uni < 128) return letter_uni;
 686:..\lvgl\lv_misc/lv_txt.c ****     else return ' ';
 687:..\lvgl\lv_misc/lv_txt.c **** }
 688:..\lvgl\lv_misc/lv_txt.c **** 
 689:..\lvgl\lv_misc/lv_txt.c **** /**
 690:..\lvgl\lv_misc/lv_txt.c ****  * Convert wide characters to ASCII, however wide characters in ASCII range (e.g. 'A') are ASCII co
 691:..\lvgl\lv_misc/lv_txt.c ****  * So this function does nothing just returns with `c`.
 692:..\lvgl\lv_misc/lv_txt.c ****  * @param c a character, e.g. 'A'
 693:..\lvgl\lv_misc/lv_txt.c ****  * @return same as `c`
 694:..\lvgl\lv_misc/lv_txt.c ****  */
 695:..\lvgl\lv_misc/lv_txt.c **** static uint32_t lv_txt_ascii_conv_wc(uint32_t c)
 696:..\lvgl\lv_misc/lv_txt.c **** {
 697:..\lvgl\lv_misc/lv_txt.c ****     return c;
 698:..\lvgl\lv_misc/lv_txt.c **** }
 699:..\lvgl\lv_misc/lv_txt.c **** 
 700:..\lvgl\lv_misc/lv_txt.c **** /**
 701:..\lvgl\lv_misc/lv_txt.c ****  * Decode an UTF-8 character from a string.
 702:..\lvgl\lv_misc/lv_txt.c ****  * @param txt pointer to '\0' terminated string
 703:..\lvgl\lv_misc/lv_txt.c ****  * @param i start byte index in 'txt' where to start.
 704:..\lvgl\lv_misc/lv_txt.c ****  *          After call it will point to the next UTF-8 char in 'txt'.
 705:..\lvgl\lv_misc/lv_txt.c ****  *          NULL to use txt[0] as index
 706:..\lvgl\lv_misc/lv_txt.c ****  * @return the decoded Unicode character or 0 on invalid UTF-8 code
 707:..\lvgl\lv_misc/lv_txt.c ****  */
 708:..\lvgl\lv_misc/lv_txt.c **** static uint32_t lv_txt_ascii_next(const char * txt, uint32_t * i)
 709:..\lvgl\lv_misc/lv_txt.c **** {
 710:..\lvgl\lv_misc/lv_txt.c ****     if(i == NULL) return txt[1];    /*Get the next char */
 711:..\lvgl\lv_misc/lv_txt.c **** 
 712:..\lvgl\lv_misc/lv_txt.c ****     uint8_t letter = txt[*i] ;
 713:..\lvgl\lv_misc/lv_txt.c ****     (*i)++;
 714:..\lvgl\lv_misc/lv_txt.c ****     return letter;
 715:..\lvgl\lv_misc/lv_txt.c **** }
 716:..\lvgl\lv_misc/lv_txt.c **** 
 717:..\lvgl\lv_misc/lv_txt.c **** /**
 718:..\lvgl\lv_misc/lv_txt.c ****  * Get previous UTF-8 character form a string.
 719:..\lvgl\lv_misc/lv_txt.c ****  * @param txt pointer to '\0' terminated string
 720:..\lvgl\lv_misc/lv_txt.c ****  * @param i start byte index in 'txt' where to start. After the call it will point to the previous 
 721:..\lvgl\lv_misc/lv_txt.c ****  * @return the decoded Unicode character or 0 on invalid UTF-8 code
 722:..\lvgl\lv_misc/lv_txt.c ****  */
 723:..\lvgl\lv_misc/lv_txt.c **** static uint32_t lv_txt_ascii_prev(const char * txt, uint32_t * i)
 724:..\lvgl\lv_misc/lv_txt.c **** {
 725:..\lvgl\lv_misc/lv_txt.c ****     if(i == NULL) return *(txt - 1);   /*Get the prev. char */
 726:..\lvgl\lv_misc/lv_txt.c **** 
 727:..\lvgl\lv_misc/lv_txt.c ****     (*i)--;
 728:..\lvgl\lv_misc/lv_txt.c ****     uint8_t letter = txt[*i] ;
 729:..\lvgl\lv_misc/lv_txt.c **** 
 730:..\lvgl\lv_misc/lv_txt.c ****     return letter;
 731:..\lvgl\lv_misc/lv_txt.c **** }
 732:..\lvgl\lv_misc/lv_txt.c **** 
 733:..\lvgl\lv_misc/lv_txt.c **** /**
ARM GAS  C:\Users\d3bug\AppData\Local\Temp\ccfzCIuT.s 			page 27


 734:..\lvgl\lv_misc/lv_txt.c ****  * Convert a character index (in an UTF-8 text) to byte index.
 735:..\lvgl\lv_misc/lv_txt.c ****  * E.g. in "AÁRT" index of 'R' is 2th char but start at byte 3 because 'Á' is 2 bytes long
 736:..\lvgl\lv_misc/lv_txt.c ****  * @param txt a '\0' terminated UTF-8 string
 737:..\lvgl\lv_misc/lv_txt.c ****  * @param utf8_id character index
 738:..\lvgl\lv_misc/lv_txt.c ****  * @return byte index of the 'utf8_id'th letter
 739:..\lvgl\lv_misc/lv_txt.c ****  */
 740:..\lvgl\lv_misc/lv_txt.c **** static uint32_t lv_txt_ascii_get_byte_id(const char * txt, uint32_t utf8_id)
 741:..\lvgl\lv_misc/lv_txt.c **** {
 742:..\lvgl\lv_misc/lv_txt.c ****     return utf8_id;     /*In Non encoded no difference*/
 743:..\lvgl\lv_misc/lv_txt.c **** }
 744:..\lvgl\lv_misc/lv_txt.c **** 
 745:..\lvgl\lv_misc/lv_txt.c **** 
 746:..\lvgl\lv_misc/lv_txt.c **** /**
 747:..\lvgl\lv_misc/lv_txt.c ****  * Convert a byte index (in an UTF-8 text) to character index.
 748:..\lvgl\lv_misc/lv_txt.c ****  * E.g. in "AÁRT" index of 'R' is 2th char but start at byte 3 because 'Á' is 2 bytes long
 749:..\lvgl\lv_misc/lv_txt.c ****  * @param txt a '\0' terminated UTF-8 string
 750:..\lvgl\lv_misc/lv_txt.c ****  * @param byte_id byte index
 751:..\lvgl\lv_misc/lv_txt.c ****  * @return character index of the letter at 'byte_id'th position
 752:..\lvgl\lv_misc/lv_txt.c ****  */
 753:..\lvgl\lv_misc/lv_txt.c **** static uint32_t lv_txt_ascii_get_char_id(const char * txt, uint32_t byte_id)
 754:..\lvgl\lv_misc/lv_txt.c **** {
 755:..\lvgl\lv_misc/lv_txt.c ****     return byte_id;     /*In Non encoded no difference*/
 756:..\lvgl\lv_misc/lv_txt.c **** }
 757:..\lvgl\lv_misc/lv_txt.c **** 
 758:..\lvgl\lv_misc/lv_txt.c **** /**
 759:..\lvgl\lv_misc/lv_txt.c ****  * Get the number of characters (and NOT bytes) in a string. Decode it with UTF-8 if enabled.
 760:..\lvgl\lv_misc/lv_txt.c ****  * E.g.: "ÁBC" is 3 characters (but 4 bytes)
 761:..\lvgl\lv_misc/lv_txt.c ****  * @param txt a '\0' terminated char string
 762:..\lvgl\lv_misc/lv_txt.c ****  * @return number of characters
 763:..\lvgl\lv_misc/lv_txt.c ****  */
 764:..\lvgl\lv_misc/lv_txt.c **** static uint32_t lv_txt_ascii_get_length(const char * txt)
 765:..\lvgl\lv_misc/lv_txt.c **** {
 766:..\lvgl\lv_misc/lv_txt.c ****     return strlen(txt);
 767:..\lvgl\lv_misc/lv_txt.c **** }
 768:..\lvgl\lv_misc/lv_txt.c **** #endif
 769:..\lvgl\lv_misc/lv_txt.c **** /**********************
 770:..\lvgl\lv_misc/lv_txt.c ****  *   STATIC FUNCTIONS
 771:..\lvgl\lv_misc/lv_txt.c ****  **********************/
 772:..\lvgl\lv_misc/lv_txt.c **** 
 773:..\lvgl\lv_misc/lv_txt.c **** /**
 774:..\lvgl\lv_misc/lv_txt.c ****  * Test if char is break char or not (a text can broken here or not)
 775:..\lvgl\lv_misc/lv_txt.c ****  * @param letter a letter
 776:..\lvgl\lv_misc/lv_txt.c ****  * @return false: 'letter' is not break char
 777:..\lvgl\lv_misc/lv_txt.c ****  */
 778:..\lvgl\lv_misc/lv_txt.c **** static bool is_break_char(uint32_t letter)
 779:..\lvgl\lv_misc/lv_txt.c **** {
 727              		.loc 1 779 0
 728              		.cfi_startproc
 729              		@ args = 0, pretend = 0, frame = 0
 730              		@ frame_needed = 0, uses_anonymous_args = 0
 731              		@ link register save eliminated.
 732              	.LVL89:
 780:..\lvgl\lv_misc/lv_txt.c ****     uint8_t i;
 781:..\lvgl\lv_misc/lv_txt.c ****     bool ret = false;
 782:..\lvgl\lv_misc/lv_txt.c **** 
 783:..\lvgl\lv_misc/lv_txt.c ****     /*Compare the letter to TXT_BREAK_CHARS*/
 784:..\lvgl\lv_misc/lv_txt.c ****     for(i = 0; LV_TXT_BREAK_CHARS[i] != '\0'; i++) {
ARM GAS  C:\Users\d3bug\AppData\Local\Temp\ccfzCIuT.s 			page 28


 733              		.loc 1 784 0
 734 0000 0023     		movs	r3, #0
 735 0002 03E0     		b	.L64
 736              	.LVL90:
 737              	.L66:
 785:..\lvgl\lv_misc/lv_txt.c ****         if(letter == (uint32_t)LV_TXT_BREAK_CHARS[i]) {
 738              		.loc 1 785 0
 739 0004 8242     		cmp	r2, r0
 740 0006 07D0     		beq	.L67
 784:..\lvgl\lv_misc/lv_txt.c ****         if(letter == (uint32_t)LV_TXT_BREAK_CHARS[i]) {
 741              		.loc 1 784 0 discriminator 2
 742 0008 0133     		adds	r3, r3, #1
 743              	.LVL91:
 744 000a DBB2     		uxtb	r3, r3
 745              	.LVL92:
 746              	.L64:
 784:..\lvgl\lv_misc/lv_txt.c ****         if(letter == (uint32_t)LV_TXT_BREAK_CHARS[i]) {
 747              		.loc 1 784 0 is_stmt 0 discriminator 1
 748 000c 034A     		ldr	r2, .L68
 749 000e D25C     		ldrb	r2, [r2, r3]	@ zero_extendqisi2
 750 0010 002A     		cmp	r2, #0
 751 0012 F7D1     		bne	.L66
 781:..\lvgl\lv_misc/lv_txt.c **** 
 752              		.loc 1 781 0 is_stmt 1
 753 0014 0020     		movs	r0, #0
 754              	.LVL93:
 755 0016 7047     		bx	lr
 756              	.LVL94:
 757              	.L67:
 786:..\lvgl\lv_misc/lv_txt.c ****             ret = true; /*If match then it is break char*/
 758              		.loc 1 786 0
 759 0018 0120     		movs	r0, #1
 760              	.LVL95:
 787:..\lvgl\lv_misc/lv_txt.c ****             break;
 788:..\lvgl\lv_misc/lv_txt.c ****         }
 789:..\lvgl\lv_misc/lv_txt.c ****     }
 790:..\lvgl\lv_misc/lv_txt.c **** 
 791:..\lvgl\lv_misc/lv_txt.c ****     return ret;
 792:..\lvgl\lv_misc/lv_txt.c **** }
 761              		.loc 1 792 0
 762 001a 7047     		bx	lr
 763              	.L69:
 764              		.align	2
 765              	.L68:
 766 001c 00000000 		.word	.LC0
 767              		.cfi_endproc
 768              	.LFE18:
 769              		.size	is_break_char, .-is_break_char
 770              		.section	.text.lv_txt_is_cmd,"ax",%progbits
 771              		.align	2
 772              		.global	lv_txt_is_cmd
 773              		.thumb
 774              		.thumb_func
 775              		.type	lv_txt_is_cmd, %function
 776              	lv_txt_is_cmd:
 777              	.LFB7:
 349:..\lvgl\lv_misc/lv_txt.c ****     bool ret = false;
ARM GAS  C:\Users\d3bug\AppData\Local\Temp\ccfzCIuT.s 			page 29


 778              		.loc 1 349 0
 779              		.cfi_startproc
 780              		@ args = 0, pretend = 0, frame = 0
 781              		@ frame_needed = 0, uses_anonymous_args = 0
 782              		@ link register save eliminated.
 783              	.LVL96:
 784 0000 0246     		mov	r2, r0
 785              	.LVL97:
 352:..\lvgl\lv_misc/lv_txt.c ****         if(*state == LV_TXT_CMD_STATE_WAIT) { /*Start char*/
 786              		.loc 1 352 0
 787 0002 2329     		cmp	r1, #35
 788 0004 11D1     		bne	.L75
 353:..\lvgl\lv_misc/lv_txt.c ****             *state = LV_TXT_CMD_STATE_PAR;
 789              		.loc 1 353 0
 790 0006 0378     		ldrb	r3, [r0]	@ zero_extendqisi2
 791 0008 1BB9     		cbnz	r3, .L72
 354:..\lvgl\lv_misc/lv_txt.c ****             ret = true;
 792              		.loc 1 354 0
 793 000a 0123     		movs	r3, #1
 794 000c 0370     		strb	r3, [r0]
 795              	.LVL98:
 355:..\lvgl\lv_misc/lv_txt.c ****         } else if(*state == LV_TXT_CMD_STATE_PAR) { /*Other start char in parameter is escaped cmd.
 796              		.loc 1 355 0
 797 000e 1846     		mov	r0, r3
 798              	.LVL99:
 799 0010 0EE0     		b	.L71
 800              	.LVL100:
 801              	.L72:
 356:..\lvgl\lv_misc/lv_txt.c ****             *state = LV_TXT_CMD_STATE_WAIT;
 802              		.loc 1 356 0
 803 0012 012B     		cmp	r3, #1
 804 0014 03D1     		bne	.L73
 357:..\lvgl\lv_misc/lv_txt.c ****         } else if(*state == LV_TXT_CMD_STATE_IN) { /*Command end */
 805              		.loc 1 357 0
 806 0016 0023     		movs	r3, #0
 807 0018 0370     		strb	r3, [r0]
 350:..\lvgl\lv_misc/lv_txt.c **** 
 808              		.loc 1 350 0
 809 001a 1846     		mov	r0, r3
 810              	.LVL101:
 811 001c 08E0     		b	.L71
 812              	.LVL102:
 813              	.L73:
 358:..\lvgl\lv_misc/lv_txt.c ****             *state = LV_TXT_CMD_STATE_WAIT;
 814              		.loc 1 358 0
 815 001e 022B     		cmp	r3, #2
 816 0020 05D1     		bne	.L76
 359:..\lvgl\lv_misc/lv_txt.c ****             ret = true;
 817              		.loc 1 359 0
 818 0022 0023     		movs	r3, #0
 819 0024 0370     		strb	r3, [r0]
 820              	.LVL103:
 360:..\lvgl\lv_misc/lv_txt.c ****         }
 821              		.loc 1 360 0
 822 0026 0120     		movs	r0, #1
 823              	.LVL104:
 824 0028 02E0     		b	.L71
ARM GAS  C:\Users\d3bug\AppData\Local\Temp\ccfzCIuT.s 			page 30


 825              	.LVL105:
 826              	.L75:
 350:..\lvgl\lv_misc/lv_txt.c **** 
 827              		.loc 1 350 0
 828 002a 0020     		movs	r0, #0
 829              	.LVL106:
 830 002c 00E0     		b	.L71
 831              	.LVL107:
 832              	.L76:
 833 002e 0020     		movs	r0, #0
 834              	.LVL108:
 835              	.L71:
 365:..\lvgl\lv_misc/lv_txt.c ****         if(c == ' ') {
 836              		.loc 1 365 0
 837 0030 1378     		ldrb	r3, [r2]	@ zero_extendqisi2
 838 0032 012B     		cmp	r3, #1
 839 0034 06D1     		bne	.L74
 366:..\lvgl\lv_misc/lv_txt.c ****             *state = LV_TXT_CMD_STATE_IN; /*After the parameter the text is in the command*/
 840              		.loc 1 366 0
 841 0036 2029     		cmp	r1, #32
 842 0038 03D1     		bne	.L77
 367:..\lvgl\lv_misc/lv_txt.c ****         }
 843              		.loc 1 367 0
 844 003a 0223     		movs	r3, #2
 845 003c 1370     		strb	r3, [r2]
 369:..\lvgl\lv_misc/lv_txt.c ****     }
 846              		.loc 1 369 0
 847 003e 0120     		movs	r0, #1
 848              	.LVL109:
 849 0040 7047     		bx	lr
 850              	.LVL110:
 851              	.L77:
 852 0042 0120     		movs	r0, #1
 853              	.LVL111:
 854              	.L74:
 373:..\lvgl\lv_misc/lv_txt.c **** 
 855              		.loc 1 373 0
 856 0044 7047     		bx	lr
 857              		.cfi_endproc
 858              	.LFE7:
 859              		.size	lv_txt_is_cmd, .-lv_txt_is_cmd
 860 0046 00BF     		.section	.text.lv_txt_get_next_line,"ax",%progbits
 861              		.align	2
 862              		.global	lv_txt_get_next_line
 863              		.thumb
 864              		.thumb_func
 865              		.type	lv_txt_get_next_line, %function
 866              	lv_txt_get_next_line:
 867              	.LFB5:
 155:..\lvgl\lv_misc/lv_txt.c ****     if(txt == NULL) return 0;
 868              		.loc 1 155 0
 869              		.cfi_startproc
 870              		@ args = 4, pretend = 0, frame = 40
 871              		@ frame_needed = 0, uses_anonymous_args = 0
 872              	.LVL112:
 873 0000 2DE9F04F 		push	{r4, r5, r6, r7, r8, r9, r10, fp, lr}
 874              		.cfi_def_cfa_offset 36
ARM GAS  C:\Users\d3bug\AppData\Local\Temp\ccfzCIuT.s 			page 31


 875              		.cfi_offset 4, -36
 876              		.cfi_offset 5, -32
 877              		.cfi_offset 6, -28
 878              		.cfi_offset 7, -24
 879              		.cfi_offset 8, -20
 880              		.cfi_offset 9, -16
 881              		.cfi_offset 10, -12
 882              		.cfi_offset 11, -8
 883              		.cfi_offset 14, -4
 884 0004 8BB0     		sub	sp, sp, #44
 885              		.cfi_def_cfa_offset 80
 886 0006 0291     		str	r1, [sp, #8]
 887 0008 0392     		str	r2, [sp, #12]
 888 000a 0193     		str	r3, [sp, #4]
 889 000c 9DF85080 		ldrb	r8, [sp, #80]	@ zero_extendqisi2
 156:..\lvgl\lv_misc/lv_txt.c ****     if(font == NULL) return 0;
 890              		.loc 1 156 0
 891 0010 0028     		cmp	r0, #0
 892 0012 00F0FA80 		beq	.L109
 893 0016 0746     		mov	r7, r0
 157:..\lvgl\lv_misc/lv_txt.c **** 
 894              		.loc 1 157 0
 895 0018 0029     		cmp	r1, #0
 896 001a 00F0F880 		beq	.L110
 159:..\lvgl\lv_misc/lv_txt.c **** 
 897              		.loc 1 159 0
 898 001e 18F0020F 		tst	r8, #2
 899 0022 02D0     		beq	.L80
 900 0024 43F6FF73 		movw	r3, #16383
 901              	.LVL113:
 902 0028 0193     		str	r3, [sp, #4]
 903              	.L80:
 904              	.LVL114:
 161:..\lvgl\lv_misc/lv_txt.c ****     lv_coord_t cur_w = 0;
 905              		.loc 1 161 0
 906 002a 0024     		movs	r4, #0
 907 002c 0994     		str	r4, [sp, #36]
 908              	.LVL115:
 166:..\lvgl\lv_misc/lv_txt.c ****     uint32_t letter = 0;
 909              		.loc 1 166 0
 910 002e 8DF82340 		strb	r4, [sp, #35]
 911              	.LVL116:
 165:..\lvgl\lv_misc/lv_txt.c ****     lv_txt_cmd_state_t cmd_state = LV_TXT_CMD_STATE_WAIT;
 912              		.loc 1 165 0
 913 0032 4FF0FF33 		mov	r3, #-1
 914 0036 0493     		str	r3, [sp, #16]
 164:..\lvgl\lv_misc/lv_txt.c ****     uint32_t last_break = NO_BREAK_FOUND;
 915              		.loc 1 164 0
 916 0038 A246     		mov	r10, r4
 163:..\lvgl\lv_misc/lv_txt.c ****     uint32_t n_char_since_last_break = 0; /* Used count word length of long words */
 917              		.loc 1 163 0
 918 003a 0594     		str	r4, [sp, #20]
 169:..\lvgl\lv_misc/lv_txt.c ****         lv_coord_t letter_width;
 919              		.loc 1 169 0
 920 003c DEE0     		b	.L81
 921              	.LVL117:
 922              	.L108:
ARM GAS  C:\Users\d3bug\AppData\Local\Temp\ccfzCIuT.s 			page 32


 923              	.LBB5:
 171:..\lvgl\lv_misc/lv_txt.c **** 
 924              		.loc 1 171 0
 925 003e 764B     		ldr	r3, .L115
 926 0040 5B68     		ldr	r3, [r3, #4]
 927 0042 09A9     		add	r1, sp, #36
 928 0044 3846     		mov	r0, r7
 929 0046 9847     		blx	r3
 930              	.LVL118:
 931 0048 0646     		mov	r6, r0
 932              	.LVL119:
 174:..\lvgl\lv_misc/lv_txt.c ****             if(lv_txt_is_cmd(&cmd_state, letter) != false) {
 933              		.loc 1 174 0
 934 004a 18F0010B 		ands	fp, r8, #1
 935 004e 07D0     		beq	.L82
 175:..\lvgl\lv_misc/lv_txt.c ****                 continue;   /*Skip the letter is it is part of a command*/
 936              		.loc 1 175 0
 937 0050 0146     		mov	r1, r0
 938 0052 0DF12300 		add	r0, sp, #35
 939              	.LVL120:
 940 0056 FFF7FEFF 		bl	lv_txt_is_cmd
 941              	.LVL121:
 942 005a 0028     		cmp	r0, #0
 943 005c 40F0CE80 		bne	.L81
 944              	.L82:
 182:..\lvgl\lv_misc/lv_txt.c ****             uint32_t i_tmp = i;
 945              		.loc 1 182 0
 946 0060 0A2E     		cmp	r6, #10
 947 0062 01D0     		beq	.L84
 182:..\lvgl\lv_misc/lv_txt.c ****             uint32_t i_tmp = i;
 948              		.loc 1 182 0 is_stmt 0 discriminator 1
 949 0064 0D2E     		cmp	r6, #13
 950 0066 10D1     		bne	.L85
 951              	.L84:
 952              	.LBB6:
 183:..\lvgl\lv_misc/lv_txt.c ****             uint32_t letter_next = lv_txt_encoded_next(txt, &i_tmp);
 953              		.loc 1 183 0 is_stmt 1
 954 0068 0AA9     		add	r1, sp, #40
 955 006a 099B     		ldr	r3, [sp, #36]
 956 006c 41F80C3D 		str	r3, [r1, #-12]!
 184:..\lvgl\lv_misc/lv_txt.c ****             if(letter == '\r' &&  letter_next == '\n') i = i_tmp;
 957              		.loc 1 184 0
 958 0070 694B     		ldr	r3, .L115
 959 0072 5B68     		ldr	r3, [r3, #4]
 960 0074 3846     		mov	r0, r7
 961 0076 9847     		blx	r3
 962              	.LVL122:
 185:..\lvgl\lv_misc/lv_txt.c **** 
 963              		.loc 1 185 0
 964 0078 0D2E     		cmp	r6, #13
 965 007a 03D1     		bne	.L86
 185:..\lvgl\lv_misc/lv_txt.c **** 
 966              		.loc 1 185 0 is_stmt 0 discriminator 1
 967 007c 0A28     		cmp	r0, #10
 968 007e 01D1     		bne	.L86
 185:..\lvgl\lv_misc/lv_txt.c **** 
 969              		.loc 1 185 0 discriminator 2
ARM GAS  C:\Users\d3bug\AppData\Local\Temp\ccfzCIuT.s 			page 33


 970 0080 079B     		ldr	r3, [sp, #28]
 971 0082 0993     		str	r3, [sp, #36]
 972              	.L86:
 187:..\lvgl\lv_misc/lv_txt.c **** 
 973              		.loc 1 187 0 is_stmt 1
 974 0084 BDF82400 		ldrh	r0, [sp, #36]
 975              	.LVL123:
 976 0088 C2E0     		b	.L79
 977              	.L85:
 978              	.LBE6:
 190:..\lvgl\lv_misc/lv_txt.c ****             letter_width = lv_font_get_width(font, letter);
 979              		.loc 1 190 0
 980 008a 0AF10103 		add	r3, r10, #1
 981 008e 0093     		str	r3, [sp]
 982              	.LVL124:
 191:..\lvgl\lv_misc/lv_txt.c ****             cur_w += letter_width; 
 983              		.loc 1 191 0
 984 0090 3146     		mov	r1, r6
 985 0092 0298     		ldr	r0, [sp, #8]
 986 0094 FFF7FEFF 		bl	lv_font_get_width
 987              	.LVL125:
 988 0098 0FFA80F9 		sxth	r9, r0
 989              	.LVL126:
 192:..\lvgl\lv_misc/lv_txt.c **** 
 990              		.loc 1 192 0
 991 009c 2518     		adds	r5, r4, r0
 992 009e ADB2     		uxth	r5, r5
 993 00a0 2CB2     		sxth	r4, r5
 994              	.LVL127:
 196:..\lvgl\lv_misc/lv_txt.c ****                 if( last_break != NO_BREAK_FOUND ) {
 995              		.loc 1 196 0
 996 00a2 019B     		ldr	r3, [sp, #4]
 997 00a4 A342     		cmp	r3, r4
 998 00a6 80F28D80 		bge	.L87
 197:..\lvgl\lv_misc/lv_txt.c ****                     /* Continue searching for next breakable character to see if the next word will
 999              		.loc 1 197 0
 1000 00aa 049A     		ldr	r2, [sp, #16]
 1001 00ac B2F1FF3F 		cmp	r2, #-1
 1002 00b0 79D0     		beq	.L88
 1003              	.LVL128:
 1004              	.LBB7:
 200:..\lvgl\lv_misc/lv_txt.c ****                         i = last_break;
 1005              		.loc 1 200 0
 1006 00b2 009B     		ldr	r3, [sp]
 1007 00b4 032B     		cmp	r3, #3
 1008 00b6 01D8     		bhi	.L89
 201:..\lvgl\lv_misc/lv_txt.c ****                     }
 1009              		.loc 1 201 0
 1010 00b8 0992     		str	r2, [sp, #36]
 1011 00ba 79E0     		b	.L90
 1012              	.L89:
 1013              	.LBB8:
 204:..\lvgl\lv_misc/lv_txt.c ****                         cur_w -= w_at_last_break + letter_space; /*ignore the first letter_space af
 1014              		.loc 1 204 0
 1015 00bc 099B     		ldr	r3, [sp, #36]
 1016 00be 0793     		str	r3, [sp, #28]
 205:..\lvgl\lv_misc/lv_txt.c ****                         bool other = true;
ARM GAS  C:\Users\d3bug\AppData\Local\Temp\ccfzCIuT.s 			page 34


 1017              		.loc 1 205 0
 1018 00c0 BDF80C60 		ldrh	r6, [sp, #12]
 1019              	.LVL129:
 1020 00c4 059B     		ldr	r3, [sp, #20]
 1021 00c6 3344     		add	r3, r3, r6
 1022 00c8 EC1A     		subs	r4, r5, r3
 1023              	.LVL130:
 1024 00ca 24B2     		sxth	r4, r4
 1025              	.LVL131:
 1026 00cc 009D     		ldr	r5, [sp]
 207:..\lvgl\lv_misc/lv_txt.c ****                             letter = lv_txt_encoded_next(txt, &i_tmp);
 1027              		.loc 1 207 0
 1028 00ce 4BE0     		b	.L91
 1029              	.LVL132:
 1030              	.L101:
 1031              	.LBB9:
 208:..\lvgl\lv_misc/lv_txt.c **** 
 1032              		.loc 1 208 0
 1033 00d0 514B     		ldr	r3, .L115
 1034 00d2 5B68     		ldr	r3, [r3, #4]
 1035 00d4 07A9     		add	r1, sp, #28
 1036 00d6 3846     		mov	r0, r7
 1037 00d8 9847     		blx	r3
 1038              	.LVL133:
 1039 00da 8046     		mov	r8, r0
 1040              	.LVL134:
 211:..\lvgl\lv_misc/lv_txt.c ****                                 if(lv_txt_is_cmd(&cmd_state, letter) != false) {
 1041              		.loc 1 211 0
 1042 00dc BBF1000F 		cmp	fp, #0
 1043 00e0 06D0     		beq	.L92
 212:..\lvgl\lv_misc/lv_txt.c ****                                     continue;   /*Skip the letter is it is part of a command*/
 1044              		.loc 1 212 0
 1045 00e2 0146     		mov	r1, r0
 1046 00e4 0DF12300 		add	r0, sp, #35
 1047              	.LVL135:
 1048 00e8 FFF7FEFF 		bl	lv_txt_is_cmd
 1049              	.LVL136:
 1050 00ec 0028     		cmp	r0, #0
 1051 00ee 3BD1     		bne	.L91
 1052              	.L92:
 218:..\lvgl\lv_misc/lv_txt.c ****                                 if(n_char_since_last_break >= LV_TXT_LINE_BREAK_LONG_LEN) {
 1053              		.loc 1 218 0
 1054 00f0 B8F10A0F 		cmp	r8, #10
 1055 00f4 06D0     		beq	.L94
 218:..\lvgl\lv_misc/lv_txt.c ****                                 if(n_char_since_last_break >= LV_TXT_LINE_BREAK_LONG_LEN) {
 1056              		.loc 1 218 0 is_stmt 0 discriminator 1
 1057 00f6 B8F10D0F 		cmp	r8, #13
 1058 00fa 03D0     		beq	.L94
 218:..\lvgl\lv_misc/lv_txt.c ****                                 if(n_char_since_last_break >= LV_TXT_LINE_BREAK_LONG_LEN) {
 1059              		.loc 1 218 0 discriminator 2
 1060 00fc 4046     		mov	r0, r8
 1061 00fe FFF7FEFF 		bl	is_break_char
 1062              	.LVL137:
 1063 0102 C8B1     		cbz	r0, .L95
 1064              	.L94:
 1065 0104 0095     		str	r5, [sp]
 219:..\lvgl\lv_misc/lv_txt.c ****                                     /* Figure out the prettiest place to break */
ARM GAS  C:\Users\d3bug\AppData\Local\Temp\ccfzCIuT.s 			page 35


 1066              		.loc 1 219 0 is_stmt 1
 1067 0106 0B2D     		cmp	r5, #11
 1068 0108 12D9     		bls	.L96
 1069              	.LBB10:
 222:..\lvgl\lv_misc/lv_txt.c ****                                     for(char_remain=n_char_since_last_break - n_char_fit;
 1070              		.loc 1 222 0
 1071 010a 434B     		ldr	r3, .L115
 1072 010c 9B68     		ldr	r3, [r3, #8]
 1073 010e 09A9     		add	r1, sp, #36
 1074 0110 3846     		mov	r0, r7
 1075 0112 9847     		blx	r3
 1076              	.LVL138:
 223:..\lvgl\lv_misc/lv_txt.c ****                                             char_remain < LV_TXT_LINE_BREAK_LONG_POST_MIN_LEN;
 1077              		.loc 1 223 0
 1078 0114 009B     		ldr	r3, [sp]
 1079 0116 CAEB0304 		rsb	r4, r10, r3
 1080              	.LVL139:
 1081 011a 05E0     		b	.L97
 1082              	.L98:
 226:..\lvgl\lv_misc/lv_txt.c ****                                     }
 1083              		.loc 1 226 0
 1084 011c 3E4B     		ldr	r3, .L115
 1085 011e 9B68     		ldr	r3, [r3, #8]
 1086 0120 09A9     		add	r1, sp, #36
 1087 0122 3846     		mov	r0, r7
 1088 0124 9847     		blx	r3
 1089              	.LVL140:
 225:..\lvgl\lv_misc/lv_txt.c ****                                         lv_txt_encoded_prev(txt, &i);
 1090              		.loc 1 225 0
 1091 0126 0134     		adds	r4, r4, #1
 1092              	.LVL141:
 1093              	.L97:
 223:..\lvgl\lv_misc/lv_txt.c ****                                             char_remain < LV_TXT_LINE_BREAK_LONG_POST_MIN_LEN;
 1094              		.loc 1 223 0 discriminator 1
 1095 0128 002C     		cmp	r4, #0
 1096 012a F7D0     		beq	.L98
 1097              	.LBE10:
 232:..\lvgl\lv_misc/lv_txt.c ****                                 break;
 1098              		.loc 1 232 0
 1099 012c 0023     		movs	r3, #0
 1100 012e 21E0     		b	.L99
 1101              	.LVL142:
 1102              	.L96:
 230:..\lvgl\lv_misc/lv_txt.c ****                                 }
 1103              		.loc 1 230 0
 1104 0130 049B     		ldr	r3, [sp, #16]
 1105 0132 0993     		str	r3, [sp, #36]
 232:..\lvgl\lv_misc/lv_txt.c ****                                 break;
 1106              		.loc 1 232 0
 1107 0134 0023     		movs	r3, #0
 1108 0136 1DE0     		b	.L99
 1109              	.L95:
 235:..\lvgl\lv_misc/lv_txt.c ****                             lv_coord_t letter_width2 = lv_font_get_width(font, letter);
 1110              		.loc 1 235 0
 1111 0138 0135     		adds	r5, r5, #1
 1112              	.LVL143:
 236:..\lvgl\lv_misc/lv_txt.c ****                             cur_w += letter_width2;
ARM GAS  C:\Users\d3bug\AppData\Local\Temp\ccfzCIuT.s 			page 36


 1113              		.loc 1 236 0
 1114 013a 4146     		mov	r1, r8
 1115 013c 0298     		ldr	r0, [sp, #8]
 1116 013e FFF7FEFF 		bl	lv_font_get_width
 1117              	.LVL144:
 1118 0142 03B2     		sxth	r3, r0
 1119              	.LVL145:
 237:..\lvgl\lv_misc/lv_txt.c ****                             if(cur_w > max_width) {
 1120              		.loc 1 237 0
 1121 0144 2044     		add	r0, r0, r4
 1122 0146 80B2     		uxth	r0, r0
 1123 0148 04B2     		sxth	r4, r0
 1124              	.LVL146:
 238:..\lvgl\lv_misc/lv_txt.c ****                                 /* Current letter already exceeds, return previous */
 1125              		.loc 1 238 0
 1126 014a 019A     		ldr	r2, [sp, #4]
 1127 014c A242     		cmp	r2, r4
 1128 014e 07DA     		bge	.L100
 1129 0150 0095     		str	r5, [sp]
 240:..\lvgl\lv_misc/lv_txt.c ****                                 other = false;
 1130              		.loc 1 240 0
 1131 0152 314B     		ldr	r3, .L115
 1132              	.LVL147:
 1133 0154 9B68     		ldr	r3, [r3, #8]
 1134 0156 09A9     		add	r1, sp, #36
 1135 0158 3846     		mov	r0, r7
 1136 015a 9847     		blx	r3
 1137              	.LVL148:
 241:..\lvgl\lv_misc/lv_txt.c ****                                 break;
 1138              		.loc 1 241 0
 1139 015c 0023     		movs	r3, #0
 242:..\lvgl\lv_misc/lv_txt.c ****                             }
 1140              		.loc 1 242 0
 1141 015e 09E0     		b	.L99
 1142              	.LVL149:
 1143              	.L100:
 244:..\lvgl\lv_misc/lv_txt.c ****                                 cur_w += letter_space;
 1144              		.loc 1 244 0
 1145 0160 002B     		cmp	r3, #0
 1146 0162 01DD     		ble	.L91
 245:..\lvgl\lv_misc/lv_txt.c ****                             }
 1147              		.loc 1 245 0
 1148 0164 3044     		add	r0, r0, r6
 1149 0166 04B2     		sxth	r4, r0
 1150              	.LVL150:
 1151              	.L91:
 1152              	.LBE9:
 207:..\lvgl\lv_misc/lv_txt.c ****                             letter = lv_txt_encoded_next(txt, &i_tmp);
 1153              		.loc 1 207 0
 1154 0168 079B     		ldr	r3, [sp, #28]
 1155 016a FB5C     		ldrb	r3, [r7, r3]	@ zero_extendqisi2
 1156 016c 002B     		cmp	r3, #0
 1157 016e AFD1     		bne	.L101
 1158 0170 0095     		str	r5, [sp]
 206:..\lvgl\lv_misc/lv_txt.c ****                         while(txt[i_tmp] != '\0') {
 1159              		.loc 1 206 0
 1160 0172 0123     		movs	r3, #1
ARM GAS  C:\Users\d3bug\AppData\Local\Temp\ccfzCIuT.s 			page 37


 1161              	.LVL151:
 1162              	.L99:
 248:..\lvgl\lv_misc/lv_txt.c ****                             if(n_char_since_last_break >= LV_TXT_LINE_BREAK_LONG_LEN) {
 1163              		.loc 1 248 0
 1164 0174 E3B1     		cbz	r3, .L90
 249:..\lvgl\lv_misc/lv_txt.c ****                                 /* Figure out the prettiest place to break */
 1165              		.loc 1 249 0
 1166 0176 009B     		ldr	r3, [sp]
 1167              	.LVL152:
 1168 0178 0B2B     		cmp	r3, #11
 1169 017a 11D9     		bls	.L103
 1170              	.LBB11:
 252:..\lvgl\lv_misc/lv_txt.c ****                                 for(char_remain=n_char_since_last_break - n_char_fit;
 1171              		.loc 1 252 0
 1172 017c 264B     		ldr	r3, .L115
 1173 017e 9B68     		ldr	r3, [r3, #8]
 1174 0180 09A9     		add	r1, sp, #36
 1175 0182 3846     		mov	r0, r7
 1176 0184 9847     		blx	r3
 1177              	.LVL153:
 253:..\lvgl\lv_misc/lv_txt.c ****                                         char_remain < LV_TXT_LINE_BREAK_LONG_POST_MIN_LEN;
 1178              		.loc 1 253 0
 1179 0186 009B     		ldr	r3, [sp]
 1180 0188 CAEB0304 		rsb	r4, r10, r3
 1181              	.LVL154:
 1182 018c 05E0     		b	.L104
 1183              	.L105:
 256:..\lvgl\lv_misc/lv_txt.c ****                                 }
 1184              		.loc 1 256 0
 1185 018e 224B     		ldr	r3, .L115
 1186 0190 9B68     		ldr	r3, [r3, #8]
 1187 0192 09A9     		add	r1, sp, #36
 1188 0194 3846     		mov	r0, r7
 1189 0196 9847     		blx	r3
 1190              	.LVL155:
 255:..\lvgl\lv_misc/lv_txt.c ****                                     lv_txt_encoded_prev(txt, &i);
 1191              		.loc 1 255 0
 1192 0198 0134     		adds	r4, r4, #1
 1193              	.LVL156:
 1194              	.L104:
 253:..\lvgl\lv_misc/lv_txt.c ****                                         char_remain < LV_TXT_LINE_BREAK_LONG_POST_MIN_LEN;
 1195              		.loc 1 253 0 discriminator 1
 1196 019a 002C     		cmp	r4, #0
 1197 019c F7D0     		beq	.L105
 1198 019e 07E0     		b	.L90
 1199              	.LVL157:
 1200              	.L103:
 1201              	.LBE11:
 260:..\lvgl\lv_misc/lv_txt.c ****                             }
 1202              		.loc 1 260 0
 1203 01a0 049B     		ldr	r3, [sp, #16]
 1204              	.LVL158:
 1205 01a2 0993     		str	r3, [sp, #36]
 1206 01a4 04E0     		b	.L90
 1207              	.LVL159:
 1208              	.L88:
 1209              	.LBE8:
ARM GAS  C:\Users\d3bug\AppData\Local\Temp\ccfzCIuT.s 			page 38


 1210              	.LBE7:
 267:..\lvgl\lv_misc/lv_txt.c ****                 }
 1211              		.loc 1 267 0
 1212 01a6 1C4B     		ldr	r3, .L115
 1213 01a8 9B68     		ldr	r3, [r3, #8]
 1214 01aa 09A9     		add	r1, sp, #36
 1215 01ac 3846     		mov	r0, r7
 1216 01ae 9847     		blx	r3
 1217              	.LVL160:
 1218              	.L90:
 272:..\lvgl\lv_misc/lv_txt.c **** 
 1219              		.loc 1 272 0
 1220 01b0 099B     		ldr	r3, [sp, #36]
 1221 01b2 23B9     		cbnz	r3, .L106
 272:..\lvgl\lv_misc/lv_txt.c **** 
 1222              		.loc 1 272 0 is_stmt 0 discriminator 1
 1223 01b4 184B     		ldr	r3, .L115
 1224 01b6 5B68     		ldr	r3, [r3, #4]
 1225 01b8 09A9     		add	r1, sp, #36
 1226 01ba 3846     		mov	r0, r7
 1227 01bc 9847     		blx	r3
 1228              	.LVL161:
 1229              	.L106:
 274:..\lvgl\lv_misc/lv_txt.c ****             }
 1230              		.loc 1 274 0 is_stmt 1
 1231 01be BDF82400 		ldrh	r0, [sp, #36]
 1232 01c2 25E0     		b	.L79
 1233              	.LVL162:
 1234              	.L87:
 278:..\lvgl\lv_misc/lv_txt.c ****                 last_break = i; /*Save the first char index  after break*/
 1235              		.loc 1 278 0
 1236 01c4 3046     		mov	r0, r6
 1237 01c6 FFF7FEFF 		bl	is_break_char
 1238              	.LVL163:
 1239 01ca 58B1     		cbz	r0, .L112
 279:..\lvgl\lv_misc/lv_txt.c ****                 w_at_last_break = cur_w;
 1240              		.loc 1 279 0
 1241 01cc 099B     		ldr	r3, [sp, #36]
 1242 01ce 0493     		str	r3, [sp, #16]
 1243              	.LVL164:
 281:..\lvgl\lv_misc/lv_txt.c ****                     w_at_last_break += letter_space;
 1244              		.loc 1 281 0
 1245 01d0 B9F1000F 		cmp	r9, #0
 1246 01d4 09DD     		ble	.L113
 282:..\lvgl\lv_misc/lv_txt.c ****                 }
 1247              		.loc 1 282 0
 1248 01d6 039B     		ldr	r3, [sp, #12]
 1249              	.LVL165:
 1250 01d8 EB18     		adds	r3, r5, r3
 1251 01da 1BB2     		sxth	r3, r3
 1252 01dc 0593     		str	r3, [sp, #20]
 1253              	.LVL166:
 284:..\lvgl\lv_misc/lv_txt.c ****             }
 1254              		.loc 1 284 0
 1255 01de 4FF0000A 		mov	r10, #0
 1256 01e2 05E0     		b	.L107
 1257              	.LVL167:
ARM GAS  C:\Users\d3bug\AppData\Local\Temp\ccfzCIuT.s 			page 39


 1258              	.L112:
 190:..\lvgl\lv_misc/lv_txt.c ****             letter_width = lv_font_get_width(font, letter);
 1259              		.loc 1 190 0
 1260 01e4 DDF800A0 		ldr	r10, [sp]
 1261 01e8 02E0     		b	.L107
 1262              	.LVL168:
 1263              	.L113:
 280:..\lvgl\lv_misc/lv_txt.c ****                 if(letter_width > 0) {
 1264              		.loc 1 280 0
 1265 01ea 0594     		str	r4, [sp, #20]
 284:..\lvgl\lv_misc/lv_txt.c ****             }
 1266              		.loc 1 284 0
 1267 01ec 4FF0000A 		mov	r10, #0
 1268              	.LVL169:
 1269              	.L107:
 288:..\lvgl\lv_misc/lv_txt.c ****             cur_w += letter_space;
 1270              		.loc 1 288 0
 1271 01f0 B9F1000F 		cmp	r9, #0
 1272 01f4 02DD     		ble	.L81
 289:..\lvgl\lv_misc/lv_txt.c ****         }
 1273              		.loc 1 289 0
 1274 01f6 039B     		ldr	r3, [sp, #12]
 1275 01f8 1D44     		add	r5, r5, r3
 1276 01fa 2CB2     		sxth	r4, r5
 1277              	.LVL170:
 1278              	.L81:
 1279              	.LBE5:
 169:..\lvgl\lv_misc/lv_txt.c ****         lv_coord_t letter_width;
 1280              		.loc 1 169 0
 1281 01fc 0998     		ldr	r0, [sp, #36]
 1282 01fe 3B5C     		ldrb	r3, [r7, r0]	@ zero_extendqisi2
 1283 0200 002B     		cmp	r3, #0
 1284 0202 7FF41CAF 		bne	.L108
 293:..\lvgl\lv_misc/lv_txt.c **** }
 1285              		.loc 1 293 0
 1286 0206 80B2     		uxth	r0, r0
 1287 0208 02E0     		b	.L79
 1288              	.LVL171:
 1289              	.L109:
 156:..\lvgl\lv_misc/lv_txt.c ****     if(font == NULL) return 0;
 1290              		.loc 1 156 0
 1291 020a 0020     		movs	r0, #0
 1292              	.LVL172:
 1293 020c 00E0     		b	.L79
 1294              	.LVL173:
 1295              	.L110:
 157:..\lvgl\lv_misc/lv_txt.c **** 
 1296              		.loc 1 157 0
 1297 020e 0020     		movs	r0, #0
 1298              	.LVL174:
 1299              	.L79:
 294:..\lvgl\lv_misc/lv_txt.c **** 
 1300              		.loc 1 294 0 discriminator 1
 1301 0210 0BB0     		add	sp, sp, #44
 1302              		.cfi_def_cfa_offset 36
 1303              		@ sp needed
 1304 0212 BDE8F08F 		pop	{r4, r5, r6, r7, r8, r9, r10, fp, pc}
ARM GAS  C:\Users\d3bug\AppData\Local\Temp\ccfzCIuT.s 			page 40


 1305              	.LVL175:
 1306              	.L116:
 1307 0216 00BF     		.align	2
 1308              	.L115:
 1309 0218 00000000 		.word	.LANCHOR0
 1310              		.cfi_endproc
 1311              	.LFE5:
 1312              		.size	lv_txt_get_next_line, .-lv_txt_get_next_line
 1313              		.section	.text.lv_txt_get_width,"ax",%progbits
 1314              		.align	2
 1315              		.global	lv_txt_get_width
 1316              		.thumb
 1317              		.thumb_func
 1318              		.type	lv_txt_get_width, %function
 1319              	lv_txt_get_width:
 1320              	.LFB6:
 307:..\lvgl\lv_misc/lv_txt.c ****     if(txt == NULL) return 0;
 1321              		.loc 1 307 0
 1322              		.cfi_startproc
 1323              		@ args = 4, pretend = 0, frame = 8
 1324              		@ frame_needed = 0, uses_anonymous_args = 0
 1325              	.LVL176:
 1326 0000 2DE9F047 		push	{r4, r5, r6, r7, r8, r9, r10, lr}
 1327              		.cfi_def_cfa_offset 32
 1328              		.cfi_offset 4, -32
 1329              		.cfi_offset 5, -28
 1330              		.cfi_offset 6, -24
 1331              		.cfi_offset 7, -20
 1332              		.cfi_offset 8, -16
 1333              		.cfi_offset 9, -12
 1334              		.cfi_offset 10, -8
 1335              		.cfi_offset 14, -4
 1336 0004 82B0     		sub	sp, sp, #8
 1337              		.cfi_def_cfa_offset 40
 1338 0006 9DF82890 		ldrb	r9, [sp, #40]	@ zero_extendqisi2
 308:..\lvgl\lv_misc/lv_txt.c ****     if(font == NULL) return 0;
 1339              		.loc 1 308 0
 1340 000a 98B3     		cbz	r0, .L123
 1341 000c 8046     		mov	r8, r0
 309:..\lvgl\lv_misc/lv_txt.c **** 
 1342              		.loc 1 309 0
 1343 000e 9AB3     		cbz	r2, .L124
 311:..\lvgl\lv_misc/lv_txt.c ****     lv_coord_t width = 0;
 1344              		.loc 1 311 0
 1345 0010 0020     		movs	r0, #0
 1346              	.LVL177:
 1347 0012 0190     		str	r0, [sp, #4]
 1348              	.LVL178:
 313:..\lvgl\lv_misc/lv_txt.c ****     uint32_t letter;
 1349              		.loc 1 313 0
 1350 0014 8DF80300 		strb	r0, [sp, #3]
 316:..\lvgl\lv_misc/lv_txt.c ****         while(i< length){
 1351              		.loc 1 316 0
 1352 0018 F9B9     		cbnz	r1, .L125
 1353 001a 30E0     		b	.L118
 1354              	.LVL179:
 1355              	.L122:
ARM GAS  C:\Users\d3bug\AppData\Local\Temp\ccfzCIuT.s 			page 41


 1356              	.LBB12:
 318:..\lvgl\lv_misc/lv_txt.c ****             if((flag & LV_TXT_FLAG_RECOLOR) != 0) {
 1357              		.loc 1 318 0
 1358 001c 194B     		ldr	r3, .L128
 1359 001e 5B68     		ldr	r3, [r3, #4]
 1360 0020 01A9     		add	r1, sp, #4
 1361 0022 4046     		mov	r0, r8
 1362 0024 9847     		blx	r3
 1363              	.LVL180:
 1364 0026 0546     		mov	r5, r0
 1365              	.LVL181:
 319:..\lvgl\lv_misc/lv_txt.c ****                 if(lv_txt_is_cmd(&cmd_state, letter) != false) {
 1366              		.loc 1 319 0
 1367 0028 19F0010F 		tst	r9, #1
 1368 002c 05D0     		beq	.L120
 320:..\lvgl\lv_misc/lv_txt.c ****                     continue;
 1369              		.loc 1 320 0
 1370 002e 0146     		mov	r1, r0
 1371 0030 0DF10300 		add	r0, sp, #3
 1372              	.LVL182:
 1373 0034 FFF7FEFF 		bl	lv_txt_is_cmd
 1374              	.LVL183:
 1375 0038 98B9     		cbnz	r0, .L119
 1376              	.L120:
 325:..\lvgl\lv_misc/lv_txt.c ****             if(char_width > 0){
 1377              		.loc 1 325 0
 1378 003a 2946     		mov	r1, r5
 1379 003c 3046     		mov	r0, r6
 1380 003e FFF7FEFF 		bl	lv_font_get_width
 1381              	.LVL184:
 1382 0042 00B2     		sxth	r0, r0
 1383              	.LVL185:
 326:..\lvgl\lv_misc/lv_txt.c ****                 width += lv_font_get_width(font, letter);
 1384              		.loc 1 326 0
 1385 0044 0028     		cmp	r0, #0
 1386 0046 0CDD     		ble	.L119
 327:..\lvgl\lv_misc/lv_txt.c ****                 width += letter_space;
 1387              		.loc 1 327 0
 1388 0048 2946     		mov	r1, r5
 1389 004a 3046     		mov	r0, r6
 1390              	.LVL186:
 1391 004c FFF7FEFF 		bl	lv_font_get_width
 1392              	.LVL187:
 1393 0050 2044     		add	r0, r0, r4
 1394 0052 84B2     		uxth	r4, r0
 1395              	.LVL188:
 328:..\lvgl\lv_misc/lv_txt.c ****             }
 1396              		.loc 1 328 0
 1397 0054 5444     		add	r4, r4, r10
 1398              	.LVL189:
 1399 0056 24B2     		sxth	r4, r4
 1400              	.LVL190:
 1401 0058 03E0     		b	.L119
 1402              	.LVL191:
 1403              	.L125:
 1404 005a 9A46     		mov	r10, r3
 1405 005c 1646     		mov	r6, r2
ARM GAS  C:\Users\d3bug\AppData\Local\Temp\ccfzCIuT.s 			page 42


 1406 005e 0F46     		mov	r7, r1
 1407              	.LBE12:
 1408 0060 0024     		movs	r4, #0
 1409              	.LVL192:
 1410              	.L119:
 317:..\lvgl\lv_misc/lv_txt.c ****             letter = lv_txt_encoded_next(txt, &i);
 1411              		.loc 1 317 0
 1412 0062 019B     		ldr	r3, [sp, #4]
 1413 0064 9F42     		cmp	r7, r3
 1414 0066 D9D8     		bhi	.L122
 332:..\lvgl\lv_misc/lv_txt.c ****             width -= letter_space;  /*Trim the last letter space. Important if the text is center a
 1415              		.loc 1 332 0
 1416 0068 002C     		cmp	r4, #0
 1417 006a 07DD     		ble	.L126
 333:..\lvgl\lv_misc/lv_txt.c ****         }
 1418              		.loc 1 333 0
 1419 006c CAEB0404 		rsb	r4, r10, r4
 1420              	.LVL193:
 1421 0070 20B2     		sxth	r0, r4
 1422 0072 04E0     		b	.L118
 1423              	.LVL194:
 1424              	.L123:
 308:..\lvgl\lv_misc/lv_txt.c ****     if(font == NULL) return 0;
 1425              		.loc 1 308 0
 1426 0074 0020     		movs	r0, #0
 1427              	.LVL195:
 1428 0076 02E0     		b	.L118
 1429              	.LVL196:
 1430              	.L124:
 309:..\lvgl\lv_misc/lv_txt.c **** 
 1431              		.loc 1 309 0
 1432 0078 0020     		movs	r0, #0
 1433              	.LVL197:
 1434 007a 00E0     		b	.L118
 1435              	.LVL198:
 1436              	.L126:
 1437 007c 2046     		mov	r0, r4
 1438              	.LVL199:
 1439              	.L118:
 338:..\lvgl\lv_misc/lv_txt.c **** 
 1440              		.loc 1 338 0
 1441 007e 02B0     		add	sp, sp, #8
 1442              		.cfi_def_cfa_offset 32
 1443              		@ sp needed
 1444 0080 BDE8F087 		pop	{r4, r5, r6, r7, r8, r9, r10, pc}
 1445              	.LVL200:
 1446              	.L129:
 1447              		.align	2
 1448              	.L128:
 1449 0084 00000000 		.word	.LANCHOR0
 1450              		.cfi_endproc
 1451              	.LFE6:
 1452              		.size	lv_txt_get_width, .-lv_txt_get_width
 1453              		.section	.text.lv_txt_get_size,"ax",%progbits
 1454              		.align	2
 1455              		.global	lv_txt_get_size
 1456              		.thumb
ARM GAS  C:\Users\d3bug\AppData\Local\Temp\ccfzCIuT.s 			page 43


 1457              		.thumb_func
 1458              		.type	lv_txt_get_size, %function
 1459              	lv_txt_get_size:
 1460              	.LFB4:
 105:..\lvgl\lv_misc/lv_txt.c ****     size_res->x = 0;
 1461              		.loc 1 105 0
 1462              		.cfi_startproc
 1463              		@ args = 12, pretend = 0, frame = 8
 1464              		@ frame_needed = 0, uses_anonymous_args = 0
 1465              	.LVL201:
 1466 0000 2DE9F04F 		push	{r4, r5, r6, r7, r8, r9, r10, fp, lr}
 1467              		.cfi_def_cfa_offset 36
 1468              		.cfi_offset 4, -36
 1469              		.cfi_offset 5, -32
 1470              		.cfi_offset 6, -28
 1471              		.cfi_offset 7, -24
 1472              		.cfi_offset 8, -20
 1473              		.cfi_offset 9, -16
 1474              		.cfi_offset 10, -12
 1475              		.cfi_offset 11, -8
 1476              		.cfi_offset 14, -4
 1477 0004 85B0     		sub	sp, sp, #20
 1478              		.cfi_def_cfa_offset 56
 1479 0006 BDF938A0 		ldrsh	r10, [sp, #56]
 1480 000a BDF93C40 		ldrsh	r4, [sp, #60]
 1481 000e 0394     		str	r4, [sp, #12]
 1482 0010 9DF84090 		ldrb	r9, [sp, #64]	@ zero_extendqisi2
 106:..\lvgl\lv_misc/lv_txt.c ****     size_res->y = 0;
 1483              		.loc 1 106 0
 1484 0014 0024     		movs	r4, #0
 1485 0016 0480     		strh	r4, [r0]	@ movhi
 107:..\lvgl\lv_misc/lv_txt.c **** 
 1486              		.loc 1 107 0
 1487 0018 4480     		strh	r4, [r0, #2]	@ movhi
 109:..\lvgl\lv_misc/lv_txt.c ****     if(font == NULL) return;
 1488              		.loc 1 109 0
 1489 001a 0029     		cmp	r1, #0
 1490 001c 45D0     		beq	.L130
 1491 001e 0F46     		mov	r7, r1
 110:..\lvgl\lv_misc/lv_txt.c **** 
 1492              		.loc 1 110 0
 1493 0020 002A     		cmp	r2, #0
 1494 0022 42D0     		beq	.L130
 112:..\lvgl\lv_misc/lv_txt.c **** 
 1495              		.loc 1 112 0
 1496 0024 19F0020F 		tst	r9, #2
 1497 0028 02D0     		beq	.L132
 1498 002a 43F6FF71 		movw	r1, #16383
 1499              	.LVL202:
 1500 002e 0391     		str	r1, [sp, #12]
 1501              	.L132:
 1502 0030 0293     		str	r3, [sp, #8]
 1503 0032 9046     		mov	r8, r2
 1504 0034 0446     		mov	r4, r0
 1505              	.LVL203:
 1506              	.LBB13:
 1507              	.LBB14:
ARM GAS  C:\Users\d3bug\AppData\Local\Temp\ccfzCIuT.s 			page 44


 1508              		.file 2 "..\\lvgl\\lv_misc\\lv_font.h"
   1:..\lvgl\lv_misc/lv_font.h **** /**
   2:..\lvgl\lv_misc/lv_font.h ****  * @file lv_font.h
   3:..\lvgl\lv_misc/lv_font.h ****  *
   4:..\lvgl\lv_misc/lv_font.h ****  */
   5:..\lvgl\lv_misc/lv_font.h **** 
   6:..\lvgl\lv_misc/lv_font.h **** #ifndef LV_FONT_H
   7:..\lvgl\lv_misc/lv_font.h **** #define LV_FONT_H
   8:..\lvgl\lv_misc/lv_font.h **** 
   9:..\lvgl\lv_misc/lv_font.h **** #ifdef __cplusplus
  10:..\lvgl\lv_misc/lv_font.h **** extern "C" {
  11:..\lvgl\lv_misc/lv_font.h **** #endif
  12:..\lvgl\lv_misc/lv_font.h **** 
  13:..\lvgl\lv_misc/lv_font.h **** 
  14:..\lvgl\lv_misc/lv_font.h **** /*********************
  15:..\lvgl\lv_misc/lv_font.h ****  *      INCLUDES
  16:..\lvgl\lv_misc/lv_font.h ****  *********************/
  17:..\lvgl\lv_misc/lv_font.h **** #ifdef LV_CONF_INCLUDE_SIMPLE
  18:..\lvgl\lv_misc/lv_font.h **** #include "lv_conf.h"
  19:..\lvgl\lv_misc/lv_font.h **** #else
  20:..\lvgl\lv_misc/lv_font.h **** #include "../../lv_conf.h"
  21:..\lvgl\lv_misc/lv_font.h **** #endif
  22:..\lvgl\lv_misc/lv_font.h **** 
  23:..\lvgl\lv_misc/lv_font.h **** #include <stdint.h>
  24:..\lvgl\lv_misc/lv_font.h **** #include <stddef.h>
  25:..\lvgl\lv_misc/lv_font.h **** #include <stdbool.h>
  26:..\lvgl\lv_misc/lv_font.h **** 
  27:..\lvgl\lv_misc/lv_font.h **** #include "lv_symbol_def.h"
  28:..\lvgl\lv_misc/lv_font.h **** 
  29:..\lvgl\lv_misc/lv_font.h **** /*********************
  30:..\lvgl\lv_misc/lv_font.h ****  *      DEFINES
  31:..\lvgl\lv_misc/lv_font.h ****  *********************/
  32:..\lvgl\lv_misc/lv_font.h **** 
  33:..\lvgl\lv_misc/lv_font.h **** /**********************
  34:..\lvgl\lv_misc/lv_font.h ****  *      TYPEDEFS
  35:..\lvgl\lv_misc/lv_font.h ****  **********************/
  36:..\lvgl\lv_misc/lv_font.h **** 
  37:..\lvgl\lv_misc/lv_font.h **** typedef struct
  38:..\lvgl\lv_misc/lv_font.h **** {
  39:..\lvgl\lv_misc/lv_font.h ****     uint32_t w_px         :8;
  40:..\lvgl\lv_misc/lv_font.h ****     uint32_t glyph_index  :24;
  41:..\lvgl\lv_misc/lv_font.h **** } lv_font_glyph_dsc_t;
  42:..\lvgl\lv_misc/lv_font.h **** 
  43:..\lvgl\lv_misc/lv_font.h **** typedef struct
  44:..\lvgl\lv_misc/lv_font.h **** {
  45:..\lvgl\lv_misc/lv_font.h ****     uint32_t unicode         :21;
  46:..\lvgl\lv_misc/lv_font.h ****     uint32_t glyph_dsc_index :11;
  47:..\lvgl\lv_misc/lv_font.h **** } lv_font_unicode_map_t;
  48:..\lvgl\lv_misc/lv_font.h **** 
  49:..\lvgl\lv_misc/lv_font.h **** typedef struct _lv_font_struct
  50:..\lvgl\lv_misc/lv_font.h **** {
  51:..\lvgl\lv_misc/lv_font.h ****     uint32_t unicode_first;
  52:..\lvgl\lv_misc/lv_font.h ****     uint32_t unicode_last;
  53:..\lvgl\lv_misc/lv_font.h ****     const uint8_t * glyph_bitmap;
  54:..\lvgl\lv_misc/lv_font.h ****     const lv_font_glyph_dsc_t * glyph_dsc;
  55:..\lvgl\lv_misc/lv_font.h ****     const uint32_t * unicode_list;
  56:..\lvgl\lv_misc/lv_font.h ****     const uint8_t * (*get_bitmap)(const struct _lv_font_struct *,uint32_t);     /*Get a glyph's  bi
ARM GAS  C:\Users\d3bug\AppData\Local\Temp\ccfzCIuT.s 			page 45


  57:..\lvgl\lv_misc/lv_font.h ****     int16_t (*get_width)(const struct _lv_font_struct *,uint32_t);        /*Get a glyph's with with
  58:..\lvgl\lv_misc/lv_font.h ****     struct _lv_font_struct * next_page;    /*Pointer to a font extension*/
  59:..\lvgl\lv_misc/lv_font.h ****     uint32_t h_px       :8;
  60:..\lvgl\lv_misc/lv_font.h ****     uint32_t bpp        :4;                /*Bit per pixel: 1, 2 or 4*/
  61:..\lvgl\lv_misc/lv_font.h ****     uint32_t monospace  :8;                /*Fix width (0: normal width)*/
  62:..\lvgl\lv_misc/lv_font.h ****     uint16_t glyph_cnt;                    /*Number of glyphs (letters) in the font*/
  63:..\lvgl\lv_misc/lv_font.h **** } lv_font_t;
  64:..\lvgl\lv_misc/lv_font.h **** 
  65:..\lvgl\lv_misc/lv_font.h **** /**********************
  66:..\lvgl\lv_misc/lv_font.h ****  * GLOBAL PROTOTYPES
  67:..\lvgl\lv_misc/lv_font.h ****  **********************/
  68:..\lvgl\lv_misc/lv_font.h **** 
  69:..\lvgl\lv_misc/lv_font.h **** /**
  70:..\lvgl\lv_misc/lv_font.h ****  * Initialize the fonts
  71:..\lvgl\lv_misc/lv_font.h ****  */
  72:..\lvgl\lv_misc/lv_font.h **** void lv_font_init(void);
  73:..\lvgl\lv_misc/lv_font.h **** 
  74:..\lvgl\lv_misc/lv_font.h **** /**
  75:..\lvgl\lv_misc/lv_font.h ****  * Add a font to an other to extend the character set.
  76:..\lvgl\lv_misc/lv_font.h ****  * @param child the font to add
  77:..\lvgl\lv_misc/lv_font.h ****  * @param parent this font will be extended. Using it later will contain the characters from `child
  78:..\lvgl\lv_misc/lv_font.h ****  */
  79:..\lvgl\lv_misc/lv_font.h **** void lv_font_add(lv_font_t *child, lv_font_t *parent);
  80:..\lvgl\lv_misc/lv_font.h **** 
  81:..\lvgl\lv_misc/lv_font.h **** /**
  82:..\lvgl\lv_misc/lv_font.h ****  * Remove a font from a character set.
  83:..\lvgl\lv_misc/lv_font.h ****  * @param child the font to remove
  84:..\lvgl\lv_misc/lv_font.h ****  * @param parent remove `child` from here
  85:..\lvgl\lv_misc/lv_font.h ****  */
  86:..\lvgl\lv_misc/lv_font.h **** void lv_font_remove(lv_font_t * child, lv_font_t * parent);
  87:..\lvgl\lv_misc/lv_font.h **** 
  88:..\lvgl\lv_misc/lv_font.h **** /**
  89:..\lvgl\lv_misc/lv_font.h ****  * Tells if font which contains `letter` is monospace or not
  90:..\lvgl\lv_misc/lv_font.h ****  * @param font_p point to font
  91:..\lvgl\lv_misc/lv_font.h ****  * @param letter an UNICODE character code
  92:..\lvgl\lv_misc/lv_font.h ****  * @return true: the letter is monospace; false not monospace
  93:..\lvgl\lv_misc/lv_font.h ****  */
  94:..\lvgl\lv_misc/lv_font.h **** bool lv_font_is_monospace(const lv_font_t * font_p, uint32_t letter);
  95:..\lvgl\lv_misc/lv_font.h **** 
  96:..\lvgl\lv_misc/lv_font.h **** /**
  97:..\lvgl\lv_misc/lv_font.h ****  * Return with the bitmap of a font.
  98:..\lvgl\lv_misc/lv_font.h ****  * @param font_p pointer to a font
  99:..\lvgl\lv_misc/lv_font.h ****  * @param letter an UNICODE character code
 100:..\lvgl\lv_misc/lv_font.h ****  * @return  pointer to the bitmap of the letter
 101:..\lvgl\lv_misc/lv_font.h ****  */
 102:..\lvgl\lv_misc/lv_font.h **** const uint8_t * lv_font_get_bitmap(const lv_font_t * font_p, uint32_t letter);
 103:..\lvgl\lv_misc/lv_font.h **** 
 104:..\lvgl\lv_misc/lv_font.h **** /**
 105:..\lvgl\lv_misc/lv_font.h ****  * Get the width of a letter in a font. If `monospace` is set then return with it.
 106:..\lvgl\lv_misc/lv_font.h ****  * @param font_p pointer to a font
 107:..\lvgl\lv_misc/lv_font.h ****  * @param letter an UNICODE character code
 108:..\lvgl\lv_misc/lv_font.h ****  * @return the width of a letter
 109:..\lvgl\lv_misc/lv_font.h ****  */
 110:..\lvgl\lv_misc/lv_font.h **** uint8_t lv_font_get_width(const lv_font_t * font_p, uint32_t letter);
 111:..\lvgl\lv_misc/lv_font.h **** 
 112:..\lvgl\lv_misc/lv_font.h **** 
 113:..\lvgl\lv_misc/lv_font.h **** /**
ARM GAS  C:\Users\d3bug\AppData\Local\Temp\ccfzCIuT.s 			page 46


 114:..\lvgl\lv_misc/lv_font.h ****  * Get the width of the letter without overwriting it with the `monospace` attribute
 115:..\lvgl\lv_misc/lv_font.h ****  * @param font_p pointer to a font
 116:..\lvgl\lv_misc/lv_font.h ****  * @param letter an UNICODE character code
 117:..\lvgl\lv_misc/lv_font.h ****  * @return the width of a letter
 118:..\lvgl\lv_misc/lv_font.h ****  */
 119:..\lvgl\lv_misc/lv_font.h **** uint8_t lv_font_get_real_width(const lv_font_t * font_p, uint32_t letter);
 120:..\lvgl\lv_misc/lv_font.h **** 
 121:..\lvgl\lv_misc/lv_font.h **** /**
 122:..\lvgl\lv_misc/lv_font.h ****  * Get the height of a font
 123:..\lvgl\lv_misc/lv_font.h ****  * @param font_p pointer to a font
 124:..\lvgl\lv_misc/lv_font.h ****  * @return the height of a font
 125:..\lvgl\lv_misc/lv_font.h ****  */
 126:..\lvgl\lv_misc/lv_font.h **** static inline uint8_t lv_font_get_height(const lv_font_t * font_p)
 127:..\lvgl\lv_misc/lv_font.h **** {
 128:..\lvgl\lv_misc/lv_font.h ****     return font_p->h_px;
 1509              		.loc 2 128 0
 1510 0036 92F820B0 		ldrb	fp, [r2, #32]	@ zero_extendqisi2
 1511              	.LVL204:
 1512              	.LBE14:
 1513              	.LBE13:
 114:..\lvgl\lv_misc/lv_txt.c ****     uint32_t new_line_start = 0;
 1514              		.loc 1 114 0
 1515 003a 0025     		movs	r5, #0
 120:..\lvgl\lv_misc/lv_txt.c ****         new_line_start += lv_txt_get_next_line(&text[line_start], font, letter_space, max_width, fl
 1516              		.loc 1 120 0
 1517 003c 1BE0     		b	.L133
 1518              	.LVL205:
 1519              	.L134:
 121:..\lvgl\lv_misc/lv_txt.c ****         size_res->y += letter_height ;
 1520              		.loc 1 121 0
 1521 003e CDF80090 		str	r9, [sp]
 1522 0042 039B     		ldr	r3, [sp, #12]
 1523 0044 029A     		ldr	r2, [sp, #8]
 1524 0046 4146     		mov	r1, r8
 1525 0048 3046     		mov	r0, r6
 1526 004a FFF7FEFF 		bl	lv_txt_get_next_line
 1527              	.LVL206:
 1528 004e 0146     		mov	r1, r0
 1529 0050 0544     		add	r5, r5, r0
 1530              	.LVL207:
 122:..\lvgl\lv_misc/lv_txt.c ****         size_res->y += line_space;
 1531              		.loc 1 122 0
 1532 0052 6388     		ldrh	r3, [r4, #2]
 1533 0054 5B44     		add	r3, r3, fp
 1534 0056 9BB2     		uxth	r3, r3
 123:..\lvgl\lv_misc/lv_txt.c **** 
 1535              		.loc 1 123 0
 1536 0058 5344     		add	r3, r3, r10
 1537 005a 6380     		strh	r3, [r4, #2]	@ movhi
 126:..\lvgl\lv_misc/lv_txt.c ****                                            font, letter_space, flag);
 1538              		.loc 1 126 0
 1539 005c CDF80090 		str	r9, [sp]
 1540 0060 029B     		ldr	r3, [sp, #8]
 1541 0062 4246     		mov	r2, r8
 1542 0064 3046     		mov	r0, r6
 1543 0066 FFF7FEFF 		bl	lv_txt_get_width
 1544              	.LVL208:
ARM GAS  C:\Users\d3bug\AppData\Local\Temp\ccfzCIuT.s 			page 47


 129:..\lvgl\lv_misc/lv_txt.c ****         line_start = new_line_start;
 1545              		.loc 1 129 0
 1546 006a B4F90030 		ldrsh	r3, [r4]
 1547 006e 9842     		cmp	r0, r3
 1548 0070 B8BF     		it	lt
 1549 0072 1846     		movlt	r0, r3
 1550              	.LVL209:
 1551 0074 2080     		strh	r0, [r4]	@ movhi
 1552              	.LVL210:
 1553              	.L133:
 120:..\lvgl\lv_misc/lv_txt.c ****         new_line_start += lv_txt_get_next_line(&text[line_start], font, letter_space, max_width, fl
 1554              		.loc 1 120 0
 1555 0076 7E19     		adds	r6, r7, r5
 1556 0078 7B5D     		ldrb	r3, [r7, r5]	@ zero_extendqisi2
 1557 007a 002B     		cmp	r3, #0
 1558 007c DFD1     		bne	.L134
 134:..\lvgl\lv_misc/lv_txt.c ****         size_res->y += letter_height + line_space;
 1559              		.loc 1 134 0
 1560 007e 55B1     		cbz	r5, .L135
 134:..\lvgl\lv_misc/lv_txt.c ****         size_res->y += letter_height + line_space;
 1561              		.loc 1 134 0 is_stmt 0 discriminator 1
 1562 0080 013D     		subs	r5, r5, #1
 1563              	.LVL211:
 1564 0082 7B5D     		ldrb	r3, [r7, r5]	@ zero_extendqisi2
 1565 0084 0A2B     		cmp	r3, #10
 1566 0086 01D0     		beq	.L136
 134:..\lvgl\lv_misc/lv_txt.c ****         size_res->y += letter_height + line_space;
 1567              		.loc 1 134 0 discriminator 2
 1568 0088 0D2B     		cmp	r3, #13
 1569 008a 04D1     		bne	.L135
 1570              	.L136:
 135:..\lvgl\lv_misc/lv_txt.c ****     }
 1571              		.loc 1 135 0 is_stmt 1
 1572 008c 0BEB0A03 		add	r3, fp, r10
 1573 0090 6288     		ldrh	r2, [r4, #2]
 1574 0092 1344     		add	r3, r3, r2
 1575 0094 6380     		strh	r3, [r4, #2]	@ movhi
 1576              	.LVL212:
 1577              	.L135:
 139:..\lvgl\lv_misc/lv_txt.c ****     else size_res->y -= line_space;
 1578              		.loc 1 139 0
 1579 0096 B4F90230 		ldrsh	r3, [r4, #2]
 1580 009a 13B9     		cbnz	r3, .L137
 139:..\lvgl\lv_misc/lv_txt.c ****     else size_res->y -= line_space;
 1581              		.loc 1 139 0 is_stmt 0 discriminator 1
 1582 009c A4F802B0 		strh	fp, [r4, #2]	@ movhi
 1583 00a0 03E0     		b	.L130
 1584              	.L137:
 140:..\lvgl\lv_misc/lv_txt.c **** 
 1585              		.loc 1 140 0 is_stmt 1
 1586 00a2 CAEB030A 		rsb	r10, r10, r3
 1587 00a6 A4F802A0 		strh	r10, [r4, #2]	@ movhi
 1588              	.LVL213:
 1589              	.L130:
 142:..\lvgl\lv_misc/lv_txt.c **** 
 1590              		.loc 1 142 0
 1591 00aa 05B0     		add	sp, sp, #20
ARM GAS  C:\Users\d3bug\AppData\Local\Temp\ccfzCIuT.s 			page 48


 1592              		.cfi_def_cfa_offset 36
 1593              		@ sp needed
 1594 00ac BDE8F08F 		pop	{r4, r5, r6, r7, r8, r9, r10, fp, pc}
 1595              		.cfi_endproc
 1596              	.LFE4:
 1597              		.size	lv_txt_get_size, .-lv_txt_get_size
 1598              		.section	.text.lv_txt_ins,"ax",%progbits
 1599              		.align	2
 1600              		.global	lv_txt_ins
 1601              		.thumb
 1602              		.thumb_func
 1603              		.type	lv_txt_ins, %function
 1604              	lv_txt_ins:
 1605              	.LFB8:
 383:..\lvgl\lv_misc/lv_txt.c ****     uint32_t old_len = strlen(txt_buf);
 1606              		.loc 1 383 0
 1607              		.cfi_startproc
 1608              		@ args = 0, pretend = 0, frame = 0
 1609              		@ frame_needed = 0, uses_anonymous_args = 0
 1610              	.LVL214:
 1611 0000 2DE9F041 		push	{r4, r5, r6, r7, r8, lr}
 1612              		.cfi_def_cfa_offset 24
 1613              		.cfi_offset 4, -24
 1614              		.cfi_offset 5, -20
 1615              		.cfi_offset 6, -16
 1616              		.cfi_offset 7, -12
 1617              		.cfi_offset 8, -8
 1618              		.cfi_offset 14, -4
 1619 0004 0646     		mov	r6, r0
 1620 0006 8846     		mov	r8, r1
 1621 0008 1746     		mov	r7, r2
 384:..\lvgl\lv_misc/lv_txt.c ****     uint32_t ins_len = strlen(ins_txt);
 1622              		.loc 1 384 0
 1623 000a FFF7FEFF 		bl	strlen
 1624              	.LVL215:
 1625 000e 0446     		mov	r4, r0
 1626              	.LVL216:
 385:..\lvgl\lv_misc/lv_txt.c ****     uint32_t new_len = ins_len + old_len;
 1627              		.loc 1 385 0
 1628 0010 3846     		mov	r0, r7
 1629              	.LVL217:
 1630 0012 FFF7FEFF 		bl	strlen
 1631              	.LVL218:
 1632 0016 0546     		mov	r5, r0
 1633              	.LVL219:
 386:..\lvgl\lv_misc/lv_txt.c **** #if LV_TXT_UTF8 != 0
 1634              		.loc 1 386 0
 1635 0018 0444     		add	r4, r4, r0
 1636              	.LVL220:
 388:..\lvgl\lv_misc/lv_txt.c **** #endif
 1637              		.loc 1 388 0
 1638 001a 0A4B     		ldr	r3, .L144
 1639 001c DB68     		ldr	r3, [r3, #12]
 1640 001e 4146     		mov	r1, r8
 1641 0020 3046     		mov	r0, r6
 1642              	.LVL221:
 1643 0022 9847     		blx	r3
ARM GAS  C:\Users\d3bug\AppData\Local\Temp\ccfzCIuT.s 			page 49


 1644              	.LVL222:
 392:..\lvgl\lv_misc/lv_txt.c ****         txt_buf[i] = txt_buf[i - ins_len];
 1645              		.loc 1 392 0
 1646 0024 03E0     		b	.L141
 1647              	.LVL223:
 1648              	.L142:
 393:..\lvgl\lv_misc/lv_txt.c ****     }
 1649              		.loc 1 393 0 discriminator 3
 1650 0026 631B     		subs	r3, r4, r5
 1651 0028 F35C     		ldrb	r3, [r6, r3]	@ zero_extendqisi2
 1652 002a 3355     		strb	r3, [r6, r4]
 392:..\lvgl\lv_misc/lv_txt.c ****         txt_buf[i] = txt_buf[i - ins_len];
 1653              		.loc 1 392 0 discriminator 3
 1654 002c 013C     		subs	r4, r4, #1
 1655              	.LVL224:
 1656              	.L141:
 392:..\lvgl\lv_misc/lv_txt.c ****         txt_buf[i] = txt_buf[i - ins_len];
 1657              		.loc 1 392 0 is_stmt 0 discriminator 1
 1658 002e 2B18     		adds	r3, r5, r0
 1659 0030 9C42     		cmp	r4, r3
 1660 0032 F8D2     		bcs	.L142
 397:..\lvgl\lv_misc/lv_txt.c **** }
 1661              		.loc 1 397 0 is_stmt 1
 1662 0034 2A46     		mov	r2, r5
 1663 0036 3946     		mov	r1, r7
 1664 0038 3044     		add	r0, r0, r6
 1665              	.LVL225:
 1666 003a FFF7FEFF 		bl	memcpy
 1667              	.LVL226:
 1668 003e BDE8F081 		pop	{r4, r5, r6, r7, r8, pc}
 1669              	.LVL227:
 1670              	.L145:
 1671 0042 00BF     		.align	2
 1672              	.L144:
 1673 0044 00000000 		.word	.LANCHOR0
 1674              		.cfi_endproc
 1675              	.LFE8:
 1676              		.size	lv_txt_ins, .-lv_txt_ins
 1677              		.section	.text.lv_txt_cut,"ax",%progbits
 1678              		.align	2
 1679              		.global	lv_txt_cut
 1680              		.thumb
 1681              		.thumb_func
 1682              		.type	lv_txt_cut, %function
 1683              	lv_txt_cut:
 1684              	.LFB9:
 407:..\lvgl\lv_misc/lv_txt.c **** 
 1685              		.loc 1 407 0
 1686              		.cfi_startproc
 1687              		@ args = 0, pretend = 0, frame = 0
 1688              		@ frame_needed = 0, uses_anonymous_args = 0
 1689              	.LVL228:
 1690 0000 2DE9F041 		push	{r4, r5, r6, r7, r8, lr}
 1691              		.cfi_def_cfa_offset 24
 1692              		.cfi_offset 4, -24
 1693              		.cfi_offset 5, -20
 1694              		.cfi_offset 6, -16
ARM GAS  C:\Users\d3bug\AppData\Local\Temp\ccfzCIuT.s 			page 50


 1695              		.cfi_offset 7, -12
 1696              		.cfi_offset 8, -8
 1697              		.cfi_offset 14, -4
 1698 0004 0546     		mov	r5, r0
 1699 0006 0C46     		mov	r4, r1
 1700 0008 9046     		mov	r8, r2
 409:..\lvgl\lv_misc/lv_txt.c **** #if LV_TXT_UTF8 != 0
 1701              		.loc 1 409 0
 1702 000a FFF7FEFF 		bl	strlen
 1703              	.LVL229:
 1704 000e 0646     		mov	r6, r0
 1705              	.LVL230:
 411:..\lvgl\lv_misc/lv_txt.c ****     len = lv_txt_encoded_get_byte_id(&txt[pos], len);
 1706              		.loc 1 411 0
 1707 0010 094F     		ldr	r7, .L150
 1708 0012 FB68     		ldr	r3, [r7, #12]
 1709 0014 2146     		mov	r1, r4
 1710 0016 2846     		mov	r0, r5
 1711              	.LVL231:
 1712 0018 9847     		blx	r3
 1713              	.LVL232:
 1714 001a 0446     		mov	r4, r0
 1715              	.LVL233:
 412:..\lvgl\lv_misc/lv_txt.c **** #endif
 1716              		.loc 1 412 0
 1717 001c FB68     		ldr	r3, [r7, #12]
 1718 001e 4146     		mov	r1, r8
 1719 0020 2818     		adds	r0, r5, r0
 1720              	.LVL234:
 1721 0022 9847     		blx	r3
 1722              	.LVL235:
 417:..\lvgl\lv_misc/lv_txt.c ****         txt[i] = txt[i + len];
 1723              		.loc 1 417 0
 1724 0024 03E0     		b	.L147
 1725              	.LVL236:
 1726              	.L148:
 418:..\lvgl\lv_misc/lv_txt.c ****     }
 1727              		.loc 1 418 0 discriminator 3
 1728 0026 2B19     		adds	r3, r5, r4
 1729 0028 1B5C     		ldrb	r3, [r3, r0]	@ zero_extendqisi2
 1730 002a 2B55     		strb	r3, [r5, r4]
 417:..\lvgl\lv_misc/lv_txt.c ****         txt[i] = txt[i + len];
 1731              		.loc 1 417 0 discriminator 3
 1732 002c 0134     		adds	r4, r4, #1
 1733              	.LVL237:
 1734              	.L147:
 417:..\lvgl\lv_misc/lv_txt.c ****         txt[i] = txt[i + len];
 1735              		.loc 1 417 0 is_stmt 0 discriminator 1
 1736 002e 331A     		subs	r3, r6, r0
 1737 0030 9C42     		cmp	r4, r3
 1738 0032 F8D9     		bls	.L148
 420:..\lvgl\lv_misc/lv_txt.c **** 
 1739              		.loc 1 420 0 is_stmt 1
 1740 0034 BDE8F081 		pop	{r4, r5, r6, r7, r8, pc}
 1741              	.LVL238:
 1742              	.L151:
 1743              		.align	2
ARM GAS  C:\Users\d3bug\AppData\Local\Temp\ccfzCIuT.s 			page 51


 1744              	.L150:
 1745 0038 00000000 		.word	.LANCHOR0
 1746              		.cfi_endproc
 1747              	.LFE9:
 1748              		.size	lv_txt_cut, .-lv_txt_cut
 1749              		.global	lv_txt_get_encoded_length
 1750              		.global	lv_encoded_get_char_id
 1751              		.global	lv_txt_encoded_get_byte_id
 1752              		.global	lv_txt_encoded_prev
 1753              		.global	lv_txt_encoded_next
 1754              		.global	lv_txt_encoded_conv_wc
 1755              		.global	lv_txt_unicode_to_encoded
 1756              		.global	lv_txt_encoded_size
 1757              		.data
 1758              		.align	2
 1759              		.set	.LANCHOR0,. + 0
 1760              		.type	lv_txt_encoded_size, %object
 1761              		.size	lv_txt_encoded_size, 4
 1762              	lv_txt_encoded_size:
 1763 0000 00000000 		.word	lv_txt_utf8_size
 1764              		.type	lv_txt_encoded_next, %object
 1765              		.size	lv_txt_encoded_next, 4
 1766              	lv_txt_encoded_next:
 1767 0004 00000000 		.word	lv_txt_utf8_next
 1768              		.type	lv_txt_encoded_prev, %object
 1769              		.size	lv_txt_encoded_prev, 4
 1770              	lv_txt_encoded_prev:
 1771 0008 00000000 		.word	lv_txt_utf8_prev
 1772              		.type	lv_txt_encoded_get_byte_id, %object
 1773              		.size	lv_txt_encoded_get_byte_id, 4
 1774              	lv_txt_encoded_get_byte_id:
 1775 000c 00000000 		.word	lv_txt_utf8_get_byte_id
 1776              		.type	lv_txt_get_encoded_length, %object
 1777              		.size	lv_txt_get_encoded_length, 4
 1778              	lv_txt_get_encoded_length:
 1779 0010 00000000 		.word	lv_txt_utf8_get_length
 1780              		.type	lv_encoded_get_char_id, %object
 1781              		.size	lv_encoded_get_char_id, 4
 1782              	lv_encoded_get_char_id:
 1783 0014 00000000 		.word	lv_txt_utf8_get_char_id
 1784              		.type	lv_txt_encoded_conv_wc, %object
 1785              		.size	lv_txt_encoded_conv_wc, 4
 1786              	lv_txt_encoded_conv_wc:
 1787 0018 00000000 		.word	lv_txt_utf8_conv_wc
 1788              		.type	lv_txt_unicode_to_encoded, %object
 1789              		.size	lv_txt_unicode_to_encoded, 4
 1790              	lv_txt_unicode_to_encoded:
 1791 001c 00000000 		.word	lv_txt_unicode_to_utf8
 1792              		.section	.rodata.str1.4,"aMS",%progbits,1
 1793              		.align	2
 1794              	.LC0:
 1795 0000 202C2E3B 		.ascii	" ,.;:-_\000"
 1795      3A2D5F00 
 1796              		.text
 1797              	.Letext0:
 1798              		.file 3 "c:\\program files (x86)\\cypress\\psoc creator\\4.2\\psoc creator\\import\\gnu\\arm\\5.4.
 1799              		.file 4 "c:\\program files (x86)\\cypress\\psoc creator\\4.2\\psoc creator\\import\\gnu\\arm\\5.4.
ARM GAS  C:\Users\d3bug\AppData\Local\Temp\ccfzCIuT.s 			page 52


 1800              		.file 5 "..\\lvgl\\lv_misc\\lv_area.h"
 1801              		.file 6 "..\\lvgl\\lv_misc\\lv_txt.h"
 1802              		.file 7 "c:\\program files (x86)\\cypress\\psoc creator\\4.2\\psoc creator\\import\\gnu\\arm\\5.4.
 1803              		.section	.debug_info,"",%progbits
 1804              	.Ldebug_info0:
 1805 0000 610E0000 		.4byte	0xe61
 1806 0004 0400     		.2byte	0x4
 1807 0006 00000000 		.4byte	.Ldebug_abbrev0
 1808 000a 04       		.byte	0x4
 1809 000b 01       		.uleb128 0x1
 1810 000c E7010000 		.4byte	.LASF116
 1811 0010 0C       		.byte	0xc
 1812 0011 09060000 		.4byte	.LASF117
 1813 0015 1D030000 		.4byte	.LASF118
 1814 0019 00000000 		.4byte	.Ldebug_ranges0+0
 1815 001d 00000000 		.4byte	0
 1816 0021 00000000 		.4byte	.Ldebug_line0
 1817 0025 02       		.uleb128 0x2
 1818 0026 04       		.byte	0x4
 1819 0027 05       		.byte	0x5
 1820 0028 696E7400 		.ascii	"int\000"
 1821 002c 03       		.uleb128 0x3
 1822 002d 04       		.byte	0x4
 1823 002e 07       		.byte	0x7
 1824 002f 82000000 		.4byte	.LASF0
 1825 0033 03       		.uleb128 0x3
 1826 0034 08       		.byte	0x8
 1827 0035 05       		.byte	0x5
 1828 0036 F2030000 		.4byte	.LASF1
 1829 003a 03       		.uleb128 0x3
 1830 003b 08       		.byte	0x8
 1831 003c 04       		.byte	0x4
 1832 003d 9E040000 		.4byte	.LASF2
 1833 0041 03       		.uleb128 0x3
 1834 0042 01       		.byte	0x1
 1835 0043 06       		.byte	0x6
 1836 0044 59060000 		.4byte	.LASF3
 1837 0048 04       		.uleb128 0x4
 1838 0049 51050000 		.4byte	.LASF5
 1839 004d 03       		.byte	0x3
 1840 004e 1D       		.byte	0x1d
 1841 004f 53000000 		.4byte	0x53
 1842 0053 03       		.uleb128 0x3
 1843 0054 01       		.byte	0x1
 1844 0055 08       		.byte	0x8
 1845 0056 F0050000 		.4byte	.LASF4
 1846 005a 04       		.uleb128 0x4
 1847 005b 40040000 		.4byte	.LASF6
 1848 005f 03       		.byte	0x3
 1849 0060 29       		.byte	0x29
 1850 0061 65000000 		.4byte	0x65
 1851 0065 03       		.uleb128 0x3
 1852 0066 02       		.byte	0x2
 1853 0067 05       		.byte	0x5
 1854 0068 DD040000 		.4byte	.LASF7
 1855 006c 04       		.uleb128 0x4
 1856 006d A6010000 		.4byte	.LASF8
ARM GAS  C:\Users\d3bug\AppData\Local\Temp\ccfzCIuT.s 			page 53


 1857 0071 03       		.byte	0x3
 1858 0072 2B       		.byte	0x2b
 1859 0073 77000000 		.4byte	0x77
 1860 0077 03       		.uleb128 0x3
 1861 0078 02       		.byte	0x2
 1862 0079 07       		.byte	0x7
 1863 007a 7E060000 		.4byte	.LASF9
 1864 007e 03       		.uleb128 0x3
 1865 007f 04       		.byte	0x4
 1866 0080 05       		.byte	0x5
 1867 0081 F2040000 		.4byte	.LASF10
 1868 0085 04       		.uleb128 0x4
 1869 0086 FE050000 		.4byte	.LASF11
 1870 008a 03       		.byte	0x3
 1871 008b 41       		.byte	0x41
 1872 008c 90000000 		.4byte	0x90
 1873 0090 03       		.uleb128 0x3
 1874 0091 04       		.byte	0x4
 1875 0092 07       		.byte	0x7
 1876 0093 79050000 		.4byte	.LASF12
 1877 0097 03       		.uleb128 0x3
 1878 0098 08       		.byte	0x8
 1879 0099 07       		.byte	0x7
 1880 009a 57010000 		.4byte	.LASF13
 1881 009e 03       		.uleb128 0x3
 1882 009f 04       		.byte	0x4
 1883 00a0 07       		.byte	0x7
 1884 00a1 70050000 		.4byte	.LASF14
 1885 00a5 05       		.uleb128 0x5
 1886 00a6 04       		.byte	0x4
 1887 00a7 AB000000 		.4byte	0xab
 1888 00ab 03       		.uleb128 0x3
 1889 00ac 01       		.byte	0x1
 1890 00ad 08       		.byte	0x8
 1891 00ae F5020000 		.4byte	.LASF15
 1892 00b2 05       		.uleb128 0x5
 1893 00b3 04       		.byte	0x4
 1894 00b4 B8000000 		.4byte	0xb8
 1895 00b8 06       		.uleb128 0x6
 1896 00b9 AB000000 		.4byte	0xab
 1897 00bd 04       		.uleb128 0x4
 1898 00be 97030000 		.4byte	.LASF16
 1899 00c2 04       		.byte	0x4
 1900 00c3 18       		.byte	0x18
 1901 00c4 48000000 		.4byte	0x48
 1902 00c8 04       		.uleb128 0x4
 1903 00c9 2D010000 		.4byte	.LASF17
 1904 00cd 04       		.byte	0x4
 1905 00ce 20       		.byte	0x20
 1906 00cf 5A000000 		.4byte	0x5a
 1907 00d3 04       		.uleb128 0x4
 1908 00d4 AA040000 		.4byte	.LASF18
 1909 00d8 04       		.byte	0x4
 1910 00d9 24       		.byte	0x24
 1911 00da 6C000000 		.4byte	0x6c
 1912 00de 04       		.uleb128 0x4
 1913 00df 1C010000 		.4byte	.LASF19
ARM GAS  C:\Users\d3bug\AppData\Local\Temp\ccfzCIuT.s 			page 54


 1914 00e3 04       		.byte	0x4
 1915 00e4 30       		.byte	0x30
 1916 00e5 85000000 		.4byte	0x85
 1917 00e9 04       		.uleb128 0x4
 1918 00ea 29050000 		.4byte	.LASF20
 1919 00ee 05       		.byte	0x5
 1920 00ef 1E       		.byte	0x1e
 1921 00f0 C8000000 		.4byte	0xc8
 1922 00f4 07       		.uleb128 0x7
 1923 00f5 04       		.byte	0x4
 1924 00f6 05       		.byte	0x5
 1925 00f7 20       		.byte	0x20
 1926 00f8 11010000 		.4byte	0x111
 1927 00fc 08       		.uleb128 0x8
 1928 00fd 7800     		.ascii	"x\000"
 1929 00ff 05       		.byte	0x5
 1930 0100 22       		.byte	0x22
 1931 0101 E9000000 		.4byte	0xe9
 1932 0105 00       		.byte	0
 1933 0106 08       		.uleb128 0x8
 1934 0107 7900     		.ascii	"y\000"
 1935 0109 05       		.byte	0x5
 1936 010a 23       		.byte	0x23
 1937 010b E9000000 		.4byte	0xe9
 1938 010f 02       		.byte	0x2
 1939 0110 00       		.byte	0
 1940 0111 04       		.uleb128 0x4
 1941 0112 9A000000 		.4byte	.LASF21
 1942 0116 05       		.byte	0x5
 1943 0117 24       		.byte	0x24
 1944 0118 F4000000 		.4byte	0xf4
 1945 011c 07       		.uleb128 0x7
 1946 011d 04       		.byte	0x4
 1947 011e 02       		.byte	0x2
 1948 011f 25       		.byte	0x25
 1949 0120 43010000 		.4byte	0x143
 1950 0124 09       		.uleb128 0x9
 1951 0125 97010000 		.4byte	.LASF22
 1952 0129 02       		.byte	0x2
 1953 012a 27       		.byte	0x27
 1954 012b DE000000 		.4byte	0xde
 1955 012f 04       		.byte	0x4
 1956 0130 08       		.byte	0x8
 1957 0131 18       		.byte	0x18
 1958 0132 00       		.byte	0
 1959 0133 09       		.uleb128 0x9
 1960 0134 AB050000 		.4byte	.LASF23
 1961 0138 02       		.byte	0x2
 1962 0139 28       		.byte	0x28
 1963 013a DE000000 		.4byte	0xde
 1964 013e 04       		.byte	0x4
 1965 013f 18       		.byte	0x18
 1966 0140 00       		.byte	0
 1967 0141 00       		.byte	0
 1968 0142 00       		.byte	0
 1969 0143 04       		.uleb128 0x4
 1970 0144 75030000 		.4byte	.LASF24
ARM GAS  C:\Users\d3bug\AppData\Local\Temp\ccfzCIuT.s 			page 55


 1971 0148 02       		.byte	0x2
 1972 0149 29       		.byte	0x29
 1973 014a 1C010000 		.4byte	0x11c
 1974 014e 0A       		.uleb128 0xa
 1975 014f C0020000 		.4byte	.LASF119
 1976 0153 28       		.byte	0x28
 1977 0154 02       		.byte	0x2
 1978 0155 31       		.byte	0x31
 1979 0156 F4010000 		.4byte	0x1f4
 1980 015a 0B       		.uleb128 0xb
 1981 015b D7060000 		.4byte	.LASF25
 1982 015f 02       		.byte	0x2
 1983 0160 33       		.byte	0x33
 1984 0161 DE000000 		.4byte	0xde
 1985 0165 00       		.byte	0
 1986 0166 0B       		.uleb128 0xb
 1987 0167 E5060000 		.4byte	.LASF26
 1988 016b 02       		.byte	0x2
 1989 016c 34       		.byte	0x34
 1990 016d DE000000 		.4byte	0xde
 1991 0171 04       		.byte	0x4
 1992 0172 0B       		.uleb128 0xb
 1993 0173 79040000 		.4byte	.LASF27
 1994 0177 02       		.byte	0x2
 1995 0178 35       		.byte	0x35
 1996 0179 F4010000 		.4byte	0x1f4
 1997 017d 08       		.byte	0x8
 1998 017e 0B       		.uleb128 0xb
 1999 017f C4060000 		.4byte	.LASF28
 2000 0183 02       		.byte	0x2
 2001 0184 36       		.byte	0x36
 2002 0185 FF010000 		.4byte	0x1ff
 2003 0189 0C       		.byte	0xc
 2004 018a 0B       		.uleb128 0xb
 2005 018b B9000000 		.4byte	.LASF29
 2006 018f 02       		.byte	0x2
 2007 0190 37       		.byte	0x37
 2008 0191 0A020000 		.4byte	0x20a
 2009 0195 10       		.byte	0x10
 2010 0196 0B       		.uleb128 0xb
 2011 0197 8F000000 		.4byte	.LASF30
 2012 019b 02       		.byte	0x2
 2013 019c 38       		.byte	0x38
 2014 019d 34020000 		.4byte	0x234
 2015 01a1 14       		.byte	0x14
 2016 01a2 0B       		.uleb128 0xb
 2017 01a3 47060000 		.4byte	.LASF31
 2018 01a7 02       		.byte	0x2
 2019 01a8 39       		.byte	0x39
 2020 01a9 4E020000 		.4byte	0x24e
 2021 01ad 18       		.byte	0x18
 2022 01ae 0B       		.uleb128 0xb
 2023 01af B1010000 		.4byte	.LASF32
 2024 01b3 02       		.byte	0x2
 2025 01b4 3A       		.byte	0x3a
 2026 01b5 54020000 		.4byte	0x254
 2027 01b9 1C       		.byte	0x1c
ARM GAS  C:\Users\d3bug\AppData\Local\Temp\ccfzCIuT.s 			page 56


 2028 01ba 09       		.uleb128 0x9
 2029 01bb 08050000 		.4byte	.LASF33
 2030 01bf 02       		.byte	0x2
 2031 01c0 3B       		.byte	0x3b
 2032 01c1 DE000000 		.4byte	0xde
 2033 01c5 04       		.byte	0x4
 2034 01c6 08       		.byte	0x8
 2035 01c7 18       		.byte	0x18
 2036 01c8 20       		.byte	0x20
 2037 01c9 0C       		.uleb128 0xc
 2038 01ca 62707000 		.ascii	"bpp\000"
 2039 01ce 02       		.byte	0x2
 2040 01cf 3C       		.byte	0x3c
 2041 01d0 DE000000 		.4byte	0xde
 2042 01d4 04       		.byte	0x4
 2043 01d5 04       		.byte	0x4
 2044 01d6 14       		.byte	0x14
 2045 01d7 20       		.byte	0x20
 2046 01d8 09       		.uleb128 0x9
 2047 01d9 8B050000 		.4byte	.LASF34
 2048 01dd 02       		.byte	0x2
 2049 01de 3D       		.byte	0x3d
 2050 01df DE000000 		.4byte	0xde
 2051 01e3 04       		.byte	0x4
 2052 01e4 08       		.byte	0x8
 2053 01e5 0C       		.byte	0xc
 2054 01e6 20       		.byte	0x20
 2055 01e7 0B       		.uleb128 0xb
 2056 01e8 4D010000 		.4byte	.LASF35
 2057 01ec 02       		.byte	0x2
 2058 01ed 3E       		.byte	0x3e
 2059 01ee D3000000 		.4byte	0xd3
 2060 01f2 24       		.byte	0x24
 2061 01f3 00       		.byte	0
 2062 01f4 05       		.uleb128 0x5
 2063 01f5 04       		.byte	0x4
 2064 01f6 FA010000 		.4byte	0x1fa
 2065 01fa 06       		.uleb128 0x6
 2066 01fb BD000000 		.4byte	0xbd
 2067 01ff 05       		.uleb128 0x5
 2068 0200 04       		.byte	0x4
 2069 0201 05020000 		.4byte	0x205
 2070 0205 06       		.uleb128 0x6
 2071 0206 43010000 		.4byte	0x143
 2072 020a 05       		.uleb128 0x5
 2073 020b 04       		.byte	0x4
 2074 020c 10020000 		.4byte	0x210
 2075 0210 06       		.uleb128 0x6
 2076 0211 DE000000 		.4byte	0xde
 2077 0215 0D       		.uleb128 0xd
 2078 0216 F4010000 		.4byte	0x1f4
 2079 021a 29020000 		.4byte	0x229
 2080 021e 0E       		.uleb128 0xe
 2081 021f 29020000 		.4byte	0x229
 2082 0223 0E       		.uleb128 0xe
 2083 0224 DE000000 		.4byte	0xde
 2084 0228 00       		.byte	0
ARM GAS  C:\Users\d3bug\AppData\Local\Temp\ccfzCIuT.s 			page 57


 2085 0229 05       		.uleb128 0x5
 2086 022a 04       		.byte	0x4
 2087 022b 2F020000 		.4byte	0x22f
 2088 022f 06       		.uleb128 0x6
 2089 0230 4E010000 		.4byte	0x14e
 2090 0234 05       		.uleb128 0x5
 2091 0235 04       		.byte	0x4
 2092 0236 15020000 		.4byte	0x215
 2093 023a 0D       		.uleb128 0xd
 2094 023b C8000000 		.4byte	0xc8
 2095 023f 4E020000 		.4byte	0x24e
 2096 0243 0E       		.uleb128 0xe
 2097 0244 29020000 		.4byte	0x229
 2098 0248 0E       		.uleb128 0xe
 2099 0249 DE000000 		.4byte	0xde
 2100 024d 00       		.byte	0
 2101 024e 05       		.uleb128 0x5
 2102 024f 04       		.byte	0x4
 2103 0250 3A020000 		.4byte	0x23a
 2104 0254 05       		.uleb128 0x5
 2105 0255 04       		.byte	0x4
 2106 0256 4E010000 		.4byte	0x14e
 2107 025a 04       		.uleb128 0x4
 2108 025b C6040000 		.4byte	.LASF36
 2109 025f 02       		.byte	0x2
 2110 0260 3F       		.byte	0x3f
 2111 0261 4E010000 		.4byte	0x14e
 2112 0265 0F       		.uleb128 0xf
 2113 0266 01       		.byte	0x1
 2114 0267 53000000 		.4byte	0x53
 2115 026b 06       		.byte	0x6
 2116 026c 24       		.byte	0x24
 2117 026d 90020000 		.4byte	0x290
 2118 0271 10       		.uleb128 0x10
 2119 0272 A0060000 		.4byte	.LASF37
 2120 0276 00       		.byte	0
 2121 0277 10       		.uleb128 0x10
 2122 0278 E0000000 		.4byte	.LASF38
 2123 027c 01       		.byte	0x1
 2124 027d 10       		.uleb128 0x10
 2125 027e B1060000 		.4byte	.LASF39
 2126 0282 02       		.byte	0x2
 2127 0283 10       		.uleb128 0x10
 2128 0284 09010000 		.4byte	.LASF40
 2129 0288 04       		.byte	0x4
 2130 0289 10       		.uleb128 0x10
 2131 028a BB010000 		.4byte	.LASF41
 2132 028e 08       		.byte	0x8
 2133 028f 00       		.byte	0
 2134 0290 04       		.uleb128 0x4
 2135 0291 70060000 		.4byte	.LASF42
 2136 0295 06       		.byte	0x6
 2137 0296 2B       		.byte	0x2b
 2138 0297 BD000000 		.4byte	0xbd
 2139 029b 0F       		.uleb128 0xf
 2140 029c 01       		.byte	0x1
 2141 029d 53000000 		.4byte	0x53
ARM GAS  C:\Users\d3bug\AppData\Local\Temp\ccfzCIuT.s 			page 58


 2142 02a1 06       		.byte	0x6
 2143 02a2 2E       		.byte	0x2e
 2144 02a3 BA020000 		.4byte	0x2ba
 2145 02a7 10       		.uleb128 0x10
 2146 02a8 95050000 		.4byte	.LASF43
 2147 02ac 00       		.byte	0
 2148 02ad 10       		.uleb128 0x10
 2149 02ae 2B040000 		.4byte	.LASF44
 2150 02b2 01       		.byte	0x1
 2151 02b3 10       		.uleb128 0x10
 2152 02b4 A4020000 		.4byte	.LASF45
 2153 02b8 02       		.byte	0x2
 2154 02b9 00       		.byte	0
 2155 02ba 04       		.uleb128 0x4
 2156 02bb DB020000 		.4byte	.LASF46
 2157 02bf 06       		.byte	0x6
 2158 02c0 33       		.byte	0x33
 2159 02c1 BD000000 		.4byte	0xbd
 2160 02c5 11       		.uleb128 0x11
 2161 02c6 47000000 		.4byte	.LASF120
 2162 02ca 02       		.byte	0x2
 2163 02cb 7E       		.byte	0x7e
 2164 02cc BD000000 		.4byte	0xbd
 2165 02d0 03       		.byte	0x3
 2166 02d1 E1020000 		.4byte	0x2e1
 2167 02d5 12       		.uleb128 0x12
 2168 02d6 EE020000 		.4byte	.LASF121
 2169 02da 02       		.byte	0x2
 2170 02db 7E       		.byte	0x7e
 2171 02dc E1020000 		.4byte	0x2e1
 2172 02e0 00       		.byte	0
 2173 02e1 05       		.uleb128 0x5
 2174 02e2 04       		.byte	0x4
 2175 02e3 E7020000 		.4byte	0x2e7
 2176 02e7 06       		.uleb128 0x6
 2177 02e8 5A020000 		.4byte	0x25a
 2178 02ec 13       		.uleb128 0x13
 2179 02ed 3C010000 		.4byte	.LASF47
 2180 02f1 01       		.byte	0x1
 2181 02f2 B201     		.2byte	0x1b2
 2182 02f4 BD000000 		.4byte	0xbd
 2183 02f8 00000000 		.4byte	.LFB10
 2184 02fc 34000000 		.4byte	.LFE10-.LFB10
 2185 0300 01       		.uleb128 0x1
 2186 0301 9C       		.byte	0x9c
 2187 0302 17030000 		.4byte	0x317
 2188 0306 14       		.uleb128 0x14
 2189 0307 73747200 		.ascii	"str\000"
 2190 030b 01       		.byte	0x1
 2191 030c B201     		.2byte	0x1b2
 2192 030e B2000000 		.4byte	0xb2
 2193 0312 00000000 		.4byte	.LLST0
 2194 0316 00       		.byte	0
 2195 0317 13       		.uleb128 0x13
 2196 0318 B7050000 		.4byte	.LASF48
 2197 031c 01       		.byte	0x1
 2198 031d C101     		.2byte	0x1c1
ARM GAS  C:\Users\d3bug\AppData\Local\Temp\ccfzCIuT.s 			page 59


 2199 031f DE000000 		.4byte	0xde
 2200 0323 00000000 		.4byte	.LFB11
 2201 0327 9E000000 		.4byte	.LFE11-.LFB11
 2202 032b 01       		.uleb128 0x1
 2203 032c 9C       		.byte	0x9c
 2204 032d 61030000 		.4byte	0x361
 2205 0331 15       		.uleb128 0x15
 2206 0332 57040000 		.4byte	.LASF49
 2207 0336 01       		.byte	0x1
 2208 0337 C101     		.2byte	0x1c1
 2209 0339 DE000000 		.4byte	0xde
 2210 033d 85000000 		.4byte	.LLST1
 2211 0341 16       		.uleb128 0x16
 2212 0342 FB040000 		.4byte	.LASF50
 2213 0346 01       		.byte	0x1
 2214 0347 C401     		.2byte	0x1c4
 2215 0349 61030000 		.4byte	0x361
 2216 034d 02       		.uleb128 0x2
 2217 034e 91       		.byte	0x91
 2218 034f 7C       		.sleb128 -4
 2219 0350 17       		.uleb128 0x17
 2220 0351 96020000 		.4byte	.LASF51
 2221 0355 01       		.byte	0x1
 2222 0356 D701     		.2byte	0x1d7
 2223 0358 71030000 		.4byte	0x371
 2224 035c D8000000 		.4byte	.LLST2
 2225 0360 00       		.byte	0
 2226 0361 18       		.uleb128 0x18
 2227 0362 BD000000 		.4byte	0xbd
 2228 0366 71030000 		.4byte	0x371
 2229 036a 19       		.uleb128 0x19
 2230 036b 9E000000 		.4byte	0x9e
 2231 036f 03       		.byte	0x3
 2232 0370 00       		.byte	0
 2233 0371 05       		.uleb128 0x5
 2234 0372 04       		.byte	0x4
 2235 0373 DE000000 		.4byte	0xde
 2236 0377 13       		.uleb128 0x13
 2237 0378 6E010000 		.4byte	.LASF52
 2238 037c 01       		.byte	0x1
 2239 037d E001     		.2byte	0x1e0
 2240 037f DE000000 		.4byte	0xde
 2241 0383 00000000 		.4byte	.LFB12
 2242 0387 36000000 		.4byte	.LFE12-.LFB12
 2243 038b 01       		.uleb128 0x1
 2244 038c 9C       		.byte	0x9c
 2245 038d D6030000 		.4byte	0x3d6
 2246 0391 14       		.uleb128 0x14
 2247 0392 6300     		.ascii	"c\000"
 2248 0394 01       		.byte	0x1
 2249 0395 E001     		.2byte	0x1e0
 2250 0397 DE000000 		.4byte	0xde
 2251 039b FA000000 		.4byte	.LLST3
 2252 039f 1A       		.uleb128 0x1a
 2253 03a0 08000000 		.4byte	.LBB4
 2254 03a4 2A000000 		.4byte	.LBE4-.LBB4
 2255 03a8 17       		.uleb128 0x17
ARM GAS  C:\Users\d3bug\AppData\Local\Temp\ccfzCIuT.s 			page 60


 2256 03a9 BE040000 		.4byte	.LASF53
 2257 03ad 01       		.byte	0x1
 2258 03ae E401     		.2byte	0x1e4
 2259 03b0 DE000000 		.4byte	0xde
 2260 03b4 26010000 		.4byte	.LLST4
 2261 03b8 1B       		.uleb128 0x1b
 2262 03b9 633800   		.ascii	"c8\000"
 2263 03bc 01       		.byte	0x1
 2264 03bd E501     		.2byte	0x1e5
 2265 03bf 61030000 		.4byte	0x361
 2266 03c3 02       		.uleb128 0x2
 2267 03c4 91       		.byte	0x91
 2268 03c5 7C       		.sleb128 -4
 2269 03c6 1C       		.uleb128 0x1c
 2270 03c7 6900     		.ascii	"i\000"
 2271 03c9 01       		.byte	0x1
 2272 03ca E801     		.2byte	0x1e8
 2273 03cc BD000000 		.4byte	0xbd
 2274 03d0 39010000 		.4byte	.LLST5
 2275 03d4 00       		.byte	0
 2276 03d5 00       		.byte	0
 2277 03d6 13       		.uleb128 0x13
 2278 03d7 DF050000 		.4byte	.LASF54
 2279 03db 01       		.byte	0x1
 2280 03dc FA01     		.2byte	0x1fa
 2281 03de DE000000 		.4byte	0xde
 2282 03e2 00000000 		.4byte	.LFB13
 2283 03e6 FC000000 		.4byte	.LFE13-.LFB13
 2284 03ea 01       		.uleb128 0x1
 2285 03eb 9C       		.byte	0x9c
 2286 03ec 2E040000 		.4byte	0x42e
 2287 03f0 14       		.uleb128 0x14
 2288 03f1 74787400 		.ascii	"txt\000"
 2289 03f5 01       		.byte	0x1
 2290 03f6 FA01     		.2byte	0x1fa
 2291 03f8 B2000000 		.4byte	0xb2
 2292 03fc 63010000 		.4byte	.LLST6
 2293 0400 14       		.uleb128 0x14
 2294 0401 6900     		.ascii	"i\000"
 2295 0403 01       		.byte	0x1
 2296 0404 FA01     		.2byte	0x1fa
 2297 0406 71030000 		.4byte	0x371
 2298 040a 33020000 		.4byte	.LLST7
 2299 040e 17       		.uleb128 0x17
 2300 040f 35010000 		.4byte	.LASF55
 2301 0413 01       		.byte	0x1
 2302 0414 0302     		.2byte	0x203
 2303 0416 DE000000 		.4byte	0xde
 2304 041a 51020000 		.4byte	.LLST8
 2305 041e 16       		.uleb128 0x16
 2306 041f 6F030000 		.4byte	.LASF56
 2307 0423 01       		.byte	0x1
 2308 0424 0602     		.2byte	0x206
 2309 0426 DE000000 		.4byte	0xde
 2310 042a 02       		.uleb128 0x2
 2311 042b 91       		.byte	0x91
 2312 042c 74       		.sleb128 -12
ARM GAS  C:\Users\d3bug\AppData\Local\Temp\ccfzCIuT.s 			page 61


 2313 042d 00       		.byte	0
 2314 042e 1D       		.uleb128 0x1d
 2315 042f 36060000 		.4byte	.LASF57
 2316 0433 01       		.byte	0x1
 2317 0434 4202     		.2byte	0x242
 2318 0436 DE000000 		.4byte	0xde
 2319 043a 00000000 		.4byte	.LFB14
 2320 043e 50000000 		.4byte	.LFE14-.LFB14
 2321 0442 01       		.uleb128 0x1
 2322 0443 9C       		.byte	0x9c
 2323 0444 B4040000 		.4byte	0x4b4
 2324 0448 14       		.uleb128 0x14
 2325 0449 74787400 		.ascii	"txt\000"
 2326 044d 01       		.byte	0x1
 2327 044e 4202     		.2byte	0x242
 2328 0450 B2000000 		.4byte	0xb2
 2329 0454 33030000 		.4byte	.LLST9
 2330 0458 14       		.uleb128 0x14
 2331 0459 6900     		.ascii	"i\000"
 2332 045b 01       		.byte	0x1
 2333 045c 4202     		.2byte	0x242
 2334 045e 71030000 		.4byte	0x371
 2335 0462 5F030000 		.4byte	.LLST10
 2336 0466 17       		.uleb128 0x17
 2337 0467 63030000 		.4byte	.LASF58
 2338 046b 01       		.byte	0x1
 2339 046c 4402     		.2byte	0x244
 2340 046e BD000000 		.4byte	0xbd
 2341 0472 8B030000 		.4byte	.LLST11
 2342 0476 1C       		.uleb128 0x1c
 2343 0477 636E7400 		.ascii	"cnt\000"
 2344 047b 01       		.byte	0x1
 2345 047c 4502     		.2byte	0x245
 2346 047e BD000000 		.4byte	0xbd
 2347 0482 9E030000 		.4byte	.LLST12
 2348 0486 16       		.uleb128 0x16
 2349 0487 6F030000 		.4byte	.LASF56
 2350 048b 01       		.byte	0x1
 2351 048c 5402     		.2byte	0x254
 2352 048e DE000000 		.4byte	0xde
 2353 0492 02       		.uleb128 0x2
 2354 0493 91       		.byte	0x91
 2355 0494 6C       		.sleb128 -20
 2356 0495 1E       		.uleb128 0x1e
 2357 0496 89020000 		.4byte	.LASF67
 2358 049a 01       		.byte	0x1
 2359 049b 5502     		.2byte	0x255
 2360 049d DE000000 		.4byte	0xde
 2361 04a1 1F       		.uleb128 0x1f
 2362 04a2 42000000 		.4byte	.LVL68
 2363 04a6 20       		.uleb128 0x20
 2364 04a7 01       		.uleb128 0x1
 2365 04a8 50       		.byte	0x50
 2366 04a9 02       		.uleb128 0x2
 2367 04aa 76       		.byte	0x76
 2368 04ab 00       		.sleb128 0
 2369 04ac 20       		.uleb128 0x20
ARM GAS  C:\Users\d3bug\AppData\Local\Temp\ccfzCIuT.s 			page 62


 2370 04ad 01       		.uleb128 0x1
 2371 04ae 51       		.byte	0x51
 2372 04af 02       		.uleb128 0x2
 2373 04b0 91       		.byte	0x91
 2374 04b1 6C       		.sleb128 -20
 2375 04b2 00       		.byte	0
 2376 04b3 00       		.byte	0
 2377 04b4 13       		.uleb128 0x13
 2378 04b5 5A000000 		.4byte	.LASF59
 2379 04b9 01       		.byte	0x1
 2380 04ba 6202     		.2byte	0x262
 2381 04bc DE000000 		.4byte	0xde
 2382 04c0 00000000 		.4byte	.LFB15
 2383 04c4 24000000 		.4byte	.LFE15-.LFB15
 2384 04c8 01       		.uleb128 0x1
 2385 04c9 9C       		.byte	0x9c
 2386 04ca 1C050000 		.4byte	0x51c
 2387 04ce 14       		.uleb128 0x14
 2388 04cf 74787400 		.ascii	"txt\000"
 2389 04d3 01       		.byte	0x1
 2390 04d4 6202     		.2byte	0x262
 2391 04d6 B2000000 		.4byte	0xb2
 2392 04da C8030000 		.4byte	.LLST13
 2393 04de 15       		.uleb128 0x15
 2394 04df 9C020000 		.4byte	.LASF60
 2395 04e3 01       		.byte	0x1
 2396 04e4 6202     		.2byte	0x262
 2397 04e6 DE000000 		.4byte	0xde
 2398 04ea F4030000 		.4byte	.LLST14
 2399 04ee 1C       		.uleb128 0x1c
 2400 04ef 6900     		.ascii	"i\000"
 2401 04f1 01       		.byte	0x1
 2402 04f2 6402     		.2byte	0x264
 2403 04f4 DE000000 		.4byte	0xde
 2404 04f8 20040000 		.4byte	.LLST15
 2405 04fc 17       		.uleb128 0x17
 2406 04fd CE060000 		.4byte	.LASF61
 2407 0501 01       		.byte	0x1
 2408 0502 6502     		.2byte	0x265
 2409 0504 DE000000 		.4byte	0xde
 2410 0508 3F040000 		.4byte	.LLST16
 2411 050c 1F       		.uleb128 0x1f
 2412 050d 14000000 		.4byte	.LVL73
 2413 0511 20       		.uleb128 0x20
 2414 0512 01       		.uleb128 0x1
 2415 0513 50       		.byte	0x50
 2416 0514 05       		.uleb128 0x5
 2417 0515 77       		.byte	0x77
 2418 0516 00       		.sleb128 0
 2419 0517 74       		.byte	0x74
 2420 0518 00       		.sleb128 0
 2421 0519 22       		.byte	0x22
 2422 051a 00       		.byte	0
 2423 051b 00       		.byte	0
 2424 051c 13       		.uleb128 0x13
 2425 051d 05030000 		.4byte	.LASF62
 2426 0521 01       		.byte	0x1
ARM GAS  C:\Users\d3bug\AppData\Local\Temp\ccfzCIuT.s 			page 63


 2427 0522 7602     		.2byte	0x276
 2428 0524 DE000000 		.4byte	0xde
 2429 0528 00000000 		.4byte	.LFB16
 2430 052c 2C000000 		.4byte	.LFE16-.LFB16
 2431 0530 01       		.uleb128 0x1
 2432 0531 9C       		.byte	0x9c
 2433 0532 86050000 		.4byte	0x586
 2434 0536 14       		.uleb128 0x14
 2435 0537 74787400 		.ascii	"txt\000"
 2436 053b 01       		.byte	0x1
 2437 053c 7602     		.2byte	0x276
 2438 053e B2000000 		.4byte	0xb2
 2439 0542 69040000 		.4byte	.LLST17
 2440 0546 15       		.uleb128 0x15
 2441 0547 51060000 		.4byte	.LASF63
 2442 054b 01       		.byte	0x1
 2443 054c 7602     		.2byte	0x276
 2444 054e DE000000 		.4byte	0xde
 2445 0552 95040000 		.4byte	.LLST18
 2446 0556 1B       		.uleb128 0x1b
 2447 0557 6900     		.ascii	"i\000"
 2448 0559 01       		.byte	0x1
 2449 055a 7802     		.2byte	0x278
 2450 055c DE000000 		.4byte	0xde
 2451 0560 02       		.uleb128 0x2
 2452 0561 91       		.byte	0x91
 2453 0562 6C       		.sleb128 -20
 2454 0563 17       		.uleb128 0x17
 2455 0564 D6050000 		.4byte	.LASF64
 2456 0568 01       		.byte	0x1
 2457 0569 7902     		.2byte	0x279
 2458 056b DE000000 		.4byte	0xde
 2459 056f C1040000 		.4byte	.LLST19
 2460 0573 1F       		.uleb128 0x1f
 2461 0574 18000000 		.4byte	.LVL80
 2462 0578 20       		.uleb128 0x20
 2463 0579 01       		.uleb128 0x1
 2464 057a 50       		.byte	0x50
 2465 057b 02       		.uleb128 0x2
 2466 057c 76       		.byte	0x76
 2467 057d 00       		.sleb128 0
 2468 057e 20       		.uleb128 0x20
 2469 057f 01       		.uleb128 0x1
 2470 0580 51       		.byte	0x51
 2471 0581 02       		.uleb128 0x2
 2472 0582 91       		.byte	0x91
 2473 0583 6C       		.sleb128 -20
 2474 0584 00       		.byte	0
 2475 0585 00       		.byte	0
 2476 0586 13       		.uleb128 0x13
 2477 0587 DB030000 		.4byte	.LASF65
 2478 058b 01       		.byte	0x1
 2479 058c 8902     		.2byte	0x289
 2480 058e DE000000 		.4byte	0xde
 2481 0592 00000000 		.4byte	.LFB17
 2482 0596 2C000000 		.4byte	.LFE17-.LFB17
 2483 059a 01       		.uleb128 0x1
ARM GAS  C:\Users\d3bug\AppData\Local\Temp\ccfzCIuT.s 			page 64


 2484 059b 9C       		.byte	0x9c
 2485 059c E0050000 		.4byte	0x5e0
 2486 05a0 14       		.uleb128 0x14
 2487 05a1 74787400 		.ascii	"txt\000"
 2488 05a5 01       		.byte	0x1
 2489 05a6 8902     		.2byte	0x289
 2490 05a8 B2000000 		.4byte	0xb2
 2491 05ac EB040000 		.4byte	.LLST20
 2492 05b0 1C       		.uleb128 0x1c
 2493 05b1 6C656E00 		.ascii	"len\000"
 2494 05b5 01       		.byte	0x1
 2495 05b6 8E02     		.2byte	0x28e
 2496 05b8 DE000000 		.4byte	0xde
 2497 05bc 17050000 		.4byte	.LLST21
 2498 05c0 1B       		.uleb128 0x1b
 2499 05c1 6900     		.ascii	"i\000"
 2500 05c3 01       		.byte	0x1
 2501 05c4 8F02     		.2byte	0x28f
 2502 05c6 DE000000 		.4byte	0xde
 2503 05ca 02       		.uleb128 0x2
 2504 05cb 91       		.byte	0x91
 2505 05cc 6C       		.sleb128 -20
 2506 05cd 1F       		.uleb128 0x1f
 2507 05ce 16000000 		.4byte	.LVL86
 2508 05d2 20       		.uleb128 0x20
 2509 05d3 01       		.uleb128 0x1
 2510 05d4 50       		.byte	0x50
 2511 05d5 02       		.uleb128 0x2
 2512 05d6 75       		.byte	0x75
 2513 05d7 00       		.sleb128 0
 2514 05d8 20       		.uleb128 0x20
 2515 05d9 01       		.uleb128 0x1
 2516 05da 51       		.byte	0x51
 2517 05db 02       		.uleb128 0x2
 2518 05dc 91       		.byte	0x91
 2519 05dd 6C       		.sleb128 -20
 2520 05de 00       		.byte	0
 2521 05df 00       		.byte	0
 2522 05e0 13       		.uleb128 0x13
 2523 05e1 7B020000 		.4byte	.LASF66
 2524 05e5 01       		.byte	0x1
 2525 05e6 0A03     		.2byte	0x30a
 2526 05e8 29060000 		.4byte	0x629
 2527 05ec 00000000 		.4byte	.LFB18
 2528 05f0 20000000 		.4byte	.LFE18-.LFB18
 2529 05f4 01       		.uleb128 0x1
 2530 05f5 9C       		.byte	0x9c
 2531 05f6 29060000 		.4byte	0x629
 2532 05fa 15       		.uleb128 0x15
 2533 05fb 89020000 		.4byte	.LASF67
 2534 05ff 01       		.byte	0x1
 2535 0600 0A03     		.2byte	0x30a
 2536 0602 DE000000 		.4byte	0xde
 2537 0606 41050000 		.4byte	.LLST22
 2538 060a 1C       		.uleb128 0x1c
 2539 060b 6900     		.ascii	"i\000"
 2540 060d 01       		.byte	0x1
ARM GAS  C:\Users\d3bug\AppData\Local\Temp\ccfzCIuT.s 			page 65


 2541 060e 0C03     		.2byte	0x30c
 2542 0610 BD000000 		.4byte	0xbd
 2543 0614 7B050000 		.4byte	.LLST23
 2544 0618 1C       		.uleb128 0x1c
 2545 0619 72657400 		.ascii	"ret\000"
 2546 061d 01       		.byte	0x1
 2547 061e 0D03     		.2byte	0x30d
 2548 0620 29060000 		.4byte	0x629
 2549 0624 A5050000 		.4byte	.LLST24
 2550 0628 00       		.byte	0
 2551 0629 03       		.uleb128 0x3
 2552 062a 01       		.byte	0x1
 2553 062b 02       		.byte	0x2
 2554 062c 90020000 		.4byte	.LASF68
 2555 0630 21       		.uleb128 0x21
 2556 0631 89030000 		.4byte	.LASF70
 2557 0635 01       		.byte	0x1
 2558 0636 5C01     		.2byte	0x15c
 2559 0638 29060000 		.4byte	0x629
 2560 063c 00000000 		.4byte	.LFB7
 2561 0640 46000000 		.4byte	.LFE7-.LFB7
 2562 0644 01       		.uleb128 0x1
 2563 0645 9C       		.byte	0x9c
 2564 0646 77060000 		.4byte	0x677
 2565 064a 15       		.uleb128 0x15
 2566 064b 22060000 		.4byte	.LASF69
 2567 064f 01       		.byte	0x1
 2568 0650 5C01     		.2byte	0x15c
 2569 0652 77060000 		.4byte	0x677
 2570 0656 C4050000 		.4byte	.LLST25
 2571 065a 22       		.uleb128 0x22
 2572 065b 6300     		.ascii	"c\000"
 2573 065d 01       		.byte	0x1
 2574 065e 5C01     		.2byte	0x15c
 2575 0660 DE000000 		.4byte	0xde
 2576 0664 01       		.uleb128 0x1
 2577 0665 51       		.byte	0x51
 2578 0666 1C       		.uleb128 0x1c
 2579 0667 72657400 		.ascii	"ret\000"
 2580 066b 01       		.byte	0x1
 2581 066c 5E01     		.2byte	0x15e
 2582 066e 29060000 		.4byte	0x629
 2583 0672 3A060000 		.4byte	.LLST26
 2584 0676 00       		.byte	0
 2585 0677 05       		.uleb128 0x5
 2586 0678 04       		.byte	0x4
 2587 0679 BA020000 		.4byte	0x2ba
 2588 067d 23       		.uleb128 0x23
 2589 067e 82010000 		.4byte	.LASF71
 2590 0682 01       		.byte	0x1
 2591 0683 99       		.byte	0x99
 2592 0684 D3000000 		.4byte	0xd3
 2593 0688 00000000 		.4byte	.LFB5
 2594 068c 1C020000 		.4byte	.LFE5-.LFB5
 2595 0690 01       		.uleb128 0x1
 2596 0691 9C       		.byte	0x9c
 2597 0692 7E090000 		.4byte	0x97e
ARM GAS  C:\Users\d3bug\AppData\Local\Temp\ccfzCIuT.s 			page 66


 2598 0696 24       		.uleb128 0x24
 2599 0697 74787400 		.ascii	"txt\000"
 2600 069b 01       		.byte	0x1
 2601 069c 99       		.byte	0x99
 2602 069d B2000000 		.4byte	0xb2
 2603 06a1 94060000 		.4byte	.LLST27
 2604 06a5 25       		.uleb128 0x25
 2605 06a6 6B050000 		.4byte	.LASF72
 2606 06aa 01       		.byte	0x1
 2607 06ab 99       		.byte	0x99
 2608 06ac E1020000 		.4byte	0x2e1
 2609 06b0 E4060000 		.4byte	.LLST28
 2610 06b4 25       		.uleb128 0x25
 2611 06b5 D0040000 		.4byte	.LASF73
 2612 06b9 01       		.byte	0x1
 2613 06ba 9A       		.byte	0x9a
 2614 06bb E9000000 		.4byte	0xe9
 2615 06bf 29070000 		.4byte	.LLST29
 2616 06c3 25       		.uleb128 0x25
 2617 06c4 D1030000 		.4byte	.LASF74
 2618 06c8 01       		.byte	0x1
 2619 06c9 9A       		.byte	0x9a
 2620 06ca E9000000 		.4byte	0xe9
 2621 06ce 63070000 		.4byte	.LLST30
 2622 06d2 25       		.uleb128 0x25
 2623 06d3 0D050000 		.4byte	.LASF75
 2624 06d7 01       		.byte	0x1
 2625 06d8 9A       		.byte	0x9a
 2626 06d9 90020000 		.4byte	0x290
 2627 06dd 9C070000 		.4byte	.LLST31
 2628 06e1 26       		.uleb128 0x26
 2629 06e2 6900     		.ascii	"i\000"
 2630 06e4 01       		.byte	0x1
 2631 06e5 A1       		.byte	0xa1
 2632 06e6 DE000000 		.4byte	0xde
 2633 06ea 02       		.uleb128 0x2
 2634 06eb 91       		.byte	0x91
 2635 06ec 54       		.sleb128 -44
 2636 06ed 27       		.uleb128 0x27
 2637 06ee 25040000 		.4byte	.LASF76
 2638 06f2 01       		.byte	0x1
 2639 06f3 A2       		.byte	0xa2
 2640 06f4 E9000000 		.4byte	0xe9
 2641 06f8 BC070000 		.4byte	.LLST32
 2642 06fc 27       		.uleb128 0x27
 2643 06fd 22000000 		.4byte	.LASF77
 2644 0701 01       		.byte	0x1
 2645 0702 A3       		.byte	0xa3
 2646 0703 E9000000 		.4byte	0xe9
 2647 0707 12080000 		.4byte	.LLST33
 2648 070b 27       		.uleb128 0x27
 2649 070c 86040000 		.4byte	.LASF78
 2650 0710 01       		.byte	0x1
 2651 0711 A4       		.byte	0xa4
 2652 0712 DE000000 		.4byte	0xde
 2653 0716 60080000 		.4byte	.LLST34
 2654 071a 27       		.uleb128 0x27
ARM GAS  C:\Users\d3bug\AppData\Local\Temp\ccfzCIuT.s 			page 67


 2655 071b 34050000 		.4byte	.LASF79
 2656 071f 01       		.byte	0x1
 2657 0720 A5       		.byte	0xa5
 2658 0721 DE000000 		.4byte	0xde
 2659 0725 CF080000 		.4byte	.LLST35
 2660 0729 28       		.uleb128 0x28
 2661 072a 9C010000 		.4byte	.LASF80
 2662 072e 01       		.byte	0x1
 2663 072f A6       		.byte	0xa6
 2664 0730 BA020000 		.4byte	0x2ba
 2665 0734 02       		.uleb128 0x2
 2666 0735 91       		.byte	0x91
 2667 0736 53       		.sleb128 -45
 2668 0737 27       		.uleb128 0x27
 2669 0738 89020000 		.4byte	.LASF67
 2670 073c 01       		.byte	0x1
 2671 073d A7       		.byte	0xa7
 2672 073e DE000000 		.4byte	0xde
 2673 0742 2A090000 		.4byte	.LLST36
 2674 0746 1A       		.uleb128 0x1a
 2675 0747 3E000000 		.4byte	.LBB5
 2676 074b BE010000 		.4byte	.LBE5-.LBB5
 2677 074f 27       		.uleb128 0x27
 2678 0750 4A040000 		.4byte	.LASF81
 2679 0754 01       		.byte	0x1
 2680 0755 AA       		.byte	0xaa
 2681 0756 E9000000 		.4byte	0xe9
 2682 075a 96090000 		.4byte	.LLST37
 2683 075e 29       		.uleb128 0x29
 2684 075f 68000000 		.4byte	.LBB6
 2685 0763 22000000 		.4byte	.LBE6-.LBB6
 2686 0767 9B070000 		.4byte	0x79b
 2687 076b 28       		.uleb128 0x28
 2688 076c 6F030000 		.4byte	.LASF56
 2689 0770 01       		.byte	0x1
 2690 0771 B7       		.byte	0xb7
 2691 0772 DE000000 		.4byte	0xde
 2692 0776 02       		.uleb128 0x2
 2693 0777 91       		.byte	0x91
 2694 0778 4C       		.sleb128 -52
 2695 0779 27       		.uleb128 0x27
 2696 077a FD000000 		.4byte	.LASF82
 2697 077e 01       		.byte	0x1
 2698 077f B8       		.byte	0xb8
 2699 0780 DE000000 		.4byte	0xde
 2700 0784 A9090000 		.4byte	.LLST38
 2701 0788 1F       		.uleb128 0x1f
 2702 0789 78000000 		.4byte	.LVL122
 2703 078d 20       		.uleb128 0x20
 2704 078e 01       		.uleb128 0x1
 2705 078f 50       		.byte	0x50
 2706 0790 02       		.uleb128 0x2
 2707 0791 77       		.byte	0x77
 2708 0792 00       		.sleb128 0
 2709 0793 20       		.uleb128 0x20
 2710 0794 01       		.uleb128 0x1
 2711 0795 51       		.byte	0x51
ARM GAS  C:\Users\d3bug\AppData\Local\Temp\ccfzCIuT.s 			page 68


 2712 0796 02       		.uleb128 0x2
 2713 0797 91       		.byte	0x91
 2714 0798 4C       		.sleb128 -52
 2715 0799 00       		.byte	0
 2716 079a 00       		.byte	0
 2717 079b 29       		.uleb128 0x29
 2718 079c B2000000 		.4byte	.LBB7
 2719 07a0 F4000000 		.4byte	.LBE7-.LBB7
 2720 07a4 F4080000 		.4byte	0x8f4
 2721 07a8 27       		.uleb128 0x27
 2722 07a9 1E050000 		.4byte	.LASF83
 2723 07ad 01       		.byte	0x1
 2724 07ae C7       		.byte	0xc7
 2725 07af DE000000 		.4byte	0xde
 2726 07b3 BC090000 		.4byte	.LLST39
 2727 07b7 1A       		.uleb128 0x1a
 2728 07b8 BC000000 		.4byte	.LBB8
 2729 07bc EA000000 		.4byte	.LBE8-.LBB8
 2730 07c0 28       		.uleb128 0x28
 2731 07c1 6F030000 		.4byte	.LASF56
 2732 07c5 01       		.byte	0x1
 2733 07c6 CC       		.byte	0xcc
 2734 07c7 DE000000 		.4byte	0xde
 2735 07cb 02       		.uleb128 0x2
 2736 07cc 91       		.byte	0x91
 2737 07cd 4C       		.sleb128 -52
 2738 07ce 27       		.uleb128 0x27
 2739 07cf DA000000 		.4byte	.LASF84
 2740 07d3 01       		.byte	0x1
 2741 07d4 CE       		.byte	0xce
 2742 07d5 29060000 		.4byte	0x629
 2743 07d9 CF090000 		.4byte	.LLST40
 2744 07dd 29       		.uleb128 0x29
 2745 07de D0000000 		.4byte	.LBB9
 2746 07e2 98000000 		.4byte	.LBE9-.LBB9
 2747 07e6 B1080000 		.4byte	0x8b1
 2748 07ea 27       		.uleb128 0x27
 2749 07eb 28060000 		.4byte	.LASF85
 2750 07ef 01       		.byte	0x1
 2751 07f0 EC       		.byte	0xec
 2752 07f1 E9000000 		.4byte	0xe9
 2753 07f5 060A0000 		.4byte	.LLST41
 2754 07f9 29       		.uleb128 0x29
 2755 07fa 0A010000 		.4byte	.LBB10
 2756 07fe 22000000 		.4byte	.LBE10-.LBB10
 2757 0802 3E080000 		.4byte	0x83e
 2758 0806 27       		.uleb128 0x27
 2759 0807 12050000 		.4byte	.LASF86
 2760 080b 01       		.byte	0x1
 2761 080c DD       		.byte	0xdd
 2762 080d DE000000 		.4byte	0xde
 2763 0811 240A0000 		.4byte	.LLST42
 2764 0815 2A       		.uleb128 0x2a
 2765 0816 14010000 		.4byte	.LVL138
 2766 081a 2B080000 		.4byte	0x82b
 2767 081e 20       		.uleb128 0x20
 2768 081f 01       		.uleb128 0x1
ARM GAS  C:\Users\d3bug\AppData\Local\Temp\ccfzCIuT.s 			page 69


 2769 0820 50       		.byte	0x50
 2770 0821 02       		.uleb128 0x2
 2771 0822 77       		.byte	0x77
 2772 0823 00       		.sleb128 0
 2773 0824 20       		.uleb128 0x20
 2774 0825 01       		.uleb128 0x1
 2775 0826 51       		.byte	0x51
 2776 0827 02       		.uleb128 0x2
 2777 0828 91       		.byte	0x91
 2778 0829 54       		.sleb128 -44
 2779 082a 00       		.byte	0
 2780 082b 1F       		.uleb128 0x1f
 2781 082c 26010000 		.4byte	.LVL140
 2782 0830 20       		.uleb128 0x20
 2783 0831 01       		.uleb128 0x1
 2784 0832 50       		.byte	0x50
 2785 0833 02       		.uleb128 0x2
 2786 0834 77       		.byte	0x77
 2787 0835 00       		.sleb128 0
 2788 0836 20       		.uleb128 0x20
 2789 0837 01       		.uleb128 0x1
 2790 0838 51       		.byte	0x51
 2791 0839 02       		.uleb128 0x2
 2792 083a 91       		.byte	0x91
 2793 083b 54       		.sleb128 -44
 2794 083c 00       		.byte	0
 2795 083d 00       		.byte	0
 2796 083e 2A       		.uleb128 0x2a
 2797 083f DA000000 		.4byte	.LVL133
 2798 0843 54080000 		.4byte	0x854
 2799 0847 20       		.uleb128 0x20
 2800 0848 01       		.uleb128 0x1
 2801 0849 50       		.byte	0x50
 2802 084a 02       		.uleb128 0x2
 2803 084b 77       		.byte	0x77
 2804 084c 00       		.sleb128 0
 2805 084d 20       		.uleb128 0x20
 2806 084e 01       		.uleb128 0x1
 2807 084f 51       		.byte	0x51
 2808 0850 02       		.uleb128 0x2
 2809 0851 91       		.byte	0x91
 2810 0852 4C       		.sleb128 -52
 2811 0853 00       		.byte	0
 2812 0854 2B       		.uleb128 0x2b
 2813 0855 EC000000 		.4byte	.LVL136
 2814 0859 30060000 		.4byte	0x630
 2815 085d 6E080000 		.4byte	0x86e
 2816 0861 20       		.uleb128 0x20
 2817 0862 01       		.uleb128 0x1
 2818 0863 50       		.byte	0x50
 2819 0864 02       		.uleb128 0x2
 2820 0865 91       		.byte	0x91
 2821 0866 53       		.sleb128 -45
 2822 0867 20       		.uleb128 0x20
 2823 0868 01       		.uleb128 0x1
 2824 0869 51       		.byte	0x51
 2825 086a 02       		.uleb128 0x2
ARM GAS  C:\Users\d3bug\AppData\Local\Temp\ccfzCIuT.s 			page 70


 2826 086b 78       		.byte	0x78
 2827 086c 00       		.sleb128 0
 2828 086d 00       		.byte	0
 2829 086e 2B       		.uleb128 0x2b
 2830 086f 02010000 		.4byte	.LVL137
 2831 0873 E0050000 		.4byte	0x5e0
 2832 0877 82080000 		.4byte	0x882
 2833 087b 20       		.uleb128 0x20
 2834 087c 01       		.uleb128 0x1
 2835 087d 50       		.byte	0x50
 2836 087e 02       		.uleb128 0x2
 2837 087f 78       		.byte	0x78
 2838 0880 00       		.sleb128 0
 2839 0881 00       		.byte	0
 2840 0882 2B       		.uleb128 0x2b
 2841 0883 42010000 		.4byte	.LVL144
 2842 0887 450E0000 		.4byte	0xe45
 2843 088b 9E080000 		.4byte	0x89e
 2844 088f 20       		.uleb128 0x20
 2845 0890 01       		.uleb128 0x1
 2846 0891 50       		.byte	0x50
 2847 0892 04       		.uleb128 0x4
 2848 0893 91       		.byte	0x91
 2849 0894 B87F     		.sleb128 -72
 2850 0896 06       		.byte	0x6
 2851 0897 20       		.uleb128 0x20
 2852 0898 01       		.uleb128 0x1
 2853 0899 51       		.byte	0x51
 2854 089a 02       		.uleb128 0x2
 2855 089b 78       		.byte	0x78
 2856 089c 00       		.sleb128 0
 2857 089d 00       		.byte	0
 2858 089e 1F       		.uleb128 0x1f
 2859 089f 5C010000 		.4byte	.LVL148
 2860 08a3 20       		.uleb128 0x20
 2861 08a4 01       		.uleb128 0x1
 2862 08a5 50       		.byte	0x50
 2863 08a6 02       		.uleb128 0x2
 2864 08a7 77       		.byte	0x77
 2865 08a8 00       		.sleb128 0
 2866 08a9 20       		.uleb128 0x20
 2867 08aa 01       		.uleb128 0x1
 2868 08ab 51       		.byte	0x51
 2869 08ac 02       		.uleb128 0x2
 2870 08ad 91       		.byte	0x91
 2871 08ae 54       		.sleb128 -44
 2872 08af 00       		.byte	0
 2873 08b0 00       		.byte	0
 2874 08b1 1A       		.uleb128 0x1a
 2875 08b2 7C010000 		.4byte	.LBB11
 2876 08b6 24000000 		.4byte	.LBE11-.LBB11
 2877 08ba 27       		.uleb128 0x27
 2878 08bb 12050000 		.4byte	.LASF86
 2879 08bf 01       		.byte	0x1
 2880 08c0 FB       		.byte	0xfb
 2881 08c1 DE000000 		.4byte	0xde
 2882 08c5 370A0000 		.4byte	.LLST43
ARM GAS  C:\Users\d3bug\AppData\Local\Temp\ccfzCIuT.s 			page 71


 2883 08c9 2A       		.uleb128 0x2a
 2884 08ca 86010000 		.4byte	.LVL153
 2885 08ce DF080000 		.4byte	0x8df
 2886 08d2 20       		.uleb128 0x20
 2887 08d3 01       		.uleb128 0x1
 2888 08d4 50       		.byte	0x50
 2889 08d5 02       		.uleb128 0x2
 2890 08d6 77       		.byte	0x77
 2891 08d7 00       		.sleb128 0
 2892 08d8 20       		.uleb128 0x20
 2893 08d9 01       		.uleb128 0x1
 2894 08da 51       		.byte	0x51
 2895 08db 02       		.uleb128 0x2
 2896 08dc 91       		.byte	0x91
 2897 08dd 54       		.sleb128 -44
 2898 08de 00       		.byte	0
 2899 08df 1F       		.uleb128 0x1f
 2900 08e0 98010000 		.4byte	.LVL155
 2901 08e4 20       		.uleb128 0x20
 2902 08e5 01       		.uleb128 0x1
 2903 08e6 50       		.byte	0x50
 2904 08e7 02       		.uleb128 0x2
 2905 08e8 77       		.byte	0x77
 2906 08e9 00       		.sleb128 0
 2907 08ea 20       		.uleb128 0x20
 2908 08eb 01       		.uleb128 0x1
 2909 08ec 51       		.byte	0x51
 2910 08ed 02       		.uleb128 0x2
 2911 08ee 91       		.byte	0x91
 2912 08ef 54       		.sleb128 -44
 2913 08f0 00       		.byte	0
 2914 08f1 00       		.byte	0
 2915 08f2 00       		.byte	0
 2916 08f3 00       		.byte	0
 2917 08f4 2A       		.uleb128 0x2a
 2918 08f5 48000000 		.4byte	.LVL118
 2919 08f9 0A090000 		.4byte	0x90a
 2920 08fd 20       		.uleb128 0x20
 2921 08fe 01       		.uleb128 0x1
 2922 08ff 50       		.byte	0x50
 2923 0900 02       		.uleb128 0x2
 2924 0901 77       		.byte	0x77
 2925 0902 00       		.sleb128 0
 2926 0903 20       		.uleb128 0x20
 2927 0904 01       		.uleb128 0x1
 2928 0905 51       		.byte	0x51
 2929 0906 02       		.uleb128 0x2
 2930 0907 91       		.byte	0x91
 2931 0908 54       		.sleb128 -44
 2932 0909 00       		.byte	0
 2933 090a 2B       		.uleb128 0x2b
 2934 090b 5A000000 		.4byte	.LVL121
 2935 090f 30060000 		.4byte	0x630
 2936 0913 24090000 		.4byte	0x924
 2937 0917 20       		.uleb128 0x20
 2938 0918 01       		.uleb128 0x1
 2939 0919 50       		.byte	0x50
ARM GAS  C:\Users\d3bug\AppData\Local\Temp\ccfzCIuT.s 			page 72


 2940 091a 02       		.uleb128 0x2
 2941 091b 91       		.byte	0x91
 2942 091c 53       		.sleb128 -45
 2943 091d 20       		.uleb128 0x20
 2944 091e 01       		.uleb128 0x1
 2945 091f 51       		.byte	0x51
 2946 0920 02       		.uleb128 0x2
 2947 0921 76       		.byte	0x76
 2948 0922 00       		.sleb128 0
 2949 0923 00       		.byte	0
 2950 0924 2B       		.uleb128 0x2b
 2951 0925 98000000 		.4byte	.LVL125
 2952 0929 450E0000 		.4byte	0xe45
 2953 092d 40090000 		.4byte	0x940
 2954 0931 20       		.uleb128 0x20
 2955 0932 01       		.uleb128 0x1
 2956 0933 50       		.byte	0x50
 2957 0934 04       		.uleb128 0x4
 2958 0935 91       		.byte	0x91
 2959 0936 B87F     		.sleb128 -72
 2960 0938 06       		.byte	0x6
 2961 0939 20       		.uleb128 0x20
 2962 093a 01       		.uleb128 0x1
 2963 093b 51       		.byte	0x51
 2964 093c 02       		.uleb128 0x2
 2965 093d 76       		.byte	0x76
 2966 093e 00       		.sleb128 0
 2967 093f 00       		.byte	0
 2968 0940 2A       		.uleb128 0x2a
 2969 0941 B0010000 		.4byte	.LVL160
 2970 0945 56090000 		.4byte	0x956
 2971 0949 20       		.uleb128 0x20
 2972 094a 01       		.uleb128 0x1
 2973 094b 50       		.byte	0x50
 2974 094c 02       		.uleb128 0x2
 2975 094d 77       		.byte	0x77
 2976 094e 00       		.sleb128 0
 2977 094f 20       		.uleb128 0x20
 2978 0950 01       		.uleb128 0x1
 2979 0951 51       		.byte	0x51
 2980 0952 02       		.uleb128 0x2
 2981 0953 91       		.byte	0x91
 2982 0954 54       		.sleb128 -44
 2983 0955 00       		.byte	0
 2984 0956 2A       		.uleb128 0x2a
 2985 0957 BE010000 		.4byte	.LVL161
 2986 095b 6C090000 		.4byte	0x96c
 2987 095f 20       		.uleb128 0x20
 2988 0960 01       		.uleb128 0x1
 2989 0961 50       		.byte	0x50
 2990 0962 02       		.uleb128 0x2
 2991 0963 77       		.byte	0x77
 2992 0964 00       		.sleb128 0
 2993 0965 20       		.uleb128 0x20
 2994 0966 01       		.uleb128 0x1
 2995 0967 51       		.byte	0x51
 2996 0968 02       		.uleb128 0x2
ARM GAS  C:\Users\d3bug\AppData\Local\Temp\ccfzCIuT.s 			page 73


 2997 0969 91       		.byte	0x91
 2998 096a 54       		.sleb128 -44
 2999 096b 00       		.byte	0
 3000 096c 2C       		.uleb128 0x2c
 3001 096d CA010000 		.4byte	.LVL163
 3002 0971 E0050000 		.4byte	0x5e0
 3003 0975 20       		.uleb128 0x20
 3004 0976 01       		.uleb128 0x1
 3005 0977 50       		.byte	0x50
 3006 0978 02       		.uleb128 0x2
 3007 0979 76       		.byte	0x76
 3008 097a 00       		.sleb128 0
 3009 097b 00       		.byte	0
 3010 097c 00       		.byte	0
 3011 097d 00       		.byte	0
 3012 097e 21       		.uleb128 0x21
 3013 097f 14040000 		.4byte	.LASF87
 3014 0983 01       		.byte	0x1
 3015 0984 3101     		.2byte	0x131
 3016 0986 E9000000 		.4byte	0xe9
 3017 098a 00000000 		.4byte	.LFB6
 3018 098e 88000000 		.4byte	.LFE6-.LFB6
 3019 0992 01       		.uleb128 0x1
 3020 0993 9C       		.byte	0x9c
 3021 0994 9F0A0000 		.4byte	0xa9f
 3022 0998 14       		.uleb128 0x14
 3023 0999 74787400 		.ascii	"txt\000"
 3024 099d 01       		.byte	0x1
 3025 099e 3101     		.2byte	0x131
 3026 09a0 B2000000 		.4byte	0xb2
 3027 09a4 4A0A0000 		.4byte	.LLST44
 3028 09a8 15       		.uleb128 0x15
 3029 09a9 01050000 		.4byte	.LASF88
 3030 09ad 01       		.byte	0x1
 3031 09ae 3101     		.2byte	0x131
 3032 09b0 D3000000 		.4byte	0xd3
 3033 09b4 A50A0000 		.4byte	.LLST45
 3034 09b8 15       		.uleb128 0x15
 3035 09b9 6B050000 		.4byte	.LASF72
 3036 09bd 01       		.byte	0x1
 3037 09be 3201     		.2byte	0x132
 3038 09c0 E1020000 		.4byte	0x2e1
 3039 09c4 F80A0000 		.4byte	.LLST46
 3040 09c8 15       		.uleb128 0x15
 3041 09c9 D0040000 		.4byte	.LASF73
 3042 09cd 01       		.byte	0x1
 3043 09ce 3201     		.2byte	0x132
 3044 09d0 E9000000 		.4byte	0xe9
 3045 09d4 500B0000 		.4byte	.LLST47
 3046 09d8 15       		.uleb128 0x15
 3047 09d9 0D050000 		.4byte	.LASF75
 3048 09dd 01       		.byte	0x1
 3049 09de 3201     		.2byte	0x132
 3050 09e0 90020000 		.4byte	0x290
 3051 09e4 A30B0000 		.4byte	.LLST48
 3052 09e8 1B       		.uleb128 0x1b
 3053 09e9 6900     		.ascii	"i\000"
ARM GAS  C:\Users\d3bug\AppData\Local\Temp\ccfzCIuT.s 			page 74


 3054 09eb 01       		.byte	0x1
 3055 09ec 3701     		.2byte	0x137
 3056 09ee DE000000 		.4byte	0xde
 3057 09f2 02       		.uleb128 0x2
 3058 09f3 91       		.byte	0x91
 3059 09f4 5C       		.sleb128 -36
 3060 09f5 17       		.uleb128 0x17
 3061 09f6 75020000 		.4byte	.LASF89
 3062 09fa 01       		.byte	0x1
 3063 09fb 3801     		.2byte	0x138
 3064 09fd E9000000 		.4byte	0xe9
 3065 0a01 C30B0000 		.4byte	.LLST49
 3066 0a05 16       		.uleb128 0x16
 3067 0a06 9C010000 		.4byte	.LASF80
 3068 0a0a 01       		.byte	0x1
 3069 0a0b 3901     		.2byte	0x139
 3070 0a0d BA020000 		.4byte	0x2ba
 3071 0a11 02       		.uleb128 0x2
 3072 0a12 91       		.byte	0x91
 3073 0a13 5B       		.sleb128 -37
 3074 0a14 17       		.uleb128 0x17
 3075 0a15 89020000 		.4byte	.LASF67
 3076 0a19 01       		.byte	0x1
 3077 0a1a 3A01     		.2byte	0x13a
 3078 0a1c DE000000 		.4byte	0xde
 3079 0a20 1A0C0000 		.4byte	.LLST50
 3080 0a24 1A       		.uleb128 0x1a
 3081 0a25 1C000000 		.4byte	.LBB12
 3082 0a29 44000000 		.4byte	.LBE12-.LBB12
 3083 0a2d 17       		.uleb128 0x17
 3084 0a2e B3040000 		.4byte	.LASF90
 3085 0a32 01       		.byte	0x1
 3086 0a33 4501     		.2byte	0x145
 3087 0a35 E9000000 		.4byte	0xe9
 3088 0a39 430C0000 		.4byte	.LLST51
 3089 0a3d 2A       		.uleb128 0x2a
 3090 0a3e 26000000 		.4byte	.LVL180
 3091 0a42 530A0000 		.4byte	0xa53
 3092 0a46 20       		.uleb128 0x20
 3093 0a47 01       		.uleb128 0x1
 3094 0a48 50       		.byte	0x50
 3095 0a49 02       		.uleb128 0x2
 3096 0a4a 78       		.byte	0x78
 3097 0a4b 00       		.sleb128 0
 3098 0a4c 20       		.uleb128 0x20
 3099 0a4d 01       		.uleb128 0x1
 3100 0a4e 51       		.byte	0x51
 3101 0a4f 02       		.uleb128 0x2
 3102 0a50 91       		.byte	0x91
 3103 0a51 5C       		.sleb128 -36
 3104 0a52 00       		.byte	0
 3105 0a53 2B       		.uleb128 0x2b
 3106 0a54 38000000 		.4byte	.LVL183
 3107 0a58 30060000 		.4byte	0x630
 3108 0a5c 6D0A0000 		.4byte	0xa6d
 3109 0a60 20       		.uleb128 0x20
 3110 0a61 01       		.uleb128 0x1
ARM GAS  C:\Users\d3bug\AppData\Local\Temp\ccfzCIuT.s 			page 75


 3111 0a62 50       		.byte	0x50
 3112 0a63 02       		.uleb128 0x2
 3113 0a64 91       		.byte	0x91
 3114 0a65 5B       		.sleb128 -37
 3115 0a66 20       		.uleb128 0x20
 3116 0a67 01       		.uleb128 0x1
 3117 0a68 51       		.byte	0x51
 3118 0a69 02       		.uleb128 0x2
 3119 0a6a 75       		.byte	0x75
 3120 0a6b 00       		.sleb128 0
 3121 0a6c 00       		.byte	0
 3122 0a6d 2B       		.uleb128 0x2b
 3123 0a6e 42000000 		.4byte	.LVL184
 3124 0a72 450E0000 		.4byte	0xe45
 3125 0a76 870A0000 		.4byte	0xa87
 3126 0a7a 20       		.uleb128 0x20
 3127 0a7b 01       		.uleb128 0x1
 3128 0a7c 50       		.byte	0x50
 3129 0a7d 02       		.uleb128 0x2
 3130 0a7e 76       		.byte	0x76
 3131 0a7f 00       		.sleb128 0
 3132 0a80 20       		.uleb128 0x20
 3133 0a81 01       		.uleb128 0x1
 3134 0a82 51       		.byte	0x51
 3135 0a83 02       		.uleb128 0x2
 3136 0a84 75       		.byte	0x75
 3137 0a85 00       		.sleb128 0
 3138 0a86 00       		.byte	0
 3139 0a87 2C       		.uleb128 0x2c
 3140 0a88 50000000 		.4byte	.LVL187
 3141 0a8c 450E0000 		.4byte	0xe45
 3142 0a90 20       		.uleb128 0x20
 3143 0a91 01       		.uleb128 0x1
 3144 0a92 50       		.byte	0x50
 3145 0a93 02       		.uleb128 0x2
 3146 0a94 76       		.byte	0x76
 3147 0a95 00       		.sleb128 0
 3148 0a96 20       		.uleb128 0x20
 3149 0a97 01       		.uleb128 0x1
 3150 0a98 51       		.byte	0x51
 3151 0a99 02       		.uleb128 0x2
 3152 0a9a 75       		.byte	0x75
 3153 0a9b 00       		.sleb128 0
 3154 0a9c 00       		.byte	0
 3155 0a9d 00       		.byte	0
 3156 0a9e 00       		.byte	0
 3157 0a9f 2D       		.uleb128 0x2d
 3158 0aa0 72000000 		.4byte	.LASF98
 3159 0aa4 01       		.byte	0x1
 3160 0aa5 67       		.byte	0x67
 3161 0aa6 00000000 		.4byte	.LFB4
 3162 0aaa B0000000 		.4byte	.LFE4-.LFB4
 3163 0aae 01       		.uleb128 0x1
 3164 0aaf 9C       		.byte	0x9c
 3165 0ab0 C70B0000 		.4byte	0xbc7
 3166 0ab4 25       		.uleb128 0x25
 3167 0ab5 F4000000 		.4byte	.LASF91
ARM GAS  C:\Users\d3bug\AppData\Local\Temp\ccfzCIuT.s 			page 76


 3168 0ab9 01       		.byte	0x1
 3169 0aba 67       		.byte	0x67
 3170 0abb C70B0000 		.4byte	0xbc7
 3171 0abf 560C0000 		.4byte	.LLST52
 3172 0ac3 25       		.uleb128 0x25
 3173 0ac4 6A030000 		.4byte	.LASF92
 3174 0ac8 01       		.byte	0x1
 3175 0ac9 67       		.byte	0x67
 3176 0aca B2000000 		.4byte	0xb2
 3177 0ace 820C0000 		.4byte	.LLST53
 3178 0ad2 25       		.uleb128 0x25
 3179 0ad3 6B050000 		.4byte	.LASF72
 3180 0ad7 01       		.byte	0x1
 3181 0ad8 67       		.byte	0x67
 3182 0ad9 E1020000 		.4byte	0x2e1
 3183 0add AE0C0000 		.4byte	.LLST54
 3184 0ae1 25       		.uleb128 0x25
 3185 0ae2 D0040000 		.4byte	.LASF73
 3186 0ae6 01       		.byte	0x1
 3187 0ae7 68       		.byte	0x68
 3188 0ae8 E9000000 		.4byte	0xe9
 3189 0aec DA0C0000 		.4byte	.LLST55
 3190 0af0 2E       		.uleb128 0x2e
 3191 0af1 D0020000 		.4byte	.LASF93
 3192 0af5 01       		.byte	0x1
 3193 0af6 68       		.byte	0x68
 3194 0af7 E9000000 		.4byte	0xe9
 3195 0afb 02       		.uleb128 0x2
 3196 0afc 91       		.byte	0x91
 3197 0afd 00       		.sleb128 0
 3198 0afe 25       		.uleb128 0x25
 3199 0aff D1030000 		.4byte	.LASF74
 3200 0b03 01       		.byte	0x1
 3201 0b04 68       		.byte	0x68
 3202 0b05 E9000000 		.4byte	0xe9
 3203 0b09 FB0C0000 		.4byte	.LLST56
 3204 0b0d 2E       		.uleb128 0x2e
 3205 0b0e 0D050000 		.4byte	.LASF75
 3206 0b12 01       		.byte	0x1
 3207 0b13 68       		.byte	0x68
 3208 0b14 90020000 		.4byte	0x290
 3209 0b18 02       		.uleb128 0x2
 3210 0b19 91       		.byte	0x91
 3211 0b1a 08       		.sleb128 8
 3212 0b1b 27       		.uleb128 0x27
 3213 0b1c E7040000 		.4byte	.LASF94
 3214 0b20 01       		.byte	0x1
 3215 0b21 72       		.byte	0x72
 3216 0b22 DE000000 		.4byte	0xde
 3217 0b26 1B0D0000 		.4byte	.LLST57
 3218 0b2a 27       		.uleb128 0x27
 3219 0b2b F2060000 		.4byte	.LASF95
 3220 0b2f 01       		.byte	0x1
 3221 0b30 73       		.byte	0x73
 3222 0b31 DE000000 		.4byte	0xde
 3223 0b35 520D0000 		.4byte	.LLST58
 3224 0b39 27       		.uleb128 0x27
ARM GAS  C:\Users\d3bug\AppData\Local\Temp\ccfzCIuT.s 			page 77


 3225 0b3a 5B050000 		.4byte	.LASF96
 3226 0b3e 01       		.byte	0x1
 3227 0b3f 74       		.byte	0x74
 3228 0b40 E9000000 		.4byte	0xe9
 3229 0b44 7E0D0000 		.4byte	.LLST59
 3230 0b48 2F       		.uleb128 0x2f
 3231 0b49 32000000 		.4byte	.LASF97
 3232 0b4d 01       		.byte	0x1
 3233 0b4e 75       		.byte	0x75
 3234 0b4f BD000000 		.4byte	0xbd
 3235 0b53 30       		.uleb128 0x30
 3236 0b54 C5020000 		.4byte	0x2c5
 3237 0b58 36000000 		.4byte	.LBB13
 3238 0b5c 04000000 		.4byte	.LBE13-.LBB13
 3239 0b60 01       		.byte	0x1
 3240 0b61 75       		.byte	0x75
 3241 0b62 700B0000 		.4byte	0xb70
 3242 0b66 31       		.uleb128 0x31
 3243 0b67 D5020000 		.4byte	0x2d5
 3244 0b6b 910D0000 		.4byte	.LLST60
 3245 0b6f 00       		.byte	0
 3246 0b70 2B       		.uleb128 0x2b
 3247 0b71 4E000000 		.4byte	.LVL206
 3248 0b75 7D060000 		.4byte	0x67d
 3249 0b79 A10B0000 		.4byte	0xba1
 3250 0b7d 20       		.uleb128 0x20
 3251 0b7e 01       		.uleb128 0x1
 3252 0b7f 50       		.byte	0x50
 3253 0b80 02       		.uleb128 0x2
 3254 0b81 76       		.byte	0x76
 3255 0b82 00       		.sleb128 0
 3256 0b83 20       		.uleb128 0x20
 3257 0b84 01       		.uleb128 0x1
 3258 0b85 51       		.byte	0x51
 3259 0b86 02       		.uleb128 0x2
 3260 0b87 78       		.byte	0x78
 3261 0b88 00       		.sleb128 0
 3262 0b89 20       		.uleb128 0x20
 3263 0b8a 01       		.uleb128 0x1
 3264 0b8b 52       		.byte	0x52
 3265 0b8c 04       		.uleb128 0x4
 3266 0b8d 91       		.byte	0x91
 3267 0b8e 50       		.sleb128 -48
 3268 0b8f 94       		.byte	0x94
 3269 0b90 02       		.byte	0x2
 3270 0b91 20       		.uleb128 0x20
 3271 0b92 01       		.uleb128 0x1
 3272 0b93 53       		.byte	0x53
 3273 0b94 04       		.uleb128 0x4
 3274 0b95 91       		.byte	0x91
 3275 0b96 54       		.sleb128 -44
 3276 0b97 94       		.byte	0x94
 3277 0b98 02       		.byte	0x2
 3278 0b99 20       		.uleb128 0x20
 3279 0b9a 02       		.uleb128 0x2
 3280 0b9b 7D       		.byte	0x7d
 3281 0b9c 00       		.sleb128 0
ARM GAS  C:\Users\d3bug\AppData\Local\Temp\ccfzCIuT.s 			page 78


 3282 0b9d 02       		.uleb128 0x2
 3283 0b9e 79       		.byte	0x79
 3284 0b9f 00       		.sleb128 0
 3285 0ba0 00       		.byte	0
 3286 0ba1 2C       		.uleb128 0x2c
 3287 0ba2 6A000000 		.4byte	.LVL208
 3288 0ba6 7E090000 		.4byte	0x97e
 3289 0baa 20       		.uleb128 0x20
 3290 0bab 01       		.uleb128 0x1
 3291 0bac 50       		.byte	0x50
 3292 0bad 02       		.uleb128 0x2
 3293 0bae 76       		.byte	0x76
 3294 0baf 00       		.sleb128 0
 3295 0bb0 20       		.uleb128 0x20
 3296 0bb1 01       		.uleb128 0x1
 3297 0bb2 52       		.byte	0x52
 3298 0bb3 02       		.uleb128 0x2
 3299 0bb4 78       		.byte	0x78
 3300 0bb5 00       		.sleb128 0
 3301 0bb6 20       		.uleb128 0x20
 3302 0bb7 01       		.uleb128 0x1
 3303 0bb8 53       		.byte	0x53
 3304 0bb9 04       		.uleb128 0x4
 3305 0bba 91       		.byte	0x91
 3306 0bbb 50       		.sleb128 -48
 3307 0bbc 94       		.byte	0x94
 3308 0bbd 02       		.byte	0x2
 3309 0bbe 20       		.uleb128 0x20
 3310 0bbf 02       		.uleb128 0x2
 3311 0bc0 7D       		.byte	0x7d
 3312 0bc1 00       		.sleb128 0
 3313 0bc2 02       		.uleb128 0x2
 3314 0bc3 79       		.byte	0x79
 3315 0bc4 00       		.sleb128 0
 3316 0bc5 00       		.byte	0
 3317 0bc6 00       		.byte	0
 3318 0bc7 05       		.uleb128 0x5
 3319 0bc8 04       		.byte	0x4
 3320 0bc9 11010000 		.4byte	0x111
 3321 0bcd 32       		.uleb128 0x32
 3322 0bce 65060000 		.4byte	.LASF99
 3323 0bd2 01       		.byte	0x1
 3324 0bd3 7E01     		.2byte	0x17e
 3325 0bd5 00000000 		.4byte	.LFB8
 3326 0bd9 48000000 		.4byte	.LFE8-.LFB8
 3327 0bdd 01       		.uleb128 0x1
 3328 0bde 9C       		.byte	0x9c
 3329 0bdf A60C0000 		.4byte	0xca6
 3330 0be3 15       		.uleb128 0x15
 3331 0be4 25010000 		.4byte	.LASF100
 3332 0be8 01       		.byte	0x1
 3333 0be9 7E01     		.2byte	0x17e
 3334 0beb A5000000 		.4byte	0xa5
 3335 0bef A40D0000 		.4byte	.LLST61
 3336 0bf3 14       		.uleb128 0x14
 3337 0bf4 706F7300 		.ascii	"pos\000"
 3338 0bf8 01       		.byte	0x1
ARM GAS  C:\Users\d3bug\AppData\Local\Temp\ccfzCIuT.s 			page 79


 3339 0bf9 7E01     		.2byte	0x17e
 3340 0bfb DE000000 		.4byte	0xde
 3341 0bff D00D0000 		.4byte	.LLST62
 3342 0c03 15       		.uleb128 0x15
 3343 0c04 B8020000 		.4byte	.LASF101
 3344 0c08 01       		.byte	0x1
 3345 0c09 7E01     		.2byte	0x17e
 3346 0c0b B2000000 		.4byte	0xb2
 3347 0c0f F90D0000 		.4byte	.LLST63
 3348 0c13 17       		.uleb128 0x17
 3349 0c14 1A000000 		.4byte	.LASF102
 3350 0c18 01       		.byte	0x1
 3351 0c19 8001     		.2byte	0x180
 3352 0c1b DE000000 		.4byte	0xde
 3353 0c1f 250E0000 		.4byte	.LLST64
 3354 0c23 17       		.uleb128 0x17
 3355 0c24 98060000 		.4byte	.LASF103
 3356 0c28 01       		.byte	0x1
 3357 0c29 8101     		.2byte	0x181
 3358 0c2b DE000000 		.4byte	0xde
 3359 0c2f 430E0000 		.4byte	.LLST65
 3360 0c33 17       		.uleb128 0x17
 3361 0c34 CE050000 		.4byte	.LASF104
 3362 0c38 01       		.byte	0x1
 3363 0c39 8201     		.2byte	0x182
 3364 0c3b DE000000 		.4byte	0xde
 3365 0c3f 610E0000 		.4byte	.LLST66
 3366 0c43 1C       		.uleb128 0x1c
 3367 0c44 6900     		.ascii	"i\000"
 3368 0c46 01       		.byte	0x1
 3369 0c47 8701     		.2byte	0x187
 3370 0c49 DE000000 		.4byte	0xde
 3371 0c4d 740E0000 		.4byte	.LLST67
 3372 0c51 2B       		.uleb128 0x2b
 3373 0c52 0E000000 		.4byte	.LVL215
 3374 0c56 500E0000 		.4byte	0xe50
 3375 0c5a 650C0000 		.4byte	0xc65
 3376 0c5e 20       		.uleb128 0x20
 3377 0c5f 01       		.uleb128 0x1
 3378 0c60 50       		.byte	0x50
 3379 0c61 02       		.uleb128 0x2
 3380 0c62 76       		.byte	0x76
 3381 0c63 00       		.sleb128 0
 3382 0c64 00       		.byte	0
 3383 0c65 2B       		.uleb128 0x2b
 3384 0c66 16000000 		.4byte	.LVL218
 3385 0c6a 500E0000 		.4byte	0xe50
 3386 0c6e 790C0000 		.4byte	0xc79
 3387 0c72 20       		.uleb128 0x20
 3388 0c73 01       		.uleb128 0x1
 3389 0c74 50       		.byte	0x50
 3390 0c75 02       		.uleb128 0x2
 3391 0c76 77       		.byte	0x77
 3392 0c77 00       		.sleb128 0
 3393 0c78 00       		.byte	0
 3394 0c79 2A       		.uleb128 0x2a
 3395 0c7a 24000000 		.4byte	.LVL222
ARM GAS  C:\Users\d3bug\AppData\Local\Temp\ccfzCIuT.s 			page 80


 3396 0c7e 8F0C0000 		.4byte	0xc8f
 3397 0c82 20       		.uleb128 0x20
 3398 0c83 01       		.uleb128 0x1
 3399 0c84 50       		.byte	0x50
 3400 0c85 02       		.uleb128 0x2
 3401 0c86 76       		.byte	0x76
 3402 0c87 00       		.sleb128 0
 3403 0c88 20       		.uleb128 0x20
 3404 0c89 01       		.uleb128 0x1
 3405 0c8a 51       		.byte	0x51
 3406 0c8b 02       		.uleb128 0x2
 3407 0c8c 78       		.byte	0x78
 3408 0c8d 00       		.sleb128 0
 3409 0c8e 00       		.byte	0
 3410 0c8f 2C       		.uleb128 0x2c
 3411 0c90 3E000000 		.4byte	.LVL226
 3412 0c94 5B0E0000 		.4byte	0xe5b
 3413 0c98 20       		.uleb128 0x20
 3414 0c99 01       		.uleb128 0x1
 3415 0c9a 51       		.byte	0x51
 3416 0c9b 02       		.uleb128 0x2
 3417 0c9c 77       		.byte	0x77
 3418 0c9d 00       		.sleb128 0
 3419 0c9e 20       		.uleb128 0x20
 3420 0c9f 01       		.uleb128 0x1
 3421 0ca0 52       		.byte	0x52
 3422 0ca1 02       		.uleb128 0x2
 3423 0ca2 75       		.byte	0x75
 3424 0ca3 00       		.sleb128 0
 3425 0ca4 00       		.byte	0
 3426 0ca5 00       		.byte	0
 3427 0ca6 32       		.uleb128 0x32
 3428 0ca7 FA020000 		.4byte	.LASF105
 3429 0cab 01       		.byte	0x1
 3430 0cac 9601     		.2byte	0x196
 3431 0cae 00000000 		.4byte	.LFB9
 3432 0cb2 3C000000 		.4byte	.LFE9-.LFB9
 3433 0cb6 01       		.uleb128 0x1
 3434 0cb7 9C       		.byte	0x9c
 3435 0cb8 4A0D0000 		.4byte	0xd4a
 3436 0cbc 14       		.uleb128 0x14
 3437 0cbd 74787400 		.ascii	"txt\000"
 3438 0cc1 01       		.byte	0x1
 3439 0cc2 9601     		.2byte	0x196
 3440 0cc4 A5000000 		.4byte	0xa5
 3441 0cc8 870E0000 		.4byte	.LLST68
 3442 0ccc 14       		.uleb128 0x14
 3443 0ccd 706F7300 		.ascii	"pos\000"
 3444 0cd1 01       		.byte	0x1
 3445 0cd2 9601     		.2byte	0x196
 3446 0cd4 DE000000 		.4byte	0xde
 3447 0cd8 B30E0000 		.4byte	.LLST69
 3448 0cdc 14       		.uleb128 0x14
 3449 0cdd 6C656E00 		.ascii	"len\000"
 3450 0ce1 01       		.byte	0x1
 3451 0ce2 9601     		.2byte	0x196
 3452 0ce4 DE000000 		.4byte	0xde
ARM GAS  C:\Users\d3bug\AppData\Local\Temp\ccfzCIuT.s 			page 81


 3453 0ce8 E70E0000 		.4byte	.LLST70
 3454 0cec 17       		.uleb128 0x17
 3455 0ced 1A000000 		.4byte	.LASF102
 3456 0cf1 01       		.byte	0x1
 3457 0cf2 9901     		.2byte	0x199
 3458 0cf4 DE000000 		.4byte	0xde
 3459 0cf8 100F0000 		.4byte	.LLST71
 3460 0cfc 1C       		.uleb128 0x1c
 3461 0cfd 6900     		.ascii	"i\000"
 3462 0cff 01       		.byte	0x1
 3463 0d00 A001     		.2byte	0x1a0
 3464 0d02 DE000000 		.4byte	0xde
 3465 0d06 2E0F0000 		.4byte	.LLST72
 3466 0d0a 2B       		.uleb128 0x2b
 3467 0d0b 0E000000 		.4byte	.LVL229
 3468 0d0f 500E0000 		.4byte	0xe50
 3469 0d13 1E0D0000 		.4byte	0xd1e
 3470 0d17 20       		.uleb128 0x20
 3471 0d18 01       		.uleb128 0x1
 3472 0d19 50       		.byte	0x50
 3473 0d1a 02       		.uleb128 0x2
 3474 0d1b 75       		.byte	0x75
 3475 0d1c 00       		.sleb128 0
 3476 0d1d 00       		.byte	0
 3477 0d1e 2A       		.uleb128 0x2a
 3478 0d1f 1A000000 		.4byte	.LVL232
 3479 0d23 340D0000 		.4byte	0xd34
 3480 0d27 20       		.uleb128 0x20
 3481 0d28 01       		.uleb128 0x1
 3482 0d29 50       		.byte	0x50
 3483 0d2a 02       		.uleb128 0x2
 3484 0d2b 75       		.byte	0x75
 3485 0d2c 00       		.sleb128 0
 3486 0d2d 20       		.uleb128 0x20
 3487 0d2e 01       		.uleb128 0x1
 3488 0d2f 51       		.byte	0x51
 3489 0d30 02       		.uleb128 0x2
 3490 0d31 74       		.byte	0x74
 3491 0d32 00       		.sleb128 0
 3492 0d33 00       		.byte	0
 3493 0d34 1F       		.uleb128 0x1f
 3494 0d35 24000000 		.4byte	.LVL235
 3495 0d39 20       		.uleb128 0x20
 3496 0d3a 01       		.uleb128 0x1
 3497 0d3b 50       		.byte	0x50
 3498 0d3c 05       		.uleb128 0x5
 3499 0d3d 75       		.byte	0x75
 3500 0d3e 00       		.sleb128 0
 3501 0d3f 74       		.byte	0x74
 3502 0d40 00       		.sleb128 0
 3503 0d41 22       		.byte	0x22
 3504 0d42 20       		.uleb128 0x20
 3505 0d43 01       		.uleb128 0x1
 3506 0d44 51       		.byte	0x51
 3507 0d45 02       		.uleb128 0x2
 3508 0d46 78       		.byte	0x78
 3509 0d47 00       		.sleb128 0
ARM GAS  C:\Users\d3bug\AppData\Local\Temp\ccfzCIuT.s 			page 82


 3510 0d48 00       		.byte	0
 3511 0d49 00       		.byte	0
 3512 0d4a 0D       		.uleb128 0xd
 3513 0d4b BD000000 		.4byte	0xbd
 3514 0d4f 590D0000 		.4byte	0xd59
 3515 0d53 0E       		.uleb128 0xe
 3516 0d54 B2000000 		.4byte	0xb2
 3517 0d58 00       		.byte	0
 3518 0d59 33       		.uleb128 0x33
 3519 0d5a 00040000 		.4byte	.LASF106
 3520 0d5e 01       		.byte	0x1
 3521 0d5f 43       		.byte	0x43
 3522 0d60 6A0D0000 		.4byte	0xd6a
 3523 0d64 05       		.uleb128 0x5
 3524 0d65 03       		.byte	0x3
 3525 0d66 00000000 		.4byte	lv_txt_encoded_size
 3526 0d6a 05       		.uleb128 0x5
 3527 0d6b 04       		.byte	0x4
 3528 0d6c 4A0D0000 		.4byte	0xd4a
 3529 0d70 0D       		.uleb128 0xd
 3530 0d71 DE000000 		.4byte	0xde
 3531 0d75 7F0D0000 		.4byte	0xd7f
 3532 0d79 0E       		.uleb128 0xe
 3533 0d7a DE000000 		.4byte	0xde
 3534 0d7e 00       		.byte	0
 3535 0d7f 33       		.uleb128 0x33
 3536 0d80 00000000 		.4byte	.LASF107
 3537 0d84 01       		.byte	0x1
 3538 0d85 44       		.byte	0x44
 3539 0d86 900D0000 		.4byte	0xd90
 3540 0d8a 05       		.uleb128 0x5
 3541 0d8b 03       		.byte	0x3
 3542 0d8c 00000000 		.4byte	lv_txt_unicode_to_encoded
 3543 0d90 05       		.uleb128 0x5
 3544 0d91 04       		.byte	0x4
 3545 0d92 700D0000 		.4byte	0xd70
 3546 0d96 33       		.uleb128 0x33
 3547 0d97 62040000 		.4byte	.LASF108
 3548 0d9b 01       		.byte	0x1
 3549 0d9c 45       		.byte	0x45
 3550 0d9d 900D0000 		.4byte	0xd90
 3551 0da1 05       		.uleb128 0x5
 3552 0da2 03       		.byte	0x3
 3553 0da3 00000000 		.4byte	lv_txt_encoded_conv_wc
 3554 0da7 0D       		.uleb128 0xd
 3555 0da8 DE000000 		.4byte	0xde
 3556 0dac BB0D0000 		.4byte	0xdbb
 3557 0db0 0E       		.uleb128 0xe
 3558 0db1 B2000000 		.4byte	0xb2
 3559 0db5 0E       		.uleb128 0xe
 3560 0db6 71030000 		.4byte	0x371
 3561 0dba 00       		.byte	0
 3562 0dbb 33       		.uleb128 0x33
 3563 0dbc A5000000 		.4byte	.LASF109
 3564 0dc0 01       		.byte	0x1
 3565 0dc1 46       		.byte	0x46
 3566 0dc2 CC0D0000 		.4byte	0xdcc
ARM GAS  C:\Users\d3bug\AppData\Local\Temp\ccfzCIuT.s 			page 83


 3567 0dc6 05       		.uleb128 0x5
 3568 0dc7 03       		.byte	0x3
 3569 0dc8 00000000 		.4byte	lv_txt_encoded_next
 3570 0dcc 05       		.uleb128 0x5
 3571 0dcd 04       		.byte	0x4
 3572 0dce A70D0000 		.4byte	0xda7
 3573 0dd2 33       		.uleb128 0x33
 3574 0dd3 C6000000 		.4byte	.LASF110
 3575 0dd7 01       		.byte	0x1
 3576 0dd8 47       		.byte	0x47
 3577 0dd9 CC0D0000 		.4byte	0xdcc
 3578 0ddd 05       		.uleb128 0x5
 3579 0dde 03       		.byte	0x3
 3580 0ddf 00000000 		.4byte	lv_txt_encoded_prev
 3581 0de3 0D       		.uleb128 0xd
 3582 0de4 DE000000 		.4byte	0xde
 3583 0de8 F70D0000 		.4byte	0xdf7
 3584 0dec 0E       		.uleb128 0xe
 3585 0ded B2000000 		.4byte	0xb2
 3586 0df1 0E       		.uleb128 0xe
 3587 0df2 DE000000 		.4byte	0xde
 3588 0df6 00       		.byte	0
 3589 0df7 33       		.uleb128 0x33
 3590 0df8 B6030000 		.4byte	.LASF111
 3591 0dfc 01       		.byte	0x1
 3592 0dfd 48       		.byte	0x48
 3593 0dfe 080E0000 		.4byte	0xe08
 3594 0e02 05       		.uleb128 0x5
 3595 0e03 03       		.byte	0x3
 3596 0e04 00000000 		.4byte	lv_txt_encoded_get_byte_id
 3597 0e08 05       		.uleb128 0x5
 3598 0e09 04       		.byte	0x4
 3599 0e0a E30D0000 		.4byte	0xde3
 3600 0e0e 33       		.uleb128 0x33
 3601 0e0f 9F030000 		.4byte	.LASF112
 3602 0e13 01       		.byte	0x1
 3603 0e14 49       		.byte	0x49
 3604 0e15 080E0000 		.4byte	0xe08
 3605 0e19 05       		.uleb128 0x5
 3606 0e1a 03       		.byte	0x3
 3607 0e1b 00000000 		.4byte	lv_encoded_get_char_id
 3608 0e1f 0D       		.uleb128 0xd
 3609 0e20 DE000000 		.4byte	0xde
 3610 0e24 2E0E0000 		.4byte	0xe2e
 3611 0e28 0E       		.uleb128 0xe
 3612 0e29 B2000000 		.4byte	0xb2
 3613 0e2d 00       		.byte	0
 3614 0e2e 33       		.uleb128 0x33
 3615 0e2f CD010000 		.4byte	.LASF113
 3616 0e33 01       		.byte	0x1
 3617 0e34 4A       		.byte	0x4a
 3618 0e35 3F0E0000 		.4byte	0xe3f
 3619 0e39 05       		.uleb128 0x5
 3620 0e3a 03       		.byte	0x3
 3621 0e3b 00000000 		.4byte	lv_txt_get_encoded_length
 3622 0e3f 05       		.uleb128 0x5
 3623 0e40 04       		.byte	0x4
ARM GAS  C:\Users\d3bug\AppData\Local\Temp\ccfzCIuT.s 			page 84


 3624 0e41 1F0E0000 		.4byte	0xe1f
 3625 0e45 34       		.uleb128 0x34
 3626 0e46 3F050000 		.4byte	.LASF114
 3627 0e4a 3F050000 		.4byte	.LASF114
 3628 0e4e 02       		.byte	0x2
 3629 0e4f 6E       		.byte	0x6e
 3630 0e50 34       		.uleb128 0x34
 3631 0e51 40000000 		.4byte	.LASF115
 3632 0e55 40000000 		.4byte	.LASF115
 3633 0e59 07       		.byte	0x7
 3634 0e5a 21       		.byte	0x21
 3635 0e5b 35       		.uleb128 0x35
 3636 0e5c 91060000 		.4byte	.LASF122
 3637 0e60 91060000 		.4byte	.LASF122
 3638 0e64 00       		.byte	0
 3639              		.section	.debug_abbrev,"",%progbits
 3640              	.Ldebug_abbrev0:
 3641 0000 01       		.uleb128 0x1
 3642 0001 11       		.uleb128 0x11
 3643 0002 01       		.byte	0x1
 3644 0003 25       		.uleb128 0x25
 3645 0004 0E       		.uleb128 0xe
 3646 0005 13       		.uleb128 0x13
 3647 0006 0B       		.uleb128 0xb
 3648 0007 03       		.uleb128 0x3
 3649 0008 0E       		.uleb128 0xe
 3650 0009 1B       		.uleb128 0x1b
 3651 000a 0E       		.uleb128 0xe
 3652 000b 55       		.uleb128 0x55
 3653 000c 17       		.uleb128 0x17
 3654 000d 11       		.uleb128 0x11
 3655 000e 01       		.uleb128 0x1
 3656 000f 10       		.uleb128 0x10
 3657 0010 17       		.uleb128 0x17
 3658 0011 00       		.byte	0
 3659 0012 00       		.byte	0
 3660 0013 02       		.uleb128 0x2
 3661 0014 24       		.uleb128 0x24
 3662 0015 00       		.byte	0
 3663 0016 0B       		.uleb128 0xb
 3664 0017 0B       		.uleb128 0xb
 3665 0018 3E       		.uleb128 0x3e
 3666 0019 0B       		.uleb128 0xb
 3667 001a 03       		.uleb128 0x3
 3668 001b 08       		.uleb128 0x8
 3669 001c 00       		.byte	0
 3670 001d 00       		.byte	0
 3671 001e 03       		.uleb128 0x3
 3672 001f 24       		.uleb128 0x24
 3673 0020 00       		.byte	0
 3674 0021 0B       		.uleb128 0xb
 3675 0022 0B       		.uleb128 0xb
 3676 0023 3E       		.uleb128 0x3e
 3677 0024 0B       		.uleb128 0xb
 3678 0025 03       		.uleb128 0x3
 3679 0026 0E       		.uleb128 0xe
 3680 0027 00       		.byte	0
ARM GAS  C:\Users\d3bug\AppData\Local\Temp\ccfzCIuT.s 			page 85


 3681 0028 00       		.byte	0
 3682 0029 04       		.uleb128 0x4
 3683 002a 16       		.uleb128 0x16
 3684 002b 00       		.byte	0
 3685 002c 03       		.uleb128 0x3
 3686 002d 0E       		.uleb128 0xe
 3687 002e 3A       		.uleb128 0x3a
 3688 002f 0B       		.uleb128 0xb
 3689 0030 3B       		.uleb128 0x3b
 3690 0031 0B       		.uleb128 0xb
 3691 0032 49       		.uleb128 0x49
 3692 0033 13       		.uleb128 0x13
 3693 0034 00       		.byte	0
 3694 0035 00       		.byte	0
 3695 0036 05       		.uleb128 0x5
 3696 0037 0F       		.uleb128 0xf
 3697 0038 00       		.byte	0
 3698 0039 0B       		.uleb128 0xb
 3699 003a 0B       		.uleb128 0xb
 3700 003b 49       		.uleb128 0x49
 3701 003c 13       		.uleb128 0x13
 3702 003d 00       		.byte	0
 3703 003e 00       		.byte	0
 3704 003f 06       		.uleb128 0x6
 3705 0040 26       		.uleb128 0x26
 3706 0041 00       		.byte	0
 3707 0042 49       		.uleb128 0x49
 3708 0043 13       		.uleb128 0x13
 3709 0044 00       		.byte	0
 3710 0045 00       		.byte	0
 3711 0046 07       		.uleb128 0x7
 3712 0047 13       		.uleb128 0x13
 3713 0048 01       		.byte	0x1
 3714 0049 0B       		.uleb128 0xb
 3715 004a 0B       		.uleb128 0xb
 3716 004b 3A       		.uleb128 0x3a
 3717 004c 0B       		.uleb128 0xb
 3718 004d 3B       		.uleb128 0x3b
 3719 004e 0B       		.uleb128 0xb
 3720 004f 01       		.uleb128 0x1
 3721 0050 13       		.uleb128 0x13
 3722 0051 00       		.byte	0
 3723 0052 00       		.byte	0
 3724 0053 08       		.uleb128 0x8
 3725 0054 0D       		.uleb128 0xd
 3726 0055 00       		.byte	0
 3727 0056 03       		.uleb128 0x3
 3728 0057 08       		.uleb128 0x8
 3729 0058 3A       		.uleb128 0x3a
 3730 0059 0B       		.uleb128 0xb
 3731 005a 3B       		.uleb128 0x3b
 3732 005b 0B       		.uleb128 0xb
 3733 005c 49       		.uleb128 0x49
 3734 005d 13       		.uleb128 0x13
 3735 005e 38       		.uleb128 0x38
 3736 005f 0B       		.uleb128 0xb
 3737 0060 00       		.byte	0
ARM GAS  C:\Users\d3bug\AppData\Local\Temp\ccfzCIuT.s 			page 86


 3738 0061 00       		.byte	0
 3739 0062 09       		.uleb128 0x9
 3740 0063 0D       		.uleb128 0xd
 3741 0064 00       		.byte	0
 3742 0065 03       		.uleb128 0x3
 3743 0066 0E       		.uleb128 0xe
 3744 0067 3A       		.uleb128 0x3a
 3745 0068 0B       		.uleb128 0xb
 3746 0069 3B       		.uleb128 0x3b
 3747 006a 0B       		.uleb128 0xb
 3748 006b 49       		.uleb128 0x49
 3749 006c 13       		.uleb128 0x13
 3750 006d 0B       		.uleb128 0xb
 3751 006e 0B       		.uleb128 0xb
 3752 006f 0D       		.uleb128 0xd
 3753 0070 0B       		.uleb128 0xb
 3754 0071 0C       		.uleb128 0xc
 3755 0072 0B       		.uleb128 0xb
 3756 0073 38       		.uleb128 0x38
 3757 0074 0B       		.uleb128 0xb
 3758 0075 00       		.byte	0
 3759 0076 00       		.byte	0
 3760 0077 0A       		.uleb128 0xa
 3761 0078 13       		.uleb128 0x13
 3762 0079 01       		.byte	0x1
 3763 007a 03       		.uleb128 0x3
 3764 007b 0E       		.uleb128 0xe
 3765 007c 0B       		.uleb128 0xb
 3766 007d 0B       		.uleb128 0xb
 3767 007e 3A       		.uleb128 0x3a
 3768 007f 0B       		.uleb128 0xb
 3769 0080 3B       		.uleb128 0x3b
 3770 0081 0B       		.uleb128 0xb
 3771 0082 01       		.uleb128 0x1
 3772 0083 13       		.uleb128 0x13
 3773 0084 00       		.byte	0
 3774 0085 00       		.byte	0
 3775 0086 0B       		.uleb128 0xb
 3776 0087 0D       		.uleb128 0xd
 3777 0088 00       		.byte	0
 3778 0089 03       		.uleb128 0x3
 3779 008a 0E       		.uleb128 0xe
 3780 008b 3A       		.uleb128 0x3a
 3781 008c 0B       		.uleb128 0xb
 3782 008d 3B       		.uleb128 0x3b
 3783 008e 0B       		.uleb128 0xb
 3784 008f 49       		.uleb128 0x49
 3785 0090 13       		.uleb128 0x13
 3786 0091 38       		.uleb128 0x38
 3787 0092 0B       		.uleb128 0xb
 3788 0093 00       		.byte	0
 3789 0094 00       		.byte	0
 3790 0095 0C       		.uleb128 0xc
 3791 0096 0D       		.uleb128 0xd
 3792 0097 00       		.byte	0
 3793 0098 03       		.uleb128 0x3
 3794 0099 08       		.uleb128 0x8
ARM GAS  C:\Users\d3bug\AppData\Local\Temp\ccfzCIuT.s 			page 87


 3795 009a 3A       		.uleb128 0x3a
 3796 009b 0B       		.uleb128 0xb
 3797 009c 3B       		.uleb128 0x3b
 3798 009d 0B       		.uleb128 0xb
 3799 009e 49       		.uleb128 0x49
 3800 009f 13       		.uleb128 0x13
 3801 00a0 0B       		.uleb128 0xb
 3802 00a1 0B       		.uleb128 0xb
 3803 00a2 0D       		.uleb128 0xd
 3804 00a3 0B       		.uleb128 0xb
 3805 00a4 0C       		.uleb128 0xc
 3806 00a5 0B       		.uleb128 0xb
 3807 00a6 38       		.uleb128 0x38
 3808 00a7 0B       		.uleb128 0xb
 3809 00a8 00       		.byte	0
 3810 00a9 00       		.byte	0
 3811 00aa 0D       		.uleb128 0xd
 3812 00ab 15       		.uleb128 0x15
 3813 00ac 01       		.byte	0x1
 3814 00ad 27       		.uleb128 0x27
 3815 00ae 19       		.uleb128 0x19
 3816 00af 49       		.uleb128 0x49
 3817 00b0 13       		.uleb128 0x13
 3818 00b1 01       		.uleb128 0x1
 3819 00b2 13       		.uleb128 0x13
 3820 00b3 00       		.byte	0
 3821 00b4 00       		.byte	0
 3822 00b5 0E       		.uleb128 0xe
 3823 00b6 05       		.uleb128 0x5
 3824 00b7 00       		.byte	0
 3825 00b8 49       		.uleb128 0x49
 3826 00b9 13       		.uleb128 0x13
 3827 00ba 00       		.byte	0
 3828 00bb 00       		.byte	0
 3829 00bc 0F       		.uleb128 0xf
 3830 00bd 04       		.uleb128 0x4
 3831 00be 01       		.byte	0x1
 3832 00bf 0B       		.uleb128 0xb
 3833 00c0 0B       		.uleb128 0xb
 3834 00c1 49       		.uleb128 0x49
 3835 00c2 13       		.uleb128 0x13
 3836 00c3 3A       		.uleb128 0x3a
 3837 00c4 0B       		.uleb128 0xb
 3838 00c5 3B       		.uleb128 0x3b
 3839 00c6 0B       		.uleb128 0xb
 3840 00c7 01       		.uleb128 0x1
 3841 00c8 13       		.uleb128 0x13
 3842 00c9 00       		.byte	0
 3843 00ca 00       		.byte	0
 3844 00cb 10       		.uleb128 0x10
 3845 00cc 28       		.uleb128 0x28
 3846 00cd 00       		.byte	0
 3847 00ce 03       		.uleb128 0x3
 3848 00cf 0E       		.uleb128 0xe
 3849 00d0 1C       		.uleb128 0x1c
 3850 00d1 0B       		.uleb128 0xb
 3851 00d2 00       		.byte	0
ARM GAS  C:\Users\d3bug\AppData\Local\Temp\ccfzCIuT.s 			page 88


 3852 00d3 00       		.byte	0
 3853 00d4 11       		.uleb128 0x11
 3854 00d5 2E       		.uleb128 0x2e
 3855 00d6 01       		.byte	0x1
 3856 00d7 03       		.uleb128 0x3
 3857 00d8 0E       		.uleb128 0xe
 3858 00d9 3A       		.uleb128 0x3a
 3859 00da 0B       		.uleb128 0xb
 3860 00db 3B       		.uleb128 0x3b
 3861 00dc 0B       		.uleb128 0xb
 3862 00dd 27       		.uleb128 0x27
 3863 00de 19       		.uleb128 0x19
 3864 00df 49       		.uleb128 0x49
 3865 00e0 13       		.uleb128 0x13
 3866 00e1 20       		.uleb128 0x20
 3867 00e2 0B       		.uleb128 0xb
 3868 00e3 01       		.uleb128 0x1
 3869 00e4 13       		.uleb128 0x13
 3870 00e5 00       		.byte	0
 3871 00e6 00       		.byte	0
 3872 00e7 12       		.uleb128 0x12
 3873 00e8 05       		.uleb128 0x5
 3874 00e9 00       		.byte	0
 3875 00ea 03       		.uleb128 0x3
 3876 00eb 0E       		.uleb128 0xe
 3877 00ec 3A       		.uleb128 0x3a
 3878 00ed 0B       		.uleb128 0xb
 3879 00ee 3B       		.uleb128 0x3b
 3880 00ef 0B       		.uleb128 0xb
 3881 00f0 49       		.uleb128 0x49
 3882 00f1 13       		.uleb128 0x13
 3883 00f2 00       		.byte	0
 3884 00f3 00       		.byte	0
 3885 00f4 13       		.uleb128 0x13
 3886 00f5 2E       		.uleb128 0x2e
 3887 00f6 01       		.byte	0x1
 3888 00f7 03       		.uleb128 0x3
 3889 00f8 0E       		.uleb128 0xe
 3890 00f9 3A       		.uleb128 0x3a
 3891 00fa 0B       		.uleb128 0xb
 3892 00fb 3B       		.uleb128 0x3b
 3893 00fc 05       		.uleb128 0x5
 3894 00fd 27       		.uleb128 0x27
 3895 00fe 19       		.uleb128 0x19
 3896 00ff 49       		.uleb128 0x49
 3897 0100 13       		.uleb128 0x13
 3898 0101 11       		.uleb128 0x11
 3899 0102 01       		.uleb128 0x1
 3900 0103 12       		.uleb128 0x12
 3901 0104 06       		.uleb128 0x6
 3902 0105 40       		.uleb128 0x40
 3903 0106 18       		.uleb128 0x18
 3904 0107 9742     		.uleb128 0x2117
 3905 0109 19       		.uleb128 0x19
 3906 010a 01       		.uleb128 0x1
 3907 010b 13       		.uleb128 0x13
 3908 010c 00       		.byte	0
ARM GAS  C:\Users\d3bug\AppData\Local\Temp\ccfzCIuT.s 			page 89


 3909 010d 00       		.byte	0
 3910 010e 14       		.uleb128 0x14
 3911 010f 05       		.uleb128 0x5
 3912 0110 00       		.byte	0
 3913 0111 03       		.uleb128 0x3
 3914 0112 08       		.uleb128 0x8
 3915 0113 3A       		.uleb128 0x3a
 3916 0114 0B       		.uleb128 0xb
 3917 0115 3B       		.uleb128 0x3b
 3918 0116 05       		.uleb128 0x5
 3919 0117 49       		.uleb128 0x49
 3920 0118 13       		.uleb128 0x13
 3921 0119 02       		.uleb128 0x2
 3922 011a 17       		.uleb128 0x17
 3923 011b 00       		.byte	0
 3924 011c 00       		.byte	0
 3925 011d 15       		.uleb128 0x15
 3926 011e 05       		.uleb128 0x5
 3927 011f 00       		.byte	0
 3928 0120 03       		.uleb128 0x3
 3929 0121 0E       		.uleb128 0xe
 3930 0122 3A       		.uleb128 0x3a
 3931 0123 0B       		.uleb128 0xb
 3932 0124 3B       		.uleb128 0x3b
 3933 0125 05       		.uleb128 0x5
 3934 0126 49       		.uleb128 0x49
 3935 0127 13       		.uleb128 0x13
 3936 0128 02       		.uleb128 0x2
 3937 0129 17       		.uleb128 0x17
 3938 012a 00       		.byte	0
 3939 012b 00       		.byte	0
 3940 012c 16       		.uleb128 0x16
 3941 012d 34       		.uleb128 0x34
 3942 012e 00       		.byte	0
 3943 012f 03       		.uleb128 0x3
 3944 0130 0E       		.uleb128 0xe
 3945 0131 3A       		.uleb128 0x3a
 3946 0132 0B       		.uleb128 0xb
 3947 0133 3B       		.uleb128 0x3b
 3948 0134 05       		.uleb128 0x5
 3949 0135 49       		.uleb128 0x49
 3950 0136 13       		.uleb128 0x13
 3951 0137 02       		.uleb128 0x2
 3952 0138 18       		.uleb128 0x18
 3953 0139 00       		.byte	0
 3954 013a 00       		.byte	0
 3955 013b 17       		.uleb128 0x17
 3956 013c 34       		.uleb128 0x34
 3957 013d 00       		.byte	0
 3958 013e 03       		.uleb128 0x3
 3959 013f 0E       		.uleb128 0xe
 3960 0140 3A       		.uleb128 0x3a
 3961 0141 0B       		.uleb128 0xb
 3962 0142 3B       		.uleb128 0x3b
 3963 0143 05       		.uleb128 0x5
 3964 0144 49       		.uleb128 0x49
 3965 0145 13       		.uleb128 0x13
ARM GAS  C:\Users\d3bug\AppData\Local\Temp\ccfzCIuT.s 			page 90


 3966 0146 02       		.uleb128 0x2
 3967 0147 17       		.uleb128 0x17
 3968 0148 00       		.byte	0
 3969 0149 00       		.byte	0
 3970 014a 18       		.uleb128 0x18
 3971 014b 01       		.uleb128 0x1
 3972 014c 01       		.byte	0x1
 3973 014d 49       		.uleb128 0x49
 3974 014e 13       		.uleb128 0x13
 3975 014f 01       		.uleb128 0x1
 3976 0150 13       		.uleb128 0x13
 3977 0151 00       		.byte	0
 3978 0152 00       		.byte	0
 3979 0153 19       		.uleb128 0x19
 3980 0154 21       		.uleb128 0x21
 3981 0155 00       		.byte	0
 3982 0156 49       		.uleb128 0x49
 3983 0157 13       		.uleb128 0x13
 3984 0158 2F       		.uleb128 0x2f
 3985 0159 0B       		.uleb128 0xb
 3986 015a 00       		.byte	0
 3987 015b 00       		.byte	0
 3988 015c 1A       		.uleb128 0x1a
 3989 015d 0B       		.uleb128 0xb
 3990 015e 01       		.byte	0x1
 3991 015f 11       		.uleb128 0x11
 3992 0160 01       		.uleb128 0x1
 3993 0161 12       		.uleb128 0x12
 3994 0162 06       		.uleb128 0x6
 3995 0163 00       		.byte	0
 3996 0164 00       		.byte	0
 3997 0165 1B       		.uleb128 0x1b
 3998 0166 34       		.uleb128 0x34
 3999 0167 00       		.byte	0
 4000 0168 03       		.uleb128 0x3
 4001 0169 08       		.uleb128 0x8
 4002 016a 3A       		.uleb128 0x3a
 4003 016b 0B       		.uleb128 0xb
 4004 016c 3B       		.uleb128 0x3b
 4005 016d 05       		.uleb128 0x5
 4006 016e 49       		.uleb128 0x49
 4007 016f 13       		.uleb128 0x13
 4008 0170 02       		.uleb128 0x2
 4009 0171 18       		.uleb128 0x18
 4010 0172 00       		.byte	0
 4011 0173 00       		.byte	0
 4012 0174 1C       		.uleb128 0x1c
 4013 0175 34       		.uleb128 0x34
 4014 0176 00       		.byte	0
 4015 0177 03       		.uleb128 0x3
 4016 0178 08       		.uleb128 0x8
 4017 0179 3A       		.uleb128 0x3a
 4018 017a 0B       		.uleb128 0xb
 4019 017b 3B       		.uleb128 0x3b
 4020 017c 05       		.uleb128 0x5
 4021 017d 49       		.uleb128 0x49
 4022 017e 13       		.uleb128 0x13
ARM GAS  C:\Users\d3bug\AppData\Local\Temp\ccfzCIuT.s 			page 91


 4023 017f 02       		.uleb128 0x2
 4024 0180 17       		.uleb128 0x17
 4025 0181 00       		.byte	0
 4026 0182 00       		.byte	0
 4027 0183 1D       		.uleb128 0x1d
 4028 0184 2E       		.uleb128 0x2e
 4029 0185 01       		.byte	0x1
 4030 0186 03       		.uleb128 0x3
 4031 0187 0E       		.uleb128 0xe
 4032 0188 3A       		.uleb128 0x3a
 4033 0189 0B       		.uleb128 0xb
 4034 018a 3B       		.uleb128 0x3b
 4035 018b 05       		.uleb128 0x5
 4036 018c 27       		.uleb128 0x27
 4037 018d 19       		.uleb128 0x19
 4038 018e 49       		.uleb128 0x49
 4039 018f 13       		.uleb128 0x13
 4040 0190 11       		.uleb128 0x11
 4041 0191 01       		.uleb128 0x1
 4042 0192 12       		.uleb128 0x12
 4043 0193 06       		.uleb128 0x6
 4044 0194 40       		.uleb128 0x40
 4045 0195 18       		.uleb128 0x18
 4046 0196 9642     		.uleb128 0x2116
 4047 0198 19       		.uleb128 0x19
 4048 0199 01       		.uleb128 0x1
 4049 019a 13       		.uleb128 0x13
 4050 019b 00       		.byte	0
 4051 019c 00       		.byte	0
 4052 019d 1E       		.uleb128 0x1e
 4053 019e 34       		.uleb128 0x34
 4054 019f 00       		.byte	0
 4055 01a0 03       		.uleb128 0x3
 4056 01a1 0E       		.uleb128 0xe
 4057 01a2 3A       		.uleb128 0x3a
 4058 01a3 0B       		.uleb128 0xb
 4059 01a4 3B       		.uleb128 0x3b
 4060 01a5 05       		.uleb128 0x5
 4061 01a6 49       		.uleb128 0x49
 4062 01a7 13       		.uleb128 0x13
 4063 01a8 00       		.byte	0
 4064 01a9 00       		.byte	0
 4065 01aa 1F       		.uleb128 0x1f
 4066 01ab 898201   		.uleb128 0x4109
 4067 01ae 01       		.byte	0x1
 4068 01af 11       		.uleb128 0x11
 4069 01b0 01       		.uleb128 0x1
 4070 01b1 00       		.byte	0
 4071 01b2 00       		.byte	0
 4072 01b3 20       		.uleb128 0x20
 4073 01b4 8A8201   		.uleb128 0x410a
 4074 01b7 00       		.byte	0
 4075 01b8 02       		.uleb128 0x2
 4076 01b9 18       		.uleb128 0x18
 4077 01ba 9142     		.uleb128 0x2111
 4078 01bc 18       		.uleb128 0x18
 4079 01bd 00       		.byte	0
ARM GAS  C:\Users\d3bug\AppData\Local\Temp\ccfzCIuT.s 			page 92


 4080 01be 00       		.byte	0
 4081 01bf 21       		.uleb128 0x21
 4082 01c0 2E       		.uleb128 0x2e
 4083 01c1 01       		.byte	0x1
 4084 01c2 3F       		.uleb128 0x3f
 4085 01c3 19       		.uleb128 0x19
 4086 01c4 03       		.uleb128 0x3
 4087 01c5 0E       		.uleb128 0xe
 4088 01c6 3A       		.uleb128 0x3a
 4089 01c7 0B       		.uleb128 0xb
 4090 01c8 3B       		.uleb128 0x3b
 4091 01c9 05       		.uleb128 0x5
 4092 01ca 27       		.uleb128 0x27
 4093 01cb 19       		.uleb128 0x19
 4094 01cc 49       		.uleb128 0x49
 4095 01cd 13       		.uleb128 0x13
 4096 01ce 11       		.uleb128 0x11
 4097 01cf 01       		.uleb128 0x1
 4098 01d0 12       		.uleb128 0x12
 4099 01d1 06       		.uleb128 0x6
 4100 01d2 40       		.uleb128 0x40
 4101 01d3 18       		.uleb128 0x18
 4102 01d4 9742     		.uleb128 0x2117
 4103 01d6 19       		.uleb128 0x19
 4104 01d7 01       		.uleb128 0x1
 4105 01d8 13       		.uleb128 0x13
 4106 01d9 00       		.byte	0
 4107 01da 00       		.byte	0
 4108 01db 22       		.uleb128 0x22
 4109 01dc 05       		.uleb128 0x5
 4110 01dd 00       		.byte	0
 4111 01de 03       		.uleb128 0x3
 4112 01df 08       		.uleb128 0x8
 4113 01e0 3A       		.uleb128 0x3a
 4114 01e1 0B       		.uleb128 0xb
 4115 01e2 3B       		.uleb128 0x3b
 4116 01e3 05       		.uleb128 0x5
 4117 01e4 49       		.uleb128 0x49
 4118 01e5 13       		.uleb128 0x13
 4119 01e6 02       		.uleb128 0x2
 4120 01e7 18       		.uleb128 0x18
 4121 01e8 00       		.byte	0
 4122 01e9 00       		.byte	0
 4123 01ea 23       		.uleb128 0x23
 4124 01eb 2E       		.uleb128 0x2e
 4125 01ec 01       		.byte	0x1
 4126 01ed 3F       		.uleb128 0x3f
 4127 01ee 19       		.uleb128 0x19
 4128 01ef 03       		.uleb128 0x3
 4129 01f0 0E       		.uleb128 0xe
 4130 01f1 3A       		.uleb128 0x3a
 4131 01f2 0B       		.uleb128 0xb
 4132 01f3 3B       		.uleb128 0x3b
 4133 01f4 0B       		.uleb128 0xb
 4134 01f5 27       		.uleb128 0x27
 4135 01f6 19       		.uleb128 0x19
 4136 01f7 49       		.uleb128 0x49
ARM GAS  C:\Users\d3bug\AppData\Local\Temp\ccfzCIuT.s 			page 93


 4137 01f8 13       		.uleb128 0x13
 4138 01f9 11       		.uleb128 0x11
 4139 01fa 01       		.uleb128 0x1
 4140 01fb 12       		.uleb128 0x12
 4141 01fc 06       		.uleb128 0x6
 4142 01fd 40       		.uleb128 0x40
 4143 01fe 18       		.uleb128 0x18
 4144 01ff 9742     		.uleb128 0x2117
 4145 0201 19       		.uleb128 0x19
 4146 0202 01       		.uleb128 0x1
 4147 0203 13       		.uleb128 0x13
 4148 0204 00       		.byte	0
 4149 0205 00       		.byte	0
 4150 0206 24       		.uleb128 0x24
 4151 0207 05       		.uleb128 0x5
 4152 0208 00       		.byte	0
 4153 0209 03       		.uleb128 0x3
 4154 020a 08       		.uleb128 0x8
 4155 020b 3A       		.uleb128 0x3a
 4156 020c 0B       		.uleb128 0xb
 4157 020d 3B       		.uleb128 0x3b
 4158 020e 0B       		.uleb128 0xb
 4159 020f 49       		.uleb128 0x49
 4160 0210 13       		.uleb128 0x13
 4161 0211 02       		.uleb128 0x2
 4162 0212 17       		.uleb128 0x17
 4163 0213 00       		.byte	0
 4164 0214 00       		.byte	0
 4165 0215 25       		.uleb128 0x25
 4166 0216 05       		.uleb128 0x5
 4167 0217 00       		.byte	0
 4168 0218 03       		.uleb128 0x3
 4169 0219 0E       		.uleb128 0xe
 4170 021a 3A       		.uleb128 0x3a
 4171 021b 0B       		.uleb128 0xb
 4172 021c 3B       		.uleb128 0x3b
 4173 021d 0B       		.uleb128 0xb
 4174 021e 49       		.uleb128 0x49
 4175 021f 13       		.uleb128 0x13
 4176 0220 02       		.uleb128 0x2
 4177 0221 17       		.uleb128 0x17
 4178 0222 00       		.byte	0
 4179 0223 00       		.byte	0
 4180 0224 26       		.uleb128 0x26
 4181 0225 34       		.uleb128 0x34
 4182 0226 00       		.byte	0
 4183 0227 03       		.uleb128 0x3
 4184 0228 08       		.uleb128 0x8
 4185 0229 3A       		.uleb128 0x3a
 4186 022a 0B       		.uleb128 0xb
 4187 022b 3B       		.uleb128 0x3b
 4188 022c 0B       		.uleb128 0xb
 4189 022d 49       		.uleb128 0x49
 4190 022e 13       		.uleb128 0x13
 4191 022f 02       		.uleb128 0x2
 4192 0230 18       		.uleb128 0x18
 4193 0231 00       		.byte	0
ARM GAS  C:\Users\d3bug\AppData\Local\Temp\ccfzCIuT.s 			page 94


 4194 0232 00       		.byte	0
 4195 0233 27       		.uleb128 0x27
 4196 0234 34       		.uleb128 0x34
 4197 0235 00       		.byte	0
 4198 0236 03       		.uleb128 0x3
 4199 0237 0E       		.uleb128 0xe
 4200 0238 3A       		.uleb128 0x3a
 4201 0239 0B       		.uleb128 0xb
 4202 023a 3B       		.uleb128 0x3b
 4203 023b 0B       		.uleb128 0xb
 4204 023c 49       		.uleb128 0x49
 4205 023d 13       		.uleb128 0x13
 4206 023e 02       		.uleb128 0x2
 4207 023f 17       		.uleb128 0x17
 4208 0240 00       		.byte	0
 4209 0241 00       		.byte	0
 4210 0242 28       		.uleb128 0x28
 4211 0243 34       		.uleb128 0x34
 4212 0244 00       		.byte	0
 4213 0245 03       		.uleb128 0x3
 4214 0246 0E       		.uleb128 0xe
 4215 0247 3A       		.uleb128 0x3a
 4216 0248 0B       		.uleb128 0xb
 4217 0249 3B       		.uleb128 0x3b
 4218 024a 0B       		.uleb128 0xb
 4219 024b 49       		.uleb128 0x49
 4220 024c 13       		.uleb128 0x13
 4221 024d 02       		.uleb128 0x2
 4222 024e 18       		.uleb128 0x18
 4223 024f 00       		.byte	0
 4224 0250 00       		.byte	0
 4225 0251 29       		.uleb128 0x29
 4226 0252 0B       		.uleb128 0xb
 4227 0253 01       		.byte	0x1
 4228 0254 11       		.uleb128 0x11
 4229 0255 01       		.uleb128 0x1
 4230 0256 12       		.uleb128 0x12
 4231 0257 06       		.uleb128 0x6
 4232 0258 01       		.uleb128 0x1
 4233 0259 13       		.uleb128 0x13
 4234 025a 00       		.byte	0
 4235 025b 00       		.byte	0
 4236 025c 2A       		.uleb128 0x2a
 4237 025d 898201   		.uleb128 0x4109
 4238 0260 01       		.byte	0x1
 4239 0261 11       		.uleb128 0x11
 4240 0262 01       		.uleb128 0x1
 4241 0263 01       		.uleb128 0x1
 4242 0264 13       		.uleb128 0x13
 4243 0265 00       		.byte	0
 4244 0266 00       		.byte	0
 4245 0267 2B       		.uleb128 0x2b
 4246 0268 898201   		.uleb128 0x4109
 4247 026b 01       		.byte	0x1
 4248 026c 11       		.uleb128 0x11
 4249 026d 01       		.uleb128 0x1
 4250 026e 31       		.uleb128 0x31
ARM GAS  C:\Users\d3bug\AppData\Local\Temp\ccfzCIuT.s 			page 95


 4251 026f 13       		.uleb128 0x13
 4252 0270 01       		.uleb128 0x1
 4253 0271 13       		.uleb128 0x13
 4254 0272 00       		.byte	0
 4255 0273 00       		.byte	0
 4256 0274 2C       		.uleb128 0x2c
 4257 0275 898201   		.uleb128 0x4109
 4258 0278 01       		.byte	0x1
 4259 0279 11       		.uleb128 0x11
 4260 027a 01       		.uleb128 0x1
 4261 027b 31       		.uleb128 0x31
 4262 027c 13       		.uleb128 0x13
 4263 027d 00       		.byte	0
 4264 027e 00       		.byte	0
 4265 027f 2D       		.uleb128 0x2d
 4266 0280 2E       		.uleb128 0x2e
 4267 0281 01       		.byte	0x1
 4268 0282 3F       		.uleb128 0x3f
 4269 0283 19       		.uleb128 0x19
 4270 0284 03       		.uleb128 0x3
 4271 0285 0E       		.uleb128 0xe
 4272 0286 3A       		.uleb128 0x3a
 4273 0287 0B       		.uleb128 0xb
 4274 0288 3B       		.uleb128 0x3b
 4275 0289 0B       		.uleb128 0xb
 4276 028a 27       		.uleb128 0x27
 4277 028b 19       		.uleb128 0x19
 4278 028c 11       		.uleb128 0x11
 4279 028d 01       		.uleb128 0x1
 4280 028e 12       		.uleb128 0x12
 4281 028f 06       		.uleb128 0x6
 4282 0290 40       		.uleb128 0x40
 4283 0291 18       		.uleb128 0x18
 4284 0292 9742     		.uleb128 0x2117
 4285 0294 19       		.uleb128 0x19
 4286 0295 01       		.uleb128 0x1
 4287 0296 13       		.uleb128 0x13
 4288 0297 00       		.byte	0
 4289 0298 00       		.byte	0
 4290 0299 2E       		.uleb128 0x2e
 4291 029a 05       		.uleb128 0x5
 4292 029b 00       		.byte	0
 4293 029c 03       		.uleb128 0x3
 4294 029d 0E       		.uleb128 0xe
 4295 029e 3A       		.uleb128 0x3a
 4296 029f 0B       		.uleb128 0xb
 4297 02a0 3B       		.uleb128 0x3b
 4298 02a1 0B       		.uleb128 0xb
 4299 02a2 49       		.uleb128 0x49
 4300 02a3 13       		.uleb128 0x13
 4301 02a4 02       		.uleb128 0x2
 4302 02a5 18       		.uleb128 0x18
 4303 02a6 00       		.byte	0
 4304 02a7 00       		.byte	0
 4305 02a8 2F       		.uleb128 0x2f
 4306 02a9 34       		.uleb128 0x34
 4307 02aa 00       		.byte	0
ARM GAS  C:\Users\d3bug\AppData\Local\Temp\ccfzCIuT.s 			page 96


 4308 02ab 03       		.uleb128 0x3
 4309 02ac 0E       		.uleb128 0xe
 4310 02ad 3A       		.uleb128 0x3a
 4311 02ae 0B       		.uleb128 0xb
 4312 02af 3B       		.uleb128 0x3b
 4313 02b0 0B       		.uleb128 0xb
 4314 02b1 49       		.uleb128 0x49
 4315 02b2 13       		.uleb128 0x13
 4316 02b3 00       		.byte	0
 4317 02b4 00       		.byte	0
 4318 02b5 30       		.uleb128 0x30
 4319 02b6 1D       		.uleb128 0x1d
 4320 02b7 01       		.byte	0x1
 4321 02b8 31       		.uleb128 0x31
 4322 02b9 13       		.uleb128 0x13
 4323 02ba 11       		.uleb128 0x11
 4324 02bb 01       		.uleb128 0x1
 4325 02bc 12       		.uleb128 0x12
 4326 02bd 06       		.uleb128 0x6
 4327 02be 58       		.uleb128 0x58
 4328 02bf 0B       		.uleb128 0xb
 4329 02c0 59       		.uleb128 0x59
 4330 02c1 0B       		.uleb128 0xb
 4331 02c2 01       		.uleb128 0x1
 4332 02c3 13       		.uleb128 0x13
 4333 02c4 00       		.byte	0
 4334 02c5 00       		.byte	0
 4335 02c6 31       		.uleb128 0x31
 4336 02c7 05       		.uleb128 0x5
 4337 02c8 00       		.byte	0
 4338 02c9 31       		.uleb128 0x31
 4339 02ca 13       		.uleb128 0x13
 4340 02cb 02       		.uleb128 0x2
 4341 02cc 17       		.uleb128 0x17
 4342 02cd 00       		.byte	0
 4343 02ce 00       		.byte	0
 4344 02cf 32       		.uleb128 0x32
 4345 02d0 2E       		.uleb128 0x2e
 4346 02d1 01       		.byte	0x1
 4347 02d2 3F       		.uleb128 0x3f
 4348 02d3 19       		.uleb128 0x19
 4349 02d4 03       		.uleb128 0x3
 4350 02d5 0E       		.uleb128 0xe
 4351 02d6 3A       		.uleb128 0x3a
 4352 02d7 0B       		.uleb128 0xb
 4353 02d8 3B       		.uleb128 0x3b
 4354 02d9 05       		.uleb128 0x5
 4355 02da 27       		.uleb128 0x27
 4356 02db 19       		.uleb128 0x19
 4357 02dc 11       		.uleb128 0x11
 4358 02dd 01       		.uleb128 0x1
 4359 02de 12       		.uleb128 0x12
 4360 02df 06       		.uleb128 0x6
 4361 02e0 40       		.uleb128 0x40
 4362 02e1 18       		.uleb128 0x18
 4363 02e2 9742     		.uleb128 0x2117
 4364 02e4 19       		.uleb128 0x19
ARM GAS  C:\Users\d3bug\AppData\Local\Temp\ccfzCIuT.s 			page 97


 4365 02e5 01       		.uleb128 0x1
 4366 02e6 13       		.uleb128 0x13
 4367 02e7 00       		.byte	0
 4368 02e8 00       		.byte	0
 4369 02e9 33       		.uleb128 0x33
 4370 02ea 34       		.uleb128 0x34
 4371 02eb 00       		.byte	0
 4372 02ec 03       		.uleb128 0x3
 4373 02ed 0E       		.uleb128 0xe
 4374 02ee 3A       		.uleb128 0x3a
 4375 02ef 0B       		.uleb128 0xb
 4376 02f0 3B       		.uleb128 0x3b
 4377 02f1 0B       		.uleb128 0xb
 4378 02f2 49       		.uleb128 0x49
 4379 02f3 13       		.uleb128 0x13
 4380 02f4 3F       		.uleb128 0x3f
 4381 02f5 19       		.uleb128 0x19
 4382 02f6 02       		.uleb128 0x2
 4383 02f7 18       		.uleb128 0x18
 4384 02f8 00       		.byte	0
 4385 02f9 00       		.byte	0
 4386 02fa 34       		.uleb128 0x34
 4387 02fb 2E       		.uleb128 0x2e
 4388 02fc 00       		.byte	0
 4389 02fd 3F       		.uleb128 0x3f
 4390 02fe 19       		.uleb128 0x19
 4391 02ff 3C       		.uleb128 0x3c
 4392 0300 19       		.uleb128 0x19
 4393 0301 6E       		.uleb128 0x6e
 4394 0302 0E       		.uleb128 0xe
 4395 0303 03       		.uleb128 0x3
 4396 0304 0E       		.uleb128 0xe
 4397 0305 3A       		.uleb128 0x3a
 4398 0306 0B       		.uleb128 0xb
 4399 0307 3B       		.uleb128 0x3b
 4400 0308 0B       		.uleb128 0xb
 4401 0309 00       		.byte	0
 4402 030a 00       		.byte	0
 4403 030b 35       		.uleb128 0x35
 4404 030c 2E       		.uleb128 0x2e
 4405 030d 00       		.byte	0
 4406 030e 3F       		.uleb128 0x3f
 4407 030f 19       		.uleb128 0x19
 4408 0310 3C       		.uleb128 0x3c
 4409 0311 19       		.uleb128 0x19
 4410 0312 6E       		.uleb128 0x6e
 4411 0313 0E       		.uleb128 0xe
 4412 0314 03       		.uleb128 0x3
 4413 0315 0E       		.uleb128 0xe
 4414 0316 00       		.byte	0
 4415 0317 00       		.byte	0
 4416 0318 00       		.byte	0
 4417              		.section	.debug_loc,"",%progbits
 4418              	.Ldebug_loc0:
 4419              	.LLST0:
 4420 0000 00000000 		.4byte	.LVL0
 4421 0004 22000000 		.4byte	.LVL1
ARM GAS  C:\Users\d3bug\AppData\Local\Temp\ccfzCIuT.s 			page 98


 4422 0008 0100     		.2byte	0x1
 4423 000a 50       		.byte	0x50
 4424 000b 22000000 		.4byte	.LVL1
 4425 000f 24000000 		.4byte	.LVL2
 4426 0013 0400     		.2byte	0x4
 4427 0015 F3       		.byte	0xf3
 4428 0016 01       		.uleb128 0x1
 4429 0017 50       		.byte	0x50
 4430 0018 9F       		.byte	0x9f
 4431 0019 24000000 		.4byte	.LVL2
 4432 001d 26000000 		.4byte	.LVL3
 4433 0021 0100     		.2byte	0x1
 4434 0023 50       		.byte	0x50
 4435 0024 26000000 		.4byte	.LVL3
 4436 0028 28000000 		.4byte	.LVL4
 4437 002c 0400     		.2byte	0x4
 4438 002e F3       		.byte	0xf3
 4439 002f 01       		.uleb128 0x1
 4440 0030 50       		.byte	0x50
 4441 0031 9F       		.byte	0x9f
 4442 0032 28000000 		.4byte	.LVL4
 4443 0036 2A000000 		.4byte	.LVL5
 4444 003a 0100     		.2byte	0x1
 4445 003c 50       		.byte	0x50
 4446 003d 2A000000 		.4byte	.LVL5
 4447 0041 2C000000 		.4byte	.LVL6
 4448 0045 0400     		.2byte	0x4
 4449 0047 F3       		.byte	0xf3
 4450 0048 01       		.uleb128 0x1
 4451 0049 50       		.byte	0x50
 4452 004a 9F       		.byte	0x9f
 4453 004b 2C000000 		.4byte	.LVL6
 4454 004f 2E000000 		.4byte	.LVL7
 4455 0053 0100     		.2byte	0x1
 4456 0055 50       		.byte	0x50
 4457 0056 2E000000 		.4byte	.LVL7
 4458 005a 30000000 		.4byte	.LVL8
 4459 005e 0400     		.2byte	0x4
 4460 0060 F3       		.byte	0xf3
 4461 0061 01       		.uleb128 0x1
 4462 0062 50       		.byte	0x50
 4463 0063 9F       		.byte	0x9f
 4464 0064 30000000 		.4byte	.LVL8
 4465 0068 32000000 		.4byte	.LVL9
 4466 006c 0100     		.2byte	0x1
 4467 006e 50       		.byte	0x50
 4468 006f 32000000 		.4byte	.LVL9
 4469 0073 34000000 		.4byte	.LFE10
 4470 0077 0400     		.2byte	0x4
 4471 0079 F3       		.byte	0xf3
 4472 007a 01       		.uleb128 0x1
 4473 007b 50       		.byte	0x50
 4474 007c 9F       		.byte	0x9f
 4475 007d 00000000 		.4byte	0
 4476 0081 00000000 		.4byte	0
 4477              	.LLST1:
 4478 0085 00000000 		.4byte	.LVL10
ARM GAS  C:\Users\d3bug\AppData\Local\Temp\ccfzCIuT.s 			page 99


 4479 0089 1C000000 		.4byte	.LVL11
 4480 008d 0100     		.2byte	0x1
 4481 008f 50       		.byte	0x50
 4482 0090 1C000000 		.4byte	.LVL11
 4483 0094 30000000 		.4byte	.LVL12
 4484 0098 0400     		.2byte	0x4
 4485 009a F3       		.byte	0xf3
 4486 009b 01       		.uleb128 0x1
 4487 009c 50       		.byte	0x50
 4488 009d 9F       		.byte	0x9f
 4489 009e 30000000 		.4byte	.LVL12
 4490 00a2 52000000 		.4byte	.LVL13
 4491 00a6 0100     		.2byte	0x1
 4492 00a8 50       		.byte	0x50
 4493 00a9 52000000 		.4byte	.LVL13
 4494 00ad 62000000 		.4byte	.LVL14
 4495 00b1 0400     		.2byte	0x4
 4496 00b3 F3       		.byte	0xf3
 4497 00b4 01       		.uleb128 0x1
 4498 00b5 50       		.byte	0x50
 4499 00b6 9F       		.byte	0x9f
 4500 00b7 62000000 		.4byte	.LVL14
 4501 00bb 90000000 		.4byte	.LVL15
 4502 00bf 0100     		.2byte	0x1
 4503 00c1 50       		.byte	0x50
 4504 00c2 90000000 		.4byte	.LVL15
 4505 00c6 9E000000 		.4byte	.LFE11
 4506 00ca 0400     		.2byte	0x4
 4507 00cc F3       		.byte	0xf3
 4508 00cd 01       		.uleb128 0x1
 4509 00ce 50       		.byte	0x50
 4510 00cf 9F       		.byte	0x9f
 4511 00d0 00000000 		.4byte	0
 4512 00d4 00000000 		.4byte	0
 4513              	.LLST2:
 4514 00d8 98000000 		.4byte	.LVL16
 4515 00dc 9C000000 		.4byte	.LVL17
 4516 00e0 0300     		.2byte	0x3
 4517 00e2 91       		.byte	0x91
 4518 00e3 7C       		.sleb128 -4
 4519 00e4 9F       		.byte	0x9f
 4520 00e5 9C000000 		.4byte	.LVL17
 4521 00e9 9C000000 		.4byte	.LVL18
 4522 00ed 0300     		.2byte	0x3
 4523 00ef 7D       		.byte	0x7d
 4524 00f0 7C       		.sleb128 -4
 4525 00f1 9F       		.byte	0x9f
 4526 00f2 00000000 		.4byte	0
 4527 00f6 00000000 		.4byte	0
 4528              	.LLST3:
 4529 00fa 00000000 		.4byte	.LVL19
 4530 00fe 1E000000 		.4byte	.LVL20
 4531 0102 0100     		.2byte	0x1
 4532 0104 50       		.byte	0x50
 4533 0105 1E000000 		.4byte	.LVL20
 4534 0109 32000000 		.4byte	.LVL25
 4535 010d 0400     		.2byte	0x4
ARM GAS  C:\Users\d3bug\AppData\Local\Temp\ccfzCIuT.s 			page 100


 4536 010f F3       		.byte	0xf3
 4537 0110 01       		.uleb128 0x1
 4538 0111 50       		.byte	0x50
 4539 0112 9F       		.byte	0x9f
 4540 0113 32000000 		.4byte	.LVL25
 4541 0117 36000000 		.4byte	.LFE12
 4542 011b 0100     		.2byte	0x1
 4543 011d 50       		.byte	0x50
 4544 011e 00000000 		.4byte	0
 4545 0122 00000000 		.4byte	0
 4546              	.LLST4:
 4547 0126 1E000000 		.4byte	.LVL20
 4548 012a 32000000 		.4byte	.LVL25
 4549 012e 0100     		.2byte	0x1
 4550 0130 50       		.byte	0x50
 4551 0131 00000000 		.4byte	0
 4552 0135 00000000 		.4byte	0
 4553              	.LLST5:
 4554 0139 1E000000 		.4byte	.LVL20
 4555 013d 22000000 		.4byte	.LVL21
 4556 0141 0200     		.2byte	0x2
 4557 0143 30       		.byte	0x30
 4558 0144 9F       		.byte	0x9f
 4559 0145 22000000 		.4byte	.LVL21
 4560 0149 2C000000 		.4byte	.LVL23
 4561 014d 0100     		.2byte	0x1
 4562 014f 53       		.byte	0x53
 4563 0150 2E000000 		.4byte	.LVL24
 4564 0154 32000000 		.4byte	.LVL25
 4565 0158 0100     		.2byte	0x1
 4566 015a 53       		.byte	0x53
 4567 015b 00000000 		.4byte	0
 4568 015f 00000000 		.4byte	0
 4569              	.LLST6:
 4570 0163 00000000 		.4byte	.LVL26
 4571 0167 1E000000 		.4byte	.LVL30
 4572 016b 0100     		.2byte	0x1
 4573 016d 50       		.byte	0x50
 4574 016e 1E000000 		.4byte	.LVL30
 4575 0172 20000000 		.4byte	.LVL31
 4576 0176 0400     		.2byte	0x4
 4577 0178 F3       		.byte	0xf3
 4578 0179 01       		.uleb128 0x1
 4579 017a 50       		.byte	0x50
 4580 017b 9F       		.byte	0x9f
 4581 017c 20000000 		.4byte	.LVL31
 4582 0180 34000000 		.4byte	.LVL33
 4583 0184 0100     		.2byte	0x1
 4584 0186 50       		.byte	0x50
 4585 0187 34000000 		.4byte	.LVL33
 4586 018b 48000000 		.4byte	.LVL36
 4587 018f 0400     		.2byte	0x4
 4588 0191 F3       		.byte	0xf3
 4589 0192 01       		.uleb128 0x1
 4590 0193 50       		.byte	0x50
 4591 0194 9F       		.byte	0x9f
 4592 0195 48000000 		.4byte	.LVL36
ARM GAS  C:\Users\d3bug\AppData\Local\Temp\ccfzCIuT.s 			page 101


 4593 0199 74000000 		.4byte	.LVL39
 4594 019d 0100     		.2byte	0x1
 4595 019f 50       		.byte	0x50
 4596 01a0 74000000 		.4byte	.LVL39
 4597 01a4 84000000 		.4byte	.LVL42
 4598 01a8 0400     		.2byte	0x4
 4599 01aa F3       		.byte	0xf3
 4600 01ab 01       		.uleb128 0x1
 4601 01ac 50       		.byte	0x50
 4602 01ad 9F       		.byte	0x9f
 4603 01ae 84000000 		.4byte	.LVL42
 4604 01b2 C8000000 		.4byte	.LVL46
 4605 01b6 0100     		.2byte	0x1
 4606 01b8 50       		.byte	0x50
 4607 01b9 C8000000 		.4byte	.LVL46
 4608 01bd D8000000 		.4byte	.LVL49
 4609 01c1 0400     		.2byte	0x4
 4610 01c3 F3       		.byte	0xf3
 4611 01c4 01       		.uleb128 0x1
 4612 01c5 50       		.byte	0x50
 4613 01c6 9F       		.byte	0x9f
 4614 01c7 D8000000 		.4byte	.LVL49
 4615 01cb DE000000 		.4byte	.LVL50
 4616 01cf 0100     		.2byte	0x1
 4617 01d1 50       		.byte	0x50
 4618 01d2 DE000000 		.4byte	.LVL50
 4619 01d6 E4000000 		.4byte	.LVL52
 4620 01da 0400     		.2byte	0x4
 4621 01dc F3       		.byte	0xf3
 4622 01dd 01       		.uleb128 0x1
 4623 01de 50       		.byte	0x50
 4624 01df 9F       		.byte	0x9f
 4625 01e0 E4000000 		.4byte	.LVL52
 4626 01e4 E6000000 		.4byte	.LVL53
 4627 01e8 0100     		.2byte	0x1
 4628 01ea 50       		.byte	0x50
 4629 01eb E6000000 		.4byte	.LVL53
 4630 01ef EC000000 		.4byte	.LVL54
 4631 01f3 0400     		.2byte	0x4
 4632 01f5 F3       		.byte	0xf3
 4633 01f6 01       		.uleb128 0x1
 4634 01f7 50       		.byte	0x50
 4635 01f8 9F       		.byte	0x9f
 4636 01f9 EC000000 		.4byte	.LVL54
 4637 01fd EE000000 		.4byte	.LVL55
 4638 0201 0100     		.2byte	0x1
 4639 0203 50       		.byte	0x50
 4640 0204 EE000000 		.4byte	.LVL55
 4641 0208 F0000000 		.4byte	.LVL56
 4642 020c 0400     		.2byte	0x4
 4643 020e F3       		.byte	0xf3
 4644 020f 01       		.uleb128 0x1
 4645 0210 50       		.byte	0x50
 4646 0211 9F       		.byte	0x9f
 4647 0212 F0000000 		.4byte	.LVL56
 4648 0216 F2000000 		.4byte	.LVL57
 4649 021a 0100     		.2byte	0x1
ARM GAS  C:\Users\d3bug\AppData\Local\Temp\ccfzCIuT.s 			page 102


 4650 021c 50       		.byte	0x50
 4651 021d F2000000 		.4byte	.LVL57
 4652 0221 FC000000 		.4byte	.LFE13
 4653 0225 0400     		.2byte	0x4
 4654 0227 F3       		.byte	0xf3
 4655 0228 01       		.uleb128 0x1
 4656 0229 50       		.byte	0x50
 4657 022a 9F       		.byte	0x9f
 4658 022b 00000000 		.4byte	0
 4659 022f 00000000 		.4byte	0
 4660              	.LLST7:
 4661 0233 00000000 		.4byte	.LVL26
 4662 0237 0E000000 		.4byte	.LVL28
 4663 023b 0100     		.2byte	0x1
 4664 023d 51       		.byte	0x51
 4665 023e 0E000000 		.4byte	.LVL28
 4666 0242 FA000000 		.4byte	.LVL60
 4667 0246 0100     		.2byte	0x1
 4668 0248 54       		.byte	0x54
 4669 0249 00000000 		.4byte	0
 4670 024d 00000000 		.4byte	0
 4671              	.LLST8:
 4672 0251 04000000 		.4byte	.LVL27
 4673 0255 18000000 		.4byte	.LVL29
 4674 0259 0200     		.2byte	0x2
 4675 025b 30       		.byte	0x30
 4676 025c 9F       		.byte	0x9f
 4677 025d 18000000 		.4byte	.LVL29
 4678 0261 20000000 		.4byte	.LVL31
 4679 0265 0100     		.2byte	0x1
 4680 0267 53       		.byte	0x53
 4681 0268 20000000 		.4byte	.LVL31
 4682 026c 2E000000 		.4byte	.LVL32
 4683 0270 0200     		.2byte	0x2
 4684 0272 30       		.byte	0x30
 4685 0273 9F       		.byte	0x9f
 4686 0274 2E000000 		.4byte	.LVL32
 4687 0278 40000000 		.4byte	.LVL34
 4688 027c 0100     		.2byte	0x1
 4689 027e 53       		.byte	0x53
 4690 027f 40000000 		.4byte	.LVL34
 4691 0283 46000000 		.4byte	.LVL35
 4692 0287 0600     		.2byte	0x6
 4693 0289 70       		.byte	0x70
 4694 028a 00       		.sleb128 0
 4695 028b 73       		.byte	0x73
 4696 028c 00       		.sleb128 0
 4697 028d 22       		.byte	0x22
 4698 028e 9F       		.byte	0x9f
 4699 028f 46000000 		.4byte	.LVL35
 4700 0293 48000000 		.4byte	.LVL36
 4701 0297 0100     		.2byte	0x1
 4702 0299 50       		.byte	0x50
 4703 029a 48000000 		.4byte	.LVL36
 4704 029e 54000000 		.4byte	.LVL37
 4705 02a2 0200     		.2byte	0x2
 4706 02a4 30       		.byte	0x30
ARM GAS  C:\Users\d3bug\AppData\Local\Temp\ccfzCIuT.s 			page 103


 4707 02a5 9F       		.byte	0x9f
 4708 02a6 54000000 		.4byte	.LVL37
 4709 02aa 7C000000 		.4byte	.LVL40
 4710 02ae 0100     		.2byte	0x1
 4711 02b0 53       		.byte	0x53
 4712 02b1 7C000000 		.4byte	.LVL40
 4713 02b5 82000000 		.4byte	.LVL41
 4714 02b9 0600     		.2byte	0x6
 4715 02bb 72       		.byte	0x72
 4716 02bc 00       		.sleb128 0
 4717 02bd 73       		.byte	0x73
 4718 02be 00       		.sleb128 0
 4719 02bf 22       		.byte	0x22
 4720 02c0 9F       		.byte	0x9f
 4721 02c1 82000000 		.4byte	.LVL41
 4722 02c5 84000000 		.4byte	.LVL42
 4723 02c9 0100     		.2byte	0x1
 4724 02cb 50       		.byte	0x50
 4725 02cc 84000000 		.4byte	.LVL42
 4726 02d0 92000000 		.4byte	.LVL43
 4727 02d4 0200     		.2byte	0x2
 4728 02d6 30       		.byte	0x30
 4729 02d7 9F       		.byte	0x9f
 4730 02d8 92000000 		.4byte	.LVL43
 4731 02dc BE000000 		.4byte	.LVL45
 4732 02e0 0100     		.2byte	0x1
 4733 02e2 53       		.byte	0x53
 4734 02e3 BE000000 		.4byte	.LVL45
 4735 02e7 D0000000 		.4byte	.LVL47
 4736 02eb 0100     		.2byte	0x1
 4737 02ed 52       		.byte	0x52
 4738 02ee D0000000 		.4byte	.LVL47
 4739 02f2 D6000000 		.4byte	.LVL48
 4740 02f6 0600     		.2byte	0x6
 4741 02f8 73       		.byte	0x73
 4742 02f9 00       		.sleb128 0
 4743 02fa 72       		.byte	0x72
 4744 02fb 00       		.sleb128 0
 4745 02fc 22       		.byte	0x22
 4746 02fd 9F       		.byte	0x9f
 4747 02fe D6000000 		.4byte	.LVL48
 4748 0302 D8000000 		.4byte	.LVL49
 4749 0306 0100     		.2byte	0x1
 4750 0308 50       		.byte	0x50
 4751 0309 D8000000 		.4byte	.LVL49
 4752 030d E0000000 		.4byte	.LVL51
 4753 0311 0200     		.2byte	0x2
 4754 0313 30       		.byte	0x30
 4755 0314 9F       		.byte	0x9f
 4756 0315 E0000000 		.4byte	.LVL51
 4757 0319 F4000000 		.4byte	.LVL58
 4758 031d 0100     		.2byte	0x1
 4759 031f 53       		.byte	0x53
 4760 0320 F4000000 		.4byte	.LVL58
 4761 0324 F6000000 		.4byte	.LVL59
 4762 0328 0100     		.2byte	0x1
 4763 032a 52       		.byte	0x52
ARM GAS  C:\Users\d3bug\AppData\Local\Temp\ccfzCIuT.s 			page 104


 4764 032b 00000000 		.4byte	0
 4765 032f 00000000 		.4byte	0
 4766              	.LLST9:
 4767 0333 00000000 		.4byte	.LVL61
 4768 0337 10000000 		.4byte	.LVL63
 4769 033b 0100     		.2byte	0x1
 4770 033d 50       		.byte	0x50
 4771 033e 10000000 		.4byte	.LVL63
 4772 0342 4A000000 		.4byte	.LVL69
 4773 0346 0100     		.2byte	0x1
 4774 0348 56       		.byte	0x56
 4775 0349 4A000000 		.4byte	.LVL69
 4776 034d 50000000 		.4byte	.LFE14
 4777 0351 0400     		.2byte	0x4
 4778 0353 F3       		.byte	0xf3
 4779 0354 01       		.uleb128 0x1
 4780 0355 50       		.byte	0x50
 4781 0356 9F       		.byte	0x9f
 4782 0357 00000000 		.4byte	0
 4783 035b 00000000 		.4byte	0
 4784              	.LLST10:
 4785 035f 00000000 		.4byte	.LVL61
 4786 0363 10000000 		.4byte	.LVL63
 4787 0367 0100     		.2byte	0x1
 4788 0369 51       		.byte	0x51
 4789 036a 10000000 		.4byte	.LVL63
 4790 036e 4A000000 		.4byte	.LVL69
 4791 0372 0100     		.2byte	0x1
 4792 0374 55       		.byte	0x55
 4793 0375 4A000000 		.4byte	.LVL69
 4794 0379 50000000 		.4byte	.LFE14
 4795 037d 0400     		.2byte	0x4
 4796 037f F3       		.byte	0xf3
 4797 0380 01       		.uleb128 0x1
 4798 0381 51       		.byte	0x51
 4799 0382 9F       		.byte	0x9f
 4800 0383 00000000 		.4byte	0
 4801 0387 00000000 		.4byte	0
 4802              	.LLST11:
 4803 038b 1E000000 		.4byte	.LVL64
 4804 038f 24000000 		.4byte	.LVL65
 4805 0393 0100     		.2byte	0x1
 4806 0395 50       		.byte	0x50
 4807 0396 00000000 		.4byte	0
 4808 039a 00000000 		.4byte	0
 4809              	.LLST12:
 4810 039e 08000000 		.4byte	.LVL62
 4811 03a2 10000000 		.4byte	.LVL63
 4812 03a6 0200     		.2byte	0x2
 4813 03a8 30       		.byte	0x30
 4814 03a9 9F       		.byte	0x9f
 4815 03aa 10000000 		.4byte	.LVL63
 4816 03ae 2C000000 		.4byte	.LVL66
 4817 03b2 0100     		.2byte	0x1
 4818 03b4 54       		.byte	0x54
 4819 03b5 2E000000 		.4byte	.LVL67
 4820 03b9 4A000000 		.4byte	.LVL69
ARM GAS  C:\Users\d3bug\AppData\Local\Temp\ccfzCIuT.s 			page 105


 4821 03bd 0100     		.2byte	0x1
 4822 03bf 54       		.byte	0x54
 4823 03c0 00000000 		.4byte	0
 4824 03c4 00000000 		.4byte	0
 4825              	.LLST13:
 4826 03c8 00000000 		.4byte	.LVL70
 4827 03cc 0C000000 		.4byte	.LVL72
 4828 03d0 0100     		.2byte	0x1
 4829 03d2 50       		.byte	0x50
 4830 03d3 0C000000 		.4byte	.LVL72
 4831 03d7 20000000 		.4byte	.LVL76
 4832 03db 0100     		.2byte	0x1
 4833 03dd 57       		.byte	0x57
 4834 03de 20000000 		.4byte	.LVL76
 4835 03e2 24000000 		.4byte	.LFE15
 4836 03e6 0400     		.2byte	0x4
 4837 03e8 F3       		.byte	0xf3
 4838 03e9 01       		.uleb128 0x1
 4839 03ea 50       		.byte	0x50
 4840 03eb 9F       		.byte	0x9f
 4841 03ec 00000000 		.4byte	0
 4842 03f0 00000000 		.4byte	0
 4843              	.LLST14:
 4844 03f4 00000000 		.4byte	.LVL70
 4845 03f8 0C000000 		.4byte	.LVL72
 4846 03fc 0100     		.2byte	0x1
 4847 03fe 51       		.byte	0x51
 4848 03ff 0C000000 		.4byte	.LVL72
 4849 0403 20000000 		.4byte	.LVL76
 4850 0407 0100     		.2byte	0x1
 4851 0409 56       		.byte	0x56
 4852 040a 20000000 		.4byte	.LVL76
 4853 040e 24000000 		.4byte	.LFE15
 4854 0412 0400     		.2byte	0x4
 4855 0414 F3       		.byte	0xf3
 4856 0415 01       		.uleb128 0x1
 4857 0416 51       		.byte	0x51
 4858 0417 9F       		.byte	0x9f
 4859 0418 00000000 		.4byte	0
 4860 041c 00000000 		.4byte	0
 4861              	.LLST15:
 4862 0420 06000000 		.4byte	.LVL71
 4863 0424 0C000000 		.4byte	.LVL72
 4864 0428 0200     		.2byte	0x2
 4865 042a 30       		.byte	0x30
 4866 042b 9F       		.byte	0x9f
 4867 042c 0C000000 		.4byte	.LVL72
 4868 0430 20000000 		.4byte	.LVL76
 4869 0434 0100     		.2byte	0x1
 4870 0436 55       		.byte	0x55
 4871 0437 00000000 		.4byte	0
 4872 043b 00000000 		.4byte	0
 4873              	.LLST16:
 4874 043f 06000000 		.4byte	.LVL71
 4875 0443 0C000000 		.4byte	.LVL72
 4876 0447 0200     		.2byte	0x2
 4877 0449 30       		.byte	0x30
ARM GAS  C:\Users\d3bug\AppData\Local\Temp\ccfzCIuT.s 			page 106


 4878 044a 9F       		.byte	0x9f
 4879 044b 0C000000 		.4byte	.LVL72
 4880 044f 20000000 		.4byte	.LVL76
 4881 0453 0100     		.2byte	0x1
 4882 0455 54       		.byte	0x54
 4883 0456 20000000 		.4byte	.LVL76
 4884 045a 24000000 		.4byte	.LFE15
 4885 045e 0100     		.2byte	0x1
 4886 0460 50       		.byte	0x50
 4887 0461 00000000 		.4byte	0
 4888 0465 00000000 		.4byte	0
 4889              	.LLST17:
 4890 0469 00000000 		.4byte	.LVL77
 4891 046d 0E000000 		.4byte	.LVL79
 4892 0471 0100     		.2byte	0x1
 4893 0473 50       		.byte	0x50
 4894 0474 0E000000 		.4byte	.LVL79
 4895 0478 26000000 		.4byte	.LVL82
 4896 047c 0100     		.2byte	0x1
 4897 047e 56       		.byte	0x56
 4898 047f 26000000 		.4byte	.LVL82
 4899 0483 2C000000 		.4byte	.LFE16
 4900 0487 0400     		.2byte	0x4
 4901 0489 F3       		.byte	0xf3
 4902 048a 01       		.uleb128 0x1
 4903 048b 50       		.byte	0x50
 4904 048c 9F       		.byte	0x9f
 4905 048d 00000000 		.4byte	0
 4906 0491 00000000 		.4byte	0
 4907              	.LLST18:
 4908 0495 00000000 		.4byte	.LVL77
 4909 0499 0E000000 		.4byte	.LVL79
 4910 049d 0100     		.2byte	0x1
 4911 049f 51       		.byte	0x51
 4912 04a0 0E000000 		.4byte	.LVL79
 4913 04a4 26000000 		.4byte	.LVL82
 4914 04a8 0100     		.2byte	0x1
 4915 04aa 55       		.byte	0x55
 4916 04ab 26000000 		.4byte	.LVL82
 4917 04af 2C000000 		.4byte	.LFE16
 4918 04b3 0400     		.2byte	0x4
 4919 04b5 F3       		.byte	0xf3
 4920 04b6 01       		.uleb128 0x1
 4921 04b7 51       		.byte	0x51
 4922 04b8 9F       		.byte	0x9f
 4923 04b9 00000000 		.4byte	0
 4924 04bd 00000000 		.4byte	0
 4925              	.LLST19:
 4926 04c1 0C000000 		.4byte	.LVL78
 4927 04c5 0E000000 		.4byte	.LVL79
 4928 04c9 0200     		.2byte	0x2
 4929 04cb 30       		.byte	0x30
 4930 04cc 9F       		.byte	0x9f
 4931 04cd 0E000000 		.4byte	.LVL79
 4932 04d1 26000000 		.4byte	.LVL82
 4933 04d5 0100     		.2byte	0x1
 4934 04d7 54       		.byte	0x54
ARM GAS  C:\Users\d3bug\AppData\Local\Temp\ccfzCIuT.s 			page 107


 4935 04d8 26000000 		.4byte	.LVL82
 4936 04dc 2C000000 		.4byte	.LFE16
 4937 04e0 0100     		.2byte	0x1
 4938 04e2 50       		.byte	0x50
 4939 04e3 00000000 		.4byte	0
 4940 04e7 00000000 		.4byte	0
 4941              	.LLST20:
 4942 04eb 00000000 		.4byte	.LVL83
 4943 04ef 0C000000 		.4byte	.LVL85
 4944 04f3 0100     		.2byte	0x1
 4945 04f5 50       		.byte	0x50
 4946 04f6 0C000000 		.4byte	.LVL85
 4947 04fa 26000000 		.4byte	.LVL88
 4948 04fe 0100     		.2byte	0x1
 4949 0500 55       		.byte	0x55
 4950 0501 26000000 		.4byte	.LVL88
 4951 0505 2C000000 		.4byte	.LFE17
 4952 0509 0400     		.2byte	0x4
 4953 050b F3       		.byte	0xf3
 4954 050c 01       		.uleb128 0x1
 4955 050d 50       		.byte	0x50
 4956 050e 9F       		.byte	0x9f
 4957 050f 00000000 		.4byte	0
 4958 0513 00000000 		.4byte	0
 4959              	.LLST21:
 4960 0517 06000000 		.4byte	.LVL84
 4961 051b 0C000000 		.4byte	.LVL85
 4962 051f 0200     		.2byte	0x2
 4963 0521 30       		.byte	0x30
 4964 0522 9F       		.byte	0x9f
 4965 0523 0C000000 		.4byte	.LVL85
 4966 0527 26000000 		.4byte	.LVL88
 4967 052b 0100     		.2byte	0x1
 4968 052d 54       		.byte	0x54
 4969 052e 26000000 		.4byte	.LVL88
 4970 0532 2C000000 		.4byte	.LFE17
 4971 0536 0100     		.2byte	0x1
 4972 0538 50       		.byte	0x50
 4973 0539 00000000 		.4byte	0
 4974 053d 00000000 		.4byte	0
 4975              	.LLST22:
 4976 0541 00000000 		.4byte	.LVL89
 4977 0545 16000000 		.4byte	.LVL93
 4978 0549 0100     		.2byte	0x1
 4979 054b 50       		.byte	0x50
 4980 054c 16000000 		.4byte	.LVL93
 4981 0550 18000000 		.4byte	.LVL94
 4982 0554 0400     		.2byte	0x4
 4983 0556 F3       		.byte	0xf3
 4984 0557 01       		.uleb128 0x1
 4985 0558 50       		.byte	0x50
 4986 0559 9F       		.byte	0x9f
 4987 055a 18000000 		.4byte	.LVL94
 4988 055e 1A000000 		.4byte	.LVL95
 4989 0562 0100     		.2byte	0x1
 4990 0564 50       		.byte	0x50
 4991 0565 1A000000 		.4byte	.LVL95
ARM GAS  C:\Users\d3bug\AppData\Local\Temp\ccfzCIuT.s 			page 108


 4992 0569 20000000 		.4byte	.LFE18
 4993 056d 0400     		.2byte	0x4
 4994 056f F3       		.byte	0xf3
 4995 0570 01       		.uleb128 0x1
 4996 0571 50       		.byte	0x50
 4997 0572 9F       		.byte	0x9f
 4998 0573 00000000 		.4byte	0
 4999 0577 00000000 		.4byte	0
 5000              	.LLST23:
 5001 057b 00000000 		.4byte	.LVL89
 5002 057f 04000000 		.4byte	.LVL90
 5003 0583 0200     		.2byte	0x2
 5004 0585 30       		.byte	0x30
 5005 0586 9F       		.byte	0x9f
 5006 0587 04000000 		.4byte	.LVL90
 5007 058b 0A000000 		.4byte	.LVL91
 5008 058f 0100     		.2byte	0x1
 5009 0591 53       		.byte	0x53
 5010 0592 0C000000 		.4byte	.LVL92
 5011 0596 20000000 		.4byte	.LFE18
 5012 059a 0100     		.2byte	0x1
 5013 059c 53       		.byte	0x53
 5014 059d 00000000 		.4byte	0
 5015 05a1 00000000 		.4byte	0
 5016              	.LLST24:
 5017 05a5 00000000 		.4byte	.LVL89
 5018 05a9 1A000000 		.4byte	.LVL95
 5019 05ad 0200     		.2byte	0x2
 5020 05af 30       		.byte	0x30
 5021 05b0 9F       		.byte	0x9f
 5022 05b1 1A000000 		.4byte	.LVL95
 5023 05b5 20000000 		.4byte	.LFE18
 5024 05b9 0100     		.2byte	0x1
 5025 05bb 50       		.byte	0x50
 5026 05bc 00000000 		.4byte	0
 5027 05c0 00000000 		.4byte	0
 5028              	.LLST25:
 5029 05c4 00000000 		.4byte	.LVL96
 5030 05c8 10000000 		.4byte	.LVL99
 5031 05cc 0100     		.2byte	0x1
 5032 05ce 50       		.byte	0x50
 5033 05cf 10000000 		.4byte	.LVL99
 5034 05d3 12000000 		.4byte	.LVL100
 5035 05d7 0100     		.2byte	0x1
 5036 05d9 52       		.byte	0x52
 5037 05da 12000000 		.4byte	.LVL100
 5038 05de 1C000000 		.4byte	.LVL101
 5039 05e2 0100     		.2byte	0x1
 5040 05e4 50       		.byte	0x50
 5041 05e5 1C000000 		.4byte	.LVL101
 5042 05e9 1E000000 		.4byte	.LVL102
 5043 05ed 0100     		.2byte	0x1
 5044 05ef 52       		.byte	0x52
 5045 05f0 1E000000 		.4byte	.LVL102
 5046 05f4 28000000 		.4byte	.LVL104
 5047 05f8 0100     		.2byte	0x1
 5048 05fa 50       		.byte	0x50
ARM GAS  C:\Users\d3bug\AppData\Local\Temp\ccfzCIuT.s 			page 109


 5049 05fb 28000000 		.4byte	.LVL104
 5050 05ff 2A000000 		.4byte	.LVL105
 5051 0603 0100     		.2byte	0x1
 5052 0605 52       		.byte	0x52
 5053 0606 2A000000 		.4byte	.LVL105
 5054 060a 2C000000 		.4byte	.LVL106
 5055 060e 0100     		.2byte	0x1
 5056 0610 50       		.byte	0x50
 5057 0611 2C000000 		.4byte	.LVL106
 5058 0615 2E000000 		.4byte	.LVL107
 5059 0619 0100     		.2byte	0x1
 5060 061b 52       		.byte	0x52
 5061 061c 2E000000 		.4byte	.LVL107
 5062 0620 30000000 		.4byte	.LVL108
 5063 0624 0100     		.2byte	0x1
 5064 0626 50       		.byte	0x50
 5065 0627 30000000 		.4byte	.LVL108
 5066 062b 46000000 		.4byte	.LFE7
 5067 062f 0100     		.2byte	0x1
 5068 0631 52       		.byte	0x52
 5069 0632 00000000 		.4byte	0
 5070 0636 00000000 		.4byte	0
 5071              	.LLST26:
 5072 063a 02000000 		.4byte	.LVL97
 5073 063e 0E000000 		.4byte	.LVL98
 5074 0642 0200     		.2byte	0x2
 5075 0644 30       		.byte	0x30
 5076 0645 9F       		.byte	0x9f
 5077 0646 0E000000 		.4byte	.LVL98
 5078 064a 12000000 		.4byte	.LVL100
 5079 064e 0200     		.2byte	0x2
 5080 0650 31       		.byte	0x31
 5081 0651 9F       		.byte	0x9f
 5082 0652 12000000 		.4byte	.LVL100
 5083 0656 26000000 		.4byte	.LVL103
 5084 065a 0200     		.2byte	0x2
 5085 065c 30       		.byte	0x30
 5086 065d 9F       		.byte	0x9f
 5087 065e 26000000 		.4byte	.LVL103
 5088 0662 2A000000 		.4byte	.LVL105
 5089 0666 0200     		.2byte	0x2
 5090 0668 31       		.byte	0x31
 5091 0669 9F       		.byte	0x9f
 5092 066a 2A000000 		.4byte	.LVL105
 5093 066e 30000000 		.4byte	.LVL108
 5094 0672 0200     		.2byte	0x2
 5095 0674 30       		.byte	0x30
 5096 0675 9F       		.byte	0x9f
 5097 0676 30000000 		.4byte	.LVL108
 5098 067a 40000000 		.4byte	.LVL109
 5099 067e 0100     		.2byte	0x1
 5100 0680 50       		.byte	0x50
 5101 0681 42000000 		.4byte	.LVL110
 5102 0685 46000000 		.4byte	.LFE7
 5103 0689 0100     		.2byte	0x1
 5104 068b 50       		.byte	0x50
 5105 068c 00000000 		.4byte	0
ARM GAS  C:\Users\d3bug\AppData\Local\Temp\ccfzCIuT.s 			page 110


 5106 0690 00000000 		.4byte	0
 5107              	.LLST27:
 5108 0694 00000000 		.4byte	.LVL112
 5109 0698 3E000000 		.4byte	.LVL117
 5110 069c 0100     		.2byte	0x1
 5111 069e 50       		.byte	0x50
 5112 069f 3E000000 		.4byte	.LVL117
 5113 06a3 0A020000 		.4byte	.LVL171
 5114 06a7 0100     		.2byte	0x1
 5115 06a9 57       		.byte	0x57
 5116 06aa 0A020000 		.4byte	.LVL171
 5117 06ae 0C020000 		.4byte	.LVL172
 5118 06b2 0100     		.2byte	0x1
 5119 06b4 50       		.byte	0x50
 5120 06b5 0C020000 		.4byte	.LVL172
 5121 06b9 0E020000 		.4byte	.LVL173
 5122 06bd 0400     		.2byte	0x4
 5123 06bf F3       		.byte	0xf3
 5124 06c0 01       		.uleb128 0x1
 5125 06c1 50       		.byte	0x50
 5126 06c2 9F       		.byte	0x9f
 5127 06c3 0E020000 		.4byte	.LVL173
 5128 06c7 10020000 		.4byte	.LVL174
 5129 06cb 0100     		.2byte	0x1
 5130 06cd 50       		.byte	0x50
 5131 06ce 10020000 		.4byte	.LVL174
 5132 06d2 1C020000 		.4byte	.LFE5
 5133 06d6 0400     		.2byte	0x4
 5134 06d8 F3       		.byte	0xf3
 5135 06d9 01       		.uleb128 0x1
 5136 06da 50       		.byte	0x50
 5137 06db 9F       		.byte	0x9f
 5138 06dc 00000000 		.4byte	0
 5139 06e0 00000000 		.4byte	0
 5140              	.LLST28:
 5141 06e4 00000000 		.4byte	.LVL112
 5142 06e8 3E000000 		.4byte	.LVL117
 5143 06ec 0100     		.2byte	0x1
 5144 06ee 51       		.byte	0x51
 5145 06ef 3E000000 		.4byte	.LVL117
 5146 06f3 0A020000 		.4byte	.LVL171
 5147 06f7 0300     		.2byte	0x3
 5148 06f9 91       		.byte	0x91
 5149 06fa B87F     		.sleb128 -72
 5150 06fc 0A020000 		.4byte	.LVL171
 5151 0700 10020000 		.4byte	.LVL174
 5152 0704 0100     		.2byte	0x1
 5153 0706 51       		.byte	0x51
 5154 0707 10020000 		.4byte	.LVL174
 5155 070b 16020000 		.4byte	.LVL175
 5156 070f 0300     		.2byte	0x3
 5157 0711 91       		.byte	0x91
 5158 0712 B87F     		.sleb128 -72
 5159 0714 16020000 		.4byte	.LVL175
 5160 0718 1C020000 		.4byte	.LFE5
 5161 071c 0300     		.2byte	0x3
 5162 071e 7D       		.byte	0x7d
ARM GAS  C:\Users\d3bug\AppData\Local\Temp\ccfzCIuT.s 			page 111


 5163 071f B87F     		.sleb128 -72
 5164 0721 00000000 		.4byte	0
 5165 0725 00000000 		.4byte	0
 5166              	.LLST29:
 5167 0729 00000000 		.4byte	.LVL112
 5168 072d 3E000000 		.4byte	.LVL117
 5169 0731 0100     		.2byte	0x1
 5170 0733 52       		.byte	0x52
 5171 0734 3E000000 		.4byte	.LVL117
 5172 0738 0A020000 		.4byte	.LVL171
 5173 073c 0400     		.2byte	0x4
 5174 073e F3       		.byte	0xf3
 5175 073f 01       		.uleb128 0x1
 5176 0740 52       		.byte	0x52
 5177 0741 9F       		.byte	0x9f
 5178 0742 0A020000 		.4byte	.LVL171
 5179 0746 10020000 		.4byte	.LVL174
 5180 074a 0100     		.2byte	0x1
 5181 074c 52       		.byte	0x52
 5182 074d 10020000 		.4byte	.LVL174
 5183 0751 1C020000 		.4byte	.LFE5
 5184 0755 0400     		.2byte	0x4
 5185 0757 F3       		.byte	0xf3
 5186 0758 01       		.uleb128 0x1
 5187 0759 52       		.byte	0x52
 5188 075a 9F       		.byte	0x9f
 5189 075b 00000000 		.4byte	0
 5190 075f 00000000 		.4byte	0
 5191              	.LLST30:
 5192 0763 00000000 		.4byte	.LVL112
 5193 0767 28000000 		.4byte	.LVL113
 5194 076b 0100     		.2byte	0x1
 5195 076d 53       		.byte	0x53
 5196 076e 28000000 		.4byte	.LVL113
 5197 0772 2A000000 		.4byte	.LVL114
 5198 0776 0400     		.2byte	0x4
 5199 0778 F3       		.byte	0xf3
 5200 0779 01       		.uleb128 0x1
 5201 077a 53       		.byte	0x53
 5202 077b 9F       		.byte	0x9f
 5203 077c 2A000000 		.4byte	.LVL114
 5204 0780 0A020000 		.4byte	.LVL171
 5205 0784 0300     		.2byte	0x3
 5206 0786 91       		.byte	0x91
 5207 0787 B47F     		.sleb128 -76
 5208 0789 0A020000 		.4byte	.LVL171
 5209 078d 10020000 		.4byte	.LVL174
 5210 0791 0100     		.2byte	0x1
 5211 0793 53       		.byte	0x53
 5212 0794 00000000 		.4byte	0
 5213 0798 00000000 		.4byte	0
 5214              	.LLST31:
 5215 079c 00000000 		.4byte	.LVL112
 5216 07a0 16020000 		.4byte	.LVL175
 5217 07a4 0200     		.2byte	0x2
 5218 07a6 91       		.byte	0x91
 5219 07a7 00       		.sleb128 0
ARM GAS  C:\Users\d3bug\AppData\Local\Temp\ccfzCIuT.s 			page 112


 5220 07a8 16020000 		.4byte	.LVL175
 5221 07ac 1C020000 		.4byte	.LFE5
 5222 07b0 0200     		.2byte	0x2
 5223 07b2 7D       		.byte	0x7d
 5224 07b3 00       		.sleb128 0
 5225 07b4 00000000 		.4byte	0
 5226 07b8 00000000 		.4byte	0
 5227              	.LLST32:
 5228 07bc 2E000000 		.4byte	.LVL115
 5229 07c0 3E000000 		.4byte	.LVL117
 5230 07c4 0200     		.2byte	0x2
 5231 07c6 30       		.byte	0x30
 5232 07c7 9F       		.byte	0x9f
 5233 07c8 3E000000 		.4byte	.LVL117
 5234 07cc CA000000 		.4byte	.LVL130
 5235 07d0 0100     		.2byte	0x1
 5236 07d2 54       		.byte	0x54
 5237 07d3 CA000000 		.4byte	.LVL130
 5238 07d7 CC000000 		.4byte	.LVL131
 5239 07db 0100     		.2byte	0x1
 5240 07dd 55       		.byte	0x55
 5241 07de CC000000 		.4byte	.LVL131
 5242 07e2 1A010000 		.4byte	.LVL139
 5243 07e6 0100     		.2byte	0x1
 5244 07e8 54       		.byte	0x54
 5245 07e9 30010000 		.4byte	.LVL142
 5246 07ed 74010000 		.4byte	.LVL151
 5247 07f1 0100     		.2byte	0x1
 5248 07f3 54       		.byte	0x54
 5249 07f4 A6010000 		.4byte	.LVL159
 5250 07f8 B0010000 		.4byte	.LVL160
 5251 07fc 0100     		.2byte	0x1
 5252 07fe 54       		.byte	0x54
 5253 07ff C4010000 		.4byte	.LVL162
 5254 0803 0A020000 		.4byte	.LVL171
 5255 0807 0100     		.2byte	0x1
 5256 0809 54       		.byte	0x54
 5257 080a 00000000 		.4byte	0
 5258 080e 00000000 		.4byte	0
 5259              	.LLST33:
 5260 0812 2E000000 		.4byte	.LVL115
 5261 0816 3E000000 		.4byte	.LVL117
 5262 081a 0200     		.2byte	0x2
 5263 081c 30       		.byte	0x30
 5264 081d 9F       		.byte	0x9f
 5265 081e 3E000000 		.4byte	.LVL117
 5266 0822 D0010000 		.4byte	.LVL164
 5267 0826 0200     		.2byte	0x2
 5268 0828 91       		.byte	0x91
 5269 0829 44       		.sleb128 -60
 5270 082a D0010000 		.4byte	.LVL164
 5271 082e DE010000 		.4byte	.LVL166
 5272 0832 0100     		.2byte	0x1
 5273 0834 54       		.byte	0x54
 5274 0835 DE010000 		.4byte	.LVL166
 5275 0839 EA010000 		.4byte	.LVL168
 5276 083d 0200     		.2byte	0x2
ARM GAS  C:\Users\d3bug\AppData\Local\Temp\ccfzCIuT.s 			page 113


 5277 083f 91       		.byte	0x91
 5278 0840 44       		.sleb128 -60
 5279 0841 EA010000 		.4byte	.LVL168
 5280 0845 F0010000 		.4byte	.LVL169
 5281 0849 0100     		.2byte	0x1
 5282 084b 54       		.byte	0x54
 5283 084c F0010000 		.4byte	.LVL169
 5284 0850 0A020000 		.4byte	.LVL171
 5285 0854 0200     		.2byte	0x2
 5286 0856 91       		.byte	0x91
 5287 0857 44       		.sleb128 -60
 5288 0858 00000000 		.4byte	0
 5289 085c 00000000 		.4byte	0
 5290              	.LLST34:
 5291 0860 2E000000 		.4byte	.LVL115
 5292 0864 3E000000 		.4byte	.LVL117
 5293 0868 0200     		.2byte	0x2
 5294 086a 30       		.byte	0x30
 5295 086b 9F       		.byte	0x9f
 5296 086c 3E000000 		.4byte	.LVL117
 5297 0870 90000000 		.4byte	.LVL124
 5298 0874 0100     		.2byte	0x1
 5299 0876 5A       		.byte	0x5a
 5300 0877 90000000 		.4byte	.LVL124
 5301 087b 97000000 		.4byte	.LVL125-1
 5302 087f 0100     		.2byte	0x1
 5303 0881 53       		.byte	0x53
 5304 0882 97000000 		.4byte	.LVL125-1
 5305 0886 D0000000 		.4byte	.LVL132
 5306 088a 0200     		.2byte	0x2
 5307 088c 7D       		.byte	0x7d
 5308 088d 00       		.sleb128 0
 5309 088e D0000000 		.4byte	.LVL132
 5310 0892 74010000 		.4byte	.LVL151
 5311 0896 0100     		.2byte	0x1
 5312 0898 55       		.byte	0x55
 5313 0899 74010000 		.4byte	.LVL151
 5314 089d A0010000 		.4byte	.LVL157
 5315 08a1 0200     		.2byte	0x2
 5316 08a3 7D       		.byte	0x7d
 5317 08a4 00       		.sleb128 0
 5318 08a5 A0010000 		.4byte	.LVL157
 5319 08a9 A2010000 		.4byte	.LVL158
 5320 08ad 0100     		.2byte	0x1
 5321 08af 53       		.byte	0x53
 5322 08b0 A2010000 		.4byte	.LVL158
 5323 08b4 F0010000 		.4byte	.LVL169
 5324 08b8 0200     		.2byte	0x2
 5325 08ba 7D       		.byte	0x7d
 5326 08bb 00       		.sleb128 0
 5327 08bc F0010000 		.4byte	.LVL169
 5328 08c0 0A020000 		.4byte	.LVL171
 5329 08c4 0100     		.2byte	0x1
 5330 08c6 5A       		.byte	0x5a
 5331 08c7 00000000 		.4byte	0
 5332 08cb 00000000 		.4byte	0
 5333              	.LLST35:
ARM GAS  C:\Users\d3bug\AppData\Local\Temp\ccfzCIuT.s 			page 114


 5334 08cf 2E000000 		.4byte	.LVL115
 5335 08d3 3E000000 		.4byte	.LVL117
 5336 08d7 0300     		.2byte	0x3
 5337 08d9 09       		.byte	0x9
 5338 08da FF       		.byte	0xff
 5339 08db 9F       		.byte	0x9f
 5340 08dc 3E000000 		.4byte	.LVL117
 5341 08e0 D0010000 		.4byte	.LVL164
 5342 08e4 0200     		.2byte	0x2
 5343 08e6 91       		.byte	0x91
 5344 08e7 40       		.sleb128 -64
 5345 08e8 D0010000 		.4byte	.LVL164
 5346 08ec D8010000 		.4byte	.LVL165
 5347 08f0 0100     		.2byte	0x1
 5348 08f2 53       		.byte	0x53
 5349 08f3 D8010000 		.4byte	.LVL165
 5350 08f7 E4010000 		.4byte	.LVL167
 5351 08fb 0200     		.2byte	0x2
 5352 08fd 91       		.byte	0x91
 5353 08fe 54       		.sleb128 -44
 5354 08ff E4010000 		.4byte	.LVL167
 5355 0903 EA010000 		.4byte	.LVL168
 5356 0907 0200     		.2byte	0x2
 5357 0909 91       		.byte	0x91
 5358 090a 40       		.sleb128 -64
 5359 090b EA010000 		.4byte	.LVL168
 5360 090f F0010000 		.4byte	.LVL169
 5361 0913 0100     		.2byte	0x1
 5362 0915 53       		.byte	0x53
 5363 0916 F0010000 		.4byte	.LVL169
 5364 091a 0A020000 		.4byte	.LVL171
 5365 091e 0200     		.2byte	0x2
 5366 0920 91       		.byte	0x91
 5367 0921 40       		.sleb128 -64
 5368 0922 00000000 		.4byte	0
 5369 0926 00000000 		.4byte	0
 5370              	.LLST36:
 5371 092a 32000000 		.4byte	.LVL116
 5372 092e 3E000000 		.4byte	.LVL117
 5373 0932 0200     		.2byte	0x2
 5374 0934 30       		.byte	0x30
 5375 0935 9F       		.byte	0x9f
 5376 0936 4A000000 		.4byte	.LVL119
 5377 093a 56000000 		.4byte	.LVL120
 5378 093e 0100     		.2byte	0x1
 5379 0940 50       		.byte	0x50
 5380 0941 56000000 		.4byte	.LVL120
 5381 0945 59000000 		.4byte	.LVL121-1
 5382 0949 0100     		.2byte	0x1
 5383 094b 51       		.byte	0x51
 5384 094c 59000000 		.4byte	.LVL121-1
 5385 0950 C4000000 		.4byte	.LVL129
 5386 0954 0100     		.2byte	0x1
 5387 0956 56       		.byte	0x56
 5388 0957 DC000000 		.4byte	.LVL134
 5389 095b E8000000 		.4byte	.LVL135
 5390 095f 0100     		.2byte	0x1
ARM GAS  C:\Users\d3bug\AppData\Local\Temp\ccfzCIuT.s 			page 115


 5391 0961 50       		.byte	0x50
 5392 0962 E8000000 		.4byte	.LVL135
 5393 0966 EB000000 		.4byte	.LVL136-1
 5394 096a 0100     		.2byte	0x1
 5395 096c 51       		.byte	0x51
 5396 096d EB000000 		.4byte	.LVL136-1
 5397 0971 68010000 		.4byte	.LVL150
 5398 0975 0100     		.2byte	0x1
 5399 0977 58       		.byte	0x58
 5400 0978 A6010000 		.4byte	.LVL159
 5401 097c B0010000 		.4byte	.LVL160
 5402 0980 0100     		.2byte	0x1
 5403 0982 56       		.byte	0x56
 5404 0983 C4010000 		.4byte	.LVL162
 5405 0987 FC010000 		.4byte	.LVL170
 5406 098b 0100     		.2byte	0x1
 5407 098d 56       		.byte	0x56
 5408 098e 00000000 		.4byte	0
 5409 0992 00000000 		.4byte	0
 5410              	.LLST37:
 5411 0996 9C000000 		.4byte	.LVL126
 5412 099a FC010000 		.4byte	.LVL170
 5413 099e 0100     		.2byte	0x1
 5414 09a0 59       		.byte	0x59
 5415 09a1 00000000 		.4byte	0
 5416 09a5 00000000 		.4byte	0
 5417              	.LLST38:
 5418 09a9 78000000 		.4byte	.LVL122
 5419 09ad 88000000 		.4byte	.LVL123
 5420 09b1 0100     		.2byte	0x1
 5421 09b3 50       		.byte	0x50
 5422 09b4 00000000 		.4byte	0
 5423 09b8 00000000 		.4byte	0
 5424              	.LLST39:
 5425 09bc B2000000 		.4byte	.LVL128
 5426 09c0 A6010000 		.4byte	.LVL159
 5427 09c4 0100     		.2byte	0x1
 5428 09c6 5A       		.byte	0x5a
 5429 09c7 00000000 		.4byte	0
 5430 09cb 00000000 		.4byte	0
 5431              	.LLST40:
 5432 09cf CC000000 		.4byte	.LVL131
 5433 09d3 5C010000 		.4byte	.LVL148
 5434 09d7 0200     		.2byte	0x2
 5435 09d9 31       		.byte	0x31
 5436 09da 9F       		.byte	0x9f
 5437 09db 5C010000 		.4byte	.LVL148
 5438 09df 60010000 		.4byte	.LVL149
 5439 09e3 0200     		.2byte	0x2
 5440 09e5 30       		.byte	0x30
 5441 09e6 9F       		.byte	0x9f
 5442 09e7 60010000 		.4byte	.LVL149
 5443 09eb 74010000 		.4byte	.LVL151
 5444 09ef 0200     		.2byte	0x2
 5445 09f1 31       		.byte	0x31
 5446 09f2 9F       		.byte	0x9f
 5447 09f3 74010000 		.4byte	.LVL151
ARM GAS  C:\Users\d3bug\AppData\Local\Temp\ccfzCIuT.s 			page 116


 5448 09f7 78010000 		.4byte	.LVL152
 5449 09fb 0100     		.2byte	0x1
 5450 09fd 53       		.byte	0x53
 5451 09fe 00000000 		.4byte	0
 5452 0a02 00000000 		.4byte	0
 5453              	.LLST41:
 5454 0a06 44010000 		.4byte	.LVL145
 5455 0a0a 54010000 		.4byte	.LVL147
 5456 0a0e 0100     		.2byte	0x1
 5457 0a10 53       		.byte	0x53
 5458 0a11 60010000 		.4byte	.LVL149
 5459 0a15 68010000 		.4byte	.LVL150
 5460 0a19 0100     		.2byte	0x1
 5461 0a1b 53       		.byte	0x53
 5462 0a1c 00000000 		.4byte	0
 5463 0a20 00000000 		.4byte	0
 5464              	.LLST42:
 5465 0a24 1A010000 		.4byte	.LVL139
 5466 0a28 30010000 		.4byte	.LVL142
 5467 0a2c 0100     		.2byte	0x1
 5468 0a2e 54       		.byte	0x54
 5469 0a2f 00000000 		.4byte	0
 5470 0a33 00000000 		.4byte	0
 5471              	.LLST43:
 5472 0a37 8C010000 		.4byte	.LVL154
 5473 0a3b A0010000 		.4byte	.LVL157
 5474 0a3f 0100     		.2byte	0x1
 5475 0a41 54       		.byte	0x54
 5476 0a42 00000000 		.4byte	0
 5477 0a46 00000000 		.4byte	0
 5478              	.LLST44:
 5479 0a4a 00000000 		.4byte	.LVL176
 5480 0a4e 12000000 		.4byte	.LVL177
 5481 0a52 0100     		.2byte	0x1
 5482 0a54 50       		.byte	0x50
 5483 0a55 12000000 		.4byte	.LVL177
 5484 0a59 74000000 		.4byte	.LVL194
 5485 0a5d 0100     		.2byte	0x1
 5486 0a5f 58       		.byte	0x58
 5487 0a60 74000000 		.4byte	.LVL194
 5488 0a64 76000000 		.4byte	.LVL195
 5489 0a68 0100     		.2byte	0x1
 5490 0a6a 50       		.byte	0x50
 5491 0a6b 76000000 		.4byte	.LVL195
 5492 0a6f 78000000 		.4byte	.LVL196
 5493 0a73 0400     		.2byte	0x4
 5494 0a75 F3       		.byte	0xf3
 5495 0a76 01       		.uleb128 0x1
 5496 0a77 50       		.byte	0x50
 5497 0a78 9F       		.byte	0x9f
 5498 0a79 78000000 		.4byte	.LVL196
 5499 0a7d 7A000000 		.4byte	.LVL197
 5500 0a81 0100     		.2byte	0x1
 5501 0a83 50       		.byte	0x50
 5502 0a84 7A000000 		.4byte	.LVL197
 5503 0a88 7E000000 		.4byte	.LVL199
 5504 0a8c 0100     		.2byte	0x1
ARM GAS  C:\Users\d3bug\AppData\Local\Temp\ccfzCIuT.s 			page 117


 5505 0a8e 58       		.byte	0x58
 5506 0a8f 7E000000 		.4byte	.LVL199
 5507 0a93 88000000 		.4byte	.LFE6
 5508 0a97 0400     		.2byte	0x4
 5509 0a99 F3       		.byte	0xf3
 5510 0a9a 01       		.uleb128 0x1
 5511 0a9b 50       		.byte	0x50
 5512 0a9c 9F       		.byte	0x9f
 5513 0a9d 00000000 		.4byte	0
 5514 0aa1 00000000 		.4byte	0
 5515              	.LLST45:
 5516 0aa5 00000000 		.4byte	.LVL176
 5517 0aa9 1C000000 		.4byte	.LVL179
 5518 0aad 0100     		.2byte	0x1
 5519 0aaf 51       		.byte	0x51
 5520 0ab0 1C000000 		.4byte	.LVL179
 5521 0ab4 5A000000 		.4byte	.LVL191
 5522 0ab8 0400     		.2byte	0x4
 5523 0aba F3       		.byte	0xf3
 5524 0abb 01       		.uleb128 0x1
 5525 0abc 51       		.byte	0x51
 5526 0abd 9F       		.byte	0x9f
 5527 0abe 5A000000 		.4byte	.LVL191
 5528 0ac2 62000000 		.4byte	.LVL192
 5529 0ac6 0100     		.2byte	0x1
 5530 0ac8 51       		.byte	0x51
 5531 0ac9 62000000 		.4byte	.LVL192
 5532 0acd 74000000 		.4byte	.LVL194
 5533 0ad1 0400     		.2byte	0x4
 5534 0ad3 F3       		.byte	0xf3
 5535 0ad4 01       		.uleb128 0x1
 5536 0ad5 51       		.byte	0x51
 5537 0ad6 9F       		.byte	0x9f
 5538 0ad7 74000000 		.4byte	.LVL194
 5539 0adb 7C000000 		.4byte	.LVL198
 5540 0adf 0100     		.2byte	0x1
 5541 0ae1 51       		.byte	0x51
 5542 0ae2 7C000000 		.4byte	.LVL198
 5543 0ae6 88000000 		.4byte	.LFE6
 5544 0aea 0400     		.2byte	0x4
 5545 0aec F3       		.byte	0xf3
 5546 0aed 01       		.uleb128 0x1
 5547 0aee 51       		.byte	0x51
 5548 0aef 9F       		.byte	0x9f
 5549 0af0 00000000 		.4byte	0
 5550 0af4 00000000 		.4byte	0
 5551              	.LLST46:
 5552 0af8 00000000 		.4byte	.LVL176
 5553 0afc 1C000000 		.4byte	.LVL179
 5554 0b00 0100     		.2byte	0x1
 5555 0b02 52       		.byte	0x52
 5556 0b03 1C000000 		.4byte	.LVL179
 5557 0b07 5A000000 		.4byte	.LVL191
 5558 0b0b 0100     		.2byte	0x1
 5559 0b0d 56       		.byte	0x56
 5560 0b0e 5A000000 		.4byte	.LVL191
 5561 0b12 62000000 		.4byte	.LVL192
ARM GAS  C:\Users\d3bug\AppData\Local\Temp\ccfzCIuT.s 			page 118


 5562 0b16 0100     		.2byte	0x1
 5563 0b18 52       		.byte	0x52
 5564 0b19 62000000 		.4byte	.LVL192
 5565 0b1d 74000000 		.4byte	.LVL194
 5566 0b21 0100     		.2byte	0x1
 5567 0b23 56       		.byte	0x56
 5568 0b24 74000000 		.4byte	.LVL194
 5569 0b28 7C000000 		.4byte	.LVL198
 5570 0b2c 0100     		.2byte	0x1
 5571 0b2e 52       		.byte	0x52
 5572 0b2f 7C000000 		.4byte	.LVL198
 5573 0b33 7E000000 		.4byte	.LVL199
 5574 0b37 0100     		.2byte	0x1
 5575 0b39 56       		.byte	0x56
 5576 0b3a 7E000000 		.4byte	.LVL199
 5577 0b3e 88000000 		.4byte	.LFE6
 5578 0b42 0400     		.2byte	0x4
 5579 0b44 F3       		.byte	0xf3
 5580 0b45 01       		.uleb128 0x1
 5581 0b46 52       		.byte	0x52
 5582 0b47 9F       		.byte	0x9f
 5583 0b48 00000000 		.4byte	0
 5584 0b4c 00000000 		.4byte	0
 5585              	.LLST47:
 5586 0b50 00000000 		.4byte	.LVL176
 5587 0b54 1C000000 		.4byte	.LVL179
 5588 0b58 0100     		.2byte	0x1
 5589 0b5a 53       		.byte	0x53
 5590 0b5b 1C000000 		.4byte	.LVL179
 5591 0b5f 5A000000 		.4byte	.LVL191
 5592 0b63 0400     		.2byte	0x4
 5593 0b65 F3       		.byte	0xf3
 5594 0b66 01       		.uleb128 0x1
 5595 0b67 53       		.byte	0x53
 5596 0b68 9F       		.byte	0x9f
 5597 0b69 5A000000 		.4byte	.LVL191
 5598 0b6d 62000000 		.4byte	.LVL192
 5599 0b71 0100     		.2byte	0x1
 5600 0b73 53       		.byte	0x53
 5601 0b74 62000000 		.4byte	.LVL192
 5602 0b78 74000000 		.4byte	.LVL194
 5603 0b7c 0400     		.2byte	0x4
 5604 0b7e F3       		.byte	0xf3
 5605 0b7f 01       		.uleb128 0x1
 5606 0b80 53       		.byte	0x53
 5607 0b81 9F       		.byte	0x9f
 5608 0b82 74000000 		.4byte	.LVL194
 5609 0b86 7C000000 		.4byte	.LVL198
 5610 0b8a 0100     		.2byte	0x1
 5611 0b8c 53       		.byte	0x53
 5612 0b8d 7C000000 		.4byte	.LVL198
 5613 0b91 88000000 		.4byte	.LFE6
 5614 0b95 0400     		.2byte	0x4
 5615 0b97 F3       		.byte	0xf3
 5616 0b98 01       		.uleb128 0x1
 5617 0b99 53       		.byte	0x53
 5618 0b9a 9F       		.byte	0x9f
ARM GAS  C:\Users\d3bug\AppData\Local\Temp\ccfzCIuT.s 			page 119


 5619 0b9b 00000000 		.4byte	0
 5620 0b9f 00000000 		.4byte	0
 5621              	.LLST48:
 5622 0ba3 00000000 		.4byte	.LVL176
 5623 0ba7 84000000 		.4byte	.LVL200
 5624 0bab 0200     		.2byte	0x2
 5625 0bad 91       		.byte	0x91
 5626 0bae 00       		.sleb128 0
 5627 0baf 84000000 		.4byte	.LVL200
 5628 0bb3 88000000 		.4byte	.LFE6
 5629 0bb7 0200     		.2byte	0x2
 5630 0bb9 7D       		.byte	0x7d
 5631 0bba 00       		.sleb128 0
 5632 0bbb 00000000 		.4byte	0
 5633 0bbf 00000000 		.4byte	0
 5634              	.LLST49:
 5635 0bc3 14000000 		.4byte	.LVL178
 5636 0bc7 1C000000 		.4byte	.LVL179
 5637 0bcb 0200     		.2byte	0x2
 5638 0bcd 30       		.byte	0x30
 5639 0bce 9F       		.byte	0x9f
 5640 0bcf 1C000000 		.4byte	.LVL179
 5641 0bd3 56000000 		.4byte	.LVL189
 5642 0bd7 0100     		.2byte	0x1
 5643 0bd9 54       		.byte	0x54
 5644 0bda 56000000 		.4byte	.LVL189
 5645 0bde 58000000 		.4byte	.LVL190
 5646 0be2 0100     		.2byte	0x1
 5647 0be4 50       		.byte	0x50
 5648 0be5 58000000 		.4byte	.LVL190
 5649 0be9 5A000000 		.4byte	.LVL191
 5650 0bed 0100     		.2byte	0x1
 5651 0bef 54       		.byte	0x54
 5652 0bf0 5A000000 		.4byte	.LVL191
 5653 0bf4 62000000 		.4byte	.LVL192
 5654 0bf8 0200     		.2byte	0x2
 5655 0bfa 30       		.byte	0x30
 5656 0bfb 9F       		.byte	0x9f
 5657 0bfc 62000000 		.4byte	.LVL192
 5658 0c00 70000000 		.4byte	.LVL193
 5659 0c04 0100     		.2byte	0x1
 5660 0c06 54       		.byte	0x54
 5661 0c07 7C000000 		.4byte	.LVL198
 5662 0c0b 7E000000 		.4byte	.LVL199
 5663 0c0f 0100     		.2byte	0x1
 5664 0c11 54       		.byte	0x54
 5665 0c12 00000000 		.4byte	0
 5666 0c16 00000000 		.4byte	0
 5667              	.LLST50:
 5668 0c1a 28000000 		.4byte	.LVL181
 5669 0c1e 34000000 		.4byte	.LVL182
 5670 0c22 0100     		.2byte	0x1
 5671 0c24 50       		.byte	0x50
 5672 0c25 34000000 		.4byte	.LVL182
 5673 0c29 37000000 		.4byte	.LVL183-1
 5674 0c2d 0100     		.2byte	0x1
 5675 0c2f 51       		.byte	0x51
ARM GAS  C:\Users\d3bug\AppData\Local\Temp\ccfzCIuT.s 			page 120


 5676 0c30 37000000 		.4byte	.LVL183-1
 5677 0c34 5A000000 		.4byte	.LVL191
 5678 0c38 0100     		.2byte	0x1
 5679 0c3a 55       		.byte	0x55
 5680 0c3b 00000000 		.4byte	0
 5681 0c3f 00000000 		.4byte	0
 5682              	.LLST51:
 5683 0c43 44000000 		.4byte	.LVL185
 5684 0c47 4C000000 		.4byte	.LVL186
 5685 0c4b 0100     		.2byte	0x1
 5686 0c4d 50       		.byte	0x50
 5687 0c4e 00000000 		.4byte	0
 5688 0c52 00000000 		.4byte	0
 5689              	.LLST52:
 5690 0c56 00000000 		.4byte	.LVL201
 5691 0c5a 3E000000 		.4byte	.LVL205
 5692 0c5e 0100     		.2byte	0x1
 5693 0c60 50       		.byte	0x50
 5694 0c61 3E000000 		.4byte	.LVL205
 5695 0c65 AA000000 		.4byte	.LVL213
 5696 0c69 0100     		.2byte	0x1
 5697 0c6b 54       		.byte	0x54
 5698 0c6c AA000000 		.4byte	.LVL213
 5699 0c70 B0000000 		.4byte	.LFE4
 5700 0c74 0400     		.2byte	0x4
 5701 0c76 F3       		.byte	0xf3
 5702 0c77 01       		.uleb128 0x1
 5703 0c78 50       		.byte	0x50
 5704 0c79 9F       		.byte	0x9f
 5705 0c7a 00000000 		.4byte	0
 5706 0c7e 00000000 		.4byte	0
 5707              	.LLST53:
 5708 0c82 00000000 		.4byte	.LVL201
 5709 0c86 2E000000 		.4byte	.LVL202
 5710 0c8a 0100     		.2byte	0x1
 5711 0c8c 51       		.byte	0x51
 5712 0c8d 2E000000 		.4byte	.LVL202
 5713 0c91 AA000000 		.4byte	.LVL213
 5714 0c95 0100     		.2byte	0x1
 5715 0c97 57       		.byte	0x57
 5716 0c98 AA000000 		.4byte	.LVL213
 5717 0c9c B0000000 		.4byte	.LFE4
 5718 0ca0 0400     		.2byte	0x4
 5719 0ca2 F3       		.byte	0xf3
 5720 0ca3 01       		.uleb128 0x1
 5721 0ca4 51       		.byte	0x51
 5722 0ca5 9F       		.byte	0x9f
 5723 0ca6 00000000 		.4byte	0
 5724 0caa 00000000 		.4byte	0
 5725              	.LLST54:
 5726 0cae 00000000 		.4byte	.LVL201
 5727 0cb2 3E000000 		.4byte	.LVL205
 5728 0cb6 0100     		.2byte	0x1
 5729 0cb8 52       		.byte	0x52
 5730 0cb9 3E000000 		.4byte	.LVL205
 5731 0cbd AA000000 		.4byte	.LVL213
 5732 0cc1 0100     		.2byte	0x1
ARM GAS  C:\Users\d3bug\AppData\Local\Temp\ccfzCIuT.s 			page 121


 5733 0cc3 58       		.byte	0x58
 5734 0cc4 AA000000 		.4byte	.LVL213
 5735 0cc8 B0000000 		.4byte	.LFE4
 5736 0ccc 0400     		.2byte	0x4
 5737 0cce F3       		.byte	0xf3
 5738 0ccf 01       		.uleb128 0x1
 5739 0cd0 52       		.byte	0x52
 5740 0cd1 9F       		.byte	0x9f
 5741 0cd2 00000000 		.4byte	0
 5742 0cd6 00000000 		.4byte	0
 5743              	.LLST55:
 5744 0cda 00000000 		.4byte	.LVL201
 5745 0cde 3E000000 		.4byte	.LVL205
 5746 0ce2 0100     		.2byte	0x1
 5747 0ce4 53       		.byte	0x53
 5748 0ce5 3E000000 		.4byte	.LVL205
 5749 0ce9 B0000000 		.4byte	.LFE4
 5750 0ced 0400     		.2byte	0x4
 5751 0cef F3       		.byte	0xf3
 5752 0cf0 01       		.uleb128 0x1
 5753 0cf1 53       		.byte	0x53
 5754 0cf2 9F       		.byte	0x9f
 5755 0cf3 00000000 		.4byte	0
 5756 0cf7 00000000 		.4byte	0
 5757              	.LLST56:
 5758 0cfb 00000000 		.4byte	.LVL201
 5759 0cff 36000000 		.4byte	.LVL203
 5760 0d03 0200     		.2byte	0x2
 5761 0d05 91       		.byte	0x91
 5762 0d06 04       		.sleb128 4
 5763 0d07 36000000 		.4byte	.LVL203
 5764 0d0b AA000000 		.4byte	.LVL213
 5765 0d0f 0200     		.2byte	0x2
 5766 0d11 91       		.byte	0x91
 5767 0d12 54       		.sleb128 -44
 5768 0d13 00000000 		.4byte	0
 5769 0d17 00000000 		.4byte	0
 5770              	.LLST57:
 5771 0d1b 36000000 		.4byte	.LVL203
 5772 0d1f 3E000000 		.4byte	.LVL205
 5773 0d23 0200     		.2byte	0x2
 5774 0d25 30       		.byte	0x30
 5775 0d26 9F       		.byte	0x9f
 5776 0d27 3E000000 		.4byte	.LVL205
 5777 0d2b 52000000 		.4byte	.LVL207
 5778 0d2f 0100     		.2byte	0x1
 5779 0d31 55       		.byte	0x55
 5780 0d32 76000000 		.4byte	.LVL210
 5781 0d36 82000000 		.4byte	.LVL211
 5782 0d3a 0100     		.2byte	0x1
 5783 0d3c 55       		.byte	0x55
 5784 0d3d 82000000 		.4byte	.LVL211
 5785 0d41 96000000 		.4byte	.LVL212
 5786 0d45 0300     		.2byte	0x3
 5787 0d47 75       		.byte	0x75
 5788 0d48 01       		.sleb128 1
 5789 0d49 9F       		.byte	0x9f
ARM GAS  C:\Users\d3bug\AppData\Local\Temp\ccfzCIuT.s 			page 122


 5790 0d4a 00000000 		.4byte	0
 5791 0d4e 00000000 		.4byte	0
 5792              	.LLST58:
 5793 0d52 36000000 		.4byte	.LVL203
 5794 0d56 3E000000 		.4byte	.LVL205
 5795 0d5a 0200     		.2byte	0x2
 5796 0d5c 30       		.byte	0x30
 5797 0d5d 9F       		.byte	0x9f
 5798 0d5e 3E000000 		.4byte	.LVL205
 5799 0d62 82000000 		.4byte	.LVL211
 5800 0d66 0100     		.2byte	0x1
 5801 0d68 55       		.byte	0x55
 5802 0d69 82000000 		.4byte	.LVL211
 5803 0d6d 96000000 		.4byte	.LVL212
 5804 0d71 0300     		.2byte	0x3
 5805 0d73 75       		.byte	0x75
 5806 0d74 01       		.sleb128 1
 5807 0d75 9F       		.byte	0x9f
 5808 0d76 00000000 		.4byte	0
 5809 0d7a 00000000 		.4byte	0
 5810              	.LLST59:
 5811 0d7e 6A000000 		.4byte	.LVL208
 5812 0d82 74000000 		.4byte	.LVL209
 5813 0d86 0100     		.2byte	0x1
 5814 0d88 50       		.byte	0x50
 5815 0d89 00000000 		.4byte	0
 5816 0d8d 00000000 		.4byte	0
 5817              	.LLST60:
 5818 0d91 36000000 		.4byte	.LVL203
 5819 0d95 3A000000 		.4byte	.LVL204
 5820 0d99 0100     		.2byte	0x1
 5821 0d9b 58       		.byte	0x58
 5822 0d9c 00000000 		.4byte	0
 5823 0da0 00000000 		.4byte	0
 5824              	.LLST61:
 5825 0da4 00000000 		.4byte	.LVL214
 5826 0da8 0D000000 		.4byte	.LVL215-1
 5827 0dac 0100     		.2byte	0x1
 5828 0dae 50       		.byte	0x50
 5829 0daf 0D000000 		.4byte	.LVL215-1
 5830 0db3 42000000 		.4byte	.LVL227
 5831 0db7 0100     		.2byte	0x1
 5832 0db9 56       		.byte	0x56
 5833 0dba 42000000 		.4byte	.LVL227
 5834 0dbe 48000000 		.4byte	.LFE8
 5835 0dc2 0400     		.2byte	0x4
 5836 0dc4 F3       		.byte	0xf3
 5837 0dc5 01       		.uleb128 0x1
 5838 0dc6 50       		.byte	0x50
 5839 0dc7 9F       		.byte	0x9f
 5840 0dc8 00000000 		.4byte	0
 5841 0dcc 00000000 		.4byte	0
 5842              	.LLST62:
 5843 0dd0 00000000 		.4byte	.LVL214
 5844 0dd4 0D000000 		.4byte	.LVL215-1
 5845 0dd8 0100     		.2byte	0x1
 5846 0dda 51       		.byte	0x51
ARM GAS  C:\Users\d3bug\AppData\Local\Temp\ccfzCIuT.s 			page 123


 5847 0ddb 0D000000 		.4byte	.LVL215-1
 5848 0ddf 24000000 		.4byte	.LVL222
 5849 0de3 0100     		.2byte	0x1
 5850 0de5 58       		.byte	0x58
 5851 0de6 24000000 		.4byte	.LVL222
 5852 0dea 3A000000 		.4byte	.LVL225
 5853 0dee 0100     		.2byte	0x1
 5854 0df0 50       		.byte	0x50
 5855 0df1 00000000 		.4byte	0
 5856 0df5 00000000 		.4byte	0
 5857              	.LLST63:
 5858 0df9 00000000 		.4byte	.LVL214
 5859 0dfd 0D000000 		.4byte	.LVL215-1
 5860 0e01 0100     		.2byte	0x1
 5861 0e03 52       		.byte	0x52
 5862 0e04 0D000000 		.4byte	.LVL215-1
 5863 0e08 42000000 		.4byte	.LVL227
 5864 0e0c 0100     		.2byte	0x1
 5865 0e0e 57       		.byte	0x57
 5866 0e0f 42000000 		.4byte	.LVL227
 5867 0e13 48000000 		.4byte	.LFE8
 5868 0e17 0400     		.2byte	0x4
 5869 0e19 F3       		.byte	0xf3
 5870 0e1a 01       		.uleb128 0x1
 5871 0e1b 52       		.byte	0x52
 5872 0e1c 9F       		.byte	0x9f
 5873 0e1d 00000000 		.4byte	0
 5874 0e21 00000000 		.4byte	0
 5875              	.LLST64:
 5876 0e25 10000000 		.4byte	.LVL216
 5877 0e29 12000000 		.4byte	.LVL217
 5878 0e2d 0100     		.2byte	0x1
 5879 0e2f 50       		.byte	0x50
 5880 0e30 12000000 		.4byte	.LVL217
 5881 0e34 1A000000 		.4byte	.LVL220
 5882 0e38 0100     		.2byte	0x1
 5883 0e3a 54       		.byte	0x54
 5884 0e3b 00000000 		.4byte	0
 5885 0e3f 00000000 		.4byte	0
 5886              	.LLST65:
 5887 0e43 18000000 		.4byte	.LVL219
 5888 0e47 22000000 		.4byte	.LVL221
 5889 0e4b 0100     		.2byte	0x1
 5890 0e4d 50       		.byte	0x50
 5891 0e4e 22000000 		.4byte	.LVL221
 5892 0e52 42000000 		.4byte	.LVL227
 5893 0e56 0100     		.2byte	0x1
 5894 0e58 55       		.byte	0x55
 5895 0e59 00000000 		.4byte	0
 5896 0e5d 00000000 		.4byte	0
 5897              	.LLST66:
 5898 0e61 1A000000 		.4byte	.LVL220
 5899 0e65 26000000 		.4byte	.LVL223
 5900 0e69 0100     		.2byte	0x1
 5901 0e6b 54       		.byte	0x54
 5902 0e6c 00000000 		.4byte	0
 5903 0e70 00000000 		.4byte	0
ARM GAS  C:\Users\d3bug\AppData\Local\Temp\ccfzCIuT.s 			page 124


 5904              	.LLST67:
 5905 0e74 24000000 		.4byte	.LVL222
 5906 0e78 42000000 		.4byte	.LVL227
 5907 0e7c 0100     		.2byte	0x1
 5908 0e7e 54       		.byte	0x54
 5909 0e7f 00000000 		.4byte	0
 5910 0e83 00000000 		.4byte	0
 5911              	.LLST68:
 5912 0e87 00000000 		.4byte	.LVL228
 5913 0e8b 0D000000 		.4byte	.LVL229-1
 5914 0e8f 0100     		.2byte	0x1
 5915 0e91 50       		.byte	0x50
 5916 0e92 0D000000 		.4byte	.LVL229-1
 5917 0e96 38000000 		.4byte	.LVL238
 5918 0e9a 0100     		.2byte	0x1
 5919 0e9c 55       		.byte	0x55
 5920 0e9d 38000000 		.4byte	.LVL238
 5921 0ea1 3C000000 		.4byte	.LFE9
 5922 0ea5 0400     		.2byte	0x4
 5923 0ea7 F3       		.byte	0xf3
 5924 0ea8 01       		.uleb128 0x1
 5925 0ea9 50       		.byte	0x50
 5926 0eaa 9F       		.byte	0x9f
 5927 0eab 00000000 		.4byte	0
 5928 0eaf 00000000 		.4byte	0
 5929              	.LLST69:
 5930 0eb3 00000000 		.4byte	.LVL228
 5931 0eb7 0D000000 		.4byte	.LVL229-1
 5932 0ebb 0100     		.2byte	0x1
 5933 0ebd 51       		.byte	0x51
 5934 0ebe 0D000000 		.4byte	.LVL229-1
 5935 0ec2 1C000000 		.4byte	.LVL233
 5936 0ec6 0100     		.2byte	0x1
 5937 0ec8 54       		.byte	0x54
 5938 0ec9 1C000000 		.4byte	.LVL233
 5939 0ecd 22000000 		.4byte	.LVL234
 5940 0ed1 0100     		.2byte	0x1
 5941 0ed3 50       		.byte	0x50
 5942 0ed4 22000000 		.4byte	.LVL234
 5943 0ed8 26000000 		.4byte	.LVL236
 5944 0edc 0100     		.2byte	0x1
 5945 0ede 54       		.byte	0x54
 5946 0edf 00000000 		.4byte	0
 5947 0ee3 00000000 		.4byte	0
 5948              	.LLST70:
 5949 0ee7 00000000 		.4byte	.LVL228
 5950 0eeb 0D000000 		.4byte	.LVL229-1
 5951 0eef 0100     		.2byte	0x1
 5952 0ef1 52       		.byte	0x52
 5953 0ef2 0D000000 		.4byte	.LVL229-1
 5954 0ef6 24000000 		.4byte	.LVL235
 5955 0efa 0100     		.2byte	0x1
 5956 0efc 58       		.byte	0x58
 5957 0efd 24000000 		.4byte	.LVL235
 5958 0f01 3C000000 		.4byte	.LFE9
 5959 0f05 0100     		.2byte	0x1
 5960 0f07 50       		.byte	0x50
ARM GAS  C:\Users\d3bug\AppData\Local\Temp\ccfzCIuT.s 			page 125


 5961 0f08 00000000 		.4byte	0
 5962 0f0c 00000000 		.4byte	0
 5963              	.LLST71:
 5964 0f10 10000000 		.4byte	.LVL230
 5965 0f14 18000000 		.4byte	.LVL231
 5966 0f18 0100     		.2byte	0x1
 5967 0f1a 50       		.byte	0x50
 5968 0f1b 18000000 		.4byte	.LVL231
 5969 0f1f 38000000 		.4byte	.LVL238
 5970 0f23 0100     		.2byte	0x1
 5971 0f25 56       		.byte	0x56
 5972 0f26 00000000 		.4byte	0
 5973 0f2a 00000000 		.4byte	0
 5974              	.LLST72:
 5975 0f2e 24000000 		.4byte	.LVL235
 5976 0f32 38000000 		.4byte	.LVL238
 5977 0f36 0100     		.2byte	0x1
 5978 0f38 54       		.byte	0x54
 5979 0f39 00000000 		.4byte	0
 5980 0f3d 00000000 		.4byte	0
 5981              		.section	.debug_aranges,"",%progbits
 5982 0000 8C000000 		.4byte	0x8c
 5983 0004 0200     		.2byte	0x2
 5984 0006 00000000 		.4byte	.Ldebug_info0
 5985 000a 04       		.byte	0x4
 5986 000b 00       		.byte	0
 5987 000c 0000     		.2byte	0
 5988 000e 0000     		.2byte	0
 5989 0010 00000000 		.4byte	.LFB10
 5990 0014 34000000 		.4byte	.LFE10-.LFB10
 5991 0018 00000000 		.4byte	.LFB11
 5992 001c 9E000000 		.4byte	.LFE11-.LFB11
 5993 0020 00000000 		.4byte	.LFB12
 5994 0024 36000000 		.4byte	.LFE12-.LFB12
 5995 0028 00000000 		.4byte	.LFB13
 5996 002c FC000000 		.4byte	.LFE13-.LFB13
 5997 0030 00000000 		.4byte	.LFB14
 5998 0034 50000000 		.4byte	.LFE14-.LFB14
 5999 0038 00000000 		.4byte	.LFB15
 6000 003c 24000000 		.4byte	.LFE15-.LFB15
 6001 0040 00000000 		.4byte	.LFB16
 6002 0044 2C000000 		.4byte	.LFE16-.LFB16
 6003 0048 00000000 		.4byte	.LFB17
 6004 004c 2C000000 		.4byte	.LFE17-.LFB17
 6005 0050 00000000 		.4byte	.LFB18
 6006 0054 20000000 		.4byte	.LFE18-.LFB18
 6007 0058 00000000 		.4byte	.LFB7
 6008 005c 46000000 		.4byte	.LFE7-.LFB7
 6009 0060 00000000 		.4byte	.LFB5
 6010 0064 1C020000 		.4byte	.LFE5-.LFB5
 6011 0068 00000000 		.4byte	.LFB6
 6012 006c 88000000 		.4byte	.LFE6-.LFB6
 6013 0070 00000000 		.4byte	.LFB4
 6014 0074 B0000000 		.4byte	.LFE4-.LFB4
 6015 0078 00000000 		.4byte	.LFB8
 6016 007c 48000000 		.4byte	.LFE8-.LFB8
 6017 0080 00000000 		.4byte	.LFB9
ARM GAS  C:\Users\d3bug\AppData\Local\Temp\ccfzCIuT.s 			page 126


 6018 0084 3C000000 		.4byte	.LFE9-.LFB9
 6019 0088 00000000 		.4byte	0
 6020 008c 00000000 		.4byte	0
 6021              		.section	.debug_ranges,"",%progbits
 6022              	.Ldebug_ranges0:
 6023 0000 00000000 		.4byte	.LFB10
 6024 0004 34000000 		.4byte	.LFE10
 6025 0008 00000000 		.4byte	.LFB11
 6026 000c 9E000000 		.4byte	.LFE11
 6027 0010 00000000 		.4byte	.LFB12
 6028 0014 36000000 		.4byte	.LFE12
 6029 0018 00000000 		.4byte	.LFB13
 6030 001c FC000000 		.4byte	.LFE13
 6031 0020 00000000 		.4byte	.LFB14
 6032 0024 50000000 		.4byte	.LFE14
 6033 0028 00000000 		.4byte	.LFB15
 6034 002c 24000000 		.4byte	.LFE15
 6035 0030 00000000 		.4byte	.LFB16
 6036 0034 2C000000 		.4byte	.LFE16
 6037 0038 00000000 		.4byte	.LFB17
 6038 003c 2C000000 		.4byte	.LFE17
 6039 0040 00000000 		.4byte	.LFB18
 6040 0044 20000000 		.4byte	.LFE18
 6041 0048 00000000 		.4byte	.LFB7
 6042 004c 46000000 		.4byte	.LFE7
 6043 0050 00000000 		.4byte	.LFB5
 6044 0054 1C020000 		.4byte	.LFE5
 6045 0058 00000000 		.4byte	.LFB6
 6046 005c 88000000 		.4byte	.LFE6
 6047 0060 00000000 		.4byte	.LFB4
 6048 0064 B0000000 		.4byte	.LFE4
 6049 0068 00000000 		.4byte	.LFB8
 6050 006c 48000000 		.4byte	.LFE8
 6051 0070 00000000 		.4byte	.LFB9
 6052 0074 3C000000 		.4byte	.LFE9
 6053 0078 00000000 		.4byte	0
 6054 007c 00000000 		.4byte	0
 6055              		.section	.debug_line,"",%progbits
 6056              	.Ldebug_line0:
 6057 0000 95040000 		.section	.debug_str,"MS",%progbits,1
 6057      0200C601 
 6057      00000201 
 6057      FB0E0D00 
 6057      01010101 
 6058              	.LASF107:
 6059 0000 6C765F74 		.ascii	"lv_txt_unicode_to_encoded\000"
 6059      78745F75 
 6059      6E69636F 
 6059      64655F74 
 6059      6F5F656E 
 6060              	.LASF102:
 6061 001a 6F6C645F 		.ascii	"old_len\000"
 6061      6C656E00 
 6062              	.LASF77:
 6063 0022 775F6174 		.ascii	"w_at_last_break\000"
 6063      5F6C6173 
 6063      745F6272 
ARM GAS  C:\Users\d3bug\AppData\Local\Temp\ccfzCIuT.s 			page 127


 6063      65616B00 
 6064              	.LASF97:
 6065 0032 6C657474 		.ascii	"letter_height\000"
 6065      65725F68 
 6065      65696768 
 6065      7400
 6066              	.LASF115:
 6067 0040 7374726C 		.ascii	"strlen\000"
 6067      656E00
 6068              	.LASF120:
 6069 0047 6C765F66 		.ascii	"lv_font_get_height\000"
 6069      6F6E745F 
 6069      6765745F 
 6069      68656967 
 6069      687400
 6070              	.LASF59:
 6071 005a 6C765F74 		.ascii	"lv_txt_utf8_get_byte_id\000"
 6071      78745F75 
 6071      7466385F 
 6071      6765745F 
 6071      62797465 
 6072              	.LASF98:
 6073 0072 6C765F74 		.ascii	"lv_txt_get_size\000"
 6073      78745F67 
 6073      65745F73 
 6073      697A6500 
 6074              	.LASF0:
 6075 0082 756E7369 		.ascii	"unsigned int\000"
 6075      676E6564 
 6075      20696E74 
 6075      00
 6076              	.LASF30:
 6077 008f 6765745F 		.ascii	"get_bitmap\000"
 6077      6269746D 
 6077      617000
 6078              	.LASF21:
 6079 009a 6C765F70 		.ascii	"lv_point_t\000"
 6079      6F696E74 
 6079      5F7400
 6080              	.LASF109:
 6081 00a5 6C765F74 		.ascii	"lv_txt_encoded_next\000"
 6081      78745F65 
 6081      6E636F64 
 6081      65645F6E 
 6081      65787400 
 6082              	.LASF29:
 6083 00b9 756E6963 		.ascii	"unicode_list\000"
 6083      6F64655F 
 6083      6C697374 
 6083      00
 6084              	.LASF110:
 6085 00c6 6C765F74 		.ascii	"lv_txt_encoded_prev\000"
 6085      78745F65 
 6085      6E636F64 
 6085      65645F70 
 6085      72657600 
 6086              	.LASF84:
ARM GAS  C:\Users\d3bug\AppData\Local\Temp\ccfzCIuT.s 			page 128


 6087 00da 6F746865 		.ascii	"other\000"
 6087      7200
 6088              	.LASF38:
 6089 00e0 4C565F54 		.ascii	"LV_TXT_FLAG_RECOLOR\000"
 6089      58545F46 
 6089      4C41475F 
 6089      5245434F 
 6089      4C4F5200 
 6090              	.LASF91:
 6091 00f4 73697A65 		.ascii	"size_res\000"
 6091      5F726573 
 6091      00
 6092              	.LASF82:
 6093 00fd 6C657474 		.ascii	"letter_next\000"
 6093      65725F6E 
 6093      65787400 
 6094              	.LASF40:
 6095 0109 4C565F54 		.ascii	"LV_TXT_FLAG_CENTER\000"
 6095      58545F46 
 6095      4C41475F 
 6095      43454E54 
 6095      455200
 6096              	.LASF19:
 6097 011c 75696E74 		.ascii	"uint32_t\000"
 6097      33325F74 
 6097      00
 6098              	.LASF100:
 6099 0125 7478745F 		.ascii	"txt_buf\000"
 6099      62756600 
 6100              	.LASF17:
 6101 012d 696E7431 		.ascii	"int16_t\000"
 6101      365F7400 
 6102              	.LASF55:
 6103 0135 72657375 		.ascii	"result\000"
 6103      6C7400
 6104              	.LASF47:
 6105 013c 6C765F74 		.ascii	"lv_txt_utf8_size\000"
 6105      78745F75 
 6105      7466385F 
 6105      73697A65 
 6105      00
 6106              	.LASF35:
 6107 014d 676C7970 		.ascii	"glyph_cnt\000"
 6107      685F636E 
 6107      7400
 6108              	.LASF13:
 6109 0157 6C6F6E67 		.ascii	"long long unsigned int\000"
 6109      206C6F6E 
 6109      6720756E 
 6109      7369676E 
 6109      65642069 
 6110              	.LASF52:
 6111 016e 6C765F74 		.ascii	"lv_txt_utf8_conv_wc\000"
 6111      78745F75 
 6111      7466385F 
 6111      636F6E76 
 6111      5F776300 
ARM GAS  C:\Users\d3bug\AppData\Local\Temp\ccfzCIuT.s 			page 129


 6112              	.LASF71:
 6113 0182 6C765F74 		.ascii	"lv_txt_get_next_line\000"
 6113      78745F67 
 6113      65745F6E 
 6113      6578745F 
 6113      6C696E65 
 6114              	.LASF22:
 6115 0197 775F7078 		.ascii	"w_px\000"
 6115      00
 6116              	.LASF80:
 6117 019c 636D645F 		.ascii	"cmd_state\000"
 6117      73746174 
 6117      6500
 6118              	.LASF8:
 6119 01a6 5F5F7569 		.ascii	"__uint16_t\000"
 6119      6E743136 
 6119      5F7400
 6120              	.LASF32:
 6121 01b1 6E657874 		.ascii	"next_page\000"
 6121      5F706167 
 6121      6500
 6122              	.LASF41:
 6123 01bb 4C565F54 		.ascii	"LV_TXT_FLAG_RIGHT\000"
 6123      58545F46 
 6123      4C41475F 
 6123      52494748 
 6123      5400
 6124              	.LASF113:
 6125 01cd 6C765F74 		.ascii	"lv_txt_get_encoded_length\000"
 6125      78745F67 
 6125      65745F65 
 6125      6E636F64 
 6125      65645F6C 
 6126              	.LASF116:
 6127 01e7 474E5520 		.ascii	"GNU C11 5.4.1 20160609 (release) [ARM/embedded-5-br"
 6127      43313120 
 6127      352E342E 
 6127      31203230 
 6127      31363036 
 6128 021a 616E6368 		.ascii	"anch revision 237715] -mcpu=cortex-m3 -mthumb -g -O"
 6128      20726576 
 6128      6973696F 
 6128      6E203233 
 6128      37373135 
 6129 024d 67202D66 		.ascii	"g -ffunction-sections -ffat-lto-objects\000"
 6129      66756E63 
 6129      74696F6E 
 6129      2D736563 
 6129      74696F6E 
 6130              	.LASF89:
 6131 0275 77696474 		.ascii	"width\000"
 6131      6800
 6132              	.LASF66:
 6133 027b 69735F62 		.ascii	"is_break_char\000"
 6133      7265616B 
 6133      5F636861 
 6133      7200
ARM GAS  C:\Users\d3bug\AppData\Local\Temp\ccfzCIuT.s 			page 130


 6134              	.LASF67:
 6135 0289 6C657474 		.ascii	"letter\000"
 6135      657200
 6136              	.LASF68:
 6137 0290 5F426F6F 		.ascii	"_Bool\000"
 6137      6C00
 6138              	.LASF51:
 6139 0296 7265735F 		.ascii	"res_p\000"
 6139      7000
 6140              	.LASF60:
 6141 029c 75746638 		.ascii	"utf8_id\000"
 6141      5F696400 
 6142              	.LASF45:
 6143 02a4 4C565F54 		.ascii	"LV_TXT_CMD_STATE_IN\000"
 6143      58545F43 
 6143      4D445F53 
 6143      54415445 
 6143      5F494E00 
 6144              	.LASF101:
 6145 02b8 696E735F 		.ascii	"ins_txt\000"
 6145      74787400 
 6146              	.LASF119:
 6147 02c0 5F6C765F 		.ascii	"_lv_font_struct\000"
 6147      666F6E74 
 6147      5F737472 
 6147      75637400 
 6148              	.LASF93:
 6149 02d0 6C696E65 		.ascii	"line_space\000"
 6149      5F737061 
 6149      636500
 6150              	.LASF46:
 6151 02db 6C765F74 		.ascii	"lv_txt_cmd_state_t\000"
 6151      78745F63 
 6151      6D645F73 
 6151      74617465 
 6151      5F7400
 6152              	.LASF121:
 6153 02ee 666F6E74 		.ascii	"font_p\000"
 6153      5F7000
 6154              	.LASF15:
 6155 02f5 63686172 		.ascii	"char\000"
 6155      00
 6156              	.LASF105:
 6157 02fa 6C765F74 		.ascii	"lv_txt_cut\000"
 6157      78745F63 
 6157      757400
 6158              	.LASF62:
 6159 0305 6C765F74 		.ascii	"lv_txt_utf8_get_char_id\000"
 6159      78745F75 
 6159      7466385F 
 6159      6765745F 
 6159      63686172 
 6160              	.LASF118:
 6161 031d 433A5C55 		.ascii	"C:\\Users\\d3bug\\Documents\\Creator\\lvgl_ssd1306\\"
 6161      73657273 
 6161      5C643362 
 6161      75675C44 
ARM GAS  C:\Users\d3bug\AppData\Local\Temp\ccfzCIuT.s 			page 131


 6161      6F63756D 
 6162 034b 68656C6C 		.ascii	"hello_world_label.cydsn\000"
 6162      6F5F776F 
 6162      726C645F 
 6162      6C616265 
 6162      6C2E6379 
 6163              	.LASF58:
 6164 0363 635F7369 		.ascii	"c_size\000"
 6164      7A6500
 6165              	.LASF92:
 6166 036a 74657874 		.ascii	"text\000"
 6166      00
 6167              	.LASF56:
 6168 036f 695F746D 		.ascii	"i_tmp\000"
 6168      7000
 6169              	.LASF24:
 6170 0375 6C765F66 		.ascii	"lv_font_glyph_dsc_t\000"
 6170      6F6E745F 
 6170      676C7970 
 6170      685F6473 
 6170      635F7400 
 6171              	.LASF70:
 6172 0389 6C765F74 		.ascii	"lv_txt_is_cmd\000"
 6172      78745F69 
 6172      735F636D 
 6172      6400
 6173              	.LASF16:
 6174 0397 75696E74 		.ascii	"uint8_t\000"
 6174      385F7400 
 6175              	.LASF112:
 6176 039f 6C765F65 		.ascii	"lv_encoded_get_char_id\000"
 6176      6E636F64 
 6176      65645F67 
 6176      65745F63 
 6176      6861725F 
 6177              	.LASF111:
 6178 03b6 6C765F74 		.ascii	"lv_txt_encoded_get_byte_id\000"
 6178      78745F65 
 6178      6E636F64 
 6178      65645F67 
 6178      65745F62 
 6179              	.LASF74:
 6180 03d1 6D61785F 		.ascii	"max_width\000"
 6180      77696474 
 6180      6800
 6181              	.LASF65:
 6182 03db 6C765F74 		.ascii	"lv_txt_utf8_get_length\000"
 6182      78745F75 
 6182      7466385F 
 6182      6765745F 
 6182      6C656E67 
 6183              	.LASF1:
 6184 03f2 6C6F6E67 		.ascii	"long long int\000"
 6184      206C6F6E 
 6184      6720696E 
 6184      7400
 6185              	.LASF106:
ARM GAS  C:\Users\d3bug\AppData\Local\Temp\ccfzCIuT.s 			page 132


 6186 0400 6C765F74 		.ascii	"lv_txt_encoded_size\000"
 6186      78745F65 
 6186      6E636F64 
 6186      65645F73 
 6186      697A6500 
 6187              	.LASF87:
 6188 0414 6C765F74 		.ascii	"lv_txt_get_width\000"
 6188      78745F67 
 6188      65745F77 
 6188      69647468 
 6188      00
 6189              	.LASF76:
 6190 0425 6375725F 		.ascii	"cur_w\000"
 6190      7700
 6191              	.LASF44:
 6192 042b 4C565F54 		.ascii	"LV_TXT_CMD_STATE_PAR\000"
 6192      58545F43 
 6192      4D445F53 
 6192      54415445 
 6192      5F504152 
 6193              	.LASF6:
 6194 0440 5F5F696E 		.ascii	"__int16_t\000"
 6194      7431365F 
 6194      7400
 6195              	.LASF81:
 6196 044a 6C657474 		.ascii	"letter_width\000"
 6196      65725F77 
 6196      69647468 
 6196      00
 6197              	.LASF49:
 6198 0457 6C657474 		.ascii	"letter_uni\000"
 6198      65725F75 
 6198      6E6900
 6199              	.LASF108:
 6200 0462 6C765F74 		.ascii	"lv_txt_encoded_conv_wc\000"
 6200      78745F65 
 6200      6E636F64 
 6200      65645F63 
 6200      6F6E765F 
 6201              	.LASF27:
 6202 0479 676C7970 		.ascii	"glyph_bitmap\000"
 6202      685F6269 
 6202      746D6170 
 6202      00
 6203              	.LASF78:
 6204 0486 6E5F6368 		.ascii	"n_char_since_last_break\000"
 6204      61725F73 
 6204      696E6365 
 6204      5F6C6173 
 6204      745F6272 
 6205              	.LASF2:
 6206 049e 6C6F6E67 		.ascii	"long double\000"
 6206      20646F75 
 6206      626C6500 
 6207              	.LASF18:
 6208 04aa 75696E74 		.ascii	"uint16_t\000"
 6208      31365F74 
ARM GAS  C:\Users\d3bug\AppData\Local\Temp\ccfzCIuT.s 			page 133


 6208      00
 6209              	.LASF90:
 6210 04b3 63686172 		.ascii	"char_width\000"
 6210      5F776964 
 6210      746800
 6211              	.LASF53:
 6212 04be 73776170 		.ascii	"swapped\000"
 6212      70656400 
 6213              	.LASF36:
 6214 04c6 6C765F66 		.ascii	"lv_font_t\000"
 6214      6F6E745F 
 6214      7400
 6215              	.LASF73:
 6216 04d0 6C657474 		.ascii	"letter_space\000"
 6216      65725F73 
 6216      70616365 
 6216      00
 6217              	.LASF7:
 6218 04dd 73686F72 		.ascii	"short int\000"
 6218      7420696E 
 6218      7400
 6219              	.LASF94:
 6220 04e7 6C696E65 		.ascii	"line_start\000"
 6220      5F737461 
 6220      727400
 6221              	.LASF10:
 6222 04f2 6C6F6E67 		.ascii	"long int\000"
 6222      20696E74 
 6222      00
 6223              	.LASF50:
 6224 04fb 62797465 		.ascii	"bytes\000"
 6224      7300
 6225              	.LASF88:
 6226 0501 6C656E67 		.ascii	"length\000"
 6226      746800
 6227              	.LASF33:
 6228 0508 685F7078 		.ascii	"h_px\000"
 6228      00
 6229              	.LASF75:
 6230 050d 666C6167 		.ascii	"flag\000"
 6230      00
 6231              	.LASF86:
 6232 0512 63686172 		.ascii	"char_remain\000"
 6232      5F72656D 
 6232      61696E00 
 6233              	.LASF83:
 6234 051e 6E5F6368 		.ascii	"n_char_fit\000"
 6234      61725F66 
 6234      697400
 6235              	.LASF20:
 6236 0529 6C765F63 		.ascii	"lv_coord_t\000"
 6236      6F6F7264 
 6236      5F7400
 6237              	.LASF79:
 6238 0534 6C617374 		.ascii	"last_break\000"
 6238      5F627265 
 6238      616B00
ARM GAS  C:\Users\d3bug\AppData\Local\Temp\ccfzCIuT.s 			page 134


 6239              	.LASF114:
 6240 053f 6C765F66 		.ascii	"lv_font_get_width\000"
 6240      6F6E745F 
 6240      6765745F 
 6240      77696474 
 6240      6800
 6241              	.LASF5:
 6242 0551 5F5F7569 		.ascii	"__uint8_t\000"
 6242      6E74385F 
 6242      7400
 6243              	.LASF96:
 6244 055b 6163745F 		.ascii	"act_line_length\000"
 6244      6C696E65 
 6244      5F6C656E 
 6244      67746800 
 6245              	.LASF72:
 6246 056b 666F6E74 		.ascii	"font\000"
 6246      00
 6247              	.LASF14:
 6248 0570 73697A65 		.ascii	"sizetype\000"
 6248      74797065 
 6248      00
 6249              	.LASF12:
 6250 0579 6C6F6E67 		.ascii	"long unsigned int\000"
 6250      20756E73 
 6250      69676E65 
 6250      6420696E 
 6250      7400
 6251              	.LASF34:
 6252 058b 6D6F6E6F 		.ascii	"monospace\000"
 6252      73706163 
 6252      6500
 6253              	.LASF43:
 6254 0595 4C565F54 		.ascii	"LV_TXT_CMD_STATE_WAIT\000"
 6254      58545F43 
 6254      4D445F53 
 6254      54415445 
 6254      5F574149 
 6255              	.LASF23:
 6256 05ab 676C7970 		.ascii	"glyph_index\000"
 6256      685F696E 
 6256      64657800 
 6257              	.LASF48:
 6258 05b7 6C765F74 		.ascii	"lv_txt_unicode_to_utf8\000"
 6258      78745F75 
 6258      6E69636F 
 6258      64655F74 
 6258      6F5F7574 
 6259              	.LASF104:
 6260 05ce 6E65775F 		.ascii	"new_len\000"
 6260      6C656E00 
 6261              	.LASF64:
 6262 05d6 63686172 		.ascii	"char_cnt\000"
 6262      5F636E74 
 6262      00
 6263              	.LASF54:
 6264 05df 6C765F74 		.ascii	"lv_txt_utf8_next\000"
ARM GAS  C:\Users\d3bug\AppData\Local\Temp\ccfzCIuT.s 			page 135


 6264      78745F75 
 6264      7466385F 
 6264      6E657874 
 6264      00
 6265              	.LASF4:
 6266 05f0 756E7369 		.ascii	"unsigned char\000"
 6266      676E6564 
 6266      20636861 
 6266      7200
 6267              	.LASF11:
 6268 05fe 5F5F7569 		.ascii	"__uint32_t\000"
 6268      6E743332 
 6268      5F7400
 6269              	.LASF117:
 6270 0609 2E2E5C6C 		.ascii	"..\\lvgl\\lv_misc\\lv_txt.c\000"
 6270      76676C5C 
 6270      6C765F6D 
 6270      6973635C 
 6270      6C765F74 
 6271              	.LASF69:
 6272 0622 73746174 		.ascii	"state\000"
 6272      6500
 6273              	.LASF85:
 6274 0628 6C657474 		.ascii	"letter_width2\000"
 6274      65725F77 
 6274      69647468 
 6274      3200
 6275              	.LASF57:
 6276 0636 6C765F74 		.ascii	"lv_txt_utf8_prev\000"
 6276      78745F75 
 6276      7466385F 
 6276      70726576 
 6276      00
 6277              	.LASF31:
 6278 0647 6765745F 		.ascii	"get_width\000"
 6278      77696474 
 6278      6800
 6279              	.LASF63:
 6280 0651 62797465 		.ascii	"byte_id\000"
 6280      5F696400 
 6281              	.LASF3:
 6282 0659 7369676E 		.ascii	"signed char\000"
 6282      65642063 
 6282      68617200 
 6283              	.LASF99:
 6284 0665 6C765F74 		.ascii	"lv_txt_ins\000"
 6284      78745F69 
 6284      6E7300
 6285              	.LASF42:
 6286 0670 6C765F74 		.ascii	"lv_txt_flag_t\000"
 6286      78745F66 
 6286      6C61675F 
 6286      7400
 6287              	.LASF9:
 6288 067e 73686F72 		.ascii	"short unsigned int\000"
 6288      7420756E 
 6288      7369676E 
ARM GAS  C:\Users\d3bug\AppData\Local\Temp\ccfzCIuT.s 			page 136


 6288      65642069 
 6288      6E7400
 6289              	.LASF122:
 6290 0691 6D656D63 		.ascii	"memcpy\000"
 6290      707900
 6291              	.LASF103:
 6292 0698 696E735F 		.ascii	"ins_len\000"
 6292      6C656E00 
 6293              	.LASF37:
 6294 06a0 4C565F54 		.ascii	"LV_TXT_FLAG_NONE\000"
 6294      58545F46 
 6294      4C41475F 
 6294      4E4F4E45 
 6294      00
 6295              	.LASF39:
 6296 06b1 4C565F54 		.ascii	"LV_TXT_FLAG_EXPAND\000"
 6296      58545F46 
 6296      4C41475F 
 6296      45585041 
 6296      4E4400
 6297              	.LASF28:
 6298 06c4 676C7970 		.ascii	"glyph_dsc\000"
 6298      685F6473 
 6298      6300
 6299              	.LASF61:
 6300 06ce 62797465 		.ascii	"byte_cnt\000"
 6300      5F636E74 
 6300      00
 6301              	.LASF25:
 6302 06d7 756E6963 		.ascii	"unicode_first\000"
 6302      6F64655F 
 6302      66697273 
 6302      7400
 6303              	.LASF26:
 6304 06e5 756E6963 		.ascii	"unicode_last\000"
 6304      6F64655F 
 6304      6C617374 
 6304      00
 6305              	.LASF95:
 6306 06f2 6E65775F 		.ascii	"new_line_start\000"
 6306      6C696E65 
 6306      5F737461 
 6306      727400
 6307              		.ident	"GCC: (GNU Tools for ARM Embedded Processors) 5.4.1 20160609 (release) [ARM/embedded-5-bran
