ARM GAS  C:\Users\d3bug\AppData\Local\Temp\ccfzCIuT.s 			page 1


   1              		.syntax unified
   2              		.cpu cortex-m3
   3              		.fpu softvfp
   4              		.eabi_attribute 20, 1
   5              		.eabi_attribute 21, 1
   6              		.eabi_attribute 23, 3
   7              		.eabi_attribute 24, 1
   8              		.eabi_attribute 25, 1
   9              		.eabi_attribute 26, 1
  10              		.eabi_attribute 30, 1
  11              		.eabi_attribute 34, 1
  12              		.eabi_attribute 18, 4
  13              		.thumb
  14              		.syntax unified
  15              		.file	"lv_txt.c"
  16              		.text
  17              	.Ltext0:
  18              		.cfi_sections	.debug_frame
  19              		.section	.text.lv_txt_utf8_size,"ax",%progbits
  20              		.align	2
  21              		.thumb
  22              		.thumb_func
  23              		.type	lv_txt_utf8_size, %function
  24              	lv_txt_utf8_size:
  25              	.LFB10:
  26              		.file 1 "..\\lvgl\\lv_misc\\lv_txt.c"
   1:..\lvgl\lv_misc/lv_txt.c **** /**
   2:..\lvgl\lv_misc/lv_txt.c ****  * @file lv_text.c
   3:..\lvgl\lv_misc/lv_txt.c ****  *
   4:..\lvgl\lv_misc/lv_txt.c ****  */
   5:..\lvgl\lv_misc/lv_txt.c **** 
   6:..\lvgl\lv_misc/lv_txt.c **** /*********************
   7:..\lvgl\lv_misc/lv_txt.c ****  *      INCLUDES
   8:..\lvgl\lv_misc/lv_txt.c ****  *********************/
   9:..\lvgl\lv_misc/lv_txt.c **** #include "lv_txt.h"
  10:..\lvgl\lv_misc/lv_txt.c **** #include "lv_math.h"
  11:..\lvgl\lv_misc/lv_txt.c **** 
  12:..\lvgl\lv_misc/lv_txt.c **** /*********************
  13:..\lvgl\lv_misc/lv_txt.c ****  *      DEFINES
  14:..\lvgl\lv_misc/lv_txt.c ****  *********************/
  15:..\lvgl\lv_misc/lv_txt.c **** #define NO_BREAK_FOUND  UINT32_MAX
  16:..\lvgl\lv_misc/lv_txt.c **** 
  17:..\lvgl\lv_misc/lv_txt.c **** #ifndef LV_TXT_LINE_BREAK_LONG_LEN
  18:..\lvgl\lv_misc/lv_txt.c **** #define LV_TXT_LINE_BREAK_LONG_LEN 12 /* If a character is at least this long, will break wherever 
  19:..\lvgl\lv_misc/lv_txt.c **** #endif
  20:..\lvgl\lv_misc/lv_txt.c **** 
  21:..\lvgl\lv_misc/lv_txt.c **** #ifndef LV_TXT_LINE_BREAK_LONG_PRE_MIN_LEN
  22:..\lvgl\lv_misc/lv_txt.c **** #define LV_TXT_LINE_BREAK_LONG_PRE_MIN_LEN 3 /* Minimum number of characters of a word to put on a 
  23:..\lvgl\lv_misc/lv_txt.c **** #endif
  24:..\lvgl\lv_misc/lv_txt.c **** 
  25:..\lvgl\lv_misc/lv_txt.c **** #ifndef LV_TXT_LINE_BREAK_LONG_POST_MIN_LEN
  26:..\lvgl\lv_misc/lv_txt.c **** #define LV_TXT_LINE_BREAK_LONG_POST_MIN_LEN 1 /* Minimum number of characters of a word to put on a
  27:..\lvgl\lv_misc/lv_txt.c **** #endif
  28:..\lvgl\lv_misc/lv_txt.c **** 
  29:..\lvgl\lv_misc/lv_txt.c **** /**********************
  30:..\lvgl\lv_misc/lv_txt.c ****  *      TYPEDEFS
  31:..\lvgl\lv_misc/lv_txt.c ****  **********************/
ARM GAS  C:\Users\d3bug\AppData\Local\Temp\ccfzCIuT.s 			page 2


  32:..\lvgl\lv_misc/lv_txt.c **** 
  33:..\lvgl\lv_misc/lv_txt.c **** /**********************
  34:..\lvgl\lv_misc/lv_txt.c ****  *  STATIC PROTOTYPES
  35:..\lvgl\lv_misc/lv_txt.c ****  **********************/
  36:..\lvgl\lv_misc/lv_txt.c **** static bool is_break_char(uint32_t letter);
  37:..\lvgl\lv_misc/lv_txt.c **** 
  38:..\lvgl\lv_misc/lv_txt.c **** #if LV_TXT_UTF8
  39:..\lvgl\lv_misc/lv_txt.c **** static uint8_t lv_txt_utf8_size(const char * str);
  40:..\lvgl\lv_misc/lv_txt.c **** static uint32_t lv_txt_unicode_to_utf8(uint32_t letter_uni);
  41:..\lvgl\lv_misc/lv_txt.c **** static uint32_t lv_txt_utf8_conv_wc(uint32_t c);
  42:..\lvgl\lv_misc/lv_txt.c **** static uint32_t lv_txt_utf8_next(const char * txt, uint32_t * i);
  43:..\lvgl\lv_misc/lv_txt.c **** static uint32_t lv_txt_utf8_prev(const char * txt, uint32_t * i_start);
  44:..\lvgl\lv_misc/lv_txt.c **** static uint32_t lv_txt_utf8_get_byte_id(const char * txt, uint32_t utf8_id);
  45:..\lvgl\lv_misc/lv_txt.c **** static uint32_t lv_txt_utf8_get_char_id(const char * txt, uint32_t byte_id);
  46:..\lvgl\lv_misc/lv_txt.c **** static uint32_t lv_txt_utf8_get_length(const char * txt);
  47:..\lvgl\lv_misc/lv_txt.c **** #else
  48:..\lvgl\lv_misc/lv_txt.c **** static uint8_t lv_txt_ascii_size(const char * str);
  49:..\lvgl\lv_misc/lv_txt.c **** static uint32_t lv_txt_unicode_to_ascii(uint32_t letter_uni);
  50:..\lvgl\lv_misc/lv_txt.c **** static uint32_t lv_txt_ascii_conv_wc(uint32_t c);
  51:..\lvgl\lv_misc/lv_txt.c **** static uint32_t lv_txt_ascii_next(const char * txt, uint32_t * i);
  52:..\lvgl\lv_misc/lv_txt.c **** static uint32_t lv_txt_ascii_prev(const char * txt, uint32_t * i_start);
  53:..\lvgl\lv_misc/lv_txt.c **** static uint32_t lv_txt_ascii_get_byte_id(const char * txt, uint32_t utf8_id);
  54:..\lvgl\lv_misc/lv_txt.c **** static uint32_t lv_txt_ascii_get_char_id(const char * txt, uint32_t byte_id);
  55:..\lvgl\lv_misc/lv_txt.c **** static uint32_t lv_txt_ascii_get_length(const char * txt);
  56:..\lvgl\lv_misc/lv_txt.c **** #endif
  57:..\lvgl\lv_misc/lv_txt.c **** 
  58:..\lvgl\lv_misc/lv_txt.c **** /**********************
  59:..\lvgl\lv_misc/lv_txt.c ****  *  STATIC VARIABLES
  60:..\lvgl\lv_misc/lv_txt.c ****  **********************/
  61:..\lvgl\lv_misc/lv_txt.c **** 
  62:..\lvgl\lv_misc/lv_txt.c **** 
  63:..\lvgl\lv_misc/lv_txt.c **** /**********************
  64:..\lvgl\lv_misc/lv_txt.c ****  *  GLOBAL VARIABLES
  65:..\lvgl\lv_misc/lv_txt.c ****  **********************/
  66:..\lvgl\lv_misc/lv_txt.c **** #if LV_TXT_UTF8
  67:..\lvgl\lv_misc/lv_txt.c **** uint8_t (*lv_txt_encoded_size)(const char *) =                  lv_txt_utf8_size;
  68:..\lvgl\lv_misc/lv_txt.c **** uint32_t (*lv_txt_unicode_to_encoded)(uint32_t) =               lv_txt_unicode_to_utf8;
  69:..\lvgl\lv_misc/lv_txt.c **** uint32_t (*lv_txt_encoded_conv_wc)(uint32_t) =                  lv_txt_utf8_conv_wc;
  70:..\lvgl\lv_misc/lv_txt.c **** uint32_t (*lv_txt_encoded_next)(const char *, uint32_t *) =    lv_txt_utf8_next;
  71:..\lvgl\lv_misc/lv_txt.c **** uint32_t (*lv_txt_encoded_prev)(const char *, uint32_t *) =   lv_txt_utf8_prev;
  72:..\lvgl\lv_misc/lv_txt.c **** uint32_t (*lv_txt_encoded_get_byte_id)(const char *, uint32_t) = lv_txt_utf8_get_byte_id;
  73:..\lvgl\lv_misc/lv_txt.c **** uint32_t (*lv_encoded_get_char_id)(const char *, uint32_t) =   lv_txt_utf8_get_char_id;
  74:..\lvgl\lv_misc/lv_txt.c **** uint32_t (*lv_txt_get_encoded_length)(const char *) =          lv_txt_utf8_get_length;
  75:..\lvgl\lv_misc/lv_txt.c **** #else
  76:..\lvgl\lv_misc/lv_txt.c **** uint8_t (*lv_txt_encoded_size)(const char *) =                  lv_txt_ascii_size;
  77:..\lvgl\lv_misc/lv_txt.c **** uint32_t (*lv_txt_unicode_to_encoded)(uint32_t) =               lv_txt_unicode_to_ascii;
  78:..\lvgl\lv_misc/lv_txt.c **** uint32_t (*lv_txt_encoded_conv_wc)(uint32_t) =                  lv_txt_ascii_conv_wc;
  79:..\lvgl\lv_misc/lv_txt.c **** uint32_t (*lv_txt_encoded_next)(const char *, uint32_t *) =    lv_txt_ascii_next;
  80:..\lvgl\lv_misc/lv_txt.c **** uint32_t (*lv_txt_encoded_prev)(const char *, uint32_t *) =   lv_txt_ascii_prev;
  81:..\lvgl\lv_misc/lv_txt.c **** uint32_t (*lv_txt_encoded_get_byte_id)(const char *, uint32_t) = lv_txt_ascii_get_byte_id;
  82:..\lvgl\lv_misc/lv_txt.c **** uint32_t (*lv_encoded_get_char_id)(const char *, uint32_t) =   lv_txt_ascii_get_char_id;
  83:..\lvgl\lv_misc/lv_txt.c **** uint32_t (*lv_txt_get_encoded_length)(const char *) =          lv_txt_ascii_get_length;
  84:..\lvgl\lv_misc/lv_txt.c **** #endif
  85:..\lvgl\lv_misc/lv_txt.c **** /**********************
  86:..\lvgl\lv_misc/lv_txt.c ****  *      MACROS
  87:..\lvgl\lv_misc/lv_txt.c ****  **********************/
  88:..\lvgl\lv_misc/lv_txt.c **** 
ARM GAS  C:\Users\d3bug\AppData\Local\Temp\ccfzCIuT.s 			page 3


  89:..\lvgl\lv_misc/lv_txt.c **** /**********************
  90:..\lvgl\lv_misc/lv_txt.c ****  *   GLOBAL FUNCTIONS
  91:..\lvgl\lv_misc/lv_txt.c ****  **********************/
  92:..\lvgl\lv_misc/lv_txt.c **** 
  93:..\lvgl\lv_misc/lv_txt.c **** /**
  94:..\lvgl\lv_misc/lv_txt.c ****  * Get size of a text
  95:..\lvgl\lv_misc/lv_txt.c ****  * @param size_res pointer to a 'point_t' variable to store the result
  96:..\lvgl\lv_misc/lv_txt.c ****  * @param text pointer to a text
  97:..\lvgl\lv_misc/lv_txt.c ****  * @param font pinter to font of the text
  98:..\lvgl\lv_misc/lv_txt.c ****  * @param letter_space letter space of the text
  99:..\lvgl\lv_misc/lv_txt.c ****  * @param txt.line_space line space of the text
 100:..\lvgl\lv_misc/lv_txt.c ****  * @param flags settings for the text from 'txt_flag_t' enum
 101:..\lvgl\lv_misc/lv_txt.c ****  * @param max_width max with of the text (break the lines to fit this size) Set CORD_MAX to avoid l
 102:..\lvgl\lv_misc/lv_txt.c ****  */
 103:..\lvgl\lv_misc/lv_txt.c **** void lv_txt_get_size(lv_point_t * size_res, const char * text, const lv_font_t * font,
 104:..\lvgl\lv_misc/lv_txt.c ****                      lv_coord_t letter_space, lv_coord_t line_space, lv_coord_t max_width, lv_txt_f
 105:..\lvgl\lv_misc/lv_txt.c **** {
 106:..\lvgl\lv_misc/lv_txt.c ****     size_res->x = 0;
 107:..\lvgl\lv_misc/lv_txt.c ****     size_res->y = 0;
 108:..\lvgl\lv_misc/lv_txt.c **** 
 109:..\lvgl\lv_misc/lv_txt.c ****     if(text == NULL) return;
 110:..\lvgl\lv_misc/lv_txt.c ****     if(font == NULL) return;
 111:..\lvgl\lv_misc/lv_txt.c **** 
 112:..\lvgl\lv_misc/lv_txt.c ****     if(flag & LV_TXT_FLAG_EXPAND) max_width = LV_COORD_MAX;
 113:..\lvgl\lv_misc/lv_txt.c **** 
 114:..\lvgl\lv_misc/lv_txt.c ****     uint32_t line_start = 0;
 115:..\lvgl\lv_misc/lv_txt.c ****     uint32_t new_line_start = 0;
 116:..\lvgl\lv_misc/lv_txt.c ****     lv_coord_t act_line_length;
 117:..\lvgl\lv_misc/lv_txt.c ****     uint8_t letter_height = lv_font_get_height(font);
 118:..\lvgl\lv_misc/lv_txt.c **** 
 119:..\lvgl\lv_misc/lv_txt.c ****     /*Calc. the height and longest line*/
 120:..\lvgl\lv_misc/lv_txt.c ****     while(text[line_start] != '\0') {
 121:..\lvgl\lv_misc/lv_txt.c ****         new_line_start += lv_txt_get_next_line(&text[line_start], font, letter_space, max_width, fl
 122:..\lvgl\lv_misc/lv_txt.c ****         size_res->y += letter_height ;
 123:..\lvgl\lv_misc/lv_txt.c ****         size_res->y += line_space;
 124:..\lvgl\lv_misc/lv_txt.c **** 
 125:..\lvgl\lv_misc/lv_txt.c ****         /*Calculate the the longest line*/
 126:..\lvgl\lv_misc/lv_txt.c ****         act_line_length = lv_txt_get_width(&text[line_start], new_line_start - line_start,
 127:..\lvgl\lv_misc/lv_txt.c ****                                            font, letter_space, flag);
 128:..\lvgl\lv_misc/lv_txt.c **** 
 129:..\lvgl\lv_misc/lv_txt.c ****         size_res->x = LV_MATH_MAX(act_line_length, size_res->x);
 130:..\lvgl\lv_misc/lv_txt.c ****         line_start = new_line_start;
 131:..\lvgl\lv_misc/lv_txt.c ****     }
 132:..\lvgl\lv_misc/lv_txt.c **** 
 133:..\lvgl\lv_misc/lv_txt.c ****     /*Ma ke the text one line taller if the last character is '\n' or '\r'*/
 134:..\lvgl\lv_misc/lv_txt.c ****     if((line_start != 0) && (text[line_start - 1] == '\n' || text[line_start - 1] == '\r')) {
 135:..\lvgl\lv_misc/lv_txt.c ****         size_res->y += letter_height + line_space;
 136:..\lvgl\lv_misc/lv_txt.c ****     }
 137:..\lvgl\lv_misc/lv_txt.c **** 
 138:..\lvgl\lv_misc/lv_txt.c ****     /*Correction with the last line space or set the height manually if the text is empty*/
 139:..\lvgl\lv_misc/lv_txt.c ****     if(size_res->y == 0) size_res->y = letter_height;
 140:..\lvgl\lv_misc/lv_txt.c ****     else size_res->y -= line_space;
 141:..\lvgl\lv_misc/lv_txt.c **** 
 142:..\lvgl\lv_misc/lv_txt.c **** }
 143:..\lvgl\lv_misc/lv_txt.c **** 
 144:..\lvgl\lv_misc/lv_txt.c **** /**
 145:..\lvgl\lv_misc/lv_txt.c ****  * Get the next line of text. Check line length and break chars too.
ARM GAS  C:\Users\d3bug\AppData\Local\Temp\ccfzCIuT.s 			page 4


 146:..\lvgl\lv_misc/lv_txt.c ****  * @param txt a '\0' terminated string
 147:..\lvgl\lv_misc/lv_txt.c ****  * @param font pointer to a font
 148:..\lvgl\lv_misc/lv_txt.c ****  * @param letter_space letter space
 149:..\lvgl\lv_misc/lv_txt.c ****  * @param max_width max with of the text (break the lines to fit this size) Set CORD_MAX to avoid l
 150:..\lvgl\lv_misc/lv_txt.c ****  * @param flags settings for the text from 'txt_flag_type' enum
 151:..\lvgl\lv_misc/lv_txt.c ****  * @return the index of the first char of the new line (in byte index not letter index. With UTF-8 
 152:..\lvgl\lv_misc/lv_txt.c ****  */
 153:..\lvgl\lv_misc/lv_txt.c **** uint16_t lv_txt_get_next_line(const char * txt, const lv_font_t * font,
 154:..\lvgl\lv_misc/lv_txt.c ****                               lv_coord_t letter_space, lv_coord_t max_width, lv_txt_flag_t flag)
 155:..\lvgl\lv_misc/lv_txt.c **** {
 156:..\lvgl\lv_misc/lv_txt.c ****     if(txt == NULL) return 0;
 157:..\lvgl\lv_misc/lv_txt.c ****     if(font == NULL) return 0;
 158:..\lvgl\lv_misc/lv_txt.c **** 
 159:..\lvgl\lv_misc/lv_txt.c ****     if(flag & LV_TXT_FLAG_EXPAND) max_width = LV_COORD_MAX;
 160:..\lvgl\lv_misc/lv_txt.c **** 
 161:..\lvgl\lv_misc/lv_txt.c ****     uint32_t i = 0;
 162:..\lvgl\lv_misc/lv_txt.c ****     lv_coord_t cur_w = 0;
 163:..\lvgl\lv_misc/lv_txt.c ****     lv_coord_t w_at_last_break = 0;
 164:..\lvgl\lv_misc/lv_txt.c ****     uint32_t n_char_since_last_break = 0; /* Used count word length of long words */
 165:..\lvgl\lv_misc/lv_txt.c ****     uint32_t last_break = NO_BREAK_FOUND;
 166:..\lvgl\lv_misc/lv_txt.c ****     lv_txt_cmd_state_t cmd_state = LV_TXT_CMD_STATE_WAIT;
 167:..\lvgl\lv_misc/lv_txt.c ****     uint32_t letter = 0;
 168:..\lvgl\lv_misc/lv_txt.c **** 
 169:..\lvgl\lv_misc/lv_txt.c ****     while(txt[i] != '\0') {
 170:..\lvgl\lv_misc/lv_txt.c ****         lv_coord_t letter_width;
 171:..\lvgl\lv_misc/lv_txt.c ****         letter = lv_txt_encoded_next(txt, &i);
 172:..\lvgl\lv_misc/lv_txt.c **** 
 173:..\lvgl\lv_misc/lv_txt.c ****         /*Handle the recolor command*/
 174:..\lvgl\lv_misc/lv_txt.c ****         if((flag & LV_TXT_FLAG_RECOLOR) != 0) {
 175:..\lvgl\lv_misc/lv_txt.c ****             if(lv_txt_is_cmd(&cmd_state, letter) != false) {
 176:..\lvgl\lv_misc/lv_txt.c ****                 continue;   /*Skip the letter is it is part of a command*/
 177:..\lvgl\lv_misc/lv_txt.c ****             }
 178:..\lvgl\lv_misc/lv_txt.c ****         }
 179:..\lvgl\lv_misc/lv_txt.c **** 
 180:..\lvgl\lv_misc/lv_txt.c **** 
 181:..\lvgl\lv_misc/lv_txt.c ****         /*Check for new line chars*/
 182:..\lvgl\lv_misc/lv_txt.c ****         if(letter == '\n' || letter == '\r') {
 183:..\lvgl\lv_misc/lv_txt.c ****             uint32_t i_tmp = i;
 184:..\lvgl\lv_misc/lv_txt.c ****             uint32_t letter_next = lv_txt_encoded_next(txt, &i_tmp);
 185:..\lvgl\lv_misc/lv_txt.c ****             if(letter == '\r' &&  letter_next == '\n') i = i_tmp;
 186:..\lvgl\lv_misc/lv_txt.c **** 
 187:..\lvgl\lv_misc/lv_txt.c ****             return i;    /*Return with the first letter of the next line*/
 188:..\lvgl\lv_misc/lv_txt.c **** 
 189:..\lvgl\lv_misc/lv_txt.c ****         } else { /*Check the actual length*/
 190:..\lvgl\lv_misc/lv_txt.c ****             n_char_since_last_break++;
 191:..\lvgl\lv_misc/lv_txt.c ****             letter_width = lv_font_get_width(font, letter);
 192:..\lvgl\lv_misc/lv_txt.c ****             cur_w += letter_width; 
 193:..\lvgl\lv_misc/lv_txt.c **** 
 194:..\lvgl\lv_misc/lv_txt.c ****             /* Get the length of the current work and determine best place 
 195:..\lvgl\lv_misc/lv_txt.c ****              * to break the line. */
 196:..\lvgl\lv_misc/lv_txt.c ****             if(cur_w > max_width) {
 197:..\lvgl\lv_misc/lv_txt.c ****                 if( last_break != NO_BREAK_FOUND ) {
 198:..\lvgl\lv_misc/lv_txt.c ****                     /* Continue searching for next breakable character to see if the next word will
 199:..\lvgl\lv_misc/lv_txt.c ****                     uint32_t n_char_fit = n_char_since_last_break - 1;
 200:..\lvgl\lv_misc/lv_txt.c ****                     if(  n_char_since_last_break <= LV_TXT_LINE_BREAK_LONG_PRE_MIN_LEN ) {
 201:..\lvgl\lv_misc/lv_txt.c ****                         i = last_break;
 202:..\lvgl\lv_misc/lv_txt.c ****                     }
ARM GAS  C:\Users\d3bug\AppData\Local\Temp\ccfzCIuT.s 			page 5


 203:..\lvgl\lv_misc/lv_txt.c ****                     else {
 204:..\lvgl\lv_misc/lv_txt.c ****                         uint32_t i_tmp = i;
 205:..\lvgl\lv_misc/lv_txt.c ****                         cur_w -= w_at_last_break + letter_space; /*ignore the first letter_space af
 206:..\lvgl\lv_misc/lv_txt.c ****                         bool other = true;
 207:..\lvgl\lv_misc/lv_txt.c ****                         while(txt[i_tmp] != '\0') {
 208:..\lvgl\lv_misc/lv_txt.c ****                             letter = lv_txt_encoded_next(txt, &i_tmp);
 209:..\lvgl\lv_misc/lv_txt.c **** 
 210:..\lvgl\lv_misc/lv_txt.c ****                             /*Handle the recolor command*/
 211:..\lvgl\lv_misc/lv_txt.c ****                             if((flag & LV_TXT_FLAG_RECOLOR) != 0) {
 212:..\lvgl\lv_misc/lv_txt.c ****                                 if(lv_txt_is_cmd(&cmd_state, letter) != false) {
 213:..\lvgl\lv_misc/lv_txt.c ****                                     continue;   /*Skip the letter is it is part of a command*/
 214:..\lvgl\lv_misc/lv_txt.c ****                                 }
 215:..\lvgl\lv_misc/lv_txt.c ****                             }
 216:..\lvgl\lv_misc/lv_txt.c **** 
 217:..\lvgl\lv_misc/lv_txt.c ****                             /*Check for new line chars*/
 218:..\lvgl\lv_misc/lv_txt.c ****                             if(letter == '\n' || letter == '\r' || is_break_char(letter)) {
 219:..\lvgl\lv_misc/lv_txt.c ****                                 if(n_char_since_last_break >= LV_TXT_LINE_BREAK_LONG_LEN) {
 220:..\lvgl\lv_misc/lv_txt.c ****                                     /* Figure out the prettiest place to break */
 221:..\lvgl\lv_misc/lv_txt.c ****                                     uint32_t char_remain;
 222:..\lvgl\lv_misc/lv_txt.c ****                                     lv_txt_encoded_prev(txt, &i);
 223:..\lvgl\lv_misc/lv_txt.c ****                                     for(char_remain=n_char_since_last_break - n_char_fit;
 224:..\lvgl\lv_misc/lv_txt.c ****                                             char_remain < LV_TXT_LINE_BREAK_LONG_POST_MIN_LEN;
 225:..\lvgl\lv_misc/lv_txt.c ****                                             char_remain++) {
 226:..\lvgl\lv_misc/lv_txt.c ****                                         lv_txt_encoded_prev(txt, &i);
 227:..\lvgl\lv_misc/lv_txt.c ****                                     }
 228:..\lvgl\lv_misc/lv_txt.c ****                                 }
 229:..\lvgl\lv_misc/lv_txt.c ****                                 else{
 230:..\lvgl\lv_misc/lv_txt.c ****                                     i = last_break;
 231:..\lvgl\lv_misc/lv_txt.c ****                                 }
 232:..\lvgl\lv_misc/lv_txt.c ****                                 other = false;
 233:..\lvgl\lv_misc/lv_txt.c ****                                 break;
 234:..\lvgl\lv_misc/lv_txt.c ****                             } 
 235:..\lvgl\lv_misc/lv_txt.c ****                             n_char_since_last_break++;
 236:..\lvgl\lv_misc/lv_txt.c ****                             lv_coord_t letter_width2 = lv_font_get_width(font, letter);
 237:..\lvgl\lv_misc/lv_txt.c ****                             cur_w += letter_width2;
 238:..\lvgl\lv_misc/lv_txt.c ****                             if(cur_w > max_width) {
 239:..\lvgl\lv_misc/lv_txt.c ****                                 /* Current letter already exceeds, return previous */
 240:..\lvgl\lv_misc/lv_txt.c ****                                 lv_txt_encoded_prev(txt, &i);
 241:..\lvgl\lv_misc/lv_txt.c ****                                 other = false;
 242:..\lvgl\lv_misc/lv_txt.c ****                                 break;
 243:..\lvgl\lv_misc/lv_txt.c ****                             }
 244:..\lvgl\lv_misc/lv_txt.c ****                             if(letter_width2 > 0){
 245:..\lvgl\lv_misc/lv_txt.c ****                                 cur_w += letter_space;
 246:..\lvgl\lv_misc/lv_txt.c ****                             }
 247:..\lvgl\lv_misc/lv_txt.c ****                         }
 248:..\lvgl\lv_misc/lv_txt.c ****                         if( other ) {
 249:..\lvgl\lv_misc/lv_txt.c ****                             if(n_char_since_last_break >= LV_TXT_LINE_BREAK_LONG_LEN) {
 250:..\lvgl\lv_misc/lv_txt.c ****                                 /* Figure out the prettiest place to break */
 251:..\lvgl\lv_misc/lv_txt.c ****                                 uint32_t char_remain;
 252:..\lvgl\lv_misc/lv_txt.c ****                                 lv_txt_encoded_prev(txt, &i);
 253:..\lvgl\lv_misc/lv_txt.c ****                                 for(char_remain=n_char_since_last_break - n_char_fit;
 254:..\lvgl\lv_misc/lv_txt.c ****                                         char_remain < LV_TXT_LINE_BREAK_LONG_POST_MIN_LEN;
 255:..\lvgl\lv_misc/lv_txt.c ****                                         char_remain++){
 256:..\lvgl\lv_misc/lv_txt.c ****                                     lv_txt_encoded_prev(txt, &i);
 257:..\lvgl\lv_misc/lv_txt.c ****                                 }
 258:..\lvgl\lv_misc/lv_txt.c ****                             }
 259:..\lvgl\lv_misc/lv_txt.c ****                             else{
ARM GAS  C:\Users\d3bug\AppData\Local\Temp\ccfzCIuT.s 			page 6


 260:..\lvgl\lv_misc/lv_txt.c ****                                 i = last_break;
 261:..\lvgl\lv_misc/lv_txt.c ****                             }
 262:..\lvgl\lv_misc/lv_txt.c ****                         }
 263:..\lvgl\lv_misc/lv_txt.c ****                     }
 264:..\lvgl\lv_misc/lv_txt.c ****                 } else {
 265:..\lvgl\lv_misc/lv_txt.c ****                     /* Now this character is out of the area so it will be first character of the n
 266:..\lvgl\lv_misc/lv_txt.c ****                     /* But 'i' already points to the next character (because of lv_txt_utf8_next) s
 267:..\lvgl\lv_misc/lv_txt.c ****                     lv_txt_encoded_prev(txt, &i);
 268:..\lvgl\lv_misc/lv_txt.c ****                 }
 269:..\lvgl\lv_misc/lv_txt.c **** 
 270:..\lvgl\lv_misc/lv_txt.c ****                 /* Do not let to return without doing nothing.
 271:..\lvgl\lv_misc/lv_txt.c ****                  * Find at least one character (Avoid infinite loop )*/
 272:..\lvgl\lv_misc/lv_txt.c ****                 if(i == 0) lv_txt_encoded_next(txt, &i);
 273:..\lvgl\lv_misc/lv_txt.c **** 
 274:..\lvgl\lv_misc/lv_txt.c ****                 return i;
 275:..\lvgl\lv_misc/lv_txt.c ****             }
 276:..\lvgl\lv_misc/lv_txt.c ****             /*If this char still can fit to this line then check if
 277:..\lvgl\lv_misc/lv_txt.c ****              * txt can be broken here later */
 278:..\lvgl\lv_misc/lv_txt.c ****             else if(is_break_char(letter)) {
 279:..\lvgl\lv_misc/lv_txt.c ****                 last_break = i; /*Save the first char index  after break*/
 280:..\lvgl\lv_misc/lv_txt.c ****                 w_at_last_break = cur_w;
 281:..\lvgl\lv_misc/lv_txt.c ****                 if(letter_width > 0) {
 282:..\lvgl\lv_misc/lv_txt.c ****                     w_at_last_break += letter_space;
 283:..\lvgl\lv_misc/lv_txt.c ****                 }
 284:..\lvgl\lv_misc/lv_txt.c ****                 n_char_since_last_break = 0;
 285:..\lvgl\lv_misc/lv_txt.c ****             }
 286:..\lvgl\lv_misc/lv_txt.c ****         }
 287:..\lvgl\lv_misc/lv_txt.c **** 
 288:..\lvgl\lv_misc/lv_txt.c ****         if(letter_width > 0) {
 289:..\lvgl\lv_misc/lv_txt.c ****             cur_w += letter_space;
 290:..\lvgl\lv_misc/lv_txt.c ****         }
 291:..\lvgl\lv_misc/lv_txt.c ****     }
 292:..\lvgl\lv_misc/lv_txt.c **** 
 293:..\lvgl\lv_misc/lv_txt.c ****     return i;
 294:..\lvgl\lv_misc/lv_txt.c **** }
 295:..\lvgl\lv_misc/lv_txt.c **** 
 296:..\lvgl\lv_misc/lv_txt.c **** /**
 297:..\lvgl\lv_misc/lv_txt.c ****  * Give the length of a text with a given font
 298:..\lvgl\lv_misc/lv_txt.c ****  * @param txt a '\0' terminate string
 299:..\lvgl\lv_misc/lv_txt.c ****  * @param length length of 'txt' in byte count and not characters (Á is 1 character but 2 bytes in
 300:..\lvgl\lv_misc/lv_txt.c ****  * @param font pointer to a font
 301:..\lvgl\lv_misc/lv_txt.c ****  * @param letter_space letter space
 302:..\lvgl\lv_misc/lv_txt.c ****  * @param flags settings for the text from 'txt_flag_t' enum
 303:..\lvgl\lv_misc/lv_txt.c ****  * @return length of a char_num long text
 304:..\lvgl\lv_misc/lv_txt.c ****  */
 305:..\lvgl\lv_misc/lv_txt.c **** lv_coord_t lv_txt_get_width(const char * txt, uint16_t length,
 306:..\lvgl\lv_misc/lv_txt.c ****                             const lv_font_t * font, lv_coord_t letter_space, lv_txt_flag_t flag)
 307:..\lvgl\lv_misc/lv_txt.c **** {
 308:..\lvgl\lv_misc/lv_txt.c ****     if(txt == NULL) return 0;
 309:..\lvgl\lv_misc/lv_txt.c ****     if(font == NULL) return 0;
 310:..\lvgl\lv_misc/lv_txt.c **** 
 311:..\lvgl\lv_misc/lv_txt.c ****     uint32_t i = 0;
 312:..\lvgl\lv_misc/lv_txt.c ****     lv_coord_t width = 0;
 313:..\lvgl\lv_misc/lv_txt.c ****     lv_txt_cmd_state_t cmd_state = LV_TXT_CMD_STATE_WAIT;
 314:..\lvgl\lv_misc/lv_txt.c ****     uint32_t letter;
 315:..\lvgl\lv_misc/lv_txt.c **** 
 316:..\lvgl\lv_misc/lv_txt.c ****     if(length != 0) {
ARM GAS  C:\Users\d3bug\AppData\Local\Temp\ccfzCIuT.s 			page 7


 317:..\lvgl\lv_misc/lv_txt.c ****         while(i< length){
 318:..\lvgl\lv_misc/lv_txt.c ****             letter = lv_txt_encoded_next(txt, &i);
 319:..\lvgl\lv_misc/lv_txt.c ****             if((flag & LV_TXT_FLAG_RECOLOR) != 0) {
 320:..\lvgl\lv_misc/lv_txt.c ****                 if(lv_txt_is_cmd(&cmd_state, letter) != false) {
 321:..\lvgl\lv_misc/lv_txt.c ****                     continue;
 322:..\lvgl\lv_misc/lv_txt.c ****                 }
 323:..\lvgl\lv_misc/lv_txt.c ****             }
 324:..\lvgl\lv_misc/lv_txt.c **** 
 325:..\lvgl\lv_misc/lv_txt.c ****             lv_coord_t char_width = lv_font_get_width(font, letter);
 326:..\lvgl\lv_misc/lv_txt.c ****             if(char_width > 0){
 327:..\lvgl\lv_misc/lv_txt.c ****                 width += lv_font_get_width(font, letter);
 328:..\lvgl\lv_misc/lv_txt.c ****                 width += letter_space;
 329:..\lvgl\lv_misc/lv_txt.c ****             }
 330:..\lvgl\lv_misc/lv_txt.c ****         }
 331:..\lvgl\lv_misc/lv_txt.c **** 
 332:..\lvgl\lv_misc/lv_txt.c ****         if(width > 0) {
 333:..\lvgl\lv_misc/lv_txt.c ****             width -= letter_space;  /*Trim the last letter space. Important if the text is center a
 334:..\lvgl\lv_misc/lv_txt.c ****         }
 335:..\lvgl\lv_misc/lv_txt.c ****     }
 336:..\lvgl\lv_misc/lv_txt.c **** 
 337:..\lvgl\lv_misc/lv_txt.c ****     return width;
 338:..\lvgl\lv_misc/lv_txt.c **** }
 339:..\lvgl\lv_misc/lv_txt.c **** 
 340:..\lvgl\lv_misc/lv_txt.c **** /**
 341:..\lvgl\lv_misc/lv_txt.c ****  * Check next character in a string and decide if the character is part of the command or not
 342:..\lvgl\lv_misc/lv_txt.c ****  * @param state pointer to a txt_cmd_state_t variable which stores the current state of command pro
 343:..\lvgl\lv_misc/lv_txt.c ****  *             (Initied. to TXT_CMD_STATE_WAIT )
 344:..\lvgl\lv_misc/lv_txt.c ****  * @param c the current character
 345:..\lvgl\lv_misc/lv_txt.c ****  * @return true: the character is part of a command and should not be written,
 346:..\lvgl\lv_misc/lv_txt.c ****  *         false: the character should be written
 347:..\lvgl\lv_misc/lv_txt.c ****  */
 348:..\lvgl\lv_misc/lv_txt.c **** bool lv_txt_is_cmd(lv_txt_cmd_state_t * state, uint32_t c)
 349:..\lvgl\lv_misc/lv_txt.c **** {
 350:..\lvgl\lv_misc/lv_txt.c ****     bool ret = false;
 351:..\lvgl\lv_misc/lv_txt.c **** 
 352:..\lvgl\lv_misc/lv_txt.c ****     if(c == (uint32_t)LV_TXT_COLOR_CMD[0]) {
 353:..\lvgl\lv_misc/lv_txt.c ****         if(*state == LV_TXT_CMD_STATE_WAIT) { /*Start char*/
 354:..\lvgl\lv_misc/lv_txt.c ****             *state = LV_TXT_CMD_STATE_PAR;
 355:..\lvgl\lv_misc/lv_txt.c ****             ret = true;
 356:..\lvgl\lv_misc/lv_txt.c ****         } else if(*state == LV_TXT_CMD_STATE_PAR) { /*Other start char in parameter is escaped cmd.
 357:..\lvgl\lv_misc/lv_txt.c ****             *state = LV_TXT_CMD_STATE_WAIT;
 358:..\lvgl\lv_misc/lv_txt.c ****         } else if(*state == LV_TXT_CMD_STATE_IN) { /*Command end */
 359:..\lvgl\lv_misc/lv_txt.c ****             *state = LV_TXT_CMD_STATE_WAIT;
 360:..\lvgl\lv_misc/lv_txt.c ****             ret = true;
 361:..\lvgl\lv_misc/lv_txt.c ****         }
 362:..\lvgl\lv_misc/lv_txt.c ****     }
 363:..\lvgl\lv_misc/lv_txt.c **** 
 364:..\lvgl\lv_misc/lv_txt.c ****     /*Skip the color parameter and wait the space after it*/
 365:..\lvgl\lv_misc/lv_txt.c ****     if(*state == LV_TXT_CMD_STATE_PAR) {
 366:..\lvgl\lv_misc/lv_txt.c ****         if(c == ' ') {
 367:..\lvgl\lv_misc/lv_txt.c ****             *state = LV_TXT_CMD_STATE_IN; /*After the parameter the text is in the command*/
 368:..\lvgl\lv_misc/lv_txt.c ****         }
 369:..\lvgl\lv_misc/lv_txt.c ****         ret = true;
 370:..\lvgl\lv_misc/lv_txt.c ****     }
 371:..\lvgl\lv_misc/lv_txt.c **** 
 372:..\lvgl\lv_misc/lv_txt.c ****     return ret;
 373:..\lvgl\lv_misc/lv_txt.c **** }
ARM GAS  C:\Users\d3bug\AppData\Local\Temp\ccfzCIuT.s 			page 8


 374:..\lvgl\lv_misc/lv_txt.c **** 
 375:..\lvgl\lv_misc/lv_txt.c **** /**
 376:..\lvgl\lv_misc/lv_txt.c ****  * Insert a string into an other
 377:..\lvgl\lv_misc/lv_txt.c ****  * @param txt_buf the original text (must be big enough for the result text)
 378:..\lvgl\lv_misc/lv_txt.c ****  * @param pos position to insert. Expressed in character index and not byte index (Different in UTF
 379:..\lvgl\lv_misc/lv_txt.c ****  *            0: before the original text, 1: after the first char etc.
 380:..\lvgl\lv_misc/lv_txt.c ****  * @param ins_txt text to insert
 381:..\lvgl\lv_misc/lv_txt.c ****  */
 382:..\lvgl\lv_misc/lv_txt.c **** void lv_txt_ins(char * txt_buf, uint32_t pos, const char * ins_txt)
 383:..\lvgl\lv_misc/lv_txt.c **** {
 384:..\lvgl\lv_misc/lv_txt.c ****     uint32_t old_len = strlen(txt_buf);
 385:..\lvgl\lv_misc/lv_txt.c ****     uint32_t ins_len = strlen(ins_txt);
 386:..\lvgl\lv_misc/lv_txt.c ****     uint32_t new_len = ins_len + old_len;
 387:..\lvgl\lv_misc/lv_txt.c **** #if LV_TXT_UTF8 != 0
 388:..\lvgl\lv_misc/lv_txt.c ****     pos = lv_txt_encoded_get_byte_id(txt_buf, pos);   /*Convert to byte index instead of letter ind
 389:..\lvgl\lv_misc/lv_txt.c **** #endif
 390:..\lvgl\lv_misc/lv_txt.c ****     /*Copy the second part into the end to make place to text to insert*/
 391:..\lvgl\lv_misc/lv_txt.c ****     uint32_t i;
 392:..\lvgl\lv_misc/lv_txt.c ****     for(i = new_len; i >= pos + ins_len; i--) {
 393:..\lvgl\lv_misc/lv_txt.c ****         txt_buf[i] = txt_buf[i - ins_len];
 394:..\lvgl\lv_misc/lv_txt.c ****     }
 395:..\lvgl\lv_misc/lv_txt.c **** 
 396:..\lvgl\lv_misc/lv_txt.c ****     /* Copy the text into the new space*/
 397:..\lvgl\lv_misc/lv_txt.c ****     memcpy(txt_buf + pos, ins_txt, ins_len);
 398:..\lvgl\lv_misc/lv_txt.c **** }
 399:..\lvgl\lv_misc/lv_txt.c **** 
 400:..\lvgl\lv_misc/lv_txt.c **** /**
 401:..\lvgl\lv_misc/lv_txt.c ****  * Delete a part of a string
 402:..\lvgl\lv_misc/lv_txt.c ****  * @param txt string to modify
 403:..\lvgl\lv_misc/lv_txt.c ****  * @param pos position where to start the deleting (0: before the first char, 1: after the first ch
 404:..\lvgl\lv_misc/lv_txt.c ****  * @param len number of characters to delete
 405:..\lvgl\lv_misc/lv_txt.c ****  */
 406:..\lvgl\lv_misc/lv_txt.c **** void lv_txt_cut(char * txt, uint32_t pos, uint32_t len)
 407:..\lvgl\lv_misc/lv_txt.c **** {
 408:..\lvgl\lv_misc/lv_txt.c **** 
 409:..\lvgl\lv_misc/lv_txt.c ****     uint32_t old_len = strlen(txt);
 410:..\lvgl\lv_misc/lv_txt.c **** #if LV_TXT_UTF8 != 0
 411:..\lvgl\lv_misc/lv_txt.c ****     pos = lv_txt_encoded_get_byte_id(txt, pos);   /*Convert to byte index instead of letter index*/
 412:..\lvgl\lv_misc/lv_txt.c ****     len = lv_txt_encoded_get_byte_id(&txt[pos], len);
 413:..\lvgl\lv_misc/lv_txt.c **** #endif
 414:..\lvgl\lv_misc/lv_txt.c **** 
 415:..\lvgl\lv_misc/lv_txt.c ****     /*Copy the second part into the end to make place to text to insert*/
 416:..\lvgl\lv_misc/lv_txt.c ****     uint32_t i;
 417:..\lvgl\lv_misc/lv_txt.c ****     for(i = pos; i <= old_len - len; i++) {
 418:..\lvgl\lv_misc/lv_txt.c ****         txt[i] = txt[i + len];
 419:..\lvgl\lv_misc/lv_txt.c ****     }
 420:..\lvgl\lv_misc/lv_txt.c **** }
 421:..\lvgl\lv_misc/lv_txt.c **** 
 422:..\lvgl\lv_misc/lv_txt.c **** 
 423:..\lvgl\lv_misc/lv_txt.c **** /*******************************
 424:..\lvgl\lv_misc/lv_txt.c ****  *   UTF-8 ENCODER/DECOER
 425:..\lvgl\lv_misc/lv_txt.c ****  ******************************/
 426:..\lvgl\lv_misc/lv_txt.c **** 
 427:..\lvgl\lv_misc/lv_txt.c **** #if LV_TXT_UTF8
 428:..\lvgl\lv_misc/lv_txt.c **** 
 429:..\lvgl\lv_misc/lv_txt.c **** /**
 430:..\lvgl\lv_misc/lv_txt.c ****  * Give the size of an UTF-8 coded character
ARM GAS  C:\Users\d3bug\AppData\Local\Temp\ccfzCIuT.s 			page 9


 431:..\lvgl\lv_misc/lv_txt.c ****  * @param str pointer to a character in a string
 432:..\lvgl\lv_misc/lv_txt.c ****  * @return length of the UTF-8 character (1,2,3 or 4). O on invalid code
 433:..\lvgl\lv_misc/lv_txt.c ****  */
 434:..\lvgl\lv_misc/lv_txt.c **** static uint8_t lv_txt_utf8_size(const char * str)
 435:..\lvgl\lv_misc/lv_txt.c **** {
  27              		.loc 1 435 0
  28              		.cfi_startproc
  29              		@ args = 0, pretend = 0, frame = 0
  30              		@ frame_needed = 0, uses_anonymous_args = 0
  31              		@ link register save eliminated.
  32              	.LVL0:
 436:..\lvgl\lv_misc/lv_txt.c ****     if((str[0] & 0x80) == 0) return 1;
  33              		.loc 1 436 0
  34 0000 0378     		ldrb	r3, [r0]	@ zero_extendqisi2
  35 0002 13F0800F 		tst	r3, #128
  36 0006 0DD0     		beq	.L3
 437:..\lvgl\lv_misc/lv_txt.c ****     else if((str[0] & 0xE0) == 0xC0) return 2;
  37              		.loc 1 437 0
  38 0008 03F0E002 		and	r2, r3, #224
  39 000c C02A     		cmp	r2, #192
  40 000e 0BD0     		beq	.L4
 438:..\lvgl\lv_misc/lv_txt.c ****     else if((str[0] & 0xF0) == 0xE0) return 3;
  41              		.loc 1 438 0
  42 0010 03F0F002 		and	r2, r3, #240
  43 0014 E02A     		cmp	r2, #224
  44 0016 09D0     		beq	.L5
 439:..\lvgl\lv_misc/lv_txt.c ****     else if((str[0] & 0xF8) == 0xF0) return 4;
  45              		.loc 1 439 0
  46 0018 03F0F803 		and	r3, r3, #248
  47 001c F02B     		cmp	r3, #240
  48 001e 07D1     		bne	.L6
  49 0020 0420     		movs	r0, #4
  50              	.LVL1:
  51 0022 7047     		bx	lr
  52              	.LVL2:
  53              	.L3:
 436:..\lvgl\lv_misc/lv_txt.c ****     else if((str[0] & 0xE0) == 0xC0) return 2;
  54              		.loc 1 436 0
  55 0024 0120     		movs	r0, #1
  56              	.LVL3:
  57 0026 7047     		bx	lr
  58              	.LVL4:
  59              	.L4:
 437:..\lvgl\lv_misc/lv_txt.c ****     else if((str[0] & 0xF0) == 0xE0) return 3;
  60              		.loc 1 437 0
  61 0028 0220     		movs	r0, #2
  62              	.LVL5:
  63 002a 7047     		bx	lr
  64              	.LVL6:
  65              	.L5:
 438:..\lvgl\lv_misc/lv_txt.c ****     else if((str[0] & 0xF8) == 0xF0) return 4;
  66              		.loc 1 438 0
  67 002c 0320     		movs	r0, #3
  68              	.LVL7:
  69 002e 7047     		bx	lr
  70              	.LVL8:
  71              	.L6:
ARM GAS  C:\Users\d3bug\AppData\Local\Temp\ccfzCIuT.s 			page 10


 440:..\lvgl\lv_misc/lv_txt.c ****     return 0;
  72              		.loc 1 440 0
  73 0030 0020     		movs	r0, #0
  74              	.LVL9:
 441:..\lvgl\lv_misc/lv_txt.c **** }
  75              		.loc 1 441 0
  76 0032 7047     		bx	lr
  77              		.cfi_endproc
  78              	.LFE10:
  79              		.size	lv_txt_utf8_size, .-lv_txt_utf8_size
  80              		.section	.text.lv_txt_unicode_to_utf8,"ax",%progbits
  81              		.align	2
  82              		.thumb
  83              		.thumb_func
  84              		.type	lv_txt_unicode_to_utf8, %function
  85              	lv_txt_unicode_to_utf8:
  86              	.LFB11:
 442:..\lvgl\lv_misc/lv_txt.c **** 
 443:..\lvgl\lv_misc/lv_txt.c **** 
 444:..\lvgl\lv_misc/lv_txt.c **** /**
 445:..\lvgl\lv_misc/lv_txt.c ****  * Convert an Unicode letter to UTF-8.
 446:..\lvgl\lv_misc/lv_txt.c ****  * @param letter_uni an Unicode letter
 447:..\lvgl\lv_misc/lv_txt.c ****  * @return UTF-8 coded character in Little Endian to be compatible with C chars (e.g. 'Á', 'Ű')
 448:..\lvgl\lv_misc/lv_txt.c ****  */
 449:..\lvgl\lv_misc/lv_txt.c **** static uint32_t lv_txt_unicode_to_utf8(uint32_t letter_uni)
 450:..\lvgl\lv_misc/lv_txt.c **** {
  87              		.loc 1 450 0
  88              		.cfi_startproc
  89              		@ args = 0, pretend = 0, frame = 8
  90              		@ frame_needed = 0, uses_anonymous_args = 0
  91              		@ link register save eliminated.
  92              	.LVL10:
 451:..\lvgl\lv_misc/lv_txt.c ****     if(letter_uni < 128) return letter_uni;
  93              		.loc 1 451 0
  94 0000 7F28     		cmp	r0, #127
  95 0002 4BD9     		bls	.L15
 450:..\lvgl\lv_misc/lv_txt.c ****     if(letter_uni < 128) return letter_uni;
  96              		.loc 1 450 0
  97 0004 82B0     		sub	sp, sp, #8
  98              		.cfi_def_cfa_offset 8
 452:..\lvgl\lv_misc/lv_txt.c ****     uint8_t bytes[4];
 453:..\lvgl\lv_misc/lv_txt.c **** 
 454:..\lvgl\lv_misc/lv_txt.c ****     if(letter_uni < 0x0800) {
  99              		.loc 1 454 0
 100 0006 B0F5006F 		cmp	r0, #2048
 101 000a 11D2     		bcs	.L9
 455:..\lvgl\lv_misc/lv_txt.c ****         bytes[0] = ((letter_uni >> 6)  & 0x1F) | 0xC0;
 102              		.loc 1 455 0
 103 000c C0F38413 		ubfx	r3, r0, #6, #5
 104 0010 63F03F03 		orn	r3, r3, #63
 105 0014 8DF80430 		strb	r3, [sp, #4]
 456:..\lvgl\lv_misc/lv_txt.c ****         bytes[1] = ((letter_uni >> 0)  & 0x3F) | 0x80;
 106              		.loc 1 456 0
 107 0018 00F03F00 		and	r0, r0, #63
 108              	.LVL11:
 109 001c 60F07F00 		orn	r0, r0, #127
 110 0020 8DF80500 		strb	r0, [sp, #5]
ARM GAS  C:\Users\d3bug\AppData\Local\Temp\ccfzCIuT.s 			page 11


 457:..\lvgl\lv_misc/lv_txt.c ****         bytes[2] = 0;
 111              		.loc 1 457 0
 112 0024 0023     		movs	r3, #0
 113 0026 8DF80630 		strb	r3, [sp, #6]
 458:..\lvgl\lv_misc/lv_txt.c ****         bytes[3] = 0;
 114              		.loc 1 458 0
 115 002a 8DF80730 		strb	r3, [sp, #7]
 116 002e 33E0     		b	.L10
 117              	.LVL12:
 118              	.L9:
 459:..\lvgl\lv_misc/lv_txt.c ****     } else if(letter_uni < 0x010000) {
 119              		.loc 1 459 0
 120 0030 B0F5803F 		cmp	r0, #65536
 121 0034 15D2     		bcs	.L11
 460:..\lvgl\lv_misc/lv_txt.c ****         bytes[0] = ((letter_uni >> 12) & 0x0F) | 0xE0;
 122              		.loc 1 460 0
 123 0036 C0F30333 		ubfx	r3, r0, #12, #4
 124 003a 63F01F03 		orn	r3, r3, #31
 125 003e 8DF80430 		strb	r3, [sp, #4]
 461:..\lvgl\lv_misc/lv_txt.c ****         bytes[1] = ((letter_uni >> 6)  & 0x3F) | 0x80;
 126              		.loc 1 461 0
 127 0042 C0F38513 		ubfx	r3, r0, #6, #6
 128 0046 63F07F03 		orn	r3, r3, #127
 129 004a 8DF80530 		strb	r3, [sp, #5]
 462:..\lvgl\lv_misc/lv_txt.c ****         bytes[2] = ((letter_uni >> 0)  & 0x3F) | 0x80;
 130              		.loc 1 462 0
 131 004e 00F03F00 		and	r0, r0, #63
 132              	.LVL13:
 133 0052 60F07F00 		orn	r0, r0, #127
 134 0056 8DF80600 		strb	r0, [sp, #6]
 463:..\lvgl\lv_misc/lv_txt.c ****         bytes[3] = 0;
 135              		.loc 1 463 0
 136 005a 0023     		movs	r3, #0
 137 005c 8DF80730 		strb	r3, [sp, #7]
 138 0060 1AE0     		b	.L10
 139              	.LVL14:
 140              	.L11:
 464:..\lvgl\lv_misc/lv_txt.c ****     } else if(letter_uni < 0x110000) {
 141              		.loc 1 464 0
 142 0062 B0F5881F 		cmp	r0, #1114112
 143 0066 17D2     		bcs	.L10
 465:..\lvgl\lv_misc/lv_txt.c ****         bytes[0] = ((letter_uni >> 18) & 0x07) | 0xF0;
 144              		.loc 1 465 0
 145 0068 C0F38243 		ubfx	r3, r0, #18, #3
 146 006c 63F00F03 		orn	r3, r3, #15
 147 0070 8DF80430 		strb	r3, [sp, #4]
 466:..\lvgl\lv_misc/lv_txt.c ****         bytes[1] = ((letter_uni >> 12) & 0x3F) | 0x80;
 148              		.loc 1 466 0
 149 0074 C0F30533 		ubfx	r3, r0, #12, #6
 150 0078 63F07F03 		orn	r3, r3, #127
 151 007c 8DF80530 		strb	r3, [sp, #5]
 467:..\lvgl\lv_misc/lv_txt.c ****         bytes[2] = ((letter_uni >> 6)  & 0x3F) | 0x80;
 152              		.loc 1 467 0
 153 0080 C0F38513 		ubfx	r3, r0, #6, #6
 154 0084 63F07F03 		orn	r3, r3, #127
 155 0088 8DF80630 		strb	r3, [sp, #6]
 468:..\lvgl\lv_misc/lv_txt.c ****         bytes[3] = ((letter_uni >> 0)  & 0x3F) | 0x80;
ARM GAS  C:\Users\d3bug\AppData\Local\Temp\ccfzCIuT.s 			page 12


 156              		.loc 1 468 0
 157 008c 00F03F00 		and	r0, r0, #63
 158              	.LVL15:
 159 0090 60F07F00 		orn	r0, r0, #127
 160 0094 8DF80700 		strb	r0, [sp, #7]
 161              	.L10:
 162              	.LVL16:
 469:..\lvgl\lv_misc/lv_txt.c ****     }
 470:..\lvgl\lv_misc/lv_txt.c **** 
 471:..\lvgl\lv_misc/lv_txt.c ****     uint32_t * res_p = (uint32_t *)bytes;
 472:..\lvgl\lv_misc/lv_txt.c ****     return *res_p;
 163              		.loc 1 472 0
 164 0098 0198     		ldr	r0, [sp, #4]
 473:..\lvgl\lv_misc/lv_txt.c **** }
 165              		.loc 1 473 0
 166 009a 02B0     		add	sp, sp, #8
 167              		.cfi_def_cfa_offset 0
 168              	.LVL17:
 169              		@ sp needed
 170              	.LVL18:
 171              	.L15:
 172 009c 7047     		bx	lr
 173              		.cfi_endproc
 174              	.LFE11:
 175              		.size	lv_txt_unicode_to_utf8, .-lv_txt_unicode_to_utf8
 176 009e 00BF     		.section	.text.lv_txt_utf8_conv_wc,"ax",%progbits
 177              		.align	2
 178              		.thumb
 179              		.thumb_func
 180              		.type	lv_txt_utf8_conv_wc, %function
 181              	lv_txt_utf8_conv_wc:
 182              	.LFB12:
 474:..\lvgl\lv_misc/lv_txt.c **** 
 475:..\lvgl\lv_misc/lv_txt.c **** /**
 476:..\lvgl\lv_misc/lv_txt.c ****  * Convert a wide character, e.g. 'Á' little endian to be UTF-8 compatible
 477:..\lvgl\lv_misc/lv_txt.c ****  * @param c a wide character or a  Little endian number
 478:..\lvgl\lv_misc/lv_txt.c ****  * @return `c` in big endian
 479:..\lvgl\lv_misc/lv_txt.c ****  */
 480:..\lvgl\lv_misc/lv_txt.c **** static uint32_t lv_txt_utf8_conv_wc(uint32_t c)
 481:..\lvgl\lv_misc/lv_txt.c **** {
 183              		.loc 1 481 0
 184              		.cfi_startproc
 185              		@ args = 0, pretend = 0, frame = 16
 186              		@ frame_needed = 0, uses_anonymous_args = 0
 187              		@ link register save eliminated.
 188              	.LVL19:
 189 0000 84B0     		sub	sp, sp, #16
 190              		.cfi_def_cfa_offset 16
 482:..\lvgl\lv_misc/lv_txt.c ****     /*Swap the bytes (UTF-8 is big endian, but the MCUs are little endian)*/
 483:..\lvgl\lv_misc/lv_txt.c ****     if((c & 0x80) != 0) {
 191              		.loc 1 483 0
 192 0002 10F0800F 		tst	r0, #128
 193 0006 14D0     		beq	.L17
 194              	.LBB4:
 484:..\lvgl\lv_misc/lv_txt.c ****         uint32_t swapped;
 485:..\lvgl\lv_misc/lv_txt.c ****         uint8_t c8[4];
 486:..\lvgl\lv_misc/lv_txt.c ****         memcpy(c8, &c, 4);
ARM GAS  C:\Users\d3bug\AppData\Local\Temp\ccfzCIuT.s 			page 13


 487:..\lvgl\lv_misc/lv_txt.c ****         swapped = (c8[0] << 24) + (c8[1] << 16) + (c8[2] << 8) + (c8[3]);
 195              		.loc 1 487 0
 196 0008 C0F30723 		ubfx	r3, r0, #8, #8
 197 000c 1B04     		lsls	r3, r3, #16
 198 000e 03EB0063 		add	r3, r3, r0, lsl #24
 199 0012 C0F30742 		ubfx	r2, r0, #16, #8
 200 0016 03EB0223 		add	r3, r3, r2, lsl #8
 201 001a 03EB1060 		add	r0, r3, r0, lsr #24
 202              	.LVL20:
 488:..\lvgl\lv_misc/lv_txt.c ****         uint8_t i;
 489:..\lvgl\lv_misc/lv_txt.c ****         for(i = 0; i < 4; i++) {
 203              		.loc 1 489 0
 204 001e 0023     		movs	r3, #0
 205 0020 05E0     		b	.L18
 206              	.LVL21:
 207              	.L20:
 490:..\lvgl\lv_misc/lv_txt.c ****             if((swapped & 0xFF) == 0) swapped = (swapped >> 8); /*Ignore leading zeros (they were i
 208              		.loc 1 490 0
 209 0022 10F0FF0F 		tst	r0, #255
 210 0026 00D1     		bne	.L19
 211              		.loc 1 490 0 is_stmt 0 discriminator 1
 212 0028 000A     		lsrs	r0, r0, #8
 213              	.LVL22:
 214              	.L19:
 489:..\lvgl\lv_misc/lv_txt.c ****             if((swapped & 0xFF) == 0) swapped = (swapped >> 8); /*Ignore leading zeros (they were i
 215              		.loc 1 489 0 is_stmt 1 discriminator 2
 216 002a 0133     		adds	r3, r3, #1
 217              	.LVL23:
 218 002c DBB2     		uxtb	r3, r3
 219              	.LVL24:
 220              	.L18:
 489:..\lvgl\lv_misc/lv_txt.c ****             if((swapped & 0xFF) == 0) swapped = (swapped >> 8); /*Ignore leading zeros (they were i
 221              		.loc 1 489 0 is_stmt 0 discriminator 1
 222 002e 032B     		cmp	r3, #3
 223 0030 F7D9     		bls	.L20
 224              	.LVL25:
 225              	.L17:
 226              	.LBE4:
 491:..\lvgl\lv_misc/lv_txt.c ****         }
 492:..\lvgl\lv_misc/lv_txt.c ****         c = swapped;
 493:..\lvgl\lv_misc/lv_txt.c ****     }
 494:..\lvgl\lv_misc/lv_txt.c **** 
 495:..\lvgl\lv_misc/lv_txt.c ****     return c;
 496:..\lvgl\lv_misc/lv_txt.c **** }
 227              		.loc 1 496 0 is_stmt 1
 228 0032 04B0     		add	sp, sp, #16
 229              		.cfi_def_cfa_offset 0
 230              		@ sp needed
 231 0034 7047     		bx	lr
 232              		.cfi_endproc
 233              	.LFE12:
 234              		.size	lv_txt_utf8_conv_wc, .-lv_txt_utf8_conv_wc
 235 0036 00BF     		.section	.text.lv_txt_utf8_next,"ax",%progbits
 236              		.align	2
 237              		.thumb
 238              		.thumb_func
 239              		.type	lv_txt_utf8_next, %function
ARM GAS  C:\Users\d3bug\AppData\Local\Temp\ccfzCIuT.s 			page 14


 240              	lv_txt_utf8_next:
 241              	.LFB13:
 497:..\lvgl\lv_misc/lv_txt.c **** 
 498:..\lvgl\lv_misc/lv_txt.c **** /**
 499:..\lvgl\lv_misc/lv_txt.c ****  * Decode an UTF-8 character from a string.
 500:..\lvgl\lv_misc/lv_txt.c ****  * @param txt pointer to '\0' terminated string
 501:..\lvgl\lv_misc/lv_txt.c ****  * @param i start byte index in 'txt' where to start.
 502:..\lvgl\lv_misc/lv_txt.c ****  *          After call it will point to the next UTF-8 char in 'txt'.
 503:..\lvgl\lv_misc/lv_txt.c ****  *          NULL to use txt[0] as index
 504:..\lvgl\lv_misc/lv_txt.c ****  * @return the decoded Unicode character or 0 on invalid UTF-8 code
 505:..\lvgl\lv_misc/lv_txt.c ****  */
 506:..\lvgl\lv_misc/lv_txt.c **** static uint32_t lv_txt_utf8_next(const char * txt, uint32_t * i)
 507:..\lvgl\lv_misc/lv_txt.c **** {
 242              		.loc 1 507 0
 243              		.cfi_startproc
 244              		@ args = 0, pretend = 0, frame = 8
 245              		@ frame_needed = 0, uses_anonymous_args = 0
 246              		@ link register save eliminated.
 247              	.LVL26:
 248 0000 30B4     		push	{r4, r5}
 249              		.cfi_def_cfa_offset 8
 250              		.cfi_offset 4, -8
 251              		.cfi_offset 5, -4
 252 0002 82B0     		sub	sp, sp, #8
 253              		.cfi_def_cfa_offset 16
 254              	.LVL27:
 508:..\lvgl\lv_misc/lv_txt.c ****     /* Unicode to UTF-8
 509:..\lvgl\lv_misc/lv_txt.c ****      * 00000000 00000000 00000000 0xxxxxxx -> 0xxxxxxx
 510:..\lvgl\lv_misc/lv_txt.c ****      * 00000000 00000000 00000yyy yyxxxxxx -> 110yyyyy 10xxxxxx
 511:..\lvgl\lv_misc/lv_txt.c ****      * 00000000 00000000 zzzzyyyy yyxxxxxx -> 1110zzzz 10yyyyyy 10xxxxxx
 512:..\lvgl\lv_misc/lv_txt.c ****      * 00000000 000wwwzz zzzzyyyy yyxxxxxx -> 11110www 10zzzzzz 10yyyyyy 10xxxxxx
 513:..\lvgl\lv_misc/lv_txt.c ****      * */
 514:..\lvgl\lv_misc/lv_txt.c **** 
 515:..\lvgl\lv_misc/lv_txt.c ****     uint32_t result = 0;
 516:..\lvgl\lv_misc/lv_txt.c **** 
 517:..\lvgl\lv_misc/lv_txt.c ****     /*Dummy 'i' pointer is required*/
 518:..\lvgl\lv_misc/lv_txt.c ****     uint32_t i_tmp = 0;
 255              		.loc 1 518 0
 256 0004 0023     		movs	r3, #0
 257 0006 0193     		str	r3, [sp, #4]
 519:..\lvgl\lv_misc/lv_txt.c ****     if(i == NULL) i = &i_tmp;
 258              		.loc 1 519 0
 259 0008 0C46     		mov	r4, r1
 260 000a 01B9     		cbnz	r1, .L23
 261 000c 01AC     		add	r4, sp, #4
 262              	.L23:
 263              	.LVL28:
 520:..\lvgl\lv_misc/lv_txt.c **** 
 521:..\lvgl\lv_misc/lv_txt.c ****     /*Normal ASCII*/
 522:..\lvgl\lv_misc/lv_txt.c ****     if((txt[*i] & 0x80) == 0) {
 264              		.loc 1 522 0
 265 000e 2268     		ldr	r2, [r4]
 266 0010 835C     		ldrb	r3, [r0, r2]	@ zero_extendqisi2
 267 0012 13F0800F 		tst	r3, #128
 268 0016 03D1     		bne	.L24
 269              	.LVL29:
 523:..\lvgl\lv_misc/lv_txt.c ****         result = txt[*i];
ARM GAS  C:\Users\d3bug\AppData\Local\Temp\ccfzCIuT.s 			page 15


 524:..\lvgl\lv_misc/lv_txt.c ****         (*i)++;
 270              		.loc 1 524 0
 271 0018 0132     		adds	r2, r2, #1
 272 001a 2260     		str	r2, [r4]
 523:..\lvgl\lv_misc/lv_txt.c ****         result = txt[*i];
 273              		.loc 1 523 0
 274 001c 1846     		mov	r0, r3
 275              	.LVL30:
 276 001e 6AE0     		b	.L25
 277              	.LVL31:
 278              	.L24:
 525:..\lvgl\lv_misc/lv_txt.c ****     }
 526:..\lvgl\lv_misc/lv_txt.c ****     /*Real UTF-8 decode*/
 527:..\lvgl\lv_misc/lv_txt.c ****     else {
 528:..\lvgl\lv_misc/lv_txt.c ****         /*2 bytes UTF-8 code*/
 529:..\lvgl\lv_misc/lv_txt.c ****         if((txt[*i] & 0xE0) == 0xC0) {
 279              		.loc 1 529 0
 280 0020 03F0E001 		and	r1, r3, #224
 281 0024 C029     		cmp	r1, #192
 282 0026 0FD1     		bne	.L26
 530:..\lvgl\lv_misc/lv_txt.c ****             result = (uint32_t)(txt[*i] & 0x1F) << 6;
 283              		.loc 1 530 0
 284 0028 9B01     		lsls	r3, r3, #6
 285 002a 03F4F863 		and	r3, r3, #1984
 286              	.LVL32:
 531:..\lvgl\lv_misc/lv_txt.c ****             (*i)++;
 287              		.loc 1 531 0
 288 002e 0132     		adds	r2, r2, #1
 289 0030 2260     		str	r2, [r4]
 532:..\lvgl\lv_misc/lv_txt.c ****             if((txt[*i] & 0xC0) != 0x80) return 0;  /*Invalid UTF-8 code*/
 290              		.loc 1 532 0
 291 0032 805C     		ldrb	r0, [r0, r2]	@ zero_extendqisi2
 292              	.LVL33:
 293 0034 00F0C001 		and	r1, r0, #192
 294 0038 8029     		cmp	r1, #128
 295 003a 51D1     		bne	.L30
 533:..\lvgl\lv_misc/lv_txt.c ****             result += (txt[*i] & 0x3F);
 296              		.loc 1 533 0
 297 003c 00F03F00 		and	r0, r0, #63
 298              	.LVL34:
 534:..\lvgl\lv_misc/lv_txt.c ****             (*i)++;
 299              		.loc 1 534 0
 300 0040 0132     		adds	r2, r2, #1
 301 0042 2260     		str	r2, [r4]
 533:..\lvgl\lv_misc/lv_txt.c ****             result += (txt[*i] & 0x3F);
 302              		.loc 1 533 0
 303 0044 1844     		add	r0, r0, r3
 304              	.LVL35:
 305 0046 56E0     		b	.L25
 306              	.LVL36:
 307              	.L26:
 535:..\lvgl\lv_misc/lv_txt.c ****         }
 536:..\lvgl\lv_misc/lv_txt.c ****         /*3 bytes UTF-8 code*/
 537:..\lvgl\lv_misc/lv_txt.c ****         else if((txt[*i] & 0xF0) == 0xE0) {
 308              		.loc 1 537 0
 309 0048 03F0F001 		and	r1, r3, #240
 310 004c E029     		cmp	r1, #224
ARM GAS  C:\Users\d3bug\AppData\Local\Temp\ccfzCIuT.s 			page 16


 311 004e 19D1     		bne	.L27
 538:..\lvgl\lv_misc/lv_txt.c ****             result = (uint32_t)(txt[*i] & 0x0F) << 12;
 312              		.loc 1 538 0
 313 0050 1B03     		lsls	r3, r3, #12
 314 0052 9BB2     		uxth	r3, r3
 315              	.LVL37:
 539:..\lvgl\lv_misc/lv_txt.c ****             (*i)++;
 316              		.loc 1 539 0
 317 0054 0132     		adds	r2, r2, #1
 318 0056 2260     		str	r2, [r4]
 540:..\lvgl\lv_misc/lv_txt.c **** 
 541:..\lvgl\lv_misc/lv_txt.c ****             if((txt[*i] & 0xC0) != 0x80) return 0;  /*Invalid UTF-8 code*/
 319              		.loc 1 541 0
 320 0058 815C     		ldrb	r1, [r0, r2]	@ zero_extendqisi2
 321 005a 01F0C005 		and	r5, r1, #192
 322 005e 802D     		cmp	r5, #128
 323 0060 40D1     		bne	.L31
 542:..\lvgl\lv_misc/lv_txt.c ****             result += (uint32_t)(txt[*i] & 0x3F) << 6;
 324              		.loc 1 542 0
 325 0062 8901     		lsls	r1, r1, #6
 326 0064 01F47C61 		and	r1, r1, #4032
 327 0068 0B44     		add	r3, r3, r1
 328              	.LVL38:
 543:..\lvgl\lv_misc/lv_txt.c ****             (*i)++;
 329              		.loc 1 543 0
 330 006a 511C     		adds	r1, r2, #1
 331 006c 2160     		str	r1, [r4]
 544:..\lvgl\lv_misc/lv_txt.c **** 
 545:..\lvgl\lv_misc/lv_txt.c ****             if((txt[*i] & 0xC0) != 0x80) return 0;  /*Invalid UTF-8 code*/
 332              		.loc 1 545 0
 333 006e 425C     		ldrb	r2, [r0, r1]	@ zero_extendqisi2
 334 0070 02F0C000 		and	r0, r2, #192
 335              	.LVL39:
 336 0074 8028     		cmp	r0, #128
 337 0076 37D1     		bne	.L32
 546:..\lvgl\lv_misc/lv_txt.c ****             result += (txt[*i] & 0x3F);
 338              		.loc 1 546 0
 339 0078 02F03F02 		and	r2, r2, #63
 340              	.LVL40:
 547:..\lvgl\lv_misc/lv_txt.c ****             (*i)++;
 341              		.loc 1 547 0
 342 007c 0131     		adds	r1, r1, #1
 343 007e 2160     		str	r1, [r4]
 546:..\lvgl\lv_misc/lv_txt.c ****             result += (txt[*i] & 0x3F);
 344              		.loc 1 546 0
 345 0080 D018     		adds	r0, r2, r3
 346              	.LVL41:
 347 0082 38E0     		b	.L25
 348              	.LVL42:
 349              	.L27:
 548:..\lvgl\lv_misc/lv_txt.c ****         }
 549:..\lvgl\lv_misc/lv_txt.c ****         /*4 bytes UTF-8 code*/
 550:..\lvgl\lv_misc/lv_txt.c ****         else if((txt[*i] & 0xF8) == 0xF0) {
 350              		.loc 1 550 0
 351 0084 03F0F801 		and	r1, r3, #248
 352 0088 F029     		cmp	r1, #240
 353 008a 25D1     		bne	.L28
ARM GAS  C:\Users\d3bug\AppData\Local\Temp\ccfzCIuT.s 			page 17


 551:..\lvgl\lv_misc/lv_txt.c ****             result = (uint32_t)(txt[*i] & 0x07) << 18;
 354              		.loc 1 551 0
 355 008c 9B04     		lsls	r3, r3, #18
 356 008e 03F4E013 		and	r3, r3, #1835008
 357              	.LVL43:
 552:..\lvgl\lv_misc/lv_txt.c ****             (*i)++;
 358              		.loc 1 552 0
 359 0092 0132     		adds	r2, r2, #1
 360 0094 2260     		str	r2, [r4]
 553:..\lvgl\lv_misc/lv_txt.c **** 
 554:..\lvgl\lv_misc/lv_txt.c ****             if((txt[*i] & 0xC0) != 0x80) return 0;  /*Invalid UTF-8 code*/
 361              		.loc 1 554 0
 362 0096 815C     		ldrb	r1, [r0, r2]	@ zero_extendqisi2
 363 0098 01F0C005 		and	r5, r1, #192
 364 009c 802D     		cmp	r5, #128
 365 009e 25D1     		bne	.L33
 555:..\lvgl\lv_misc/lv_txt.c ****             result += (uint32_t)(txt[*i] & 0x3F) << 12;
 366              		.loc 1 555 0
 367 00a0 0903     		lsls	r1, r1, #12
 368 00a2 01F47C31 		and	r1, r1, #258048
 369 00a6 0B44     		add	r3, r3, r1
 370              	.LVL44:
 556:..\lvgl\lv_misc/lv_txt.c ****             (*i)++;
 371              		.loc 1 556 0
 372 00a8 511C     		adds	r1, r2, #1
 373 00aa 2160     		str	r1, [r4]
 557:..\lvgl\lv_misc/lv_txt.c **** 
 558:..\lvgl\lv_misc/lv_txt.c ****             if((txt[*i] & 0xC0) != 0x80) return 0;  /*Invalid UTF-8 code*/
 374              		.loc 1 558 0
 375 00ac 425C     		ldrb	r2, [r0, r1]	@ zero_extendqisi2
 376 00ae 02F0C005 		and	r5, r2, #192
 377 00b2 802D     		cmp	r5, #128
 378 00b4 1CD1     		bne	.L34
 559:..\lvgl\lv_misc/lv_txt.c ****             result += (uint32_t)(txt[*i] & 0x3F) << 6;
 379              		.loc 1 559 0
 380 00b6 9201     		lsls	r2, r2, #6
 381 00b8 02F47C62 		and	r2, r2, #4032
 382 00bc 1A44     		add	r2, r2, r3
 383              	.LVL45:
 560:..\lvgl\lv_misc/lv_txt.c ****             (*i)++;
 384              		.loc 1 560 0
 385 00be 0131     		adds	r1, r1, #1
 386 00c0 2160     		str	r1, [r4]
 561:..\lvgl\lv_misc/lv_txt.c **** 
 562:..\lvgl\lv_misc/lv_txt.c ****             if((txt[*i] & 0xC0) != 0x80) return 0;  /*Invalid UTF-8 code*/
 387              		.loc 1 562 0
 388 00c2 435C     		ldrb	r3, [r0, r1]	@ zero_extendqisi2
 389 00c4 03F0C000 		and	r0, r3, #192
 390              	.LVL46:
 391 00c8 8028     		cmp	r0, #128
 392 00ca 13D1     		bne	.L35
 563:..\lvgl\lv_misc/lv_txt.c ****             result += txt[*i] & 0x3F;
 393              		.loc 1 563 0
 394 00cc 03F03F03 		and	r3, r3, #63
 395              	.LVL47:
 564:..\lvgl\lv_misc/lv_txt.c ****             (*i)++;
 396              		.loc 1 564 0
ARM GAS  C:\Users\d3bug\AppData\Local\Temp\ccfzCIuT.s 			page 18


 397 00d0 0131     		adds	r1, r1, #1
 398 00d2 2160     		str	r1, [r4]
 563:..\lvgl\lv_misc/lv_txt.c ****             result += txt[*i] & 0x3F;
 399              		.loc 1 563 0
 400 00d4 9818     		adds	r0, r3, r2
 401              	.LVL48:
 402 00d6 0EE0     		b	.L25
 403              	.LVL49:
 404              	.L28:
 565:..\lvgl\lv_misc/lv_txt.c ****         } else {
 566:..\lvgl\lv_misc/lv_txt.c ****             (*i)++; /*Not UTF-8 char. Go the next.*/
 405              		.loc 1 566 0
 406 00d8 0132     		adds	r2, r2, #1
 407 00da 2260     		str	r2, [r4]
 515:..\lvgl\lv_misc/lv_txt.c **** 
 408              		.loc 1 515 0
 409 00dc 0020     		movs	r0, #0
 410              	.LVL50:
 411 00de 0AE0     		b	.L25
 412              	.LVL51:
 413              	.L30:
 532:..\lvgl\lv_misc/lv_txt.c ****             result += (txt[*i] & 0x3F);
 414              		.loc 1 532 0
 415 00e0 0020     		movs	r0, #0
 416 00e2 08E0     		b	.L25
 417              	.LVL52:
 418              	.L31:
 541:..\lvgl\lv_misc/lv_txt.c ****             result += (uint32_t)(txt[*i] & 0x3F) << 6;
 419              		.loc 1 541 0
 420 00e4 0020     		movs	r0, #0
 421              	.LVL53:
 422 00e6 06E0     		b	.L25
 423              	.L32:
 545:..\lvgl\lv_misc/lv_txt.c ****             result += (txt[*i] & 0x3F);
 424              		.loc 1 545 0
 425 00e8 0020     		movs	r0, #0
 426 00ea 04E0     		b	.L25
 427              	.LVL54:
 428              	.L33:
 554:..\lvgl\lv_misc/lv_txt.c ****             result += (uint32_t)(txt[*i] & 0x3F) << 12;
 429              		.loc 1 554 0
 430 00ec 0020     		movs	r0, #0
 431              	.LVL55:
 432 00ee 02E0     		b	.L25
 433              	.LVL56:
 434              	.L34:
 558:..\lvgl\lv_misc/lv_txt.c ****             result += (uint32_t)(txt[*i] & 0x3F) << 6;
 435              		.loc 1 558 0
 436 00f0 0020     		movs	r0, #0
 437              	.LVL57:
 438 00f2 00E0     		b	.L25
 439              	.LVL58:
 440              	.L35:
 562:..\lvgl\lv_misc/lv_txt.c ****             result += txt[*i] & 0x3F;
 441              		.loc 1 562 0
 442 00f4 0020     		movs	r0, #0
 443              	.LVL59:
ARM GAS  C:\Users\d3bug\AppData\Local\Temp\ccfzCIuT.s 			page 19


 444              	.L25:
 567:..\lvgl\lv_misc/lv_txt.c ****         }
 568:..\lvgl\lv_misc/lv_txt.c ****     }
 569:..\lvgl\lv_misc/lv_txt.c ****     return result;
 570:..\lvgl\lv_misc/lv_txt.c **** }
 445              		.loc 1 570 0
 446 00f6 02B0     		add	sp, sp, #8
 447              		.cfi_def_cfa_offset 8
 448              		@ sp needed
 449 00f8 30BC     		pop	{r4, r5}
 450              		.cfi_restore 5
 451              		.cfi_restore 4
 452              		.cfi_def_cfa_offset 0
 453              	.LVL60:
 454 00fa 7047     		bx	lr
 455              		.cfi_endproc
 456              	.LFE13:
 457              		.size	lv_txt_utf8_next, .-lv_txt_utf8_next
 458              		.section	.text.lv_txt_utf8_prev,"ax",%progbits
 459              		.align	2
 460              		.thumb
 461              		.thumb_func
 462              		.type	lv_txt_utf8_prev, %function
 463              	lv_txt_utf8_prev:
 464              	.LFB14:
 571:..\lvgl\lv_misc/lv_txt.c **** 
 572:..\lvgl\lv_misc/lv_txt.c **** /**
 573:..\lvgl\lv_misc/lv_txt.c ****  * Get previous UTF-8 character form a string.
 574:..\lvgl\lv_misc/lv_txt.c ****  * @param txt pointer to '\0' terminated string
 575:..\lvgl\lv_misc/lv_txt.c ****  * @param i start byte index in 'txt' where to start. After the call it will point to the previous 
 576:..\lvgl\lv_misc/lv_txt.c ****  * @return the decoded Unicode character or 0 on invalid UTF-8 code
 577:..\lvgl\lv_misc/lv_txt.c ****  */
 578:..\lvgl\lv_misc/lv_txt.c **** static uint32_t lv_txt_utf8_prev(const char * txt, uint32_t * i)
 579:..\lvgl\lv_misc/lv_txt.c **** {
 465              		.loc 1 579 0
 466              		.cfi_startproc
 467              		@ args = 0, pretend = 0, frame = 8
 468              		@ frame_needed = 0, uses_anonymous_args = 0
 469              	.LVL61:
 470 0000 70B5     		push	{r4, r5, r6, lr}
 471              		.cfi_def_cfa_offset 16
 472              		.cfi_offset 4, -16
 473              		.cfi_offset 5, -12
 474              		.cfi_offset 6, -8
 475              		.cfi_offset 14, -4
 476 0002 82B0     		sub	sp, sp, #8
 477              		.cfi_def_cfa_offset 24
 478 0004 0646     		mov	r6, r0
 479 0006 0D46     		mov	r5, r1
 480              	.LVL62:
 580:..\lvgl\lv_misc/lv_txt.c ****     uint8_t c_size;
 581:..\lvgl\lv_misc/lv_txt.c ****     uint8_t cnt = 0;
 582:..\lvgl\lv_misc/lv_txt.c **** 
 583:..\lvgl\lv_misc/lv_txt.c ****     /*Try to find a !0 long UTF-8 char by stepping one character back*/
 584:..\lvgl\lv_misc/lv_txt.c ****     (*i)--;
 481              		.loc 1 584 0
 482 0008 0B68     		ldr	r3, [r1]
ARM GAS  C:\Users\d3bug\AppData\Local\Temp\ccfzCIuT.s 			page 20


 483 000a 013B     		subs	r3, r3, #1
 484 000c 0B60     		str	r3, [r1]
 581:..\lvgl\lv_misc/lv_txt.c **** 
 485              		.loc 1 581 0
 486 000e 0024     		movs	r4, #0
 487              	.LVL63:
 488              	.L40:
 585:..\lvgl\lv_misc/lv_txt.c ****     do {
 586:..\lvgl\lv_misc/lv_txt.c ****         if(cnt >= 4) return 0;      /*No UTF-8 char found before the initial*/
 489              		.loc 1 586 0
 490 0010 032C     		cmp	r4, #3
 491 0012 17D8     		bhi	.L41
 587:..\lvgl\lv_misc/lv_txt.c **** 
 588:..\lvgl\lv_misc/lv_txt.c ****         c_size = lv_txt_encoded_size(&txt[*i]);
 492              		.loc 1 588 0
 493 0014 0D4B     		ldr	r3, .L43
 494 0016 1B68     		ldr	r3, [r3]
 495 0018 2868     		ldr	r0, [r5]
 496 001a 3044     		add	r0, r0, r6
 497 001c 9847     		blx	r3
 498              	.LVL64:
 589:..\lvgl\lv_misc/lv_txt.c ****         if(c_size == 0) {
 499              		.loc 1 589 0
 500 001e 0346     		mov	r3, r0
 501 0020 18B9     		cbnz	r0, .L39
 590:..\lvgl\lv_misc/lv_txt.c ****             if(*i != 0)(*i)--;
 502              		.loc 1 590 0
 503 0022 2868     		ldr	r0, [r5]
 504              	.LVL65:
 505 0024 78B1     		cbz	r0, .L38
 506              		.loc 1 590 0 is_stmt 0 discriminator 1
 507 0026 0138     		subs	r0, r0, #1
 508 0028 2860     		str	r0, [r5]
 509              	.L39:
 591:..\lvgl\lv_misc/lv_txt.c ****             else return 0;
 592:..\lvgl\lv_misc/lv_txt.c ****         }
 593:..\lvgl\lv_misc/lv_txt.c ****         cnt++;
 510              		.loc 1 593 0 is_stmt 1
 511 002a 0134     		adds	r4, r4, #1
 512              	.LVL66:
 513 002c E4B2     		uxtb	r4, r4
 514              	.LVL67:
 594:..\lvgl\lv_misc/lv_txt.c ****     } while(c_size == 0);
 515              		.loc 1 594 0
 516 002e 002B     		cmp	r3, #0
 517 0030 EED0     		beq	.L40
 595:..\lvgl\lv_misc/lv_txt.c **** 
 596:..\lvgl\lv_misc/lv_txt.c ****     uint32_t i_tmp = *i;
 518              		.loc 1 596 0
 519 0032 2B68     		ldr	r3, [r5]
 520 0034 02A9     		add	r1, sp, #8
 521 0036 41F8043D 		str	r3, [r1, #-4]!
 597:..\lvgl\lv_misc/lv_txt.c ****     uint32_t letter = lv_txt_encoded_next(txt, &i_tmp);   /*Character found, get it*/
 522              		.loc 1 597 0
 523 003a 044B     		ldr	r3, .L43
 524 003c 5B68     		ldr	r3, [r3, #4]
 525 003e 3046     		mov	r0, r6
ARM GAS  C:\Users\d3bug\AppData\Local\Temp\ccfzCIuT.s 			page 21


 526 0040 9847     		blx	r3
 527              	.LVL68:
 598:..\lvgl\lv_misc/lv_txt.c **** 
 599:..\lvgl\lv_misc/lv_txt.c ****     return letter;
 528              		.loc 1 599 0
 529 0042 00E0     		b	.L38
 530              	.L41:
 586:..\lvgl\lv_misc/lv_txt.c **** 
 531              		.loc 1 586 0
 532 0044 0020     		movs	r0, #0
 533              	.L38:
 600:..\lvgl\lv_misc/lv_txt.c **** 
 601:..\lvgl\lv_misc/lv_txt.c **** }
 534              		.loc 1 601 0
 535 0046 02B0     		add	sp, sp, #8
 536              		.cfi_def_cfa_offset 16
 537              		@ sp needed
 538 0048 70BD     		pop	{r4, r5, r6, pc}
 539              	.LVL69:
 540              	.L44:
 541 004a 00BF     		.align	2
 542              	.L43:
 543 004c 00000000 		.word	.LANCHOR0
 544              		.cfi_endproc
 545              	.LFE14:
 546              		.size	lv_txt_utf8_prev, .-lv_txt_utf8_prev
 547              		.section	.text.lv_txt_utf8_get_byte_id,"ax",%progbits
 548              		.align	2
 549              		.thumb
 550              		.thumb_func
 551              		.type	lv_txt_utf8_get_byte_id, %function
 552              	lv_txt_utf8_get_byte_id:
 553              	.LFB15:
 602:..\lvgl\lv_misc/lv_txt.c **** 
 603:..\lvgl\lv_misc/lv_txt.c **** /**
 604:..\lvgl\lv_misc/lv_txt.c ****  * Convert a character index (in an UTF-8 text) to byte index.
 605:..\lvgl\lv_misc/lv_txt.c ****  * E.g. in "AÁRT" index of 'R' is 2th char but start at byte 3 because 'Á' is 2 bytes long
 606:..\lvgl\lv_misc/lv_txt.c ****  * @param txt a '\0' terminated UTF-8 string
 607:..\lvgl\lv_misc/lv_txt.c ****  * @param utf8_id character index
 608:..\lvgl\lv_misc/lv_txt.c ****  * @return byte index of the 'utf8_id'th letter
 609:..\lvgl\lv_misc/lv_txt.c ****  */
 610:..\lvgl\lv_misc/lv_txt.c **** static uint32_t lv_txt_utf8_get_byte_id(const char * txt, uint32_t utf8_id)
 611:..\lvgl\lv_misc/lv_txt.c **** {
 554              		.loc 1 611 0
 555              		.cfi_startproc
 556              		@ args = 0, pretend = 0, frame = 0
 557              		@ frame_needed = 0, uses_anonymous_args = 0
 558              	.LVL70:
 559 0000 F8B5     		push	{r3, r4, r5, r6, r7, lr}
 560              		.cfi_def_cfa_offset 24
 561              		.cfi_offset 3, -24
 562              		.cfi_offset 4, -20
 563              		.cfi_offset 5, -16
 564              		.cfi_offset 6, -12
 565              		.cfi_offset 7, -8
 566              		.cfi_offset 14, -4
 567 0002 0746     		mov	r7, r0
ARM GAS  C:\Users\d3bug\AppData\Local\Temp\ccfzCIuT.s 			page 22


 568 0004 0E46     		mov	r6, r1
 569              	.LVL71:
 612:..\lvgl\lv_misc/lv_txt.c ****     uint32_t i;
 613:..\lvgl\lv_misc/lv_txt.c ****     uint32_t byte_cnt = 0;
 570              		.loc 1 613 0
 571 0006 0024     		movs	r4, #0
 614:..\lvgl\lv_misc/lv_txt.c ****     for(i = 0; i < utf8_id; i++) {
 572              		.loc 1 614 0
 573 0008 2546     		mov	r5, r4
 574 000a 05E0     		b	.L46
 575              	.LVL72:
 576              	.L47:
 615:..\lvgl\lv_misc/lv_txt.c ****         byte_cnt += lv_txt_encoded_size(&txt[byte_cnt]);
 577              		.loc 1 615 0 discriminator 3
 578 000c 044B     		ldr	r3, .L49
 579 000e 1B68     		ldr	r3, [r3]
 580 0010 3819     		adds	r0, r7, r4
 581 0012 9847     		blx	r3
 582              	.LVL73:
 583 0014 0444     		add	r4, r4, r0
 584              	.LVL74:
 614:..\lvgl\lv_misc/lv_txt.c ****     for(i = 0; i < utf8_id; i++) {
 585              		.loc 1 614 0 discriminator 3
 586 0016 0135     		adds	r5, r5, #1
 587              	.LVL75:
 588              	.L46:
 614:..\lvgl\lv_misc/lv_txt.c ****     for(i = 0; i < utf8_id; i++) {
 589              		.loc 1 614 0 is_stmt 0 discriminator 1
 590 0018 B542     		cmp	r5, r6
 591 001a F7D3     		bcc	.L47
 616:..\lvgl\lv_misc/lv_txt.c ****     }
 617:..\lvgl\lv_misc/lv_txt.c **** 
 618:..\lvgl\lv_misc/lv_txt.c ****     return byte_cnt;
 619:..\lvgl\lv_misc/lv_txt.c **** 
 620:..\lvgl\lv_misc/lv_txt.c **** }
 592              		.loc 1 620 0 is_stmt 1
 593 001c 2046     		mov	r0, r4
 594 001e F8BD     		pop	{r3, r4, r5, r6, r7, pc}
 595              	.LVL76:
 596              	.L50:
 597              		.align	2
 598              	.L49:
 599 0020 00000000 		.word	.LANCHOR0
 600              		.cfi_endproc
 601              	.LFE15:
 602              		.size	lv_txt_utf8_get_byte_id, .-lv_txt_utf8_get_byte_id
 603              		.section	.text.lv_txt_utf8_get_char_id,"ax",%progbits
 604              		.align	2
 605              		.thumb
 606              		.thumb_func
 607              		.type	lv_txt_utf8_get_char_id, %function
 608              	lv_txt_utf8_get_char_id:
 609              	.LFB16:
 621:..\lvgl\lv_misc/lv_txt.c **** 
 622:..\lvgl\lv_misc/lv_txt.c **** 
 623:..\lvgl\lv_misc/lv_txt.c **** /**
 624:..\lvgl\lv_misc/lv_txt.c ****  * Convert a byte index (in an UTF-8 text) to character index.
ARM GAS  C:\Users\d3bug\AppData\Local\Temp\ccfzCIuT.s 			page 23


 625:..\lvgl\lv_misc/lv_txt.c ****  * E.g. in "AÁRT" index of 'R' is 2th char but start at byte 3 because 'Á' is 2 bytes long
 626:..\lvgl\lv_misc/lv_txt.c ****  * @param txt a '\0' terminated UTF-8 string
 627:..\lvgl\lv_misc/lv_txt.c ****  * @param byte_id byte index
 628:..\lvgl\lv_misc/lv_txt.c ****  * @return character index of the letter at 'byte_id'th position
 629:..\lvgl\lv_misc/lv_txt.c ****  */
 630:..\lvgl\lv_misc/lv_txt.c **** static uint32_t lv_txt_utf8_get_char_id(const char * txt, uint32_t byte_id)
 631:..\lvgl\lv_misc/lv_txt.c **** {
 610              		.loc 1 631 0
 611              		.cfi_startproc
 612              		@ args = 0, pretend = 0, frame = 8
 613              		@ frame_needed = 0, uses_anonymous_args = 0
 614              	.LVL77:
 615 0000 70B5     		push	{r4, r5, r6, lr}
 616              		.cfi_def_cfa_offset 16
 617              		.cfi_offset 4, -16
 618              		.cfi_offset 5, -12
 619              		.cfi_offset 6, -8
 620              		.cfi_offset 14, -4
 621 0002 82B0     		sub	sp, sp, #8
 622              		.cfi_def_cfa_offset 24
 623 0004 0646     		mov	r6, r0
 624 0006 0D46     		mov	r5, r1
 632:..\lvgl\lv_misc/lv_txt.c ****     uint32_t i = 0;
 625              		.loc 1 632 0
 626 0008 0024     		movs	r4, #0
 627 000a 0194     		str	r4, [sp, #4]
 628              	.LVL78:
 633:..\lvgl\lv_misc/lv_txt.c ****     uint32_t char_cnt = 0;
 634:..\lvgl\lv_misc/lv_txt.c **** 
 635:..\lvgl\lv_misc/lv_txt.c ****     while(i < byte_id) {
 629              		.loc 1 635 0
 630 000c 05E0     		b	.L52
 631              	.LVL79:
 632              	.L53:
 636:..\lvgl\lv_misc/lv_txt.c ****         lv_txt_encoded_next(txt, &i); /*'i' points to the next letter so use the prev. value*/
 633              		.loc 1 636 0
 634 000e 064B     		ldr	r3, .L55
 635 0010 5B68     		ldr	r3, [r3, #4]
 636 0012 01A9     		add	r1, sp, #4
 637 0014 3046     		mov	r0, r6
 638 0016 9847     		blx	r3
 639              	.LVL80:
 637:..\lvgl\lv_misc/lv_txt.c ****         char_cnt++;
 640              		.loc 1 637 0
 641 0018 0134     		adds	r4, r4, #1
 642              	.LVL81:
 643              	.L52:
 635:..\lvgl\lv_misc/lv_txt.c ****         lv_txt_encoded_next(txt, &i); /*'i' points to the next letter so use the prev. value*/
 644              		.loc 1 635 0
 645 001a 019B     		ldr	r3, [sp, #4]
 646 001c AB42     		cmp	r3, r5
 647 001e F6D3     		bcc	.L53
 638:..\lvgl\lv_misc/lv_txt.c ****     }
 639:..\lvgl\lv_misc/lv_txt.c **** 
 640:..\lvgl\lv_misc/lv_txt.c ****     return char_cnt;
 641:..\lvgl\lv_misc/lv_txt.c **** }
 648              		.loc 1 641 0
ARM GAS  C:\Users\d3bug\AppData\Local\Temp\ccfzCIuT.s 			page 24


 649 0020 2046     		mov	r0, r4
 650 0022 02B0     		add	sp, sp, #8
 651              		.cfi_def_cfa_offset 16
 652              		@ sp needed
 653 0024 70BD     		pop	{r4, r5, r6, pc}
 654              	.LVL82:
 655              	.L56:
 656 0026 00BF     		.align	2
 657              	.L55:
 658 0028 00000000 		.word	.LANCHOR0
 659              		.cfi_endproc
 660              	.LFE16:
 661              		.size	lv_txt_utf8_get_char_id, .-lv_txt_utf8_get_char_id
 662              		.section	.text.lv_txt_utf8_get_length,"ax",%progbits
 663              		.align	2
 664              		.thumb
 665              		.thumb_func
 666              		.type	lv_txt_utf8_get_length, %function
 667              	lv_txt_utf8_get_length:
 668              	.LFB17:
 642:..\lvgl\lv_misc/lv_txt.c **** 
 643:..\lvgl\lv_misc/lv_txt.c **** /**
 644:..\lvgl\lv_misc/lv_txt.c ****  * Get the number of characters (and NOT bytes) in a string. Decode it with UTF-8 if enabled.
 645:..\lvgl\lv_misc/lv_txt.c ****  * E.g.: "ÁBC" is 3 characters (but 4 bytes)
 646:..\lvgl\lv_misc/lv_txt.c ****  * @param txt a '\0' terminated char string
 647:..\lvgl\lv_misc/lv_txt.c ****  * @return number of characters
 648:..\lvgl\lv_misc/lv_txt.c ****  */
 649:..\lvgl\lv_misc/lv_txt.c **** static uint32_t lv_txt_utf8_get_length(const char * txt)
 650:..\lvgl\lv_misc/lv_txt.c **** {
 669              		.loc 1 650 0
 670              		.cfi_startproc
 671              		@ args = 0, pretend = 0, frame = 8
 672              		@ frame_needed = 0, uses_anonymous_args = 0
 673              	.LVL83:
 674 0000 30B5     		push	{r4, r5, lr}
 675              		.cfi_def_cfa_offset 12
 676              		.cfi_offset 4, -12
 677              		.cfi_offset 5, -8
 678              		.cfi_offset 14, -4
 679 0002 83B0     		sub	sp, sp, #12
 680              		.cfi_def_cfa_offset 24
 681 0004 0546     		mov	r5, r0
 682              	.LVL84:
 651:..\lvgl\lv_misc/lv_txt.c **** #if LV_TXT_UTF8 == 0
 652:..\lvgl\lv_misc/lv_txt.c ****     return strlen(txt);
 653:..\lvgl\lv_misc/lv_txt.c **** #else
 654:..\lvgl\lv_misc/lv_txt.c ****     uint32_t len = 0;
 655:..\lvgl\lv_misc/lv_txt.c ****     uint32_t i = 0;
 683              		.loc 1 655 0
 684 0006 0024     		movs	r4, #0
 685 0008 0194     		str	r4, [sp, #4]
 656:..\lvgl\lv_misc/lv_txt.c **** 
 657:..\lvgl\lv_misc/lv_txt.c ****     while(txt[i] != '\0') {
 686              		.loc 1 657 0
 687 000a 05E0     		b	.L58
 688              	.LVL85:
 689              	.L59:
ARM GAS  C:\Users\d3bug\AppData\Local\Temp\ccfzCIuT.s 			page 25


 658:..\lvgl\lv_misc/lv_txt.c ****         lv_txt_encoded_next(txt, &i);
 690              		.loc 1 658 0
 691 000c 064B     		ldr	r3, .L61
 692 000e 5B68     		ldr	r3, [r3, #4]
 693 0010 01A9     		add	r1, sp, #4
 694 0012 2846     		mov	r0, r5
 695 0014 9847     		blx	r3
 696              	.LVL86:
 659:..\lvgl\lv_misc/lv_txt.c ****         len++;
 697              		.loc 1 659 0
 698 0016 0134     		adds	r4, r4, #1
 699              	.LVL87:
 700              	.L58:
 657:..\lvgl\lv_misc/lv_txt.c ****         lv_txt_encoded_next(txt, &i);
 701              		.loc 1 657 0
 702 0018 019B     		ldr	r3, [sp, #4]
 703 001a EB5C     		ldrb	r3, [r5, r3]	@ zero_extendqisi2
 704 001c 002B     		cmp	r3, #0
 705 001e F5D1     		bne	.L59
 660:..\lvgl\lv_misc/lv_txt.c ****     }
 661:..\lvgl\lv_misc/lv_txt.c **** 
 662:..\lvgl\lv_misc/lv_txt.c ****     return len;
 663:..\lvgl\lv_misc/lv_txt.c **** #endif
 664:..\lvgl\lv_misc/lv_txt.c **** }
 706              		.loc 1 664 0
 707 0020 2046     		mov	r0, r4
 708 0022 03B0     		add	sp, sp, #12
 709              		.cfi_def_cfa_offset 12
 710              		@ sp needed
 711 0024 30BD     		pop	{r4, r5, pc}
 712              	.LVL88:
 713              	.L62:
 714 0026 00BF     		.align	2
 715              	.L61:
 716 0028 00000000 		.word	.LANCHOR0
 717              		.cfi_endproc
 718              	.LFE17:
 719              		.size	lv_txt_utf8_get_length, .-lv_txt_utf8_get_length
 720              		.section	.text.is_break_char,"ax",%progbits
 721              		.align	2
 722              		.thumb
 723              		.thumb_func
 724              		.type	is_break_char, %function
 725              	is_break_char:
 726              	.LFB18:
 665:..\lvgl\lv_misc/lv_txt.c **** 
 666:..\lvgl\lv_misc/lv_txt.c **** #else
 667:..\lvgl\lv_misc/lv_txt.c **** /**
 668:..\lvgl\lv_misc/lv_txt.c ****  * Give the size of an UTF-8 coded character
 669:..\lvgl\lv_misc/lv_txt.c ****  * @param str pointer to a character in a string
 670:..\lvgl\lv_misc/lv_txt.c ****  * @return length of the UTF-8 character (1,2,3 or 4). O on invalid code
 671:..\lvgl\lv_misc/lv_txt.c ****  */
 672:..\lvgl\lv_misc/lv_txt.c **** static uint8_t lv_txt_ascii_size(const char * str)
 673:..\lvgl\lv_misc/lv_txt.c **** {
 674:..\lvgl\lv_misc/lv_txt.c ****     return 1;
 675:..\lvgl\lv_misc/lv_txt.c **** }
 676:..\lvgl\lv_misc/lv_txt.c **** 
ARM GAS  C:\Users\d3bug\AppData\Local\Temp\ccfzCIuT.s 			page 26


 677:..\lvgl\lv_misc/lv_txt.c **** 
 678:..\lvgl\lv_misc/lv_txt.c **** /**
 679:..\lvgl\lv_misc/lv_txt.c ****  * Convert an Unicode letter to UTF-8.
 680:..\lvgl\lv_misc/lv_txt.c ****  * @param letter_uni an Unicode letter
 681:..\lvgl\lv_misc/lv_txt.c ****  * @return UTF-8 coded character in Little Endian to be compatible with C chars (e.g. 'Á', 'Ű')
 682:..\lvgl\lv_misc/lv_txt.c ****  */
 683:..\lvgl\lv_misc/lv_txt.c **** static uint32_t lv_txt_unicode_to_ascii(uint32_t letter_uni)
 684:..\lvgl\lv_misc/lv_txt.c **** {
 685:..\lvgl\lv_misc/lv_txt.c ****     if(letter_uni < 128) return letter_uni;
 686:..\lvgl\lv_misc/lv_txt.c ****     else return ' ';
 687:..\lvgl\lv_misc/lv_txt.c **** }
 688:..\lvgl\lv_misc/lv_txt.c **** 
 689:..\lvgl\lv_misc/lv_txt.c **** /**
 690:..\lvgl\lv_misc/lv_txt.c ****  * Convert wide characters to ASCII, however wide characters in ASCII range (e.g. 'A') are ASCII co
 691:..\lvgl\lv_misc/lv_txt.c ****  * So this function does nothing just returns with `c`.
 692:..\lvgl\lv_misc/lv_txt.c ****  * @param c a character, e.g. 'A'
 693:..\lvgl\lv_misc/lv_txt.c ****  * @return same as `c`
 694:..\lvgl\lv_misc/lv_txt.c ****  */
 695:..\lvgl\lv_misc/lv_txt.c **** static uint32_t lv_txt_ascii_conv_wc(uint32_t c)
 696:..\lvgl\lv_misc/lv_txt.c **** {
 697:..\lvgl\lv_misc/lv_txt.c ****     return c;
 698:..\lvgl\lv_misc/lv_txt.c **** }
 699:..\lvgl\lv_misc/lv_txt.c **** 
 700:..\lvgl\lv_misc/lv_txt.c **** /**
 701:..\lvgl\lv_misc/lv_txt.c ****  * Decode an UTF-8 character from a string.
 702:..\lvgl\lv_misc/lv_txt.c ****  * @param txt pointer to '\0' terminated string
 703:..\lvgl\lv_misc/lv_txt.c ****  * @param i start byte index in 'txt' where to start.
 704:..\lvgl\lv_misc/lv_txt.c ****  *          After call it will point to the next UTF-8 char in 'txt'.
 705:..\lvgl\lv_misc/lv_txt.c ****  *          NULL to use txt[0] as index
 706:..\lvgl\lv_misc/lv_txt.c ****  * @return the decoded Unicode character or 0 on invalid UTF-8 code
 707:..\lvgl\lv_misc/lv_txt.c ****  */
 708:..\lvgl\lv_misc/lv_txt.c **** static uint32_t lv_txt_ascii_next(const char * txt, uint32_t * i)
 709:..\lvgl\lv_misc/lv_txt.c **** {
 710:..\lvgl\lv_misc/lv_txt.c ****     if(i == NULL) return txt[1];    /*Get the next char */
 711:..\lvgl\lv_misc/lv_txt.c **** 
 712:..\lvgl\lv_misc/lv_txt.c ****     uint8_t letter = txt[*i] ;
 713:..\lvgl\lv_misc/lv_txt.c ****     (*i)++;
 714:..\lvgl\lv_misc/lv_txt.c ****     return letter;
 715:..\lvgl\lv_misc/lv_txt.c **** }
 716:..\lvgl\lv_misc/lv_txt.c **** 
 717:..\lvgl\lv_misc/lv_txt.c **** /**
 718:..\lvgl\lv_misc/lv_txt.c ****  * Get previous UTF-8 character form a string.
 719:..\lvgl\lv_misc/lv_txt.c ****  * @param txt pointer to '\0' terminated string
 720:..\lvgl\lv_misc/lv_txt.c ****  * @param i start byte index in 'txt' where to start. After the call it will point to the previous 
 721:..\lvgl\lv_misc/lv_txt.c ****  * @return the decoded Unicode character or 0 on invalid UTF-8 code
 722:..\lvgl\lv_misc/lv_txt.c ****  */
 723:..\lvgl\lv_misc/lv_txt.c **** static uint32_t lv_txt_ascii_prev(const char * txt, uint32_t * i)
 724:..\lvgl\lv_misc/lv_txt.c **** {
 725:..\lvgl\lv_misc/lv_txt.c ****     if(i == NULL) return *(txt - 1);   /*Get the prev. char */
 726:..\lvgl\lv_misc/lv_txt.c **** 
 727:..\lvgl\lv_misc/lv_txt.c ****     (*i)--;
 728:..\lvgl\lv_misc/lv_txt.c ****     uint8_t letter = txt[*i] ;
 729:..\lvgl\lv_misc/lv_txt.c **** 
 730:..\lvgl\lv_misc/lv_txt.c ****     return letter;
 731:..\lvgl\lv_misc/lv_txt.c **** }
 732:..\lvgl\lv_misc/lv_txt.c **** 
 733:..\lvgl\lv_misc/lv_txt.c **** /**
ARM GAS  C:\Users\d3bug\AppData\Local\Temp\ccfzCIuT.s 			page 27


 734:..\lvgl\lv_misc/lv_txt.c ****  * Convert a character index (in an UTF-8 text) to byte index.
 735:..\lvgl\lv_misc/lv_txt.c ****  * E.g. in "AÁRT" index of 'R' is 2th char but start at byte 3 because 'Á' is 2 bytes long
 736:..\lvgl\lv_misc/lv_txt.c ****  * @param txt a '\0' terminated UTF-8 string
 737:..\lvgl\lv_misc/lv_txt.c ****  * @param utf8_id character index
 738:..\lvgl\lv_misc/lv_txt.c ****  * @return byte index of the 'utf8_id'th letter
 739:..\lvgl\lv_misc/lv_txt.c ****  */
 740:..\lvgl\lv_misc/lv_txt.c **** static uint32_t lv_txt_ascii_get_byte_id(const char * txt, uint32_t utf8_id)
 741:..\lvgl\lv_misc/lv_txt.c **** {
 742:..\lvgl\lv_misc/lv_txt.c ****     return utf8_id;     /*In Non encoded no difference*/
 743:..\lvgl\lv_misc/lv_txt.c **** }
 744:..\lvgl\lv_misc/lv_txt.c **** 
 745:..\lvgl\lv_misc/lv_txt.c **** 
 746:..\lvgl\lv_misc/lv_txt.c **** /**
 747:..\lvgl\lv_misc/lv_txt.c ****  * Convert a byte index (in an UTF-8 text) to character index.
 748:..\lvgl\lv_misc/lv_txt.c ****  * E.g. in "AÁRT" index of 'R' is 2th char but start at byte 3 because 'Á' is 2 bytes long
 749:..\lvgl\lv_misc/lv_txt.c ****  * @param txt a '\0' terminated UTF-8 string
 750:..\lvgl\lv_misc/lv_txt.c ****  * @param byte_id byte index
 751:..\lvgl\lv_misc/lv_txt.c ****  * @return character index of the letter at 'byte_id'th position
 752:..\lvgl\lv_misc/lv_txt.c ****  */
 753:..\lvgl\lv_misc/lv_txt.c **** static uint32_t lv_txt_ascii_get_char_id(const char * txt, uint32_t byte_id)
 754:..\lvgl\lv_misc/lv_txt.c **** {
 755:..\lvgl\lv_misc/lv_txt.c ****     return byte_id;     /*In Non encoded no difference*/
 756:..\lvgl\lv_misc/lv_txt.c **** }
 757:..\lvgl\lv_misc/lv_txt.c **** 
 758:..\lvgl\lv_misc/lv_txt.c **** /**
 759:..\lvgl\lv_misc/lv_txt.c ****  * Get the number of characters (and NOT bytes) in a string. Decode it with UTF-8 if enabled.
 760:..\lvgl\lv_misc/lv_txt.c ****  * E.g.: "ÁBC" is 3 characters (but 4 bytes)
 761:..\lvgl\lv_misc/lv_txt.c ****  * @param txt a '\0' terminated char string
 762:..\lvgl\lv_misc/lv_txt.c ****  * @return number of characters
 763:..\lvgl\lv_misc/lv_txt.c ****  */
 764:..\lvgl\lv_misc/lv_txt.c **** static uint32_t lv_txt_ascii_get_length(const char * txt)
 765:..\lvgl\lv_misc/lv_txt.c **** {
 766:..\lvgl\lv_misc/lv_txt.c ****     return strlen(txt);
 767:..\lvgl\lv_misc/lv_txt.c **** }
 768:..\lvgl\lv_misc/lv_txt.c **** #endif
 769:..\lvgl\lv_misc/lv_txt.c **** /**********************
 770:..\lvgl\lv_misc/lv_txt.c ****  *   STATIC FUNCTIONS
 771:..\lvgl\lv_misc/lv_txt.c ****  **********************/
 772:..\lvgl\lv_misc/lv_txt.c **** 
 773:..\lvgl\lv_misc/lv_txt.c **** /**
 774:..\lvgl\lv_misc/lv_txt.c ****  * Test if char is break char or not (a text can broken here or not)
 775:..\lvgl\lv_misc/lv_txt.c ****  * @param letter a letter
 776:..\lvgl\lv_misc/lv_txt.c ****  * @return false: 'letter' is not break char
 777:..\lvgl\lv_misc/lv_txt.c ****  */
 778:..\lvgl\lv_misc/lv_txt.c **** static bool is_break_char(uint32_t letter)
 779:..\lvgl\lv_misc/lv_txt.c **** {
 727              		.loc 1 779 0
 728              		.cfi_startproc
 729              		@ args = 0, pretend = 0, frame = 0
 730              		@ frame_needed = 0, uses_anonymous_args = 0
 731              		@ link register save eliminated.
 732              	.LVL89:
 780:..\lvgl\lv_misc/lv_txt.c ****     uint8_t i;
 781:..\lvgl\lv_misc/lv_txt.c ****     bool ret = false;
 782:..\lvgl\lv_misc/lv_txt.c **** 
 783:..\lvgl\lv_misc/lv_txt.c ****     /*Compare the letter to TXT_BREAK_CHARS*/
 784:..\lvgl\lv_misc/lv_txt.c ****     for(i = 0; LV_TXT_BREAK_CHARS[i] != '\0'; i++) {
ARM GAS  C:\Users\d3bug\AppData\Local\Temp\ccfzCIuT.s 			page 28


 733              		.loc 1 784 0
 734 0000 0023     		movs	r3, #0
 735 0002 03E0     		b	.L64
 736              	.LVL90:
 737              	.L66:
 785:..\lvgl\lv_misc/lv_txt.c ****         if(letter == (uint32_t)LV_TXT_BREAK_CHARS[i]) {
 738              		.loc 1 785 0
 739 0004 8242     		cmp	r2, r0
 740 0006 07D0     		beq	.L67
 784:..\lvgl\lv_misc/lv_txt.c ****         if(letter == (uint32_t)LV_TXT_BREAK_CHARS[i]) {
 741              		.loc 1 784 0 discriminator 2
 742 0008 0133     		adds	r3, r3, #1
 743              	.LVL91:
 744 000a DBB2     		uxtb	r3, r3
 745              	.LVL92:
 746              	.L64:
 784:..\lvgl\lv_misc/lv_txt.c ****         if(letter == (uint32_t)LV_TXT_BREAK_CHARS[i]) {
 747              		.loc 1 784 0 is_stmt 0 discriminator 1
 748 000c 034A     		ldr	r2, .L68
 749 000e D25C     		ldrb	r2, [r2, r3]	@ zero_extendqisi2
 750 0010 002A     		cmp	r2, #0
 751 0012 F7D1     		bne	.L66
 781:..\lvgl\lv_misc/lv_txt.c **** 
 752              		.loc 1 781 0 is_stmt 1
 753 0014 0020     		movs	r0, #0
 754              	.LVL93:
 755 0016 7047     		bx	lr
 756              	.LVL94:
 757              	.L67:
 786:..\lvgl\lv_misc/lv_txt.c ****             ret = true; /*If match then it is break char*/
 758              		.loc 1 786 0
 759 0018 0120     		movs	r0, #1
 760              	.LVL95:
 787:..\lvgl\lv_misc/lv_txt.c ****             break;
 788:..\lvgl\lv_misc/lv_txt.c ****         }
 789:..\lvgl\lv_misc/lv_txt.c ****     }
 790:..\lvgl\lv_misc/lv_txt.c **** 
 791:..\lvgl\lv_misc/lv_txt.c ****     return ret;
 792:..\lvgl\lv_misc/lv_txt.c **** }
 761              		.loc 1 792 0
 762 001a 7047     		bx	lr
 763              	.L69:
 764              		.align	2
 765              	.L68:
 766 001c 00000000 		.word	.LC0
 767              		.cfi_endproc
 768              	.LFE18:
 769              		.size	is_break_char, .-is_break_char
 770              		.section	.text.lv_txt_is_cmd,"ax",%progbits
 771              		.align	2
 772              		.global	lv_txt_is_cmd
 773              		.thumb
 774              		.thumb_func
 775              		.type	lv_txt_is_cmd, %function
 776              	lv_txt_is_cmd:
 777              	.LFB7:
 349:..\lvgl\lv_misc/lv_txt.c ****     bool ret = false;
ARM GAS  C:\Users\d3bug\AppData\Local\Temp\ccfzCIuT.s 			page 29


 778              		.loc 1 349 0
 779              		.cfi_startproc
 780              		@ args = 0, pretend = 0, frame = 0
 781              		@ frame_needed = 0, uses_anonymous_args = 0
 782              		@ link register save eliminated.
 783              	.LVL96:
 784 0000 0246     		mov	r2, r0
 785              	.LVL97:
 352:..\lvgl\lv_misc/lv_txt.c ****         if(*state == LV_TXT_CMD_STATE_WAIT) { /*Start char*/
 786              		.loc 1 352 0
 787 0002 2329     		cmp	r1, #35
 788 0004 11D1     		bne	.L75
 353:..\lvgl\lv_misc/lv_txt.c ****             *state = LV_TXT_CMD_STATE_PAR;
 789              		.loc 1 353 0
 790 0006 0378     		ldrb	r3, [r0]	@ zero_extendqisi2
 791 0008 1BB9     		cbnz	r3, .L72
 354:..\lvgl\lv_misc/lv_txt.c ****             ret = true;
 792              		.loc 1 354 0
 793 000a 0123     		movs	r3, #1
 794 000c 0370     		strb	r3, [r0]
 795              	.LVL98:
 355:..\lvgl\lv_misc/lv_txt.c ****         } else if(*state == LV_TXT_CMD_STATE_PAR) { /*Other start char in parameter is escaped cmd.
 796              		.loc 1 355 0
 797 000e 1846     		mov	r0, r3
 798              	.LVL99:
 799 0010 0EE0     		b	.L71
 800              	.LVL100:
 801              	.L72:
 356:..\lvgl\lv_misc/lv_txt.c ****             *state = LV_TXT_CMD_STATE_WAIT;
 802              		.loc 1 356 0
 803 0012 012B     		cmp	r3, #1
 804 0014 03D1     		bne	.L73
 357:..\lvgl\lv_misc/lv_txt.c ****         } else if(*state == LV_TXT_CMD_STATE_IN) { /*Command end */
 805              		.loc 1 357 0
 806 0016 0023     		movs	r3, #0
 807 0018 0370     		strb	r3, [r0]
 350:..\lvgl\lv_misc/lv_txt.c **** 
 808              		.loc 1 350 0
 809 001a 1846     		mov	r0, r3
 810              	.LVL101:
 811 001c 08E0     		b	.L71
 812              	.LVL102:
 813              	.L73:
 358:..\lvgl\lv_misc/lv_txt.c ****             *state = LV_TXT_CMD_STATE_WAIT;
 814              		.loc 1 358 0
 815 001e 022B     		cmp	r3, #2
 816 0020 05D1     		bne	.L76
 359:..\lvgl\lv_misc/lv_txt.c ****             ret = true;
 817              		.loc 1 359 0
 818 0022 0023     		movs	r3, #0
 819 0024 0370     		strb	r3, [r0]
 820              	.LVL103:
 360:..\lvgl\lv_misc/lv_txt.c ****         }
 821              		.loc 1 360 0
 822 0026 0120     		movs	r0, #1
 823              	.LVL104:
 824 0028 02E0     		b	.L71
ARM GAS  C:\Users\d3bug\AppData\Local\Temp\ccfzCIuT.s 			page 30


 825              	.LVL105:
 826              	.L75:
 350:..\lvgl\lv_misc/lv_txt.c **** 
 827              		.loc 1 350 0
 828 002a 0020     		movs	r0, #0
 829              	.LVL106:
 830 002c 00E0     		b	.L71
 831              	.LVL107:
 832              	.L76:
 833 002e 0020     		movs	r0, #0
 834              	.LVL108:
 835              	.L71:
 365:..\lvgl\lv_misc/lv_txt.c ****         if(c == ' ') {
 836              		.loc 1 365 0
 837 0030 1378     		ldrb	r3, [r2]	@ zero_extendqisi2
 838 0032 012B     		cmp	r3, #1
 839 0034 06D1     		bne	.L74
 366:..\lvgl\lv_misc/lv_txt.c ****             *state = LV_TXT_CMD_STATE_IN; /*After the parameter the text is in the command*/
 840              		.loc 1 366 0
 841 0036 2029     		cmp	r1, #32
 842 0038 03D1     		bne	.L77
 367:..\lvgl\lv_misc/lv_txt.c ****         }
 843              		.loc 1 367 0
 844 003a 0223     		movs	r3, #2
 845 003c 1370     		strb	r3, [r2]
 369:..\lvgl\lv_misc/lv_txt.c ****     }
 846              		.loc 1 369 0
 847 003e 0120     		movs	r0, #1
 848              	.LVL109:
 849 0040 7047     		bx	lr
 850              	.LVL110:
 851              	.L77:
 852 0042 0120     		movs	r0, #1
 853              	.LVL111:
 854              	.L74:
 373:..\lvgl\lv_misc/lv_txt.c **** 
 855              		.loc 1 373 0
 856 0044 7047     		bx	lr
 857              		.cfi_endproc
 858              	.LFE7:
 859              		.size	lv_txt_is_cmd, .-lv_txt_is_cmd
 860 0046 00BF     		.section	.text.lv_txt_get_next_line,"ax",%progbits
 861              		.align	2
 862              		.global	lv_txt_get_next_line
 863              		.thumb
 864              		.thumb_func
 865              		.type	lv_txt_get_next_line, %function
 866              	lv_txt_get_next_line:
 867              	.LFB5:
 155:..\lvgl\lv_misc/lv_txt.c ****     if(txt == NULL) return 0;
 868              		.loc 1 155 0
 869              		.cfi_startproc
 870              		@ args = 4, pretend = 0, frame = 40
 871              		@ frame_needed = 0, uses_anonymous_args = 0
 872              	.LVL112:
 873 0000 2DE9F04F 		push	{r4, r5, r6, r7, r8, r9, r10, fp, lr}
 874              		.cfi_def_cfa_offset 36
ARM GAS  C:\Users\d3bug\AppData\Local\Temp\ccfzCIuT.s 			page 31


 875              		.cfi_offset 4, -36
 876              		.cfi_offset 5, -32
 877              		.cfi_offset 6, -28
 878              		.cfi_offset 7, -24
 879              		.cfi_offset 8, -20
 880              		.cfi_offset 9, -16
 881              		.cfi_offset 10, -12
 882              		.cfi_offset 11, -8
 883              		.cfi_offset 14, -4
 884 0004 8BB0     		sub	sp, sp, #44
 885              		.cfi_def_cfa_offset 80
 886 0006 0291     		str	r1, [sp, #8]
 887 0008 0392     		str	r2, [sp, #12]
 888 000a 0193     		str	r3, [sp, #4]
 889 000c 9DF85080 		ldrb	r8, [sp, #80]	@ zero_extendqisi2
 156:..\lvgl\lv_misc/lv_txt.c ****     if(font == NULL) return 0;
 890              		.loc 1 156 0
 891 0010 0028     		cmp	r0, #0
 892 0012 00F0FA80 		beq	.L109
 893 0016 0746     		mov	r7, r0
 157:..\lvgl\lv_misc/lv_txt.c **** 
 894              		.loc 1 157 0
 895 0018 0029     		cmp	r1, #0
 896 001a 00F0F880 		beq	.L110
 159:..\lvgl\lv_misc/lv_txt.c **** 
 897              		.loc 1 159 0
 898 001e 18F0020F 		tst	r8, #2
 899 0022 02D0     		beq	.L80
 900 0024 43F6FF73 		movw	r3, #16383
 901              	.LVL113:
 902 0028 0193     		str	r3, [sp, #4]
 903              	.L80:
 904              	.LVL114:
 161:..\lvgl\lv_misc/lv_txt.c ****     lv_coord_t cur_w = 0;
 905              		.loc 1 161 0
 906 002a 0024     		movs	r4, #0
 907 002c 0994     		str	r4, [sp, #36]
 908              	.LVL115:
 166:..\lvgl\lv_misc/lv_txt.c ****     uint32_t letter = 0;
 909              		.loc 1 166 0
 910 002e 8DF82340 		strb	r4, [sp, #35]
 911              	.LVL116:
 165:..\lvgl\lv_misc/lv_txt.c ****     lv_txt_cmd_state_t cmd_state = LV_TXT_CMD_STATE_WAIT;
 912              		.loc 1 165 0
 913 0032 4FF0FF33 		mov	r3, #-1
 914 0036 0493     		str	r3, [sp, #16]
 164:..\lvgl\lv_misc/lv_txt.c ****     uint32_t last_break = NO_BREAK_FOUND;
 915              		.loc 1 164 0
 916 0038 A246     		mov	r10, r4
 163:..\lvgl\lv_misc/lv_txt.c ****     uint32_t n_char_since_last_break = 0; /* Used count word length of long words */
 917              		.loc 1 163 0
 918 003a 0594     		str	r4, [sp, #20]
 169:..\lvgl\lv_misc/lv_txt.c ****         lv_coord_t letter_width;
 919              		.loc 1 169 0
 920 003c DEE0     		b	.L81
 921              	.LVL117:
 922              	.L108:
ARM GAS  C:\Users\d3bug\AppData\Local\Temp\ccfzCIuT.s 			page 32


 923              	.LBB5:
 171:..\lvgl\lv_misc/lv_txt.c **** 
 924              		.loc 1 171 0
 925 003e 764B     		ldr	r3, .L115
 926 0040 5B68     		ldr	r3, [r3, #4]
 927 0042 09A9     		add	r1, sp, #36
 928 0044 3846     		mov	r0, r7
 929 0046 9847     		blx	r3
 930              	.LVL118:
 931 0048 0646     		mov	r6, r0
 932              	.LVL119:
 174:..\lvgl\lv_misc/lv_txt.c ****             if(lv_txt_is_cmd(&cmd_state, letter) != false) {
 933              		.loc 1 174 0
 934 004a 18F0010B 		ands	fp, r8, #1
 935 004e 07D0     		beq	.L82
 175:..\lvgl\lv_misc/lv_txt.c ****                 continue;   /*Skip the letter is it is part of a command*/
 936              		.loc 1 175 0
 937 0050 0146     		mov	r1, r0
 938 0052 0DF12300 		add	r0, sp, #35
 939              	.LVL120:
 940 0056 FFF7FEFF 		bl	lv_txt_is_cmd
 941              	.LVL121:
 942 005a 0028     		cmp	r0, #0
 943 005c 40F0CE80 		bne	.L81
 944              	.L82:
 182:..\lvgl\lv_misc/lv_txt.c ****             uint32_t i_tmp = i;
 945              		.loc 1 182 0
 946 0060 0A2E     		cmp	r6, #10
 947 0062 01D0     		beq	.L84
 182:..\lvgl\lv_misc/lv_txt.c ****             uint32_t i_tmp = i;
 948              		.loc 1 182 0 is_stmt 0 discriminator 1
 949 0064 0D2E     		cmp	r6, #13
 950 0066 10D1     		bne	.L85
 951              	.L84:
 952              	.LBB6:
 183:..\lvgl\lv_misc/lv_txt.c ****             uint32_t letter_next = lv_txt_encoded_next(txt, &i_tmp);
 953              		.loc 1 183 0 is_stmt 1
 954 0068 0AA9     		add	r1, sp, #40
 955 006a 099B     		ldr	r3, [sp, #36]
 956 006c 41F80C3D 		str	r3, [r1, #-12]!
 184:..\lvgl\lv_misc/lv_txt.c ****             if(letter == '\r' &&  letter_next == '\n') i = i_tmp;
 957              		.loc 1 184 0
 958 0070 694B     		ldr	r3, .L115
 959 0072 5B68     		ldr	r3, [r3, #4]
 960 0074 3846     		mov	r0, r7
 961 0076 9847     		blx	r3
 962              	.LVL122:
 185:..\lvgl\lv_misc/lv_txt.c **** 
 963              		.loc 1 185 0
 964 0078 0D2E     		cmp	r6, #13
 965 007a 03D1     		bne	.L86
 185:..\lvgl\lv_misc/lv_txt.c **** 
 966              		.loc 1 185 0 is_stmt 0 discriminator 1
 967 007c 0A28     		cmp	r0, #10
 968 007e 01D1     		bne	.L86
 185:..\lvgl\lv_misc/lv_txt.c **** 
 969              		.loc 1 185 0 discriminator 2
ARM GAS  C:\Users\d3bug\AppData\Local\Temp\ccfzCIuT.s 			page 33


 970 0080 079B     		ldr	r3, [sp, #28]
 971 0082 0993     		str	r3, [sp, #36]
 972              	.L86:
 187:..\lvgl\lv_misc/lv_txt.c **** 
 973              		.loc 1 187 0 is_stmt 1
 974 0084 BDF82400 		ldrh	r0, [sp, #36]
 975              	.LVL123:
 976 0088 C2E0     		b	.L79
 977              	.L85:
 978              	.LBE6:
 190:..\lvgl\lv_misc/lv_txt.c ****             letter_width = lv_font_get_width(font, letter);
 979              		.loc 1 190 0
 980 008a 0AF10103 		add	r3, r10, #1
 981 008e 0093     		str	r3, [sp]
 982              	.LVL124:
 191:..\lvgl\lv_misc/lv_txt.c ****             cur_w += letter_width; 
 983              		.loc 1 191 0
 984 0090 3146     		mov	r1, r6
 985 0092 0298     		ldr	r0, [sp, #8]
 986 0094 FFF7FEFF 		bl	lv_font_get_width
 987              	.LVL125:
 988 0098 0FFA80F9 		sxth	r9, r0
 989              	.LVL126:
 192:..\lvgl\lv_misc/lv_txt.c **** 
 990              		.loc 1 192 0
 991 009c 2518     		adds	r5, r4, r0
 992 009e ADB2     		uxth	r5, r5
 993 00a0 2CB2     		sxth	r4, r5
 994              	.LVL127:
 196:..\lvgl\lv_misc/lv_txt.c ****                 if( last_break != NO_BREAK_FOUND ) {
 995              		.loc 1 196 0
 996 00a2 019B     		ldr	r3, [sp, #4]
 997 00a4 A342     		cmp	r3, r4
 998 00a6 80F28D80 		bge	.L87
 197:..\lvgl\lv_misc/lv_txt.c ****                     /* Continue searching for next breakable character to see if the next word will
 999              		.loc 1 197 0
 1000 00aa 049A     		ldr	r2, [sp, #16]
 1001 00ac B2F1FF3F 		cmp	r2, #-1
 1002 00b0 79D0     		beq	.L88
 1003              	.LVL128:
 1004              	.LBB7:
 200:..\lvgl\lv_misc/lv_txt.c ****                         i = last_break;
 1005              		.loc 1 200 0
 1006 00b2 009B     		ldr	r3, [sp]
 1007 00b4 032B     		cmp	r3, #3
 1008 00b6 01D8     		bhi	.L89
 201:..\lvgl\lv_misc/lv_txt.c ****                     }
 1009              		.loc 1 201 0
 1010 00b8 0992     		str	r2, [sp, #36]
 1011 00ba 79E0     		b	.L90
 1012              	.L89:
 1013              	.LBB8:
 204:..\lvgl\lv_misc/lv_txt.c ****                         cur_w -= w_at_last_break + letter_space; /*ignore the first letter_space af
 1014              		.loc 1 204 0
 1015 00bc 099B     		ldr	r3, [sp, #36]
 1016 00be 0793     		str	r3, [sp, #28]
 205:..\lvgl\lv_misc/lv_txt.c ****                         bool other = true;
ARM GAS  C:\Users\d3bug\AppData\Local\Temp\ccfzCIuT.s 			page 34


 1017              		.loc 1 205 0
 1018 00c0 BDF80C60 		ldrh	r6, [sp, #12]
 1019              	.LVL129:
 1020 00c4 059B     		ldr	r3, [sp, #20]
 1021 00c6 3344     		add	r3, r3, r6
 1022 00c8 EC1A     		subs	r4, r5, r3
 1023              	.LVL130:
 1024 00ca 24B2     		sxth	r4, r4
 1025              	.LVL131:
 1026 00cc 009D     		ldr	r5, [sp]
 207:..\lvgl\lv_misc/lv_txt.c ****                             letter = lv_txt_encoded_next(txt, &i_tmp);
 1027              		.loc 1 207 0
 1028 00ce 4BE0     		b	.L91
 1029              	.LVL132:
 1030              	.L101:
 1031              	.LBB9:
 208:..\lvgl\lv_misc/lv_txt.c **** 
 1032              		.loc 1 208 0
 1033 00d0 514B     		ldr	r3, .L115
 1034 00d2 5B68     		ldr	r3, [r3, #4]
 1035 00d4 07A9     		add	r1, sp, #28
 1036 00d6 3846     		mov	r0, r7
 1037 00d8 9847     		blx	r3
 1038              	.LVL133:
 1039 00da 8046     		mov	r8, r0
 1040              	.LVL134:
 211:..\lvgl\lv_misc/lv_txt.c ****                                 if(lv_txt_is_cmd(&cmd_state, letter) != false) {
 1041              		.loc 1 211 0
 1042 00dc BBF1000F 		cmp	fp, #0
 1043 00e0 06D0     		beq	.L92
 212:..\lvgl\lv_misc/lv_txt.c ****                                     continue;   /*Skip the letter is it is part of a command*/
 1044              		.loc 1 212 0
 1045 00e2 0146     		mov	r1, r0
 1046 00e4 0DF12300 		add	r0, sp, #35
 1047              	.LVL135:
 1048 00e8 FFF7FEFF 		bl	lv_txt_is_cmd
 1049              	.LVL136:
 1050 00ec 0028     		cmp	r0, #0
 1051 00ee 3BD1     		bne	.L91
 1052              	.L92:
 218:..\lvgl\lv_misc/lv_txt.c ****                                 if(n_char_since_last_break >= LV_TXT_LINE_BREAK_LONG_LEN) {
 1053              		.loc 1 218 0
 1054 00f0 B8F10A0F 		cmp	r8, #10
 1055 00f4 06D0     		beq	.L94
 218:..\lvgl\lv_misc/lv_txt.c ****                                 if(n_char_since_last_break >= LV_TXT_LINE_BREAK_LONG_LEN) {
 1056              		.loc 1 218 0 is_stmt 0 discriminator 1
 1057 00f6 B8F10D0F 		cmp	r8, #13
 1058 00fa 03D0     		beq	.L94
 218:..\lvgl\lv_misc/lv_txt.c ****                                 if(n_char_since_last_break >= LV_TXT_LINE_BREAK_LONG_LEN) {
 1059              		.loc 1 218 0 discriminator 2
 1060 00fc 4046     		mov	r0, r8
 1061 00fe FFF7FEFF 		bl	is_break_char
 1062              	.LVL137:
 1063 0102 C8B1     		cbz	r0, .L95
 1064              	.L94:
 1065 0104 0095     		str	r5, [sp]
 219:..\lvgl\lv_misc/lv_txt.c ****                                     /* Figure out the prettiest place to break */
ARM GAS  C:\Users\d3bug\AppData\Local\Temp\ccfzCIuT.s 			page 35


 1066              		.loc 1 219 0 is_stmt 1
 1067 0106 0B2D     		cmp	r5, #11
 1068 0108 12D9     		bls	.L96
 1069              	.LBB10:
 222:..\lvgl\lv_misc/lv_txt.c ****                                     for(char_remain=n_char_since_last_break - n_char_fit;
 1070              		.loc 1 222 0
 1071 010a 434B     		ldr	r3, .L115
 1072 010c 9B68     		ldr	r3, [r3, #8]
 1073 010e 09A9     		add	r1, sp, #36
 1074 0110 3846     		mov	r0, r7
 1075 0112 9847     		blx	r3
 1076              	.LVL138:
 223:..\lvgl\lv_misc/lv_txt.c ****                                             char_remain < LV_TXT_LINE_BREAK_LONG_POST_MIN_LEN;
 1077              		.loc 1 223 0
 1078 0114 009B     		ldr	r3, [sp]
 1079 0116 CAEB0304 		rsb	r4, r10, r3
 1080              	.LVL139:
 1081 011a 05E0     		b	.L97
 1082              	.L98:
 226:..\lvgl\lv_misc/lv_txt.c ****                                     }
 1083              		.loc 1 226 0
 1084 011c 3E4B     		ldr	r3, .L115
 1085 011e 9B68     		ldr	r3, [r3, #8]
 1086 0120 09A9     		add	r1, sp, #36
 1087 0122 3846     		mov	r0, r7
 1088 0124 9847     		blx	r3
 1089              	.LVL140:
 225:..\lvgl\lv_misc/lv_txt.c ****                                         lv_txt_encoded_prev(txt, &i);
 1090              		.loc 1 225 0
 1091 0126 0134     		adds	r4, r4, #1
 1092              	.LVL141:
 1093              	.L97:
 223:..\lvgl\lv_misc/lv_txt.c ****                                             char_remain < LV_TXT_LINE_BREAK_LONG_POST_MIN_LEN;
 1094              		.loc 1 223 0 discriminator 1
 1095 0128 002C     		cmp	r4, #0
 1096 012a F7D0     		beq	.L98
 1097              	.LBE10:
 232:..\lvgl\lv_misc/lv_txt.c ****                                 break;
 1098              		.loc 1 232 0
 1099 012c 0023     		movs	r3, #0
 1100 012e 21E0     		b	.L99
 1101              	.LVL142:
 1102              	.L96:
 230:..\lvgl\lv_misc/lv_txt.c ****                                 }
 1103              		.loc 1 230 0
 1104 0130 049B     		ldr	r3, [sp, #16]
 1105 0132 0993     		str	r3, [sp, #36]
 232:..\lvgl\lv_misc/lv_txt.c ****                                 break;
 1106              		.loc 1 232 0
 1107 0134 0023     		movs	r3, #0
 1108 0136 1DE0     		b	.L99
 1109              	.L95:
 235:..\lvgl\lv_misc/lv_txt.c ****                             lv_coord_t letter_width2 = lv_font_get_width(font, letter);
 1110              		.loc 1 235 0
 1111 0138 0135     		adds	r5, r5, #1
 1112              	.LVL143:
 236:..\lvgl\lv_misc/lv_txt.c ****                             cur_w += letter_width2;
ARM GAS  C:\Users\d3bug\AppData\Local\Temp\ccfzCIuT.s 			page 36


 1113              		.loc 1 236 0
 1114 013a 4146     		mov	r1, r8
 1115 013c 0298     		ldr	r0, [sp, #8]
 1116 013e FFF7FEFF 		bl	lv_font_get_width
 1117              	.LVL144:
 1118 0142 03B2     		sxth	r3, r0
 1119              	.LVL145:
 237:..\lvgl\lv_misc/lv_txt.c ****                             if(cur_w > max_width) {
 1120              		.loc 1 237 0
 1121 0144 2044     		add	r0, r0, r4
 1122 0146 80B2     		uxth	r0, r0
 1123 0148 04B2     		sxth	r4, r0
 1124              	.LVL146:
 238:..\lvgl\lv_misc/lv_txt.c ****                                 /* Current letter already exceeds, return previous */
 1125              		.loc 1 238 0
 1126 014a 019A     		ldr	r2, [sp, #4]
 1127 014c A242     		cmp	r2, r4
 1128 014e 07DA     		bge	.L100
 1129 0150 0095     		str	r5, [sp]
 240:..\lvgl\lv_misc/lv_txt.c ****                                 other = false;
 1130              		.loc 1 240 0
 1131 0152 314B     		ldr	r3, .L115
 1132              	.LVL147:
 1133 0154 9B68     		ldr	r3, [r3, #8]
 1134 0156 09A9     		add	r1, sp, #36
 1135 0158 3846     		mov	r0, r7
 1136 015a 9847     		blx	r3
 1137              	.LVL148:
 241:..\lvgl\lv_misc/lv_txt.c ****                                 break;
 1138              		.loc 1 241 0
 1139 015c 0023     		movs	r3, #0
 242:..\lvgl\lv_misc/lv_txt.c ****                             }
 1140              		.loc 1 242 0
 1141 015e 09E0     		b	.L99
 1142              	.LVL149:
 1143              	.L100:
 244:..\lvgl\lv_misc/lv_txt.c ****                                 cur_w += letter_space;
 1144              		.loc 1 244 0
 1145 0160 002B     		cmp	r3, #0
 1146 0162 01DD     		ble	.L91
 245:..\lvgl\lv_misc/lv_txt.c ****                             }
 1147              		.loc 1 245 0
 1148 0164 3044     		add	r0, r0, r6
 1149 0166 04B2     		sxth	r4, r0
 1150              	.LVL150:
 1151              	.L91:
 1152              	.LBE9:
 207:..\lvgl\lv_misc/lv_txt.c ****                             letter = lv_txt_encoded_next(txt, &i_tmp);
 1153              		.loc 1 207 0
 1154 0168 079B     		ldr	r3, [sp, #28]
 1155 016a FB5C     		ldrb	r3, [r7, r3]	@ zero_extendqisi2
 1156 016c 002B     		cmp	r3, #0
 1157 016e AFD1     		bne	.L101
 1158 0170 0095     		str	r5, [sp]
 206:..\lvgl\lv_misc/lv_txt.c ****                         while(txt[i_tmp] != '\0') {
 1159              		.loc 1 206 0
 1160 0172 0123     		movs	r3, #1
ARM GAS  C:\Users\d3bug\AppData\Local\Temp\ccfzCIuT.s 			page 37


 1161              	.LVL151:
 1162              	.L99:
 248:..\lvgl\lv_misc/lv_txt.c ****                             if(n_char_since_last_break >= LV_TXT_LINE_BREAK_LONG_LEN) {
 1163              		.loc 1 248 0
 1164 0174 E3B1     		cbz	r3, .L90
 249:..\lvgl\lv_misc/lv_txt.c ****                                 /* Figure out the prettiest place to break */
 1165              		.loc 1 249 0
 1166 0176 009B     		ldr	r3, [sp]
 1167              	.LVL152:
 1168 0178 0B2B     		cmp	r3, #11
 1169 017a 11D9     		bls	.L103
 1170              	.LBB11:
 252:..\lvgl\lv_misc/lv_txt.c ****                                 for(char_remain=n_char_since_last_break - n_char_fit;
 1171              		.loc 1 252 0
 1172 017c 264B     		ldr	r3, .L115
 1173 017e 9B68     		ldr	r3, [r3, #8]
 1174 0180 09A9     		add	r1, sp, #36
 1175 0182 3846     		mov	r0, r7
 1176 0184 9847     		blx	r3
 1177              	.LVL153:
 253:..\lvgl\lv_misc/lv_txt.c ****                                         char_remain < LV_TXT_LINE_BREAK_LONG_POST_MIN_LEN;
 1178              		.loc 1 253 0
 1179 0186 009B     		ldr	r3, [sp]
 1180 0188 CAEB0304 		rsb	r4, r10, r3
 1181              	.LVL154:
 1182 018c 05E0     		b	.L104
 1183              	.L105:
 256:..\lvgl\lv_misc/lv_txt.c ****                                 }
 1184              		.loc 1 256 0
 1185 018e 224B     		ldr	r3, .L115
 1186 0190 9B68     		ldr	r3, [r3, #8]
 1187 0192 09A9     		add	r1, sp, #36
 1188 0194 3846     		mov	r0, r7
 1189 0196 9847     		blx	r3
 1190              	.LVL155:
 255:..\lvgl\lv_misc/lv_txt.c ****                                     lv_txt_encoded_prev(txt, &i);
 1191              		.loc 1 255 0
 1192 0198 0134     		adds	r4, r4, #1
 1193              	.LVL156:
 1194              	.L104:
 253:..\lvgl\lv_misc/lv_txt.c ****                                         char_remain < LV_TXT_LINE_BREAK_LONG_POST_MIN_LEN;
 1195              		.loc 1 253 0 discriminator 1
 1196 019a 002C     		cmp	r4, #0
 1197 019c F7D0     		beq	.L105
 1198 019e 07E0     		b	.L90
 1199              	.LVL157:
 1200              	.L103:
 1201              	.LBE11:
 260:..\lvgl\lv_misc/lv_txt.c ****                             }
 1202              		.loc 1 260 0
 1203 01a0 049B     		ldr	r3, [sp, #16]
 1204              	.LVL158:
 1205 01a2 0993     		str	r3, [sp, #36]
 1206 01a4 04E0     		b	.L90
 1207              	.LVL159:
 1208              	.L88:
 1209              	.LBE8:
ARM GAS  C:\Users\d3bug\AppData\Local\Temp\ccfzCIuT.s 			page 38


 1210              	.LBE7:
 267:..\lvgl\lv_misc/lv_txt.c ****                 }
 1211              		.loc 1 267 0
 1212 01a6 1C4B     		ldr	r3, .L115
 1213 01a8 9B68     		ldr	r3, [r3, #8]
 1214 01aa 09A9     		add	r1, sp, #36
 1215 01ac 3846     		mov	r0, r7
 1216 01ae 9847     		blx	r3
 1217              	.LVL160:
 1218              	.L90:
 272:..\lvgl\lv_misc/lv_txt.c **** 
 1219              		.loc 1 272 0
 1220 01b0 099B     		ldr	r3, [sp, #36]
 1221 01b2 23B9     		cbnz	r3, .L106
 272:..\lvgl\lv_misc/lv_txt.c **** 
 1222              		.loc 1 272 0 is_stmt 0 discriminator 1
 1223 01b4 184B     		ldr	r3, .L115
 1224 01b6 5B68     		ldr	r3, [r3, #4]
 1225 01b8 09A9     		add	r1, sp, #36
 1226 01ba 3846     		mov	r0, r7
 1227 01bc 9847     		blx	r3
 1228              	.LVL161:
 1229              	.L106:
 274:..\lvgl\lv_misc/lv_txt.c ****             }
 1230              		.loc 1 274 0 is_stmt 1
 1231 01be BDF82400 		ldrh	r0, [sp, #36]
 1232 01c2 25E0     		b	.L79
 1233              	.LVL162:
 1234              	.L87:
 278:..\lvgl\lv_misc/lv_txt.c ****                 last_break = i; /*Save the first char index  after break*/
 1235              		.loc 1 278 0
 1236 01c4 3046     		mov	r0, r6
 1237 01c6 FFF7FEFF 		bl	is_break_char
 1238              	.LVL163:
 1239 01ca 58B1     		cbz	r0, .L112
 279:..\lvgl\lv_misc/lv_txt.c ****                 w_at_last_break = cur_w;
 1240              		.loc 1 279 0
 1241 01cc 099B     		ldr	r3, [sp, #36]
 1242 01ce 0493     		str	r3, [sp, #16]
 1243              	.LVL164:
 281:..\lvgl\lv_misc/lv_txt.c ****                     w_at_last_break += letter_space;
 1244              		.loc 1 281 0
 1245 01d0 B9F1000F 		cmp	r9, #0
 1246 01d4 09DD     		ble	.L113
 282:..\lvgl\lv_misc/lv_txt.c ****                 }
 1247              		.loc 1 282 0
 1248 01d6 039B     		ldr	r3, [sp, #12]
 1249              	.LVL165:
 1250 01d8 EB18     		adds	r3, r5, r3
 1251 01da 1BB2     		sxth	r3, r3
 1252 01dc 0593     		str	r3, [sp, #20]
 1253              	.LVL166:
 284:..\lvgl\lv_misc/lv_txt.c ****             }
 1254              		.loc 1 284 0
 1255 01de 4FF0000A 		mov	r10, #0
 1256 01e2 05E0     		b	.L107
 1257              	.LVL167:
ARM GAS  C:\Users\d3bug\AppData\Local\Temp\ccfzCIuT.s 			page 39


 1258              	.L112:
 190:..\lvgl\lv_misc/lv_txt.c ****             letter_width = lv_font_get_width(font, letter);
 1259              		.loc 1 190 0
 1260 01e4 DDF800A0 		ldr	r10, [sp]
 1261 01e8 02E0     		b	.L107
 1262              	.LVL168:
 1263              	.L113:
 280:..\lvgl\lv_misc/lv_txt.c ****                 if(letter_width > 0) {
 1264              		.loc 1 280 0
 1265 01ea 0594     		str	r4, [sp, #20]
 284:..\lvgl\lv_misc/lv_txt.c ****             }
 1266              		.loc 1 284 0
 1267 01ec 4FF0000A 		mov	r10, #0
 1268              	.LVL169:
 1269              	.L107:
 288:..\lvgl\lv_misc/lv_txt.c ****             cur_w += letter_space;
 1270              		.loc 1 288 0
 1271 01f0 B9F1000F 		cmp	r9, #0
 1272 01f4 02DD     		ble	.L81
 289:..\lvgl\lv_misc/lv_txt.c ****         }
 1273              		.loc 1 289 0
 1274 01f6 039B     		ldr	r3, [sp, #12]
 1275 01f8 1D44     		add	r5, r5, r3
 1276 01fa 2CB2     		sxth	r4, r5
 1277              	.LVL170:
 1278              	.L81:
 1279              	.LBE5:
 169:..\lvgl\lv_misc/lv_txt.c ****         lv_coord_t letter_width;
 1280              		.loc 1 169 0
 1281 01fc 0998     		ldr	r0, [sp, #36]
 1282 01fe 3B5C     		ldrb	r3, [r7, r0]	@ zero_extendqisi2
 1283 0200 002B     		cmp	r3, #0
 1284 0202 7FF41CAF 		bne	.L108
 293:..\lvgl\lv_misc/lv_txt.c **** }
 1285              		.loc 1 293 0
 1286 0206 80B2     		uxth	r0, r0
 1287 0208 02E0     		b	.L79
 1288              	.LVL171:
 1289              	.L109:
 156:..\lvgl\lv_misc/lv_txt.c ****     if(font == NULL) return 0;
 1290              		.loc 1 156 0
 1291 020a 0020     		movs	r0, #0
 1292              	.LVL172:
 1293 020c 00E0     		b	.L79
 1294              	.LVL173:
 1295              	.L110:
 157:..\lvgl\lv_misc/lv_txt.c **** 
 1296              		.loc 1 157 0
 1297 020e 0020     		movs	r0, #0
 1298              	.LVL174:
 1299              	.L79:
 294:..\lvgl\lv_misc/lv_txt.c **** 
 1300              		.loc 1 294 0 discriminator 1
 1301 0210 0BB0     		add	sp, sp, #44
 1302              		.cfi_def_cfa_offset 36
 1303              		@ sp needed
 1304 0212 BDE8F08F 		pop	{r4, r5, r6, r7, r8, r9, r10, fp, pc}
ARM GAS  C:\Users\d3bug\AppData\Local\Temp\ccfzCIuT.s 			page 40


 1305              	.LVL175:
 1306              	.L116:
 1307 0216 00BF     		.align	2
 1308              	.L115:
 1309 0218 00000000 		.word	.LANCHOR0
 1310              		.cfi_endproc
 1311              	.LFE5:
 1312              		.size	lv_txt_get_next_line, .-lv_txt_get_next_line
 1313              		.section	.text.lv_txt_get_width,"ax",%progbits
 1314              		.align	2
 1315              		.global	lv_txt_get_width
 1316              		.thumb
 1317              		.thumb_func
 1318              		.type	lv_txt_get_width, %function
 1319              	lv_txt_get_width:
 1320              	.LFB6:
 307:..\lvgl\lv_misc/lv_txt.c ****     if(txt == NULL) return 0;
 1321              		.loc 1 307 0
 1322              		.cfi_startproc
 1323              		@ args = 4, pretend = 0, frame = 8
 1324              		@ frame_needed = 0, uses_anonymous_args = 0
 1325              	.LVL176:
 1326 0000 2DE9F047 		push	{r4, r5, r6, r7, r8, r9, r10, lr}
 1327              		.cfi_def_cfa_offset 32
 1328              		.cfi_offset 4, -32
 1329              		.cfi_offset 5, -28
 1330              		.cfi_offset 6, -24
 1331              		.cfi_offset 7, -20
 1332              		.cfi_offset 8, -16
 1333              		.cfi_offset 9, -12
 1334              		.cfi_offset 10, -8
 1335              		.cfi_offset 14, -4
 1336 0004 82B0     		sub	sp, sp, #8
 1337              		.cfi_def_cfa_offset 40
 1338 0006 9DF82890 		ldrb	r9, [sp, #40]	@ zero_extendqisi2
 308:..\lvgl\lv_misc/lv_txt.c ****     if(font == NULL) return 0;
 1339              		.loc 1 308 0
 1340 000a 98B3     		cbz	r0, .L123
 1341 000c 8046     		mov	r8, r0
 309:..\lvgl\lv_misc/lv_txt.c **** 
 1342              		.loc 1 309 0
 1343 000e 9AB3     		cbz	r2, .L124
 311:..\lvgl\lv_misc/lv_txt.c ****     lv_coord_t width = 0;
 1344              		.loc 1 311 0
 1345 0010 0020     		movs	r0, #0
 1346              	.LVL177:
 1347 0012 0190     		str	r0, [sp, #4]
 1348              	.LVL178:
 313:..\lvgl\lv_misc/lv_txt.c ****     uint32_t letter;
 1349              		.loc 1 313 0
 1350 0014 8DF80300 		strb	r0, [sp, #3]
 316:..\lvgl\lv_misc/lv_txt.c ****         while(i< length){
 1351              		.loc 1 316 0
 1352 0018 F9B9     		cbnz	r1, .L125
 1353 001a 30E0     		b	.L118
 1354              	.LVL179:
 1355              	.L122:
ARM GAS  C:\Users\d3bug\AppData\Local\Temp\ccfzCIuT.s 			page 41


 1356              	.LBB12:
 318:..\lvgl\lv_misc/lv_txt.c ****             if((flag & LV_TXT_FLAG_RECOLOR) != 0) {
 1357              		.loc 1 318 0
 1358 001c 194B     		ldr	r3, .L128
 1359 001e 5B68     		ldr	r3, [r3, #4]
 1360 0020 01A9     		add	r1, sp, #4
 1361 0022 4046     		mov	r0, r8
 1362 0024 9847     		blx	r3
 1363              	.LVL180:
 1364 0026 0546     		mov	r5, r0
 1365              	.LVL181:
 319:..\lvgl\lv_misc/lv_txt.c ****                 if(lv_txt_is_cmd(&cmd_state, letter) != false) {
 1366              		.loc 1 319 0
 1367 0028 19F0010F 		tst	r9, #1
 1368 002c 05D0     		beq	.L120
 320:..\lvgl\lv_misc/lv_txt.c ****                     continue;
 1369              		.loc 1 320 0
 1370 002e 0146     		mov	r1, r0
 1371 0030 0DF10300 		add	r0, sp, #3
 1372              	.LVL182:
 1373 0034 FFF7FEFF 		bl	lv_txt_is_cmd
 1374              	.LVL183:
 1375 0038 98B9     		cbnz	r0, .L119
 1376              	.L120:
 325:..\lvgl\lv_misc/lv_txt.c ****             if(char_width > 0){
 1377              		.loc 1 325 0
 1378 003a 2946     		mov	r1, r5
 1379 003c 3046     		mov	r0, r6
 1380 003e FFF7FEFF 		bl	lv_font_get_width
 1381              	.LVL184:
 1382 0042 00B2     		sxth	r0, r0
 1383              	.LVL185:
 326:..\lvgl\lv_misc/lv_txt.c ****                 width += lv_font_get_width(font, letter);
 1384              		.loc 1 326 0
 1385 0044 0028     		cmp	r0, #0
 1386 0046 0CDD     		ble	.L119
 327:..\lvgl\lv_misc/lv_txt.c ****                 width += letter_space;
 1387              		.loc 1 327 0
 1388 0048 2946     		mov	r1, r5
 1389 004a 3046     		mov	r0, r6
 1390              	.LVL186:
 1391 004c FFF7FEFF 		bl	lv_font_get_width
 1392              	.LVL187:
 1393 0050 2044     		add	r0, r0, r4
 1394 0052 84B2     		uxth	r4, r0
 1395              	.LVL188:
 328:..\lvgl\lv_misc/lv_txt.c ****             }
 1396              		.loc 1 328 0
 1397 0054 5444     		add	r4, r4, r10
 1398              	.LVL189:
 1399 0056 24B2     		sxth	r4, r4
 1400              	.LVL190:
 1401 0058 03E0     		b	.L119
 1402              	.LVL191:
 1403              	.L125:
 1404 005a 9A46     		mov	r10, r3
 1405 005c 1646     		mov	r6, r2
ARM GAS  C:\Users\d3bug\AppData\Local\Temp\ccfzCIuT.s 			page 42


 1406 005e 0F46     		mov	r7, r1
 1407              	.LBE12:
 1408 0060 0024     		movs	r4, #0
 1409              	.LVL192:
 1410              	.L119:
 317:..\lvgl\lv_misc/lv_txt.c ****             letter = lv_txt_encoded_next(txt, &i);
 1411              		.loc 1 317 0
 1412 0062 019B     		ldr	r3, [sp, #4]
 1413 0064 9F42     		cmp	r7, r3
 1414 0066 D9D8     		bhi	.L122
 332:..\lvgl\lv_misc/lv_txt.c ****             width -= letter_space;  /*Trim the last letter space. Important if the text is center a
 1415              		.loc 1 332 0
 1416 0068 002C     		cmp	r4, #0
 1417 006a 07DD     		ble	.L126
 333:..\lvgl\lv_misc/lv_txt.c ****         }
 1418              		.loc 1 333 0
 1419 006c CAEB0404 		rsb	r4, r10, r4
 1420              	.LVL193:
 1421 0070 20B2     		sxth	r0, r4
 1422 0072 04E0     		b	.L118
 1423              	.LVL194:
 1424              	.L123:
 308:..\lvgl\lv_misc/lv_txt.c ****     if(font == NULL) return 0;
 1425              		.loc 1 308 0
 1426 0074 0020     		movs	r0, #0
 1427              	.LVL195:
 1428 0076 02E0     		b	.L118
 1429              	.LVL196:
 1430              	.L124:
 309:..\lvgl\lv_misc/lv_txt.c **** 
 1431              		.loc 1 309 0
 1432 0078 0020     		movs	r0, #0
 1433              	.LVL197:
 1434 007a 00E0     		b	.L118
 1435              	.LVL198:
 1436              	.L126:
 1437 007c 2046     		mov	r0, r4
 1438              	.LVL199:
 1439              	.L118:
 338:..\lvgl\lv_misc/lv_txt.c **** 
 1440              		.loc 1 338 0
 1441 007e 02B0     		add	sp, sp, #8
 1442              		.cfi_def_cfa_offset 32
 1443              		@ sp needed
 1444 0080 BDE8F087 		pop	{r4, r5, r6, r7, r8, r9, r10, pc}
 1445              	.LVL200:
 1446              	.L129:
 1447              		.align	2
 1448              	.L128:
 1449 0084 00000000 		.word	.LANCHOR0
 1450              		.cfi_endproc
 1451              	.LFE6:
 1452              		.size	lv_txt_get_width, .-lv_txt_get_width
 1453              		.section	.text.lv_txt_get_size,"ax",%progbits
 1454              		.align	2
 1455              		.global	lv_txt_get_size
 1456              		.thumb
ARM GAS  C:\Users\d3bug\AppData\Local\Temp\ccfzCIuT.s 			page 43


 1457              		.thumb_func
 1458              		.type	lv_txt_get_size, %function
 1459              	lv_txt_get_size:
 1460              	.LFB4:
 105:..\lvgl\lv_misc/lv_txt.c ****     size_res->x = 0;
 1461              		.loc 1 105 0
 1462              		.cfi_startproc
 1463              		@ args = 12, pretend = 0, frame = 8
 1464              		@ frame_needed = 0, uses_anonymous_args = 0
 1465              	.LVL201:
 1466 0000 2DE9F04F 		push	{r4, r5, r6, r7, r8, r9, r10, fp, lr}
 1467              		.cfi_def_cfa_offset 36
 1468              		.cfi_offset 4, -36
 1469              		.cfi_offset 5, -32
 1470              		.cfi_offset 6, -28
 1471              		.cfi_offset 7, -24
 1472              		.cfi_offset 8, -20
 1473              		.cfi_offset 9, -16
 1474              		.cfi_offset 10, -12
 1475              		.cfi_offset 11, -8
 1476              		.cfi_offset 14, -4
 1477 0004 85B0     		sub	sp, sp, #20
 1478              		.cfi_def_cfa_offset 56
 1479 0006 BDF938A0 		ldrsh	r10, [sp, #56]
 1480 000a BDF93C40 		ldrsh	r4, [sp, #60]
 1481 000e 0394     		str	r4, [sp, #12]
 1482 0010 9DF84090 		ldrb	r9, [sp, #64]	@ zero_extendqisi2
 106:..\lvgl\lv_misc/lv_txt.c ****     size_res->y = 0;
 1483              		.loc 1 106 0
 1484 0014 0024     		movs	r4, #0
 1485 0016 0480     		strh	r4, [r0]	@ movhi
 107:..\lvgl\lv_misc/lv_txt.c **** 
 1486              		.loc 1 107 0
 1487 0018 4480     		strh	r4, [r0, #2]	@ movhi
 109:..\lvgl\lv_misc/lv_txt.c ****     if(font == NULL) return;
 1488              		.loc 1 109 0
 1489 001a 0029     		cmp	r1, #0
 1490 001c 45D0     		beq	.L130
 1491 001e 0F46     		mov	r7, r1
 110:..\lvgl\lv_misc/lv_txt.c **** 
 1492              		.loc 1 110 0
 1493 0020 002A     		cmp	r2, #0
 1494 0022 42D0     		beq	.L130
 112:..\lvgl\lv_misc/lv_txt.c **** 
 1495              		.loc 1 112 0
 1496 0024 19F0020F 		tst	r9, #2
 1497 0028 02D0     		beq	.L132
 1498 002a 43F6FF71 		movw	r1, #16383
 1499              	.LVL202:
 1500 002e 0391     		str	r1, [sp, #12]
 1501              	.L132:
 1502 0030 0293     		str	r3, [sp, #8]
 1503 0032 9046     		mov	r8, r2
 1504 0034 0446     		mov	r4, r0
 1505              	.LVL203:
 1506              	.LBB13:
 1507              	.LBB14:
ARM GAS  C:\Users\d3bug\AppData\Local\Temp\ccfzCIuT.s 			page 44


 1508              		.file 2 "..\\lvgl\\lv_misc\\lv_font.h"
   1:..\lvgl\lv_misc/lv_font.h **** /**
   2:..\lvgl\lv_misc/lv_font.h ****  * @file lv_font.h
   3:..\lvgl\lv_misc/lv_font.h ****  *
   4:..\lvgl\lv_misc/lv_font.h ****  */
   5:..\lvgl\lv_misc/lv_font.h **** 
   6:..\lvgl\lv_misc/lv_font.h **** #ifndef LV_FONT_H
   7:..\lvgl\lv_misc/lv_font.h **** #define LV_FONT_H
   8:..\lvgl\lv_misc/lv_font.h **** 
   9:..\lvgl\lv_misc/lv_font.h **** #ifdef __cplusplus
  10:..\lvgl\lv_misc/lv_font.h **** extern "C" {
  11:..\lvgl\lv_misc/lv_font.h **** #endif
  12:..\lvgl\lv_misc/lv_font.h **** 
  13:..\lvgl\lv_misc/lv_font.h **** 
  14:..\lvgl\lv_misc/lv_font.h **** /*********************
  15:..\lvgl\lv_misc/lv_font.h ****  *      INCLUDES
  16:..\lvgl\lv_misc/lv_font.h ****  *********************/
  17:..\lvgl\lv_misc/lv_font.h **** #ifdef LV_CONF_INCLUDE_SIMPLE
  18:..\lvgl\lv_misc/lv_font.h **** #include "lv_conf.h"
  19:..\lvgl\lv_misc/lv_font.h **** #else
  20:..\lvgl\lv_misc/lv_font.h **** #include "../../lv_conf.h"
  21:..\lvgl\lv_misc/lv_font.h **** #endif
  22:..\lvgl\lv_misc/lv_font.h **** 
  23:..\lvgl\lv_misc/lv_font.h **** #include <stdint.h>
  24:..\lvgl\lv_misc/lv_font.h **** #include <stddef.h>
  25:..\lvgl\lv_misc/lv_font.h **** #include <stdbool.h>
  26:..\lvgl\lv_misc/lv_font.h **** 
  27:..\lvgl\lv_misc/lv_font.h **** #include "lv_symbol_def.h"
  28:..\lvgl\lv_misc/lv_font.h **** 
  29:..\lvgl\lv_misc/lv_font.h **** /*********************
  30:..\lvgl\lv_misc/lv_font.h ****  *      DEFINES
  31:..\lvgl\lv_misc/lv_font.h ****  *********************/
  32:..\lvgl\lv_misc/lv_font.h **** 
  33:..\lvgl\lv_misc/lv_font.h **** /**********************
  34:..\lvgl\lv_misc/lv_font.h ****  *      TYPEDEFS
  35:..\lvgl\lv_misc/lv_font.h ****  **********************/
  36:..\lvgl\lv_misc/lv_font.h **** 
  37:..\lvgl\lv_misc/lv_font.h **** typedef struct
  38:..\lvgl\lv_misc/lv_font.h **** {
  39:..\lvgl\lv_misc/lv_font.h ****     uint32_t w_px         :8;
  40:..\lvgl\lv_misc/lv_font.h ****     uint32_t glyph_index  :24;
  41:..\lvgl\lv_misc/lv_font.h **** } lv_font_glyph_dsc_t;
  42:..\lvgl\lv_misc/lv_font.h **** 
  43:..\lvgl\lv_misc/lv_font.h **** typedef struct
  44:..\lvgl\lv_misc/lv_font.h **** {
  45:..\lvgl\lv_misc/lv_font.h ****     uint32_t unicode         :21;
  46:..\lvgl\lv_misc/lv_font.h ****     uint32_t glyph_dsc_index :11;
  47:..\lvgl\lv_misc/lv_font.h **** } lv_font_unicode_map_t;
  48:..\lvgl\lv_misc/lv_font.h **** 
  49:..\lvgl\lv_misc/lv_font.h **** typedef struct _lv_font_struct
  50:..\lvgl\lv_misc/lv_font.h **** {
  51:..\lvgl\lv_misc/lv_font.h ****     uint32_t unicode_first;
  52:..\lvgl\lv_misc/lv_font.h ****     uint32_t unicode_last;
  53:..\lvgl\lv_misc/lv_font.h ****     const uint8_t * glyph_bitmap;
  54:..\lvgl\lv_misc/lv_font.h ****     const lv_font_glyph_dsc_t * glyph_dsc;
  55:..\lvgl\lv_misc/lv_font.h ****     const uint32_t * unicode_list;
  56:..\lvgl\lv_misc/lv_font.h ****     const uint8_t * (*get_bitmap)(const struct _lv_font_struct *,uint32_t);     /*Get a glyph's  bi
ARM GAS  C:\Users\d3bug\AppData\Local\Temp\ccfzCIuT.s 			page 45


  57:..\lvgl\lv_misc/lv_font.h ****     int16_t (*get_width)(const struct _lv_font_struct *,uint32_t);        /*Get a glyph's with with
  58:..\lvgl\lv_misc/lv_font.h ****     struct _lv_font_struct * next_page;    /*Pointer to a font extension*/
  59:..\lvgl\lv_misc/lv_font.h ****     uint32_t h_px       :8;
  60:..\lvgl\lv_misc/lv_font.h ****     uint32_t bpp        :4;                /*Bit per pixel: 1, 2 or 4*/
  61:..\lvgl\lv_misc/lv_font.h ****     uint32_t monospace  :8;                /*Fix width (0: normal width)*/
  62:..\lvgl\lv_misc/lv_font.h ****     uint16_t glyph_cnt;                    /*Number of glyphs (letters) in the font*/
  63:..\lvgl\lv_misc/lv_font.h **** } lv_font_t;
  64:..\lvgl\lv_misc/lv_font.h **** 
  65:..\lvgl\lv_misc/lv_font.h **** /**********************
  66:..\lvgl\lv_misc/lv_font.h ****  * GLOBAL PROTOTYPES
  67:..\lvgl\lv_misc/lv_font.h ****  **********************/
  68:..\lvgl\lv_misc/lv_font.h **** 
  69:..\lvgl\lv_misc/lv_font.h **** /**
  70:..\lvgl\lv_misc/lv_font.h ****  * Initialize the fonts
  71:..\lvgl\lv_misc/lv_font.h ****  */
  72:..\lvgl\lv_misc/lv_font.h **** void lv_font_init(void);
  73:..\lvgl\lv_misc/lv_font.h **** 
  74:..\lvgl\lv_misc/lv_font.h **** /**
  75:..\lvgl\lv_misc/lv_font.h ****  * Add a font to an other to extend the character set.
  76:..\lvgl\lv_misc/lv_font.h ****  * @param child the font to add
  77:..\lvgl\lv_misc/lv_font.h ****  * @param parent this font will be extended. Using it later will contain the characters from `child
  78:..\lvgl\lv_misc/lv_font.h ****  */
  79:..\lvgl\lv_misc/lv_font.h **** void lv_font_add(lv_font_t *child, lv_font_t *parent);
  80:..\lvgl\lv_misc/lv_font.h **** 
  81:..\lvgl\lv_misc/lv_font.h **** /**
  82:..\lvgl\lv_misc/lv_font.h ****  * Remove a font from a character set.
  83:..\lvgl\lv_misc/lv_font.h ****  * @param child the font to remove
  84:..\lvgl\lv_misc/lv_font.h ****  * @param parent remove `child` from here
  85:..\lvgl\lv_misc/lv_font.h ****  */
  86:..\lvgl\lv_misc/lv_font.h **** void lv_font_remove(lv_font_t * child, lv_font_t * parent);
  87:..\lvgl\lv_misc/lv_font.h **** 
  88:..\lvgl\lv_misc/lv_font.h **** /**
  89:..\lvgl\lv_misc/lv_font.h ****  * Tells if font which contains `letter` is monospace or not
  90:..\lvgl\lv_misc/lv_font.h ****  * @param font_p point to font
  91:..\lvgl\lv_misc/lv_font.h ****  * @param letter an UNICODE character code
  92:..\lvgl\lv_misc/lv_font.h ****  * @return true: the letter is monospace; false not monospace
  93:..\lvgl\lv_misc/lv_font.h ****  */
  94:..\lvgl\lv_misc/lv_font.h **** bool lv_font_is_monospace(const lv_font_t * font_p, uint32_t letter);
  95:..\lvgl\lv_misc/lv_font.h **** 
  96:..\lvgl\lv_misc/lv_font.h **** /**
  97:..\lvgl\lv_misc/lv_font.h ****  * Return with the bitmap of a font.
  98:..\lvgl\lv_misc/lv_font.h ****  * @param font_p pointer to a font
  99:..\lvgl\lv_misc/lv_font.h ****  * @param letter an UNICODE character code
 100:..\lvgl\lv_misc/lv_font.h ****  * @return  pointer to the bitmap of the letter
 101:..\lvgl\lv_misc/lv_font.h ****  */
 102:..\lvgl\lv_misc/lv_font.h **** const uint8_t * lv_font_get_bitmap(const lv_font_t * font_p, uint32_t letter);
 103:..\lvgl\lv_misc/lv_font.h **** 
 104:..\lvgl\lv_misc/lv_font.h **** /**
 105:..\lvgl\lv_misc/lv_font.h ****  * Get the width of a letter in a font. If `monospace` is set then return with it.
 106:..\lvgl\lv_misc/lv_font.h ****  * @param font_p pointer to a font
 107:..\lvgl\lv_misc/lv_font.h ****  * @param letter an UNICODE character code
 108:..\lvgl\lv_misc/lv_font.h ****  * @return the width of a letter
 109:..\lvgl\lv_misc/lv_font.h ****  */
 110:..\lvgl\lv_misc/lv_font.h **** uint8_t lv_font_get_width(const lv_font_t * font_p, uint32_t letter);
 111:..\lvgl\lv_misc/lv_font.h **** 
 112:..\lvgl\lv_misc/lv_font.h **** 
 113:..\lvgl\lv_misc/lv_font.h **** /**
ARM GAS  C:\Users\d3bug\AppData\Local\Temp\ccfzCIuT.s 			page 46


 114:..\lvgl\lv_misc/lv_font.h ****  * Get the width of the letter without overwriting it with the `monospace` attribute
 115:..\lvgl\lv_misc/lv_font.h ****  * @param font_p pointer to a font
 116:..\lvgl\lv_misc/lv_font.h ****  * @param letter an UNICODE character code
 117:..\lvgl\lv_misc/lv_font.h ****  * @return the width of a letter
 118:..\lvgl\lv_misc/lv_font.h ****  */
 119:..\lvgl\lv_misc/lv_font.h **** uint8_t lv_font_get_real_width(const lv_font_t * font_p, uint32_t letter);
 120:..\lvgl\lv_misc/lv_font.h **** 
 121:..\lvgl\lv_misc/lv_font.h **** /**
 122:..\lvgl\lv_misc/lv_font.h ****  * Get the height of a font
 123:..\lvgl\lv_misc/lv_font.h ****  * @param font_p pointer to a font
 124:..\lvgl\lv_misc/lv_font.h ****  * @return the height of a font
 125:..\lvgl\lv_misc/lv_font.h ****  */
 126:..\lvgl\lv_misc/lv_font.h **** static inline uint8_t lv_font_get_height(const lv_font_t * font_p)
 127:..\lvgl\lv_misc/lv_font.h **** {
 128:..\lvgl\lv_misc/lv_font.h ****     return font_p->h_px;
 1509              		.loc 2 128 0
 1510 0036 92F820B0 		ldrb	fp, [r2, #32]	@ zero_extendqisi2
 1511              	.LVL204:
 1512              	.LBE14:
 1513              	.LBE13:
 114:..\lvgl\lv_misc/lv_txt.c ****     uint32_t new_line_start = 0;
 1514              		.loc 1 114 0
 1515 003a 0025     		movs	r5, #0
 120:..\lvgl\lv_misc/lv_txt.c ****         new_line_start += lv_txt_get_next_line(&text[line_start], font, letter_space, max_width, fl
 1516              		.loc 1 120 0
 1517 003c 1BE0     		b	.L133
 1518              	.LVL205:
 1519              	.L134:
 121:..\lvgl\lv_misc/lv_txt.c ****         size_res->y += letter_height ;
 1520              		.loc 1 121 0
 1521 003e CDF80090 		str	r9, [sp]
 1522 0042 039B     		ldr	r3, [sp, #12]
 1523 0044 029A     		ldr	r2, [sp, #8]
 1524 0046 4146     		mov	r1, r8
 1525 0048 3046     		mov	r0, r6
 1526 004a FFF7FEFF 		bl	lv_txt_get_next_line
 1527              	.LVL206:
 1528 004e 0146     		mov	r1, r0
 1529 0050 0544     		add	r5, r5, r0
 1530              	.LVL207:
 122:..\lvgl\lv_misc/lv_txt.c ****         size_res->y += line_space;
 1531              		.loc 1 122 0
 1532 0052 6388     		ldrh	r3, [r4, #2]
 1533 0054 5B44     		add	r3, r3, fp
 1534 0056 9BB2     		uxth	r3, r3
 123:..\lvgl\lv_misc/lv_txt.c **** 
 1535              		.loc 1 123 0
 1536 0058 5344     		add	r3, r3, r10
 1537 005a 6380     		strh	r3, [r4, #2]	@ movhi
 126:..\lvgl\lv_misc/lv_txt.c ****                                            font, letter_space, flag);
 1538              		.loc 1 126 0
 1539 005c CDF80090 		str	r9, [sp]
 1540 0060 029B     		ldr	r3, [sp, #8]
 1541 0062 4246     		mov	r2, r8
 1542 0064 3046     		mov	r0, r6
 1543 0066 FFF7FEFF 		bl	lv_txt_get_width
 1544              	.LVL208:
ARM GAS  C:\Users\d3bug\AppData\Local\Temp\ccfzCIuT.s 			page 47


 129:..\lvgl\lv_misc/lv_txt.c ****         line_start = new_line_start;
 1545              		.loc 1 129 0
 1546 006a B4F90030 		ldrsh	r3, [r4]
 1547 006e 9842     		cmp	r0, r3
 1548 0070 B8BF     		it	lt
 1549 0072 1846     		movlt	r0, r3
 1550              	.LVL209:
 1551 0074 2080     		strh	r0, [r4]	@ movhi
 1552              	.LVL210:
 1553              	.L133:
 120:..\lvgl\lv_misc/lv_txt.c ****         new_line_start += lv_txt_get_next_line(&text[line_start], font, letter_space, max_width, fl
 1554              		.loc 1 120 0
 1555 0076 7E19     		adds	r6, r7, r5
 1556 0078 7B5D     		ldrb	r3, [r7, r5]	@ zero_extendqisi2
 1557 007a 002B     		cmp	r3, #0
 1558 007c DFD1     		bne	.L134
 134:..\lvgl\lv_misc/lv_txt.c ****         size_res->y += letter_height + line_space;
 1559              		.loc 1 134 0
 1560 007e 55B1     		cbz	r5, .L135
 134:..\lvgl\lv_misc/lv_txt.c ****         size_res->y += letter_height + line_space;
 1561              		.loc 1 134 0 is_stmt 0 discriminator 1
 1562 0080 013D     		subs	r5, r5, #1
 1563              	.LVL211:
 1564 0082 7B5D     		ldrb	r3, [r7, r5]	@ zero_extendqisi2
 1565 0084 0A2B     		cmp	r3, #10
 1566 0086 01D0     		beq	.L136
 134:..\lvgl\lv_misc/lv_txt.c ****         size_res->y += letter_height + line_space;
 1567              		.loc 1 134 0 discriminator 2
 1568 0088 0D2B     		cmp	r3, #13
 1569 008a 04D1     		bne	.L135
 1570              	.L136:
 135:..\lvgl\lv_misc/lv_txt.c ****     }
 1571              		.loc 1 135 0 is_stmt 1
 1572 008c 0BEB0A03 		add	r3, fp, r10
 1573 0090 6288     		ldrh	r2, [r4, #2]
 1574 0092 1344     		add	r3, r3, r2
 1575 0094 6380     		strh	r3, [r4, #2]	@ movhi
 1576              	.LVL212:
 1577              	.L135:
 139:..\lvgl\lv_misc/lv_txt.c ****     else size_res->y -= line_space;
 1578              		.loc 1 139 0
 1579 0096 B4F90230 		ldrsh	r3, [r4, #2]
 1580 009a 13B9     		cbnz	r3, .L137
 139:..\lvgl\lv_misc/lv_txt.c ****     else size_res->y -= line_space;
 1581              		.loc 1 139 0 is_stmt 0 discriminator 1
 1582 009c A4F802B0 		strh	fp, [r4, #2]	@ movhi
 1583 00a0 03E0     		b	.L130
 1584              	.L137:
 140:..\lvgl\lv_misc/lv_txt.c **** 
 1585              		.loc 1 140 0 is_stmt 1
 1586 00a2 CAEB030A 		rsb	r10, r10, r3
 1587 00a6 A4F802A0 		strh	r10, [r4, #2]	@ movhi
 1588              	.LVL213:
 1589              	.L130:
 142:..\lvgl\lv_misc/lv_txt.c **** 
 1590              		.loc 1 142 0
 1591 00aa 05B0     		add	sp, sp, #20
ARM GAS  C:\Users\d3bug\AppData\Local\Temp\ccfzCIuT.s 			page 48


 1592              		.cfi_def_cfa_offset 36
 1593              		@ sp needed
 1594 00ac BDE8F08F 		pop	{r4, r5, r6, r7, r8, r9, r10, fp, pc}
 1595              		.cfi_endproc
 1596              	.LFE4:
 1597              		.size	lv_txt_get_size, .-lv_txt_get_size
 1598              		.section	.text.lv_txt_ins,"ax",%progbits
 1599              		.align	2
 1600              		.global	lv_txt_ins
 1601              		.thumb
 1602              		.thumb_func
 1603              		.type	lv_txt_ins, %function
 1604              	lv_txt_ins:
 1605              	.LFB8:
 383:..\lvgl\lv_misc/lv_txt.c ****     uint32_t old_len = strlen(txt_buf);
 1606              		.loc 1 383 0
 1607              		.cfi_startproc
 1608              		@ args = 0, pretend = 0, frame = 0
 1609              		@ frame_needed = 0, uses_anonymous_args = 0
 1610              	.LVL214:
 1611 0000 2DE9F041 		push	{r4, r5, r6, r7, r8, lr}
 1612              		.cfi_def_cfa_offset 24
 1613              		.cfi_offset 4, -24
 1614              		.cfi_offset 5, -20
 1615              		.cfi_offset 6, -16
 1616              		.cfi_offset 7, -12
 1617              		.cfi_offset 8, -8
 1618              		.cfi_offset 14, -4
 1619 0004 0646     		mov	r6, r0
 1620 0006 8846     		mov	r8, r1
 1621 0008 1746     		mov	r7, r2
 384:..\lvgl\lv_misc/lv_txt.c ****     uint32_t ins_len = strlen(ins_txt);
 1622              		.loc 1 384 0
 1623 000a FFF7FEFF 		bl	strlen
 1624              	.LVL215:
 1625 000e 0446     		mov	r4, r0
 1626              	.LVL216:
 385:..\lvgl\lv_misc/lv_txt.c ****     uint32_t new_len = ins_len + old_len;
 1627              		.loc 1 385 0
 1628 0010 3846     		mov	r0, r7
 1629              	.LVL217:
 1630 0012 FFF7FEFF 		bl	strlen
 1631              	.LVL218:
 1632 0016 0546     		mov	r5, r0
 1633              	.LVL219:
 386:..\lvgl\lv_misc/lv_txt.c **** #if LV_TXT_UTF8 != 0
 1634              		.loc 1 386 0
 1635 0018 0444     		add	r4, r4, r0
 1636              	.LVL220:
 388:..\lvgl\lv_misc/lv_txt.c **** #endif
 1637              		.loc 1 388 0
 1638 001a 0A4B     		ldr	r3, .L144
 1639 001c DB68     		ldr	r3, [r3, #12]
 1640 001e 4146     		mov	r1, r8
 1641 0020 3046     		mov	r0, r6
 1642              	.LVL221:
 1643 0022 9847     		blx	r3
ARM GAS  C:\Users\d3bug\AppData\Local\Temp\ccfzCIuT.s 			page 49


 1644              	.LVL222:
 392:..\lvgl\lv_misc/lv_txt.c ****         txt_buf[i] = txt_buf[i - ins_len];
 1645              		.loc 1 392 0
 1646 0024 03E0     		b	.L141
 1647              	.LVL223:
 1648              	.L142:
 393:..\lvgl\lv_misc/lv_txt.c ****     }
 1649              		.loc 1 393 0 discriminator 3
 1650 0026 631B     		subs	r3, r4, r5
 1651 0028 F35C     		ldrb	r3, [r6, r3]	@ zero_extendqisi2
 1652 002a 3355     		strb	r3, [r6, r4]
 392:..\lvgl\lv_misc/lv_txt.c ****         txt_buf[i] = txt_buf[i - ins_len];
 1653              		.loc 1 392 0 discriminator 3
 1654 002c 013C     		subs	r4, r4, #1
 1655              	.LVL224:
 1656              	.L141:
 392:..\lvgl\lv_misc/lv_txt.c ****         txt_buf[i] = txt_buf[i - ins_len];
 1657              		.loc 1 392 0 is_stmt 0 discriminator 1
 1658 002e 2B18     		adds	r3, r5, r0
 1659 0030 9C42     		cmp	r4, r3
 1660 0032 F8D2     		bcs	.L142
 397:..\lvgl\lv_misc/lv_txt.c **** }
 1661              		.loc 1 397 0 is_stmt 1
 1662 0034 2A46     		mov	r2, r5
 1663 0036 3946     		mov	r1, r7
 1664 0038 3044     		add	r0, r0, r6
 1665              	.LVL225:
 1666 003a FFF7FEFF 		bl	memcpy
 1667              	.LVL226:
 1668 003e BDE8F081 		pop	{r4, r5, r6, r7, r8, pc}
 1669              	.LVL227:
 1670              	.L145:
 1671 0042 00BF     		.align	2
 1672              	.L144:
 1673 0044 00000000 		.word	.LANCHOR0
 1674              		.cfi_endproc
 1675              	.LFE8:
 1676              		.size	lv_txt_ins, .-lv_txt_ins
 1677              		.section	.text.lv_txt_cut,"ax",%progbits
 1678              		.align	2
 1679              		.global	lv_txt_cut
 1680              		.thumb
 1681              		.thumb_func
 1682              		.type	lv_txt_cut, %function
 1683              	lv_txt_cut:
 1684              	.LFB9:
 407:..\lvgl\lv_misc/lv_txt.c **** 
 1685              		.loc 1 407 0
 1686              		.cfi_startproc
 1687              		@ args = 0, pretend = 0, frame = 0
 1688              		@ frame_needed = 0, uses_anonymous_args = 0
 1689              	.LVL228:
 1690 0000 2DE9F041 		push	{r4, r5, r6, r7, r8, lr}
 1691              		.cfi_def_cfa_offset 24
 1692              		.cfi_offset 4, -24
 1693              		.cfi_offset 5, -20
 1694              		.cfi_offset 6, -16
ARM GAS  C:\Users\d3bug\AppData\Local\Temp\ccfzCIuT.s 			page 50


 1695              		.cfi_offset 7, -12
 1696              		.cfi_offset 8, -8
 1697              		.cfi_offset 14, -4
 1698 0004 0546     		mov	r5, r0
 1699 0006 0C46     		mov	r4, r1
 1700 0008 9046     		mov	r8, r2
 409:..\lvgl\lv_misc/lv_txt.c **** #if LV_TXT_UTF8 != 0
 1701              		.loc 1 409 0
 1702 000a FFF7FEFF 		bl	strlen
 1703              	.LVL229:
 1704 000e 0646     		mov	r6, r0
 1705              	.LVL230:
 411:..\lvgl\lv_misc/lv_txt.c ****     len = lv_txt_encoded_get_byte_id(&txt[pos], len);
 1706              		.loc 1 411 0
 1707 0010 094F     		ldr	r7, .L150
 1708 0012 FB68     		ldr	r3, [r7, #12]
 1709 0014 2146     		mov	r1, r4
 1710 0016 2846     		mov	r0, r5
 1711              	.LVL231:
 1712 0018 9847     		blx	r3
 1713              	.LVL232:
 1714 001a 0446     		mov	r4, r0
 1715              	.LVL233:
 412:..\lvgl\lv_misc/lv_txt.c **** #endif
 1716              		.loc 1 412 0
 1717 001c FB68     		ldr	r3, [r7, #12]
 1718 001e 4146     		mov	r1, r8
 1719 0020 2818     		adds	r0, r5, r0
 1720              	.LVL234:
 1721 0022 9847     		blx	r3
 1722              	.LVL235:
 417:..\lvgl\lv_misc/lv_txt.c ****         txt[i] = txt[i + len];
 1723              		.loc 1 417 0
 1724 0024 03E0     		b	.L147
 1725              	.LVL236:
 1726              	.L148:
 418:..\lvgl\lv_misc/lv_txt.c ****     }
 1727              		.loc 1 418 0 discriminator 3
 1728 0026 2B19     		adds	r3, r5, r4
 1729 0028 1B5C     		ldrb	r3, [r3, r0]	@ zero_extendqisi2
 1730 002a 2B55     		strb	r3, [r5, r4]
 417:..\lvgl\lv_misc/lv_txt.c ****         txt[i] = txt[i + len];
 1731              		.loc 1 417 0 discriminator 3
 1732 002c 0134     		adds	r4, r4, #1
 1733              	.LVL237:
 1734              	.L147:
 417:..\lvgl\lv_misc/lv_txt.c ****         txt[i] = txt[i + len];
 1735              		.loc 1 417 0 is_stmt 0 discriminator 1
 1736 002e 331A     		subs	r3, r6, r0
 1737 0030 9C42     		cmp	r4, r3
 1738 0032 F8D9     		bls	.L148
 420:..\lvgl\lv_misc/lv_txt.c **** 
 1739              		.loc 1 420 0 is_stmt 1
 1740 0034 BDE8F081 		pop	{r4, r5, r6, r7, r8, pc}
 1741              	.LVL238:
 1742              	.L151:
 1743              		.align	2
ARM GAS  C:\Users\d3bug\AppData\Local\Temp\ccfzCIuT.s 			page 51


 1744              	.L150:
 1745 0038 00000000 		.word	.LANCHOR0
 1746              		.cfi_endproc
 1747              	.LFE9:
 1748              		.size	lv_txt_cut, .-lv_txt_cut
 1749              		.global	lv_txt_get_encoded_length
 1750              		.global	lv_encoded_get_char_id
 1751              		.global	lv_txt_encoded_get_byte_id
 1752              		.global	lv_txt_encoded_prev
 1753              		.global	lv_txt_encoded_next
 1754              		.global	lv_txt_encoded_conv_wc
 1755              		.global	lv_txt_unicode_to_encoded
 1756              		.global	lv_txt_encoded_size
 1757              		.data
 1758              		.align	2
 1759              		.set	.LANCHOR0,. + 0
 1760              		.type	lv_txt_encoded_size, %object
 1761              		.size	lv_txt_encoded_size, 4
 1762              	lv_txt_encoded_size:
 1763 0000 00000000 		.word	lv_txt_utf8_size
 1764              		.type	lv_txt_encoded_next, %object
 1765              		.size	lv_txt_encoded_next, 4
 1766              	lv_txt_encoded_next:
 1767 0004 00000000 		.word	lv_txt_utf8_next
 1768              		.type	lv_txt_encoded_prev, %object
 1769              		.size	lv_txt_encoded_prev, 4
 1770              	lv_txt_encoded_prev:
 1771 0008 00000000 		.word	lv_txt_utf8_prev
 1772              		.type	lv_txt_encoded_get_byte_id, %object
 1773              		.size	lv_txt_encoded_get_byte_id, 4
 1774              	lv_txt_encoded_get_byte_id:
 1775 000c 00000000 		.word	lv_txt_utf8_get_byte_id
 1776              		.type	lv_txt_get_encoded_length, %object
 1777              		.size	lv_txt_get_encoded_length, 4
 1778              	lv_txt_get_encoded_length:
 1779 0010 00000000 		.word	lv_txt_utf8_get_length
 1780              		.type	lv_encoded_get_char_id, %object
 1781              		.size	lv_encoded_get_char_id, 4
 1782              	lv_encoded_get_char_id:
 1783 0014 00000000 		.word	lv_txt_utf8_get_char_id
 1784              		.type	lv_txt_encoded_conv_wc, %object
 1785              		.size	lv_txt_encoded_conv_wc, 4
 1786              	lv_txt_encoded_conv_wc:
 1787 0018 00000000 		.word	lv_txt_utf8_conv_wc
 1788              		.type	lv_txt_unicode_to_encoded, %object
 1789              		.size	lv_txt_unicode_to_encoded, 4
 1790              	lv_txt_unicode_to_encoded:
 1791 001c 00000000 		.word	lv_txt_unicode_to_utf8
 1792              		.section	.rodata.str1.4,"aMS",%progbits,1
 1793              		.align	2
 1794              	.LC0:
 1795 0000 202C2E3B 		.ascii	" ,.;:-_\000"
 1795      3A2D5F00 
 1796              		.text
 1797              	.Letext0:
 1798              		.file 3 "c:\\program files (x86)\\cypress\\psoc creator\\4.2\\psoc creator\\import\\gnu\\arm\\5.4.
 1799              		.file 4 "c:\\program files (x86)\\cypress\\psoc creator\\4.2\\psoc creator\\import\\gnu\\arm\\5.4.
ARM GAS  C:\Users\d3bug\AppData\Local\Temp\ccfzCIuT.s 			page 52


 1800              		.file 5 "..\\lvgl\\lv_misc\\lv_area.h"
 1801              		.file 6 "..\\lvgl\\lv_misc\\lv_txt.h"
 1802              		.file 7 "c:\\program files (x86)\\cypress\\psoc creator\\4.2\\psoc creator\\import\\gnu\\arm\\5.4.