ARM GAS  C:\Users\d3bug\AppData\Local\Temp\ccxaLH4S.s 			page 1


   1              		.syntax unified
   2              		.cpu cortex-m3
   3              		.fpu softvfp
   4              		.eabi_attribute 20, 1
   5              		.eabi_attribute 21, 1
   6              		.eabi_attribute 23, 3
   7              		.eabi_attribute 24, 1
   8              		.eabi_attribute 25, 1
   9              		.eabi_attribute 26, 1
  10              		.eabi_attribute 30, 1
  11              		.eabi_attribute 34, 1
  12              		.eabi_attribute 18, 4
  13              		.thumb
  14              		.syntax unified
  15              		.file	"lv_theme_mono.c"
  16              		.text
  17              	.Ltext0:
  18              		.cfi_sections	.debug_frame
  19              		.section	.text.cont_init,"ax",%progbits
  20              		.align	2
  21              		.thumb
  22              		.thumb_func
  23              		.type	cont_init, %function
  24              	cont_init:
  25              	.LFB13:
  26              		.file 1 "..\\lvgl\\lv_themes\\lv_theme_mono.c"
   1:..\lvgl\lv_themes/lv_theme_mono.c **** /**
   2:..\lvgl\lv_themes/lv_theme_mono.c ****  * @file lv_theme_templ.c
   3:..\lvgl\lv_themes/lv_theme_mono.c ****  *
   4:..\lvgl\lv_themes/lv_theme_mono.c ****  */
   5:..\lvgl\lv_themes/lv_theme_mono.c **** 
   6:..\lvgl\lv_themes/lv_theme_mono.c **** /*********************
   7:..\lvgl\lv_themes/lv_theme_mono.c ****  *      INCLUDES
   8:..\lvgl\lv_themes/lv_theme_mono.c ****  *********************/
   9:..\lvgl\lv_themes/lv_theme_mono.c **** #include "lv_theme.h"
  10:..\lvgl\lv_themes/lv_theme_mono.c **** 
  11:..\lvgl\lv_themes/lv_theme_mono.c **** 
  12:..\lvgl\lv_themes/lv_theme_mono.c **** #if USE_LV_THEME_MONO
  13:..\lvgl\lv_themes/lv_theme_mono.c **** 
  14:..\lvgl\lv_themes/lv_theme_mono.c **** /*********************
  15:..\lvgl\lv_themes/lv_theme_mono.c ****  *      DEFINES
  16:..\lvgl\lv_themes/lv_theme_mono.c ****  *********************/
  17:..\lvgl\lv_themes/lv_theme_mono.c **** 
  18:..\lvgl\lv_themes/lv_theme_mono.c **** /**********************
  19:..\lvgl\lv_themes/lv_theme_mono.c ****  *      TYPEDEFS
  20:..\lvgl\lv_themes/lv_theme_mono.c ****  **********************/
  21:..\lvgl\lv_themes/lv_theme_mono.c **** 
  22:..\lvgl\lv_themes/lv_theme_mono.c **** /**********************
  23:..\lvgl\lv_themes/lv_theme_mono.c ****  *  STATIC PROTOTYPES
  24:..\lvgl\lv_themes/lv_theme_mono.c ****  **********************/
  25:..\lvgl\lv_themes/lv_theme_mono.c **** 
  26:..\lvgl\lv_themes/lv_theme_mono.c **** /**********************
  27:..\lvgl\lv_themes/lv_theme_mono.c ****  *  STATIC VARIABLES
  28:..\lvgl\lv_themes/lv_theme_mono.c ****  **********************/
  29:..\lvgl\lv_themes/lv_theme_mono.c **** static lv_theme_t theme;
  30:..\lvgl\lv_themes/lv_theme_mono.c **** static lv_style_t def;
  31:..\lvgl\lv_themes/lv_theme_mono.c **** 
ARM GAS  C:\Users\d3bug\AppData\Local\Temp\ccxaLH4S.s 			page 2


  32:..\lvgl\lv_themes/lv_theme_mono.c **** /*Static style definitions*/
  33:..\lvgl\lv_themes/lv_theme_mono.c **** static lv_style_t light_plain;
  34:..\lvgl\lv_themes/lv_theme_mono.c **** static lv_style_t dark_plain;
  35:..\lvgl\lv_themes/lv_theme_mono.c **** static lv_style_t light_frame;
  36:..\lvgl\lv_themes/lv_theme_mono.c **** static lv_style_t dark_frame;
  37:..\lvgl\lv_themes/lv_theme_mono.c **** 
  38:..\lvgl\lv_themes/lv_theme_mono.c **** /*Saved input parameters*/
  39:..\lvgl\lv_themes/lv_theme_mono.c **** static lv_font_t * _font;
  40:..\lvgl\lv_themes/lv_theme_mono.c **** 
  41:..\lvgl\lv_themes/lv_theme_mono.c **** 
  42:..\lvgl\lv_themes/lv_theme_mono.c **** /**********************
  43:..\lvgl\lv_themes/lv_theme_mono.c ****  *      MACROS
  44:..\lvgl\lv_themes/lv_theme_mono.c ****  **********************/
  45:..\lvgl\lv_themes/lv_theme_mono.c **** 
  46:..\lvgl\lv_themes/lv_theme_mono.c **** /**********************
  47:..\lvgl\lv_themes/lv_theme_mono.c ****  *   STATIC FUNCTIONS
  48:..\lvgl\lv_themes/lv_theme_mono.c ****  **********************/
  49:..\lvgl\lv_themes/lv_theme_mono.c **** 
  50:..\lvgl\lv_themes/lv_theme_mono.c **** static void basic_init(void)
  51:..\lvgl\lv_themes/lv_theme_mono.c **** {
  52:..\lvgl\lv_themes/lv_theme_mono.c ****     lv_style_copy(&def, &lv_style_plain);  /*Initialize the default style*/
  53:..\lvgl\lv_themes/lv_theme_mono.c ****     def.body.main_color = LV_COLOR_WHITE;
  54:..\lvgl\lv_themes/lv_theme_mono.c ****     def.body.grad_color = LV_COLOR_WHITE;
  55:..\lvgl\lv_themes/lv_theme_mono.c ****     def.body.radius = 0;
  56:..\lvgl\lv_themes/lv_theme_mono.c ****     def.body.opa = LV_OPA_COVER;
  57:..\lvgl\lv_themes/lv_theme_mono.c ****     def.body.padding.hor = LV_DPI / 10;
  58:..\lvgl\lv_themes/lv_theme_mono.c ****     def.body.padding.ver = LV_DPI / 10;
  59:..\lvgl\lv_themes/lv_theme_mono.c ****     def.body.padding.inner = LV_DPI / 10;
  60:..\lvgl\lv_themes/lv_theme_mono.c ****     def.body.border.color = LV_COLOR_BLACK;
  61:..\lvgl\lv_themes/lv_theme_mono.c ****     def.body.border.width = 1;
  62:..\lvgl\lv_themes/lv_theme_mono.c ****     def.body.border.opa = LV_OPA_COVER;
  63:..\lvgl\lv_themes/lv_theme_mono.c ****     def.body.border.part = LV_BORDER_FULL;
  64:..\lvgl\lv_themes/lv_theme_mono.c **** 
  65:..\lvgl\lv_themes/lv_theme_mono.c ****     def.text.font = _font;
  66:..\lvgl\lv_themes/lv_theme_mono.c ****     def.text.color = LV_COLOR_BLACK;
  67:..\lvgl\lv_themes/lv_theme_mono.c ****     def.text.letter_space = 1;
  68:..\lvgl\lv_themes/lv_theme_mono.c ****     def.text.line_space = 1;
  69:..\lvgl\lv_themes/lv_theme_mono.c **** 
  70:..\lvgl\lv_themes/lv_theme_mono.c ****     def.line.color = LV_COLOR_BLACK;
  71:..\lvgl\lv_themes/lv_theme_mono.c ****     def.line.opa = LV_OPA_COVER;
  72:..\lvgl\lv_themes/lv_theme_mono.c ****     def.line.width = 1;
  73:..\lvgl\lv_themes/lv_theme_mono.c **** 
  74:..\lvgl\lv_themes/lv_theme_mono.c ****     def.image.color = LV_COLOR_BLACK;
  75:..\lvgl\lv_themes/lv_theme_mono.c ****     def.image.intense = LV_OPA_TRANSP;
  76:..\lvgl\lv_themes/lv_theme_mono.c ****     def.image.opa = LV_OPA_COVER;
  77:..\lvgl\lv_themes/lv_theme_mono.c **** 
  78:..\lvgl\lv_themes/lv_theme_mono.c ****     lv_style_copy(&light_plain, &def);
  79:..\lvgl\lv_themes/lv_theme_mono.c **** 
  80:..\lvgl\lv_themes/lv_theme_mono.c ****     lv_style_copy(&light_frame, &light_plain);
  81:..\lvgl\lv_themes/lv_theme_mono.c ****     light_frame.body.radius = LV_DPI / 20;
  82:..\lvgl\lv_themes/lv_theme_mono.c **** 
  83:..\lvgl\lv_themes/lv_theme_mono.c ****     lv_style_copy(&dark_plain, &light_plain);
  84:..\lvgl\lv_themes/lv_theme_mono.c ****     dark_plain.body.main_color = LV_COLOR_BLACK;
  85:..\lvgl\lv_themes/lv_theme_mono.c ****     dark_plain.body.grad_color = LV_COLOR_BLACK;
  86:..\lvgl\lv_themes/lv_theme_mono.c ****     dark_plain.body.border.color = LV_COLOR_WHITE;
  87:..\lvgl\lv_themes/lv_theme_mono.c ****     dark_plain.text.color = LV_COLOR_WHITE;
  88:..\lvgl\lv_themes/lv_theme_mono.c ****     dark_plain.line.color = LV_COLOR_WHITE;
ARM GAS  C:\Users\d3bug\AppData\Local\Temp\ccxaLH4S.s 			page 3


  89:..\lvgl\lv_themes/lv_theme_mono.c ****     dark_plain.image.color = LV_COLOR_WHITE;
  90:..\lvgl\lv_themes/lv_theme_mono.c **** 
  91:..\lvgl\lv_themes/lv_theme_mono.c ****     lv_style_copy(&dark_frame, &dark_plain);
  92:..\lvgl\lv_themes/lv_theme_mono.c ****     dark_frame.body.radius = LV_DPI / 20;
  93:..\lvgl\lv_themes/lv_theme_mono.c **** 
  94:..\lvgl\lv_themes/lv_theme_mono.c ****     theme.bg = &def;
  95:..\lvgl\lv_themes/lv_theme_mono.c ****     theme.panel = &light_frame;
  96:..\lvgl\lv_themes/lv_theme_mono.c **** 
  97:..\lvgl\lv_themes/lv_theme_mono.c **** }
  98:..\lvgl\lv_themes/lv_theme_mono.c **** 
  99:..\lvgl\lv_themes/lv_theme_mono.c **** static void cont_init(void)
 100:..\lvgl\lv_themes/lv_theme_mono.c **** {
  27              		.loc 1 100 0
  28              		.cfi_startproc
  29              		@ args = 0, pretend = 0, frame = 0
  30              		@ frame_needed = 0, uses_anonymous_args = 0
  31              		@ link register save eliminated.
 101:..\lvgl\lv_themes/lv_theme_mono.c **** #if USE_LV_CONT != 0
 102:..\lvgl\lv_themes/lv_theme_mono.c **** 
 103:..\lvgl\lv_themes/lv_theme_mono.c **** 
 104:..\lvgl\lv_themes/lv_theme_mono.c ****     theme.cont = &def;
  32              		.loc 1 104 0
  33 0000 024B     		ldr	r3, .L2
  34 0002 03F12C02 		add	r2, r3, #44
  35 0006 9A60     		str	r2, [r3, #8]
  36 0008 7047     		bx	lr
  37              	.L3:
  38 000a 00BF     		.align	2
  39              	.L2:
  40 000c 00000000 		.word	.LANCHOR0
  41              		.cfi_endproc
  42              	.LFE13:
  43              		.size	cont_init, .-cont_init
  44              		.section	.text.btn_init,"ax",%progbits
  45              		.align	2
  46              		.thumb
  47              		.thumb_func
  48              		.type	btn_init, %function
  49              	btn_init:
  50              	.LFB14:
 105:..\lvgl\lv_themes/lv_theme_mono.c **** #endif
 106:..\lvgl\lv_themes/lv_theme_mono.c **** }
 107:..\lvgl\lv_themes/lv_theme_mono.c **** 
 108:..\lvgl\lv_themes/lv_theme_mono.c **** static void btn_init(void)
 109:..\lvgl\lv_themes/lv_theme_mono.c **** {
  51              		.loc 1 109 0
  52              		.cfi_startproc
  53              		@ args = 0, pretend = 0, frame = 0
  54              		@ frame_needed = 0, uses_anonymous_args = 0
  55              		@ link register save eliminated.
 110:..\lvgl\lv_themes/lv_theme_mono.c **** #if USE_LV_BTN != 0
 111:..\lvgl\lv_themes/lv_theme_mono.c **** 
 112:..\lvgl\lv_themes/lv_theme_mono.c **** 
 113:..\lvgl\lv_themes/lv_theme_mono.c ****     theme.btn.rel = &light_frame;
  56              		.loc 1 113 0
  57 0000 054B     		ldr	r3, .L5
  58 0002 03F16402 		add	r2, r3, #100
ARM GAS  C:\Users\d3bug\AppData\Local\Temp\ccxaLH4S.s 			page 4


  59 0006 DA60     		str	r2, [r3, #12]
 114:..\lvgl\lv_themes/lv_theme_mono.c ****     theme.btn.pr = &dark_frame;
  60              		.loc 1 114 0
  61 0008 03F19C01 		add	r1, r3, #156
  62 000c 1961     		str	r1, [r3, #16]
 115:..\lvgl\lv_themes/lv_theme_mono.c ****     theme.btn.tgl_rel = &dark_frame;
  63              		.loc 1 115 0
  64 000e 5961     		str	r1, [r3, #20]
 116:..\lvgl\lv_themes/lv_theme_mono.c ****     theme.btn.tgl_pr =  &light_frame;
  65              		.loc 1 116 0
  66 0010 9A61     		str	r2, [r3, #24]
 117:..\lvgl\lv_themes/lv_theme_mono.c ****     theme.btn.ina =  &light_frame;
  67              		.loc 1 117 0
  68 0012 DA61     		str	r2, [r3, #28]
  69 0014 7047     		bx	lr
  70              	.L6:
  71 0016 00BF     		.align	2
  72              	.L5:
  73 0018 00000000 		.word	.LANCHOR0
  74              		.cfi_endproc
  75              	.LFE14:
  76              		.size	btn_init, .-btn_init
  77              		.section	.text.label_init,"ax",%progbits
  78              		.align	2
  79              		.thumb
  80              		.thumb_func
  81              		.type	label_init, %function
  82              	label_init:
  83              	.LFB15:
 118:..\lvgl\lv_themes/lv_theme_mono.c **** #endif
 119:..\lvgl\lv_themes/lv_theme_mono.c **** }
 120:..\lvgl\lv_themes/lv_theme_mono.c **** 
 121:..\lvgl\lv_themes/lv_theme_mono.c **** 
 122:..\lvgl\lv_themes/lv_theme_mono.c **** static void label_init(void)
 123:..\lvgl\lv_themes/lv_theme_mono.c **** {
  84              		.loc 1 123 0
  85              		.cfi_startproc
  86              		@ args = 0, pretend = 0, frame = 0
  87              		@ frame_needed = 0, uses_anonymous_args = 0
  88              		@ link register save eliminated.
 124:..\lvgl\lv_themes/lv_theme_mono.c **** #if USE_LV_LABEL != 0
 125:..\lvgl\lv_themes/lv_theme_mono.c **** 
 126:..\lvgl\lv_themes/lv_theme_mono.c **** 
 127:..\lvgl\lv_themes/lv_theme_mono.c ****     theme.label.prim = NULL;
  89              		.loc 1 127 0
  90 0000 024B     		ldr	r3, .L8
  91 0002 0022     		movs	r2, #0
  92 0004 1A62     		str	r2, [r3, #32]
 128:..\lvgl\lv_themes/lv_theme_mono.c ****     theme.label.sec = NULL;
  93              		.loc 1 128 0
  94 0006 5A62     		str	r2, [r3, #36]
 129:..\lvgl\lv_themes/lv_theme_mono.c ****     theme.label.hint = NULL;
  95              		.loc 1 129 0
  96 0008 9A62     		str	r2, [r3, #40]
  97 000a 7047     		bx	lr
  98              	.L9:
  99              		.align	2
ARM GAS  C:\Users\d3bug\AppData\Local\Temp\ccxaLH4S.s 			page 5


 100              	.L8:
 101 000c 00000000 		.word	.LANCHOR0
 102              		.cfi_endproc
 103              	.LFE15:
 104              		.size	label_init, .-label_init
 105              		.section	.text.basic_init,"ax",%progbits
 106              		.align	2
 107              		.thumb
 108              		.thumb_func
 109              		.type	basic_init, %function
 110              	basic_init:
 111              	.LFB12:
  51:..\lvgl\lv_themes/lv_theme_mono.c ****     lv_style_copy(&def, &lv_style_plain);  /*Initialize the default style*/
 112              		.loc 1 51 0
 113              		.cfi_startproc
 114              		@ args = 0, pretend = 0, frame = 0
 115              		@ frame_needed = 0, uses_anonymous_args = 0
 116 0000 2DE9F047 		push	{r4, r5, r6, r7, r8, r9, r10, lr}
 117              		.cfi_def_cfa_offset 32
 118              		.cfi_offset 4, -32
 119              		.cfi_offset 5, -28
 120              		.cfi_offset 6, -24
 121              		.cfi_offset 7, -20
 122              		.cfi_offset 8, -16
 123              		.cfi_offset 9, -12
 124              		.cfi_offset 10, -8
 125              		.cfi_offset 14, -4
  52:..\lvgl\lv_themes/lv_theme_mono.c ****     def.body.main_color = LV_COLOR_WHITE;
 126              		.loc 1 52 0
 127 0004 484C     		ldr	r4, .L12
 128 0006 04F12C06 		add	r6, r4, #44
 129 000a 4849     		ldr	r1, .L12+4
 130 000c 3046     		mov	r0, r6
 131 000e FFF7FEFF 		bl	lv_style_copy
 132              	.LVL0:
  53:..\lvgl\lv_themes/lv_theme_mono.c ****     def.body.grad_color = LV_COLOR_WHITE;
 133              		.loc 1 53 0
 134 0012 94F82E30 		ldrb	r3, [r4, #46]	@ zero_extendqisi2
 135 0016 43F00103 		orr	r3, r3, #1
 136 001a 84F82E30 		strb	r3, [r4, #46]
  54:..\lvgl\lv_themes/lv_theme_mono.c ****     def.body.radius = 0;
 137              		.loc 1 54 0
 138 001e 94F82F30 		ldrb	r3, [r4, #47]	@ zero_extendqisi2
 139 0022 43F00103 		orr	r3, r3, #1
 140 0026 84F82F30 		strb	r3, [r4, #47]
  55:..\lvgl\lv_themes/lv_theme_mono.c ****     def.body.opa = LV_OPA_COVER;
 141              		.loc 1 55 0
 142 002a 0025     		movs	r5, #0
 143 002c 2586     		strh	r5, [r4, #48]	@ movhi
  56:..\lvgl\lv_themes/lv_theme_mono.c ****     def.body.padding.hor = LV_DPI / 10;
 144              		.loc 1 56 0
 145 002e FF23     		movs	r3, #255
 146 0030 84F83230 		strb	r3, [r4, #50]
  57:..\lvgl\lv_themes/lv_theme_mono.c ****     def.body.padding.ver = LV_DPI / 10;
 147              		.loc 1 57 0
 148 0034 0A22     		movs	r2, #10
 149 0036 A4F84220 		strh	r2, [r4, #66]	@ movhi
ARM GAS  C:\Users\d3bug\AppData\Local\Temp\ccxaLH4S.s 			page 6


  58:..\lvgl\lv_themes/lv_theme_mono.c ****     def.body.padding.inner = LV_DPI / 10;
 150              		.loc 1 58 0
 151 003a A4F84020 		strh	r2, [r4, #64]	@ movhi
  59:..\lvgl\lv_themes/lv_theme_mono.c ****     def.body.border.color = LV_COLOR_BLACK;
 152              		.loc 1 59 0
 153 003e A4F84420 		strh	r2, [r4, #68]	@ movhi
  60:..\lvgl\lv_themes/lv_theme_mono.c ****     def.body.border.width = 1;
 154              		.loc 1 60 0
 155 0042 94F83420 		ldrb	r2, [r4, #52]	@ zero_extendqisi2
 156 0046 65F30002 		bfi	r2, r5, #0, #1
 157 004a 84F83420 		strb	r2, [r4, #52]
  61:..\lvgl\lv_themes/lv_theme_mono.c ****     def.body.border.opa = LV_OPA_COVER;
 158              		.loc 1 61 0
 159 004e 0122     		movs	r2, #1
 160 0050 E286     		strh	r2, [r4, #54]	@ movhi
  62:..\lvgl\lv_themes/lv_theme_mono.c ****     def.body.border.part = LV_BORDER_FULL;
 161              		.loc 1 62 0
 162 0052 84F83930 		strb	r3, [r4, #57]
  63:..\lvgl\lv_themes/lv_theme_mono.c **** 
 163              		.loc 1 63 0
 164 0056 0F21     		movs	r1, #15
 165 0058 84F83810 		strb	r1, [r4, #56]
  65:..\lvgl\lv_themes/lv_theme_mono.c ****     def.text.color = LV_COLOR_BLACK;
 166              		.loc 1 65 0
 167 005c D4F8D410 		ldr	r1, [r4, #212]
 168 0060 E164     		str	r1, [r4, #76]
  66:..\lvgl\lv_themes/lv_theme_mono.c ****     def.text.letter_space = 1;
 169              		.loc 1 66 0
 170 0062 94F84810 		ldrb	r1, [r4, #72]	@ zero_extendqisi2
 171 0066 65F30001 		bfi	r1, r5, #0, #1
 172 006a 84F84810 		strb	r1, [r4, #72]
  67:..\lvgl\lv_themes/lv_theme_mono.c ****     def.text.line_space = 1;
 173              		.loc 1 67 0
 174 006e A4F85020 		strh	r2, [r4, #80]	@ movhi
  68:..\lvgl\lv_themes/lv_theme_mono.c **** 
 175              		.loc 1 68 0
 176 0072 A4F85220 		strh	r2, [r4, #82]	@ movhi
  70:..\lvgl\lv_themes/lv_theme_mono.c ****     def.line.opa = LV_OPA_COVER;
 177              		.loc 1 70 0
 178 0076 94F85C10 		ldrb	r1, [r4, #92]	@ zero_extendqisi2
 179 007a 65F30001 		bfi	r1, r5, #0, #1
 180 007e 84F85C10 		strb	r1, [r4, #92]
  71:..\lvgl\lv_themes/lv_theme_mono.c ****     def.line.width = 1;
 181              		.loc 1 71 0
 182 0082 84F86030 		strb	r3, [r4, #96]
  72:..\lvgl\lv_themes/lv_theme_mono.c **** 
 183              		.loc 1 72 0
 184 0086 A4F85E20 		strh	r2, [r4, #94]	@ movhi
  74:..\lvgl\lv_themes/lv_theme_mono.c ****     def.image.intense = LV_OPA_TRANSP;
 185              		.loc 1 74 0
 186 008a 94F85820 		ldrb	r2, [r4, #88]	@ zero_extendqisi2
 187 008e 65F30002 		bfi	r2, r5, #0, #1
 188 0092 84F85820 		strb	r2, [r4, #88]
  75:..\lvgl\lv_themes/lv_theme_mono.c ****     def.image.opa = LV_OPA_COVER;
 189              		.loc 1 75 0
 190 0096 84F85950 		strb	r5, [r4, #89]
  76:..\lvgl\lv_themes/lv_theme_mono.c **** 
ARM GAS  C:\Users\d3bug\AppData\Local\Temp\ccxaLH4S.s 			page 7


 191              		.loc 1 76 0
 192 009a 84F85A30 		strb	r3, [r4, #90]
  78:..\lvgl\lv_themes/lv_theme_mono.c **** 
 193              		.loc 1 78 0
 194 009e 04F1D80A 		add	r10, r4, #216
 195 00a2 3146     		mov	r1, r6
 196 00a4 5046     		mov	r0, r10
 197 00a6 FFF7FEFF 		bl	lv_style_copy
 198              	.LVL1:
  80:..\lvgl\lv_themes/lv_theme_mono.c ****     light_frame.body.radius = LV_DPI / 20;
 199              		.loc 1 80 0
 200 00aa 04F16407 		add	r7, r4, #100
 201 00ae 5146     		mov	r1, r10
 202 00b0 3846     		mov	r0, r7
 203 00b2 FFF7FEFF 		bl	lv_style_copy
 204              	.LVL2:
  81:..\lvgl\lv_themes/lv_theme_mono.c **** 
 205              		.loc 1 81 0
 206 00b6 4FF00508 		mov	r8, #5
 207 00ba A4F86880 		strh	r8, [r4, #104]	@ movhi
  83:..\lvgl\lv_themes/lv_theme_mono.c ****     dark_plain.body.main_color = LV_COLOR_BLACK;
 208              		.loc 1 83 0
 209 00be 04F58879 		add	r9, r4, #272
 210 00c2 5146     		mov	r1, r10
 211 00c4 4846     		mov	r0, r9
 212 00c6 FFF7FEFF 		bl	lv_style_copy
 213              	.LVL3:
  84:..\lvgl\lv_themes/lv_theme_mono.c ****     dark_plain.body.grad_color = LV_COLOR_BLACK;
 214              		.loc 1 84 0
 215 00ca 94F81231 		ldrb	r3, [r4, #274]	@ zero_extendqisi2
 216 00ce 65F30003 		bfi	r3, r5, #0, #1
 217 00d2 84F81231 		strb	r3, [r4, #274]
  85:..\lvgl\lv_themes/lv_theme_mono.c ****     dark_plain.body.border.color = LV_COLOR_WHITE;
 218              		.loc 1 85 0
 219 00d6 94F81331 		ldrb	r3, [r4, #275]	@ zero_extendqisi2
 220 00da 65F30003 		bfi	r3, r5, #0, #1
 221 00de 84F81331 		strb	r3, [r4, #275]
  86:..\lvgl\lv_themes/lv_theme_mono.c ****     dark_plain.text.color = LV_COLOR_WHITE;
 222              		.loc 1 86 0
 223 00e2 94F81831 		ldrb	r3, [r4, #280]	@ zero_extendqisi2
 224 00e6 43F00103 		orr	r3, r3, #1
 225 00ea 84F81831 		strb	r3, [r4, #280]
  87:..\lvgl\lv_themes/lv_theme_mono.c ****     dark_plain.line.color = LV_COLOR_WHITE;
 226              		.loc 1 87 0
 227 00ee 94F82C31 		ldrb	r3, [r4, #300]	@ zero_extendqisi2
 228 00f2 43F00103 		orr	r3, r3, #1
 229 00f6 84F82C31 		strb	r3, [r4, #300]
  88:..\lvgl\lv_themes/lv_theme_mono.c ****     dark_plain.image.color = LV_COLOR_WHITE;
 230              		.loc 1 88 0
 231 00fa 94F84031 		ldrb	r3, [r4, #320]	@ zero_extendqisi2
 232 00fe 43F00103 		orr	r3, r3, #1
 233 0102 84F84031 		strb	r3, [r4, #320]
  89:..\lvgl\lv_themes/lv_theme_mono.c **** 
 234              		.loc 1 89 0
 235 0106 94F83C31 		ldrb	r3, [r4, #316]	@ zero_extendqisi2
 236 010a 43F00103 		orr	r3, r3, #1
 237 010e 84F83C31 		strb	r3, [r4, #316]
ARM GAS  C:\Users\d3bug\AppData\Local\Temp\ccxaLH4S.s 			page 8


  91:..\lvgl\lv_themes/lv_theme_mono.c ****     dark_frame.body.radius = LV_DPI / 20;
 238              		.loc 1 91 0
 239 0112 4946     		mov	r1, r9
 240 0114 04F19C00 		add	r0, r4, #156
 241 0118 FFF7FEFF 		bl	lv_style_copy
 242              	.LVL4:
  92:..\lvgl\lv_themes/lv_theme_mono.c **** 
 243              		.loc 1 92 0
 244 011c A4F8A080 		strh	r8, [r4, #160]	@ movhi
  94:..\lvgl\lv_themes/lv_theme_mono.c ****     theme.panel = &light_frame;
 245              		.loc 1 94 0
 246 0120 2660     		str	r6, [r4]
  95:..\lvgl\lv_themes/lv_theme_mono.c **** 
 247              		.loc 1 95 0
 248 0122 6760     		str	r7, [r4, #4]
 249 0124 BDE8F087 		pop	{r4, r5, r6, r7, r8, r9, r10, pc}
 250              	.L13:
 251              		.align	2
 252              	.L12:
 253 0128 00000000 		.word	.LANCHOR0
 254 012c 00000000 		.word	lv_style_plain
 255              		.cfi_endproc
 256              	.LFE12:
 257              		.size	basic_init, .-basic_init
 258              		.section	.text.lv_theme_mono_init,"ax",%progbits
 259              		.align	2
 260              		.global	lv_theme_mono_init
 261              		.thumb
 262              		.thumb_func
 263              		.type	lv_theme_mono_init, %function
 264              	lv_theme_mono_init:
 265              	.LFB37:
 130:..\lvgl\lv_themes/lv_theme_mono.c **** #endif
 131:..\lvgl\lv_themes/lv_theme_mono.c **** }
 132:..\lvgl\lv_themes/lv_theme_mono.c **** 
 133:..\lvgl\lv_themes/lv_theme_mono.c **** static void img_init(void)
 134:..\lvgl\lv_themes/lv_theme_mono.c **** {
 135:..\lvgl\lv_themes/lv_theme_mono.c **** #if USE_LV_IMG != 0
 136:..\lvgl\lv_themes/lv_theme_mono.c **** 
 137:..\lvgl\lv_themes/lv_theme_mono.c **** 
 138:..\lvgl\lv_themes/lv_theme_mono.c ****     theme.img.light = &def;
 139:..\lvgl\lv_themes/lv_theme_mono.c ****     theme.img.dark = &def;
 140:..\lvgl\lv_themes/lv_theme_mono.c **** #endif
 141:..\lvgl\lv_themes/lv_theme_mono.c **** }
 142:..\lvgl\lv_themes/lv_theme_mono.c **** 
 143:..\lvgl\lv_themes/lv_theme_mono.c **** static void line_init(void)
 144:..\lvgl\lv_themes/lv_theme_mono.c **** {
 145:..\lvgl\lv_themes/lv_theme_mono.c **** #if USE_LV_LINE != 0
 146:..\lvgl\lv_themes/lv_theme_mono.c ****     theme.line.decor = NULL;
 147:..\lvgl\lv_themes/lv_theme_mono.c **** #endif
 148:..\lvgl\lv_themes/lv_theme_mono.c **** }
 149:..\lvgl\lv_themes/lv_theme_mono.c **** 
 150:..\lvgl\lv_themes/lv_theme_mono.c **** static void led_init(void)
 151:..\lvgl\lv_themes/lv_theme_mono.c **** {
 152:..\lvgl\lv_themes/lv_theme_mono.c **** #if USE_LV_LED != 0
 153:..\lvgl\lv_themes/lv_theme_mono.c ****     static lv_style_t led;
 154:..\lvgl\lv_themes/lv_theme_mono.c ****     lv_style_copy(&led, &light_frame);
ARM GAS  C:\Users\d3bug\AppData\Local\Temp\ccxaLH4S.s 			page 9


 155:..\lvgl\lv_themes/lv_theme_mono.c ****     led.body.radius = LV_RADIUS_CIRCLE;
 156:..\lvgl\lv_themes/lv_theme_mono.c ****     led.body.shadow.width = LV_DPI / 8;
 157:..\lvgl\lv_themes/lv_theme_mono.c ****     led.body.shadow.color = LV_COLOR_BLACK;
 158:..\lvgl\lv_themes/lv_theme_mono.c ****     led.body.shadow.type = LV_SHADOW_FULL;
 159:..\lvgl\lv_themes/lv_theme_mono.c **** 
 160:..\lvgl\lv_themes/lv_theme_mono.c ****     theme.led = &led;
 161:..\lvgl\lv_themes/lv_theme_mono.c **** #endif
 162:..\lvgl\lv_themes/lv_theme_mono.c **** }
 163:..\lvgl\lv_themes/lv_theme_mono.c **** 
 164:..\lvgl\lv_themes/lv_theme_mono.c **** static void bar_init(void)
 165:..\lvgl\lv_themes/lv_theme_mono.c **** {
 166:..\lvgl\lv_themes/lv_theme_mono.c **** #if USE_LV_BAR
 167:..\lvgl\lv_themes/lv_theme_mono.c ****     static lv_style_t bar_bg;
 168:..\lvgl\lv_themes/lv_theme_mono.c ****     static lv_style_t bar_indic;
 169:..\lvgl\lv_themes/lv_theme_mono.c **** 
 170:..\lvgl\lv_themes/lv_theme_mono.c ****     lv_style_copy(&bar_bg, &light_frame);
 171:..\lvgl\lv_themes/lv_theme_mono.c ****     bar_bg.body.padding.hor = LV_DPI / 15;
 172:..\lvgl\lv_themes/lv_theme_mono.c ****     bar_bg.body.padding.ver = LV_DPI / 15;
 173:..\lvgl\lv_themes/lv_theme_mono.c ****     bar_bg.body.radius = LV_RADIUS_CIRCLE;
 174:..\lvgl\lv_themes/lv_theme_mono.c **** 
 175:..\lvgl\lv_themes/lv_theme_mono.c ****     lv_style_copy(&bar_indic, &dark_frame);
 176:..\lvgl\lv_themes/lv_theme_mono.c ****     bar_indic.body.padding.hor = LV_DPI / 30;
 177:..\lvgl\lv_themes/lv_theme_mono.c ****     bar_indic.body.padding.ver = LV_DPI / 30;
 178:..\lvgl\lv_themes/lv_theme_mono.c ****     bar_indic.body.radius = LV_RADIUS_CIRCLE;
 179:..\lvgl\lv_themes/lv_theme_mono.c **** 
 180:..\lvgl\lv_themes/lv_theme_mono.c ****     theme.bar.bg = &bar_bg;
 181:..\lvgl\lv_themes/lv_theme_mono.c ****     theme.bar.indic = &bar_indic;
 182:..\lvgl\lv_themes/lv_theme_mono.c **** #endif
 183:..\lvgl\lv_themes/lv_theme_mono.c **** }
 184:..\lvgl\lv_themes/lv_theme_mono.c **** 
 185:..\lvgl\lv_themes/lv_theme_mono.c **** static void slider_init(void)
 186:..\lvgl\lv_themes/lv_theme_mono.c **** {
 187:..\lvgl\lv_themes/lv_theme_mono.c **** #if USE_LV_SLIDER != 0
 188:..\lvgl\lv_themes/lv_theme_mono.c ****     static lv_style_t slider_knob;
 189:..\lvgl\lv_themes/lv_theme_mono.c ****     lv_style_copy(&slider_knob, &light_frame);
 190:..\lvgl\lv_themes/lv_theme_mono.c ****     slider_knob.body.radius = LV_RADIUS_CIRCLE;
 191:..\lvgl\lv_themes/lv_theme_mono.c ****     slider_knob.body.padding.hor = LV_DPI / 30;
 192:..\lvgl\lv_themes/lv_theme_mono.c ****     slider_knob.body.padding.ver = LV_DPI / 30;
 193:..\lvgl\lv_themes/lv_theme_mono.c **** 
 194:..\lvgl\lv_themes/lv_theme_mono.c ****     theme.slider.bg = theme.bar.bg;
 195:..\lvgl\lv_themes/lv_theme_mono.c ****     theme.slider.indic = theme.bar.indic;
 196:..\lvgl\lv_themes/lv_theme_mono.c ****     theme.slider.knob = &slider_knob;
 197:..\lvgl\lv_themes/lv_theme_mono.c **** #endif
 198:..\lvgl\lv_themes/lv_theme_mono.c **** }
 199:..\lvgl\lv_themes/lv_theme_mono.c **** 
 200:..\lvgl\lv_themes/lv_theme_mono.c **** static void sw_init(void)
 201:..\lvgl\lv_themes/lv_theme_mono.c **** {
 202:..\lvgl\lv_themes/lv_theme_mono.c **** #if USE_LV_SW != 0
 203:..\lvgl\lv_themes/lv_theme_mono.c **** 
 204:..\lvgl\lv_themes/lv_theme_mono.c **** 
 205:..\lvgl\lv_themes/lv_theme_mono.c ****     theme.sw.bg = theme.slider.bg;
 206:..\lvgl\lv_themes/lv_theme_mono.c ****     theme.sw.indic = theme.slider.indic;
 207:..\lvgl\lv_themes/lv_theme_mono.c ****     theme.sw.knob_off = theme.slider.knob;
 208:..\lvgl\lv_themes/lv_theme_mono.c ****     theme.sw.knob_on = theme.slider.knob;
 209:..\lvgl\lv_themes/lv_theme_mono.c **** #endif
 210:..\lvgl\lv_themes/lv_theme_mono.c **** }
 211:..\lvgl\lv_themes/lv_theme_mono.c **** 
ARM GAS  C:\Users\d3bug\AppData\Local\Temp\ccxaLH4S.s 			page 10


 212:..\lvgl\lv_themes/lv_theme_mono.c **** 
 213:..\lvgl\lv_themes/lv_theme_mono.c **** static void lmeter_init(void)
 214:..\lvgl\lv_themes/lv_theme_mono.c **** {
 215:..\lvgl\lv_themes/lv_theme_mono.c **** #if USE_LV_LMETER != 0
 216:..\lvgl\lv_themes/lv_theme_mono.c ****     static lv_style_t lmeter_bg;
 217:..\lvgl\lv_themes/lv_theme_mono.c ****     lv_style_copy(&lmeter_bg, &light_frame);
 218:..\lvgl\lv_themes/lv_theme_mono.c ****     lmeter_bg.body.empty = 1;
 219:..\lvgl\lv_themes/lv_theme_mono.c ****     lmeter_bg.body.main_color = LV_COLOR_BLACK;
 220:..\lvgl\lv_themes/lv_theme_mono.c ****     lmeter_bg.body.grad_color = LV_COLOR_BLACK;
 221:..\lvgl\lv_themes/lv_theme_mono.c ****     lmeter_bg.body.padding.hor = LV_DPI / 20;
 222:..\lvgl\lv_themes/lv_theme_mono.c ****     lmeter_bg.body.padding.inner = LV_DPI / 8;
 223:..\lvgl\lv_themes/lv_theme_mono.c ****     lmeter_bg.line.color = LV_COLOR_WHITE;
 224:..\lvgl\lv_themes/lv_theme_mono.c ****     lmeter_bg.line.width = 1;
 225:..\lvgl\lv_themes/lv_theme_mono.c **** 
 226:..\lvgl\lv_themes/lv_theme_mono.c ****     theme.lmeter = &lmeter_bg;
 227:..\lvgl\lv_themes/lv_theme_mono.c **** #endif
 228:..\lvgl\lv_themes/lv_theme_mono.c **** }
 229:..\lvgl\lv_themes/lv_theme_mono.c **** 
 230:..\lvgl\lv_themes/lv_theme_mono.c **** static void gauge_init(void)
 231:..\lvgl\lv_themes/lv_theme_mono.c **** {
 232:..\lvgl\lv_themes/lv_theme_mono.c **** #if USE_LV_GAUGE != 0
 233:..\lvgl\lv_themes/lv_theme_mono.c ****     static lv_style_t gauge_bg;
 234:..\lvgl\lv_themes/lv_theme_mono.c ****     lv_style_copy(&gauge_bg, theme.lmeter);
 235:..\lvgl\lv_themes/lv_theme_mono.c ****     gauge_bg.line.color = LV_COLOR_BLACK;
 236:..\lvgl\lv_themes/lv_theme_mono.c ****     gauge_bg.line.width = 1;
 237:..\lvgl\lv_themes/lv_theme_mono.c **** 
 238:..\lvgl\lv_themes/lv_theme_mono.c **** 
 239:..\lvgl\lv_themes/lv_theme_mono.c ****     theme.gauge = &gauge_bg;
 240:..\lvgl\lv_themes/lv_theme_mono.c **** #endif
 241:..\lvgl\lv_themes/lv_theme_mono.c **** }
 242:..\lvgl\lv_themes/lv_theme_mono.c **** 
 243:..\lvgl\lv_themes/lv_theme_mono.c **** static void chart_init(void)
 244:..\lvgl\lv_themes/lv_theme_mono.c **** {
 245:..\lvgl\lv_themes/lv_theme_mono.c **** #if USE_LV_CHART
 246:..\lvgl\lv_themes/lv_theme_mono.c ****     theme.chart = &light_frame;
 247:..\lvgl\lv_themes/lv_theme_mono.c **** #endif
 248:..\lvgl\lv_themes/lv_theme_mono.c **** }
 249:..\lvgl\lv_themes/lv_theme_mono.c **** 
 250:..\lvgl\lv_themes/lv_theme_mono.c **** static void calendar_init(void)
 251:..\lvgl\lv_themes/lv_theme_mono.c **** {
 252:..\lvgl\lv_themes/lv_theme_mono.c **** #if USE_LV_CALENDAR
 253:..\lvgl\lv_themes/lv_theme_mono.c ****     static lv_style_t box;
 254:..\lvgl\lv_themes/lv_theme_mono.c ****     lv_style_copy(&box, &light_plain);
 255:..\lvgl\lv_themes/lv_theme_mono.c ****     box.body.padding.ver = LV_DPI / 20;
 256:..\lvgl\lv_themes/lv_theme_mono.c **** 
 257:..\lvgl\lv_themes/lv_theme_mono.c ****     /*Can't handle highlighted dates in this theme*/
 258:..\lvgl\lv_themes/lv_theme_mono.c ****     theme.calendar.week_box = &box;
 259:..\lvgl\lv_themes/lv_theme_mono.c ****     theme.calendar.today_box = &box;
 260:..\lvgl\lv_themes/lv_theme_mono.c **** #endif
 261:..\lvgl\lv_themes/lv_theme_mono.c **** }
 262:..\lvgl\lv_themes/lv_theme_mono.c **** 
 263:..\lvgl\lv_themes/lv_theme_mono.c **** static void cb_init(void)
 264:..\lvgl\lv_themes/lv_theme_mono.c **** {
 265:..\lvgl\lv_themes/lv_theme_mono.c **** #if USE_LV_CB != 0
 266:..\lvgl\lv_themes/lv_theme_mono.c **** 
 267:..\lvgl\lv_themes/lv_theme_mono.c **** 
 268:..\lvgl\lv_themes/lv_theme_mono.c ****     theme.cb.bg = &lv_style_transp;
ARM GAS  C:\Users\d3bug\AppData\Local\Temp\ccxaLH4S.s 			page 11


 269:..\lvgl\lv_themes/lv_theme_mono.c ****     theme.cb.box.rel = &light_frame;
 270:..\lvgl\lv_themes/lv_theme_mono.c ****     theme.cb.box.pr = &dark_frame;
 271:..\lvgl\lv_themes/lv_theme_mono.c ****     theme.cb.box.tgl_rel = &dark_frame;
 272:..\lvgl\lv_themes/lv_theme_mono.c ****     theme.cb.box.tgl_pr = &light_frame;
 273:..\lvgl\lv_themes/lv_theme_mono.c ****     theme.cb.box.ina = &light_frame;
 274:..\lvgl\lv_themes/lv_theme_mono.c **** #endif
 275:..\lvgl\lv_themes/lv_theme_mono.c **** }
 276:..\lvgl\lv_themes/lv_theme_mono.c **** 
 277:..\lvgl\lv_themes/lv_theme_mono.c **** 
 278:..\lvgl\lv_themes/lv_theme_mono.c **** static void btnm_init(void)
 279:..\lvgl\lv_themes/lv_theme_mono.c **** {
 280:..\lvgl\lv_themes/lv_theme_mono.c **** #if USE_LV_BTNM
 281:..\lvgl\lv_themes/lv_theme_mono.c **** 
 282:..\lvgl\lv_themes/lv_theme_mono.c **** 
 283:..\lvgl\lv_themes/lv_theme_mono.c ****     theme.btnm.bg = &light_frame;
 284:..\lvgl\lv_themes/lv_theme_mono.c ****     theme.btnm.btn.rel = &light_frame;
 285:..\lvgl\lv_themes/lv_theme_mono.c ****     theme.btnm.btn.pr = &dark_frame;
 286:..\lvgl\lv_themes/lv_theme_mono.c ****     theme.btnm.btn.tgl_rel = &dark_frame;
 287:..\lvgl\lv_themes/lv_theme_mono.c ****     theme.btnm.btn.tgl_pr = &light_frame;
 288:..\lvgl\lv_themes/lv_theme_mono.c ****     theme.btnm.btn.ina = &light_frame;
 289:..\lvgl\lv_themes/lv_theme_mono.c **** #endif
 290:..\lvgl\lv_themes/lv_theme_mono.c **** }
 291:..\lvgl\lv_themes/lv_theme_mono.c **** 
 292:..\lvgl\lv_themes/lv_theme_mono.c **** static void kb_init(void)
 293:..\lvgl\lv_themes/lv_theme_mono.c **** {
 294:..\lvgl\lv_themes/lv_theme_mono.c **** #if USE_LV_KB
 295:..\lvgl\lv_themes/lv_theme_mono.c ****     theme.kb.bg = &lv_style_transp_fit;
 296:..\lvgl\lv_themes/lv_theme_mono.c ****     theme.kb.btn.rel = &light_frame;
 297:..\lvgl\lv_themes/lv_theme_mono.c ****     theme.kb.btn.pr = &light_frame;
 298:..\lvgl\lv_themes/lv_theme_mono.c ****     theme.kb.btn.tgl_rel = &dark_frame;
 299:..\lvgl\lv_themes/lv_theme_mono.c ****     theme.kb.btn.tgl_pr = &dark_frame;
 300:..\lvgl\lv_themes/lv_theme_mono.c ****     theme.kb.btn.ina = &light_frame;
 301:..\lvgl\lv_themes/lv_theme_mono.c **** #endif
 302:..\lvgl\lv_themes/lv_theme_mono.c **** 
 303:..\lvgl\lv_themes/lv_theme_mono.c **** }
 304:..\lvgl\lv_themes/lv_theme_mono.c **** 
 305:..\lvgl\lv_themes/lv_theme_mono.c **** static void mbox_init(void)
 306:..\lvgl\lv_themes/lv_theme_mono.c **** {
 307:..\lvgl\lv_themes/lv_theme_mono.c **** #if USE_LV_MBOX
 308:..\lvgl\lv_themes/lv_theme_mono.c **** 
 309:..\lvgl\lv_themes/lv_theme_mono.c **** 
 310:..\lvgl\lv_themes/lv_theme_mono.c ****     theme.mbox.bg = &dark_frame;
 311:..\lvgl\lv_themes/lv_theme_mono.c ****     theme.mbox.btn.bg = &lv_style_transp_fit;
 312:..\lvgl\lv_themes/lv_theme_mono.c ****     theme.mbox.btn.rel = &light_frame;
 313:..\lvgl\lv_themes/lv_theme_mono.c ****     theme.mbox.btn.pr = &dark_frame;
 314:..\lvgl\lv_themes/lv_theme_mono.c **** #endif
 315:..\lvgl\lv_themes/lv_theme_mono.c **** }
 316:..\lvgl\lv_themes/lv_theme_mono.c **** 
 317:..\lvgl\lv_themes/lv_theme_mono.c **** static void page_init(void)
 318:..\lvgl\lv_themes/lv_theme_mono.c **** {
 319:..\lvgl\lv_themes/lv_theme_mono.c **** #if USE_LV_PAGE
 320:..\lvgl\lv_themes/lv_theme_mono.c **** 
 321:..\lvgl\lv_themes/lv_theme_mono.c **** 
 322:..\lvgl\lv_themes/lv_theme_mono.c ****     theme.page.bg = &light_frame;
 323:..\lvgl\lv_themes/lv_theme_mono.c ****     theme.page.scrl = &light_frame;
 324:..\lvgl\lv_themes/lv_theme_mono.c ****     theme.page.sb = &dark_frame;
 325:..\lvgl\lv_themes/lv_theme_mono.c **** #endif
ARM GAS  C:\Users\d3bug\AppData\Local\Temp\ccxaLH4S.s 			page 12


 326:..\lvgl\lv_themes/lv_theme_mono.c **** }
 327:..\lvgl\lv_themes/lv_theme_mono.c **** 
 328:..\lvgl\lv_themes/lv_theme_mono.c **** static void ta_init(void)
 329:..\lvgl\lv_themes/lv_theme_mono.c **** {
 330:..\lvgl\lv_themes/lv_theme_mono.c **** #if USE_LV_TA
 331:..\lvgl\lv_themes/lv_theme_mono.c **** 
 332:..\lvgl\lv_themes/lv_theme_mono.c **** 
 333:..\lvgl\lv_themes/lv_theme_mono.c ****     theme.ta.area = &light_frame;
 334:..\lvgl\lv_themes/lv_theme_mono.c ****     theme.ta.oneline = &light_frame;
 335:..\lvgl\lv_themes/lv_theme_mono.c ****     theme.ta.cursor = NULL;     /*Let library to calculate the cursor's style*/
 336:..\lvgl\lv_themes/lv_theme_mono.c ****     theme.ta.sb = &dark_frame;
 337:..\lvgl\lv_themes/lv_theme_mono.c **** #endif
 338:..\lvgl\lv_themes/lv_theme_mono.c **** }
 339:..\lvgl\lv_themes/lv_theme_mono.c **** 
 340:..\lvgl\lv_themes/lv_theme_mono.c **** static void list_init(void)
 341:..\lvgl\lv_themes/lv_theme_mono.c **** {
 342:..\lvgl\lv_themes/lv_theme_mono.c **** #if USE_LV_LIST != 0
 343:..\lvgl\lv_themes/lv_theme_mono.c **** 
 344:..\lvgl\lv_themes/lv_theme_mono.c **** 
 345:..\lvgl\lv_themes/lv_theme_mono.c ****     theme.list.sb = &dark_frame;
 346:..\lvgl\lv_themes/lv_theme_mono.c ****     theme.list.bg = &light_frame;
 347:..\lvgl\lv_themes/lv_theme_mono.c ****     theme.list.scrl = &lv_style_transp_fit;
 348:..\lvgl\lv_themes/lv_theme_mono.c ****     theme.list.btn.rel = &light_plain;
 349:..\lvgl\lv_themes/lv_theme_mono.c ****     theme.list.btn.pr = &dark_plain;
 350:..\lvgl\lv_themes/lv_theme_mono.c ****     theme.list.btn.tgl_rel = &dark_plain;
 351:..\lvgl\lv_themes/lv_theme_mono.c ****     theme.list.btn.tgl_pr = &light_plain;
 352:..\lvgl\lv_themes/lv_theme_mono.c ****     theme.list.btn.ina = &light_plain;
 353:..\lvgl\lv_themes/lv_theme_mono.c **** #endif
 354:..\lvgl\lv_themes/lv_theme_mono.c **** }
 355:..\lvgl\lv_themes/lv_theme_mono.c **** 
 356:..\lvgl\lv_themes/lv_theme_mono.c **** static void ddlist_init(void)
 357:..\lvgl\lv_themes/lv_theme_mono.c **** {
 358:..\lvgl\lv_themes/lv_theme_mono.c **** #if USE_LV_DDLIST != 0
 359:..\lvgl\lv_themes/lv_theme_mono.c ****     static lv_style_t bg;
 360:..\lvgl\lv_themes/lv_theme_mono.c ****     lv_style_copy(&bg, &light_frame);
 361:..\lvgl\lv_themes/lv_theme_mono.c ****     bg.text.line_space = LV_DPI / 12;
 362:..\lvgl\lv_themes/lv_theme_mono.c **** 
 363:..\lvgl\lv_themes/lv_theme_mono.c ****     theme.ddlist.bg = &bg;
 364:..\lvgl\lv_themes/lv_theme_mono.c ****     theme.ddlist.sel = &dark_plain;
 365:..\lvgl\lv_themes/lv_theme_mono.c ****     theme.ddlist.sb = &dark_frame;
 366:..\lvgl\lv_themes/lv_theme_mono.c **** #endif
 367:..\lvgl\lv_themes/lv_theme_mono.c **** }
 368:..\lvgl\lv_themes/lv_theme_mono.c **** 
 369:..\lvgl\lv_themes/lv_theme_mono.c **** static void roller_init(void)
 370:..\lvgl\lv_themes/lv_theme_mono.c **** {
 371:..\lvgl\lv_themes/lv_theme_mono.c **** #if USE_LV_ROLLER != 0
 372:..\lvgl\lv_themes/lv_theme_mono.c ****     static lv_style_t bg;
 373:..\lvgl\lv_themes/lv_theme_mono.c ****     lv_style_copy(&bg, &light_frame);
 374:..\lvgl\lv_themes/lv_theme_mono.c ****     bg.text.line_space = LV_DPI / 12;
 375:..\lvgl\lv_themes/lv_theme_mono.c **** 
 376:..\lvgl\lv_themes/lv_theme_mono.c ****     theme.roller.bg = &bg;
 377:..\lvgl\lv_themes/lv_theme_mono.c ****     theme.roller.sel = &dark_frame;
 378:..\lvgl\lv_themes/lv_theme_mono.c **** #endif
 379:..\lvgl\lv_themes/lv_theme_mono.c **** }
 380:..\lvgl\lv_themes/lv_theme_mono.c **** 
 381:..\lvgl\lv_themes/lv_theme_mono.c **** static void tabview_init(void)
 382:..\lvgl\lv_themes/lv_theme_mono.c **** {
ARM GAS  C:\Users\d3bug\AppData\Local\Temp\ccxaLH4S.s 			page 13


 383:..\lvgl\lv_themes/lv_theme_mono.c **** #if USE_LV_TABVIEW != 0
 384:..\lvgl\lv_themes/lv_theme_mono.c **** 
 385:..\lvgl\lv_themes/lv_theme_mono.c **** 
 386:..\lvgl\lv_themes/lv_theme_mono.c ****     theme.tabview.bg = &light_frame;
 387:..\lvgl\lv_themes/lv_theme_mono.c ****     theme.tabview.indic = &light_plain;
 388:..\lvgl\lv_themes/lv_theme_mono.c ****     theme.tabview.btn.bg = &lv_style_transp_fit;
 389:..\lvgl\lv_themes/lv_theme_mono.c ****     theme.tabview.btn.rel = &light_frame;
 390:..\lvgl\lv_themes/lv_theme_mono.c ****     theme.tabview.btn.pr = &dark_frame;
 391:..\lvgl\lv_themes/lv_theme_mono.c ****     theme.tabview.btn.tgl_rel = &dark_frame;
 392:..\lvgl\lv_themes/lv_theme_mono.c ****     theme.tabview.btn.tgl_pr = &light_frame;
 393:..\lvgl\lv_themes/lv_theme_mono.c **** #endif
 394:..\lvgl\lv_themes/lv_theme_mono.c **** }
 395:..\lvgl\lv_themes/lv_theme_mono.c **** 
 396:..\lvgl\lv_themes/lv_theme_mono.c **** 
 397:..\lvgl\lv_themes/lv_theme_mono.c **** static void win_init(void)
 398:..\lvgl\lv_themes/lv_theme_mono.c **** {
 399:..\lvgl\lv_themes/lv_theme_mono.c **** #if USE_LV_WIN != 0
 400:..\lvgl\lv_themes/lv_theme_mono.c ****     static lv_style_t win_header;
 401:..\lvgl\lv_themes/lv_theme_mono.c ****     lv_style_copy(&win_header, &dark_plain);
 402:..\lvgl\lv_themes/lv_theme_mono.c ****     win_header.body.padding.hor = LV_DPI / 30;
 403:..\lvgl\lv_themes/lv_theme_mono.c ****     win_header.body.padding.ver = LV_DPI / 30;
 404:..\lvgl\lv_themes/lv_theme_mono.c **** 
 405:..\lvgl\lv_themes/lv_theme_mono.c ****     theme.win.bg = &light_frame;
 406:..\lvgl\lv_themes/lv_theme_mono.c ****     theme.win.sb = &dark_frame;
 407:..\lvgl\lv_themes/lv_theme_mono.c ****     theme.win.header = &win_header;
 408:..\lvgl\lv_themes/lv_theme_mono.c ****     theme.win.content.bg = &lv_style_transp;
 409:..\lvgl\lv_themes/lv_theme_mono.c ****     theme.win.content.scrl = &lv_style_transp;
 410:..\lvgl\lv_themes/lv_theme_mono.c ****     theme.win.btn.rel = &light_frame;
 411:..\lvgl\lv_themes/lv_theme_mono.c ****     theme.win.btn.pr = &dark_frame;
 412:..\lvgl\lv_themes/lv_theme_mono.c **** #endif
 413:..\lvgl\lv_themes/lv_theme_mono.c **** }
 414:..\lvgl\lv_themes/lv_theme_mono.c **** 
 415:..\lvgl\lv_themes/lv_theme_mono.c **** /**********************
 416:..\lvgl\lv_themes/lv_theme_mono.c ****  *   GLOBAL FUNCTIONS
 417:..\lvgl\lv_themes/lv_theme_mono.c ****  **********************/
 418:..\lvgl\lv_themes/lv_theme_mono.c **** 
 419:..\lvgl\lv_themes/lv_theme_mono.c **** 
 420:..\lvgl\lv_themes/lv_theme_mono.c **** 
 421:..\lvgl\lv_themes/lv_theme_mono.c **** /**
 422:..\lvgl\lv_themes/lv_theme_mono.c ****  * Initialize the mono theme
 423:..\lvgl\lv_themes/lv_theme_mono.c ****  * @param hue [0..360] hue value from HSV color space to define the theme's base color; is not used
 424:..\lvgl\lv_themes/lv_theme_mono.c ****  * @param font pointer to a font (NULL to use the default)
 425:..\lvgl\lv_themes/lv_theme_mono.c ****  * @return pointer to the initialized theme
 426:..\lvgl\lv_themes/lv_theme_mono.c ****  */
 427:..\lvgl\lv_themes/lv_theme_mono.c **** lv_theme_t * lv_theme_mono_init(uint16_t hue, lv_font_t * font)
 428:..\lvgl\lv_themes/lv_theme_mono.c **** {
 266              		.loc 1 428 0
 267              		.cfi_startproc
 268              		@ args = 0, pretend = 0, frame = 0
 269              		@ frame_needed = 0, uses_anonymous_args = 0
 270              	.LVL5:
 271 0000 08B5     		push	{r3, lr}
 272              		.cfi_def_cfa_offset 8
 273              		.cfi_offset 3, -8
 274              		.cfi_offset 14, -4
 429:..\lvgl\lv_themes/lv_theme_mono.c **** 
 430:..\lvgl\lv_themes/lv_theme_mono.c ****     (void)hue;  /*Unused*/
ARM GAS  C:\Users\d3bug\AppData\Local\Temp\ccxaLH4S.s 			page 14


 431:..\lvgl\lv_themes/lv_theme_mono.c **** 
 432:..\lvgl\lv_themes/lv_theme_mono.c ****     if(font == NULL) font = LV_FONT_DEFAULT;
 275              		.loc 1 432 0
 276 0002 0B46     		mov	r3, r1
 277 0004 01B9     		cbnz	r1, .L15
 278 0006 0B4B     		ldr	r3, .L20
 279              	.L15:
 280              	.LVL6:
 433:..\lvgl\lv_themes/lv_theme_mono.c **** 
 434:..\lvgl\lv_themes/lv_theme_mono.c ****     _font = font;
 281              		.loc 1 434 0
 282 0008 0B4A     		ldr	r2, .L20+4
 283 000a C2F8D430 		str	r3, [r2, #212]
 284              	.LVL7:
 435:..\lvgl\lv_themes/lv_theme_mono.c **** 
 436:..\lvgl\lv_themes/lv_theme_mono.c ****     /*For backward compatibility initialize all theme elements with a default style */
 437:..\lvgl\lv_themes/lv_theme_mono.c ****     uint16_t i;
 438:..\lvgl\lv_themes/lv_theme_mono.c ****     lv_style_t ** style_p = (lv_style_t **) &theme;
 439:..\lvgl\lv_themes/lv_theme_mono.c ****     for(i = 0; i < sizeof(lv_theme_t) / sizeof(lv_style_t *); i++) {
 285              		.loc 1 439 0
 286 000e 0023     		movs	r3, #0
 287              	.LVL8:
 288 0010 04E0     		b	.L16
 289              	.LVL9:
 290              	.L17:
 440:..\lvgl\lv_themes/lv_theme_mono.c ****         *style_p = &def;
 291              		.loc 1 440 0 discriminator 3
 292 0012 0A49     		ldr	r1, .L20+8
 293 0014 42F8041B 		str	r1, [r2], #4
 294              	.LVL10:
 439:..\lvgl\lv_themes/lv_theme_mono.c ****         *style_p = &def;
 295              		.loc 1 439 0 discriminator 3
 296 0018 0133     		adds	r3, r3, #1
 297              	.LVL11:
 298 001a 9BB2     		uxth	r3, r3
 299              	.LVL12:
 300              	.L16:
 439:..\lvgl\lv_themes/lv_theme_mono.c ****         *style_p = &def;
 301              		.loc 1 439 0 is_stmt 0 discriminator 1
 302 001c 0A2B     		cmp	r3, #10
 303 001e F8D9     		bls	.L17
 441:..\lvgl\lv_themes/lv_theme_mono.c ****         style_p++;
 442:..\lvgl\lv_themes/lv_theme_mono.c ****     }
 443:..\lvgl\lv_themes/lv_theme_mono.c **** 
 444:..\lvgl\lv_themes/lv_theme_mono.c ****     basic_init();
 304              		.loc 1 444 0 is_stmt 1
 305 0020 FFF7FEFF 		bl	basic_init
 306              	.LVL13:
 445:..\lvgl\lv_themes/lv_theme_mono.c ****     cont_init();
 307              		.loc 1 445 0
 308 0024 FFF7FEFF 		bl	cont_init
 309              	.LVL14:
 446:..\lvgl\lv_themes/lv_theme_mono.c ****     btn_init();
 310              		.loc 1 446 0
 311 0028 FFF7FEFF 		bl	btn_init
 312              	.LVL15:
 447:..\lvgl\lv_themes/lv_theme_mono.c ****     label_init();
ARM GAS  C:\Users\d3bug\AppData\Local\Temp\ccxaLH4S.s 			page 15


 313              		.loc 1 447 0
 314 002c FFF7FEFF 		bl	label_init
 315              	.LVL16:
 448:..\lvgl\lv_themes/lv_theme_mono.c ****     img_init();
 449:..\lvgl\lv_themes/lv_theme_mono.c ****     line_init();
 450:..\lvgl\lv_themes/lv_theme_mono.c ****     led_init();
 451:..\lvgl\lv_themes/lv_theme_mono.c ****     bar_init();
 452:..\lvgl\lv_themes/lv_theme_mono.c ****     slider_init();
 453:..\lvgl\lv_themes/lv_theme_mono.c ****     sw_init();
 454:..\lvgl\lv_themes/lv_theme_mono.c ****     lmeter_init();
 455:..\lvgl\lv_themes/lv_theme_mono.c ****     gauge_init();
 456:..\lvgl\lv_themes/lv_theme_mono.c ****     chart_init();
 457:..\lvgl\lv_themes/lv_theme_mono.c ****     calendar_init();
 458:..\lvgl\lv_themes/lv_theme_mono.c ****     cb_init();
 459:..\lvgl\lv_themes/lv_theme_mono.c ****     btnm_init();
 460:..\lvgl\lv_themes/lv_theme_mono.c ****     kb_init();
 461:..\lvgl\lv_themes/lv_theme_mono.c ****     mbox_init();
 462:..\lvgl\lv_themes/lv_theme_mono.c ****     page_init();
 463:..\lvgl\lv_themes/lv_theme_mono.c ****     ta_init();
 464:..\lvgl\lv_themes/lv_theme_mono.c ****     list_init();
 465:..\lvgl\lv_themes/lv_theme_mono.c ****     ddlist_init();
 466:..\lvgl\lv_themes/lv_theme_mono.c ****     roller_init();
 467:..\lvgl\lv_themes/lv_theme_mono.c ****     tabview_init();
 468:..\lvgl\lv_themes/lv_theme_mono.c ****     win_init();
 469:..\lvgl\lv_themes/lv_theme_mono.c **** 
 470:..\lvgl\lv_themes/lv_theme_mono.c ****     return &theme;
 471:..\lvgl\lv_themes/lv_theme_mono.c **** }
 316              		.loc 1 471 0
 317 0030 0148     		ldr	r0, .L20+4
 318 0032 08BD     		pop	{r3, pc}
 319              	.L21:
 320              		.align	2
 321              	.L20:
 322 0034 00000000 		.word	lv_font_monospace_8
 323 0038 00000000 		.word	.LANCHOR0
 324 003c 2C000000 		.word	.LANCHOR0+44
 325              		.cfi_endproc
 326              	.LFE37:
 327              		.size	lv_theme_mono_init, .-lv_theme_mono_init
 328              		.section	.text.lv_theme_get_mono,"ax",%progbits
 329              		.align	2
 330              		.global	lv_theme_get_mono
 331              		.thumb
 332              		.thumb_func
 333              		.type	lv_theme_get_mono, %function
 334              	lv_theme_get_mono:
 335              	.LFB38:
 472:..\lvgl\lv_themes/lv_theme_mono.c **** 
 473:..\lvgl\lv_themes/lv_theme_mono.c **** /**
 474:..\lvgl\lv_themes/lv_theme_mono.c ****  * Get a pointer to the theme
 475:..\lvgl\lv_themes/lv_theme_mono.c ****  * @return pointer to the theme
 476:..\lvgl\lv_themes/lv_theme_mono.c ****  */
 477:..\lvgl\lv_themes/lv_theme_mono.c **** lv_theme_t * lv_theme_get_mono(void)
 478:..\lvgl\lv_themes/lv_theme_mono.c **** {
 336              		.loc 1 478 0
 337              		.cfi_startproc
 338              		@ args = 0, pretend = 0, frame = 0
ARM GAS  C:\Users\d3bug\AppData\Local\Temp\ccxaLH4S.s 			page 16


 339              		@ frame_needed = 0, uses_anonymous_args = 0
 340              		@ link register save eliminated.
 479:..\lvgl\lv_themes/lv_theme_mono.c ****     return &theme;
 480:..\lvgl\lv_themes/lv_theme_mono.c **** }
 341              		.loc 1 480 0
 342 0000 0048     		ldr	r0, .L23
 343 0002 7047     		bx	lr
 344              	.L24:
 345              		.align	2
 346              	.L23:
 347 0004 00000000 		.word	.LANCHOR0
 348              		.cfi_endproc
 349              	.LFE38:
 350              		.size	lv_theme_get_mono, .-lv_theme_get_mono
 351              		.bss
 352              		.align	2
 353              		.set	.LANCHOR0,. + 0
 354              		.type	theme, %object
 355              		.size	theme, 44
 356              	theme:
 357 0000 00000000 		.space	44
 357      00000000 
 357      00000000 
 357      00000000 
 357      00000000 
 358              		.type	def, %object
 359              		.size	def, 56
 360              	def:
 361 002c 00000000 		.space	56
 361      00000000 
 361      00000000 
 361      00000000 
 361      00000000 
 362              		.type	light_frame, %object
 363              		.size	light_frame, 56
 364              	light_frame:
 365 0064 00000000 		.space	56
 365      00000000 
 365      00000000 
 365      00000000 
 365      00000000 
 366              		.type	dark_frame, %object
 367              		.size	dark_frame, 56
 368              	dark_frame:
 369 009c 00000000 		.space	56
 369      00000000 
 369      00000000 
 369      00000000 
 369      00000000 
 370              		.type	_font, %object
 371              		.size	_font, 4
 372              	_font:
 373 00d4 00000000 		.space	4
 374              		.type	light_plain, %object
 375              		.size	light_plain, 56
 376              	light_plain:
 377 00d8 00000000 		.space	56
ARM GAS  C:\Users\d3bug\AppData\Local\Temp\ccxaLH4S.s 			page 17


 377      00000000 
 377      00000000 
 377      00000000 
 377      00000000 
 378              		.type	dark_plain, %object
 379              		.size	dark_plain, 56
 380              	dark_plain:
 381 0110 00000000 		.space	56
 381      00000000 
 381      00000000 
 381      00000000 
 381      00000000 
 382              		.text
 383              	.Letext0:
 384              		.file 2 "c:\\program files (x86)\\cypress\\psoc creator\\4.2\\psoc creator\\import\\gnu\\arm\\5.4.
 385              		.file 3 "c:\\program files (x86)\\cypress\\psoc creator\\4.2\\psoc creator\\import\\gnu\\arm\\5.4.
 386              		.file 4 "..\\lvgl\\lv_themes\\../lv_core/../lv_misc/lv_color.h"
 387              		.file 5 "..\\lvgl\\lv_themes\\../lv_core/../lv_misc/lv_area.h"
 388              		.file 6 "..\\lvgl\\lv_themes\\../lv_core/../lv_misc/lv_font.h"
 389              		.file 7 "..\\lvgl\\lv_themes\\../lv_core/lv_style.h"
 390              		.file 8 "..\\lvgl\\lv_themes\\lv_theme.h"
 391              		.file 9 "..\\lvgl\\lv_themes\\../lv_core/../lv_misc/../lv_fonts/lv_font_builtin.h"