ARM GAS  C:\Users\d3bug\AppData\Local\Temp\cclZ2SKJ.s 			page 1


   1              		.syntax unified
   2              		.cpu cortex-m3
   3              		.fpu softvfp
   4              		.eabi_attribute 20, 1
   5              		.eabi_attribute 21, 1
   6              		.eabi_attribute 23, 3
   7              		.eabi_attribute 24, 1
   8              		.eabi_attribute 25, 1
   9              		.eabi_attribute 26, 1
  10              		.eabi_attribute 30, 1
  11              		.eabi_attribute 34, 1
  12              		.eabi_attribute 18, 4
  13              		.thumb
  14              		.syntax unified
  15              		.file	"lv_task.c"
  16              		.text
  17              	.Ltext0:
  18              		.cfi_sections	.debug_frame
  19              		.section	.text.lv_task_create,"ax",%progbits
  20              		.align	2
  21              		.global	lv_task_create
  22              		.thumb
  23              		.thumb_func
  24              		.type	lv_task_create, %function
  25              	lv_task_create:
  26              	.LFB2:
  27              		.file 1 "..\\lvgl\\lv_misc\\lv_task.c"
   1:..\lvgl\lv_misc/lv_task.c **** /**
   2:..\lvgl\lv_misc/lv_task.c ****  * @file lv_task.c
   3:..\lvgl\lv_misc/lv_task.c ****  * An 'lv_task'  is a void (*fp) (void* param) type function which will be called periodically.
   4:..\lvgl\lv_misc/lv_task.c ****  * A priority (5 levels + disable) can be assigned to lv_tasks.
   5:..\lvgl\lv_misc/lv_task.c ****  */
   6:..\lvgl\lv_misc/lv_task.c **** 
   7:..\lvgl\lv_misc/lv_task.c **** /*********************
   8:..\lvgl\lv_misc/lv_task.c ****  *      INCLUDES
   9:..\lvgl\lv_misc/lv_task.c ****  *********************/
  10:..\lvgl\lv_misc/lv_task.c **** #include <stddef.h>
  11:..\lvgl\lv_misc/lv_task.c **** #include "lv_task.h"
  12:..\lvgl\lv_misc/lv_task.c **** #include "../lv_hal/lv_hal_tick.h"
  13:..\lvgl\lv_misc/lv_task.c **** #include "lv_gc.h"
  14:..\lvgl\lv_misc/lv_task.c **** 
  15:..\lvgl\lv_misc/lv_task.c **** #if defined(LV_GC_INCLUDE)
  16:..\lvgl\lv_misc/lv_task.c **** #   include LV_GC_INCLUDE
  17:..\lvgl\lv_misc/lv_task.c **** #endif /* LV_ENABLE_GC */
  18:..\lvgl\lv_misc/lv_task.c **** 
  19:..\lvgl\lv_misc/lv_task.c **** /*********************
  20:..\lvgl\lv_misc/lv_task.c ****  *      DEFINES
  21:..\lvgl\lv_misc/lv_task.c ****  *********************/
  22:..\lvgl\lv_misc/lv_task.c **** #define IDLE_MEAS_PERIOD    500     /*[ms]*/
  23:..\lvgl\lv_misc/lv_task.c **** 
  24:..\lvgl\lv_misc/lv_task.c **** /**********************
  25:..\lvgl\lv_misc/lv_task.c ****  *      TYPEDEFS
  26:..\lvgl\lv_misc/lv_task.c ****  **********************/
  27:..\lvgl\lv_misc/lv_task.c **** 
  28:..\lvgl\lv_misc/lv_task.c **** /**********************
  29:..\lvgl\lv_misc/lv_task.c ****  *  STATIC PROTOTYPES
  30:..\lvgl\lv_misc/lv_task.c ****  **********************/
ARM GAS  C:\Users\d3bug\AppData\Local\Temp\cclZ2SKJ.s 			page 2


  31:..\lvgl\lv_misc/lv_task.c **** static bool lv_task_exec(lv_task_t * lv_task_p);
  32:..\lvgl\lv_misc/lv_task.c **** 
  33:..\lvgl\lv_misc/lv_task.c **** /**********************
  34:..\lvgl\lv_misc/lv_task.c ****  *  STATIC VARIABLES
  35:..\lvgl\lv_misc/lv_task.c ****  **********************/
  36:..\lvgl\lv_misc/lv_task.c **** static bool lv_task_run = false;
  37:..\lvgl\lv_misc/lv_task.c **** static uint8_t idle_last = 0;
  38:..\lvgl\lv_misc/lv_task.c **** static bool task_deleted;
  39:..\lvgl\lv_misc/lv_task.c **** static bool task_created;
  40:..\lvgl\lv_misc/lv_task.c **** 
  41:..\lvgl\lv_misc/lv_task.c **** /**********************
  42:..\lvgl\lv_misc/lv_task.c ****  *      MACROS
  43:..\lvgl\lv_misc/lv_task.c ****  **********************/
  44:..\lvgl\lv_misc/lv_task.c **** 
  45:..\lvgl\lv_misc/lv_task.c **** /**********************
  46:..\lvgl\lv_misc/lv_task.c ****  *   GLOBAL FUNCTIONS
  47:..\lvgl\lv_misc/lv_task.c ****  **********************/
  48:..\lvgl\lv_misc/lv_task.c **** 
  49:..\lvgl\lv_misc/lv_task.c **** /**
  50:..\lvgl\lv_misc/lv_task.c ****  * Init the lv_task module
  51:..\lvgl\lv_misc/lv_task.c ****  */
  52:..\lvgl\lv_misc/lv_task.c **** void lv_task_init(void)
  53:..\lvgl\lv_misc/lv_task.c **** {
  54:..\lvgl\lv_misc/lv_task.c ****     lv_ll_init(&LV_GC_ROOT(_lv_task_ll), sizeof(lv_task_t));
  55:..\lvgl\lv_misc/lv_task.c **** 
  56:..\lvgl\lv_misc/lv_task.c ****     /*Initially enable the lv_task handling*/
  57:..\lvgl\lv_misc/lv_task.c ****     lv_task_enable(true);
  58:..\lvgl\lv_misc/lv_task.c **** }
  59:..\lvgl\lv_misc/lv_task.c **** 
  60:..\lvgl\lv_misc/lv_task.c **** /**
  61:..\lvgl\lv_misc/lv_task.c ****  * Call it  periodically to handle lv_tasks.
  62:..\lvgl\lv_misc/lv_task.c ****  */
  63:..\lvgl\lv_misc/lv_task.c **** LV_ATTRIBUTE_TASK_HANDLER void lv_task_handler(void)
  64:..\lvgl\lv_misc/lv_task.c **** {
  65:..\lvgl\lv_misc/lv_task.c ****     LV_LOG_TRACE("lv_task_handler started");
  66:..\lvgl\lv_misc/lv_task.c **** 
  67:..\lvgl\lv_misc/lv_task.c ****     /*Avoid concurrent running of the task handler*/
  68:..\lvgl\lv_misc/lv_task.c ****     static bool task_handler_mutex = false;
  69:..\lvgl\lv_misc/lv_task.c ****     if(task_handler_mutex) return;
  70:..\lvgl\lv_misc/lv_task.c ****     task_handler_mutex = true;
  71:..\lvgl\lv_misc/lv_task.c **** 
  72:..\lvgl\lv_misc/lv_task.c ****     static uint32_t idle_period_start = 0;
  73:..\lvgl\lv_misc/lv_task.c ****     static uint32_t handler_start = 0;
  74:..\lvgl\lv_misc/lv_task.c ****     static uint32_t busy_time = 0;
  75:..\lvgl\lv_misc/lv_task.c **** 
  76:..\lvgl\lv_misc/lv_task.c ****     if(lv_task_run == false) return;
  77:..\lvgl\lv_misc/lv_task.c **** 
  78:..\lvgl\lv_misc/lv_task.c ****     handler_start = lv_tick_get();
  79:..\lvgl\lv_misc/lv_task.c **** 
  80:..\lvgl\lv_misc/lv_task.c ****     /* Run all task from the highest to the lowest priority
  81:..\lvgl\lv_misc/lv_task.c ****      * If a lower priority task is executed check task again from the highest priority
  82:..\lvgl\lv_misc/lv_task.c ****      * but on the priority of executed tasks don't run tasks before the executed*/
  83:..\lvgl\lv_misc/lv_task.c ****     lv_task_t * task_interrupter = NULL;
  84:..\lvgl\lv_misc/lv_task.c ****     lv_task_t * next;
  85:..\lvgl\lv_misc/lv_task.c ****     bool end_flag;
  86:..\lvgl\lv_misc/lv_task.c ****     do {
  87:..\lvgl\lv_misc/lv_task.c ****         end_flag = true;
ARM GAS  C:\Users\d3bug\AppData\Local\Temp\cclZ2SKJ.s 			page 3


  88:..\lvgl\lv_misc/lv_task.c ****         task_deleted = false;
  89:..\lvgl\lv_misc/lv_task.c ****         task_created = false;
  90:..\lvgl\lv_misc/lv_task.c ****         LV_GC_ROOT(_lv_task_act) = lv_ll_get_head(&LV_GC_ROOT(_lv_task_ll));
  91:..\lvgl\lv_misc/lv_task.c ****         while(LV_GC_ROOT(_lv_task_act)) {
  92:..\lvgl\lv_misc/lv_task.c ****             /* The task might be deleted if it runs only once ('once = 1')
  93:..\lvgl\lv_misc/lv_task.c ****              * So get next element until the current is surely valid*/
  94:..\lvgl\lv_misc/lv_task.c ****             next = lv_ll_get_next(&LV_GC_ROOT(_lv_task_ll), LV_GC_ROOT(_lv_task_act));
  95:..\lvgl\lv_misc/lv_task.c **** 
  96:..\lvgl\lv_misc/lv_task.c ****             /*We reach priority of the turned off task. There is nothing more to do.*/
  97:..\lvgl\lv_misc/lv_task.c ****             if(((lv_task_t *)LV_GC_ROOT(_lv_task_act))->prio == LV_TASK_PRIO_OFF) {
  98:..\lvgl\lv_misc/lv_task.c ****                 break;
  99:..\lvgl\lv_misc/lv_task.c ****             }
 100:..\lvgl\lv_misc/lv_task.c **** 
 101:..\lvgl\lv_misc/lv_task.c ****             /*Here is the interrupter task. Don't execute it again.*/
 102:..\lvgl\lv_misc/lv_task.c ****             if(LV_GC_ROOT(_lv_task_act) == task_interrupter) {
 103:..\lvgl\lv_misc/lv_task.c ****                 task_interrupter = NULL;     /*From this point only task after the interrupter come
 104:..\lvgl\lv_misc/lv_task.c ****                 LV_GC_ROOT(_lv_task_act) = next;
 105:..\lvgl\lv_misc/lv_task.c ****                 continue;                   /*Load the next task*/
 106:..\lvgl\lv_misc/lv_task.c ****             }
 107:..\lvgl\lv_misc/lv_task.c **** 
 108:..\lvgl\lv_misc/lv_task.c ****             /*Just try to run the tasks with highest priority.*/
 109:..\lvgl\lv_misc/lv_task.c ****             if(((lv_task_t *)LV_GC_ROOT(_lv_task_act))->prio == LV_TASK_PRIO_HIGHEST) {
 110:..\lvgl\lv_misc/lv_task.c ****                 lv_task_exec(LV_GC_ROOT(_lv_task_act));
 111:..\lvgl\lv_misc/lv_task.c ****             }
 112:..\lvgl\lv_misc/lv_task.c ****             /*Tasks with higher priority then the interrupted shall be run in every case*/
 113:..\lvgl\lv_misc/lv_task.c ****             else if(task_interrupter) {
 114:..\lvgl\lv_misc/lv_task.c ****                 if(((lv_task_t *)LV_GC_ROOT(_lv_task_act))->prio > task_interrupter->prio) {
 115:..\lvgl\lv_misc/lv_task.c ****                     if(lv_task_exec(LV_GC_ROOT(_lv_task_act))) {
 116:..\lvgl\lv_misc/lv_task.c ****                         task_interrupter = LV_GC_ROOT(_lv_task_act);  /*Check all tasks again from 
 117:..\lvgl\lv_misc/lv_task.c ****                         end_flag = false;
 118:..\lvgl\lv_misc/lv_task.c ****                         break;
 119:..\lvgl\lv_misc/lv_task.c ****                     }
 120:..\lvgl\lv_misc/lv_task.c ****                 }
 121:..\lvgl\lv_misc/lv_task.c ****             }
 122:..\lvgl\lv_misc/lv_task.c ****             /* It is no interrupter task or we already reached it earlier.
 123:..\lvgl\lv_misc/lv_task.c ****              * Just run the remaining tasks*/
 124:..\lvgl\lv_misc/lv_task.c ****             else {
 125:..\lvgl\lv_misc/lv_task.c ****                 if(lv_task_exec(LV_GC_ROOT(_lv_task_act))) {
 126:..\lvgl\lv_misc/lv_task.c ****                     task_interrupter = LV_GC_ROOT(_lv_task_act);  /*Check all tasks again from the 
 127:..\lvgl\lv_misc/lv_task.c ****                     end_flag = false;
 128:..\lvgl\lv_misc/lv_task.c ****                     break;
 129:..\lvgl\lv_misc/lv_task.c ****                 }
 130:..\lvgl\lv_misc/lv_task.c ****             }
 131:..\lvgl\lv_misc/lv_task.c **** 
 132:..\lvgl\lv_misc/lv_task.c ****             if(task_deleted) break;     /*If a task was deleted then this or the next item might be
 133:..\lvgl\lv_misc/lv_task.c ****             if(task_created) break;     /*If a task was deleted then this or the next item might be
 134:..\lvgl\lv_misc/lv_task.c **** 
 135:..\lvgl\lv_misc/lv_task.c ****             LV_GC_ROOT(_lv_task_act) = next;         /*Load the next task*/
 136:..\lvgl\lv_misc/lv_task.c ****         }
 137:..\lvgl\lv_misc/lv_task.c ****     } while(!end_flag);
 138:..\lvgl\lv_misc/lv_task.c **** 
 139:..\lvgl\lv_misc/lv_task.c ****     busy_time += lv_tick_elaps(handler_start);
 140:..\lvgl\lv_misc/lv_task.c ****     uint32_t idle_period_time = lv_tick_elaps(idle_period_start);
 141:..\lvgl\lv_misc/lv_task.c ****     if(idle_period_time >= IDLE_MEAS_PERIOD) {
 142:..\lvgl\lv_misc/lv_task.c **** 
 143:..\lvgl\lv_misc/lv_task.c ****         idle_last = (uint32_t)((uint32_t)busy_time * 100) / IDLE_MEAS_PERIOD;   /*Calculate the bus
 144:..\lvgl\lv_misc/lv_task.c ****         idle_last = idle_last > 100 ? 0 : 100 - idle_last;                      /*But we need idle 
ARM GAS  C:\Users\d3bug\AppData\Local\Temp\cclZ2SKJ.s 			page 4


 145:..\lvgl\lv_misc/lv_task.c ****         busy_time = 0;
 146:..\lvgl\lv_misc/lv_task.c ****         idle_period_start = lv_tick_get();
 147:..\lvgl\lv_misc/lv_task.c **** 
 148:..\lvgl\lv_misc/lv_task.c **** 
 149:..\lvgl\lv_misc/lv_task.c ****     }
 150:..\lvgl\lv_misc/lv_task.c **** 
 151:..\lvgl\lv_misc/lv_task.c ****     task_handler_mutex = false;     /*Release the mutex*/
 152:..\lvgl\lv_misc/lv_task.c **** 
 153:..\lvgl\lv_misc/lv_task.c ****     LV_LOG_TRACE("lv_task_handler ready");
 154:..\lvgl\lv_misc/lv_task.c **** }
 155:..\lvgl\lv_misc/lv_task.c **** 
 156:..\lvgl\lv_misc/lv_task.c **** /**
 157:..\lvgl\lv_misc/lv_task.c ****  * Create a new lv_task
 158:..\lvgl\lv_misc/lv_task.c ****  * @param task a function which is the task itself
 159:..\lvgl\lv_misc/lv_task.c ****  * @param period call period in ms unit
 160:..\lvgl\lv_misc/lv_task.c ****  * @param prio priority of the task (LV_TASK_PRIO_OFF means the task is stopped)
 161:..\lvgl\lv_misc/lv_task.c ****  * @param param free parameter
 162:..\lvgl\lv_misc/lv_task.c ****  * @return pointer to the new task
 163:..\lvgl\lv_misc/lv_task.c ****  */
 164:..\lvgl\lv_misc/lv_task.c **** lv_task_t * lv_task_create(void (*task)(void *), uint32_t period, lv_task_prio_t prio, void * param
 165:..\lvgl\lv_misc/lv_task.c **** {
  28              		.loc 1 165 0
  29              		.cfi_startproc
  30              		@ args = 0, pretend = 0, frame = 0
  31              		@ frame_needed = 0, uses_anonymous_args = 0
  32              	.LVL0:
  33 0000 2DE9F843 		push	{r3, r4, r5, r6, r7, r8, r9, lr}
  34              		.cfi_def_cfa_offset 32
  35              		.cfi_offset 3, -32
  36              		.cfi_offset 4, -28
  37              		.cfi_offset 5, -24
  38              		.cfi_offset 6, -20
  39              		.cfi_offset 7, -16
  40              		.cfi_offset 8, -12
  41              		.cfi_offset 9, -8
  42              		.cfi_offset 14, -4
  43 0004 8046     		mov	r8, r0
  44 0006 8946     		mov	r9, r1
  45 0008 1546     		mov	r5, r2
  46 000a 1F46     		mov	r7, r3
  47              	.LVL1:
 166:..\lvgl\lv_misc/lv_task.c ****     lv_task_t * new_lv_task = NULL;
 167:..\lvgl\lv_misc/lv_task.c ****     lv_task_t * tmp;
 168:..\lvgl\lv_misc/lv_task.c **** 
 169:..\lvgl\lv_misc/lv_task.c ****     /*Create task lists in order of priority from high to low*/
 170:..\lvgl\lv_misc/lv_task.c ****     tmp = lv_ll_get_head(&LV_GC_ROOT(_lv_task_ll));
  48              		.loc 1 170 0
  49 000c 2C48     		ldr	r0, .L17
  50              	.LVL2:
  51 000e FFF7FEFF 		bl	lv_ll_get_head
  52              	.LVL3:
 171:..\lvgl\lv_misc/lv_task.c ****     if(NULL == tmp) {                               /*First task*/
  53              		.loc 1 171 0
  54 0012 0446     		mov	r4, r0
  55 0014 68B9     		cbnz	r0, .L2
 172:..\lvgl\lv_misc/lv_task.c ****         new_lv_task = lv_ll_ins_head(&LV_GC_ROOT(_lv_task_ll));
  56              		.loc 1 172 0
ARM GAS  C:\Users\d3bug\AppData\Local\Temp\cclZ2SKJ.s 			page 5


  57 0016 2A48     		ldr	r0, .L17
  58              	.LVL4:
  59 0018 FFF7FEFF 		bl	lv_ll_ins_head
  60              	.LVL5:
 173:..\lvgl\lv_misc/lv_task.c ****         lv_mem_assert(new_lv_task);
  61              		.loc 1 173 0
  62 001c 0646     		mov	r6, r0
  63 001e 30B9     		cbnz	r0, .L3
  64              		.loc 1 173 0 is_stmt 0 discriminator 1
  65 0020 284B     		ldr	r3, .L17+4
  66 0022 AD22     		movs	r2, #173
  67 0024 2849     		ldr	r1, .L17+8
  68 0026 0320     		movs	r0, #3
  69              	.LVL6:
  70 0028 FFF7FEFF 		bl	lv_log_add
  71              	.LVL7:
  72              	.L4:
  73 002c FEE7     		b	.L4
  74              	.LVL8:
  75              	.L3:
 174:..\lvgl\lv_misc/lv_task.c ****         if(new_lv_task == NULL) return NULL;
  76              		.loc 1 174 0 is_stmt 1
  77 002e 50BB     		cbnz	r0, .L6
  78 0030 3DE0     		b	.L13
  79              	.LVL9:
  80              	.L2:
 175:..\lvgl\lv_misc/lv_task.c ****     } else {
 176:..\lvgl\lv_misc/lv_task.c ****         do {
 177:..\lvgl\lv_misc/lv_task.c ****             if(tmp->prio <= prio) {
  81              		.loc 1 177 0
  82 0032 237C     		ldrb	r3, [r4, #16]	@ zero_extendqisi2
  83 0034 03F00703 		and	r3, r3, #7
  84 0038 AB42     		cmp	r3, r5
  85 003a 0EDC     		bgt	.L7
 178:..\lvgl\lv_misc/lv_task.c ****                 new_lv_task = lv_ll_ins_prev(&LV_GC_ROOT(_lv_task_ll), tmp);
  86              		.loc 1 178 0
  87 003c 2146     		mov	r1, r4
  88 003e 2048     		ldr	r0, .L17
  89              	.LVL10:
  90 0040 FFF7FEFF 		bl	lv_ll_ins_prev
  91              	.LVL11:
 179:..\lvgl\lv_misc/lv_task.c ****                 lv_mem_assert(new_lv_task);
  92              		.loc 1 179 0
  93 0044 0646     		mov	r6, r0
  94 0046 30B9     		cbnz	r0, .L8
  95              		.loc 1 179 0 is_stmt 0 discriminator 1
  96 0048 1E4B     		ldr	r3, .L17+4
  97 004a B322     		movs	r2, #179
  98 004c 1E49     		ldr	r1, .L17+8
  99 004e 0320     		movs	r0, #3
 100              	.LVL12:
 101 0050 FFF7FEFF 		bl	lv_log_add
 102              	.LVL13:
 103              	.L9:
 104 0054 FEE7     		b	.L9
 105              	.LVL14:
 106              	.L8:
ARM GAS  C:\Users\d3bug\AppData\Local\Temp\cclZ2SKJ.s 			page 6


 180:..\lvgl\lv_misc/lv_task.c ****                 if(new_lv_task == NULL) return NULL;
 107              		.loc 1 180 0 is_stmt 1
 108 0056 40B9     		cbnz	r0, .L10
 109 0058 2CE0     		b	.L14
 110              	.LVL15:
 111              	.L7:
 181:..\lvgl\lv_misc/lv_task.c ****                 break;
 182:..\lvgl\lv_misc/lv_task.c ****             }
 183:..\lvgl\lv_misc/lv_task.c ****             tmp = lv_ll_get_next(&LV_GC_ROOT(_lv_task_ll), tmp);
 112              		.loc 1 183 0
 113 005a 2146     		mov	r1, r4
 114 005c 1848     		ldr	r0, .L17
 115              	.LVL16:
 116 005e FFF7FEFF 		bl	lv_ll_get_next
 117              	.LVL17:
 184:..\lvgl\lv_misc/lv_task.c ****         } while(tmp != NULL);
 118              		.loc 1 184 0
 119 0062 0446     		mov	r4, r0
 120 0064 0028     		cmp	r0, #0
 121 0066 E4D1     		bne	.L2
 166:..\lvgl\lv_misc/lv_task.c ****     lv_task_t * tmp;
 122              		.loc 1 166 0
 123 0068 0026     		movs	r6, #0
 124              	.LVL18:
 125              	.L10:
 185:..\lvgl\lv_misc/lv_task.c **** 
 186:..\lvgl\lv_misc/lv_task.c ****         if(tmp == NULL) {   /*Only too high priority tasks were found*/
 126              		.loc 1 186 0
 127 006a 64B9     		cbnz	r4, .L6
 187:..\lvgl\lv_misc/lv_task.c ****             new_lv_task = lv_ll_ins_tail(&LV_GC_ROOT(_lv_task_ll));
 128              		.loc 1 187 0
 129 006c 1448     		ldr	r0, .L17
 130 006e FFF7FEFF 		bl	lv_ll_ins_tail
 131              	.LVL19:
 188:..\lvgl\lv_misc/lv_task.c ****             lv_mem_assert(new_lv_task);
 132              		.loc 1 188 0
 133 0072 0646     		mov	r6, r0
 134 0074 30B9     		cbnz	r0, .L11
 135              		.loc 1 188 0 is_stmt 0 discriminator 1
 136 0076 134B     		ldr	r3, .L17+4
 137 0078 BC22     		movs	r2, #188
 138 007a 1349     		ldr	r1, .L17+8
 139 007c 0320     		movs	r0, #3
 140              	.LVL20:
 141 007e FFF7FEFF 		bl	lv_log_add
 142              	.LVL21:
 143              	.L12:
 144 0082 FEE7     		b	.L12
 145              	.LVL22:
 146              	.L11:
 189:..\lvgl\lv_misc/lv_task.c ****             if(new_lv_task == NULL) return NULL;
 147              		.loc 1 189 0 is_stmt 1
 148 0084 C8B1     		cbz	r0, .L15
 149              	.LVL23:
 150              	.L6:
 190:..\lvgl\lv_misc/lv_task.c ****         }
 191:..\lvgl\lv_misc/lv_task.c ****     }
ARM GAS  C:\Users\d3bug\AppData\Local\Temp\cclZ2SKJ.s 			page 7


 192:..\lvgl\lv_misc/lv_task.c **** 
 193:..\lvgl\lv_misc/lv_task.c ****     new_lv_task->period = period;
 151              		.loc 1 193 0
 152 0086 C6F80090 		str	r9, [r6]
 194:..\lvgl\lv_misc/lv_task.c ****     new_lv_task->task = task;
 153              		.loc 1 194 0
 154 008a C6F80880 		str	r8, [r6, #8]
 195:..\lvgl\lv_misc/lv_task.c ****     new_lv_task->prio = prio;
 155              		.loc 1 195 0
 156 008e 337C     		ldrb	r3, [r6, #16]	@ zero_extendqisi2
 157 0090 65F30203 		bfi	r3, r5, #0, #3
 196:..\lvgl\lv_misc/lv_task.c ****     new_lv_task->param = param;
 158              		.loc 1 196 0
 159 0094 F760     		str	r7, [r6, #12]
 197:..\lvgl\lv_misc/lv_task.c ****     new_lv_task->once = 0;
 160              		.loc 1 197 0
 161 0096 6FF3C303 		bfc	r3, #3, #1
 162 009a 3374     		strb	r3, [r6, #16]
 198:..\lvgl\lv_misc/lv_task.c ****     new_lv_task->last_run = lv_tick_get();
 163              		.loc 1 198 0
 164 009c FFF7FEFF 		bl	lv_tick_get
 165              	.LVL24:
 166 00a0 7060     		str	r0, [r6, #4]
 199:..\lvgl\lv_misc/lv_task.c **** 
 200:..\lvgl\lv_misc/lv_task.c ****     task_created = true;
 167              		.loc 1 200 0
 168 00a2 0122     		movs	r2, #1
 169 00a4 094B     		ldr	r3, .L17+12
 170 00a6 1A70     		strb	r2, [r3]
 201:..\lvgl\lv_misc/lv_task.c **** 
 202:..\lvgl\lv_misc/lv_task.c ****     return new_lv_task;
 171              		.loc 1 202 0
 172 00a8 3046     		mov	r0, r6
 173 00aa BDE8F883 		pop	{r3, r4, r5, r6, r7, r8, r9, pc}
 174              	.LVL25:
 175              	.L13:
 174:..\lvgl\lv_misc/lv_task.c ****     } else {
 176              		.loc 1 174 0
 177 00ae 0020     		movs	r0, #0
 178              	.LVL26:
 179 00b0 BDE8F883 		pop	{r3, r4, r5, r6, r7, r8, r9, pc}
 180              	.LVL27:
 181              	.L14:
 180:..\lvgl\lv_misc/lv_task.c ****                 break;
 182              		.loc 1 180 0
 183 00b4 0020     		movs	r0, #0
 184              	.LVL28:
 185 00b6 BDE8F883 		pop	{r3, r4, r5, r6, r7, r8, r9, pc}
 186              	.LVL29:
 187              	.L15:
 189:..\lvgl\lv_misc/lv_task.c ****         }
 188              		.loc 1 189 0
 189 00ba 0020     		movs	r0, #0
 190              	.LVL30:
 203:..\lvgl\lv_misc/lv_task.c **** }
 191              		.loc 1 203 0
 192 00bc BDE8F883 		pop	{r3, r4, r5, r6, r7, r8, r9, pc}
ARM GAS  C:\Users\d3bug\AppData\Local\Temp\cclZ2SKJ.s 			page 8


 193              	.LVL31:
 194              	.L18:
 195              		.align	2
 196              	.L17:
 197 00c0 00000000 		.word	_lv_task_ll
 198 00c4 00000000 		.word	.LC0
 199 00c8 10000000 		.word	.LC1
 200 00cc 00000000 		.word	.LANCHOR0
 201              		.cfi_endproc
 202              	.LFE2:
 203              		.size	lv_task_create, .-lv_task_create
 204              		.section	.text.lv_task_del,"ax",%progbits
 205              		.align	2
 206              		.global	lv_task_del
 207              		.thumb
 208              		.thumb_func
 209              		.type	lv_task_del, %function
 210              	lv_task_del:
 211              	.LFB3:
 204:..\lvgl\lv_misc/lv_task.c **** 
 205:..\lvgl\lv_misc/lv_task.c **** /**
 206:..\lvgl\lv_misc/lv_task.c ****  * Delete a lv_task
 207:..\lvgl\lv_misc/lv_task.c ****  * @param lv_task_p pointer to task created by lv_task_p
 208:..\lvgl\lv_misc/lv_task.c ****  */
 209:..\lvgl\lv_misc/lv_task.c **** void lv_task_del(lv_task_t * lv_task_p)
 210:..\lvgl\lv_misc/lv_task.c **** {
 212              		.loc 1 210 0
 213              		.cfi_startproc
 214              		@ args = 0, pretend = 0, frame = 0
 215              		@ frame_needed = 0, uses_anonymous_args = 0
 216              	.LVL32:
 217 0000 10B5     		push	{r4, lr}
 218              		.cfi_def_cfa_offset 8
 219              		.cfi_offset 4, -8
 220              		.cfi_offset 14, -4
 221 0002 0446     		mov	r4, r0
 211:..\lvgl\lv_misc/lv_task.c ****     lv_ll_rem(&LV_GC_ROOT(_lv_task_ll), lv_task_p);
 222              		.loc 1 211 0
 223 0004 0146     		mov	r1, r0
 224 0006 0748     		ldr	r0, .L22
 225              	.LVL33:
 226 0008 FFF7FEFF 		bl	lv_ll_rem
 227              	.LVL34:
 212:..\lvgl\lv_misc/lv_task.c **** 
 213:..\lvgl\lv_misc/lv_task.c ****     lv_mem_free(lv_task_p);
 228              		.loc 1 213 0
 229 000c 2046     		mov	r0, r4
 230 000e FFF7FEFF 		bl	lv_mem_free
 231              	.LVL35:
 214:..\lvgl\lv_misc/lv_task.c **** 
 215:..\lvgl\lv_misc/lv_task.c ****     if(LV_GC_ROOT(_lv_task_act) == lv_task_p) task_deleted = true;      /*The active task was delet
 232              		.loc 1 215 0
 233 0012 054B     		ldr	r3, .L22+4
 234 0014 1B68     		ldr	r3, [r3]
 235 0016 9C42     		cmp	r4, r3
 236 0018 02D1     		bne	.L19
 237              		.loc 1 215 0 is_stmt 0 discriminator 1
ARM GAS  C:\Users\d3bug\AppData\Local\Temp\cclZ2SKJ.s 			page 9


 238 001a 0122     		movs	r2, #1
 239 001c 034B     		ldr	r3, .L22+8
 240 001e 5A70     		strb	r2, [r3, #1]
 241              	.L19:
 242 0020 10BD     		pop	{r4, pc}
 243              	.LVL36:
 244              	.L23:
 245 0022 00BF     		.align	2
 246              	.L22:
 247 0024 00000000 		.word	_lv_task_ll
 248 0028 00000000 		.word	_lv_task_act
 249 002c 00000000 		.word	.LANCHOR0
 250              		.cfi_endproc
 251              	.LFE3:
 252              		.size	lv_task_del, .-lv_task_del
 253              		.section	.text.lv_task_exec,"ax",%progbits
 254              		.align	2
 255              		.thumb
 256              		.thumb_func
 257              		.type	lv_task_exec, %function
 258              	lv_task_exec:
 259              	.LFB11:
 216:..\lvgl\lv_misc/lv_task.c **** }
 217:..\lvgl\lv_misc/lv_task.c **** 
 218:..\lvgl\lv_misc/lv_task.c **** /**
 219:..\lvgl\lv_misc/lv_task.c ****  * Set new priority for a lv_task
 220:..\lvgl\lv_misc/lv_task.c ****  * @param lv_task_p pointer to a lv_task
 221:..\lvgl\lv_misc/lv_task.c ****  * @param prio the new priority
 222:..\lvgl\lv_misc/lv_task.c ****  */
 223:..\lvgl\lv_misc/lv_task.c **** void lv_task_set_prio(lv_task_t * lv_task_p, lv_task_prio_t prio)
 224:..\lvgl\lv_misc/lv_task.c **** {
 225:..\lvgl\lv_misc/lv_task.c ****     /*Find the tasks with new priority*/
 226:..\lvgl\lv_misc/lv_task.c ****     lv_task_t * i;
 227:..\lvgl\lv_misc/lv_task.c ****     LL_READ(LV_GC_ROOT(_lv_task_ll), i) {
 228:..\lvgl\lv_misc/lv_task.c ****         if(i->prio <= prio) {
 229:..\lvgl\lv_misc/lv_task.c ****             if(i != lv_task_p) lv_ll_move_before(&LV_GC_ROOT(_lv_task_ll), lv_task_p, i);
 230:..\lvgl\lv_misc/lv_task.c ****             break;
 231:..\lvgl\lv_misc/lv_task.c ****         }
 232:..\lvgl\lv_misc/lv_task.c ****     }
 233:..\lvgl\lv_misc/lv_task.c **** 
 234:..\lvgl\lv_misc/lv_task.c ****     /*There was no such a low priority so far then add the node to the tail*/
 235:..\lvgl\lv_misc/lv_task.c ****     if(i == NULL) {
 236:..\lvgl\lv_misc/lv_task.c ****         lv_ll_move_before(&LV_GC_ROOT(_lv_task_ll), lv_task_p, NULL);
 237:..\lvgl\lv_misc/lv_task.c ****     }
 238:..\lvgl\lv_misc/lv_task.c **** 
 239:..\lvgl\lv_misc/lv_task.c **** 
 240:..\lvgl\lv_misc/lv_task.c ****     lv_task_p->prio = prio;
 241:..\lvgl\lv_misc/lv_task.c **** }
 242:..\lvgl\lv_misc/lv_task.c **** 
 243:..\lvgl\lv_misc/lv_task.c **** /**
 244:..\lvgl\lv_misc/lv_task.c ****  * Set new period for a lv_task
 245:..\lvgl\lv_misc/lv_task.c ****  * @param lv_task_p pointer to a lv_task
 246:..\lvgl\lv_misc/lv_task.c ****  * @param period the new period
 247:..\lvgl\lv_misc/lv_task.c ****  */
 248:..\lvgl\lv_misc/lv_task.c **** void lv_task_set_period(lv_task_t * lv_task_p, uint32_t period)
 249:..\lvgl\lv_misc/lv_task.c **** {
 250:..\lvgl\lv_misc/lv_task.c ****     lv_task_p->period = period;
ARM GAS  C:\Users\d3bug\AppData\Local\Temp\cclZ2SKJ.s 			page 10


 251:..\lvgl\lv_misc/lv_task.c **** }
 252:..\lvgl\lv_misc/lv_task.c **** 
 253:..\lvgl\lv_misc/lv_task.c **** /**
 254:..\lvgl\lv_misc/lv_task.c ****  * Make a lv_task ready. It will not wait its period.
 255:..\lvgl\lv_misc/lv_task.c ****  * @param lv_task_p pointer to a lv_task.
 256:..\lvgl\lv_misc/lv_task.c ****  */
 257:..\lvgl\lv_misc/lv_task.c **** void lv_task_ready(lv_task_t * lv_task_p)
 258:..\lvgl\lv_misc/lv_task.c **** {
 259:..\lvgl\lv_misc/lv_task.c ****     lv_task_p->last_run = lv_tick_get() - lv_task_p->period - 1;
 260:..\lvgl\lv_misc/lv_task.c **** }
 261:..\lvgl\lv_misc/lv_task.c **** 
 262:..\lvgl\lv_misc/lv_task.c **** /**
 263:..\lvgl\lv_misc/lv_task.c ****  * Delete the lv_task after one call
 264:..\lvgl\lv_misc/lv_task.c ****  * @param lv_task_p pointer to a lv_task.
 265:..\lvgl\lv_misc/lv_task.c ****  */
 266:..\lvgl\lv_misc/lv_task.c **** void lv_task_once(lv_task_t * lv_task_p)
 267:..\lvgl\lv_misc/lv_task.c **** {
 268:..\lvgl\lv_misc/lv_task.c ****     lv_task_p->once = 1;
 269:..\lvgl\lv_misc/lv_task.c **** }
 270:..\lvgl\lv_misc/lv_task.c **** 
 271:..\lvgl\lv_misc/lv_task.c **** /**
 272:..\lvgl\lv_misc/lv_task.c ****  * Reset a lv_task.
 273:..\lvgl\lv_misc/lv_task.c ****  * It will be called the previously set period milliseconds later.
 274:..\lvgl\lv_misc/lv_task.c ****  * @param lv_task_p pointer to a lv_task.
 275:..\lvgl\lv_misc/lv_task.c ****  */
 276:..\lvgl\lv_misc/lv_task.c **** void lv_task_reset(lv_task_t * lv_task_p)
 277:..\lvgl\lv_misc/lv_task.c **** {
 278:..\lvgl\lv_misc/lv_task.c ****     lv_task_p->last_run = lv_tick_get();
 279:..\lvgl\lv_misc/lv_task.c **** }
 280:..\lvgl\lv_misc/lv_task.c **** 
 281:..\lvgl\lv_misc/lv_task.c **** /**
 282:..\lvgl\lv_misc/lv_task.c ****  * Enable or disable the whole lv_task handling
 283:..\lvgl\lv_misc/lv_task.c ****  * @param en: true: lv_task handling is running, false: lv_task handling is suspended
 284:..\lvgl\lv_misc/lv_task.c ****  */
 285:..\lvgl\lv_misc/lv_task.c **** void lv_task_enable(bool en)
 286:..\lvgl\lv_misc/lv_task.c **** {
 287:..\lvgl\lv_misc/lv_task.c ****     lv_task_run = en;
 288:..\lvgl\lv_misc/lv_task.c **** }
 289:..\lvgl\lv_misc/lv_task.c **** 
 290:..\lvgl\lv_misc/lv_task.c **** /**
 291:..\lvgl\lv_misc/lv_task.c ****  * Get idle percentage
 292:..\lvgl\lv_misc/lv_task.c ****  * @return the lv_task idle in percentage
 293:..\lvgl\lv_misc/lv_task.c ****  */
 294:..\lvgl\lv_misc/lv_task.c **** uint8_t lv_task_get_idle(void)
 295:..\lvgl\lv_misc/lv_task.c **** {
 296:..\lvgl\lv_misc/lv_task.c ****     return idle_last;
 297:..\lvgl\lv_misc/lv_task.c **** }
 298:..\lvgl\lv_misc/lv_task.c **** 
 299:..\lvgl\lv_misc/lv_task.c **** 
 300:..\lvgl\lv_misc/lv_task.c **** /**********************
 301:..\lvgl\lv_misc/lv_task.c ****  *   STATIC FUNCTIONS
 302:..\lvgl\lv_misc/lv_task.c ****  **********************/
 303:..\lvgl\lv_misc/lv_task.c **** 
 304:..\lvgl\lv_misc/lv_task.c **** /**
 305:..\lvgl\lv_misc/lv_task.c ****  * Execute task if its the priority is appropriate
 306:..\lvgl\lv_misc/lv_task.c ****  * @param lv_task_p pointer to lv_task
 307:..\lvgl\lv_misc/lv_task.c ****  * @return true: execute, false: not executed
ARM GAS  C:\Users\d3bug\AppData\Local\Temp\cclZ2SKJ.s 			page 11


 308:..\lvgl\lv_misc/lv_task.c ****  */
 309:..\lvgl\lv_misc/lv_task.c **** static bool lv_task_exec(lv_task_t * lv_task_p)
 310:..\lvgl\lv_misc/lv_task.c **** {
 260              		.loc 1 310 0 is_stmt 1
 261              		.cfi_startproc
 262              		@ args = 0, pretend = 0, frame = 0
 263              		@ frame_needed = 0, uses_anonymous_args = 0
 264              	.LVL37:
 265 0000 38B5     		push	{r3, r4, r5, lr}
 266              		.cfi_def_cfa_offset 16
 267              		.cfi_offset 3, -16
 268              		.cfi_offset 4, -12
 269              		.cfi_offset 5, -8
 270              		.cfi_offset 14, -4
 271 0002 0446     		mov	r4, r0
 272              	.LVL38:
 311:..\lvgl\lv_misc/lv_task.c ****     bool exec = false;
 312:..\lvgl\lv_misc/lv_task.c **** 
 313:..\lvgl\lv_misc/lv_task.c ****     /*Execute if at least 'period' time elapsed*/
 314:..\lvgl\lv_misc/lv_task.c ****     uint32_t elp = lv_tick_elaps(lv_task_p->last_run);
 273              		.loc 1 314 0
 274 0004 4068     		ldr	r0, [r0, #4]
 275              	.LVL39:
 276 0006 FFF7FEFF 		bl	lv_tick_elaps
 277              	.LVL40:
 315:..\lvgl\lv_misc/lv_task.c ****     if(elp >= lv_task_p->period) {
 278              		.loc 1 315 0
 279 000a 2368     		ldr	r3, [r4]
 280 000c 9842     		cmp	r0, r3
 281 000e 14D3     		bcc	.L26
 316:..\lvgl\lv_misc/lv_task.c ****         lv_task_p->last_run = lv_tick_get();
 282              		.loc 1 316 0
 283 0010 FFF7FEFF 		bl	lv_tick_get
 284              	.LVL41:
 285 0014 6060     		str	r0, [r4, #4]
 317:..\lvgl\lv_misc/lv_task.c ****         task_deleted = false;
 286              		.loc 1 317 0
 287 0016 0C4D     		ldr	r5, .L30
 288 0018 0023     		movs	r3, #0
 289 001a 6B70     		strb	r3, [r5, #1]
 318:..\lvgl\lv_misc/lv_task.c ****         task_created = false;
 290              		.loc 1 318 0
 291 001c 2B70     		strb	r3, [r5]
 319:..\lvgl\lv_misc/lv_task.c ****         lv_task_p->task(lv_task_p->param);
 292              		.loc 1 319 0
 293 001e A368     		ldr	r3, [r4, #8]
 294 0020 E068     		ldr	r0, [r4, #12]
 295 0022 9847     		blx	r3
 296              	.LVL42:
 320:..\lvgl\lv_misc/lv_task.c **** 
 321:..\lvgl\lv_misc/lv_task.c ****         /*Delete if it was a one shot lv_task*/
 322:..\lvgl\lv_misc/lv_task.c ****         if(task_deleted == false) {			/*The task might be deleted by itself as well*/
 297              		.loc 1 322 0
 298 0024 6B78     		ldrb	r3, [r5, #1]	@ zero_extendqisi2
 299 0026 53B9     		cbnz	r3, .L27
 323:..\lvgl\lv_misc/lv_task.c ****         	if(lv_task_p->once != 0) {
 300              		.loc 1 323 0
ARM GAS  C:\Users\d3bug\AppData\Local\Temp\cclZ2SKJ.s 			page 12


 301 0028 237C     		ldrb	r3, [r4, #16]	@ zero_extendqisi2
 302 002a 13F0080F 		tst	r3, #8
 303 002e 08D0     		beq	.L28
 324:..\lvgl\lv_misc/lv_task.c ****         	    lv_task_del(lv_task_p);
 304              		.loc 1 324 0
 305 0030 2046     		mov	r0, r4
 306 0032 FFF7FEFF 		bl	lv_task_del
 307              	.LVL43:
 325:..\lvgl\lv_misc/lv_task.c ****         	}
 326:..\lvgl\lv_misc/lv_task.c ****         }
 327:..\lvgl\lv_misc/lv_task.c ****         exec = true;
 308              		.loc 1 327 0
 309 0036 0120     		movs	r0, #1
 310 0038 38BD     		pop	{r3, r4, r5, pc}
 311              	.LVL44:
 312              	.L26:
 311:..\lvgl\lv_misc/lv_task.c **** 
 313              		.loc 1 311 0
 314 003a 0020     		movs	r0, #0
 315              	.LVL45:
 316 003c 38BD     		pop	{r3, r4, r5, pc}
 317              	.LVL46:
 318              	.L27:
 319              		.loc 1 327 0
 320 003e 0120     		movs	r0, #1
 321 0040 38BD     		pop	{r3, r4, r5, pc}
 322              	.LVL47:
 323              	.L28:
 324 0042 0120     		movs	r0, #1
 325              	.LVL48:
 328:..\lvgl\lv_misc/lv_task.c ****     }
 329:..\lvgl\lv_misc/lv_task.c **** 
 330:..\lvgl\lv_misc/lv_task.c ****     return exec;
 331:..\lvgl\lv_misc/lv_task.c **** }
 326              		.loc 1 331 0
 327 0044 38BD     		pop	{r3, r4, r5, pc}
 328              	.LVL49:
 329              	.L31:
 330 0046 00BF     		.align	2
 331              	.L30:
 332 0048 00000000 		.word	.LANCHOR0
 333              		.cfi_endproc
 334              	.LFE11:
 335              		.size	lv_task_exec, .-lv_task_exec
 336              		.section	.text.lv_task_handler,"ax",%progbits
 337              		.align	2
 338              		.global	lv_task_handler
 339              		.thumb
 340              		.thumb_func
 341              		.type	lv_task_handler, %function
 342              	lv_task_handler:
 343              	.LFB1:
  64:..\lvgl\lv_misc/lv_task.c ****     LV_LOG_TRACE("lv_task_handler started");
 344              		.loc 1 64 0
 345              		.cfi_startproc
 346              		@ args = 0, pretend = 0, frame = 0
 347              		@ frame_needed = 0, uses_anonymous_args = 0
ARM GAS  C:\Users\d3bug\AppData\Local\Temp\cclZ2SKJ.s 			page 13


 348 0000 38B5     		push	{r3, r4, r5, lr}
 349              		.cfi_def_cfa_offset 16
 350              		.cfi_offset 3, -16
 351              		.cfi_offset 4, -12
 352              		.cfi_offset 5, -8
 353              		.cfi_offset 14, -4
  65:..\lvgl\lv_misc/lv_task.c **** 
 354              		.loc 1 65 0
 355 0002 474B     		ldr	r3, .L50
 356 0004 4122     		movs	r2, #65
 357 0006 4749     		ldr	r1, .L50+4
 358 0008 0020     		movs	r0, #0
 359 000a FFF7FEFF 		bl	lv_log_add
 360              	.LVL50:
  69:..\lvgl\lv_misc/lv_task.c ****     task_handler_mutex = true;
 361              		.loc 1 69 0
 362 000e 464B     		ldr	r3, .L50+8
 363 0010 9B78     		ldrb	r3, [r3, #2]	@ zero_extendqisi2
 364 0012 002B     		cmp	r3, #0
 365 0014 40F08280 		bne	.L32
  70:..\lvgl\lv_misc/lv_task.c **** 
 366              		.loc 1 70 0
 367 0018 434B     		ldr	r3, .L50+8
 368 001a 0122     		movs	r2, #1
 369 001c 9A70     		strb	r2, [r3, #2]
  76:..\lvgl\lv_misc/lv_task.c **** 
 370              		.loc 1 76 0
 371 001e DB78     		ldrb	r3, [r3, #3]	@ zero_extendqisi2
 372 0020 002B     		cmp	r3, #0
 373 0022 7BD0     		beq	.L32
  78:..\lvgl\lv_misc/lv_task.c **** 
 374              		.loc 1 78 0
 375 0024 FFF7FEFF 		bl	lv_tick_get
 376              	.LVL51:
 377 0028 3F4B     		ldr	r3, .L50+8
 378 002a 5860     		str	r0, [r3, #4]
 379              	.LVL52:
  83:..\lvgl\lv_misc/lv_task.c ****     lv_task_t * next;
 380              		.loc 1 83 0
 381 002c 0024     		movs	r4, #0
 382              	.LVL53:
 383              	.L42:
  88:..\lvgl\lv_misc/lv_task.c ****         task_created = false;
 384              		.loc 1 88 0
 385 002e 3E4B     		ldr	r3, .L50+8
 386 0030 0022     		movs	r2, #0
 387 0032 5A70     		strb	r2, [r3, #1]
  89:..\lvgl\lv_misc/lv_task.c ****         LV_GC_ROOT(_lv_task_act) = lv_ll_get_head(&LV_GC_ROOT(_lv_task_ll));
 388              		.loc 1 89 0
 389 0034 1A70     		strb	r2, [r3]
  90:..\lvgl\lv_misc/lv_task.c ****         while(LV_GC_ROOT(_lv_task_act)) {
 390              		.loc 1 90 0
 391 0036 3D48     		ldr	r0, .L50+12
 392 0038 FFF7FEFF 		bl	lv_ll_get_head
 393              	.LVL54:
 394 003c 3C4B     		ldr	r3, .L50+16
 395 003e 1860     		str	r0, [r3]
ARM GAS  C:\Users\d3bug\AppData\Local\Temp\cclZ2SKJ.s 			page 14


  91:..\lvgl\lv_misc/lv_task.c ****             /* The task might be deleted if it runs only once ('once = 1')
 396              		.loc 1 91 0
 397 0040 33E0     		b	.L34
 398              	.L41:
  94:..\lvgl\lv_misc/lv_task.c **** 
 399              		.loc 1 94 0
 400 0042 3A48     		ldr	r0, .L50+12
 401 0044 FFF7FEFF 		bl	lv_ll_get_next
 402              	.LVL55:
 403 0048 0546     		mov	r5, r0
 404              	.LVL56:
  97:..\lvgl\lv_misc/lv_task.c ****                 break;
 405              		.loc 1 97 0
 406 004a 394B     		ldr	r3, .L50+16
 407 004c 1868     		ldr	r0, [r3]
 408              	.LVL57:
 409 004e 037C     		ldrb	r3, [r0, #16]	@ zero_extendqisi2
 410 0050 13F00703 		ands	r3, r3, #7
 411 0054 2FD0     		beq	.L45
 102:..\lvgl\lv_misc/lv_task.c ****                 task_interrupter = NULL;     /*From this point only task after the interrupter come
 412              		.loc 1 102 0
 413 0056 8442     		cmp	r4, r0
 414 0058 03D1     		bne	.L36
 415              	.LVL58:
 104:..\lvgl\lv_misc/lv_task.c ****                 continue;                   /*Load the next task*/
 416              		.loc 1 104 0
 417 005a 354B     		ldr	r3, .L50+16
 418 005c 1D60     		str	r5, [r3]
 103:..\lvgl\lv_misc/lv_task.c ****                 LV_GC_ROOT(_lv_task_act) = next;
 419              		.loc 1 103 0
 420 005e 0024     		movs	r4, #0
 105:..\lvgl\lv_misc/lv_task.c ****             }
 421              		.loc 1 105 0
 422 0060 23E0     		b	.L34
 423              	.LVL59:
 424              	.L36:
 109:..\lvgl\lv_misc/lv_task.c ****                 lv_task_exec(LV_GC_ROOT(_lv_task_act));
 425              		.loc 1 109 0
 426 0062 052B     		cmp	r3, #5
 427 0064 02D1     		bne	.L38
 110:..\lvgl\lv_misc/lv_task.c ****             }
 428              		.loc 1 110 0
 429 0066 FFF7FEFF 		bl	lv_task_exec
 430              	.LVL60:
 431 006a 16E0     		b	.L39
 432              	.L38:
 113:..\lvgl\lv_misc/lv_task.c ****                 if(((lv_task_t *)LV_GC_ROOT(_lv_task_act))->prio > task_interrupter->prio) {
 433              		.loc 1 113 0
 434 006c 74B1     		cbz	r4, .L40
 114:..\lvgl\lv_misc/lv_task.c ****                     if(lv_task_exec(LV_GC_ROOT(_lv_task_act))) {
 435              		.loc 1 114 0
 436 006e 027C     		ldrb	r2, [r0, #16]	@ zero_extendqisi2
 437 0070 02F00702 		and	r2, r2, #7
 438 0074 237C     		ldrb	r3, [r4, #16]	@ zero_extendqisi2
 439 0076 03F00703 		and	r3, r3, #7
 440 007a 9A42     		cmp	r2, r3
 441 007c 0DDD     		ble	.L39
ARM GAS  C:\Users\d3bug\AppData\Local\Temp\cclZ2SKJ.s 			page 15


 115:..\lvgl\lv_misc/lv_task.c ****                         task_interrupter = LV_GC_ROOT(_lv_task_act);  /*Check all tasks again from 
 442              		.loc 1 115 0
 443 007e FFF7FEFF 		bl	lv_task_exec
 444              	.LVL61:
 445 0082 50B1     		cbz	r0, .L39
 116:..\lvgl\lv_misc/lv_task.c ****                         end_flag = false;
 446              		.loc 1 116 0
 447 0084 2A4B     		ldr	r3, .L50+16
 448 0086 1C68     		ldr	r4, [r3]
 449              	.LVL62:
 117:..\lvgl\lv_misc/lv_task.c ****                         break;
 450              		.loc 1 117 0
 451 0088 0023     		movs	r3, #0
 118:..\lvgl\lv_misc/lv_task.c ****                     }
 452              		.loc 1 118 0
 453 008a 19E0     		b	.L35
 454              	.LVL63:
 455              	.L40:
 125:..\lvgl\lv_misc/lv_task.c ****                     task_interrupter = LV_GC_ROOT(_lv_task_act);  /*Check all tasks again from the 
 456              		.loc 1 125 0
 457 008c FFF7FEFF 		bl	lv_task_exec
 458              	.LVL64:
 459 0090 18B1     		cbz	r0, .L39
 126:..\lvgl\lv_misc/lv_task.c ****                     end_flag = false;
 460              		.loc 1 126 0
 461 0092 274B     		ldr	r3, .L50+16
 462 0094 1C68     		ldr	r4, [r3]
 463              	.LVL65:
 127:..\lvgl\lv_misc/lv_task.c ****                     break;
 464              		.loc 1 127 0
 465 0096 0023     		movs	r3, #0
 128:..\lvgl\lv_misc/lv_task.c ****                 }
 466              		.loc 1 128 0
 467 0098 12E0     		b	.L35
 468              	.LVL66:
 469              	.L39:
 132:..\lvgl\lv_misc/lv_task.c ****             if(task_created) break;     /*If a task was deleted then this or the next item might be
 470              		.loc 1 132 0
 471 009a 234B     		ldr	r3, .L50+8
 472 009c 5B78     		ldrb	r3, [r3, #1]	@ zero_extendqisi2
 473 009e 63B9     		cbnz	r3, .L46
 133:..\lvgl\lv_misc/lv_task.c **** 
 474              		.loc 1 133 0
 475 00a0 214B     		ldr	r3, .L50+8
 476 00a2 1B78     		ldrb	r3, [r3]	@ zero_extendqisi2
 477 00a4 5BB9     		cbnz	r3, .L47
 135:..\lvgl\lv_misc/lv_task.c ****         }
 478              		.loc 1 135 0
 479 00a6 224B     		ldr	r3, .L50+16
 480 00a8 1D60     		str	r5, [r3]
 481              	.LVL67:
 482              	.L34:
  91:..\lvgl\lv_misc/lv_task.c ****             /* The task might be deleted if it runs only once ('once = 1')
 483              		.loc 1 91 0
 484 00aa 214B     		ldr	r3, .L50+16
 485 00ac 1968     		ldr	r1, [r3]
 486 00ae 0029     		cmp	r1, #0
ARM GAS  C:\Users\d3bug\AppData\Local\Temp\cclZ2SKJ.s 			page 16


 487 00b0 C7D1     		bne	.L41
  87:..\lvgl\lv_misc/lv_task.c ****         task_deleted = false;
 488              		.loc 1 87 0
 489 00b2 0123     		movs	r3, #1
 490 00b4 04E0     		b	.L35
 491              	.LVL68:
 492              	.L45:
 493 00b6 0123     		movs	r3, #1
 494 00b8 02E0     		b	.L35
 495              	.L46:
 496 00ba 0123     		movs	r3, #1
 497 00bc 00E0     		b	.L35
 498              	.L47:
 499 00be 0123     		movs	r3, #1
 500              	.LVL69:
 501              	.L35:
 137:..\lvgl\lv_misc/lv_task.c **** 
 502              		.loc 1 137 0
 503 00c0 002B     		cmp	r3, #0
 504 00c2 B4D0     		beq	.L42
 139:..\lvgl\lv_misc/lv_task.c ****     uint32_t idle_period_time = lv_tick_elaps(idle_period_start);
 505              		.loc 1 139 0
 506 00c4 184C     		ldr	r4, .L50+8
 507              	.LVL70:
 508 00c6 6068     		ldr	r0, [r4, #4]
 509 00c8 FFF7FEFF 		bl	lv_tick_elaps
 510              	.LVL71:
 511 00cc A368     		ldr	r3, [r4, #8]
 512 00ce 1844     		add	r0, r0, r3
 513 00d0 A060     		str	r0, [r4, #8]
 140:..\lvgl\lv_misc/lv_task.c ****     if(idle_period_time >= IDLE_MEAS_PERIOD) {
 514              		.loc 1 140 0
 515 00d2 E068     		ldr	r0, [r4, #12]
 516 00d4 FFF7FEFF 		bl	lv_tick_elaps
 517              	.LVL72:
 141:..\lvgl\lv_misc/lv_task.c **** 
 518              		.loc 1 141 0
 519 00d8 B0F5FA7F 		cmp	r0, #500
 520 00dc 16D3     		bcc	.L43
 143:..\lvgl\lv_misc/lv_task.c ****         idle_last = idle_last > 100 ? 0 : 100 - idle_last;                      /*But we need idle 
 521              		.loc 1 143 0
 522 00de A268     		ldr	r2, [r4, #8]
 523 00e0 6423     		movs	r3, #100
 524 00e2 03FB02F3 		mul	r3, r3, r2
 525 00e6 134A     		ldr	r2, .L50+20
 526 00e8 A2FB0323 		umull	r2, r3, r2, r3
 527 00ec C3F34713 		ubfx	r3, r3, #5, #8
 144:..\lvgl\lv_misc/lv_task.c ****         busy_time = 0;
 528              		.loc 1 144 0
 529 00f0 642B     		cmp	r3, #100
 530 00f2 03D8     		bhi	.L48
 144:..\lvgl\lv_misc/lv_task.c ****         busy_time = 0;
 531              		.loc 1 144 0 is_stmt 0 discriminator 1
 532 00f4 C3F16403 		rsb	r3, r3, #100
 533 00f8 DBB2     		uxtb	r3, r3
 534 00fa 00E0     		b	.L44
 535              	.L48:
ARM GAS  C:\Users\d3bug\AppData\Local\Temp\cclZ2SKJ.s 			page 17


 144:..\lvgl\lv_misc/lv_task.c ****         busy_time = 0;
 536              		.loc 1 144 0
 537 00fc 0023     		movs	r3, #0
 538              	.L44:
 144:..\lvgl\lv_misc/lv_task.c ****         busy_time = 0;
 539              		.loc 1 144 0 discriminator 4
 540 00fe 0A4C     		ldr	r4, .L50+8
 541 0100 2374     		strb	r3, [r4, #16]
 145:..\lvgl\lv_misc/lv_task.c ****         idle_period_start = lv_tick_get();
 542              		.loc 1 145 0 is_stmt 1 discriminator 4
 543 0102 0023     		movs	r3, #0
 544 0104 A360     		str	r3, [r4, #8]
 146:..\lvgl\lv_misc/lv_task.c **** 
 545              		.loc 1 146 0 discriminator 4
 546 0106 FFF7FEFF 		bl	lv_tick_get
 547              	.LVL73:
 548 010a E060     		str	r0, [r4, #12]
 549              	.L43:
 151:..\lvgl\lv_misc/lv_task.c **** 
 550              		.loc 1 151 0
 551 010c 0020     		movs	r0, #0
 552 010e 064B     		ldr	r3, .L50+8
 553 0110 9870     		strb	r0, [r3, #2]
 153:..\lvgl\lv_misc/lv_task.c **** }
 554              		.loc 1 153 0
 555 0112 094B     		ldr	r3, .L50+24
 556 0114 9922     		movs	r2, #153
 557 0116 0349     		ldr	r1, .L50+4
 558 0118 FFF7FEFF 		bl	lv_log_add
 559              	.LVL74:
 560              	.L32:
 561 011c 38BD     		pop	{r3, r4, r5, pc}
 562              	.L51:
 563 011e 00BF     		.align	2
 564              	.L50:
 565 0120 2C000000 		.word	.LC2
 566 0124 10000000 		.word	.LC1
 567 0128 00000000 		.word	.LANCHOR0
 568 012c 00000000 		.word	_lv_task_ll
 569 0130 00000000 		.word	_lv_task_act
 570 0134 D34D6210 		.word	274877907
 571 0138 44000000 		.word	.LC3
 572              		.cfi_endproc
 573              	.LFE1:
 574              		.size	lv_task_handler, .-lv_task_handler
 575              		.section	.text.lv_task_set_prio,"ax",%progbits
 576              		.align	2
 577              		.global	lv_task_set_prio
 578              		.thumb
 579              		.thumb_func
 580              		.type	lv_task_set_prio, %function
 581              	lv_task_set_prio:
 582              	.LFB4:
 224:..\lvgl\lv_misc/lv_task.c ****     /*Find the tasks with new priority*/
 583              		.loc 1 224 0
 584              		.cfi_startproc
 585              		@ args = 0, pretend = 0, frame = 0
ARM GAS  C:\Users\d3bug\AppData\Local\Temp\cclZ2SKJ.s 			page 18


 586              		@ frame_needed = 0, uses_anonymous_args = 0
 587              	.LVL75:
 588 0000 70B5     		push	{r4, r5, r6, lr}
 589              		.cfi_def_cfa_offset 16
 590              		.cfi_offset 4, -16
 591              		.cfi_offset 5, -12
 592              		.cfi_offset 6, -8
 593              		.cfi_offset 14, -4
 594 0002 0646     		mov	r6, r0
 595 0004 0D46     		mov	r5, r1
 227:..\lvgl\lv_misc/lv_task.c ****         if(i->prio <= prio) {
 596              		.loc 1 227 0
 597 0006 1248     		ldr	r0, .L59
 598              	.LVL76:
 599 0008 FFF7FEFF 		bl	lv_ll_get_head
 600              	.LVL77:
 601 000c 0446     		mov	r4, r0
 602              	.LVL78:
 603 000e 11E0     		b	.L53
 604              	.L56:
 228:..\lvgl\lv_misc/lv_task.c ****             if(i != lv_task_p) lv_ll_move_before(&LV_GC_ROOT(_lv_task_ll), lv_task_p, i);
 605              		.loc 1 228 0
 606 0010 237C     		ldrb	r3, [r4, #16]	@ zero_extendqisi2
 607 0012 03F00703 		and	r3, r3, #7
 608 0016 AB42     		cmp	r3, r5
 609 0018 07DC     		bgt	.L54
 229:..\lvgl\lv_misc/lv_task.c ****             break;
 610              		.loc 1 229 0
 611 001a B442     		cmp	r4, r6
 612 001c 0CD0     		beq	.L55
 229:..\lvgl\lv_misc/lv_task.c ****             break;
 613              		.loc 1 229 0 is_stmt 0 discriminator 1
 614 001e 2246     		mov	r2, r4
 615 0020 3146     		mov	r1, r6
 616 0022 0B48     		ldr	r0, .L59
 617              	.LVL79:
 618 0024 FFF7FEFF 		bl	lv_ll_move_before
 619              	.LVL80:
 620 0028 06E0     		b	.L55
 621              	.LVL81:
 622              	.L54:
 227:..\lvgl\lv_misc/lv_task.c ****         if(i->prio <= prio) {
 623              		.loc 1 227 0 is_stmt 1 discriminator 2
 624 002a 2146     		mov	r1, r4
 625 002c 0848     		ldr	r0, .L59
 626              	.LVL82:
 627 002e FFF7FEFF 		bl	lv_ll_get_next
 628              	.LVL83:
 629 0032 0446     		mov	r4, r0
 630              	.LVL84:
 631              	.L53:
 227:..\lvgl\lv_misc/lv_task.c ****         if(i->prio <= prio) {
 632              		.loc 1 227 0 is_stmt 0 discriminator 1
 633 0034 002C     		cmp	r4, #0
 634 0036 EBD1     		bne	.L56
 635              	.LVL85:
 636              	.L55:
ARM GAS  C:\Users\d3bug\AppData\Local\Temp\cclZ2SKJ.s 			page 19


 235:..\lvgl\lv_misc/lv_task.c ****         lv_ll_move_before(&LV_GC_ROOT(_lv_task_ll), lv_task_p, NULL);
 637              		.loc 1 235 0 is_stmt 1
 638 0038 24B9     		cbnz	r4, .L57
 236:..\lvgl\lv_misc/lv_task.c ****     }
 639              		.loc 1 236 0
 640 003a 0022     		movs	r2, #0
 641 003c 3146     		mov	r1, r6
 642 003e 0448     		ldr	r0, .L59
 643 0040 FFF7FEFF 		bl	lv_ll_move_before
 644              	.LVL86:
 645              	.L57:
 240:..\lvgl\lv_misc/lv_task.c **** }
 646              		.loc 1 240 0
 647 0044 337C     		ldrb	r3, [r6, #16]	@ zero_extendqisi2
 648 0046 65F30203 		bfi	r3, r5, #0, #3
 649 004a 3374     		strb	r3, [r6, #16]
 650 004c 70BD     		pop	{r4, r5, r6, pc}
 651              	.LVL87:
 652              	.L60:
 653 004e 00BF     		.align	2
 654              	.L59:
 655 0050 00000000 		.word	_lv_task_ll
 656              		.cfi_endproc
 657              	.LFE4:
 658              		.size	lv_task_set_prio, .-lv_task_set_prio
 659              		.section	.text.lv_task_set_period,"ax",%progbits
 660              		.align	2
 661              		.global	lv_task_set_period
 662              		.thumb
 663              		.thumb_func
 664              		.type	lv_task_set_period, %function
 665              	lv_task_set_period:
 666              	.LFB5:
 249:..\lvgl\lv_misc/lv_task.c ****     lv_task_p->period = period;
 667              		.loc 1 249 0
 668              		.cfi_startproc
 669              		@ args = 0, pretend = 0, frame = 0
 670              		@ frame_needed = 0, uses_anonymous_args = 0
 671              		@ link register save eliminated.
 672              	.LVL88:
 250:..\lvgl\lv_misc/lv_task.c **** }
 673              		.loc 1 250 0
 674 0000 0160     		str	r1, [r0]
 675 0002 7047     		bx	lr
 676              		.cfi_endproc
 677              	.LFE5:
 678              		.size	lv_task_set_period, .-lv_task_set_period
 679              		.section	.text.lv_task_ready,"ax",%progbits
 680              		.align	2
 681              		.global	lv_task_ready
 682              		.thumb
 683              		.thumb_func
 684              		.type	lv_task_ready, %function
 685              	lv_task_ready:
 686              	.LFB6:
 258:..\lvgl\lv_misc/lv_task.c ****     lv_task_p->last_run = lv_tick_get() - lv_task_p->period - 1;
 687              		.loc 1 258 0
ARM GAS  C:\Users\d3bug\AppData\Local\Temp\cclZ2SKJ.s 			page 20


 688              		.cfi_startproc
 689              		@ args = 0, pretend = 0, frame = 0
 690              		@ frame_needed = 0, uses_anonymous_args = 0
 691              	.LVL89:
 692 0000 10B5     		push	{r4, lr}
 693              		.cfi_def_cfa_offset 8
 694              		.cfi_offset 4, -8
 695              		.cfi_offset 14, -4
 696 0002 0446     		mov	r4, r0
 259:..\lvgl\lv_misc/lv_task.c **** }
 697              		.loc 1 259 0
 698 0004 FFF7FEFF 		bl	lv_tick_get
 699              	.LVL90:
 700 0008 2368     		ldr	r3, [r4]
 701 000a C01A     		subs	r0, r0, r3
 702 000c 0138     		subs	r0, r0, #1
 703 000e 6060     		str	r0, [r4, #4]
 704 0010 10BD     		pop	{r4, pc}
 705              		.cfi_endproc
 706              	.LFE6:
 707              		.size	lv_task_ready, .-lv_task_ready
 708 0012 00BF     		.section	.text.lv_task_once,"ax",%progbits
 709              		.align	2
 710              		.global	lv_task_once
 711              		.thumb
 712              		.thumb_func
 713              		.type	lv_task_once, %function
 714              	lv_task_once:
 715              	.LFB7:
 267:..\lvgl\lv_misc/lv_task.c ****     lv_task_p->once = 1;
 716              		.loc 1 267 0
 717              		.cfi_startproc
 718              		@ args = 0, pretend = 0, frame = 0
 719              		@ frame_needed = 0, uses_anonymous_args = 0
 720              		@ link register save eliminated.
 721              	.LVL91:
 268:..\lvgl\lv_misc/lv_task.c **** }
 722              		.loc 1 268 0
 723 0000 037C     		ldrb	r3, [r0, #16]	@ zero_extendqisi2
 724 0002 43F00803 		orr	r3, r3, #8
 725 0006 0374     		strb	r3, [r0, #16]
 726 0008 7047     		bx	lr
 727              		.cfi_endproc
 728              	.LFE7:
 729              		.size	lv_task_once, .-lv_task_once
 730 000a 00BF     		.section	.text.lv_task_reset,"ax",%progbits
 731              		.align	2
 732              		.global	lv_task_reset
 733              		.thumb
 734              		.thumb_func
 735              		.type	lv_task_reset, %function
 736              	lv_task_reset:
 737              	.LFB8:
 277:..\lvgl\lv_misc/lv_task.c ****     lv_task_p->last_run = lv_tick_get();
 738              		.loc 1 277 0
 739              		.cfi_startproc
 740              		@ args = 0, pretend = 0, frame = 0
ARM GAS  C:\Users\d3bug\AppData\Local\Temp\cclZ2SKJ.s 			page 21


 741              		@ frame_needed = 0, uses_anonymous_args = 0
 742              	.LVL92:
 743 0000 10B5     		push	{r4, lr}
 744              		.cfi_def_cfa_offset 8
 745              		.cfi_offset 4, -8
 746              		.cfi_offset 14, -4
 747 0002 0446     		mov	r4, r0
 278:..\lvgl\lv_misc/lv_task.c **** }
 748              		.loc 1 278 0
 749 0004 FFF7FEFF 		bl	lv_tick_get
 750              	.LVL93:
 751 0008 6060     		str	r0, [r4, #4]
 752 000a 10BD     		pop	{r4, pc}
 753              		.cfi_endproc
 754              	.LFE8:
 755              		.size	lv_task_reset, .-lv_task_reset
 756              		.section	.text.lv_task_enable,"ax",%progbits
 757              		.align	2
 758              		.global	lv_task_enable
 759              		.thumb
 760              		.thumb_func
 761              		.type	lv_task_enable, %function
 762              	lv_task_enable:
 763              	.LFB9:
 286:..\lvgl\lv_misc/lv_task.c ****     lv_task_run = en;
 764              		.loc 1 286 0
 765              		.cfi_startproc
 766              		@ args = 0, pretend = 0, frame = 0
 767              		@ frame_needed = 0, uses_anonymous_args = 0
 768              		@ link register save eliminated.
 769              	.LVL94:
 287:..\lvgl\lv_misc/lv_task.c **** }
 770              		.loc 1 287 0
 771 0000 014B     		ldr	r3, .L68
 772 0002 D870     		strb	r0, [r3, #3]
 773 0004 7047     		bx	lr
 774              	.L69:
 775 0006 00BF     		.align	2
 776              	.L68:
 777 0008 00000000 		.word	.LANCHOR0
 778              		.cfi_endproc
 779              	.LFE9:
 780              		.size	lv_task_enable, .-lv_task_enable
 781              		.section	.text.lv_task_init,"ax",%progbits
 782              		.align	2
 783              		.global	lv_task_init
 784              		.thumb
 785              		.thumb_func
 786              		.type	lv_task_init, %function
 787              	lv_task_init:
 788              	.LFB0:
  53:..\lvgl\lv_misc/lv_task.c ****     lv_ll_init(&LV_GC_ROOT(_lv_task_ll), sizeof(lv_task_t));
 789              		.loc 1 53 0
 790              		.cfi_startproc
 791              		@ args = 0, pretend = 0, frame = 0
 792              		@ frame_needed = 0, uses_anonymous_args = 0
 793 0000 08B5     		push	{r3, lr}
ARM GAS  C:\Users\d3bug\AppData\Local\Temp\cclZ2SKJ.s 			page 22


 794              		.cfi_def_cfa_offset 8
 795              		.cfi_offset 3, -8
 796              		.cfi_offset 14, -4
  54:..\lvgl\lv_misc/lv_task.c **** 
 797              		.loc 1 54 0
 798 0002 1421     		movs	r1, #20
 799 0004 0348     		ldr	r0, .L72
 800 0006 FFF7FEFF 		bl	lv_ll_init
 801              	.LVL95:
  57:..\lvgl\lv_misc/lv_task.c **** }
 802              		.loc 1 57 0
 803 000a 0120     		movs	r0, #1
 804 000c FFF7FEFF 		bl	lv_task_enable
 805              	.LVL96:
 806 0010 08BD     		pop	{r3, pc}
 807              	.L73:
 808 0012 00BF     		.align	2
 809              	.L72:
 810 0014 00000000 		.word	_lv_task_ll
 811              		.cfi_endproc
 812              	.LFE0:
 813              		.size	lv_task_init, .-lv_task_init
 814              		.section	.text.lv_task_get_idle,"ax",%progbits
 815              		.align	2
 816              		.global	lv_task_get_idle
 817              		.thumb
 818              		.thumb_func
 819              		.type	lv_task_get_idle, %function
 820              	lv_task_get_idle:
 821              	.LFB10:
 295:..\lvgl\lv_misc/lv_task.c ****     return idle_last;
 822              		.loc 1 295 0
 823              		.cfi_startproc
 824              		@ args = 0, pretend = 0, frame = 0
 825              		@ frame_needed = 0, uses_anonymous_args = 0
 826              		@ link register save eliminated.
 297:..\lvgl\lv_misc/lv_task.c **** 
 827              		.loc 1 297 0
 828 0000 014B     		ldr	r3, .L75
 829 0002 187C     		ldrb	r0, [r3, #16]	@ zero_extendqisi2
 830 0004 7047     		bx	lr
 831              	.L76:
 832 0006 00BF     		.align	2
 833              	.L75:
 834 0008 00000000 		.word	.LANCHOR0
 835              		.cfi_endproc
 836              	.LFE10:
 837              		.size	lv_task_get_idle, .-lv_task_get_idle
 838              		.section	.rodata.str1.4,"aMS",%progbits,1
 839              		.align	2
 840              	.LC0:
 841 0000 4F757420 		.ascii	"Out of memory!\000"
 841      6F66206D 
 841      656D6F72 
 841      792100
 842 000f 00       		.space	1
 843              	.LC1:
ARM GAS  C:\Users\d3bug\AppData\Local\Temp\cclZ2SKJ.s 			page 23


 844 0010 2E2E5C6C 		.ascii	"..\\lvgl\\lv_misc\\lv_task.c\000"
 844      76676C5C 
 844      6C765F6D 
 844      6973635C 
 844      6C765F74 
 845 002a 0000     		.space	2
 846              	.LC2:
 847 002c 6C765F74 		.ascii	"lv_task_handler started\000"
 847      61736B5F 
 847      68616E64 
 847      6C657220 
 847      73746172 
 848              	.LC3:
 849 0044 6C765F74 		.ascii	"lv_task_handler ready\000"
 849      61736B5F 
 849      68616E64 
 849      6C657220 
 849      72656164 
 850              		.bss
 851              		.align	2
 852              		.set	.LANCHOR0,. + 0
 853              		.type	task_created, %object
 854              		.size	task_created, 1
 855              	task_created:
 856 0000 00       		.space	1
 857              		.type	task_deleted, %object
 858              		.size	task_deleted, 1
 859              	task_deleted:
 860 0001 00       		.space	1
 861              		.type	task_handler_mutex.4368, %object
 862              		.size	task_handler_mutex.4368, 1
 863              	task_handler_mutex.4368:
 864 0002 00       		.space	1
 865              		.type	lv_task_run, %object
 866              		.size	lv_task_run, 1
 867              	lv_task_run:
 868 0003 00       		.space	1
 869              		.type	handler_start.4370, %object
 870              		.size	handler_start.4370, 4
 871              	handler_start.4370:
 872 0004 00000000 		.space	4
 873              		.type	busy_time.4371, %object
 874              		.size	busy_time.4371, 4
 875              	busy_time.4371:
 876 0008 00000000 		.space	4
 877              		.type	idle_period_start.4369, %object
 878              		.size	idle_period_start.4369, 4
 879              	idle_period_start.4369:
 880 000c 00000000 		.space	4
 881              		.type	idle_last, %object
 882              		.size	idle_last, 1
 883              	idle_last:
 884 0010 00       		.space	1
 885              		.text
 886              	.Letext0:
 887              		.file 2 "c:\\program files (x86)\\cypress\\psoc creator\\4.2\\psoc creator\\import\\gnu\\arm\\5.4.
 888              		.file 3 "c:\\program files (x86)\\cypress\\psoc creator\\4.2\\psoc creator\\import\\gnu\\arm\\5.4.
ARM GAS  C:\Users\d3bug\AppData\Local\Temp\cclZ2SKJ.s 			page 24


 889              		.file 4 "..\\lvgl\\lv_misc\\lv_ll.h"
 890              		.file 5 "..\\lvgl\\lv_misc\\lv_task.h"
 891              		.file 6 "..\\lvgl\\lv_misc\\lv_gc.h"
 892              		.file 7 "..\\lvgl\\lv_misc\\lv_log.h"
 893              		.file 8 "..\\lvgl\\lv_misc\\../lv_hal/lv_hal_tick.h"
 894              		.file 9 "..\\lvgl\\lv_misc\\lv_mem.h"