ARM GAS  C:\Users\d3bug\AppData\Local\Temp\ccoxzwpu.s 			page 1


   1              		.syntax unified
   2              		.cpu cortex-m3
   3              		.fpu softvfp
   4              		.eabi_attribute 20, 1
   5              		.eabi_attribute 21, 1
   6              		.eabi_attribute 23, 3
   7              		.eabi_attribute 24, 1
   8              		.eabi_attribute 25, 1
   9              		.eabi_attribute 26, 1
  10              		.eabi_attribute 30, 1
  11              		.eabi_attribute 34, 1
  12              		.eabi_attribute 18, 4
  13              		.thumb
  14              		.syntax unified
  15              		.file	"main.c"
  16              		.text
  17              	.Ltext0:
  18              		.cfi_sections	.debug_frame
  19              		.section	.text.ssd1306_flush,"ax",%progbits
  20              		.align	2
  21              		.global	ssd1306_flush
  22              		.thumb
  23              		.thumb_func
  24              		.type	ssd1306_flush, %function
  25              	ssd1306_flush:
  26              	.LFB78:
  27              		.file 1 "main.c"
   1:main.c        **** #include "project.h"
   2:main.c        **** 
   3:main.c        **** #include "lvgl.h"
   4:main.c        **** 
   5:main.c        **** #include "SSD1306.h"
   6:main.c        **** #include "DBG.h"
   7:main.c        **** 
   8:main.c        **** /*
   9:main.c        ****  * WELCOME TO THE LITTLEVGL TUTORIAL
  10:main.c        ****  *
  11:main.c        ****  *-----------------------------------------------------------------------------
  12:main.c        ****  * Now you will learn how to port the Littlev Graphics Library to your system
  13:main.c        ****  * ----------------------------------------------------------------------------
  14:main.c        ****  *
  15:main.c        ****  *Here are some info about the drawing modes in the library:
  16:main.c        ****  *
  17:main.c        ****  * BUFFERED DRAWING
  18:main.c        ****  * The graphics library works with an internal buffering mechanism to
  19:main.c        ****  * create advances graphics features with only one frame buffer.
  20:main.c        ****  * The internal buffer is called VDB (Virtual Display Buffer) and its size can be adjusted in lv_co
  21:main.c        ****  * When LV_VDB_SIZE not zero then the internal buffering is used and you have to provide a function
  22:main.c        ****  * which flushes the buffers content to your display.
  23:main.c        ****  *
  24:main.c        ****  * UNBUFFERED DRAWING
  25:main.c        ****  * It is possible to draw directly to a frame buffer when the internal buffering is disabled (LV_VD
  26:main.c        ****  * Keep in mind this way during refresh some artifacts can be visible because the layers are drawn 
  27:main.c        ****  * And some high level graphics features like anti aliasing, opacity or shadows aren't available in
  28:main.c        ****  * In this mode two functions are required:  fill and area with a color AND write a color array to 
  29:main.c        ****  *
  30:main.c        ****  * HARDWARE ACCELERATION (GPU)
ARM GAS  C:\Users\d3bug\AppData\Local\Temp\ccoxzwpu.s 			page 2


  31:main.c        ****  * If your MCU supports graphical acceleration (GPU) then you can use it with two interface functio
  32:main.c        ****  * blend two memories using opacity AND fill a memory with a color.
  33:main.c        ****  * Use only one function or none of them is right as well because every GPU function is optional
  34:main.c        ****  */
  35:main.c        **** 
  36:main.c        **** static int inline _load_frame_buffer(uint8_t *buf, uint8_t x1, uint8_t y1, uint8_t x2, uint8_t y2)
  37:main.c        **** {
  38:main.c        ****     // Convert to page
  39:main.c        ****     // By shifting the y1 and y2 values 3 positions to the right we are effectively
  40:main.c        ****     // dividing it's values by 8, this allow us to map the whole 64 height pixels
  41:main.c        ****     // into the ( pages of the SSD1306.
  42:main.c        ****     y1 = y1 >> 3;
  43:main.c        ****     y2 = y2 >> 3;
  44:main.c        ****     
  45:main.c        ****     ssd_set_column_addr(x1, x2);
  46:main.c        ****     ssd_set_page_addr(y1, y2);
  47:main.c        ****     
  48:main.c        ****     // https://github.com/littlevgl/lv_drivers/issues/29
  49:main.c        ****     // https://github.com/littlevgl/lv_drivers/issues/29
  50:main.c        ****     
  51:main.c        ****     const uint16_t col_step = 16;
  52:main.c        **** 
  53:main.c        ****     uint8_t col_len = (x2 - x1) + 1;
  54:main.c        ****     uint8_t page_len = (y2 - y1) + 1;
  55:main.c        ****     
  56:main.c        ****     for (uint8_t page = 0; page < page_len; page++) {
  57:main.c        ****         for (uint8_t col = 0; col < col_len; ) {
  58:main.c        ****             if((col + col_step) <= col_len) {
  59:main.c        ****                 uint8_t *data = &buf[page * col_len + col];
  60:main.c        ****                 ssd_send_buffer(data, col_step);
  61:main.c        ****                 col += col_step;
  62:main.c        ****             } else {
  63:main.c        ****                 // Last data for this page
  64:main.c        ****                 uint8_t *data = &buf[page * col_len + col];
  65:main.c        ****                 ssd_send_buffer(data, col_len - col);
  66:main.c        ****                 break;
  67:main.c        ****             }
  68:main.c        ****         }
  69:main.c        ****     }
  70:main.c        **** 
  71:main.c        ****     return 0;
  72:main.c        **** }
  73:main.c        **** 
  74:main.c        **** /* Flush the content of the internal buffer the specific area on the display
  75:main.c        ****  * You can use DMA or any hardware acceleration to do this operation in the background but
  76:main.c        ****  * 'lv_flush_ready()' has to be called when finished
  77:main.c        ****  * This function is required only when LV_VDB_SIZE != 0 in lv_conf.h*/
  78:main.c        **** void ssd1306_flush(int32_t x1, int32_t y1, int32_t x2, int32_t y2, const lv_color_t * color_p)
  79:main.c        **** {
  28              		.loc 1 79 0
  29              		.cfi_startproc
  30              		@ args = 4, pretend = 0, frame = 0
  31              		@ frame_needed = 0, uses_anonymous_args = 0
  32              	.LVL0:
  33 0000 2DE9F041 		push	{r4, r5, r6, r7, r8, lr}
  34              		.cfi_def_cfa_offset 24
  35              		.cfi_offset 4, -24
ARM GAS  C:\Users\d3bug\AppData\Local\Temp\ccoxzwpu.s 			page 3


  36              		.cfi_offset 5, -20
  37              		.cfi_offset 6, -16
  38              		.cfi_offset 7, -12
  39              		.cfi_offset 8, -8
  40              		.cfi_offset 14, -4
  41 0004 069F     		ldr	r7, [sp, #24]
  80:main.c        ****     /* Return if the area is out the screen */
  81:main.c        ****     if ((x2 < 0) || (y2 < 0) || (x1 > LV_HOR_RES - 1) || (y1 > (LV_VER_RES - 1))) {
  42              		.loc 1 81 0
  43 0006 002A     		cmp	r2, #0
  44 0008 05DB     		blt	.L2
  45              		.loc 1 81 0 is_stmt 0 discriminator 1
  46 000a 002B     		cmp	r3, #0
  47 000c 03DB     		blt	.L2
  48              		.loc 1 81 0 discriminator 2
  49 000e 7F28     		cmp	r0, #127
  50 0010 01DC     		bgt	.L2
  51              		.loc 1 81 0 discriminator 3
  52 0012 3F29     		cmp	r1, #63
  53 0014 03DD     		ble	.L3
  54              	.L2:
  82:main.c        ****         lv_flush_ready();
  55              		.loc 1 82 0 is_stmt 1
  56 0016 FFF7FEFF 		bl	lv_flush_ready
  57              	.LVL1:
  83:main.c        ****         return;
  58              		.loc 1 83 0
  59 001a BDE8F081 		pop	{r4, r5, r6, r7, r8, pc}
  60              	.LVL2:
  61              	.L3:
  84:main.c        ****     }
  85:main.c        ****     
  86:main.c        ****     _load_frame_buffer((uint8_t *) color_p, x1, y1, x2, y2);
  62              		.loc 1 86 0
  63 001e C5B2     		uxtb	r5, r0
  64 0020 D6B2     		uxtb	r6, r2
  65              	.LVL3:
  66              	.LBB8:
  67              	.LBB9:
  42:main.c        ****     y2 = y2 >> 3;
  68              		.loc 1 42 0
  69 0022 C1F3C408 		ubfx	r8, r1, #3, #5
  70              	.LVL4:
  43:main.c        ****     
  71              		.loc 1 43 0
  72 0026 C3F3C404 		ubfx	r4, r3, #3, #5
  73              	.LVL5:
  45:main.c        ****     ssd_set_page_addr(y1, y2);
  74              		.loc 1 45 0
  75 002a 3146     		mov	r1, r6
  76              	.LVL6:
  77 002c 2846     		mov	r0, r5
  78              	.LVL7:
  79 002e FFF7FEFF 		bl	ssd_set_column_addr
  80              	.LVL8:
  46:main.c        ****     
  81              		.loc 1 46 0
ARM GAS  C:\Users\d3bug\AppData\Local\Temp\ccoxzwpu.s 			page 4


  82 0032 2146     		mov	r1, r4
  83 0034 4046     		mov	r0, r8
  84 0036 FFF7FEFF 		bl	ssd_set_page_addr
  85              	.LVL9:
  53:main.c        ****     uint8_t page_len = (y2 - y1) + 1;
  86              		.loc 1 53 0
  87 003a 751B     		subs	r5, r6, r5
  88              	.LVL10:
  89 003c 0135     		adds	r5, r5, #1
  90 003e EDB2     		uxtb	r5, r5
  91              	.LVL11:
  54:main.c        ****     
  92              		.loc 1 54 0
  93 0040 C8EB0408 		rsb	r8, r8, r4
  94              	.LVL12:
  95 0044 08F10108 		add	r8, r8, #1
  96 0048 5FFA88F8 		uxtb	r8, r8
  97              	.LVL13:
  98              	.LBB10:
  56:main.c        ****         for (uint8_t col = 0; col < col_len; ) {
  99              		.loc 1 56 0
 100 004c 0026     		movs	r6, #0
 101              	.LVL14:
 102 004e 18E0     		b	.L5
 103              	.LVL15:
 104              	.L9:
 105              	.LBB11:
  58:main.c        ****                 uint8_t *data = &buf[page * col_len + col];
 106              		.loc 1 58 0
 107 0050 04F11003 		add	r3, r4, #16
 108 0054 AB42     		cmp	r3, r5
 109 0056 08DC     		bgt	.L6
 110              	.LBB12:
  59:main.c        ****                 ssd_send_buffer(data, col_step);
 111              		.loc 1 59 0
 112 0058 05FB0640 		mla	r0, r5, r6, r4
 113              	.LVL16:
  60:main.c        ****                 col += col_step;
 114              		.loc 1 60 0
 115 005c 1021     		movs	r1, #16
 116 005e 3844     		add	r0, r0, r7
 117              	.LVL17:
 118 0060 FFF7FEFF 		bl	ssd_send_buffer
 119              	.LVL18:
  61:main.c        ****             } else {
 120              		.loc 1 61 0
 121 0064 1034     		adds	r4, r4, #16
 122              	.LVL19:
 123 0066 E4B2     		uxtb	r4, r4
 124              	.LVL20:
 125 0068 07E0     		b	.L7
 126              	.L6:
 127              	.LBE12:
 128              	.LBB13:
  64:main.c        ****                 ssd_send_buffer(data, col_len - col);
 129              		.loc 1 64 0
 130 006a 05FB0640 		mla	r0, r5, r6, r4
ARM GAS  C:\Users\d3bug\AppData\Local\Temp\ccoxzwpu.s 			page 5


 131              	.LVL21:
  65:main.c        ****                 break;
 132              		.loc 1 65 0
 133 006e 291B     		subs	r1, r5, r4
 134 0070 3844     		add	r0, r0, r7
 135              	.LVL22:
 136 0072 FFF7FEFF 		bl	ssd_send_buffer
 137              	.LVL23:
 138 0076 02E0     		b	.L8
 139              	.LVL24:
 140              	.L10:
 141              	.LBE13:
 142              	.LBE11:
  56:main.c        ****         for (uint8_t col = 0; col < col_len; ) {
 143              		.loc 1 56 0
 144 0078 0024     		movs	r4, #0
 145              	.L7:
 146              	.LVL25:
 147              	.LBB14:
  57:main.c        ****             if((col + col_step) <= col_len) {
 148              		.loc 1 57 0
 149 007a A542     		cmp	r5, r4
 150 007c E8D8     		bhi	.L9
 151              	.L8:
 152              	.LBE14:
  56:main.c        ****         for (uint8_t col = 0; col < col_len; ) {
 153              		.loc 1 56 0
 154 007e 0136     		adds	r6, r6, #1
 155              	.LVL26:
 156 0080 F6B2     		uxtb	r6, r6
 157              	.LVL27:
 158              	.L5:
 159 0082 B045     		cmp	r8, r6
 160 0084 F8D8     		bhi	.L10
 161              	.LVL28:
 162              	.LBE10:
 163              	.LBE9:
 164              	.LBE8:
  87:main.c        ****     
  88:main.c        ****     lv_flush_ready();
 165              		.loc 1 88 0
 166 0086 FFF7FEFF 		bl	lv_flush_ready
 167              	.LVL29:
 168 008a BDE8F081 		pop	{r4, r5, r6, r7, r8, pc}
 169              		.cfi_endproc
 170              	.LFE78:
 171              		.size	ssd1306_flush, .-ssd1306_flush
 172 008e 00BF     		.section	.text.timer_handler,"ax",%progbits
 173              		.align	2
 174              		.global	timer_handler
 175              		.thumb
 176              		.thumb_func
 177              		.type	timer_handler, %function
 178              	timer_handler:
 179              	.LFB79:
  89:main.c        **** }
  90:main.c        **** 
ARM GAS  C:\Users\d3bug\AppData\Local\Temp\ccoxzwpu.s 			page 6


  91:main.c        **** void timer_handler(void)
  92:main.c        **** {
 180              		.loc 1 92 0
 181              		.cfi_startproc
 182              		@ args = 0, pretend = 0, frame = 0
 183              		@ frame_needed = 0, uses_anonymous_args = 0
 184 0000 08B5     		push	{r3, lr}
 185              		.cfi_def_cfa_offset 8
 186              		.cfi_offset 3, -8
 187              		.cfi_offset 14, -4
  93:main.c        ****     lv_tick_inc(5);
 188              		.loc 1 93 0
 189 0002 0520     		movs	r0, #5
 190 0004 FFF7FEFF 		bl	lv_tick_inc
 191              	.LVL30:
  94:main.c        ****     
  95:main.c        ****     Timer_ReadStatusRegister();
 192              		.loc 1 95 0
 193 0008 FFF7FEFF 		bl	Timer_ReadStatusRegister
 194              	.LVL31:
 195 000c 08BD     		pop	{r3, pc}
 196              		.cfi_endproc
 197              	.LFE79:
 198              		.size	timer_handler, .-timer_handler
 199 000e 00BF     		.section	.text.print_log,"ax",%progbits
 200              		.align	2
 201              		.thumb
 202              		.thumb_func
 203              		.type	print_log, %function
 204              	print_log:
 205              	.LFB80:
  96:main.c        **** }
  97:main.c        **** 
  98:main.c        **** static void print_log(lv_log_level_t level, const char * file, uint32_t line, const char * dsc)
  99:main.c        **** {
 206              		.loc 1 99 0
 207              		.cfi_startproc
 208              		@ args = 0, pretend = 0, frame = 0
 209              		@ frame_needed = 0, uses_anonymous_args = 0
 210              	.LVL32:
 211 0000 08B5     		push	{r3, lr}
 212              		.cfi_def_cfa_offset 8
 213              		.cfi_offset 3, -8
 214              		.cfi_offset 14, -4
 100:main.c        ****     (void) level;
 101:main.c        ****     
 102:main.c        ****     DBG_println("%s: %lu: %s", file, line, dsc);
 215              		.loc 1 102 0
 216 0002 0248     		ldr	r0, .L16
 217              	.LVL33:
 218 0004 FFF7FEFF 		bl	DBG_println
 219              	.LVL34:
 220 0008 08BD     		pop	{r3, pc}
 221              	.L17:
 222 000a 00BF     		.align	2
 223              	.L16:
 224 000c 00000000 		.word	.LC0
ARM GAS  C:\Users\d3bug\AppData\Local\Temp\ccoxzwpu.s 			page 7


 225              		.cfi_endproc
 226              	.LFE80:
 227              		.size	print_log, .-print_log
 228              		.section	.text.main,"ax",%progbits
 229              		.align	2
 230              		.global	main
 231              		.thumb
 232              		.thumb_func
 233              		.type	main, %function
 234              	main:
 235              	.LFB81:
 103:main.c        **** }
 104:main.c        **** 
 105:main.c        **** int main(void)
 106:main.c        **** {
 236              		.loc 1 106 0
 237              		.cfi_startproc
 238              		@ args = 0, pretend = 0, frame = 16
 239              		@ frame_needed = 0, uses_anonymous_args = 0
 240 0000 10B5     		push	{r4, lr}
 241              		.cfi_def_cfa_offset 8
 242              		.cfi_offset 4, -8
 243              		.cfi_offset 14, -4
 244 0002 86B0     		sub	sp, sp, #24
 245              		.cfi_def_cfa_offset 32
 107:main.c        ****     isr_Timer_StartEx(timer_handler);
 246              		.loc 1 107 0
 247 0004 1848     		ldr	r0, .L21
 248 0006 FFF7FEFF 		bl	isr_Timer_StartEx
 249              	.LVL35:
 108:main.c        ****     
 109:main.c        ****     CyGlobalIntEnable;
 250              		.loc 1 109 0
 251              		.syntax unified
 252              	@ 109 "main.c" 1
 253 000a 62B6     		CPSIE   i
 254              	@ 0 "" 2
 110:main.c        ****     
 111:main.c        ****     UART_Log_Start();
 255              		.loc 1 111 0
 256              		.thumb
 257              		.syntax unified
 258 000c FFF7FEFF 		bl	UART_Log_Start
 259              	.LVL36:
 112:main.c        ****     I2C_Start();
 260              		.loc 1 112 0
 261 0010 FFF7FEFF 		bl	I2C_Start
 262              	.LVL37:
 113:main.c        ****     DBG_clear_screen();
 263              		.loc 1 113 0
 264 0014 FFF7FEFF 		bl	DBG_clear_screen
 265              	.LVL38:
 114:main.c        ****     
 115:main.c        ****     ssd_init();
 266              		.loc 1 115 0
 267 0018 FFF7FEFF 		bl	ssd_init
 268              	.LVL39:
ARM GAS  C:\Users\d3bug\AppData\Local\Temp\ccoxzwpu.s 			page 8


 116:main.c        ****     
 117:main.c        ****     lv_init();
 269              		.loc 1 117 0
 270 001c FFF7FEFF 		bl	lv_init
 271              	.LVL40:
 118:main.c        ****     lv_log_register_print(print_log);
 272              		.loc 1 118 0
 273 0020 1248     		ldr	r0, .L21+4
 274 0022 FFF7FEFF 		bl	lv_log_register_print
 275              	.LVL41:
 119:main.c        ****     
 120:main.c        ****     Timer_Start();
 276              		.loc 1 120 0
 277 0026 FFF7FEFF 		bl	Timer_Start
 278              	.LVL42:
 121:main.c        **** 
 122:main.c        ****     lv_disp_drv_t disp_drv;
 123:main.c        ****     lv_disp_drv_init(&disp_drv);
 279              		.loc 1 123 0
 280 002a 02A8     		add	r0, sp, #8
 281 002c FFF7FEFF 		bl	lv_disp_drv_init
 282              	.LVL43:
 124:main.c        ****     disp_drv.disp_flush = ssd1306_flush;
 283              		.loc 1 124 0
 284 0030 0F4B     		ldr	r3, .L21+8
 285 0032 0293     		str	r3, [sp, #8]
 125:main.c        ****     lv_disp_drv_register(&disp_drv);
 286              		.loc 1 125 0
 287 0034 02A8     		add	r0, sp, #8
 288 0036 FFF7FEFF 		bl	lv_disp_drv_register
 289              	.LVL44:
 126:main.c        ****     
 127:main.c        ****     /*Create a Label on the currently active screen*/
 128:main.c        ****     lv_obj_t *label1 = lv_label_create(lv_scr_act(), NULL);
 290              		.loc 1 128 0
 291 003a FFF7FEFF 		bl	lv_scr_act
 292              	.LVL45:
 293 003e 0021     		movs	r1, #0
 294 0040 FFF7FEFF 		bl	lv_label_create
 295              	.LVL46:
 296 0044 0446     		mov	r4, r0
 297              	.LVL47:
 129:main.c        ****     
 130:main.c        ****     /*Modify the Label's text*/
 131:main.c        ****     lv_label_set_text(label1, "Hello world!");
 298              		.loc 1 131 0
 299 0046 0B49     		ldr	r1, .L21+12
 300 0048 FFF7FEFF 		bl	lv_label_set_text
 301              	.LVL48:
 132:main.c        **** 
 133:main.c        ****     /* NULL means align on parent (which is the screen now) */
 134:main.c        ****     lv_obj_align(label1, NULL, LV_ALIGN_CENTER, 0, 0);
 302              		.loc 1 134 0
 303 004c 0021     		movs	r1, #0
 304 004e 0091     		str	r1, [sp]
 305 0050 0B46     		mov	r3, r1
 306 0052 0A46     		mov	r2, r1
ARM GAS  C:\Users\d3bug\AppData\Local\Temp\ccoxzwpu.s 			page 9


 307 0054 2046     		mov	r0, r4
 308 0056 FFF7FEFF 		bl	lv_obj_align
 309              	.LVL49:
 310              	.L19:
 135:main.c        **** 
 136:main.c        ****     for(;;) {
 137:main.c        ****         lv_task_handler();
 311              		.loc 1 137 0 discriminator 1
 312 005a FFF7FEFF 		bl	lv_task_handler
 313              	.LVL50:
 138:main.c        ****         CyDelay(5);
 314              		.loc 1 138 0 discriminator 1
 315 005e 0520     		movs	r0, #5
 316 0060 FFF7FEFF 		bl	CyDelay
 317              	.LVL51:
 318 0064 F9E7     		b	.L19
 319              	.L22:
 320 0066 00BF     		.align	2
 321              	.L21:
 322 0068 00000000 		.word	timer_handler
 323 006c 00000000 		.word	print_log
 324 0070 00000000 		.word	ssd1306_flush
 325 0074 0C000000 		.word	.LC1
 326              		.cfi_endproc
 327              	.LFE81:
 328              		.size	main, .-main
 329              		.section	.rodata.str1.4,"aMS",%progbits,1
 330              		.align	2
 331              	.LC0:
 332 0000 25733A20 		.ascii	"%s: %lu: %s\000"
 332      256C753A 
 332      20257300 
 333              	.LC1:
 334 000c 48656C6C 		.ascii	"Hello world!\000"
 334      6F20776F 
 334      726C6421 
 334      00
 335              		.text
 336              	.Letext0:
 337              		.file 2 "c:\\program files (x86)\\cypress\\psoc creator\\4.2\\psoc creator\\import\\gnu\\arm\\5.4.
 338              		.file 3 "c:\\program files (x86)\\cypress\\psoc creator\\4.2\\psoc creator\\import\\gnu\\arm\\5.4.
 339              		.file 4 "..\\lvgl/lv_misc/lv_log.h"
 340              		.file 5 "..\\lvgl/lv_misc/lv_ll.h"
 341              		.file 6 "..\\lvgl/lv_hal/../lv_misc/lv_color.h"
 342              		.file 7 "..\\lvgl/lv_hal/../lv_misc/lv_area.h"
 343              		.file 8 "..\\lvgl/lv_hal/lv_hal_disp.h"
 344              		.file 9 "..\\lvgl/lv_hal/../lv_core/../lv_misc/lv_font.h"
 345              		.file 10 "..\\lvgl/lv_hal/../lv_core/lv_style.h"
 346              		.file 11 "..\\lvgl/lv_hal/../lv_core/lv_obj.h"
 347              		.file 12 "..\\SSD1306/SSD1306.h"
 348              		.file 13 "..\\lvgl/lv_core/lv_vdb.h"
 349              		.file 14 "..\\lvgl/lv_hal/lv_hal_tick.h"
 350              		.file 15 "Generated_Source\\PSoC5/Timer.h"
 351              		.file 16 "..\\DBG/DBG.h"
 352              		.file 17 "Generated_Source\\PSoC5/isr_Timer.h"
 353              		.file 18 "Generated_Source\\PSoC5/UART_Log.h"
 354              		.file 19 "Generated_Source\\PSoC5/I2C.h"
ARM GAS  C:\Users\d3bug\AppData\Local\Temp\ccoxzwpu.s 			page 10


 355              		.file 20 "..\\lvgl/lv_objx/lv_label.h"
 356              		.file 21 "..\\lvgl/lv_misc/lv_task.h"
 357              		.file 22 "Generated_Source\\PSoC5/CyLib.h"
 358              		.file 23 "Generated_Source\\PSoC5/core_cm3.h"